ARM GAS  C:\Users\HENRYA~1\AppData\Local\Temp\ccXtTLpa.s 			page 1


   1              		.syntax unified
   2              		.cpu cortex-m0
   3              		.fpu softvfp
   4              		.eabi_attribute 20, 1
   5              		.eabi_attribute 21, 1
   6              		.eabi_attribute 23, 3
   7              		.eabi_attribute 24, 1
   8              		.eabi_attribute 25, 1
   9              		.eabi_attribute 26, 1
  10              		.eabi_attribute 30, 1
  11              		.eabi_attribute 34, 0
  12              		.eabi_attribute 18, 4
  13              		.thumb
  14              		.syntax unified
  15              		.file	"main.c"
  16              		.text
  17              	.Ltext0:
  18              		.cfi_sections	.debug_frame
  19              		.global	__aeabi_i2d
  20              		.global	__aeabi_ddiv
  21              		.global	__aeabi_d2f
  22              		.global	__aeabi_fadd
  23              		.global	__aeabi_fmul
  24              		.section	.text.Serial_Interrupt,"ax",%progbits
  25              		.align	2
  26              		.global	Serial_Interrupt
  27              		.code	16
  28              		.thumb_func
  29              		.type	Serial_Interrupt, %function
  30              	Serial_Interrupt:
  31              	.LFB50:
  32              		.file 1 "main.c"
   1:main.c        **** #include <project.h>
   2:main.c        **** #include <stdio.h>
   3:main.c        **** #include <stdlib.h>
   4:main.c        **** #include <math.h>
   5:main.c        **** #include <protocolo can.h>
   6:main.c        **** //Import Libraries
   7:main.c        **** //Global Variables
   8:main.c        **** uint8 mailbox0[8];
   9:main.c        **** uint8 mailbox1[8];
  10:main.c        **** uint8 mailbox2[8];
  11:main.c        **** uint8 dato_enviado[8];
  12:main.c        **** uint8 dato_enviado_1[8];
  13:main.c        **** uint8 dato_enviado_2[8];
  14:main.c        **** int16 conta=0;
  15:main.c        **** int cantidadM=0;
  16:main.c        **** int Cantidad_Sensores=0;
  17:main.c        **** //Variables AE
  18:main.c        **** int Max_Conta=150;
  19:main.c        **** float Amplitud_H=0.0;
  20:main.c        **** float Amplitud_V=0.0;
  21:main.c        **** float Offset_H=0.833;
  22:main.c        **** float Offset_V=0.833;
  23:main.c        **** float Fase=0.0;
  24:main.c        **** float ampli_aux_V=0.0;
  25:main.c        **** float ampli_aux_H=0.0;
ARM GAS  C:\Users\HENRYA~1\AppData\Local\Temp\ccXtTLpa.s 			page 2


  26:main.c        **** float off_aux_V=0.833;
  27:main.c        **** float off_aux_H=0.833;
  28:main.c        **** float pha_aux=0.0;
  29:main.c        **** float ampli_aux_V_2=0.0;
  30:main.c        **** float off_aux_V_2=0.833;
  31:main.c        **** float pha_aux_2=0.0;
  32:main.c        **** float ampli_aux_H_2=0.0;
  33:main.c        **** float off_aux_H_2=0.833;
  34:main.c        **** float Peso_Sensor=0.0;
  35:main.c        **** int flag=0;
  36:main.c        **** float dist=0.0;
  37:main.c        **** float L_actual=0.0;
  38:main.c        **** float L_anterior=0.0;
  39:main.c        **** int punto_a=0;
  40:main.c        **** int punto_b=0;
  41:main.c        **** int move_s=0;
  42:main.c        **** int individuo=0;
  43:main.c        **** 
  44:main.c        **** 
  45:main.c        **** double randd() {
  46:main.c        ****   return (double)rand()/((double)RAND_MAX + 1);
  47:main.c        **** }
  48:main.c        **** 
  49:main.c        **** double random_amplitud_1(){
  50:main.c        ****     float r=0.0;
  51:main.c        ****     r=randd();
  52:main.c        ****     return r;
  53:main.c        **** }
  54:main.c        **** 
  55:main.c        **** double random_amplitud_2(){
  56:main.c        ****     float r=0.0;
  57:main.c        ****     r=randd();
  58:main.c        ****     r=r*0.2;
  59:main.c        ****     return r;
  60:main.c        **** }
  61:main.c        **** 
  62:main.c        **** double random_Fase(){
  63:main.c        ****     float r=0.0;
  64:main.c        ****     r=-0.1*randd();
  65:main.c        ****     return r;
  66:main.c        **** }
  67:main.c        **** 
  68:main.c        **** double random_Offset(){
  69:main.c        ****     float r=0.0;
  70:main.c        ****     r=randd();
  71:main.c        ****     r=r*-0.01;
  72:main.c        ****     r=r+0.02;
  73:main.c        ****     return r;
  74:main.c        **** }
  75:main.c        **** 
  76:main.c        **** void movimiento(unsigned int dirr,int mov){
  77:main.c        ****     char byteh,bytel;
  78:main.c        ****     byteh= mov >> 8;
  79:main.c        ****     bytel=mov;
  80:main.c        ****     dato_enviado[0]=VER ;//verificacion
  81:main.c        ****     dato_enviado[1]=dirr ;//dir
  82:main.c        ****     dato_enviado[2]=ESCRITURA ;//operacion
ARM GAS  C:\Users\HENRYA~1\AppData\Local\Temp\ccXtTLpa.s 			page 3


  83:main.c        ****     dato_enviado[3]=MOTOR;//lugar
  84:main.c        ****     dato_enviado[4]= byteh ;  //dato
  85:main.c        ****     dato_enviado[5]= bytel ;  //dato
  86:main.c        ****     CAN_SendMsg0(); 
  87:main.c        ****     CyDelay(25);    
  88:main.c        **** }
  89:main.c        **** 
  90:main.c        **** void Send_Angle(int datas,int Conta3){ 
  91:main.c        ****     dato_enviado[0]=VER2;//verificacion
  92:main.c        ****     dato_enviado[1]=Conta3;//dir
  93:main.c        ****     dato_enviado[2]=Conta3;//dir
  94:main.c        ****     dato_enviado[3]=ANGLE;
  95:main.c        ****     dato_enviado[4]=0;//lugar
  96:main.c        ****     dato_enviado[5]=0;  //dato... en este caso direcion para asignar
  97:main.c        ****     dato_enviado[6]=datas;
  98:main.c        ****     dato_enviado[7]=Conta3;
  99:main.c        ****     CAN_SendMsg0(); 
 100:main.c        ****     CyDelay(50);
 101:main.c        **** }
 102:main.c        **** 
 103:main.c        **** void Enviar_Parametros(float Amplitud,float Phase,float Offset,int Orientacion){
 104:main.c        ****     //Convertir el Valor a entero para ser enviado
 105:main.c        ****     int Amp_env=(int)fabs(Amplitud*10000);
 106:main.c        ****     int Phase_env=(int)fabs(Phase*10000);
 107:main.c        ****     int Offset_env=(int)fabs(Offset*10000);
 108:main.c        ****     //Enviar datos
 109:main.c        ****     dato_enviado_1[0]=VER_M1;
 110:main.c        ****     dato_enviado_1[1]=Orientacion;
 111:main.c        ****     //Convertir Amplitud
 112:main.c        ****     uint8 datoL=Amp_env;
 113:main.c        ****     uint8 datoH=Amp_env>>8;
 114:main.c        ****     uint8 Aux=0;
 115:main.c        ****     if(Amplitud<0.0){
 116:main.c        ****         Aux=(1<<7);
 117:main.c        ****         datoH=datoH+Aux;
 118:main.c        ****     }
 119:main.c        ****     else{
 120:main.c        ****         Aux=(0<<7);
 121:main.c        ****         datoH=datoH+Aux;    
 122:main.c        ****     }
 123:main.c        ****     dato_enviado_1[2]=datoL;
 124:main.c        ****     dato_enviado_1[3]=datoH;
 125:main.c        ****     //Convertir Fase
 126:main.c        ****     datoL=Phase_env;
 127:main.c        ****     datoH=Phase_env>>8;
 128:main.c        ****     if(Phase<0.0){
 129:main.c        ****         Aux=(1<<7);
 130:main.c        ****         datoH=datoH+Aux;
 131:main.c        ****     }
 132:main.c        ****     else{
 133:main.c        ****         Aux=(0<<7);
 134:main.c        ****         datoH=datoH+Aux;    
 135:main.c        ****     }
 136:main.c        ****     dato_enviado_1[4]=datoL;
 137:main.c        ****     dato_enviado_1[5]=datoH;
 138:main.c        ****     //Convertir Offset
 139:main.c        ****     datoL=Offset_env;
ARM GAS  C:\Users\HENRYA~1\AppData\Local\Temp\ccXtTLpa.s 			page 4


 140:main.c        ****     datoH=Offset_env>>8;
 141:main.c        ****     if(Offset<0.0){
 142:main.c        ****         Aux=(1<<7);
 143:main.c        ****         datoH=datoH+Aux;
 144:main.c        ****     }
 145:main.c        ****     else{
 146:main.c        ****         Aux=(0<<7);
 147:main.c        ****         datoH=datoH+Aux;    
 148:main.c        ****     }
 149:main.c        ****     dato_enviado_1[6]=datoL;
 150:main.c        ****     dato_enviado_1[7]=datoH;    
 151:main.c        ****     CAN_SendMsg1();
 152:main.c        ****     CyDelay(25);
 153:main.c        **** }
 154:main.c        **** 
 155:main.c        **** void Recibe_mail_0(){
 156:main.c        **** if(mailbox0[0]==VER){
 157:main.c        ****             switch(mailbox0[2]){
 158:main.c        ****             ///////////////////////////////////////////////////////
 159:main.c        ****             case ESCRITURA:{ 
 160:main.c        ****                 switch(mailbox0[3]){//////////+6+++++++++++++
 161:main.c        ****                     case CANTIDAD_MOD: 
 162:main.c        ****                             cantidadM=mailbox0[4];
 163:main.c        ****                     break;
 164:main.c        ****                     case START:
 165:main.c        ****                         
 166:main.c        ****                     break;
 167:main.c        ****                 }
 168:main.c        ****             }                                            
 169:main.c        ****         }    
 170:main.c        **** }
 171:main.c        **** if(mailbox0[0]==VER2){
 172:main.c        ****                 switch(mailbox0[3]){
 173:main.c        ****                 ///////////////////////////////////////////////////////
 174:main.c        ****                 case ANGLE:{
 175:main.c        ****                     int Contador=mailbox0[7];
 176:main.c        ****                     if(Contador>=cantidadM){
 177:main.c        ****                             Enviar_Parametros(Amplitud_H,Fase,Offset_H,H);
 178:main.c        ****                             CyDelay(50);
 179:main.c        ****                             Enviar_Parametros(Amplitud_V,Fase,Offset_V,V);
 180:main.c        ****                             CyDelay(50); 
 181:main.c        ****                             Send_Angle(0,0);
 182:main.c        ****                     } 
 183:main.c        ****                 }
 184:main.c        ****                 break;}
 185:main.c        ****             }
 186:main.c        **** }
 187:main.c        **** 
 188:main.c        **** void Recibe_Mail_2(){
 189:main.c        ****     if(mailbox2[0]==SENSORES){
 190:main.c        ****         //Mailbox2[1] Derecha
 191:main.c        ****         //Mailbox2[2] Frente
 192:main.c        ****         //Mailbox2[3] Izquierda
 193:main.c        ****         if(mailbox2[1]==0&&mailbox2[2]==0&&mailbox2[3]==0)      {Peso_Sensor=0.0;}   //Normal
 194:main.c        ****         else if(mailbox2[1]==0&&mailbox2[2]==0&&mailbox2[3]==1) {Peso_Sensor=0.2;}   //Izquierda
 195:main.c        ****         else if(mailbox2[1]==0&&mailbox2[2]==1&&mailbox2[3]==0) {Peso_Sensor=0.6;}   //Frontal
 196:main.c        ****         else if(mailbox2[1]==0&&mailbox2[2]==1&&mailbox2[3]==1) {Peso_Sensor=0.8;}   //Frontal e Iz
ARM GAS  C:\Users\HENRYA~1\AppData\Local\Temp\ccXtTLpa.s 			page 5


 197:main.c        ****         else if(mailbox2[1]==1&&mailbox2[2]==0&&mailbox2[3]==0) {Peso_Sensor=0.2;}   //Derecha
 198:main.c        ****         else if(mailbox2[1]==1&&mailbox2[2]==0&&mailbox2[3]==1) {Peso_Sensor=0.4;}   //Derecha e Iz
 199:main.c        ****         else if(mailbox2[1]==1&&mailbox2[2]==1&&mailbox2[3]==0) {Peso_Sensor=0.8;}   //Frontal y De
 200:main.c        ****         else if(mailbox2[1]==1&&mailbox2[2]==1&&mailbox2[3]==1) {Peso_Sensor=1;}     //Todos
 201:main.c        ****         else                                                    {Peso_Sensor=0.0;}   //Normal
 202:main.c        ****     }
 203:main.c        **** }
 204:main.c        **** 
 205:main.c        **** CY_ISR(interrutcan){
 206:main.c        ****     CAN_GlobalIntDisable();
 207:main.c        ****     CAN_MsgRXIsr();  
 208:main.c        ****     Recibe_mail_0();
 209:main.c        ****     Recibe_Mail_2();
 210:main.c        ****     CAN_GlobalIntEnable();
 211:main.c        **** }
 212:main.c        **** 
 213:main.c        **** void Hill(){
 214:main.c        ****     if (flag==1){
 215:main.c        ****         ampli_aux_V=Amplitud_V;
 216:main.c        ****         ampli_aux_H=Amplitud_H;
 217:main.c        ****         pha_aux=Fase;
 218:main.c        ****         off_aux_V=Offset_V;
 219:main.c        ****         off_aux_H=Offset_H;      
 220:main.c        ****         Amplitud_V=0.0;
 221:main.c        ****         Amplitud_H=0.0;
 222:main.c        ****         Fase=0.0;
 223:main.c        ****         Offset_V=0.833;
 224:main.c        ****         Offset_H=0.833;
 225:main.c        ****         Max_Conta=15;
 226:main.c        ****     }
 227:main.c        ****     else if (flag==2){   
 228:main.c        ****         L_anterior=dist;
 229:main.c        ****         if(randd()<0.5){
 230:main.c        ****             Amplitud_H=random_amplitud_1();
 231:main.c        ****             Amplitud_V=random_amplitud_2();
 232:main.c        ****             Fase=random_Fase();
 233:main.c        ****             Offset_H=0.833+random_Offset();
 234:main.c        ****             Offset_V=Offset_H; 
 235:main.c        ****         }
 236:main.c        ****         else{
 237:main.c        ****             Amplitud_V=random_amplitud_1();
 238:main.c        ****             Amplitud_H=0.0;
 239:main.c        ****             Fase=random_Fase();
 240:main.c        ****             Offset_H=0.833;
 241:main.c        ****             Offset_V=0.833+random_Offset();
 242:main.c        ****         }  
 243:main.c        ****         ampli_aux_H_2=Amplitud_H;
 244:main.c        ****         off_aux_H_2=Offset_H;      
 245:main.c        ****         ampli_aux_V_2=Amplitud_V;
 246:main.c        ****         off_aux_V_2=Offset_V;
 247:main.c        ****         pha_aux_2=Fase; 
 248:main.c        ****         Max_Conta=50;
 249:main.c        ****     }
 250:main.c        ****     else if (flag==3){
 251:main.c        ****         Amplitud_V=0.0;
 252:main.c        ****         Amplitud_H=0.0;
 253:main.c        ****         Fase=0.0;
ARM GAS  C:\Users\HENRYA~1\AppData\Local\Temp\ccXtTLpa.s 			page 6


 254:main.c        ****         Offset_V=0.833;
 255:main.c        ****         Offset_H=0.833;
 256:main.c        ****         Max_Conta=15;
 257:main.c        ****     }    
 258:main.c        ****     else if(flag==4){
 259:main.c        ****         L_actual=dist;
 260:main.c        ****         dato_enviado_2[0]=individuo;
 261:main.c        ****         dato_enviado_2[1]=(int)dist;
 262:main.c        ****         CAN_SendMsg3();
 263:main.c        ****         if(L_anterior<L_actual){
 264:main.c        ****             Amplitud_V=ampli_aux_V;
 265:main.c        ****             Amplitud_H=ampli_aux_H;
 266:main.c        ****             Fase=pha_aux;
 267:main.c        ****             Offset_V=off_aux_V;
 268:main.c        ****             Offset_H=off_aux_H;              
 269:main.c        ****         }
 270:main.c        ****         else{
 271:main.c        ****             Amplitud_V=ampli_aux_V_2;
 272:main.c        ****             Amplitud_H=ampli_aux_H_2;
 273:main.c        ****             Fase=pha_aux_2;
 274:main.c        ****             Offset_V=off_aux_V_2;
 275:main.c        ****             Offset_H=off_aux_H_2;       
 276:main.c        ****         }
 277:main.c        ****         if(individuo==0){individuo=1;}
 278:main.c        ****         else{individuo=0;}
 279:main.c        ****         flag=0;
 280:main.c        ****         Max_Conta=70;
 281:main.c        ****     }
 282:main.c        ****     else if(flag>4){flag=0;Max_Conta=4;}  
 283:main.c        **** }
 284:main.c        **** 
 285:main.c        **** //Interrupt's
 286:main.c        **** CY_ISR(Temporizador){
 287:main.c        ****     conta++;  
 288:main.c        ****     if(conta==Max_Conta){     
 289:main.c        ****         LED_1_Write(1);
 290:main.c        ****         flag++;      
 291:main.c        ****         Hill(); 
 292:main.c        ****         for(int i=0;i<5;i++){
 293:main.c        ****             Enviar_Parametros(Amplitud_H,Fase,Offset_H,H);
 294:main.c        ****             CyDelay(50);
 295:main.c        ****             Enviar_Parametros(Amplitud_V,Fase,Offset_V,V);
 296:main.c        ****             CyDelay(50);
 297:main.c        ****             Send_Angle(0,0);
 298:main.c        ****         }        
 299:main.c        ****         conta=0;
 300:main.c        ****     }
 301:main.c        ****     else{
 302:main.c        ****         LED_1_Write(0);
 303:main.c        ****     }  
 304:main.c        **** }
 305:main.c        **** 
 306:main.c        **** CY_ISR(Serial_Interrupt){
  33              		.loc 1 306 0
  34              		.cfi_startproc
  35              		@ args = 0, pretend = 0, frame = 0
  36              		@ frame_needed = 0, uses_anonymous_args = 0
ARM GAS  C:\Users\HENRYA~1\AppData\Local\Temp\ccXtTLpa.s 			page 7


  37 0000 10B5     		push	{r4, lr}
  38              		.cfi_def_cfa_offset 8
  39              		.cfi_offset 4, -8
  40              		.cfi_offset 14, -4
 307:main.c        ****     dist=SENSOR_U_GetChar()/255.0;
  41              		.loc 1 307 0
  42 0002 FFF7FEFF 		bl	SENSOR_U_GetChar
  43              	.LVL0:
  44 0006 FFF7FEFF 		bl	__aeabi_i2d
  45              	.LVL1:
  46 000a 0022     		movs	r2, #0
  47 000c 064B     		ldr	r3, .L2
  48 000e FFF7FEFF 		bl	__aeabi_ddiv
  49              	.LVL2:
  50 0012 FFF7FEFF 		bl	__aeabi_d2f
  51              	.LVL3:
  52 0016 054C     		ldr	r4, .L2+4
 308:main.c        ****     dist=dist+Peso_Sensor;
  53              		.loc 1 308 0
  54 0018 6168     		ldr	r1, [r4, #4]
  55 001a FFF7FEFF 		bl	__aeabi_fadd
  56              	.LVL4:
 309:main.c        ****     dist=dist*100;
  57              		.loc 1 309 0
  58 001e 0449     		ldr	r1, .L2+8
  59 0020 FFF7FEFF 		bl	__aeabi_fmul
  60              	.LVL5:
  61 0024 2060     		str	r0, [r4]
 310:main.c        **** }
  62              		.loc 1 310 0
  63              		@ sp needed
  64 0026 10BD     		pop	{r4, pc}
  65              	.L3:
  66              		.align	2
  67              	.L2:
  68 0028 00E06F40 		.word	1081073664
  69 002c 00000000 		.word	.LANCHOR0
  70 0030 0000C842 		.word	1120403456
  71              		.cfi_endproc
  72              	.LFE50:
  73              		.size	Serial_Interrupt, .-Serial_Interrupt
  74              		.global	__aeabi_dmul
  75              		.section	.text.randd,"ax",%progbits
  76              		.align	2
  77              		.global	randd
  78              		.code	16
  79              		.thumb_func
  80              		.type	randd, %function
  81              	randd:
  82              	.LFB37:
  45:main.c        ****   return (double)rand()/((double)RAND_MAX + 1);
  83              		.loc 1 45 0
  84              		.cfi_startproc
  85              		@ args = 0, pretend = 0, frame = 0
  86              		@ frame_needed = 0, uses_anonymous_args = 0
  87 0000 10B5     		push	{r4, lr}
  88              		.cfi_def_cfa_offset 8
ARM GAS  C:\Users\HENRYA~1\AppData\Local\Temp\ccXtTLpa.s 			page 8


  89              		.cfi_offset 4, -8
  90              		.cfi_offset 14, -4
  46:main.c        **** }
  91              		.loc 1 46 0
  92 0002 FFF7FEFF 		bl	rand
  93              	.LVL6:
  94 0006 FFF7FEFF 		bl	__aeabi_i2d
  95              	.LVL7:
  96 000a 0022     		movs	r2, #0
  97 000c F823     		movs	r3, #248
  98 000e 9B05     		lsls	r3, r3, #22
  99 0010 FFF7FEFF 		bl	__aeabi_dmul
 100              	.LVL8:
  47:main.c        **** 
 101              		.loc 1 47 0
 102              		@ sp needed
 103 0014 10BD     		pop	{r4, pc}
 104              		.cfi_endproc
 105              	.LFE37:
 106              		.size	randd, .-randd
 107              		.global	__aeabi_f2d
 108 0016 C046     		.section	.text.random_amplitud_1,"ax",%progbits
 109              		.align	2
 110              		.global	random_amplitud_1
 111              		.code	16
 112              		.thumb_func
 113              		.type	random_amplitud_1, %function
 114              	random_amplitud_1:
 115              	.LFB38:
  49:main.c        ****     float r=0.0;
 116              		.loc 1 49 0
 117              		.cfi_startproc
 118              		@ args = 0, pretend = 0, frame = 0
 119              		@ frame_needed = 0, uses_anonymous_args = 0
 120 0000 10B5     		push	{r4, lr}
 121              		.cfi_def_cfa_offset 8
 122              		.cfi_offset 4, -8
 123              		.cfi_offset 14, -4
 124              	.LVL9:
  51:main.c        ****     return r;
 125              		.loc 1 51 0
 126 0002 FFF7FEFF 		bl	randd
 127              	.LVL10:
 128 0006 FFF7FEFF 		bl	__aeabi_d2f
 129              	.LVL11:
  52:main.c        **** }
 130              		.loc 1 52 0
 131 000a FFF7FEFF 		bl	__aeabi_f2d
 132              	.LVL12:
  53:main.c        **** 
 133              		.loc 1 53 0
 134              		@ sp needed
 135 000e 10BD     		pop	{r4, pc}
 136              		.cfi_endproc
 137              	.LFE38:
 138              		.size	random_amplitud_1, .-random_amplitud_1
 139              		.section	.text.random_amplitud_2,"ax",%progbits
ARM GAS  C:\Users\HENRYA~1\AppData\Local\Temp\ccXtTLpa.s 			page 9


 140              		.align	2
 141              		.global	random_amplitud_2
 142              		.code	16
 143              		.thumb_func
 144              		.type	random_amplitud_2, %function
 145              	random_amplitud_2:
 146              	.LFB39:
  55:main.c        ****     float r=0.0;
 147              		.loc 1 55 0
 148              		.cfi_startproc
 149              		@ args = 0, pretend = 0, frame = 0
 150              		@ frame_needed = 0, uses_anonymous_args = 0
 151 0000 10B5     		push	{r4, lr}
 152              		.cfi_def_cfa_offset 8
 153              		.cfi_offset 4, -8
 154              		.cfi_offset 14, -4
 155              	.LVL13:
  57:main.c        ****     r=r*0.2;
 156              		.loc 1 57 0
 157 0002 FFF7FEFF 		bl	randd
 158              	.LVL14:
 159 0006 FFF7FEFF 		bl	__aeabi_d2f
 160              	.LVL15:
  58:main.c        ****     return r;
 161              		.loc 1 58 0
 162 000a FFF7FEFF 		bl	__aeabi_f2d
 163              	.LVL16:
 164 000e 044A     		ldr	r2, .L7
 165 0010 044B     		ldr	r3, .L7+4
 166 0012 FFF7FEFF 		bl	__aeabi_dmul
 167              	.LVL17:
 168 0016 FFF7FEFF 		bl	__aeabi_d2f
 169              	.LVL18:
  59:main.c        **** }
 170              		.loc 1 59 0
 171 001a FFF7FEFF 		bl	__aeabi_f2d
 172              	.LVL19:
  60:main.c        **** 
 173              		.loc 1 60 0
 174              		@ sp needed
 175 001e 10BD     		pop	{r4, pc}
 176              	.L8:
 177              		.align	2
 178              	.L7:
 179 0020 9A999999 		.word	-1717986918
 180 0024 9999C93F 		.word	1070176665
 181              		.cfi_endproc
 182              	.LFE39:
 183              		.size	random_amplitud_2, .-random_amplitud_2
 184              		.section	.text.random_Fase,"ax",%progbits
 185              		.align	2
 186              		.global	random_Fase
 187              		.code	16
 188              		.thumb_func
 189              		.type	random_Fase, %function
 190              	random_Fase:
 191              	.LFB40:
ARM GAS  C:\Users\HENRYA~1\AppData\Local\Temp\ccXtTLpa.s 			page 10


  62:main.c        ****     float r=0.0;
 192              		.loc 1 62 0
 193              		.cfi_startproc
 194              		@ args = 0, pretend = 0, frame = 0
 195              		@ frame_needed = 0, uses_anonymous_args = 0
 196 0000 10B5     		push	{r4, lr}
 197              		.cfi_def_cfa_offset 8
 198              		.cfi_offset 4, -8
 199              		.cfi_offset 14, -4
 200              	.LVL20:
  64:main.c        ****     return r;
 201              		.loc 1 64 0
 202 0002 FFF7FEFF 		bl	randd
 203              	.LVL21:
 204 0006 044A     		ldr	r2, .L10
 205 0008 044B     		ldr	r3, .L10+4
 206 000a FFF7FEFF 		bl	__aeabi_dmul
 207              	.LVL22:
 208 000e FFF7FEFF 		bl	__aeabi_d2f
 209              	.LVL23:
  65:main.c        **** }
 210              		.loc 1 65 0
 211 0012 FFF7FEFF 		bl	__aeabi_f2d
 212              	.LVL24:
  66:main.c        **** 
 213              		.loc 1 66 0
 214              		@ sp needed
 215 0016 10BD     		pop	{r4, pc}
 216              	.L11:
 217              		.align	2
 218              	.L10:
 219 0018 9A999999 		.word	-1717986918
 220 001c 9999B9BF 		.word	-1078355559
 221              		.cfi_endproc
 222              	.LFE40:
 223              		.size	random_Fase, .-random_Fase
 224              		.global	__aeabi_dadd
 225              		.section	.text.random_Offset,"ax",%progbits
 226              		.align	2
 227              		.global	random_Offset
 228              		.code	16
 229              		.thumb_func
 230              		.type	random_Offset, %function
 231              	random_Offset:
 232              	.LFB41:
  68:main.c        ****     float r=0.0;
 233              		.loc 1 68 0
 234              		.cfi_startproc
 235              		@ args = 0, pretend = 0, frame = 0
 236              		@ frame_needed = 0, uses_anonymous_args = 0
 237 0000 10B5     		push	{r4, lr}
 238              		.cfi_def_cfa_offset 8
 239              		.cfi_offset 4, -8
 240              		.cfi_offset 14, -4
 241              	.LVL25:
  70:main.c        ****     r=r*-0.01;
 242              		.loc 1 70 0
ARM GAS  C:\Users\HENRYA~1\AppData\Local\Temp\ccXtTLpa.s 			page 11


 243 0002 FFF7FEFF 		bl	randd
 244              	.LVL26:
 245 0006 FFF7FEFF 		bl	__aeabi_d2f
 246              	.LVL27:
  71:main.c        ****     r=r+0.02;
 247              		.loc 1 71 0
 248 000a FFF7FEFF 		bl	__aeabi_f2d
 249              	.LVL28:
 250 000e 084A     		ldr	r2, .L13
 251 0010 084B     		ldr	r3, .L13+4
 252 0012 FFF7FEFF 		bl	__aeabi_dmul
 253              	.LVL29:
 254 0016 FFF7FEFF 		bl	__aeabi_d2f
 255              	.LVL30:
  72:main.c        ****     return r;
 256              		.loc 1 72 0
 257 001a FFF7FEFF 		bl	__aeabi_f2d
 258              	.LVL31:
 259 001e 044A     		ldr	r2, .L13
 260 0020 054B     		ldr	r3, .L13+8
 261 0022 FFF7FEFF 		bl	__aeabi_dadd
 262              	.LVL32:
 263 0026 FFF7FEFF 		bl	__aeabi_d2f
 264              	.LVL33:
  73:main.c        **** }
 265              		.loc 1 73 0
 266 002a FFF7FEFF 		bl	__aeabi_f2d
 267              	.LVL34:
  74:main.c        **** 
 268              		.loc 1 74 0
 269              		@ sp needed
 270 002e 10BD     		pop	{r4, pc}
 271              	.L14:
 272              		.align	2
 273              	.L13:
 274 0030 7B14AE47 		.word	1202590843
 275 0034 E17A84BF 		.word	-1081836831
 276 0038 E17A943F 		.word	1066695393
 277              		.cfi_endproc
 278              	.LFE41:
 279              		.size	random_Offset, .-random_Offset
 280              		.section	.text.movimiento,"ax",%progbits
 281              		.align	2
 282              		.global	movimiento
 283              		.code	16
 284              		.thumb_func
 285              		.type	movimiento, %function
 286              	movimiento:
 287              	.LFB42:
  76:main.c        ****     char byteh,bytel;
 288              		.loc 1 76 0
 289              		.cfi_startproc
 290              		@ args = 0, pretend = 0, frame = 0
 291              		@ frame_needed = 0, uses_anonymous_args = 0
 292              	.LVL35:
 293 0000 10B5     		push	{r4, lr}
 294              		.cfi_def_cfa_offset 8
ARM GAS  C:\Users\HENRYA~1\AppData\Local\Temp\ccXtTLpa.s 			page 12


 295              		.cfi_offset 4, -8
 296              		.cfi_offset 14, -4
  78:main.c        ****     bytel=mov;
 297              		.loc 1 78 0
 298 0002 0A12     		asrs	r2, r1, #8
 299              	.LVL36:
  80:main.c        ****     dato_enviado[1]=dirr ;//dir
 300              		.loc 1 80 0
 301 0004 074B     		ldr	r3, .L16
 302 0006 7F24     		movs	r4, #127
 303 0008 1C70     		strb	r4, [r3]
  81:main.c        ****     dato_enviado[2]=ESCRITURA ;//operacion
 304              		.loc 1 81 0
 305 000a 5870     		strb	r0, [r3, #1]
  82:main.c        ****     dato_enviado[3]=MOTOR;//lugar
 306              		.loc 1 82 0
 307 000c 0220     		movs	r0, #2
 308              	.LVL37:
 309 000e 9870     		strb	r0, [r3, #2]
  83:main.c        ****     dato_enviado[4]= byteh ;  //dato
 310              		.loc 1 83 0
 311 0010 0130     		adds	r0, r0, #1
 312 0012 D870     		strb	r0, [r3, #3]
  84:main.c        ****     dato_enviado[5]= bytel ;  //dato
 313              		.loc 1 84 0
 314 0014 1A71     		strb	r2, [r3, #4]
  85:main.c        ****     CAN_SendMsg0(); 
 315              		.loc 1 85 0
 316 0016 5971     		strb	r1, [r3, #5]
  86:main.c        ****     CyDelay(25);    
 317              		.loc 1 86 0
 318 0018 FFF7FEFF 		bl	CAN_SendMsg0
 319              	.LVL38:
  87:main.c        **** }
 320              		.loc 1 87 0
 321 001c 1920     		movs	r0, #25
 322 001e FFF7FEFF 		bl	CyDelay
 323              	.LVL39:
  88:main.c        **** 
 324              		.loc 1 88 0
 325              		@ sp needed
 326 0022 10BD     		pop	{r4, pc}
 327              	.L17:
 328              		.align	2
 329              	.L16:
 330 0024 00000000 		.word	dato_enviado
 331              		.cfi_endproc
 332              	.LFE42:
 333              		.size	movimiento, .-movimiento
 334              		.section	.text.Send_Angle,"ax",%progbits
 335              		.align	2
 336              		.global	Send_Angle
 337              		.code	16
 338              		.thumb_func
 339              		.type	Send_Angle, %function
 340              	Send_Angle:
 341              	.LFB43:
ARM GAS  C:\Users\HENRYA~1\AppData\Local\Temp\ccXtTLpa.s 			page 13


  90:main.c        ****     dato_enviado[0]=VER2;//verificacion
 342              		.loc 1 90 0
 343              		.cfi_startproc
 344              		@ args = 0, pretend = 0, frame = 0
 345              		@ frame_needed = 0, uses_anonymous_args = 0
 346              	.LVL40:
 347 0000 10B5     		push	{r4, lr}
 348              		.cfi_def_cfa_offset 8
 349              		.cfi_offset 4, -8
 350              		.cfi_offset 14, -4
  91:main.c        ****     dato_enviado[1]=Conta3;//dir
 351              		.loc 1 91 0
 352 0002 094B     		ldr	r3, .L19
 353 0004 8022     		movs	r2, #128
 354 0006 1A70     		strb	r2, [r3]
  92:main.c        ****     dato_enviado[2]=Conta3;//dir
 355              		.loc 1 92 0
 356 0008 C9B2     		uxtb	r1, r1
 357              	.LVL41:
 358 000a 5970     		strb	r1, [r3, #1]
  93:main.c        ****     dato_enviado[3]=ANGLE;
 359              		.loc 1 93 0
 360 000c 9970     		strb	r1, [r3, #2]
  94:main.c        ****     dato_enviado[4]=0;//lugar
 361              		.loc 1 94 0
 362 000e 653A     		subs	r2, r2, #101
 363 0010 DA70     		strb	r2, [r3, #3]
  95:main.c        ****     dato_enviado[5]=0;  //dato... en este caso direcion para asignar
 364              		.loc 1 95 0
 365 0012 0022     		movs	r2, #0
 366 0014 1A71     		strb	r2, [r3, #4]
  96:main.c        ****     dato_enviado[6]=datas;
 367              		.loc 1 96 0
 368 0016 5A71     		strb	r2, [r3, #5]
  97:main.c        ****     dato_enviado[7]=Conta3;
 369              		.loc 1 97 0
 370 0018 9871     		strb	r0, [r3, #6]
  98:main.c        ****     CAN_SendMsg0(); 
 371              		.loc 1 98 0
 372 001a D971     		strb	r1, [r3, #7]
  99:main.c        ****     CyDelay(50);
 373              		.loc 1 99 0
 374 001c FFF7FEFF 		bl	CAN_SendMsg0
 375              	.LVL42:
 100:main.c        **** }
 376              		.loc 1 100 0
 377 0020 3220     		movs	r0, #50
 378 0022 FFF7FEFF 		bl	CyDelay
 379              	.LVL43:
 101:main.c        **** 
 380              		.loc 1 101 0
 381              		@ sp needed
 382 0026 10BD     		pop	{r4, pc}
 383              	.L20:
 384              		.align	2
 385              	.L19:
 386 0028 00000000 		.word	dato_enviado
ARM GAS  C:\Users\HENRYA~1\AppData\Local\Temp\ccXtTLpa.s 			page 14


 387              		.cfi_endproc
 388              	.LFE43:
 389              		.size	Send_Angle, .-Send_Angle
 390              		.global	__aeabi_f2iz
 391              		.global	__aeabi_fcmplt
 392              		.section	.text.Enviar_Parametros,"ax",%progbits
 393              		.align	2
 394              		.global	Enviar_Parametros
 395              		.code	16
 396              		.thumb_func
 397              		.type	Enviar_Parametros, %function
 398              	Enviar_Parametros:
 399              	.LFB44:
 103:main.c        ****     //Convertir el Valor a entero para ser enviado
 400              		.loc 1 103 0
 401              		.cfi_startproc
 402              		@ args = 0, pretend = 0, frame = 16
 403              		@ frame_needed = 0, uses_anonymous_args = 0
 404              	.LVL44:
 405 0000 F0B5     		push	{r4, r5, r6, r7, lr}
 406              		.cfi_def_cfa_offset 20
 407              		.cfi_offset 4, -20
 408              		.cfi_offset 5, -16
 409              		.cfi_offset 6, -12
 410              		.cfi_offset 7, -8
 411              		.cfi_offset 14, -4
 412 0002 85B0     		sub	sp, sp, #20
 413              		.cfi_def_cfa_offset 40
 414 0004 0190     		str	r0, [sp, #4]
 415 0006 0291     		str	r1, [sp, #8]
 416 0008 0392     		str	r2, [sp, #12]
 417 000a 1F00     		movs	r7, r3
 105:main.c        ****     int Phase_env=(int)fabs(Phase*10000);
 418              		.loc 1 105 0
 419 000c 2749     		ldr	r1, .L31
 420              	.LVL45:
 421 000e FFF7FEFF 		bl	__aeabi_fmul
 422              	.LVL46:
 423 0012 4000     		lsls	r0, r0, #1
 424 0014 4008     		lsrs	r0, r0, #1
 425 0016 FFF7FEFF 		bl	__aeabi_f2iz
 426              	.LVL47:
 427 001a 0600     		movs	r6, r0
 428              	.LVL48:
 106:main.c        ****     int Offset_env=(int)fabs(Offset*10000);
 429              		.loc 1 106 0
 430 001c 2349     		ldr	r1, .L31
 431 001e 0298     		ldr	r0, [sp, #8]
 432              	.LVL49:
 433 0020 FFF7FEFF 		bl	__aeabi_fmul
 434              	.LVL50:
 435 0024 4000     		lsls	r0, r0, #1
 436 0026 4008     		lsrs	r0, r0, #1
 437 0028 FFF7FEFF 		bl	__aeabi_f2iz
 438              	.LVL51:
 439 002c 0500     		movs	r5, r0
 440              	.LVL52:
ARM GAS  C:\Users\HENRYA~1\AppData\Local\Temp\ccXtTLpa.s 			page 15


 107:main.c        ****     //Enviar datos
 441              		.loc 1 107 0
 442 002e 1F49     		ldr	r1, .L31
 443 0030 0398     		ldr	r0, [sp, #12]
 444              	.LVL53:
 445 0032 FFF7FEFF 		bl	__aeabi_fmul
 446              	.LVL54:
 447 0036 4000     		lsls	r0, r0, #1
 448 0038 4008     		lsrs	r0, r0, #1
 449 003a FFF7FEFF 		bl	__aeabi_f2iz
 450              	.LVL55:
 451 003e 0400     		movs	r4, r0
 452              	.LVL56:
 109:main.c        ****     dato_enviado_1[1]=Orientacion;
 453              		.loc 1 109 0
 454 0040 1B4B     		ldr	r3, .L31+4
 455 0042 8122     		movs	r2, #129
 456 0044 1A70     		strb	r2, [r3]
 110:main.c        ****     //Convertir Amplitud
 457              		.loc 1 110 0
 458 0046 5F70     		strb	r7, [r3, #1]
 112:main.c        ****     uint8 datoH=Amp_env>>8;
 459              		.loc 1 112 0
 460 0048 F7B2     		uxtb	r7, r6
 461              	.LVL57:
 113:main.c        ****     uint8 Aux=0;
 462              		.loc 1 113 0
 463 004a 3612     		asrs	r6, r6, #8
 464              	.LVL58:
 465 004c F6B2     		uxtb	r6, r6
 466              	.LVL59:
 115:main.c        ****         Aux=(1<<7);
 467              		.loc 1 115 0
 468 004e 0021     		movs	r1, #0
 469 0050 0198     		ldr	r0, [sp, #4]
 470              	.LVL60:
 471 0052 FFF7FEFF 		bl	__aeabi_fcmplt
 472              	.LVL61:
 473 0056 0028     		cmp	r0, #0
 474 0058 01D0     		beq	.L22
 475              	.LVL62:
 117:main.c        ****     }
 476              		.loc 1 117 0
 477 005a 803E     		subs	r6, r6, #128
 478              	.LVL63:
 479 005c F6B2     		uxtb	r6, r6
 480              	.LVL64:
 481              	.L22:
 123:main.c        ****     dato_enviado_1[3]=datoH;
 482              		.loc 1 123 0
 483 005e 144B     		ldr	r3, .L31+4
 484 0060 9F70     		strb	r7, [r3, #2]
 124:main.c        ****     //Convertir Fase
 485              		.loc 1 124 0
 486 0062 DE70     		strb	r6, [r3, #3]
 126:main.c        ****     datoH=Phase_env>>8;
 487              		.loc 1 126 0
ARM GAS  C:\Users\HENRYA~1\AppData\Local\Temp\ccXtTLpa.s 			page 16


 488 0064 EEB2     		uxtb	r6, r5
 489              	.LVL65:
 127:main.c        ****     if(Phase<0.0){
 490              		.loc 1 127 0
 491 0066 2D12     		asrs	r5, r5, #8
 492              	.LVL66:
 493 0068 EDB2     		uxtb	r5, r5
 494              	.LVL67:
 128:main.c        ****         Aux=(1<<7);
 495              		.loc 1 128 0
 496 006a 0021     		movs	r1, #0
 497 006c 0298     		ldr	r0, [sp, #8]
 498 006e FFF7FEFF 		bl	__aeabi_fcmplt
 499              	.LVL68:
 500 0072 0028     		cmp	r0, #0
 501 0074 01D0     		beq	.L24
 502              	.LVL69:
 130:main.c        ****     }
 503              		.loc 1 130 0
 504 0076 803D     		subs	r5, r5, #128
 505              	.LVL70:
 506 0078 EDB2     		uxtb	r5, r5
 507              	.LVL71:
 508              	.L24:
 136:main.c        ****     dato_enviado_1[5]=datoH;
 509              		.loc 1 136 0
 510 007a 0D4B     		ldr	r3, .L31+4
 511 007c 1E71     		strb	r6, [r3, #4]
 137:main.c        ****     //Convertir Offset
 512              		.loc 1 137 0
 513 007e 5D71     		strb	r5, [r3, #5]
 139:main.c        ****     datoH=Offset_env>>8;
 514              		.loc 1 139 0
 515 0080 E5B2     		uxtb	r5, r4
 516              	.LVL72:
 140:main.c        ****     if(Offset<0.0){
 517              		.loc 1 140 0
 518 0082 2412     		asrs	r4, r4, #8
 519              	.LVL73:
 520 0084 E4B2     		uxtb	r4, r4
 521              	.LVL74:
 141:main.c        ****         Aux=(1<<7);
 522              		.loc 1 141 0
 523 0086 0021     		movs	r1, #0
 524 0088 0398     		ldr	r0, [sp, #12]
 525 008a FFF7FEFF 		bl	__aeabi_fcmplt
 526              	.LVL75:
 527 008e 0028     		cmp	r0, #0
 528 0090 01D0     		beq	.L26
 529              	.LVL76:
 143:main.c        ****     }
 530              		.loc 1 143 0
 531 0092 803C     		subs	r4, r4, #128
 532              	.LVL77:
 533 0094 E4B2     		uxtb	r4, r4
 534              	.LVL78:
 535              	.L26:
ARM GAS  C:\Users\HENRYA~1\AppData\Local\Temp\ccXtTLpa.s 			page 17


 149:main.c        ****     dato_enviado_1[7]=datoH;    
 536              		.loc 1 149 0
 537 0096 064B     		ldr	r3, .L31+4
 538 0098 9D71     		strb	r5, [r3, #6]
 150:main.c        ****     CAN_SendMsg1();
 539              		.loc 1 150 0
 540 009a DC71     		strb	r4, [r3, #7]
 151:main.c        ****     CyDelay(25);
 541              		.loc 1 151 0
 542 009c FFF7FEFF 		bl	CAN_SendMsg1
 543              	.LVL79:
 152:main.c        **** }
 544              		.loc 1 152 0
 545 00a0 1920     		movs	r0, #25
 546 00a2 FFF7FEFF 		bl	CyDelay
 547              	.LVL80:
 153:main.c        **** 
 548              		.loc 1 153 0
 549 00a6 05B0     		add	sp, sp, #20
 550              		@ sp needed
 551              	.LVL81:
 552              	.LVL82:
 553 00a8 F0BD     		pop	{r4, r5, r6, r7, pc}
 554              	.L32:
 555 00aa C046     		.align	2
 556              	.L31:
 557 00ac 00401C46 		.word	1176256512
 558 00b0 00000000 		.word	dato_enviado_1
 559              		.cfi_endproc
 560              	.LFE44:
 561              		.size	Enviar_Parametros, .-Enviar_Parametros
 562              		.section	.text.Recibe_mail_0,"ax",%progbits
 563              		.align	2
 564              		.global	Recibe_mail_0
 565              		.code	16
 566              		.thumb_func
 567              		.type	Recibe_mail_0, %function
 568              	Recibe_mail_0:
 569              	.LFB45:
 155:main.c        **** if(mailbox0[0]==VER){
 570              		.loc 1 155 0
 571              		.cfi_startproc
 572              		@ args = 0, pretend = 0, frame = 0
 573              		@ frame_needed = 0, uses_anonymous_args = 0
 574 0000 70B5     		push	{r4, r5, r6, lr}
 575              		.cfi_def_cfa_offset 16
 576              		.cfi_offset 4, -16
 577              		.cfi_offset 5, -12
 578              		.cfi_offset 6, -8
 579              		.cfi_offset 14, -4
 156:main.c        ****             switch(mailbox0[2]){
 580              		.loc 1 156 0
 581 0002 1A4B     		ldr	r3, .L39
 582 0004 1B78     		ldrb	r3, [r3]
 583 0006 7F2B     		cmp	r3, #127
 584 0008 0BD1     		bne	.L34
 157:main.c        ****             ///////////////////////////////////////////////////////
ARM GAS  C:\Users\HENRYA~1\AppData\Local\Temp\ccXtTLpa.s 			page 18


 585              		.loc 1 157 0
 586 000a 184A     		ldr	r2, .L39
 587 000c 9278     		ldrb	r2, [r2, #2]
 588 000e 022A     		cmp	r2, #2
 589 0010 07D1     		bne	.L34
 160:main.c        ****                     case CANTIDAD_MOD: 
 590              		.loc 1 160 0
 591 0012 164A     		ldr	r2, .L39
 592 0014 D278     		ldrb	r2, [r2, #3]
 593 0016 2B2A     		cmp	r2, #43
 594 0018 03D1     		bne	.L34
 162:main.c        ****                     break;
 595              		.loc 1 162 0
 596 001a 144A     		ldr	r2, .L39
 597 001c 1179     		ldrb	r1, [r2, #4]
 598 001e 144A     		ldr	r2, .L39+4
 599 0020 9160     		str	r1, [r2, #8]
 600              	.L34:
 171:main.c        ****                 switch(mailbox0[3]){
 601              		.loc 1 171 0
 602 0022 802B     		cmp	r3, #128
 603 0024 21D1     		bne	.L33
 172:main.c        ****                 ///////////////////////////////////////////////////////
 604              		.loc 1 172 0
 605 0026 114B     		ldr	r3, .L39
 606 0028 DB78     		ldrb	r3, [r3, #3]
 607 002a 1B2B     		cmp	r3, #27
 608 002c 1DD1     		bne	.L33
 609              	.LBB2:
 175:main.c        ****                     if(Contador>=cantidadM){
 610              		.loc 1 175 0
 611 002e 0F4B     		ldr	r3, .L39
 612 0030 DA79     		ldrb	r2, [r3, #7]
 613              	.LVL83:
 176:main.c        ****                             Enviar_Parametros(Amplitud_H,Fase,Offset_H,H);
 614              		.loc 1 176 0
 615 0032 0F4B     		ldr	r3, .L39+4
 616 0034 9B68     		ldr	r3, [r3, #8]
 617 0036 9A42     		cmp	r2, r3
 618 0038 17DB     		blt	.L33
 177:main.c        ****                             CyDelay(50);
 619              		.loc 1 177 0
 620 003a 0E4D     		ldr	r5, .L39+8
 621 003c 0C4C     		ldr	r4, .L39+4
 622 003e 2023     		movs	r3, #32
 623 0040 2A68     		ldr	r2, [r5]
 624              	.LVL84:
 625 0042 E168     		ldr	r1, [r4, #12]
 626 0044 2069     		ldr	r0, [r4, #16]
 627 0046 FFF7FEFF 		bl	Enviar_Parametros
 628              	.LVL85:
 178:main.c        ****                             Enviar_Parametros(Amplitud_V,Fase,Offset_V,V);
 629              		.loc 1 178 0
 630 004a 3220     		movs	r0, #50
 631 004c FFF7FEFF 		bl	CyDelay
 632              	.LVL86:
 179:main.c        ****                             CyDelay(50); 
ARM GAS  C:\Users\HENRYA~1\AppData\Local\Temp\ccXtTLpa.s 			page 19


 633              		.loc 1 179 0
 634 0050 6A68     		ldr	r2, [r5, #4]
 635 0052 E168     		ldr	r1, [r4, #12]
 636 0054 6069     		ldr	r0, [r4, #20]
 637 0056 2123     		movs	r3, #33
 638 0058 FFF7FEFF 		bl	Enviar_Parametros
 639              	.LVL87:
 180:main.c        ****                             Send_Angle(0,0);
 640              		.loc 1 180 0
 641 005c 3220     		movs	r0, #50
 642 005e FFF7FEFF 		bl	CyDelay
 643              	.LVL88:
 181:main.c        ****                     } 
 644              		.loc 1 181 0
 645 0062 0021     		movs	r1, #0
 646 0064 0020     		movs	r0, #0
 647 0066 FFF7FEFF 		bl	Send_Angle
 648              	.LVL89:
 649              	.L33:
 650              	.LBE2:
 186:main.c        **** 
 651              		.loc 1 186 0
 652              		@ sp needed
 653 006a 70BD     		pop	{r4, r5, r6, pc}
 654              	.L40:
 655              		.align	2
 656              	.L39:
 657 006c 00000000 		.word	mailbox0
 658 0070 00000000 		.word	.LANCHOR0
 659 0074 00000000 		.word	.LANCHOR1
 660              		.cfi_endproc
 661              	.LFE45:
 662              		.size	Recibe_mail_0, .-Recibe_mail_0
 663              		.section	.text.Recibe_Mail_2,"ax",%progbits
 664              		.align	2
 665              		.global	Recibe_Mail_2
 666              		.code	16
 667              		.thumb_func
 668              		.type	Recibe_Mail_2, %function
 669              	Recibe_Mail_2:
 670              	.LFB46:
 188:main.c        ****     if(mailbox2[0]==SENSORES){
 671              		.loc 1 188 0
 672              		.cfi_startproc
 673              		@ args = 0, pretend = 0, frame = 0
 674              		@ frame_needed = 0, uses_anonymous_args = 0
 675              		@ link register save eliminated.
 189:main.c        ****         //Mailbox2[1] Derecha
 676              		.loc 1 189 0
 677 0000 3D4B     		ldr	r3, .L51
 678 0002 1B78     		ldrb	r3, [r3]
 679 0004 822B     		cmp	r3, #130
 680 0006 75D1     		bne	.L41
 193:main.c        ****         else if(mailbox2[1]==0&&mailbox2[2]==0&&mailbox2[3]==1) {Peso_Sensor=0.2;}   //Izquierda
 681              		.loc 1 193 0
 682 0008 3B4B     		ldr	r3, .L51
 683 000a 5B78     		ldrb	r3, [r3, #1]
ARM GAS  C:\Users\HENRYA~1\AppData\Local\Temp\ccXtTLpa.s 			page 20


 684 000c 002B     		cmp	r3, #0
 685 000e 0BD1     		bne	.L43
 193:main.c        ****         else if(mailbox2[1]==0&&mailbox2[2]==0&&mailbox2[3]==1) {Peso_Sensor=0.2;}   //Izquierda
 686              		.loc 1 193 0 is_stmt 0 discriminator 1
 687 0010 394A     		ldr	r2, .L51
 688 0012 9278     		ldrb	r2, [r2, #2]
 689 0014 002A     		cmp	r2, #0
 690 0016 07D1     		bne	.L43
 193:main.c        ****         else if(mailbox2[1]==0&&mailbox2[2]==0&&mailbox2[3]==1) {Peso_Sensor=0.2;}   //Izquierda
 691              		.loc 1 193 0 discriminator 2
 692 0018 374A     		ldr	r2, .L51
 693 001a D278     		ldrb	r2, [r2, #3]
 694 001c 002A     		cmp	r2, #0
 695 001e 03D1     		bne	.L43
 193:main.c        ****         else if(mailbox2[1]==0&&mailbox2[2]==0&&mailbox2[3]==1) {Peso_Sensor=0.2;}   //Izquierda
 696              		.loc 1 193 0 discriminator 3
 697 0020 0022     		movs	r2, #0
 698 0022 364B     		ldr	r3, .L51+4
 699 0024 5A60     		str	r2, [r3, #4]
 700 0026 65E0     		b	.L41
 701              	.L43:
 194:main.c        ****         else if(mailbox2[1]==0&&mailbox2[2]==1&&mailbox2[3]==0) {Peso_Sensor=0.6;}   //Frontal
 702              		.loc 1 194 0 is_stmt 1
 703 0028 002B     		cmp	r3, #0
 704 002a 0BD1     		bne	.L44
 194:main.c        ****         else if(mailbox2[1]==0&&mailbox2[2]==1&&mailbox2[3]==0) {Peso_Sensor=0.6;}   //Frontal
 705              		.loc 1 194 0 is_stmt 0 discriminator 1
 706 002c 324A     		ldr	r2, .L51
 707 002e 9278     		ldrb	r2, [r2, #2]
 708 0030 002A     		cmp	r2, #0
 709 0032 07D1     		bne	.L44
 194:main.c        ****         else if(mailbox2[1]==0&&mailbox2[2]==1&&mailbox2[3]==0) {Peso_Sensor=0.6;}   //Frontal
 710              		.loc 1 194 0 discriminator 2
 711 0034 304A     		ldr	r2, .L51
 712 0036 D278     		ldrb	r2, [r2, #3]
 713 0038 012A     		cmp	r2, #1
 714 003a 03D1     		bne	.L44
 194:main.c        ****         else if(mailbox2[1]==0&&mailbox2[2]==1&&mailbox2[3]==0) {Peso_Sensor=0.6;}   //Frontal
 715              		.loc 1 194 0 discriminator 3
 716 003c 304A     		ldr	r2, .L51+8
 717 003e 2F4B     		ldr	r3, .L51+4
 718 0040 5A60     		str	r2, [r3, #4]
 719 0042 57E0     		b	.L41
 720              	.L44:
 195:main.c        ****         else if(mailbox2[1]==0&&mailbox2[2]==1&&mailbox2[3]==1) {Peso_Sensor=0.8;}   //Frontal e Iz
 721              		.loc 1 195 0 is_stmt 1
 722 0044 002B     		cmp	r3, #0
 723 0046 0BD1     		bne	.L45
 195:main.c        ****         else if(mailbox2[1]==0&&mailbox2[2]==1&&mailbox2[3]==1) {Peso_Sensor=0.8;}   //Frontal e Iz
 724              		.loc 1 195 0 is_stmt 0 discriminator 1
 725 0048 2B4A     		ldr	r2, .L51
 726 004a 9278     		ldrb	r2, [r2, #2]
 727 004c 012A     		cmp	r2, #1
 728 004e 07D1     		bne	.L45
 195:main.c        ****         else if(mailbox2[1]==0&&mailbox2[2]==1&&mailbox2[3]==1) {Peso_Sensor=0.8;}   //Frontal e Iz
 729              		.loc 1 195 0 discriminator 2
 730 0050 294A     		ldr	r2, .L51
ARM GAS  C:\Users\HENRYA~1\AppData\Local\Temp\ccXtTLpa.s 			page 21


 731 0052 D278     		ldrb	r2, [r2, #3]
 732 0054 002A     		cmp	r2, #0
 733 0056 03D1     		bne	.L45
 195:main.c        ****         else if(mailbox2[1]==0&&mailbox2[2]==1&&mailbox2[3]==1) {Peso_Sensor=0.8;}   //Frontal e Iz
 734              		.loc 1 195 0 discriminator 3
 735 0058 2A4A     		ldr	r2, .L51+12
 736 005a 284B     		ldr	r3, .L51+4
 737 005c 5A60     		str	r2, [r3, #4]
 738 005e 49E0     		b	.L41
 739              	.L45:
 196:main.c        ****         else if(mailbox2[1]==1&&mailbox2[2]==0&&mailbox2[3]==0) {Peso_Sensor=0.2;}   //Derecha
 740              		.loc 1 196 0 is_stmt 1
 741 0060 002B     		cmp	r3, #0
 742 0062 0BD1     		bne	.L46
 196:main.c        ****         else if(mailbox2[1]==1&&mailbox2[2]==0&&mailbox2[3]==0) {Peso_Sensor=0.2;}   //Derecha
 743              		.loc 1 196 0 is_stmt 0 discriminator 1
 744 0064 244A     		ldr	r2, .L51
 745 0066 9278     		ldrb	r2, [r2, #2]
 746 0068 012A     		cmp	r2, #1
 747 006a 07D1     		bne	.L46
 196:main.c        ****         else if(mailbox2[1]==1&&mailbox2[2]==0&&mailbox2[3]==0) {Peso_Sensor=0.2;}   //Derecha
 748              		.loc 1 196 0 discriminator 2
 749 006c 224A     		ldr	r2, .L51
 750 006e D278     		ldrb	r2, [r2, #3]
 751 0070 012A     		cmp	r2, #1
 752 0072 03D1     		bne	.L46
 196:main.c        ****         else if(mailbox2[1]==1&&mailbox2[2]==0&&mailbox2[3]==0) {Peso_Sensor=0.2;}   //Derecha
 753              		.loc 1 196 0 discriminator 3
 754 0074 244A     		ldr	r2, .L51+16
 755 0076 214B     		ldr	r3, .L51+4
 756 0078 5A60     		str	r2, [r3, #4]
 757 007a 3BE0     		b	.L41
 758              	.L46:
 197:main.c        ****         else if(mailbox2[1]==1&&mailbox2[2]==0&&mailbox2[3]==1) {Peso_Sensor=0.4;}   //Derecha e Iz
 759              		.loc 1 197 0 is_stmt 1
 760 007c 012B     		cmp	r3, #1
 761 007e 0BD1     		bne	.L47
 197:main.c        ****         else if(mailbox2[1]==1&&mailbox2[2]==0&&mailbox2[3]==1) {Peso_Sensor=0.4;}   //Derecha e Iz
 762              		.loc 1 197 0 is_stmt 0 discriminator 1
 763 0080 1D4A     		ldr	r2, .L51
 764 0082 9278     		ldrb	r2, [r2, #2]
 765 0084 002A     		cmp	r2, #0
 766 0086 07D1     		bne	.L47
 197:main.c        ****         else if(mailbox2[1]==1&&mailbox2[2]==0&&mailbox2[3]==1) {Peso_Sensor=0.4;}   //Derecha e Iz
 767              		.loc 1 197 0 discriminator 2
 768 0088 1B4A     		ldr	r2, .L51
 769 008a D278     		ldrb	r2, [r2, #3]
 770 008c 002A     		cmp	r2, #0
 771 008e 03D1     		bne	.L47
 197:main.c        ****         else if(mailbox2[1]==1&&mailbox2[2]==0&&mailbox2[3]==1) {Peso_Sensor=0.4;}   //Derecha e Iz
 772              		.loc 1 197 0 discriminator 3
 773 0090 1B4A     		ldr	r2, .L51+8
 774 0092 1A4B     		ldr	r3, .L51+4
 775 0094 5A60     		str	r2, [r3, #4]
 776 0096 2DE0     		b	.L41
 777              	.L47:
 198:main.c        ****         else if(mailbox2[1]==1&&mailbox2[2]==1&&mailbox2[3]==0) {Peso_Sensor=0.8;}   //Frontal y De
ARM GAS  C:\Users\HENRYA~1\AppData\Local\Temp\ccXtTLpa.s 			page 22


 778              		.loc 1 198 0 is_stmt 1
 779 0098 012B     		cmp	r3, #1
 780 009a 0BD1     		bne	.L48
 198:main.c        ****         else if(mailbox2[1]==1&&mailbox2[2]==1&&mailbox2[3]==0) {Peso_Sensor=0.8;}   //Frontal y De
 781              		.loc 1 198 0 is_stmt 0 discriminator 1
 782 009c 164A     		ldr	r2, .L51
 783 009e 9278     		ldrb	r2, [r2, #2]
 784 00a0 002A     		cmp	r2, #0
 785 00a2 07D1     		bne	.L48
 198:main.c        ****         else if(mailbox2[1]==1&&mailbox2[2]==1&&mailbox2[3]==0) {Peso_Sensor=0.8;}   //Frontal y De
 786              		.loc 1 198 0 discriminator 2
 787 00a4 144A     		ldr	r2, .L51
 788 00a6 D278     		ldrb	r2, [r2, #3]
 789 00a8 012A     		cmp	r2, #1
 790 00aa 03D1     		bne	.L48
 198:main.c        ****         else if(mailbox2[1]==1&&mailbox2[2]==1&&mailbox2[3]==0) {Peso_Sensor=0.8;}   //Frontal y De
 791              		.loc 1 198 0 discriminator 3
 792 00ac 174A     		ldr	r2, .L51+20
 793 00ae 134B     		ldr	r3, .L51+4
 794 00b0 5A60     		str	r2, [r3, #4]
 795 00b2 1FE0     		b	.L41
 796              	.L48:
 199:main.c        ****         else if(mailbox2[1]==1&&mailbox2[2]==1&&mailbox2[3]==1) {Peso_Sensor=1;}     //Todos
 797              		.loc 1 199 0 is_stmt 1
 798 00b4 012B     		cmp	r3, #1
 799 00b6 0BD1     		bne	.L49
 199:main.c        ****         else if(mailbox2[1]==1&&mailbox2[2]==1&&mailbox2[3]==1) {Peso_Sensor=1;}     //Todos
 800              		.loc 1 199 0 is_stmt 0 discriminator 1
 801 00b8 0F4A     		ldr	r2, .L51
 802 00ba 9278     		ldrb	r2, [r2, #2]
 803 00bc 012A     		cmp	r2, #1
 804 00be 07D1     		bne	.L49
 199:main.c        ****         else if(mailbox2[1]==1&&mailbox2[2]==1&&mailbox2[3]==1) {Peso_Sensor=1;}     //Todos
 805              		.loc 1 199 0 discriminator 2
 806 00c0 0D4A     		ldr	r2, .L51
 807 00c2 D278     		ldrb	r2, [r2, #3]
 808 00c4 002A     		cmp	r2, #0
 809 00c6 03D1     		bne	.L49
 199:main.c        ****         else if(mailbox2[1]==1&&mailbox2[2]==1&&mailbox2[3]==1) {Peso_Sensor=1;}     //Todos
 810              		.loc 1 199 0 discriminator 3
 811 00c8 0F4A     		ldr	r2, .L51+16
 812 00ca 0C4B     		ldr	r3, .L51+4
 813 00cc 5A60     		str	r2, [r3, #4]
 814 00ce 11E0     		b	.L41
 815              	.L49:
 200:main.c        ****         else                                                    {Peso_Sensor=0.0;}   //Normal
 816              		.loc 1 200 0 is_stmt 1
 817 00d0 012B     		cmp	r3, #1
 818 00d2 0CD1     		bne	.L50
 200:main.c        ****         else                                                    {Peso_Sensor=0.0;}   //Normal
 819              		.loc 1 200 0 is_stmt 0 discriminator 1
 820 00d4 084B     		ldr	r3, .L51
 821 00d6 9B78     		ldrb	r3, [r3, #2]
 822 00d8 012B     		cmp	r3, #1
 823 00da 08D1     		bne	.L50
 200:main.c        ****         else                                                    {Peso_Sensor=0.0;}   //Normal
 824              		.loc 1 200 0 discriminator 2
ARM GAS  C:\Users\HENRYA~1\AppData\Local\Temp\ccXtTLpa.s 			page 23


 825 00dc 064B     		ldr	r3, .L51
 826 00de DB78     		ldrb	r3, [r3, #3]
 827 00e0 012B     		cmp	r3, #1
 828 00e2 04D1     		bne	.L50
 200:main.c        ****         else                                                    {Peso_Sensor=0.0;}   //Normal
 829              		.loc 1 200 0 discriminator 3
 830 00e4 FE22     		movs	r2, #254
 831 00e6 9205     		lsls	r2, r2, #22
 832 00e8 044B     		ldr	r3, .L51+4
 833 00ea 5A60     		str	r2, [r3, #4]
 834 00ec 02E0     		b	.L41
 835              	.L50:
 201:main.c        ****     }
 836              		.loc 1 201 0 is_stmt 1
 837 00ee 0022     		movs	r2, #0
 838 00f0 024B     		ldr	r3, .L51+4
 839 00f2 5A60     		str	r2, [r3, #4]
 840              	.L41:
 203:main.c        **** 
 841              		.loc 1 203 0
 842              		@ sp needed
 843 00f4 7047     		bx	lr
 844              	.L52:
 845 00f6 C046     		.align	2
 846              	.L51:
 847 00f8 00000000 		.word	mailbox2
 848 00fc 00000000 		.word	.LANCHOR0
 849 0100 CDCC4C3E 		.word	1045220557
 850 0104 9A99193F 		.word	1058642330
 851 0108 CDCC4C3F 		.word	1061997773
 852 010c CDCCCC3E 		.word	1053609165
 853              		.cfi_endproc
 854              	.LFE46:
 855              		.size	Recibe_Mail_2, .-Recibe_Mail_2
 856              		.section	.text.interrutcan,"ax",%progbits
 857              		.align	2
 858              		.global	interrutcan
 859              		.code	16
 860              		.thumb_func
 861              		.type	interrutcan, %function
 862              	interrutcan:
 863              	.LFB47:
 205:main.c        ****     CAN_GlobalIntDisable();
 864              		.loc 1 205 0
 865              		.cfi_startproc
 866              		@ args = 0, pretend = 0, frame = 0
 867              		@ frame_needed = 0, uses_anonymous_args = 0
 868 0000 10B5     		push	{r4, lr}
 869              		.cfi_def_cfa_offset 8
 870              		.cfi_offset 4, -8
 871              		.cfi_offset 14, -4
 206:main.c        ****     CAN_MsgRXIsr();  
 872              		.loc 1 206 0
 873 0002 FFF7FEFF 		bl	CAN_GlobalIntDisable
 874              	.LVL90:
 207:main.c        ****     Recibe_mail_0();
 875              		.loc 1 207 0
ARM GAS  C:\Users\HENRYA~1\AppData\Local\Temp\ccXtTLpa.s 			page 24


 876 0006 FFF7FEFF 		bl	CAN_MsgRXIsr
 877              	.LVL91:
 208:main.c        ****     Recibe_Mail_2();
 878              		.loc 1 208 0
 879 000a FFF7FEFF 		bl	Recibe_mail_0
 880              	.LVL92:
 209:main.c        ****     CAN_GlobalIntEnable();
 881              		.loc 1 209 0
 882 000e FFF7FEFF 		bl	Recibe_Mail_2
 883              	.LVL93:
 210:main.c        **** }
 884              		.loc 1 210 0
 885 0012 FFF7FEFF 		bl	CAN_GlobalIntEnable
 886              	.LVL94:
 211:main.c        **** 
 887              		.loc 1 211 0
 888              		@ sp needed
 889 0016 10BD     		pop	{r4, pc}
 890              		.cfi_endproc
 891              	.LFE47:
 892              		.size	interrutcan, .-interrutcan
 893              		.global	__aeabi_dcmplt
 894              		.section	.text.Hill,"ax",%progbits
 895              		.align	2
 896              		.global	Hill
 897              		.code	16
 898              		.thumb_func
 899              		.type	Hill, %function
 900              	Hill:
 901              	.LFB48:
 213:main.c        ****     if (flag==1){
 902              		.loc 1 213 0
 903              		.cfi_startproc
 904              		@ args = 0, pretend = 0, frame = 0
 905              		@ frame_needed = 0, uses_anonymous_args = 0
 906 0000 70B5     		push	{r4, r5, r6, lr}
 907              		.cfi_def_cfa_offset 16
 908              		.cfi_offset 4, -16
 909              		.cfi_offset 5, -12
 910              		.cfi_offset 6, -8
 911              		.cfi_offset 14, -4
 214:main.c        ****         ampli_aux_V=Amplitud_V;
 912              		.loc 1 214 0
 913 0002 604B     		ldr	r3, .L72
 914 0004 9B69     		ldr	r3, [r3, #24]
 915 0006 012B     		cmp	r3, #1
 916 0008 15D1     		bne	.L55
 215:main.c        ****         ampli_aux_H=Amplitud_H;
 917              		.loc 1 215 0
 918 000a 5E4B     		ldr	r3, .L72
 919 000c 5A69     		ldr	r2, [r3, #20]
 920 000e DA61     		str	r2, [r3, #28]
 216:main.c        ****         pha_aux=Fase;
 921              		.loc 1 216 0
 922 0010 1A69     		ldr	r2, [r3, #16]
 923 0012 1A62     		str	r2, [r3, #32]
 217:main.c        ****         off_aux_V=Offset_V;
ARM GAS  C:\Users\HENRYA~1\AppData\Local\Temp\ccXtTLpa.s 			page 25


 924              		.loc 1 217 0
 925 0014 DA68     		ldr	r2, [r3, #12]
 926 0016 5A62     		str	r2, [r3, #36]
 218:main.c        ****         off_aux_H=Offset_H;      
 927              		.loc 1 218 0
 928 0018 5B4A     		ldr	r2, .L72+4
 929 001a 5168     		ldr	r1, [r2, #4]
 930 001c 9160     		str	r1, [r2, #8]
 219:main.c        ****         Amplitud_V=0.0;
 931              		.loc 1 219 0
 932 001e 1168     		ldr	r1, [r2]
 933 0020 D160     		str	r1, [r2, #12]
 220:main.c        ****         Amplitud_H=0.0;
 934              		.loc 1 220 0
 935 0022 0021     		movs	r1, #0
 936 0024 5961     		str	r1, [r3, #20]
 221:main.c        ****         Fase=0.0;
 937              		.loc 1 221 0
 938 0026 1961     		str	r1, [r3, #16]
 222:main.c        ****         Offset_V=0.833;
 939              		.loc 1 222 0
 940 0028 D960     		str	r1, [r3, #12]
 223:main.c        ****         Offset_H=0.833;
 941              		.loc 1 223 0
 942 002a 584B     		ldr	r3, .L72+8
 943 002c 5360     		str	r3, [r2, #4]
 224:main.c        ****         Max_Conta=15;
 944              		.loc 1 224 0
 945 002e 1360     		str	r3, [r2]
 225:main.c        ****     }
 946              		.loc 1 225 0
 947 0030 0F23     		movs	r3, #15
 948 0032 1361     		str	r3, [r2, #16]
 949 0034 A4E0     		b	.L54
 950              	.L55:
 227:main.c        ****         L_anterior=dist;
 951              		.loc 1 227 0
 952 0036 022B     		cmp	r3, #2
 953 0038 4ED1     		bne	.L57
 228:main.c        ****         if(randd()<0.5){
 954              		.loc 1 228 0
 955 003a 524B     		ldr	r3, .L72
 956 003c 1A68     		ldr	r2, [r3]
 957 003e 9A62     		str	r2, [r3, #40]
 229:main.c        ****             Amplitud_H=random_amplitud_1();
 958              		.loc 1 229 0
 959 0040 FFF7FEFF 		bl	randd
 960              	.LVL95:
 961 0044 0022     		movs	r2, #0
 962 0046 524B     		ldr	r3, .L72+12
 963 0048 FFF7FEFF 		bl	__aeabi_dcmplt
 964              	.LVL96:
 965 004c 0028     		cmp	r0, #0
 966 004e 1BD0     		beq	.L70
 230:main.c        ****             Amplitud_V=random_amplitud_2();
 967              		.loc 1 230 0
 968 0050 FFF7FEFF 		bl	random_amplitud_1
ARM GAS  C:\Users\HENRYA~1\AppData\Local\Temp\ccXtTLpa.s 			page 26


 969              	.LVL97:
 970 0054 4B4C     		ldr	r4, .L72
 971 0056 FFF7FEFF 		bl	__aeabi_d2f
 972              	.LVL98:
 973 005a 2061     		str	r0, [r4, #16]
 231:main.c        ****             Fase=random_Fase();
 974              		.loc 1 231 0
 975 005c FFF7FEFF 		bl	random_amplitud_2
 976              	.LVL99:
 977 0060 FFF7FEFF 		bl	__aeabi_d2f
 978              	.LVL100:
 979 0064 6061     		str	r0, [r4, #20]
 232:main.c        ****             Offset_H=0.833+random_Offset();
 980              		.loc 1 232 0
 981 0066 FFF7FEFF 		bl	random_Fase
 982              	.LVL101:
 983 006a FFF7FEFF 		bl	__aeabi_d2f
 984              	.LVL102:
 985 006e E060     		str	r0, [r4, #12]
 233:main.c        ****             Offset_V=Offset_H; 
 986              		.loc 1 233 0
 987 0070 FFF7FEFF 		bl	random_Offset
 988              	.LVL103:
 989 0074 474A     		ldr	r2, .L72+16
 990 0076 484B     		ldr	r3, .L72+20
 991 0078 FFF7FEFF 		bl	__aeabi_dadd
 992              	.LVL104:
 993 007c FFF7FEFF 		bl	__aeabi_d2f
 994              	.LVL105:
 995 0080 414B     		ldr	r3, .L72+4
 996 0082 1860     		str	r0, [r3]
 234:main.c        ****         }
 997              		.loc 1 234 0
 998 0084 5860     		str	r0, [r3, #4]
 999 0086 18E0     		b	.L60
 1000              	.L70:
 237:main.c        ****             Amplitud_H=0.0;
 1001              		.loc 1 237 0
 1002 0088 FFF7FEFF 		bl	random_amplitud_1
 1003              	.LVL106:
 1004 008c 3D4C     		ldr	r4, .L72
 1005 008e FFF7FEFF 		bl	__aeabi_d2f
 1006              	.LVL107:
 1007 0092 6061     		str	r0, [r4, #20]
 238:main.c        ****             Fase=random_Fase();
 1008              		.loc 1 238 0
 1009 0094 0023     		movs	r3, #0
 1010 0096 2361     		str	r3, [r4, #16]
 239:main.c        ****             Offset_H=0.833;
 1011              		.loc 1 239 0
 1012 0098 FFF7FEFF 		bl	random_Fase
 1013              	.LVL108:
 1014 009c FFF7FEFF 		bl	__aeabi_d2f
 1015              	.LVL109:
 1016 00a0 E060     		str	r0, [r4, #12]
 240:main.c        ****             Offset_V=0.833+random_Offset();
 1017              		.loc 1 240 0
ARM GAS  C:\Users\HENRYA~1\AppData\Local\Temp\ccXtTLpa.s 			page 27


 1018 00a2 394C     		ldr	r4, .L72+4
 1019 00a4 394B     		ldr	r3, .L72+8
 1020 00a6 2360     		str	r3, [r4]
 241:main.c        ****         }  
 1021              		.loc 1 241 0
 1022 00a8 FFF7FEFF 		bl	random_Offset
 1023              	.LVL110:
 1024 00ac 394A     		ldr	r2, .L72+16
 1025 00ae 3A4B     		ldr	r3, .L72+20
 1026 00b0 FFF7FEFF 		bl	__aeabi_dadd
 1027              	.LVL111:
 1028 00b4 FFF7FEFF 		bl	__aeabi_d2f
 1029              	.LVL112:
 1030 00b8 6060     		str	r0, [r4, #4]
 1031              	.L60:
 243:main.c        ****         off_aux_H_2=Offset_H;      
 1032              		.loc 1 243 0
 1033 00ba 324B     		ldr	r3, .L72
 1034 00bc 1A69     		ldr	r2, [r3, #16]
 1035 00be DA62     		str	r2, [r3, #44]
 244:main.c        ****         ampli_aux_V_2=Amplitud_V;
 1036              		.loc 1 244 0
 1037 00c0 314A     		ldr	r2, .L72+4
 1038 00c2 1168     		ldr	r1, [r2]
 1039 00c4 5161     		str	r1, [r2, #20]
 245:main.c        ****         off_aux_V_2=Offset_V;
 1040              		.loc 1 245 0
 1041 00c6 5969     		ldr	r1, [r3, #20]
 1042 00c8 1963     		str	r1, [r3, #48]
 246:main.c        ****         pha_aux_2=Fase; 
 1043              		.loc 1 246 0
 1044 00ca 5168     		ldr	r1, [r2, #4]
 1045 00cc 9161     		str	r1, [r2, #24]
 247:main.c        ****         Max_Conta=50;
 1046              		.loc 1 247 0
 1047 00ce D968     		ldr	r1, [r3, #12]
 1048 00d0 5963     		str	r1, [r3, #52]
 248:main.c        ****     }
 1049              		.loc 1 248 0
 1050 00d2 3223     		movs	r3, #50
 1051 00d4 1361     		str	r3, [r2, #16]
 1052 00d6 53E0     		b	.L54
 1053              	.L57:
 250:main.c        ****         Amplitud_V=0.0;
 1054              		.loc 1 250 0
 1055 00d8 032B     		cmp	r3, #3
 1056 00da 0BD1     		bne	.L61
 251:main.c        ****         Amplitud_H=0.0;
 1057              		.loc 1 251 0
 1058 00dc 294B     		ldr	r3, .L72
 1059 00de 0022     		movs	r2, #0
 1060 00e0 5A61     		str	r2, [r3, #20]
 252:main.c        ****         Fase=0.0;
 1061              		.loc 1 252 0
 1062 00e2 1A61     		str	r2, [r3, #16]
 253:main.c        ****         Offset_V=0.833;
 1063              		.loc 1 253 0
ARM GAS  C:\Users\HENRYA~1\AppData\Local\Temp\ccXtTLpa.s 			page 28


 1064 00e4 DA60     		str	r2, [r3, #12]
 254:main.c        ****         Offset_H=0.833;
 1065              		.loc 1 254 0
 1066 00e6 284B     		ldr	r3, .L72+4
 1067 00e8 284A     		ldr	r2, .L72+8
 1068 00ea 5A60     		str	r2, [r3, #4]
 255:main.c        ****         Max_Conta=15;
 1069              		.loc 1 255 0
 1070 00ec 1A60     		str	r2, [r3]
 256:main.c        ****     }    
 1071              		.loc 1 256 0
 1072 00ee 0F22     		movs	r2, #15
 1073 00f0 1A61     		str	r2, [r3, #16]
 1074 00f2 45E0     		b	.L54
 1075              	.L61:
 258:main.c        ****         L_actual=dist;
 1076              		.loc 1 258 0
 1077 00f4 042B     		cmp	r3, #4
 1078 00f6 3BD1     		bne	.L62
 259:main.c        ****         dato_enviado_2[0]=individuo;
 1079              		.loc 1 259 0
 1080 00f8 224C     		ldr	r4, .L72
 1081 00fa 2068     		ldr	r0, [r4]
 1082 00fc A063     		str	r0, [r4, #56]
 260:main.c        ****         dato_enviado_2[1]=(int)dist;
 1083              		.loc 1 260 0
 1084 00fe 274D     		ldr	r5, .L72+24
 1085 0100 E36B     		ldr	r3, [r4, #60]
 1086 0102 2B70     		strb	r3, [r5]
 261:main.c        ****         CAN_SendMsg3();
 1087              		.loc 1 261 0
 1088 0104 FFF7FEFF 		bl	__aeabi_f2iz
 1089              	.LVL113:
 1090 0108 6870     		strb	r0, [r5, #1]
 262:main.c        ****         if(L_anterior<L_actual){
 1091              		.loc 1 262 0
 1092 010a FFF7FEFF 		bl	CAN_SendMsg3
 1093              	.LVL114:
 263:main.c        ****             Amplitud_V=ampli_aux_V;
 1094              		.loc 1 263 0
 1095 010e A06A     		ldr	r0, [r4, #40]
 1096 0110 A16B     		ldr	r1, [r4, #56]
 1097 0112 FFF7FEFF 		bl	__aeabi_fcmplt
 1098              	.LVL115:
 1099 0116 0028     		cmp	r0, #0
 1100 0118 0CD0     		beq	.L71
 264:main.c        ****             Amplitud_H=ampli_aux_H;
 1101              		.loc 1 264 0
 1102 011a 1A4B     		ldr	r3, .L72
 1103 011c DA69     		ldr	r2, [r3, #28]
 1104 011e 5A61     		str	r2, [r3, #20]
 265:main.c        ****             Fase=pha_aux;
 1105              		.loc 1 265 0
 1106 0120 1A6A     		ldr	r2, [r3, #32]
 1107 0122 1A61     		str	r2, [r3, #16]
 266:main.c        ****             Offset_V=off_aux_V;
 1108              		.loc 1 266 0
ARM GAS  C:\Users\HENRYA~1\AppData\Local\Temp\ccXtTLpa.s 			page 29


 1109 0124 5A6A     		ldr	r2, [r3, #36]
 1110 0126 DA60     		str	r2, [r3, #12]
 267:main.c        ****             Offset_H=off_aux_H;              
 1111              		.loc 1 267 0
 1112 0128 174B     		ldr	r3, .L72+4
 1113 012a 9A68     		ldr	r2, [r3, #8]
 1114 012c 5A60     		str	r2, [r3, #4]
 268:main.c        ****         }
 1115              		.loc 1 268 0
 1116 012e DA68     		ldr	r2, [r3, #12]
 1117 0130 1A60     		str	r2, [r3]
 1118 0132 0BE0     		b	.L65
 1119              	.L71:
 271:main.c        ****             Amplitud_H=ampli_aux_H_2;
 1120              		.loc 1 271 0
 1121 0134 134B     		ldr	r3, .L72
 1122 0136 1A6B     		ldr	r2, [r3, #48]
 1123 0138 5A61     		str	r2, [r3, #20]
 272:main.c        ****             Fase=pha_aux_2;
 1124              		.loc 1 272 0
 1125 013a DA6A     		ldr	r2, [r3, #44]
 1126 013c 1A61     		str	r2, [r3, #16]
 273:main.c        ****             Offset_V=off_aux_V_2;
 1127              		.loc 1 273 0
 1128 013e 5A6B     		ldr	r2, [r3, #52]
 1129 0140 DA60     		str	r2, [r3, #12]
 274:main.c        ****             Offset_H=off_aux_H_2;       
 1130              		.loc 1 274 0
 1131 0142 114B     		ldr	r3, .L72+4
 1132 0144 9A69     		ldr	r2, [r3, #24]
 1133 0146 5A60     		str	r2, [r3, #4]
 275:main.c        ****         }
 1134              		.loc 1 275 0
 1135 0148 5A69     		ldr	r2, [r3, #20]
 1136 014a 1A60     		str	r2, [r3]
 1137              	.L65:
 277:main.c        ****         else{individuo=0;}
 1138              		.loc 1 277 0
 1139 014c 0D4B     		ldr	r3, .L72
 1140 014e DB6B     		ldr	r3, [r3, #60]
 1141 0150 002B     		cmp	r3, #0
 1142 0152 03D1     		bne	.L66
 277:main.c        ****         else{individuo=0;}
 1143              		.loc 1 277 0 is_stmt 0 discriminator 1
 1144 0154 0122     		movs	r2, #1
 1145 0156 0B4B     		ldr	r3, .L72
 1146 0158 DA63     		str	r2, [r3, #60]
 1147 015a 02E0     		b	.L67
 1148              	.L66:
 278:main.c        ****         flag=0;
 1149              		.loc 1 278 0 is_stmt 1
 1150 015c 0022     		movs	r2, #0
 1151 015e 094B     		ldr	r3, .L72
 1152 0160 DA63     		str	r2, [r3, #60]
 1153              	.L67:
 279:main.c        ****         Max_Conta=70;
 1154              		.loc 1 279 0
ARM GAS  C:\Users\HENRYA~1\AppData\Local\Temp\ccXtTLpa.s 			page 30


 1155 0162 0022     		movs	r2, #0
 1156 0164 074B     		ldr	r3, .L72
 1157 0166 9A61     		str	r2, [r3, #24]
 280:main.c        ****     }
 1158              		.loc 1 280 0
 1159 0168 4632     		adds	r2, r2, #70
 1160 016a 074B     		ldr	r3, .L72+4
 1161 016c 1A61     		str	r2, [r3, #16]
 1162 016e 07E0     		b	.L54
 1163              	.L62:
 282:main.c        **** }
 1164              		.loc 1 282 0
 1165 0170 042B     		cmp	r3, #4
 1166 0172 05DD     		ble	.L54
 282:main.c        **** }
 1167              		.loc 1 282 0 is_stmt 0 discriminator 1
 1168 0174 0022     		movs	r2, #0
 1169 0176 034B     		ldr	r3, .L72
 1170 0178 9A61     		str	r2, [r3, #24]
 1171 017a 0432     		adds	r2, r2, #4
 1172 017c 024B     		ldr	r3, .L72+4
 1173 017e 1A61     		str	r2, [r3, #16]
 1174              	.L54:
 283:main.c        **** 
 1175              		.loc 1 283 0 is_stmt 1
 1176              		@ sp needed
 1177 0180 70BD     		pop	{r4, r5, r6, pc}
 1178              	.L73:
 1179 0182 C046     		.align	2
 1180              	.L72:
 1181 0184 00000000 		.word	.LANCHOR0
 1182 0188 00000000 		.word	.LANCHOR1
 1183 018c 7D3F553F 		.word	1062551421
 1184 0190 0000E03F 		.word	1071644672
 1185 0194 0E2DB29D 		.word	-1649267442
 1186 0198 EFA7EA3F 		.word	1072343023
 1187 019c 00000000 		.word	dato_enviado_2
 1188              		.cfi_endproc
 1189              	.LFE48:
 1190              		.size	Hill, .-Hill
 1191              		.section	.text.Temporizador,"ax",%progbits
 1192              		.align	2
 1193              		.global	Temporizador
 1194              		.code	16
 1195              		.thumb_func
 1196              		.type	Temporizador, %function
 1197              	Temporizador:
 1198              	.LFB49:
 286:main.c        ****     conta++;  
 1199              		.loc 1 286 0
 1200              		.cfi_startproc
 1201              		@ args = 0, pretend = 0, frame = 0
 1202              		@ frame_needed = 0, uses_anonymous_args = 0
 1203 0000 70B5     		push	{r4, r5, r6, lr}
 1204              		.cfi_def_cfa_offset 16
 1205              		.cfi_offset 4, -16
 1206              		.cfi_offset 5, -12
ARM GAS  C:\Users\HENRYA~1\AppData\Local\Temp\ccXtTLpa.s 			page 31


 1207              		.cfi_offset 6, -8
 1208              		.cfi_offset 14, -4
 287:main.c        ****     if(conta==Max_Conta){     
 1209              		.loc 1 287 0
 1210 0002 1C49     		ldr	r1, .L79
 1211 0004 4022     		movs	r2, #64
 1212 0006 8B5A     		ldrh	r3, [r1, r2]
 1213 0008 0133     		adds	r3, r3, #1
 1214 000a 1BB2     		sxth	r3, r3
 1215 000c 8B52     		strh	r3, [r1, r2]
 288:main.c        ****         LED_1_Write(1);
 1216              		.loc 1 288 0
 1217 000e 1A4A     		ldr	r2, .L79+4
 1218 0010 1269     		ldr	r2, [r2, #16]
 1219 0012 9342     		cmp	r3, r2
 1220 0014 2AD1     		bne	.L75
 289:main.c        ****         flag++;      
 1221              		.loc 1 289 0
 1222 0016 0120     		movs	r0, #1
 1223 0018 FFF7FEFF 		bl	LED_1_Write
 1224              	.LVL116:
 290:main.c        ****         Hill(); 
 1225              		.loc 1 290 0
 1226 001c 154A     		ldr	r2, .L79
 1227 001e 9369     		ldr	r3, [r2, #24]
 1228 0020 0133     		adds	r3, r3, #1
 1229 0022 9361     		str	r3, [r2, #24]
 291:main.c        ****         for(int i=0;i<5;i++){
 1230              		.loc 1 291 0
 1231 0024 FFF7FEFF 		bl	Hill
 1232              	.LVL117:
 1233              	.LBB3:
 292:main.c        ****             Enviar_Parametros(Amplitud_H,Fase,Offset_H,H);
 1234              		.loc 1 292 0
 1235 0028 0025     		movs	r5, #0
 1236 002a 18E0     		b	.L76
 1237              	.LVL118:
 1238              	.L77:
 293:main.c        ****             CyDelay(50);
 1239              		.loc 1 293 0 discriminator 3
 1240 002c 124E     		ldr	r6, .L79+4
 1241 002e 114C     		ldr	r4, .L79
 1242 0030 2023     		movs	r3, #32
 1243 0032 3268     		ldr	r2, [r6]
 1244 0034 E168     		ldr	r1, [r4, #12]
 1245 0036 2069     		ldr	r0, [r4, #16]
 1246 0038 FFF7FEFF 		bl	Enviar_Parametros
 1247              	.LVL119:
 294:main.c        ****             Enviar_Parametros(Amplitud_V,Fase,Offset_V,V);
 1248              		.loc 1 294 0 discriminator 3
 1249 003c 3220     		movs	r0, #50
 1250 003e FFF7FEFF 		bl	CyDelay
 1251              	.LVL120:
 295:main.c        ****             CyDelay(50);
 1252              		.loc 1 295 0 discriminator 3
 1253 0042 7268     		ldr	r2, [r6, #4]
 1254 0044 E168     		ldr	r1, [r4, #12]
ARM GAS  C:\Users\HENRYA~1\AppData\Local\Temp\ccXtTLpa.s 			page 32


 1255 0046 6069     		ldr	r0, [r4, #20]
 1256 0048 2123     		movs	r3, #33
 1257 004a FFF7FEFF 		bl	Enviar_Parametros
 1258              	.LVL121:
 296:main.c        ****             Send_Angle(0,0);
 1259              		.loc 1 296 0 discriminator 3
 1260 004e 3220     		movs	r0, #50
 1261 0050 FFF7FEFF 		bl	CyDelay
 1262              	.LVL122:
 297:main.c        ****         }        
 1263              		.loc 1 297 0 discriminator 3
 1264 0054 0021     		movs	r1, #0
 1265 0056 0020     		movs	r0, #0
 1266 0058 FFF7FEFF 		bl	Send_Angle
 1267              	.LVL123:
 292:main.c        ****             Enviar_Parametros(Amplitud_H,Fase,Offset_H,H);
 1268              		.loc 1 292 0 discriminator 3
 1269 005c 0135     		adds	r5, r5, #1
 1270              	.LVL124:
 1271              	.L76:
 292:main.c        ****             Enviar_Parametros(Amplitud_H,Fase,Offset_H,H);
 1272              		.loc 1 292 0 is_stmt 0 discriminator 1
 1273 005e 042D     		cmp	r5, #4
 1274 0060 E4DD     		ble	.L77
 1275              	.LBE3:
 299:main.c        ****     }
 1276              		.loc 1 299 0 is_stmt 1
 1277 0062 0021     		movs	r1, #0
 1278 0064 4023     		movs	r3, #64
 1279 0066 034A     		ldr	r2, .L79
 1280 0068 D152     		strh	r1, [r2, r3]
 1281 006a 02E0     		b	.L74
 1282              	.LVL125:
 1283              	.L75:
 302:main.c        ****     }  
 1284              		.loc 1 302 0
 1285 006c 0020     		movs	r0, #0
 1286 006e FFF7FEFF 		bl	LED_1_Write
 1287              	.LVL126:
 1288              	.L74:
 304:main.c        **** 
 1289              		.loc 1 304 0
 1290              		@ sp needed
 1291 0072 70BD     		pop	{r4, r5, r6, pc}
 1292              	.L80:
 1293              		.align	2
 1294              	.L79:
 1295 0074 00000000 		.word	.LANCHOR0
 1296 0078 00000000 		.word	.LANCHOR1
 1297              		.cfi_endproc
 1298              	.LFE49:
 1299              		.size	Temporizador, .-Temporizador
 1300              		.section	.text.main,"ax",%progbits
 1301              		.align	2
 1302              		.global	main
 1303              		.code	16
 1304              		.thumb_func
ARM GAS  C:\Users\HENRYA~1\AppData\Local\Temp\ccXtTLpa.s 			page 33


 1305              		.type	main, %function
 1306              	main:
 1307              	.LFB51:
 311:main.c        **** 
 312:main.c        **** int main()
 313:main.c        **** {
 1308              		.loc 1 313 0
 1309              		.cfi_startproc
 1310              		@ Volatile: function does not return.
 1311              		@ args = 0, pretend = 0, frame = 0
 1312              		@ frame_needed = 0, uses_anonymous_args = 0
 1313 0000 10B5     		push	{r4, lr}
 1314              		.cfi_def_cfa_offset 8
 1315              		.cfi_offset 4, -8
 1316              		.cfi_offset 14, -4
 314:main.c        ****     //Init LED's
 315:main.c        ****     CAN_Start(); ///  start CAN
 1317              		.loc 1 315 0
 1318 0002 FFF7FEFF 		bl	CAN_Start
 1319              	.LVL127:
 316:main.c        ****     Timer_1_Start();
 1320              		.loc 1 316 0
 1321 0006 FFF7FEFF 		bl	Timer_1_Start
 1322              	.LVL128:
 317:main.c        ****     Timer_Start();
 1323              		.loc 1 317 0
 1324 000a FFF7FEFF 		bl	Timer_Start
 1325              	.LVL129:
 318:main.c        ****     SENSOR_U_Start();
 1326              		.loc 1 318 0
 1327 000e FFF7FEFF 		bl	SENSOR_U_Start
 1328              	.LVL130:
 319:main.c        ****     CAN_isr_StartEx(interrutcan);
 1329              		.loc 1 319 0
 1330 0012 0648     		ldr	r0, .L83
 1331 0014 FFF7FEFF 		bl	CAN_isr_StartEx
 1332              	.LVL131:
 320:main.c        ****     CAN_GlobalIntEnable();
 1333              		.loc 1 320 0
 1334 0018 FFF7FEFF 		bl	CAN_GlobalIntEnable
 1335              	.LVL132:
 321:main.c        ****     Int_Serial_StartEx(Serial_Interrupt);
 1336              		.loc 1 321 0
 1337 001c 0448     		ldr	r0, .L83+4
 1338 001e FFF7FEFF 		bl	Int_Serial_StartEx
 1339              	.LVL133:
 322:main.c        ****     Timer_StartEx(Temporizador);
 1340              		.loc 1 322 0
 1341 0022 0448     		ldr	r0, .L83+8
 1342 0024 FFF7FEFF 		bl	Timer_StartEx
 1343              	.LVL134:
 323:main.c        ****     CyGlobalIntEnable;
 1344              		.loc 1 323 0
 1345              		.syntax divided
 1346              	@ 323 "main.c" 1
 1347 0028 62B6     		CPSIE   i
 1348              	@ 0 "" 2
ARM GAS  C:\Users\HENRYA~1\AppData\Local\Temp\ccXtTLpa.s 			page 34


 1349              		.thumb
 1350              		.syntax unified
 1351              	.L82:
 1352 002a FEE7     		b	.L82
 1353              	.L84:
 1354              		.align	2
 1355              	.L83:
 1356 002c 00000000 		.word	interrutcan
 1357 0030 00000000 		.word	Serial_Interrupt
 1358 0034 00000000 		.word	Temporizador
 1359              		.cfi_endproc
 1360              	.LFE51:
 1361              		.size	main, .-main
 1362              		.global	individuo
 1363              		.global	move_s
 1364              		.global	punto_b
 1365              		.global	punto_a
 1366              		.global	L_anterior
 1367              		.global	L_actual
 1368              		.global	dist
 1369              		.global	flag
 1370              		.global	Peso_Sensor
 1371              		.global	off_aux_H_2
 1372              		.global	ampli_aux_H_2
 1373              		.global	pha_aux_2
 1374              		.global	off_aux_V_2
 1375              		.global	ampli_aux_V_2
 1376              		.global	pha_aux
 1377              		.global	off_aux_H
 1378              		.global	off_aux_V
 1379              		.global	ampli_aux_H
 1380              		.global	ampli_aux_V
 1381              		.global	Fase
 1382              		.global	Offset_V
 1383              		.global	Offset_H
 1384              		.global	Amplitud_V
 1385              		.global	Amplitud_H
 1386              		.global	Max_Conta
 1387              		.global	Cantidad_Sensores
 1388              		.global	cantidadM
 1389              		.global	conta
 1390              		.comm	dato_enviado_2,8,4
 1391              		.comm	dato_enviado_1,8,4
 1392              		.comm	dato_enviado,8,4
 1393              		.comm	mailbox2,8,4
 1394              		.comm	mailbox1,8,4
 1395              		.comm	mailbox0,8,4
 1396              		.data
 1397              		.align	2
 1398              		.set	.LANCHOR1,. + 0
 1399              		.type	Offset_H, %object
 1400              		.size	Offset_H, 4
 1401              	Offset_H:
 1402 0000 7D3F553F 		.word	1062551421
 1403              		.type	Offset_V, %object
 1404              		.size	Offset_V, 4
 1405              	Offset_V:
ARM GAS  C:\Users\HENRYA~1\AppData\Local\Temp\ccXtTLpa.s 			page 35


 1406 0004 7D3F553F 		.word	1062551421
 1407              		.type	off_aux_V, %object
 1408              		.size	off_aux_V, 4
 1409              	off_aux_V:
 1410 0008 7D3F553F 		.word	1062551421
 1411              		.type	off_aux_H, %object
 1412              		.size	off_aux_H, 4
 1413              	off_aux_H:
 1414 000c 7D3F553F 		.word	1062551421
 1415              		.type	Max_Conta, %object
 1416              		.size	Max_Conta, 4
 1417              	Max_Conta:
 1418 0010 96000000 		.word	150
 1419              		.type	off_aux_H_2, %object
 1420              		.size	off_aux_H_2, 4
 1421              	off_aux_H_2:
 1422 0014 7D3F553F 		.word	1062551421
 1423              		.type	off_aux_V_2, %object
 1424              		.size	off_aux_V_2, 4
 1425              	off_aux_V_2:
 1426 0018 7D3F553F 		.word	1062551421
 1427              		.bss
 1428              		.align	2
 1429              		.set	.LANCHOR0,. + 0
 1430              		.type	dist, %object
 1431              		.size	dist, 4
 1432              	dist:
 1433 0000 00000000 		.space	4
 1434              		.type	Peso_Sensor, %object
 1435              		.size	Peso_Sensor, 4
 1436              	Peso_Sensor:
 1437 0004 00000000 		.space	4
 1438              		.type	cantidadM, %object
 1439              		.size	cantidadM, 4
 1440              	cantidadM:
 1441 0008 00000000 		.space	4
 1442              		.type	Fase, %object
 1443              		.size	Fase, 4
 1444              	Fase:
 1445 000c 00000000 		.space	4
 1446              		.type	Amplitud_H, %object
 1447              		.size	Amplitud_H, 4
 1448              	Amplitud_H:
 1449 0010 00000000 		.space	4
 1450              		.type	Amplitud_V, %object
 1451              		.size	Amplitud_V, 4
 1452              	Amplitud_V:
 1453 0014 00000000 		.space	4
 1454              		.type	flag, %object
 1455              		.size	flag, 4
 1456              	flag:
 1457 0018 00000000 		.space	4
 1458              		.type	ampli_aux_V, %object
 1459              		.size	ampli_aux_V, 4
 1460              	ampli_aux_V:
 1461 001c 00000000 		.space	4
 1462              		.type	ampli_aux_H, %object
ARM GAS  C:\Users\HENRYA~1\AppData\Local\Temp\ccXtTLpa.s 			page 36


 1463              		.size	ampli_aux_H, 4
 1464              	ampli_aux_H:
 1465 0020 00000000 		.space	4
 1466              		.type	pha_aux, %object
 1467              		.size	pha_aux, 4
 1468              	pha_aux:
 1469 0024 00000000 		.space	4
 1470              		.type	L_anterior, %object
 1471              		.size	L_anterior, 4
 1472              	L_anterior:
 1473 0028 00000000 		.space	4
 1474              		.type	ampli_aux_H_2, %object
 1475              		.size	ampli_aux_H_2, 4
 1476              	ampli_aux_H_2:
 1477 002c 00000000 		.space	4
 1478              		.type	ampli_aux_V_2, %object
 1479              		.size	ampli_aux_V_2, 4
 1480              	ampli_aux_V_2:
 1481 0030 00000000 		.space	4
 1482              		.type	pha_aux_2, %object
 1483              		.size	pha_aux_2, 4
 1484              	pha_aux_2:
 1485 0034 00000000 		.space	4
 1486              		.type	L_actual, %object
 1487              		.size	L_actual, 4
 1488              	L_actual:
 1489 0038 00000000 		.space	4
 1490              		.type	individuo, %object
 1491              		.size	individuo, 4
 1492              	individuo:
 1493 003c 00000000 		.space	4
 1494              		.type	conta, %object
 1495              		.size	conta, 2
 1496              	conta:
 1497 0040 0000     		.space	2
 1498 0042 0000     		.space	2
 1499              		.type	move_s, %object
 1500              		.size	move_s, 4
 1501              	move_s:
 1502 0044 00000000 		.space	4
 1503              		.type	punto_b, %object
 1504              		.size	punto_b, 4
 1505              	punto_b:
 1506 0048 00000000 		.space	4
 1507              		.type	punto_a, %object
 1508              		.size	punto_a, 4
 1509              	punto_a:
 1510 004c 00000000 		.space	4
 1511              		.type	Cantidad_Sensores, %object
 1512              		.size	Cantidad_Sensores, 4
 1513              	Cantidad_Sensores:
 1514 0050 00000000 		.space	4
 1515              		.text
 1516              	.Letext0:
 1517              		.file 2 "Generated_Source\\PSoC4/cytypes.h"
 1518              		.file 3 "Generated_Source\\PSoC4/SENSOR_U.h"
 1519              		.file 4 "c:\\program files (x86)\\cypress\\psoc creator\\4.1\\psoc creator\\import\\gnu\\arm\\5.4.
ARM GAS  C:\Users\HENRYA~1\AppData\Local\Temp\ccXtTLpa.s 			page 37


 1520              		.file 5 "Generated_Source\\PSoC4/CAN.h"
 1521              		.file 6 "Generated_Source\\PSoC4/CyLib.h"
 1522              		.file 7 "Generated_Source\\PSoC4/LED_1.h"
 1523              		.file 8 "Generated_Source\\PSoC4/Timer_1.h"
 1524              		.file 9 "Generated_Source\\PSoC4/Timer.h"
 1525              		.file 10 "Generated_Source\\PSoC4/CAN_isr.h"
 1526              		.file 11 "Generated_Source\\PSoC4/Int_Serial.h"