ARM GAS  C:\Users\HENRYA~1\AppData\Local\Temp\cc1a9QKv.s 			page 1


   1              		.syntax unified
   2              		.cpu cortex-m3
   3              		.fpu softvfp
   4              		.eabi_attribute 20, 1
   5              		.eabi_attribute 21, 1
   6              		.eabi_attribute 23, 3
   7              		.eabi_attribute 24, 1
   8              		.eabi_attribute 25, 1
   9              		.eabi_attribute 26, 1
  10              		.eabi_attribute 30, 1
  11              		.eabi_attribute 34, 1
  12              		.eabi_attribute 18, 4
  13              		.thumb
  14              		.file	"main.c"
  15              		.text
  16              	.Ltext0:
  17              		.cfi_sections	.debug_frame
  18              		.section	.text.mcp2515_modifyRegister,"ax",%progbits
  19              		.align	2
  20              		.global	mcp2515_modifyRegister
  21              		.thumb
  22              		.thumb_func
  23              		.type	mcp2515_modifyRegister, %function
  24              	mcp2515_modifyRegister:
  25              	.LFB63:
  26              		.file 1 ".\\main.c"
   1:.\main.c      **** #include <project.h>
   2:.\main.c      **** #include <Value.c>
   3:.\main.c      **** #define MAX_CHAR_IN_MESSAGE 8
   4:.\main.c      **** int8 dato_TX,dato_RX;
   5:.\main.c      **** uint8   m_nExtFlg;                                                  // Identifier Type
   6:.\main.c      **** uint32  m_nID;                                                      // CAN ID
   7:.\main.c      **** uint8   m_nDlc;                                                     // Data Length Code
   8:.\main.c      **** uint8   m_nDta[MAX_CHAR_IN_MESSAGE];                            	// Data array
   9:.\main.c      **** uint8   m_nRtr;                                                     // Remote request flag
  10:.\main.c      **** uint8   m_nfilhit;                                                  // The number of the filter tha
  11:.\main.c      **** uint8   MCPCS;                                                      // Chip Select pin number
  12:.\main.c      **** uint8   mcpMode;    
  13:.\main.c      **** 
  14:.\main.c      **** void mcp2515_modifyRegister(const uint8 address, const uint8 mask, const uint8 data){
  27              		.loc 1 14 0
  28              		.cfi_startproc
  29              		@ args = 0, pretend = 0, frame = 0
  30              		@ frame_needed = 0, uses_anonymous_args = 0
  31              	.LVL0:
  32 0000 70B5     		push	{r4, r5, r6, lr}
  33              		.cfi_def_cfa_offset 16
  34              		.cfi_offset 4, -16
  35              		.cfi_offset 5, -12
  36              		.cfi_offset 6, -8
  37              		.cfi_offset 14, -4
  38 0002 0646     		mov	r6, r0
  39 0004 0D46     		mov	r5, r1
  40 0006 1446     		mov	r4, r2
  15:.\main.c      ****     SPIM_1_WriteTxData(MCP_BITMOD);
  41              		.loc 1 15 0
  42 0008 0520     		movs	r0, #5
ARM GAS  C:\Users\HENRYA~1\AppData\Local\Temp\cc1a9QKv.s 			page 2


  43              	.LVL1:
  44 000a FFF7FEFF 		bl	SPIM_1_WriteTxData
  45              	.LVL2:
  16:.\main.c      ****     SPIM_1_WriteTxData(address);
  46              		.loc 1 16 0
  47 000e 3046     		mov	r0, r6
  48 0010 FFF7FEFF 		bl	SPIM_1_WriteTxData
  49              	.LVL3:
  17:.\main.c      ****     SPIM_1_WriteTxData(mask);
  50              		.loc 1 17 0
  51 0014 2846     		mov	r0, r5
  52 0016 FFF7FEFF 		bl	SPIM_1_WriteTxData
  53              	.LVL4:
  18:.\main.c      ****     SPIM_1_WriteTxData(data);
  54              		.loc 1 18 0
  55 001a 2046     		mov	r0, r4
  56 001c FFF7FEFF 		bl	SPIM_1_WriteTxData
  57              	.LVL5:
  19:.\main.c      ****     CyDelayCycles(250);
  58              		.loc 1 19 0
  59 0020 FA20     		movs	r0, #250
  60 0022 FFF7FEFF 		bl	CyDelayCycles
  61              	.LVL6:
  62 0026 70BD     		pop	{r4, r5, r6, pc}
  63              		.cfi_endproc
  64              	.LFE63:
  65              		.size	mcp2515_modifyRegister, .-mcp2515_modifyRegister
  66              		.section	.text.mcp2515_readRegister,"ax",%progbits
  67              		.align	2
  68              		.global	mcp2515_readRegister
  69              		.thumb
  70              		.thumb_func
  71              		.type	mcp2515_readRegister, %function
  72              	mcp2515_readRegister:
  73              	.LFB64:
  20:.\main.c      **** }
  21:.\main.c      **** 
  22:.\main.c      **** uint8 mcp2515_readRegister(const uint8 address){
  74              		.loc 1 22 0
  75              		.cfi_startproc
  76              		@ args = 0, pretend = 0, frame = 0
  77              		@ frame_needed = 0, uses_anonymous_args = 0
  78              	.LVL7:
  79 0000 10B5     		push	{r4, lr}
  80              		.cfi_def_cfa_offset 8
  81              		.cfi_offset 4, -8
  82              		.cfi_offset 14, -4
  83 0002 0446     		mov	r4, r0
  23:.\main.c      ****     uint8 ret;
  24:.\main.c      ****     SPIM_1_WriteTxData(MCP_READ);
  84              		.loc 1 24 0
  85 0004 0320     		movs	r0, #3
  86              	.LVL8:
  87 0006 FFF7FEFF 		bl	SPIM_1_WriteTxData
  88              	.LVL9:
  25:.\main.c      ****     SPIM_1_WriteTxData(address);
  89              		.loc 1 25 0
ARM GAS  C:\Users\HENRYA~1\AppData\Local\Temp\cc1a9QKv.s 			page 3


  90 000a 2046     		mov	r0, r4
  91 000c FFF7FEFF 		bl	SPIM_1_WriteTxData
  92              	.LVL10:
  26:.\main.c      ****     ret = SPIM_1_ReadRxData();
  93              		.loc 1 26 0
  94 0010 FFF7FEFF 		bl	SPIM_1_ReadRxData
  95              	.LVL11:
  27:.\main.c      ****     return ret;
  28:.\main.c      **** }
  96              		.loc 1 28 0
  97 0014 10BD     		pop	{r4, pc}
  98              		.cfi_endproc
  99              	.LFE64:
 100              		.size	mcp2515_readRegister, .-mcp2515_readRegister
 101 0016 00BF     		.section	.text.mcp2515_reset,"ax",%progbits
 102              		.align	2
 103              		.global	mcp2515_reset
 104              		.thumb
 105              		.thumb_func
 106              		.type	mcp2515_reset, %function
 107              	mcp2515_reset:
 108              	.LFB65:
  29:.\main.c      **** 
  30:.\main.c      **** void mcp2515_reset(void){SPIM_1_WriteTxData(MCP_RESET);}
 109              		.loc 1 30 0
 110              		.cfi_startproc
 111              		@ args = 0, pretend = 0, frame = 0
 112              		@ frame_needed = 0, uses_anonymous_args = 0
 113 0000 08B5     		push	{r3, lr}
 114              		.cfi_def_cfa_offset 8
 115              		.cfi_offset 3, -8
 116              		.cfi_offset 14, -4
 117              		.loc 1 30 0
 118 0002 C020     		movs	r0, #192
 119 0004 FFF7FEFF 		bl	SPIM_1_WriteTxData
 120              	.LVL12:
 121 0008 08BD     		pop	{r3, pc}
 122              		.cfi_endproc
 123              	.LFE65:
 124              		.size	mcp2515_reset, .-mcp2515_reset
 125 000a 00BF     		.section	.text.mcp2515_setCANCTRL_Mode,"ax",%progbits
 126              		.align	2
 127              		.global	mcp2515_setCANCTRL_Mode
 128              		.thumb
 129              		.thumb_func
 130              		.type	mcp2515_setCANCTRL_Mode, %function
 131              	mcp2515_setCANCTRL_Mode:
 132              	.LFB66:
  31:.\main.c      **** 
  32:.\main.c      **** int8 mcp2515_setCANCTRL_Mode(const uint8 newmode){
 133              		.loc 1 32 0
 134              		.cfi_startproc
 135              		@ args = 0, pretend = 0, frame = 0
 136              		@ frame_needed = 0, uses_anonymous_args = 0
 137              	.LVL13:
 138 0000 10B5     		push	{r4, lr}
 139              		.cfi_def_cfa_offset 8
ARM GAS  C:\Users\HENRYA~1\AppData\Local\Temp\cc1a9QKv.s 			page 4


 140              		.cfi_offset 4, -8
 141              		.cfi_offset 14, -4
 142 0002 0446     		mov	r4, r0
  33:.\main.c      ****     uint8 i;
  34:.\main.c      ****     mcp2515_modifyRegister(MCP_CANCTRL, MODE_MASK, newmode);
 143              		.loc 1 34 0
 144 0004 0F20     		movs	r0, #15
 145              	.LVL14:
 146 0006 E021     		movs	r1, #224
 147 0008 2246     		mov	r2, r4
 148 000a FFF7FEFF 		bl	mcp2515_modifyRegister
 149              	.LVL15:
  35:.\main.c      ****     i = mcp2515_readRegister(MCP_CANCTRL);
 150              		.loc 1 35 0
 151 000e 0F20     		movs	r0, #15
 152 0010 FFF7FEFF 		bl	mcp2515_readRegister
 153              	.LVL16:
  36:.\main.c      ****     i &= MODE_MASK;
 154              		.loc 1 36 0
 155 0014 00F0E000 		and	r0, r0, #224
 156              	.LVL17:
  37:.\main.c      ****     if ( i == newmode ) 
 157              		.loc 1 37 0
 158 0018 A042     		cmp	r0, r4
 159 001a 01D1     		bne	.L9
  38:.\main.c      ****         return MCP2515_OK;
 160              		.loc 1 38 0
 161 001c 0020     		movs	r0, #0
 162              	.LVL18:
 163 001e 10BD     		pop	{r4, pc}
 164              	.LVL19:
 165              	.L9:
  39:.\main.c      ****     return MCP2515_FAIL;
 166              		.loc 1 39 0
 167 0020 0120     		movs	r0, #1
 168              	.LVL20:
  40:.\main.c      **** }
 169              		.loc 1 40 0
 170 0022 10BD     		pop	{r4, pc}
 171              		.cfi_endproc
 172              	.LFE66:
 173              		.size	mcp2515_setCANCTRL_Mode, .-mcp2515_setCANCTRL_Mode
 174              		.section	.text.mcp2515_setRegister,"ax",%progbits
 175              		.align	2
 176              		.global	mcp2515_setRegister
 177              		.thumb
 178              		.thumb_func
 179              		.type	mcp2515_setRegister, %function
 180              	mcp2515_setRegister:
 181              	.LFB67:
  41:.\main.c      **** 
  42:.\main.c      **** void mcp2515_setRegister(const uint8 address, const uint8 value){
 182              		.loc 1 42 0
 183              		.cfi_startproc
 184              		@ args = 0, pretend = 0, frame = 0
 185              		@ frame_needed = 0, uses_anonymous_args = 0
 186              	.LVL21:
ARM GAS  C:\Users\HENRYA~1\AppData\Local\Temp\cc1a9QKv.s 			page 5


 187 0000 38B5     		push	{r3, r4, r5, lr}
 188              		.cfi_def_cfa_offset 16
 189              		.cfi_offset 3, -16
 190              		.cfi_offset 4, -12
 191              		.cfi_offset 5, -8
 192              		.cfi_offset 14, -4
 193 0002 0546     		mov	r5, r0
 194 0004 0C46     		mov	r4, r1
  43:.\main.c      ****     SPIM_1_WriteTxData(MCP_WRITE);
 195              		.loc 1 43 0
 196 0006 0220     		movs	r0, #2
 197              	.LVL22:
 198 0008 FFF7FEFF 		bl	SPIM_1_WriteTxData
 199              	.LVL23:
  44:.\main.c      ****     SPIM_1_WriteTxData(address);
 200              		.loc 1 44 0
 201 000c 2846     		mov	r0, r5
 202 000e FFF7FEFF 		bl	SPIM_1_WriteTxData
 203              	.LVL24:
  45:.\main.c      ****     SPIM_1_WriteTxData(value);
 204              		.loc 1 45 0
 205 0012 2046     		mov	r0, r4
 206 0014 FFF7FEFF 		bl	SPIM_1_WriteTxData
 207              	.LVL25:
  46:.\main.c      ****     CyDelayUs(250);
 208              		.loc 1 46 0
 209 0018 FA20     		movs	r0, #250
 210 001a FFF7FEFF 		bl	CyDelayUs
 211              	.LVL26:
 212 001e 38BD     		pop	{r3, r4, r5, pc}
 213              		.cfi_endproc
 214              	.LFE67:
 215              		.size	mcp2515_setRegister, .-mcp2515_setRegister
 216              		.section	.text.mcp2515_configRate,"ax",%progbits
 217              		.align	2
 218              		.global	mcp2515_configRate
 219              		.thumb
 220              		.thumb_func
 221              		.type	mcp2515_configRate, %function
 222              	mcp2515_configRate:
 223              	.LFB68:
  47:.\main.c      **** }
  48:.\main.c      **** 
  49:.\main.c      **** uint8 mcp2515_configRate(const uint8 canSpeed, const uint8 canClock){
 224              		.loc 1 49 0
 225              		.cfi_startproc
 226              		@ args = 0, pretend = 0, frame = 0
 227              		@ frame_needed = 0, uses_anonymous_args = 0
 228              	.LVL27:
 229 0000 38B5     		push	{r3, r4, r5, lr}
 230              		.cfi_def_cfa_offset 16
 231              		.cfi_offset 3, -16
 232              		.cfi_offset 4, -12
 233              		.cfi_offset 5, -8
 234              		.cfi_offset 14, -4
 235              	.LVL28:
  50:.\main.c      ****     uint8 set, cfg1, cfg2, cfg3;
ARM GAS  C:\Users\HENRYA~1\AppData\Local\Temp\cc1a9QKv.s 			page 6


  51:.\main.c      ****     set = 1;
  52:.\main.c      ****     switch (canClock)
 236              		.loc 1 52 0
 237 0002 0129     		cmp	r1, #1
 238 0004 41D0     		beq	.L15
 239 0006 0029     		cmp	r1, #0
 240 0008 76D0     		beq	.L16
 241 000a 0229     		cmp	r1, #2
 242 000c 40F0B780 		bne	.L60
  53:.\main.c      ****     {
  54:.\main.c      ****         case (MCP_8MHZ):
  55:.\main.c      ****         switch (canSpeed) 
 243              		.loc 1 55 0
 244 0010 0138     		subs	r0, r0, #1
 245              	.LVL29:
 246 0012 0C28     		cmp	r0, #12
 247 0014 00F2B580 		bhi	.L54
 248 0018 DFE800F0 		tbb	[pc, r0]
 249              	.L19:
 250 001c 07       		.byte	(.L18-.L19)/2
 251 001d 98       		.byte	(.L55-.L19)/2
 252 001e 0B       		.byte	(.L21-.L19)/2
 253 001f 0F       		.byte	(.L22-.L19)/2
 254 0020 13       		.byte	(.L23-.L19)/2
 255 0021 17       		.byte	(.L24-.L19)/2
 256 0022 1B       		.byte	(.L25-.L19)/2
 257 0023 1F       		.byte	(.L26-.L19)/2
 258 0024 23       		.byte	(.L27-.L19)/2
 259 0025 27       		.byte	(.L28-.L19)/2
 260 0026 2B       		.byte	(.L29-.L19)/2
 261 0027 2F       		.byte	(.L30-.L19)/2
 262 0028 33       		.byte	(.L31-.L19)/2
 263 0029 00       		.p2align 1
 264              	.L18:
  56:.\main.c      ****         {
  57:.\main.c      ****             case (CAN_5KBPS):                                               //   5KBPS             
  58:.\main.c      ****             cfg1 = MCP_8MHz_5kBPS_CFG1;
  59:.\main.c      ****             cfg2 = MCP_8MHz_5kBPS_CFG2;
  60:.\main.c      ****             cfg3 = MCP_8MHz_5kBPS_CFG3;
 265              		.loc 1 60 0
 266 002a 8724     		movs	r4, #135
  59:.\main.c      ****             cfg3 = MCP_8MHz_5kBPS_CFG3;
 267              		.loc 1 59 0
 268 002c BF25     		movs	r5, #191
  58:.\main.c      ****             cfg2 = MCP_8MHz_5kBPS_CFG2;
 269              		.loc 1 58 0
 270 002e 1F23     		movs	r3, #31
 271 0030 97E0     		b	.L20
 272              	.L21:
 273              	.LVL30:
  61:.\main.c      ****             break;
  62:.\main.c      **** 
  63:.\main.c      ****             case (CAN_10KBPS):                                              //  10KBPS             
  64:.\main.c      ****             cfg1 = MCP_8MHz_10kBPS_CFG1;
  65:.\main.c      ****             cfg2 = MCP_8MHz_10kBPS_CFG2;
  66:.\main.c      ****             cfg3 = MCP_8MHz_10kBPS_CFG3;
  67:.\main.c      ****             break;
ARM GAS  C:\Users\HENRYA~1\AppData\Local\Temp\cc1a9QKv.s 			page 7


  68:.\main.c      **** 
  69:.\main.c      ****             case (CAN_20KBPS):                                              //  20KBPS             
  70:.\main.c      ****             cfg1 = MCP_8MHz_20kBPS_CFG1;
  71:.\main.c      ****             cfg2 = MCP_8MHz_20kBPS_CFG2;
  72:.\main.c      ****             cfg3 = MCP_8MHz_20kBPS_CFG3;
 274              		.loc 1 72 0
 275 0032 8724     		movs	r4, #135
  71:.\main.c      ****             cfg3 = MCP_8MHz_20kBPS_CFG3;
 276              		.loc 1 71 0
 277 0034 BF25     		movs	r5, #191
  70:.\main.c      ****             cfg2 = MCP_8MHz_20kBPS_CFG2;
 278              		.loc 1 70 0
 279 0036 0723     		movs	r3, #7
  73:.\main.c      ****             break;
 280              		.loc 1 73 0
 281 0038 93E0     		b	.L20
 282              	.LVL31:
 283              	.L22:
  74:.\main.c      **** 
  75:.\main.c      ****             case (CAN_31K25BPS):                                            //  31.25KBPS          
  76:.\main.c      ****             cfg1 = MCP_8MHz_31k25BPS_CFG1;
  77:.\main.c      ****             cfg2 = MCP_8MHz_31k25BPS_CFG2;
  78:.\main.c      ****             cfg3 = MCP_8MHz_31k25BPS_CFG3;
 284              		.loc 1 78 0
 285 003a 8424     		movs	r4, #132
  77:.\main.c      ****             cfg3 = MCP_8MHz_31k25BPS_CFG3;
 286              		.loc 1 77 0
 287 003c A425     		movs	r5, #164
  76:.\main.c      ****             cfg2 = MCP_8MHz_31k25BPS_CFG2;
 288              		.loc 1 76 0
 289 003e 0723     		movs	r3, #7
  79:.\main.c      ****             break;
 290              		.loc 1 79 0
 291 0040 8FE0     		b	.L20
 292              	.LVL32:
 293              	.L23:
  80:.\main.c      **** 
  81:.\main.c      ****             case (CAN_40KBPS):                                              //  40Kbps
  82:.\main.c      ****             cfg1 = MCP_8MHz_40kBPS_CFG1;
  83:.\main.c      ****             cfg2 = MCP_8MHz_40kBPS_CFG2;
  84:.\main.c      ****             cfg3 = MCP_8MHz_40kBPS_CFG3;
 294              		.loc 1 84 0
 295 0042 8724     		movs	r4, #135
  83:.\main.c      ****             cfg3 = MCP_8MHz_40kBPS_CFG3;
 296              		.loc 1 83 0
 297 0044 BF25     		movs	r5, #191
  82:.\main.c      ****             cfg2 = MCP_8MHz_40kBPS_CFG2;
 298              		.loc 1 82 0
 299 0046 0323     		movs	r3, #3
  85:.\main.c      ****             break;
 300              		.loc 1 85 0
 301 0048 8BE0     		b	.L20
 302              	.LVL33:
 303              	.L24:
  86:.\main.c      **** 
  87:.\main.c      ****             case (CAN_50KBPS):                                              //  50Kbps
  88:.\main.c      ****             cfg1 = MCP_8MHz_50kBPS_CFG1;
ARM GAS  C:\Users\HENRYA~1\AppData\Local\Temp\cc1a9QKv.s 			page 8


  89:.\main.c      ****             cfg2 = MCP_8MHz_50kBPS_CFG2;
  90:.\main.c      ****             cfg3 = MCP_8MHz_50kBPS_CFG3;
 304              		.loc 1 90 0
 305 004a 8624     		movs	r4, #134
  89:.\main.c      ****             cfg3 = MCP_8MHz_50kBPS_CFG3;
 306              		.loc 1 89 0
 307 004c B425     		movs	r5, #180
  88:.\main.c      ****             cfg2 = MCP_8MHz_50kBPS_CFG2;
 308              		.loc 1 88 0
 309 004e 0323     		movs	r3, #3
  91:.\main.c      ****             break;
 310              		.loc 1 91 0
 311 0050 87E0     		b	.L20
 312              	.LVL34:
 313              	.L25:
  92:.\main.c      **** 
  93:.\main.c      ****             case (CAN_80KBPS):                                              //  80Kbps
  94:.\main.c      ****             cfg1 = MCP_8MHz_80kBPS_CFG1;
  95:.\main.c      ****             cfg2 = MCP_8MHz_80kBPS_CFG2;
  96:.\main.c      ****             cfg3 = MCP_8MHz_80kBPS_CFG3;
 314              		.loc 1 96 0
 315 0052 8724     		movs	r4, #135
  95:.\main.c      ****             cfg3 = MCP_8MHz_80kBPS_CFG3;
 316              		.loc 1 95 0
 317 0054 BF25     		movs	r5, #191
  94:.\main.c      ****             cfg2 = MCP_8MHz_80kBPS_CFG2;
 318              		.loc 1 94 0
 319 0056 0123     		movs	r3, #1
  97:.\main.c      ****             break;
 320              		.loc 1 97 0
 321 0058 83E0     		b	.L20
 322              	.LVL35:
 323              	.L26:
  98:.\main.c      **** 
  99:.\main.c      ****             case (CAN_100KBPS):                                             // 100Kbps
 100:.\main.c      ****             cfg1 = MCP_8MHz_100kBPS_CFG1;
 101:.\main.c      ****             cfg2 = MCP_8MHz_100kBPS_CFG2;
 102:.\main.c      ****             cfg3 = MCP_8MHz_100kBPS_CFG3;
 324              		.loc 1 102 0
 325 005a 8624     		movs	r4, #134
 101:.\main.c      ****             cfg3 = MCP_8MHz_100kBPS_CFG3;
 326              		.loc 1 101 0
 327 005c B425     		movs	r5, #180
 100:.\main.c      ****             cfg2 = MCP_8MHz_100kBPS_CFG2;
 328              		.loc 1 100 0
 329 005e 0123     		movs	r3, #1
 103:.\main.c      ****             break;
 330              		.loc 1 103 0
 331 0060 7FE0     		b	.L20
 332              	.LVL36:
 333              	.L27:
 104:.\main.c      **** 
 105:.\main.c      ****             case (CAN_125KBPS):                                             // 125Kbps
 106:.\main.c      ****             cfg1 = MCP_8MHz_125kBPS_CFG1;
 107:.\main.c      ****             cfg2 = MCP_8MHz_125kBPS_CFG2;
 108:.\main.c      ****             cfg3 = MCP_8MHz_125kBPS_CFG3;
 334              		.loc 1 108 0
ARM GAS  C:\Users\HENRYA~1\AppData\Local\Temp\cc1a9QKv.s 			page 9


 335 0062 8524     		movs	r4, #133
 107:.\main.c      ****             cfg3 = MCP_8MHz_125kBPS_CFG3;
 336              		.loc 1 107 0
 337 0064 B125     		movs	r5, #177
 106:.\main.c      ****             cfg2 = MCP_8MHz_125kBPS_CFG2;
 338              		.loc 1 106 0
 339 0066 0123     		movs	r3, #1
 109:.\main.c      ****             break;
 340              		.loc 1 109 0
 341 0068 7BE0     		b	.L20
 342              	.LVL37:
 343              	.L28:
 110:.\main.c      **** 
 111:.\main.c      ****             case (CAN_200KBPS):                                             // 200Kbps
 112:.\main.c      ****             cfg1 = MCP_8MHz_200kBPS_CFG1;
 113:.\main.c      ****             cfg2 = MCP_8MHz_200kBPS_CFG2;
 114:.\main.c      ****             cfg3 = MCP_8MHz_200kBPS_CFG3;
 344              		.loc 1 114 0
 345 006a 8624     		movs	r4, #134
 113:.\main.c      ****             cfg3 = MCP_8MHz_200kBPS_CFG3;
 346              		.loc 1 113 0
 347 006c B425     		movs	r5, #180
 112:.\main.c      ****             cfg2 = MCP_8MHz_200kBPS_CFG2;
 348              		.loc 1 112 0
 349 006e 0023     		movs	r3, #0
 115:.\main.c      ****             break;
 350              		.loc 1 115 0
 351 0070 77E0     		b	.L20
 352              	.LVL38:
 353              	.L29:
 116:.\main.c      **** 
 117:.\main.c      ****             case (CAN_250KBPS):                                             // 250Kbps
 118:.\main.c      ****             cfg1 = MCP_8MHz_250kBPS_CFG1;
 119:.\main.c      ****             cfg2 = MCP_8MHz_250kBPS_CFG2;
 120:.\main.c      ****             cfg3 = MCP_8MHz_250kBPS_CFG3;
 354              		.loc 1 120 0
 355 0072 8524     		movs	r4, #133
 119:.\main.c      ****             cfg3 = MCP_8MHz_250kBPS_CFG3;
 356              		.loc 1 119 0
 357 0074 B125     		movs	r5, #177
 118:.\main.c      ****             cfg2 = MCP_8MHz_250kBPS_CFG2;
 358              		.loc 1 118 0
 359 0076 0023     		movs	r3, #0
 121:.\main.c      ****             break;
 360              		.loc 1 121 0
 361 0078 73E0     		b	.L20
 362              	.LVL39:
 363              	.L30:
 122:.\main.c      **** 
 123:.\main.c      ****             case (CAN_500KBPS):                                             // 500Kbps
 124:.\main.c      ****             cfg1 = MCP_8MHz_500kBPS_CFG1;
 125:.\main.c      ****             cfg2 = MCP_8MHz_500kBPS_CFG2;
 126:.\main.c      ****             cfg3 = MCP_8MHz_500kBPS_CFG3;
 364              		.loc 1 126 0
 365 007a 8224     		movs	r4, #130
 125:.\main.c      ****             cfg3 = MCP_8MHz_500kBPS_CFG3;
 366              		.loc 1 125 0
ARM GAS  C:\Users\HENRYA~1\AppData\Local\Temp\cc1a9QKv.s 			page 10


 367 007c 9025     		movs	r5, #144
 124:.\main.c      ****             cfg2 = MCP_8MHz_500kBPS_CFG2;
 368              		.loc 1 124 0
 369 007e 0023     		movs	r3, #0
 127:.\main.c      ****             break;
 370              		.loc 1 127 0
 371 0080 6FE0     		b	.L20
 372              	.LVL40:
 373              	.L31:
 128:.\main.c      ****         
 129:.\main.c      ****             case (CAN_1000KBPS):                                            //   1Mbps
 130:.\main.c      ****             cfg1 = MCP_8MHz_1000kBPS_CFG1;
 131:.\main.c      ****             cfg2 = MCP_8MHz_1000kBPS_CFG2;
 132:.\main.c      ****             cfg3 = MCP_8MHz_1000kBPS_CFG3;
 374              		.loc 1 132 0
 375 0082 8024     		movs	r4, #128
 131:.\main.c      ****             cfg3 = MCP_8MHz_1000kBPS_CFG3;
 376              		.loc 1 131 0
 377 0084 2546     		mov	r5, r4
 130:.\main.c      ****             cfg2 = MCP_8MHz_1000kBPS_CFG2;
 378              		.loc 1 130 0
 379 0086 0023     		movs	r3, #0
 133:.\main.c      ****             break;  
 380              		.loc 1 133 0
 381 0088 6BE0     		b	.L20
 382              	.LVL41:
 383              	.L15:
 134:.\main.c      **** 
 135:.\main.c      ****             default:
 136:.\main.c      ****             set = 0;
 137:.\main.c      **** 	    return MCP2515_FAIL;
 138:.\main.c      ****             break;
 139:.\main.c      ****         }
 140:.\main.c      ****         break;
 141:.\main.c      **** 
 142:.\main.c      ****         case (MCP_16MHZ):
 143:.\main.c      ****         switch (canSpeed) 
 384              		.loc 1 143 0
 385 008a 0138     		subs	r0, r0, #1
 386              	.LVL42:
 387 008c 0C28     		cmp	r0, #12
 388 008e 7AD8     		bhi	.L56
 389 0090 DFE800F0 		tbb	[pc, r0]
 390              	.L33:
 391 0094 07       		.byte	(.L32-.L33)/2
 392 0095 60       		.byte	(.L57-.L33)/2
 393 0096 0B       		.byte	(.L34-.L33)/2
 394 0097 79       		.byte	(.L56-.L33)/2
 395 0098 0F       		.byte	(.L35-.L33)/2
 396 0099 13       		.byte	(.L36-.L33)/2
 397 009a 16       		.byte	(.L37-.L33)/2
 398 009b 1A       		.byte	(.L38-.L33)/2
 399 009c 1E       		.byte	(.L39-.L33)/2
 400 009d 22       		.byte	(.L40-.L33)/2
 401 009e 26       		.byte	(.L41-.L33)/2
 402 009f 2A       		.byte	(.L42-.L33)/2
 403 00a0 2E       		.byte	(.L43-.L33)/2
ARM GAS  C:\Users\HENRYA~1\AppData\Local\Temp\cc1a9QKv.s 			page 11


 404 00a1 00       		.p2align 1
 405              	.L32:
 144:.\main.c      ****         {
 145:.\main.c      ****             case (CAN_5KBPS):                                               //   5Kbps
 146:.\main.c      ****             cfg1 = MCP_16MHz_5kBPS_CFG1;
 147:.\main.c      ****             cfg2 = MCP_16MHz_5kBPS_CFG2;
 148:.\main.c      ****             cfg3 = MCP_16MHz_5kBPS_CFG3;
 406              		.loc 1 148 0
 407 00a2 8724     		movs	r4, #135
 147:.\main.c      ****             cfg3 = MCP_16MHz_5kBPS_CFG3;
 408              		.loc 1 147 0
 409 00a4 FF25     		movs	r5, #255
 146:.\main.c      ****             cfg2 = MCP_16MHz_5kBPS_CFG2;
 410              		.loc 1 146 0
 411 00a6 3F23     		movs	r3, #63
 412 00a8 5BE0     		b	.L20
 413              	.L34:
 414              	.LVL43:
 149:.\main.c      ****             break;
 150:.\main.c      **** 
 151:.\main.c      ****             case (CAN_10KBPS):                                              //  10Kbps
 152:.\main.c      ****             cfg1 = MCP_16MHz_10kBPS_CFG1;
 153:.\main.c      ****             cfg2 = MCP_16MHz_10kBPS_CFG2;
 154:.\main.c      ****             cfg3 = MCP_16MHz_10kBPS_CFG3;
 155:.\main.c      ****             break;
 156:.\main.c      **** 
 157:.\main.c      ****             case (CAN_20KBPS):                                              //  20Kbps
 158:.\main.c      ****             cfg1 = MCP_16MHz_20kBPS_CFG1;
 159:.\main.c      ****             cfg2 = MCP_16MHz_20kBPS_CFG2;
 160:.\main.c      ****             cfg3 = MCP_16MHz_20kBPS_CFG3;
 415              		.loc 1 160 0
 416 00aa 8724     		movs	r4, #135
 159:.\main.c      ****             cfg3 = MCP_16MHz_20kBPS_CFG3;
 417              		.loc 1 159 0
 418 00ac FF25     		movs	r5, #255
 158:.\main.c      ****             cfg2 = MCP_16MHz_20kBPS_CFG2;
 419              		.loc 1 158 0
 420 00ae 0F23     		movs	r3, #15
 161:.\main.c      ****             break;
 421              		.loc 1 161 0
 422 00b0 57E0     		b	.L20
 423              	.LVL44:
 424              	.L35:
 162:.\main.c      **** 
 163:.\main.c      ****             case (CAN_40KBPS):                                              //  40Kbps
 164:.\main.c      ****             cfg1 = MCP_16MHz_40kBPS_CFG1;
 165:.\main.c      ****             cfg2 = MCP_16MHz_40kBPS_CFG2;
 166:.\main.c      ****             cfg3 = MCP_16MHz_40kBPS_CFG3;
 425              		.loc 1 166 0
 426 00b2 8724     		movs	r4, #135
 165:.\main.c      ****             cfg3 = MCP_16MHz_40kBPS_CFG3;
 427              		.loc 1 165 0
 428 00b4 FF25     		movs	r5, #255
 164:.\main.c      ****             cfg2 = MCP_16MHz_40kBPS_CFG2;
 429              		.loc 1 164 0
 430 00b6 0723     		movs	r3, #7
 167:.\main.c      ****             break;
ARM GAS  C:\Users\HENRYA~1\AppData\Local\Temp\cc1a9QKv.s 			page 12


 431              		.loc 1 167 0
 432 00b8 53E0     		b	.L20
 433              	.LVL45:
 434              	.L36:
 168:.\main.c      **** 
 169:.\main.c      ****             case (CAN_50KBPS):                                              //  50Kbps
 170:.\main.c      ****             cfg2 = MCP_16MHz_50kBPS_CFG2;
 171:.\main.c      ****             cfg3 = MCP_16MHz_50kBPS_CFG3;
 435              		.loc 1 171 0
 436 00ba 8724     		movs	r4, #135
 170:.\main.c      ****             cfg3 = MCP_16MHz_50kBPS_CFG3;
 437              		.loc 1 170 0
 438 00bc FA25     		movs	r5, #250
 172:.\main.c      ****             break;
 439              		.loc 1 172 0
 440 00be 50E0     		b	.L20
 441              	.LVL46:
 442              	.L37:
 173:.\main.c      **** 
 174:.\main.c      ****             case (CAN_80KBPS):                                              //  80Kbps
 175:.\main.c      ****             cfg1 = MCP_16MHz_80kBPS_CFG1;
 176:.\main.c      ****             cfg2 = MCP_16MHz_80kBPS_CFG2;
 177:.\main.c      ****             cfg3 = MCP_16MHz_80kBPS_CFG3;
 443              		.loc 1 177 0
 444 00c0 8724     		movs	r4, #135
 176:.\main.c      ****             cfg3 = MCP_16MHz_80kBPS_CFG3;
 445              		.loc 1 176 0
 446 00c2 FF25     		movs	r5, #255
 175:.\main.c      ****             cfg2 = MCP_16MHz_80kBPS_CFG2;
 447              		.loc 1 175 0
 448 00c4 0323     		movs	r3, #3
 178:.\main.c      ****             break;
 449              		.loc 1 178 0
 450 00c6 4CE0     		b	.L20
 451              	.LVL47:
 452              	.L38:
 179:.\main.c      **** 
 180:.\main.c      ****             case (CAN_100KBPS):                                             // 100Kbps
 181:.\main.c      ****             cfg1 = MCP_16MHz_100kBPS_CFG1;
 182:.\main.c      ****             cfg2 = MCP_16MHz_100kBPS_CFG2;
 183:.\main.c      ****             cfg3 = MCP_16MHz_100kBPS_CFG3;
 453              		.loc 1 183 0
 454 00c8 8724     		movs	r4, #135
 182:.\main.c      ****             cfg3 = MCP_16MHz_100kBPS_CFG3;
 455              		.loc 1 182 0
 456 00ca FA25     		movs	r5, #250
 181:.\main.c      ****             cfg2 = MCP_16MHz_100kBPS_CFG2;
 457              		.loc 1 181 0
 458 00cc 0323     		movs	r3, #3
 184:.\main.c      ****             break;
 459              		.loc 1 184 0
 460 00ce 48E0     		b	.L20
 461              	.LVL48:
 462              	.L39:
 185:.\main.c      **** 
 186:.\main.c      ****             case (CAN_125KBPS):                                             // 125Kbps
 187:.\main.c      ****             cfg1 = MCP_16MHz_125kBPS_CFG1;
ARM GAS  C:\Users\HENRYA~1\AppData\Local\Temp\cc1a9QKv.s 			page 13


 188:.\main.c      ****             cfg2 = MCP_16MHz_125kBPS_CFG2;
 189:.\main.c      ****             cfg3 = MCP_16MHz_125kBPS_CFG3;
 463              		.loc 1 189 0
 464 00d0 8624     		movs	r4, #134
 188:.\main.c      ****             cfg3 = MCP_16MHz_125kBPS_CFG3;
 465              		.loc 1 188 0
 466 00d2 F025     		movs	r5, #240
 187:.\main.c      ****             cfg2 = MCP_16MHz_125kBPS_CFG2;
 467              		.loc 1 187 0
 468 00d4 0323     		movs	r3, #3
 190:.\main.c      ****             break;
 469              		.loc 1 190 0
 470 00d6 44E0     		b	.L20
 471              	.LVL49:
 472              	.L40:
 191:.\main.c      **** 
 192:.\main.c      ****             case (CAN_200KBPS):                                             // 200Kbps
 193:.\main.c      ****             cfg1 = MCP_16MHz_200kBPS_CFG1;
 194:.\main.c      ****             cfg2 = MCP_16MHz_200kBPS_CFG2;
 195:.\main.c      ****             cfg3 = MCP_16MHz_200kBPS_CFG3;
 473              		.loc 1 195 0
 474 00d8 8724     		movs	r4, #135
 194:.\main.c      ****             cfg3 = MCP_16MHz_200kBPS_CFG3;
 475              		.loc 1 194 0
 476 00da FA25     		movs	r5, #250
 193:.\main.c      ****             cfg2 = MCP_16MHz_200kBPS_CFG2;
 477              		.loc 1 193 0
 478 00dc 0123     		movs	r3, #1
 196:.\main.c      ****             break;
 479              		.loc 1 196 0
 480 00de 40E0     		b	.L20
 481              	.LVL50:
 482              	.L41:
 197:.\main.c      **** 
 198:.\main.c      ****             case (CAN_250KBPS):                                             // 250Kbps
 199:.\main.c      ****             cfg1 = MCP_16MHz_250kBPS_CFG1;
 200:.\main.c      ****             cfg2 = MCP_16MHz_250kBPS_CFG2;
 201:.\main.c      ****             cfg3 = MCP_16MHz_250kBPS_CFG3;
 483              		.loc 1 201 0
 484 00e0 8524     		movs	r4, #133
 200:.\main.c      ****             cfg3 = MCP_16MHz_250kBPS_CFG3;
 485              		.loc 1 200 0
 486 00e2 F125     		movs	r5, #241
 199:.\main.c      ****             cfg2 = MCP_16MHz_250kBPS_CFG2;
 487              		.loc 1 199 0
 488 00e4 4123     		movs	r3, #65
 202:.\main.c      ****             break;
 489              		.loc 1 202 0
 490 00e6 3CE0     		b	.L20
 491              	.LVL51:
 492              	.L42:
 203:.\main.c      **** 
 204:.\main.c      ****             case (CAN_500KBPS):                                             // 500Kbps
 205:.\main.c      ****             cfg1 = MCP_16MHz_500kBPS_CFG1;
 206:.\main.c      ****             cfg2 = MCP_16MHz_500kBPS_CFG2;
 207:.\main.c      ****             cfg3 = MCP_16MHz_500kBPS_CFG3;
 493              		.loc 1 207 0
ARM GAS  C:\Users\HENRYA~1\AppData\Local\Temp\cc1a9QKv.s 			page 14


 494 00e8 8624     		movs	r4, #134
 206:.\main.c      ****             cfg3 = MCP_16MHz_500kBPS_CFG3;
 495              		.loc 1 206 0
 496 00ea F025     		movs	r5, #240
 205:.\main.c      ****             cfg2 = MCP_16MHz_500kBPS_CFG2;
 497              		.loc 1 205 0
 498 00ec 0023     		movs	r3, #0
 208:.\main.c      ****             break;
 499              		.loc 1 208 0
 500 00ee 38E0     		b	.L20
 501              	.LVL52:
 502              	.L43:
 209:.\main.c      ****         
 210:.\main.c      ****             case (CAN_1000KBPS):                                            //   1Mbps
 211:.\main.c      ****             cfg1 = MCP_16MHz_1000kBPS_CFG1;
 212:.\main.c      ****             cfg2 = MCP_16MHz_1000kBPS_CFG2;
 213:.\main.c      ****             cfg3 = MCP_16MHz_1000kBPS_CFG3;
 503              		.loc 1 213 0
 504 00f0 8224     		movs	r4, #130
 212:.\main.c      ****             cfg3 = MCP_16MHz_1000kBPS_CFG3;
 505              		.loc 1 212 0
 506 00f2 D025     		movs	r5, #208
 211:.\main.c      ****             cfg2 = MCP_16MHz_1000kBPS_CFG2;
 507              		.loc 1 211 0
 508 00f4 0023     		movs	r3, #0
 214:.\main.c      ****             break;  
 509              		.loc 1 214 0
 510 00f6 34E0     		b	.L20
 511              	.LVL53:
 512              	.L16:
 215:.\main.c      **** 
 216:.\main.c      ****             default:
 217:.\main.c      ****             set = 0;
 218:.\main.c      **** 	    return MCP2515_FAIL;
 219:.\main.c      ****             break;
 220:.\main.c      ****         }
 221:.\main.c      ****         break;
 222:.\main.c      ****         
 223:.\main.c      ****         case (MCP_20MHZ):
 224:.\main.c      ****         switch (canSpeed) 
 513              		.loc 1 224 0
 514 00f8 0538     		subs	r0, r0, #5
 515              	.LVL54:
 516 00fa 0828     		cmp	r0, #8
 517 00fc 45D8     		bhi	.L58
 518 00fe DFE800F0 		tbb	[pc, r0]
 519              	.L45:
 520 0102 05       		.byte	(.L44-.L45)/2
 521 0103 2D       		.byte	(.L59-.L45)/2
 522 0104 09       		.byte	(.L46-.L45)/2
 523 0105 0D       		.byte	(.L47-.L45)/2
 524 0106 11       		.byte	(.L48-.L45)/2
 525 0107 15       		.byte	(.L49-.L45)/2
 526 0108 19       		.byte	(.L50-.L45)/2
 527 0109 1D       		.byte	(.L51-.L45)/2
 528 010a 21       		.byte	(.L52-.L45)/2
 529 010b 00       		.p2align 1
ARM GAS  C:\Users\HENRYA~1\AppData\Local\Temp\cc1a9QKv.s 			page 15


 530              	.L44:
 225:.\main.c      ****         {
 226:.\main.c      ****             case (CAN_40KBPS):                                              //  40Kbps
 227:.\main.c      ****             cfg1 = MCP_20MHz_40kBPS_CFG1;
 228:.\main.c      ****             cfg2 = MCP_20MHz_40kBPS_CFG2;
 229:.\main.c      ****             cfg3 = MCP_20MHz_40kBPS_CFG3;
 531              		.loc 1 229 0
 532 010c 8724     		movs	r4, #135
 228:.\main.c      ****             cfg3 = MCP_20MHz_40kBPS_CFG3;
 533              		.loc 1 228 0
 534 010e FF25     		movs	r5, #255
 227:.\main.c      ****             cfg2 = MCP_20MHz_40kBPS_CFG2;
 535              		.loc 1 227 0
 536 0110 0923     		movs	r3, #9
 537 0112 26E0     		b	.L20
 538              	.L46:
 539              	.LVL55:
 230:.\main.c      ****             break;
 231:.\main.c      **** 
 232:.\main.c      ****             case (CAN_50KBPS):                                              //  50Kbps
 233:.\main.c      ****             cfg1 = MCP_20MHz_50kBPS_CFG1;
 234:.\main.c      ****             cfg2 = MCP_20MHz_50kBPS_CFG2;
 235:.\main.c      ****             cfg3 = MCP_20MHz_50kBPS_CFG3;
 236:.\main.c      ****             break;
 237:.\main.c      **** 
 238:.\main.c      ****             case (CAN_80KBPS):                                              //  80Kbps
 239:.\main.c      ****             cfg1 = MCP_20MHz_80kBPS_CFG1;
 240:.\main.c      ****             cfg2 = MCP_20MHz_80kBPS_CFG2;
 241:.\main.c      ****             cfg3 = MCP_20MHz_80kBPS_CFG3;
 540              		.loc 1 241 0
 541 0114 8724     		movs	r4, #135
 240:.\main.c      ****             cfg3 = MCP_20MHz_80kBPS_CFG3;
 542              		.loc 1 240 0
 543 0116 FF25     		movs	r5, #255
 239:.\main.c      ****             cfg2 = MCP_20MHz_80kBPS_CFG2;
 544              		.loc 1 239 0
 545 0118 0423     		movs	r3, #4
 242:.\main.c      ****             break;
 546              		.loc 1 242 0
 547 011a 22E0     		b	.L20
 548              	.LVL56:
 549              	.L47:
 243:.\main.c      **** 
 244:.\main.c      ****             case (CAN_100KBPS):                                             // 100Kbps
 245:.\main.c      ****             cfg1 = MCP_20MHz_100kBPS_CFG1;
 246:.\main.c      ****             cfg2 = MCP_20MHz_100kBPS_CFG2;
 247:.\main.c      ****             cfg3 = MCP_20MHz_100kBPS_CFG3;
 550              		.loc 1 247 0
 551 011c 8724     		movs	r4, #135
 246:.\main.c      ****             cfg3 = MCP_20MHz_100kBPS_CFG3;
 552              		.loc 1 246 0
 553 011e FA25     		movs	r5, #250
 245:.\main.c      ****             cfg2 = MCP_20MHz_100kBPS_CFG2;
 554              		.loc 1 245 0
 555 0120 0423     		movs	r3, #4
 248:.\main.c      ****             break;
 556              		.loc 1 248 0
ARM GAS  C:\Users\HENRYA~1\AppData\Local\Temp\cc1a9QKv.s 			page 16


 557 0122 1EE0     		b	.L20
 558              	.LVL57:
 559              	.L48:
 249:.\main.c      **** 
 250:.\main.c      ****             case (CAN_125KBPS):                                             // 125Kbps
 251:.\main.c      ****             cfg1 = MCP_20MHz_125kBPS_CFG1;
 252:.\main.c      ****             cfg2 = MCP_20MHz_125kBPS_CFG2;
 253:.\main.c      ****             cfg3 = MCP_20MHz_125kBPS_CFG3;
 560              		.loc 1 253 0
 561 0124 8724     		movs	r4, #135
 252:.\main.c      ****             cfg3 = MCP_20MHz_125kBPS_CFG3;
 562              		.loc 1 252 0
 563 0126 FA25     		movs	r5, #250
 251:.\main.c      ****             cfg2 = MCP_20MHz_125kBPS_CFG2;
 564              		.loc 1 251 0
 565 0128 0323     		movs	r3, #3
 254:.\main.c      ****             break;
 566              		.loc 1 254 0
 567 012a 1AE0     		b	.L20
 568              	.LVL58:
 569              	.L49:
 255:.\main.c      **** 
 256:.\main.c      ****             case (CAN_200KBPS):                                             // 200Kbps
 257:.\main.c      ****             cfg1 = MCP_20MHz_200kBPS_CFG1;
 258:.\main.c      ****             cfg2 = MCP_20MHz_200kBPS_CFG2;
 259:.\main.c      ****             cfg3 = MCP_20MHz_200kBPS_CFG3;
 570              		.loc 1 259 0
 571 012c 8724     		movs	r4, #135
 258:.\main.c      ****             cfg3 = MCP_20MHz_200kBPS_CFG3;
 572              		.loc 1 258 0
 573 012e FF25     		movs	r5, #255
 257:.\main.c      ****             cfg2 = MCP_20MHz_200kBPS_CFG2;
 574              		.loc 1 257 0
 575 0130 0123     		movs	r3, #1
 260:.\main.c      ****             break;
 576              		.loc 1 260 0
 577 0132 16E0     		b	.L20
 578              	.LVL59:
 579              	.L50:
 261:.\main.c      **** 
 262:.\main.c      ****             case (CAN_250KBPS):                                             // 250Kbps
 263:.\main.c      ****             cfg1 = MCP_20MHz_250kBPS_CFG1;
 264:.\main.c      ****             cfg2 = MCP_20MHz_250kBPS_CFG2;
 265:.\main.c      ****             cfg3 = MCP_20MHz_250kBPS_CFG3;
 580              		.loc 1 265 0
 581 0134 8624     		movs	r4, #134
 264:.\main.c      ****             cfg3 = MCP_20MHz_250kBPS_CFG3;
 582              		.loc 1 264 0
 583 0136 FB25     		movs	r5, #251
 263:.\main.c      ****             cfg2 = MCP_20MHz_250kBPS_CFG2;
 584              		.loc 1 263 0
 585 0138 4123     		movs	r3, #65
 266:.\main.c      ****             break;
 586              		.loc 1 266 0
 587 013a 12E0     		b	.L20
 588              	.LVL60:
 589              	.L51:
ARM GAS  C:\Users\HENRYA~1\AppData\Local\Temp\cc1a9QKv.s 			page 17


 267:.\main.c      **** 
 268:.\main.c      ****             case (CAN_500KBPS):                                             // 500Kbps
 269:.\main.c      ****             cfg1 = MCP_20MHz_500kBPS_CFG1;
 270:.\main.c      ****             cfg2 = MCP_20MHz_500kBPS_CFG2;
 271:.\main.c      ****             cfg3 = MCP_20MHz_500kBPS_CFG3;
 590              		.loc 1 271 0
 591 013c 8724     		movs	r4, #135
 270:.\main.c      ****             cfg3 = MCP_20MHz_500kBPS_CFG3;
 592              		.loc 1 270 0
 593 013e FA25     		movs	r5, #250
 269:.\main.c      ****             cfg2 = MCP_20MHz_500kBPS_CFG2;
 594              		.loc 1 269 0
 595 0140 0023     		movs	r3, #0
 272:.\main.c      ****             break;
 596              		.loc 1 272 0
 597 0142 0EE0     		b	.L20
 598              	.LVL61:
 599              	.L52:
 273:.\main.c      ****         
 274:.\main.c      ****             case (CAN_1000KBPS):                                            //   1Mbps
 275:.\main.c      ****             cfg1 = MCP_20MHz_1000kBPS_CFG1;
 276:.\main.c      ****             cfg2 = MCP_20MHz_1000kBPS_CFG2;
 277:.\main.c      ****             cfg3 = MCP_20MHz_1000kBPS_CFG3;
 600              		.loc 1 277 0
 601 0144 8224     		movs	r4, #130
 276:.\main.c      ****             cfg3 = MCP_20MHz_1000kBPS_CFG3;
 602              		.loc 1 276 0
 603 0146 D925     		movs	r5, #217
 275:.\main.c      ****             cfg2 = MCP_20MHz_1000kBPS_CFG2;
 604              		.loc 1 275 0
 605 0148 0023     		movs	r3, #0
 278:.\main.c      ****             break;  
 606              		.loc 1 278 0
 607 014a 0AE0     		b	.L20
 608              	.LVL62:
 609              	.L55:
  66:.\main.c      ****             break;
 610              		.loc 1 66 0
 611 014c 8724     		movs	r4, #135
  65:.\main.c      ****             cfg3 = MCP_8MHz_10kBPS_CFG3;
 612              		.loc 1 65 0
 613 014e BF25     		movs	r5, #191
  64:.\main.c      ****             cfg2 = MCP_8MHz_10kBPS_CFG2;
 614              		.loc 1 64 0
 615 0150 0F23     		movs	r3, #15
 616 0152 06E0     		b	.L20
 617              	.L57:
 154:.\main.c      ****             break;
 618              		.loc 1 154 0
 619 0154 8724     		movs	r4, #135
 153:.\main.c      ****             cfg3 = MCP_16MHz_10kBPS_CFG3;
 620              		.loc 1 153 0
 621 0156 FF25     		movs	r5, #255
 152:.\main.c      ****             cfg2 = MCP_16MHz_10kBPS_CFG2;
 622              		.loc 1 152 0
 623 0158 1F23     		movs	r3, #31
 624 015a 02E0     		b	.L20
ARM GAS  C:\Users\HENRYA~1\AppData\Local\Temp\cc1a9QKv.s 			page 18


 625              	.L59:
 235:.\main.c      ****             break;
 626              		.loc 1 235 0
 627 015c 8724     		movs	r4, #135
 234:.\main.c      ****             cfg3 = MCP_20MHz_50kBPS_CFG3;
 628              		.loc 1 234 0
 629 015e FA25     		movs	r5, #250
 233:.\main.c      ****             cfg2 = MCP_20MHz_50kBPS_CFG2;
 630              		.loc 1 233 0
 631 0160 0923     		movs	r3, #9
 632              	.L20:
 633              	.LVL63:
 279:.\main.c      **** 
 280:.\main.c      ****             default:
 281:.\main.c      ****             set = 0;
 282:.\main.c      ****             return MCP2515_FAIL;
 283:.\main.c      ****             break;
 284:.\main.c      ****         }
 285:.\main.c      ****         break;
 286:.\main.c      ****         
 287:.\main.c      ****         default:
 288:.\main.c      ****         set = 0;
 289:.\main.c      **** 	return MCP2515_FAIL;
 290:.\main.c      ****         break;
 291:.\main.c      ****     }
 292:.\main.c      **** 
 293:.\main.c      ****     if (set) {
 294:.\main.c      ****         mcp2515_setRegister(MCP_CNF1, cfg1);
 634              		.loc 1 294 0
 635 0162 2A20     		movs	r0, #42
 636 0164 1946     		mov	r1, r3
 637              	.LVL64:
 638 0166 FFF7FEFF 		bl	mcp2515_setRegister
 639              	.LVL65:
 295:.\main.c      ****         mcp2515_setRegister(MCP_CNF2, cfg2);
 640              		.loc 1 295 0
 641 016a 2920     		movs	r0, #41
 642 016c 2946     		mov	r1, r5
 643 016e FFF7FEFF 		bl	mcp2515_setRegister
 644              	.LVL66:
 296:.\main.c      ****         mcp2515_setRegister(MCP_CNF3, cfg3);
 645              		.loc 1 296 0
 646 0172 2820     		movs	r0, #40
 647 0174 2146     		mov	r1, r4
 648 0176 FFF7FEFF 		bl	mcp2515_setRegister
 649              	.LVL67:
 297:.\main.c      ****         return MCP2515_OK;
 650              		.loc 1 297 0
 651 017a 0020     		movs	r0, #0
 652 017c 38BD     		pop	{r3, r4, r5, pc}
 653              	.LVL68:
 654              	.L60:
 289:.\main.c      ****         break;
 655              		.loc 1 289 0
 656 017e 0120     		movs	r0, #1
 657              	.LVL69:
 658 0180 38BD     		pop	{r3, r4, r5, pc}
ARM GAS  C:\Users\HENRYA~1\AppData\Local\Temp\cc1a9QKv.s 			page 19


 659              	.L54:
 137:.\main.c      ****             break;
 660              		.loc 1 137 0
 661 0182 0120     		movs	r0, #1
 662 0184 38BD     		pop	{r3, r4, r5, pc}
 663              	.L56:
 218:.\main.c      ****             break;
 664              		.loc 1 218 0
 665 0186 0120     		movs	r0, #1
 666 0188 38BD     		pop	{r3, r4, r5, pc}
 667              	.L58:
 282:.\main.c      ****             break;
 668              		.loc 1 282 0
 669 018a 0120     		movs	r0, #1
 298:.\main.c      ****     }
 299:.\main.c      ****      
 300:.\main.c      ****     return MCP2515_FAIL;
 301:.\main.c      **** }
 670              		.loc 1 301 0
 671 018c 38BD     		pop	{r3, r4, r5, pc}
 672              		.cfi_endproc
 673              	.LFE68:
 674              		.size	mcp2515_configRate, .-mcp2515_configRate
 675 018e 00BF     		.section	.text.mcp2515_setRegisterS,"ax",%progbits
 676              		.align	2
 677              		.global	mcp2515_setRegisterS
 678              		.thumb
 679              		.thumb_func
 680              		.type	mcp2515_setRegisterS, %function
 681              	mcp2515_setRegisterS:
 682              	.LFB69:
 302:.\main.c      **** 
 303:.\main.c      **** void mcp2515_setRegisterS(const uint8 address, const uint8 values[], const uint8 n){
 683              		.loc 1 303 0
 684              		.cfi_startproc
 685              		@ args = 0, pretend = 0, frame = 0
 686              		@ frame_needed = 0, uses_anonymous_args = 0
 687              	.LVL70:
 688 0000 70B5     		push	{r4, r5, r6, lr}
 689              		.cfi_def_cfa_offset 16
 690              		.cfi_offset 4, -16
 691              		.cfi_offset 5, -12
 692              		.cfi_offset 6, -8
 693              		.cfi_offset 14, -4
 694 0002 0446     		mov	r4, r0
 695 0004 0E46     		mov	r6, r1
 696 0006 1546     		mov	r5, r2
 304:.\main.c      ****     uint8 i;
 305:.\main.c      ****     SPIM_1_WriteTxData(MCP_WRITE);
 697              		.loc 1 305 0
 698 0008 0220     		movs	r0, #2
 699              	.LVL71:
 700 000a FFF7FEFF 		bl	SPIM_1_WriteTxData
 701              	.LVL72:
 306:.\main.c      ****     SPIM_1_WriteTxData(address);
 702              		.loc 1 306 0
 703 000e 2046     		mov	r0, r4
ARM GAS  C:\Users\HENRYA~1\AppData\Local\Temp\cc1a9QKv.s 			page 20


 704 0010 FFF7FEFF 		bl	SPIM_1_WriteTxData
 705              	.LVL73:
 307:.\main.c      ****     for (i=0; i<n; i++){
 706              		.loc 1 307 0
 707 0014 0024     		movs	r4, #0
 708 0016 04E0     		b	.L63
 709              	.LVL74:
 710              	.L64:
 308:.\main.c      ****         SPIM_1_WriteByte(values[i]);}
 711              		.loc 1 308 0 discriminator 3
 712 0018 305D     		ldrb	r0, [r6, r4]	@ zero_extendqisi2
 713 001a FFF7FEFF 		bl	SPIM_1_WriteTxData
 714              	.LVL75:
 307:.\main.c      ****     for (i=0; i<n; i++){
 715              		.loc 1 307 0 discriminator 3
 716 001e 0134     		adds	r4, r4, #1
 717              	.LVL76:
 718 0020 E4B2     		uxtb	r4, r4
 719              	.LVL77:
 720              	.L63:
 307:.\main.c      ****     for (i=0; i<n; i++){
 721              		.loc 1 307 0 is_stmt 0 discriminator 1
 722 0022 AC42     		cmp	r4, r5
 723 0024 F8D3     		bcc	.L64
 309:.\main.c      ****     CyDelayUs(250);
 724              		.loc 1 309 0 is_stmt 1
 725 0026 FA20     		movs	r0, #250
 726 0028 FFF7FEFF 		bl	CyDelayUs
 727              	.LVL78:
 728 002c 70BD     		pop	{r4, r5, r6, pc}
 729              		.cfi_endproc
 730              	.LFE69:
 731              		.size	mcp2515_setRegisterS, .-mcp2515_setRegisterS
 732 002e 00BF     		.section	.text.mcp2515_write_mf,"ax",%progbits
 733              		.align	2
 734              		.global	mcp2515_write_mf
 735              		.thumb
 736              		.thumb_func
 737              		.type	mcp2515_write_mf, %function
 738              	mcp2515_write_mf:
 739              	.LFB70:
 310:.\main.c      **** }
 311:.\main.c      **** 
 312:.\main.c      **** void mcp2515_write_mf( const uint8 mcp_addr, const uint8 ext, const uint32 id ){
 740              		.loc 1 312 0
 741              		.cfi_startproc
 742              		@ args = 0, pretend = 0, frame = 8
 743              		@ frame_needed = 0, uses_anonymous_args = 0
 744              	.LVL79:
 745 0000 00B5     		push	{lr}
 746              		.cfi_def_cfa_offset 4
 747              		.cfi_offset 14, -4
 748 0002 83B0     		sub	sp, sp, #12
 749              		.cfi_def_cfa_offset 16
 313:.\main.c      ****     uint16_t canid;
 314:.\main.c      ****     uint8 tbufdata[4];
 315:.\main.c      **** 
ARM GAS  C:\Users\HENRYA~1\AppData\Local\Temp\cc1a9QKv.s 			page 21


 316:.\main.c      ****     canid = (uint16_t)(id & 0x0FFFF);
 750              		.loc 1 316 0
 751 0004 93B2     		uxth	r3, r2
 752              	.LVL80:
 317:.\main.c      **** 
 318:.\main.c      ****     if ( ext == 1) 
 753              		.loc 1 318 0
 754 0006 0129     		cmp	r1, #1
 755 0008 15D1     		bne	.L67
 319:.\main.c      ****     {
 320:.\main.c      ****         tbufdata[MCP_EID0] = (uint8) (canid & 0xFF);
 756              		.loc 1 320 0
 757 000a 8DF80720 		strb	r2, [sp, #7]
 321:.\main.c      ****         tbufdata[MCP_EID8] = (uint8) (canid >> 8);
 758              		.loc 1 321 0
 759 000e 1B0A     		lsrs	r3, r3, #8
 760              	.LVL81:
 761 0010 8DF80630 		strb	r3, [sp, #6]
 322:.\main.c      ****         canid = (uint16_t)(id >> 16);
 762              		.loc 1 322 0
 763 0014 120C     		lsrs	r2, r2, #16
 764              	.LVL82:
 323:.\main.c      ****         tbufdata[MCP_SIDL] = (uint8) (canid & 0x03);
 765              		.loc 1 323 0
 766 0016 D3B2     		uxtb	r3, r2
 767 0018 03F00301 		and	r1, r3, #3
 768              	.LVL83:
 324:.\main.c      ****         tbufdata[MCP_SIDL] += (uint8) ((canid & 0x1C) << 3);
 769              		.loc 1 324 0
 770 001c 03F01C03 		and	r3, r3, #28
 771 0020 01EBC303 		add	r3, r1, r3, lsl #3
 325:.\main.c      ****         tbufdata[MCP_SIDL] |= MCP_TXB_EXIDE_M;
 772              		.loc 1 325 0
 773 0024 43F00803 		orr	r3, r3, #8
 774 0028 8DF80530 		strb	r3, [sp, #5]
 326:.\main.c      ****         tbufdata[MCP_SIDH] = (uint8) (canid >> 5 );
 775              		.loc 1 326 0
 776 002c C2F34712 		ubfx	r2, r2, #5, #8
 777              	.LVL84:
 778 0030 8DF80420 		strb	r2, [sp, #4]
 779 0034 0CE0     		b	.L68
 780              	.LVL85:
 781              	.L67:
 327:.\main.c      ****     }
 328:.\main.c      ****     else 
 329:.\main.c      ****     {
 330:.\main.c      ****         tbufdata[MCP_EID0] = (uint8) (canid & 0xFF);
 782              		.loc 1 330 0
 783 0036 8DF80720 		strb	r2, [sp, #7]
 331:.\main.c      ****         tbufdata[MCP_EID8] = (uint8) (canid >> 8);
 784              		.loc 1 331 0
 785 003a 1B0A     		lsrs	r3, r3, #8
 786              	.LVL86:
 787 003c 8DF80630 		strb	r3, [sp, #6]
 332:.\main.c      ****         canid = (uint16_t)(id >> 16);
 788              		.loc 1 332 0
 789 0040 120C     		lsrs	r2, r2, #16
ARM GAS  C:\Users\HENRYA~1\AppData\Local\Temp\cc1a9QKv.s 			page 22


 790              	.LVL87:
 333:.\main.c      ****         tbufdata[MCP_SIDL] = (uint8) ((canid & 0x07) << 5);
 791              		.loc 1 333 0
 792 0042 5301     		lsls	r3, r2, #5
 793 0044 8DF80530 		strb	r3, [sp, #5]
 334:.\main.c      ****         tbufdata[MCP_SIDH] = (uint8) (canid >> 3 );
 794              		.loc 1 334 0
 795 0048 C2F3C702 		ubfx	r2, r2, #3, #8
 796              	.LVL88:
 797 004c 8DF80420 		strb	r2, [sp, #4]
 798              	.LVL89:
 799              	.L68:
 335:.\main.c      ****     } 
 336:.\main.c      ****     mcp2515_setRegisterS( mcp_addr, tbufdata, 4 );
 800              		.loc 1 336 0
 801 0050 01A9     		add	r1, sp, #4
 802 0052 0422     		movs	r2, #4
 803 0054 FFF7FEFF 		bl	mcp2515_setRegisterS
 804              	.LVL90:
 337:.\main.c      **** }
 805              		.loc 1 337 0
 806 0058 03B0     		add	sp, sp, #12
 807              		.cfi_def_cfa_offset 4
 808              		@ sp needed
 809 005a 5DF804FB 		ldr	pc, [sp], #4
 810              		.cfi_endproc
 811              	.LFE70:
 812              		.size	mcp2515_write_mf, .-mcp2515_write_mf
 813 005e 00BF     		.section	.text.mcp2515_initCANBuffers,"ax",%progbits
 814              		.align	2
 815              		.global	mcp2515_initCANBuffers
 816              		.thumb
 817              		.thumb_func
 818              		.type	mcp2515_initCANBuffers, %function
 819              	mcp2515_initCANBuffers:
 820              	.LFB71:
 338:.\main.c      **** 
 339:.\main.c      **** void mcp2515_initCANBuffers(void){
 821              		.loc 1 339 0
 822              		.cfi_startproc
 823              		@ args = 0, pretend = 0, frame = 0
 824              		@ frame_needed = 0, uses_anonymous_args = 0
 825 0000 F8B5     		push	{r3, r4, r5, r6, r7, lr}
 826              		.cfi_def_cfa_offset 24
 827              		.cfi_offset 3, -24
 828              		.cfi_offset 4, -20
 829              		.cfi_offset 5, -16
 830              		.cfi_offset 6, -12
 831              		.cfi_offset 7, -8
 832              		.cfi_offset 14, -4
 833              	.LVL91:
 340:.\main.c      ****     uint8 i, a1, a2, a3;
 341:.\main.c      ****     uint8 std = 0;               
 342:.\main.c      ****     uint8 ext = 1;
 343:.\main.c      ****     uint32 ulMask = 0x00, ulFilt = 0x00;
 344:.\main.c      ****     mcp2515_write_mf(MCP_RXM0SIDH, ext, ulMask);			/*Set both masks to 0           */
 834              		.loc 1 344 0
ARM GAS  C:\Users\HENRYA~1\AppData\Local\Temp\cc1a9QKv.s 			page 23


 835 0002 2020     		movs	r0, #32
 836 0004 0121     		movs	r1, #1
 837 0006 0022     		movs	r2, #0
 838 0008 FFF7FEFF 		bl	mcp2515_write_mf
 839              	.LVL92:
 345:.\main.c      ****     mcp2515_write_mf(MCP_RXM1SIDH, ext, ulMask);			/*Mask register ignores ext bit */              
 840              		.loc 1 345 0
 841 000c 2420     		movs	r0, #36
 842 000e 0121     		movs	r1, #1
 843 0010 0022     		movs	r2, #0
 844 0012 FFF7FEFF 		bl	mcp2515_write_mf
 845              	.LVL93:
 346:.\main.c      ****     mcp2515_write_mf(MCP_RXF0SIDH, ext, ulFilt);			/* RXB0: extended               */
 846              		.loc 1 346 0
 847 0016 0020     		movs	r0, #0
 848 0018 0121     		movs	r1, #1
 849 001a 0246     		mov	r2, r0
 850 001c FFF7FEFF 		bl	mcp2515_write_mf
 851              	.LVL94:
 347:.\main.c      ****     mcp2515_write_mf(MCP_RXF1SIDH, std, ulFilt);			/* RXB1: standard               */
 852              		.loc 1 347 0
 853 0020 0420     		movs	r0, #4
 854 0022 0021     		movs	r1, #0
 855 0024 0A46     		mov	r2, r1
 856 0026 FFF7FEFF 		bl	mcp2515_write_mf
 857              	.LVL95:
 348:.\main.c      ****     mcp2515_write_mf(MCP_RXF2SIDH, ext, ulFilt);			/* RXB2: extended               */
 858              		.loc 1 348 0
 859 002a 0820     		movs	r0, #8
 860 002c 0121     		movs	r1, #1
 861 002e 0022     		movs	r2, #0
 862 0030 FFF7FEFF 		bl	mcp2515_write_mf
 863              	.LVL96:
 349:.\main.c      ****     mcp2515_write_mf(MCP_RXF3SIDH, std, ulFilt);			/* RXB3: standard               */
 864              		.loc 1 349 0
 865 0034 1020     		movs	r0, #16
 866 0036 0021     		movs	r1, #0
 867 0038 0A46     		mov	r2, r1
 868 003a FFF7FEFF 		bl	mcp2515_write_mf
 869              	.LVL97:
 350:.\main.c      ****     mcp2515_write_mf(MCP_RXF4SIDH, ext, ulFilt);
 870              		.loc 1 350 0
 871 003e 1420     		movs	r0, #20
 872 0040 0121     		movs	r1, #1
 873 0042 0022     		movs	r2, #0
 874 0044 FFF7FEFF 		bl	mcp2515_write_mf
 875              	.LVL98:
 351:.\main.c      ****     mcp2515_write_mf(MCP_RXF5SIDH, std, ulFilt);
 876              		.loc 1 351 0
 877 0048 1820     		movs	r0, #24
 878 004a 0021     		movs	r1, #0
 879 004c 0A46     		mov	r2, r1
 880 004e FFF7FEFF 		bl	mcp2515_write_mf
 881              	.LVL99:
 352:.\main.c      **** 
 353:.\main.c      ****                                                                         /* Clear, deactivate the th
 354:.\main.c      ****                                                                         /* transmit buffers        
ARM GAS  C:\Users\HENRYA~1\AppData\Local\Temp\cc1a9QKv.s 			page 24


 355:.\main.c      ****                                                                         /* TXBnCTRL -> TXBnD7      
 356:.\main.c      ****     a1 = MCP_TXB0CTRL;
 357:.\main.c      ****     a2 = MCP_TXB1CTRL;
 358:.\main.c      ****     a3 = MCP_TXB2CTRL;
 882              		.loc 1 358 0
 883 0052 5027     		movs	r7, #80
 357:.\main.c      ****     a3 = MCP_TXB2CTRL;
 884              		.loc 1 357 0
 885 0054 4026     		movs	r6, #64
 356:.\main.c      ****     a2 = MCP_TXB1CTRL;
 886              		.loc 1 356 0
 887 0056 3025     		movs	r5, #48
 359:.\main.c      ****     for (i = 0; i < 14; i++) {                                          /* in-buffer loop          
 888              		.loc 1 359 0
 889 0058 0024     		movs	r4, #0
 890 005a 13E0     		b	.L71
 891              	.LVL100:
 892              	.L72:
 360:.\main.c      ****         mcp2515_setRegister(a1, 0);
 893              		.loc 1 360 0 discriminator 3
 894 005c 2846     		mov	r0, r5
 895 005e 0021     		movs	r1, #0
 896 0060 FFF7FEFF 		bl	mcp2515_setRegister
 897              	.LVL101:
 361:.\main.c      ****         mcp2515_setRegister(a2, 0);
 898              		.loc 1 361 0 discriminator 3
 899 0064 3046     		mov	r0, r6
 900 0066 0021     		movs	r1, #0
 901 0068 FFF7FEFF 		bl	mcp2515_setRegister
 902              	.LVL102:
 362:.\main.c      ****         mcp2515_setRegister(a3, 0);
 903              		.loc 1 362 0 discriminator 3
 904 006c 3846     		mov	r0, r7
 905 006e 0021     		movs	r1, #0
 906 0070 FFF7FEFF 		bl	mcp2515_setRegister
 907              	.LVL103:
 363:.\main.c      ****         a1++;
 908              		.loc 1 363 0 discriminator 3
 909 0074 0135     		adds	r5, r5, #1
 910              	.LVL104:
 911 0076 EDB2     		uxtb	r5, r5
 912              	.LVL105:
 364:.\main.c      ****         a2++;
 913              		.loc 1 364 0 discriminator 3
 914 0078 0136     		adds	r6, r6, #1
 915              	.LVL106:
 916 007a F6B2     		uxtb	r6, r6
 917              	.LVL107:
 365:.\main.c      ****         a3++;
 918              		.loc 1 365 0 discriminator 3
 919 007c 0137     		adds	r7, r7, #1
 920              	.LVL108:
 921 007e FFB2     		uxtb	r7, r7
 922              	.LVL109:
 359:.\main.c      ****         mcp2515_setRegister(a1, 0);
 923              		.loc 1 359 0 discriminator 3
 924 0080 0134     		adds	r4, r4, #1
ARM GAS  C:\Users\HENRYA~1\AppData\Local\Temp\cc1a9QKv.s 			page 25


 925              	.LVL110:
 926 0082 E4B2     		uxtb	r4, r4
 927              	.LVL111:
 928              	.L71:
 359:.\main.c      ****         mcp2515_setRegister(a1, 0);
 929              		.loc 1 359 0 is_stmt 0 discriminator 1
 930 0084 0D2C     		cmp	r4, #13
 931 0086 E9D9     		bls	.L72
 366:.\main.c      ****     }
 367:.\main.c      ****     mcp2515_setRegister(MCP_RXB0CTRL, 0);
 932              		.loc 1 367 0 is_stmt 1
 933 0088 6020     		movs	r0, #96
 934 008a 0021     		movs	r1, #0
 935 008c FFF7FEFF 		bl	mcp2515_setRegister
 936              	.LVL112:
 368:.\main.c      ****     mcp2515_setRegister(MCP_RXB1CTRL, 0);
 937              		.loc 1 368 0
 938 0090 7020     		movs	r0, #112
 939 0092 0021     		movs	r1, #0
 940 0094 FFF7FEFF 		bl	mcp2515_setRegister
 941              	.LVL113:
 942 0098 F8BD     		pop	{r3, r4, r5, r6, r7, pc}
 943              		.cfi_endproc
 944              	.LFE71:
 945              		.size	mcp2515_initCANBuffers, .-mcp2515_initCANBuffers
 946 009a 00BF     		.section	.text.mcp2515_init,"ax",%progbits
 947              		.align	2
 948              		.global	mcp2515_init
 949              		.thumb
 950              		.thumb_func
 951              		.type	mcp2515_init, %function
 952              	mcp2515_init:
 953              	.LFB72:
 369:.\main.c      **** }
 370:.\main.c      **** 
 371:.\main.c      **** uint8 mcp2515_init(const uint8 canIDMode, const uint8 canSpeed, const uint8 canClock){
 954              		.loc 1 371 0
 955              		.cfi_startproc
 956              		@ args = 0, pretend = 0, frame = 0
 957              		@ frame_needed = 0, uses_anonymous_args = 0
 958              	.LVL114:
 959 0000 F8B5     		push	{r3, r4, r5, r6, r7, lr}
 960              		.cfi_def_cfa_offset 24
 961              		.cfi_offset 3, -24
 962              		.cfi_offset 4, -20
 963              		.cfi_offset 5, -16
 964              		.cfi_offset 6, -12
 965              		.cfi_offset 7, -8
 966              		.cfi_offset 14, -4
 967 0002 0746     		mov	r7, r0
 968 0004 0E46     		mov	r6, r1
 969 0006 1546     		mov	r5, r2
 372:.\main.c      ****     uint8 res;
 373:.\main.c      ****     mcp2515_reset();
 970              		.loc 1 373 0
 971 0008 FFF7FEFF 		bl	mcp2515_reset
 972              	.LVL115:
ARM GAS  C:\Users\HENRYA~1\AppData\Local\Temp\cc1a9QKv.s 			page 26


 374:.\main.c      ****     mcpMode = MCP_LOOPBACK;
 973              		.loc 1 374 0
 974 000c 4022     		movs	r2, #64
 975 000e 1D4B     		ldr	r3, .L86
 976 0010 1A70     		strb	r2, [r3]
 375:.\main.c      ****     res = mcp2515_setCANCTRL_Mode(MODE_CONFIG);
 977              		.loc 1 375 0
 978 0012 8020     		movs	r0, #128
 979 0014 FFF7FEFF 		bl	mcp2515_setCANCTRL_Mode
 980              	.LVL116:
 981 0018 C4B2     		uxtb	r4, r0
 982              	.LVL117:
 376:.\main.c      ****     if(res > 0){return res;}
 983              		.loc 1 376 0
 984 001a 5CBB     		cbnz	r4, .L80
 377:.\main.c      ****     // Set Baudrate
 378:.\main.c      ****     if(mcp2515_configRate(canSpeed, canClock)){return res;}
 985              		.loc 1 378 0
 986 001c 3046     		mov	r0, r6
 987 001e 2946     		mov	r1, r5
 988 0020 FFF7FEFF 		bl	mcp2515_configRate
 989              	.LVL118:
 990 0024 40BB     		cbnz	r0, .L81
 379:.\main.c      ****     if ( res == MCP2515_OK ) {                                                       /* init canbuf
 991              		.loc 1 379 0
 992 0026 1CBB     		cbnz	r4, .L76
 380:.\main.c      ****         mcp2515_initCANBuffers();                                                               /* 
 993              		.loc 1 380 0
 994 0028 FFF7FEFF 		bl	mcp2515_initCANBuffers
 995              	.LVL119:
 381:.\main.c      ****         mcp2515_setRegister(MCP_CANINTE, MCP_RX0IF | MCP_RX1IF);
 996              		.loc 1 381 0
 997 002c 2B20     		movs	r0, #43
 998 002e 0321     		movs	r1, #3
 999 0030 FFF7FEFF 		bl	mcp2515_setRegister
 1000              	.LVL120:
 382:.\main.c      ****         switch(canIDMode)
 1001              		.loc 1 382 0
 1002 0034 67B1     		cbz	r7, .L77
 1003 0036 032F     		cmp	r7, #3
 1004 0038 20D1     		bne	.L84
 383:.\main.c      ****         {
 384:.\main.c      ****             case (MCP_ANY):
 385:.\main.c      ****             mcp2515_modifyRegister(MCP_RXB0CTRL,
 1005              		.loc 1 385 0
 1006 003a 6020     		movs	r0, #96
 1007 003c 6421     		movs	r1, #100
 1008 003e 0A46     		mov	r2, r1
 1009 0040 FFF7FEFF 		bl	mcp2515_modifyRegister
 1010              	.LVL121:
 386:.\main.c      ****             MCP_RXB_RX_MASK | MCP_RXB_BUKT_MASK,
 387:.\main.c      ****             MCP_RXB_RX_ANY | MCP_RXB_BUKT_MASK);
 388:.\main.c      ****             mcp2515_modifyRegister(MCP_RXB1CTRL, MCP_RXB_RX_MASK,
 1011              		.loc 1 388 0
 1012 0044 7020     		movs	r0, #112
 1013 0046 6021     		movs	r1, #96
 1014 0048 0A46     		mov	r2, r1
ARM GAS  C:\Users\HENRYA~1\AppData\Local\Temp\cc1a9QKv.s 			page 27


 1015 004a FFF7FEFF 		bl	mcp2515_modifyRegister
 1016              	.LVL122:
 389:.\main.c      ****             MCP_RXB_RX_ANY);
 390:.\main.c      ****             break;
 1017              		.loc 1 390 0
 1018 004e 09E0     		b	.L79
 1019              	.L77:
 391:.\main.c      ****             case (MCP_STDEXT): 
 392:.\main.c      ****             mcp2515_modifyRegister(MCP_RXB0CTRL,
 1020              		.loc 1 392 0
 1021 0050 6020     		movs	r0, #96
 1022 0052 6421     		movs	r1, #100
 1023 0054 0422     		movs	r2, #4
 1024 0056 FFF7FEFF 		bl	mcp2515_modifyRegister
 1025              	.LVL123:
 393:.\main.c      ****             MCP_RXB_RX_MASK | MCP_RXB_BUKT_MASK,
 394:.\main.c      ****             MCP_RXB_RX_STDEXT | MCP_RXB_BUKT_MASK );
 395:.\main.c      ****             mcp2515_modifyRegister(MCP_RXB1CTRL, MCP_RXB_RX_MASK,
 1026              		.loc 1 395 0
 1027 005a 7020     		movs	r0, #112
 1028 005c 6021     		movs	r1, #96
 1029 005e 0022     		movs	r2, #0
 1030 0060 FFF7FEFF 		bl	mcp2515_modifyRegister
 1031              	.LVL124:
 1032              	.L79:
 396:.\main.c      ****             MCP_RXB_RX_STDEXT);
 397:.\main.c      ****             break;
 398:.\main.c      ****             default:         
 399:.\main.c      ****             return MCP2515_FAIL;
 400:.\main.c      ****             break;
 401:.\main.c      **** }    
 402:.\main.c      ****         res = mcp2515_setCANCTRL_Mode(mcpMode);                                                    
 1033              		.loc 1 402 0
 1034 0064 074B     		ldr	r3, .L86
 1035 0066 1878     		ldrb	r0, [r3]	@ zero_extendqisi2
 1036 0068 FFF7FEFF 		bl	mcp2515_setCANCTRL_Mode
 1037              	.LVL125:
 1038 006c C4B2     		uxtb	r4, r0
 1039              	.LVL126:
 403:.\main.c      ****         if(res){return res;}
 1040              		.loc 1 403 0
 1041 006e 3CB9     		cbnz	r4, .L83
 1042              	.L76:
 404:.\main.c      ****     }
 405:.\main.c      ****     return res;
 1043              		.loc 1 405 0
 1044 0070 2046     		mov	r0, r4
 1045 0072 F8BD     		pop	{r3, r4, r5, r6, r7, pc}
 1046              	.LVL127:
 1047              	.L80:
 376:.\main.c      ****     // Set Baudrate
 1048              		.loc 1 376 0
 1049 0074 2046     		mov	r0, r4
 1050 0076 F8BD     		pop	{r3, r4, r5, r6, r7, pc}
 1051              	.LVL128:
 1052              	.L81:
 378:.\main.c      ****     if ( res == MCP2515_OK ) {                                                       /* init canbuf
ARM GAS  C:\Users\HENRYA~1\AppData\Local\Temp\cc1a9QKv.s 			page 28


 1053              		.loc 1 378 0
 1054 0078 2046     		mov	r0, r4
 1055 007a F8BD     		pop	{r3, r4, r5, r6, r7, pc}
 1056              	.LVL129:
 1057              	.L84:
 399:.\main.c      ****             break;
 1058              		.loc 1 399 0
 1059 007c 0120     		movs	r0, #1
 1060 007e F8BD     		pop	{r3, r4, r5, r6, r7, pc}
 1061              	.LVL130:
 1062              	.L83:
 403:.\main.c      ****     }
 1063              		.loc 1 403 0
 1064 0080 2046     		mov	r0, r4
 406:.\main.c      **** }
 1065              		.loc 1 406 0
 1066 0082 F8BD     		pop	{r3, r4, r5, r6, r7, pc}
 1067              	.LVL131:
 1068              	.L87:
 1069              		.align	2
 1070              	.L86:
 1071 0084 00000000 		.word	mcpMode
 1072              		.cfi_endproc
 1073              	.LFE72:
 1074              		.size	mcp2515_init, .-mcp2515_init
 1075              		.section	.text.begin,"ax",%progbits
 1076              		.align	2
 1077              		.global	begin
 1078              		.thumb
 1079              		.thumb_func
 1080              		.type	begin, %function
 1081              	begin:
 1082              	.LFB73:
 407:.\main.c      **** 
 408:.\main.c      **** uint8 begin(uint8 idmodeset, uint8 speedset, uint8 clockset){
 1083              		.loc 1 408 0
 1084              		.cfi_startproc
 1085              		@ args = 0, pretend = 0, frame = 0
 1086              		@ frame_needed = 0, uses_anonymous_args = 0
 1087              	.LVL132:
 1088 0000 08B5     		push	{r3, lr}
 1089              		.cfi_def_cfa_offset 8
 1090              		.cfi_offset 3, -8
 1091              		.cfi_offset 14, -4
 409:.\main.c      ****     uint8 res;
 410:.\main.c      ****     res = mcp2515_init(idmodeset, speedset, clockset);
 1092              		.loc 1 410 0
 1093 0002 FFF7FEFF 		bl	mcp2515_init
 1094              	.LVL133:
 411:.\main.c      ****     if (res == MCP2515_OK){return CAN_OK;}
 1095              		.loc 1 411 0
 1096 0006 00B1     		cbz	r0, .L89
 412:.\main.c      ****     return CAN_FAILINIT;
 1097              		.loc 1 412 0
 1098 0008 0120     		movs	r0, #1
 1099              	.LVL134:
 1100              	.L89:
ARM GAS  C:\Users\HENRYA~1\AppData\Local\Temp\cc1a9QKv.s 			page 29


 413:.\main.c      **** }
 1101              		.loc 1 413 0
 1102 000a 08BD     		pop	{r3, pc}
 1103              		.cfi_endproc
 1104              	.LFE73:
 1105              		.size	begin, .-begin
 1106              		.section	.text.main,"ax",%progbits
 1107              		.align	2
 1108              		.global	main
 1109              		.thumb
 1110              		.thumb_func
 1111              		.type	main, %function
 1112              	main:
 1113              	.LFB74:
 414:.\main.c      **** 
 415:.\main.c      **** int main(){
 1114              		.loc 1 415 0
 1115              		.cfi_startproc
 1116              		@ Volatile: function does not return.
 1117              		@ args = 0, pretend = 0, frame = 0
 1118              		@ frame_needed = 0, uses_anonymous_args = 0
 1119 0000 08B5     		push	{r3, lr}
 1120              		.cfi_def_cfa_offset 8
 1121              		.cfi_offset 3, -8
 1122              		.cfi_offset 14, -4
 416:.\main.c      ****     CyGlobalIntEnable; /* Enable global interrupts. */
 1123              		.loc 1 416 0
 1124              	@ 416 ".\main.c" 1
 1125 0002 62B6     		CPSIE   i
 1126              	@ 0 "" 2
 417:.\main.c      ****     SPIM_1_Start();
 1127              		.loc 1 417 0
 1128              		.thumb
 1129 0004 FFF7FEFF 		bl	SPIM_1_Start
 1130              	.LVL135:
 418:.\main.c      ****     LCD_Char_1_Start();
 1131              		.loc 1 418 0
 1132 0008 FFF7FEFF 		bl	LCD_Char_1_Start
 1133              	.LVL136:
 419:.\main.c      ****     LCD_Char_1_Position(0,0);
 1134              		.loc 1 419 0
 1135 000c 0020     		movs	r0, #0
 1136 000e 0146     		mov	r1, r0
 1137 0010 FFF7FEFF 		bl	LCD_Char_1_Position
 1138              	.LVL137:
 420:.\main.c      ****     /* Place your initialization/startup code here (e.g. MyInst_Start()) */
 421:.\main.c      ****     if(begin(MCP_ANY, CAN_500KBPS, MCP_8MHZ) == CAN_OK){
 1139              		.loc 1 421 0
 1140 0014 0320     		movs	r0, #3
 1141 0016 0C21     		movs	r1, #12
 1142 0018 0222     		movs	r2, #2
 1143 001a FFF7FEFF 		bl	begin
 1144              	.LVL138:
 1145 001e 18B9     		cbnz	r0, .L93
 422:.\main.c      ****         LCD_Char_1_PrintString("OK");
 1146              		.loc 1 422 0
 1147 0020 1248     		ldr	r0, .L97
ARM GAS  C:\Users\HENRYA~1\AppData\Local\Temp\cc1a9QKv.s 			page 30


 1148 0022 FFF7FEFF 		bl	LCD_Char_1_PrintString
 1149              	.LVL139:
 1150 0026 02E0     		b	.L95
 1151              	.L93:
 423:.\main.c      ****         }
 424:.\main.c      ****     else {LCD_Char_1_PrintString("ERROR");}
 1152              		.loc 1 424 0
 1153 0028 1148     		ldr	r0, .L97+4
 1154 002a FFF7FEFF 		bl	LCD_Char_1_PrintString
 1155              	.LVL140:
 1156              	.L95:
 425:.\main.c      ****     for(;;)
 426:.\main.c      ****     {
 427:.\main.c      ****         SPIM_1_WriteTxData(dato_TX);
 1157              		.loc 1 427 0 discriminator 1
 1158 002e 114C     		ldr	r4, .L97+8
 1159 0030 2078     		ldrb	r0, [r4]	@ zero_extendqisi2
 1160 0032 FFF7FEFF 		bl	SPIM_1_WriteTxData
 1161              	.LVL141:
 428:.\main.c      ****         dato_RX=SPIM_1_ReadRxData();
 1162              		.loc 1 428 0 discriminator 1
 1163 0036 FFF7FEFF 		bl	SPIM_1_ReadRxData
 1164              	.LVL142:
 1165 003a 0F4D     		ldr	r5, .L97+12
 1166 003c 2870     		strb	r0, [r5]
 429:.\main.c      ****         dato_TX++;
 1167              		.loc 1 429 0 discriminator 1
 1168 003e 2378     		ldrb	r3, [r4]	@ zero_extendqisi2
 1169 0040 0133     		adds	r3, r3, #1
 1170 0042 2370     		strb	r3, [r4]
 430:.\main.c      ****         LCD_Char_1_Position(1,0);
 1171              		.loc 1 430 0 discriminator 1
 1172 0044 0120     		movs	r0, #1
 1173 0046 0021     		movs	r1, #0
 1174 0048 FFF7FEFF 		bl	LCD_Char_1_Position
 1175              	.LVL143:
 431:.\main.c      ****         LCD_Char_1_PrintInt8(dato_RX);
 1176              		.loc 1 431 0 discriminator 1
 1177 004c 2878     		ldrb	r0, [r5]	@ zero_extendqisi2
 1178 004e FFF7FEFF 		bl	LCD_Char_1_PrintInt8
 1179              	.LVL144:
 432:.\main.c      ****         LCD_Char_1_Position(1,8);
 1180              		.loc 1 432 0 discriminator 1
 1181 0052 0120     		movs	r0, #1
 1182 0054 0821     		movs	r1, #8
 1183 0056 FFF7FEFF 		bl	LCD_Char_1_Position
 1184              	.LVL145:
 433:.\main.c      ****         LCD_Char_1_PrintInt8(dato_TX);
 1185              		.loc 1 433 0 discriminator 1
 1186 005a 2078     		ldrb	r0, [r4]	@ zero_extendqisi2
 1187 005c FFF7FEFF 		bl	LCD_Char_1_PrintInt8
 1188              	.LVL146:
 434:.\main.c      ****         CyDelay(1000);
 1189              		.loc 1 434 0 discriminator 1
 1190 0060 4FF47A70 		mov	r0, #1000
 1191 0064 FFF7FEFF 		bl	CyDelay
 1192              	.LVL147:
ARM GAS  C:\Users\HENRYA~1\AppData\Local\Temp\cc1a9QKv.s 			page 31


 435:.\main.c      ****     }
 1193              		.loc 1 435 0 discriminator 1
 1194 0068 E1E7     		b	.L95
 1195              	.L98:
 1196 006a 00BF     		.align	2
 1197              	.L97:
 1198 006c 00000000 		.word	.LC0
 1199 0070 04000000 		.word	.LC1
 1200 0074 00000000 		.word	dato_TX
 1201 0078 00000000 		.word	dato_RX
 1202              		.cfi_endproc
 1203              	.LFE74:
 1204              		.size	main, .-main
 1205              		.comm	mcpMode,1,1
 1206              		.comm	MCPCS,1,1
 1207              		.comm	m_nfilhit,1,1
 1208              		.comm	m_nRtr,1,1
 1209              		.comm	m_nDta,8,4
 1210              		.comm	m_nDlc,1,1
 1211              		.comm	m_nID,4,4
 1212              		.comm	m_nExtFlg,1,1
 1213              		.comm	dato_RX,1,1
 1214              		.comm	dato_TX,1,1
 1215              		.section	.rodata.str1.4,"aMS",%progbits,1
 1216              		.align	2
 1217              	.LC0:
 1218 0000 4F4B00   		.ascii	"OK\000"
 1219 0003 00       		.space	1
 1220              	.LC1:
 1221 0004 4552524F 		.ascii	"ERROR\000"
 1221      5200
 1222 000a 0000     		.text
 1223              	.Letext0:
 1224              		.file 2 "c:\\program files (x86)\\cypress\\psoc creator\\3.3\\psoc creator\\import\\gnu\\arm\\4.9.
 1225              		.file 3 "c:\\program files (x86)\\cypress\\psoc creator\\3.3\\psoc creator\\import\\gnu\\arm\\4.9.
 1226              		.file 4 "Generated_Source\\PSoC5/cytypes.h"
 1227              		.file 5 "Generated_Source\\PSoC5/core_cm3.h"
 1228              		.file 6 "Generated_Source\\PSoC5/SPIM_1.h"
 1229              		.file 7 "Generated_Source\\PSoC5/CyLib.h"
 1230              		.file 8 "Generated_Source\\PSoC5/LCD_Char_1.h"