ARM GAS  C:\Users\HENRYA~1\AppData\Local\Temp\ccESoHnw.s 			page 1


   1              		.syntax unified
   2              		.cpu cortex-m0
   3              		.fpu softvfp
   4              		.eabi_attribute 20, 1
   5              		.eabi_attribute 21, 1
   6              		.eabi_attribute 23, 3
   7              		.eabi_attribute 24, 1
   8              		.eabi_attribute 25, 1
   9              		.eabi_attribute 26, 1
  10              		.eabi_attribute 30, 1
  11              		.eabi_attribute 34, 0
  12              		.eabi_attribute 18, 4
  13              		.thumb
  14              		.syntax unified
  15              		.file	"main.c"
  16              		.text
  17              	.Ltext0:
  18              		.cfi_sections	.debug_frame
  19              		.section	.text.writeVCNL,"ax",%progbits
  20              		.align	2
  21              		.global	writeVCNL
  22              		.code	16
  23              		.thumb_func
  24              		.type	writeVCNL, %function
  25              	writeVCNL:
  26              	.LFB36:
  27              		.file 1 "main.c"
   1:main.c        **** #include <project.h>
   2:main.c        **** #define VCNL4010_ADDRESS 0x13
   3:main.c        **** int i=0;
   4:main.c        **** int16 P=0;
   5:main.c        **** //Send Data
   6:main.c        **** void writeVCNL(int address, int data){
  28              		.loc 1 6 0
  29              		.cfi_startproc
  30              		@ args = 0, pretend = 0, frame = 8
  31              		@ frame_needed = 0, uses_anonymous_args = 0
  32              	.LVL0:
  33 0000 10B5     		push	{r4, lr}
  34              		.cfi_def_cfa_offset 8
  35              		.cfi_offset 4, -8
  36              		.cfi_offset 14, -4
  37 0002 82B0     		sub	sp, sp, #8
  38              		.cfi_def_cfa_offset 16
   7:main.c        ****     uint8 Write_buf[2]={0};
  39              		.loc 1 7 0
  40 0004 01AC     		add	r4, sp, #4
   8:main.c        ****     Write_buf[0]=address;
  41              		.loc 1 8 0
  42 0006 2070     		strb	r0, [r4]
   9:main.c        ****     Write_buf[1]=data;
  43              		.loc 1 9 0
  44 0008 6170     		strb	r1, [r4, #1]
  10:main.c        ****     I2C_1_I2CMasterWriteBuf(VCNL4010_ADDRESS,(uint8 *)Write_buf,2,I2C_1_I2C_MODE_COMPLETE_XFER);
  45              		.loc 1 10 0
  46 000a 0023     		movs	r3, #0
  47 000c 0222     		movs	r2, #2
ARM GAS  C:\Users\HENRYA~1\AppData\Local\Temp\ccESoHnw.s 			page 2


  48 000e 2100     		movs	r1, r4
  49              	.LVL1:
  50 0010 1320     		movs	r0, #19
  51              	.LVL2:
  52 0012 FFF7FEFF 		bl	I2C_1_I2CMasterWriteBuf
  53              	.LVL3:
  54              	.L2:
  11:main.c        ****     while((I2C_1_I2CMasterStatus()&I2C_1_I2C_MSTAT_WR_CMPLT)==0){}
  55              		.loc 1 11 0 discriminator 1
  56 0016 FFF7FEFF 		bl	I2C_1_I2CMasterStatus
  57              	.LVL4:
  58 001a 8307     		lsls	r3, r0, #30
  59 001c FBD5     		bpl	.L2
  12:main.c        ****     return;
  13:main.c        **** }
  60              		.loc 1 13 0
  61 001e 02B0     		add	sp, sp, #8
  62              		@ sp needed
  63 0020 10BD     		pop	{r4, pc}
  64              		.cfi_endproc
  65              	.LFE36:
  66              		.size	writeVCNL, .-writeVCNL
  67 0022 C046     		.section	.text.readVCNL,"ax",%progbits
  68              		.align	2
  69              		.global	readVCNL
  70              		.code	16
  71              		.thumb_func
  72              		.type	readVCNL, %function
  73              	readVCNL:
  74              	.LFB37:
  14:main.c        **** //Read Data
  15:main.c        **** int readVCNL(int address){
  75              		.loc 1 15 0
  76              		.cfi_startproc
  77              		@ args = 0, pretend = 0, frame = 8
  78              		@ frame_needed = 0, uses_anonymous_args = 0
  79              	.LVL5:
  80 0000 00B5     		push	{lr}
  81              		.cfi_def_cfa_offset 4
  82              		.cfi_offset 14, -4
  83 0002 83B0     		sub	sp, sp, #12
  84              		.cfi_def_cfa_offset 16
  16:main.c        ****     uint8 Write_buf[1]={0};
  85              		.loc 1 16 0
  86 0004 01A9     		add	r1, sp, #4
  17:main.c        ****     Write_buf[0]=address;
  87              		.loc 1 17 0
  88 0006 0870     		strb	r0, [r1]
  18:main.c        ****     uint8 read_Buf[1]={0};
  89              		.loc 1 18 0
  90 0008 0023     		movs	r3, #0
  91 000a 6A46     		mov	r2, sp
  92 000c 1370     		strb	r3, [r2]
  19:main.c        ****     I2C_1_I2CMasterWriteBuf(VCNL4010_ADDRESS,(uint8 *)Write_buf,1,I2C_1_I2C_MODE_NO_STOP);
  93              		.loc 1 19 0
  94 000e 0233     		adds	r3, r3, #2
  95 0010 0122     		movs	r2, #1
ARM GAS  C:\Users\HENRYA~1\AppData\Local\Temp\ccESoHnw.s 			page 3


  96 0012 1320     		movs	r0, #19
  97              	.LVL6:
  98 0014 FFF7FEFF 		bl	I2C_1_I2CMasterWriteBuf
  99              	.LVL7:
 100              	.L4:
  20:main.c        ****     while((I2C_1_I2CMasterStatus()&I2C_1_I2C_MSTAT_WR_CMPLT)==0){}
 101              		.loc 1 20 0 discriminator 1
 102 0018 FFF7FEFF 		bl	I2C_1_I2CMasterStatus
 103              	.LVL8:
 104 001c 8307     		lsls	r3, r0, #30
 105 001e FBD5     		bpl	.L4
  21:main.c        ****     I2C_1_I2CMasterReadBuf(VCNL4010_ADDRESS,(uint8 *)read_Buf,1,I2C_1_I2C_MODE_REPEAT_START);
 106              		.loc 1 21 0
 107 0020 0123     		movs	r3, #1
 108 0022 0122     		movs	r2, #1
 109 0024 6946     		mov	r1, sp
 110 0026 1320     		movs	r0, #19
 111 0028 FFF7FEFF 		bl	I2C_1_I2CMasterReadBuf
 112              	.LVL9:
 113              	.L5:
  22:main.c        ****     while((I2C_1_I2CMasterStatus()&I2C_1_I2C_MSTAT_RD_CMPLT)==0){}
 114              		.loc 1 22 0 discriminator 1
 115 002c FFF7FEFF 		bl	I2C_1_I2CMasterStatus
 116              	.LVL10:
 117 0030 C307     		lsls	r3, r0, #31
 118 0032 FBD5     		bpl	.L5
  23:main.c        ****     return read_Buf[0];
 119              		.loc 1 23 0
 120 0034 6B46     		mov	r3, sp
 121 0036 1878     		ldrb	r0, [r3]
  24:main.c        **** }
 122              		.loc 1 24 0
 123 0038 03B0     		add	sp, sp, #12
 124              		@ sp needed
 125 003a 00BD     		pop	{pc}
 126              		.cfi_endproc
 127              	.LFE37:
 128              		.size	readVCNL, .-readVCNL
 129              		.section	.text.initVCNL,"ax",%progbits
 130              		.align	2
 131              		.global	initVCNL
 132              		.code	16
 133              		.thumb_func
 134              		.type	initVCNL, %function
 135              	initVCNL:
 136              	.LFB38:
  25:main.c        **** //Init Sensor
  26:main.c        **** void initVCNL(){
 137              		.loc 1 26 0
 138              		.cfi_startproc
 139              		@ args = 0, pretend = 0, frame = 0
 140              		@ frame_needed = 0, uses_anonymous_args = 0
 141 0000 10B5     		push	{r4, lr}
 142              		.cfi_def_cfa_offset 8
 143              		.cfi_offset 4, -8
 144              		.cfi_offset 14, -4
  27:main.c        ****   int temp = readVCNL(0x81);
ARM GAS  C:\Users\HENRYA~1\AppData\Local\Temp\ccESoHnw.s 			page 4


 145              		.loc 1 27 0
 146 0002 8120     		movs	r0, #129
 147 0004 FFF7FEFF 		bl	readVCNL
 148              	.LVL11:
  28:main.c        ****   if (temp != 0x21){  
 149              		.loc 1 28 0
 150 0008 2128     		cmp	r0, #33
 151 000a 1ED0     		beq	.L7
  29:main.c        ****     //Led Sequence Fail
  30:main.c        ****     LED_1_Write(1);
 152              		.loc 1 30 0
 153 000c 0120     		movs	r0, #1
 154              	.LVL12:
 155 000e FFF7FEFF 		bl	LED_1_Write
 156              	.LVL13:
  31:main.c        ****     LED_2_Write(1);
 157              		.loc 1 31 0
 158 0012 0120     		movs	r0, #1
 159 0014 FFF7FEFF 		bl	LED_2_Write
 160              	.LVL14:
  32:main.c        ****     LED_3_Write(1);
 161              		.loc 1 32 0
 162 0018 0120     		movs	r0, #1
 163 001a FFF7FEFF 		bl	LED_3_Write
 164              	.LVL15:
  33:main.c        ****     LED_4_Write(1);
 165              		.loc 1 33 0
 166 001e 0120     		movs	r0, #1
 167 0020 FFF7FEFF 		bl	LED_4_Write
 168              	.LVL16:
  34:main.c        ****     CyDelay(200);
 169              		.loc 1 34 0
 170 0024 C820     		movs	r0, #200
 171 0026 FFF7FEFF 		bl	CyDelay
 172              	.LVL17:
  35:main.c        ****     LED_1_Write(0);
 173              		.loc 1 35 0
 174 002a 0020     		movs	r0, #0
 175 002c FFF7FEFF 		bl	LED_1_Write
 176              	.LVL18:
  36:main.c        ****     LED_2_Write(0);
 177              		.loc 1 36 0
 178 0030 0020     		movs	r0, #0
 179 0032 FFF7FEFF 		bl	LED_2_Write
 180              	.LVL19:
  37:main.c        ****     LED_3_Write(0);
 181              		.loc 1 37 0
 182 0036 0020     		movs	r0, #0
 183 0038 FFF7FEFF 		bl	LED_3_Write
 184              	.LVL20:
  38:main.c        ****     LED_4_Write(0);
 185              		.loc 1 38 0
 186 003c 0020     		movs	r0, #0
 187 003e FFF7FEFF 		bl	LED_4_Write
 188              	.LVL21:
  39:main.c        ****     CyDelay(200);    
 189              		.loc 1 39 0
ARM GAS  C:\Users\HENRYA~1\AppData\Local\Temp\ccESoHnw.s 			page 5


 190 0042 C820     		movs	r0, #200
 191 0044 FFF7FEFF 		bl	CyDelay
 192              	.LVL22:
 193 0048 41E0     		b	.L8
 194              	.LVL23:
 195              	.L7:
  40:main.c        ****   }
  41:main.c        ****    else{
  42:main.c        ****     //Led Sequence Sucess
  43:main.c        ****     LED_1_Write(0);
 196              		.loc 1 43 0
 197 004a 0020     		movs	r0, #0
 198              	.LVL24:
 199 004c FFF7FEFF 		bl	LED_1_Write
 200              	.LVL25:
  44:main.c        ****     LED_2_Write(0);
 201              		.loc 1 44 0
 202 0050 0020     		movs	r0, #0
 203 0052 FFF7FEFF 		bl	LED_2_Write
 204              	.LVL26:
  45:main.c        ****     LED_3_Write(0);
 205              		.loc 1 45 0
 206 0056 0020     		movs	r0, #0
 207 0058 FFF7FEFF 		bl	LED_3_Write
 208              	.LVL27:
  46:main.c        ****     LED_4_Write(0);
 209              		.loc 1 46 0
 210 005c 0020     		movs	r0, #0
 211 005e FFF7FEFF 		bl	LED_4_Write
 212              	.LVL28:
  47:main.c        ****     for(i=1;i<5;i++){
 213              		.loc 1 47 0
 214 0062 0122     		movs	r2, #1
 215 0064 224B     		ldr	r3, .L11
 216 0066 1A60     		str	r2, [r3]
 217 0068 21E0     		b	.L9
 218              	.L10:
  48:main.c        ****         LED_1_Write(1);
 219              		.loc 1 48 0 discriminator 3
 220 006a 0120     		movs	r0, #1
 221 006c FFF7FEFF 		bl	LED_1_Write
 222              	.LVL29:
  49:main.c        ****         LED_2_Write(1);
 223              		.loc 1 49 0 discriminator 3
 224 0070 0120     		movs	r0, #1
 225 0072 FFF7FEFF 		bl	LED_2_Write
 226              	.LVL30:
  50:main.c        ****         LED_3_Write(0);
 227              		.loc 1 50 0 discriminator 3
 228 0076 0020     		movs	r0, #0
 229 0078 FFF7FEFF 		bl	LED_3_Write
 230              	.LVL31:
  51:main.c        ****         LED_4_Write(0);
 231              		.loc 1 51 0 discriminator 3
 232 007c 0020     		movs	r0, #0
 233 007e FFF7FEFF 		bl	LED_4_Write
 234              	.LVL32:
ARM GAS  C:\Users\HENRYA~1\AppData\Local\Temp\ccESoHnw.s 			page 6


  52:main.c        ****         CyDelay(200);
 235              		.loc 1 52 0 discriminator 3
 236 0082 C820     		movs	r0, #200
 237 0084 FFF7FEFF 		bl	CyDelay
 238              	.LVL33:
  53:main.c        ****         LED_1_Write(0);
 239              		.loc 1 53 0 discriminator 3
 240 0088 0020     		movs	r0, #0
 241 008a FFF7FEFF 		bl	LED_1_Write
 242              	.LVL34:
  54:main.c        ****         LED_2_Write(0);
 243              		.loc 1 54 0 discriminator 3
 244 008e 0020     		movs	r0, #0
 245 0090 FFF7FEFF 		bl	LED_2_Write
 246              	.LVL35:
  55:main.c        ****         LED_3_Write(1);
 247              		.loc 1 55 0 discriminator 3
 248 0094 0120     		movs	r0, #1
 249 0096 FFF7FEFF 		bl	LED_3_Write
 250              	.LVL36:
  56:main.c        ****         LED_4_Write(1);
 251              		.loc 1 56 0 discriminator 3
 252 009a 0120     		movs	r0, #1
 253 009c FFF7FEFF 		bl	LED_4_Write
 254              	.LVL37:
  57:main.c        ****         CyDelay(200); 
 255              		.loc 1 57 0 discriminator 3
 256 00a0 C820     		movs	r0, #200
 257 00a2 FFF7FEFF 		bl	CyDelay
 258              	.LVL38:
  47:main.c        ****         LED_1_Write(1);
 259              		.loc 1 47 0 discriminator 3
 260 00a6 124A     		ldr	r2, .L11
 261 00a8 1368     		ldr	r3, [r2]
 262 00aa 0133     		adds	r3, r3, #1
 263 00ac 1360     		str	r3, [r2]
 264              	.L9:
  47:main.c        ****         LED_1_Write(1);
 265              		.loc 1 47 0 is_stmt 0 discriminator 1
 266 00ae 104B     		ldr	r3, .L11
 267 00b0 1B68     		ldr	r3, [r3]
 268 00b2 042B     		cmp	r3, #4
 269 00b4 D9DD     		ble	.L10
  58:main.c        ****         }
  59:main.c        ****     LED_1_Write(0);
 270              		.loc 1 59 0 is_stmt 1
 271 00b6 0020     		movs	r0, #0
 272 00b8 FFF7FEFF 		bl	LED_1_Write
 273              	.LVL39:
  60:main.c        ****     LED_2_Write(0);
 274              		.loc 1 60 0
 275 00bc 0020     		movs	r0, #0
 276 00be FFF7FEFF 		bl	LED_2_Write
 277              	.LVL40:
  61:main.c        ****     LED_3_Write(0);
 278              		.loc 1 61 0
 279 00c2 0020     		movs	r0, #0
ARM GAS  C:\Users\HENRYA~1\AppData\Local\Temp\ccESoHnw.s 			page 7


 280 00c4 FFF7FEFF 		bl	LED_3_Write
 281              	.LVL41:
  62:main.c        ****     LED_4_Write(0);
 282              		.loc 1 62 0
 283 00c8 0020     		movs	r0, #0
 284 00ca FFF7FEFF 		bl	LED_4_Write
 285              	.LVL42:
 286              	.L8:
  63:main.c        ****   } 
  64:main.c        ****   //VCNL Init Params
  65:main.c        ****   writeVCNL(0x84, 0x0F); // Configures ambient light measures - Single conversion mode, 128 average
 287              		.loc 1 65 0
 288 00ce 0F21     		movs	r1, #15
 289 00d0 8420     		movs	r0, #132
 290 00d2 FFF7FEFF 		bl	writeVCNL
 291              	.LVL43:
  66:main.c        ****   writeVCNL(0x83, 0x32);   // sets IR current in steps of 10mA 0-200mA --> 200mA
 292              		.loc 1 66 0
 293 00d6 3221     		movs	r1, #50
 294 00d8 8320     		movs	r0, #131
 295 00da FFF7FEFF 		bl	writeVCNL
 296              	.LVL44:
  67:main.c        ****   writeVCNL(0x89, 0);    // Proximity IR test signal freq, 0-3 - 781.25 kHz
 297              		.loc 1 67 0
 298 00de 0021     		movs	r1, #0
 299 00e0 8920     		movs	r0, #137
 300 00e2 FFF7FEFF 		bl	writeVCNL
 301              	.LVL45:
  68:main.c        ****   writeVCNL(0x8A, 0x81); // proximity modulator timing - 129, recommended by Vishay 
 302              		.loc 1 68 0
 303 00e6 8121     		movs	r1, #129
 304 00e8 8A20     		movs	r0, #138
 305 00ea FFF7FEFF 		bl	writeVCNL
 306              	.LVL46:
  69:main.c        **** }
 307              		.loc 1 69 0
 308              		@ sp needed
 309 00ee 10BD     		pop	{r4, pc}
 310              	.L12:
 311              		.align	2
 312              	.L11:
 313 00f0 00000000 		.word	.LANCHOR0
 314              		.cfi_endproc
 315              	.LFE38:
 316              		.size	initVCNL, .-initVCNL
 317              		.section	.text.readProximity,"ax",%progbits
 318              		.align	2
 319              		.global	readProximity
 320              		.code	16
 321              		.thumb_func
 322              		.type	readProximity, %function
 323              	readProximity:
 324              	.LFB39:
  70:main.c        **** //Read Distance Signal
  71:main.c        **** unsigned int readProximity(){
 325              		.loc 1 71 0
 326              		.cfi_startproc
ARM GAS  C:\Users\HENRYA~1\AppData\Local\Temp\ccESoHnw.s 			page 8


 327              		@ args = 0, pretend = 0, frame = 0
 328              		@ frame_needed = 0, uses_anonymous_args = 0
 329 0000 10B5     		push	{r4, lr}
 330              		.cfi_def_cfa_offset 8
 331              		.cfi_offset 4, -8
 332              		.cfi_offset 14, -4
  72:main.c        ****   int temp = readVCNL(0x80);
 333              		.loc 1 72 0
 334 0002 8020     		movs	r0, #128
 335 0004 FFF7FEFF 		bl	readVCNL
 336              	.LVL47:
  73:main.c        ****   writeVCNL(0x80, temp | 0x08);             // command the sensor to perform a proximity measure
 337              		.loc 1 73 0
 338 0008 0823     		movs	r3, #8
 339 000a 0100     		movs	r1, r0
 340 000c 1943     		orrs	r1, r3
 341 000e 8020     		movs	r0, #128
 342              	.LVL48:
 343 0010 FFF7FEFF 		bl	writeVCNL
 344              	.LVL49:
 345              	.L14:
  74:main.c        ****   while(!(readVCNL(0x80)&0x20));            // Wait for the proximity data ready bit to be set
 346              		.loc 1 74 0 discriminator 1
 347 0014 8020     		movs	r0, #128
 348 0016 FFF7FEFF 		bl	readVCNL
 349              	.LVL50:
 350 001a 8306     		lsls	r3, r0, #26
 351 001c FAD5     		bpl	.L14
  75:main.c        ****   unsigned int data = readVCNL(0x87) << 8;
 352              		.loc 1 75 0
 353 001e 8720     		movs	r0, #135
 354 0020 FFF7FEFF 		bl	readVCNL
 355              	.LVL51:
 356 0024 0402     		lsls	r4, r0, #8
 357              	.LVL52:
  76:main.c        ****   data |= readVCNL(0x88);
 358              		.loc 1 76 0
 359 0026 8820     		movs	r0, #136
 360 0028 FFF7FEFF 		bl	readVCNL
 361              	.LVL53:
 362 002c 2043     		orrs	r0, r4
 363              	.LVL54:
  77:main.c        ****   return data;
  78:main.c        **** }
 364              		.loc 1 78 0
 365              		@ sp needed
 366 002e 10BD     		pop	{r4, pc}
 367              		.cfi_endproc
 368              	.LFE39:
 369              		.size	readProximity, .-readProximity
 370              		.section	.text.readAmbient,"ax",%progbits
 371              		.align	2
 372              		.global	readAmbient
 373              		.code	16
 374              		.thumb_func
 375              		.type	readAmbient, %function
 376              	readAmbient:
ARM GAS  C:\Users\HENRYA~1\AppData\Local\Temp\ccESoHnw.s 			page 9


 377              	.LFB40:
  79:main.c        **** //Read Ambient Signal
  80:main.c        **** unsigned int readAmbient(){
 378              		.loc 1 80 0
 379              		.cfi_startproc
 380              		@ args = 0, pretend = 0, frame = 0
 381              		@ frame_needed = 0, uses_anonymous_args = 0
 382 0000 10B5     		push	{r4, lr}
 383              		.cfi_def_cfa_offset 8
 384              		.cfi_offset 4, -8
 385              		.cfi_offset 14, -4
  81:main.c        ****   int temp = readVCNL(0x80);
 386              		.loc 1 81 0
 387 0002 8020     		movs	r0, #128
 388 0004 FFF7FEFF 		bl	readVCNL
 389              	.LVL55:
  82:main.c        ****   writeVCNL(0x80, temp | 0x10);             // command the sensor to perform ambient measure
 390              		.loc 1 82 0
 391 0008 1023     		movs	r3, #16
 392 000a 0100     		movs	r1, r0
 393 000c 1943     		orrs	r1, r3
 394 000e 8020     		movs	r0, #128
 395              	.LVL56:
 396 0010 FFF7FEFF 		bl	writeVCNL
 397              	.LVL57:
 398              	.L16:
  83:main.c        ****   while(!(readVCNL(0x80)&0x40));            // wait for the proximity data ready bit to be set
 399              		.loc 1 83 0 discriminator 1
 400 0014 8020     		movs	r0, #128
 401 0016 FFF7FEFF 		bl	readVCNL
 402              	.LVL58:
 403 001a 4306     		lsls	r3, r0, #25
 404 001c FAD5     		bpl	.L16
  84:main.c        ****   unsigned int data = readVCNL(0x85) << 8;  
 405              		.loc 1 84 0
 406 001e 8520     		movs	r0, #133
 407 0020 FFF7FEFF 		bl	readVCNL
 408              	.LVL59:
 409 0024 0402     		lsls	r4, r0, #8
 410              	.LVL60:
  85:main.c        ****   data |= readVCNL(0x86);
 411              		.loc 1 85 0
 412 0026 8620     		movs	r0, #134
 413 0028 FFF7FEFF 		bl	readVCNL
 414              	.LVL61:
 415 002c 2043     		orrs	r0, r4
 416              	.LVL62:
  86:main.c        ****   return data;
  87:main.c        **** }
 417              		.loc 1 87 0
 418              		@ sp needed
 419 002e 10BD     		pop	{r4, pc}
 420              		.cfi_endproc
 421              	.LFE40:
 422              		.size	readAmbient, .-readAmbient
 423              		.section	.text.main,"ax",%progbits
 424              		.align	2
ARM GAS  C:\Users\HENRYA~1\AppData\Local\Temp\ccESoHnw.s 			page 10


 425              		.global	main
 426              		.code	16
 427              		.thumb_func
 428              		.type	main, %function
 429              	main:
 430              	.LFB41:
  88:main.c        **** 
  89:main.c        **** 
  90:main.c        **** int main()
  91:main.c        **** {
 431              		.loc 1 91 0
 432              		.cfi_startproc
 433              		@ Volatile: function does not return.
 434              		@ args = 0, pretend = 0, frame = 0
 435              		@ frame_needed = 0, uses_anonymous_args = 0
 436 0000 10B5     		push	{r4, lr}
 437              		.cfi_def_cfa_offset 8
 438              		.cfi_offset 4, -8
 439              		.cfi_offset 14, -4
  92:main.c        ****     CyGlobalIntEnable; 
 440              		.loc 1 92 0
 441              		.syntax divided
 442              	@ 92 "main.c" 1
 443 0002 62B6     		CPSIE   i
 444              	@ 0 "" 2
  93:main.c        ****     LED_1_Write(0);
 445              		.loc 1 93 0
 446              		.thumb
 447              		.syntax unified
 448 0004 0020     		movs	r0, #0
 449 0006 FFF7FEFF 		bl	LED_1_Write
 450              	.LVL63:
  94:main.c        ****     LED_2_Write(0);
 451              		.loc 1 94 0
 452 000a 0020     		movs	r0, #0
 453 000c FFF7FEFF 		bl	LED_2_Write
 454              	.LVL64:
  95:main.c        ****     LED_3_Write(0);
 455              		.loc 1 95 0
 456 0010 0020     		movs	r0, #0
 457 0012 FFF7FEFF 		bl	LED_3_Write
 458              	.LVL65:
  96:main.c        ****     LED_4_Write(0);
 459              		.loc 1 96 0
 460 0016 0020     		movs	r0, #0
 461 0018 FFF7FEFF 		bl	LED_4_Write
 462              	.LVL66:
  97:main.c        ****     I2C_1_Start();
 463              		.loc 1 97 0
 464 001c FFF7FEFF 		bl	I2C_1_Start
 465              	.LVL67:
  98:main.c        ****     I2C_1_Enable();
 466              		.loc 1 98 0
 467 0020 FFF7FEFF 		bl	I2C_1_Enable
 468              	.LVL68:
  99:main.c        ****     CyDelay(100);
 469              		.loc 1 99 0
ARM GAS  C:\Users\HENRYA~1\AppData\Local\Temp\ccESoHnw.s 			page 11


 470 0024 6420     		movs	r0, #100
 471 0026 FFF7FEFF 		bl	CyDelay
 472              	.LVL69:
 100:main.c        ****     initVCNL();
 473              		.loc 1 100 0
 474 002a FFF7FEFF 		bl	initVCNL
 475              	.LVL70:
 476              	.L18:
 101:main.c        ****     for(;;)
 102:main.c        ****     {
 103:main.c        ****         P=readProximity();
 477              		.loc 1 103 0
 478 002e FFF7FEFF 		bl	readProximity
 479              	.LVL71:
 480 0032 00B2     		sxth	r0, r0
 481 0034 064B     		ldr	r3, .L21
 482 0036 9880     		strh	r0, [r3, #4]
 104:main.c        ****         if(P<3000){
 483              		.loc 1 104 0
 484 0038 064B     		ldr	r3, .L21+4
 485 003a 9842     		cmp	r0, r3
 486 003c 03DC     		bgt	.L19
 105:main.c        ****             LED_2_Write(1);
 487              		.loc 1 105 0
 488 003e 0120     		movs	r0, #1
 489 0040 FFF7FEFF 		bl	LED_2_Write
 490              	.LVL72:
 491 0044 F3E7     		b	.L18
 492              	.L19:
 106:main.c        ****         }
 107:main.c        ****         else{
 108:main.c        ****             LED_2_Write(0);
 493              		.loc 1 108 0
 494 0046 0020     		movs	r0, #0
 495 0048 FFF7FEFF 		bl	LED_2_Write
 496              	.LVL73:
 497 004c EFE7     		b	.L18
 498              	.L22:
 499 004e C046     		.align	2
 500              	.L21:
 501 0050 00000000 		.word	.LANCHOR0
 502 0054 B70B0000 		.word	2999
 503              		.cfi_endproc
 504              	.LFE41:
 505              		.size	main, .-main
 506              		.global	P
 507              		.global	i
 508              		.bss
 509              		.align	2
 510              		.set	.LANCHOR0,. + 0
 511              		.type	i, %object
 512              		.size	i, 4
 513              	i:
 514 0000 00000000 		.space	4
 515              		.type	P, %object
 516              		.size	P, 2
 517              	P:
ARM GAS  C:\Users\HENRYA~1\AppData\Local\Temp\ccESoHnw.s 			page 12


 518 0004 0000     		.space	2
 519              		.text
 520              	.Letext0:
 521              		.file 2 "Generated_Source\\PSoC4/cytypes.h"
 522              		.file 3 "Generated_Source\\PSoC4/I2C_1_I2C.h"
 523              		.file 4 "Generated_Source\\PSoC4/LED_1.h"
 524              		.file 5 "Generated_Source\\PSoC4/LED_2.h"
 525              		.file 6 "Generated_Source\\PSoC4/LED_3.h"
 526              		.file 7 "Generated_Source\\PSoC4/LED_4.h"
 527              		.file 8 "Generated_Source\\PSoC4/CyLib.h"
 528              		.file 9 "Generated_Source\\PSoC4/I2C_1.h"