ARM GAS  C:\Users\HENRYA~1\AppData\Local\Temp\cc7VeyuG.s 			page 1


   1              		.cpu cortex-m0
   2              		.fpu softvfp
   3              		.eabi_attribute 20, 1
   4              		.eabi_attribute 21, 1
   5              		.eabi_attribute 23, 3
   6              		.eabi_attribute 24, 1
   7              		.eabi_attribute 25, 1
   8              		.eabi_attribute 26, 1
   9              		.eabi_attribute 30, 1
  10              		.eabi_attribute 34, 0
  11              		.eabi_attribute 18, 4
  12              		.code	16
  13              		.file	"CAN_TX_RX_func.c"
  14              		.text
  15              	.Ltext0:
  16              		.cfi_sections	.debug_frame
  17              		.section	.text.CAN_SendMsg,"ax",%progbits
  18              		.align	2
  19              		.global	CAN_SendMsg
  20              		.code	16
  21              		.thumb_func
  22              		.type	CAN_SendMsg, %function
  23              	CAN_SendMsg:
  24              	.LFB1:
  25              		.file 1 "CAN_TX_RX_func.c"
   1:CAN_TX_RX_func.c **** /*******************************************************************************
   2:CAN_TX_RX_func.c **** * File Name: CAN_TX_RX_func.c
   3:CAN_TX_RX_func.c **** * Version 3.0
   4:CAN_TX_RX_func.c **** *
   5:CAN_TX_RX_func.c **** * Description:
   6:CAN_TX_RX_func.c **** *  There are functions process "Full" Receive and Transmit mailboxes:
   7:CAN_TX_RX_func.c **** *     - CAN_SendMsg0-7();
   8:CAN_TX_RX_func.c **** *     - CAN_ReceiveMsg0-15();
   9:CAN_TX_RX_func.c **** *  Transmission of message, and receive routine for "Basic" mailboxes:
  10:CAN_TX_RX_func.c **** *     - CAN_SendMsg();
  11:CAN_TX_RX_func.c **** *     - CAN_TxCancel();
  12:CAN_TX_RX_func.c **** *     - CAN_ReceiveMsg();
  13:CAN_TX_RX_func.c **** *
  14:CAN_TX_RX_func.c **** *  Note:
  15:CAN_TX_RX_func.c **** *   None
  16:CAN_TX_RX_func.c **** *
  17:CAN_TX_RX_func.c **** ********************************************************************************
  18:CAN_TX_RX_func.c **** * Copyright 2008-2015, Cypress Semiconductor Corporation.  All rights reserved.
  19:CAN_TX_RX_func.c **** * You may use this file only in accordance with the license, terms, conditions,
  20:CAN_TX_RX_func.c **** * disclaimers, and limitations in the end user license agreement accompanying
  21:CAN_TX_RX_func.c **** * the software package with which this file was provided.
  22:CAN_TX_RX_func.c **** *******************************************************************************/
  23:CAN_TX_RX_func.c **** 
  24:CAN_TX_RX_func.c **** #include "CAN.h"
  25:CAN_TX_RX_func.c **** #include "cyapicallbacks.h"
  26:CAN_TX_RX_func.c **** 
  27:CAN_TX_RX_func.c **** /* `#START TX_RX_FUNCTION` */
  28:CAN_TX_RX_func.c **** extern uint8 mailbox0[8];
  29:CAN_TX_RX_func.c **** /* `#END` */
  30:CAN_TX_RX_func.c **** 
  31:CAN_TX_RX_func.c **** 
  32:CAN_TX_RX_func.c **** /*******************************************************************************
ARM GAS  C:\Users\HENRYA~1\AppData\Local\Temp\cc7VeyuG.s 			page 2


  33:CAN_TX_RX_func.c **** * FUNCTION NAME:   CAN_SendMsg
  34:CAN_TX_RX_func.c **** ********************************************************************************
  35:CAN_TX_RX_func.c **** *
  36:CAN_TX_RX_func.c **** * Summary:
  37:CAN_TX_RX_func.c **** *  This function is Send Message from one of Basic mailboxes. The function loops
  38:CAN_TX_RX_func.c **** *  through the transmit message buffer designed as Basic CAN mailboxes for the
  39:CAN_TX_RX_func.c **** *  first free available and sends from it. The number of retries is limited.
  40:CAN_TX_RX_func.c **** *
  41:CAN_TX_RX_func.c **** * Parameters:
  42:CAN_TX_RX_func.c **** *  message: The pointer to a structure that contains all required data to send
  43:CAN_TX_RX_func.c **** *           messages.
  44:CAN_TX_RX_func.c **** *
  45:CAN_TX_RX_func.c **** * Return:
  46:CAN_TX_RX_func.c **** *  Indication if message has been sent.
  47:CAN_TX_RX_func.c **** *   Define                             Description
  48:CAN_TX_RX_func.c **** *    CYRET_SUCCESS                      The function passed successfully
  49:CAN_TX_RX_func.c **** *    CAN_FAIL              The function failed
  50:CAN_TX_RX_func.c **** *
  51:CAN_TX_RX_func.c **** *******************************************************************************/
  52:CAN_TX_RX_func.c **** uint8 CAN_SendMsg(const CAN_TX_MSG *message) 
  53:CAN_TX_RX_func.c **** {
  26              		.loc 1 53 0
  27              		.cfi_startproc
  28              	.LVL0:
  29 0000 F8B5     		push	{r3, r4, r5, r6, r7, lr}
  30              		.cfi_def_cfa_offset 24
  31              		.cfi_offset 3, -24
  32              		.cfi_offset 4, -20
  33              		.cfi_offset 5, -16
  34              		.cfi_offset 6, -12
  35              		.cfi_offset 7, -8
  36              		.cfi_offset 14, -4
  37 0002 4F46     		mov	r7, r9
  38 0004 4646     		mov	r6, r8
  39 0006 C0B4     		push	{r6, r7}
  40              		.cfi_def_cfa_offset 32
  41              		.cfi_offset 8, -32
  42              		.cfi_offset 9, -28
  43 0008 061C     		mov	r6, r0
  44              	.LVL1:
  54:CAN_TX_RX_func.c ****     uint8 i, j, shift;
  55:CAN_TX_RX_func.c ****     uint8 retry = 0u;
  56:CAN_TX_RX_func.c ****     uint8 result = CAN_FAIL;
  45              		.loc 1 56 0
  46 000a 0120     		mov	r0, #1
  47              	.LVL2:
  55:CAN_TX_RX_func.c ****     uint8 result = CAN_FAIL;
  48              		.loc 1 55 0
  49 000c 0023     		mov	r3, #0
  50 000e 9846     		mov	r8, r3
  57:CAN_TX_RX_func.c ****     uint32 regTemp;
  58:CAN_TX_RX_func.c **** 
  59:CAN_TX_RX_func.c ****     while (retry < CAN_RETRY_NUMBER)
  51              		.loc 1 59 0
  52 0010 93E0     		b	.L2
  53              	.LVL3:
  54              	.L18:
ARM GAS  C:\Users\HENRYA~1\AppData\Local\Temp\cc7VeyuG.s 			page 3


  60:CAN_TX_RX_func.c ****     {
  61:CAN_TX_RX_func.c ****         shift = 1u;    /* Start from first mailbox */
  62:CAN_TX_RX_func.c ****         for (i = 0u; i < CAN_NUMBER_OF_TX_MAILBOXES; i++)
  63:CAN_TX_RX_func.c ****         {
  64:CAN_TX_RX_func.c ****             /* Find Basic TX mailboxes */
  65:CAN_TX_RX_func.c ****             if ((CAN_TX_MAILBOX_TYPE & shift) == 0u)
  55              		.loc 1 65 0
  56 0012 EB07     		lsl	r3, r5, #31
  57 0014 7FD4     		bmi	.L3
  66:CAN_TX_RX_func.c ****             {
  67:CAN_TX_RX_func.c ****                 /* Find free mailbox */
  68:CAN_TX_RX_func.c ****                 #if (CY_PSOC3 || CY_PSOC5)
  69:CAN_TX_RX_func.c ****                     if ((CAN_BUF_SR_REG.byte[2] & shift) == 0u)
  70:CAN_TX_RX_func.c ****                 #else  /* CY_PSOC4 */
  71:CAN_TX_RX_func.c ****                     if ((CAN_BUF_SR_REG &
  58              		.loc 1 71 0
  59 0016 4C4B     		ldr	r3, .L23
  60 0018 1B68     		ldr	r3, [r3]
  72:CAN_TX_RX_func.c ****                         (uint32) ((uint32) shift << CAN_TWO_BYTE_OFFSET)) == 0u)
  61              		.loc 1 72 0
  62 001a 2A04     		lsl	r2, r5, #16
  71:CAN_TX_RX_func.c ****                         (uint32) ((uint32) shift << CAN_TWO_BYTE_OFFSET)) == 0u)
  63              		.loc 1 71 0
  64 001c 1A42     		tst	r2, r3
  65 001e 7AD1     		bne	.L3
  66              	.LVL4:
  73:CAN_TX_RX_func.c ****                 #endif /* CY_PSOC3 || CY_PSOC5 */
  74:CAN_TX_RX_func.c ****                     {
  75:CAN_TX_RX_func.c ****                         regTemp = 0u;
  76:CAN_TX_RX_func.c **** 
  77:CAN_TX_RX_func.c ****                         /* Set message parameters */
  78:CAN_TX_RX_func.c ****                         if (message->rtr != CAN_STANDARD_MESSAGE)
  67              		.loc 1 78 0
  68 0020 3379     		ldrb	r3, [r6, #4]
  69 0022 002B     		cmp	r3, #0
  70 0024 01D1     		bne	.L21
  75:CAN_TX_RX_func.c **** 
  71              		.loc 1 75 0
  72 0026 0027     		mov	r7, #0
  73 0028 01E0     		b	.L4
  74              	.L21:
  79:CAN_TX_RX_func.c ****                         {
  80:CAN_TX_RX_func.c ****                             regTemp = CAN_TX_RTR_MASK;    /* RTR message Enable */
  75              		.loc 1 80 0
  76 002a 8027     		mov	r7, #128
  77 002c BF03     		lsl	r7, r7, #14
  78              	.L4:
  79              	.LVL5:
  81:CAN_TX_RX_func.c ****                         }
  82:CAN_TX_RX_func.c **** 
  83:CAN_TX_RX_func.c ****                         if (message->ide == CAN_STANDARD_MESSAGE)
  80              		.loc 1 83 0
  81 002e 7379     		ldrb	r3, [r6, #5]
  82 0030 002B     		cmp	r3, #0
  83 0032 07D1     		bne	.L5
  84:CAN_TX_RX_func.c ****                         {
  85:CAN_TX_RX_func.c ****                             CAN_SET_TX_ID_STANDARD_MSG(i, message->id);
ARM GAS  C:\Users\HENRYA~1\AppData\Local\Temp\cc7VeyuG.s 			page 4


  84              		.loc 1 85 0
  85 0034 2301     		lsl	r3, r4, #4
  86 0036 454A     		ldr	r2, .L23+4
  87 0038 9446     		mov	ip, r2
  88 003a 6344     		add	r3, r3, ip
  89 003c 3268     		ldr	r2, [r6]
  90 003e 5205     		lsl	r2, r2, #21
  91 0040 5A60     		str	r2, [r3, #4]
  92 0042 09E0     		b	.L6
  93              	.L5:
  86:CAN_TX_RX_func.c ****                         }
  87:CAN_TX_RX_func.c ****                         else
  88:CAN_TX_RX_func.c ****                         {
  89:CAN_TX_RX_func.c ****                             regTemp |= CAN_TX_IDE_MASK;
  94              		.loc 1 89 0
  95 0044 8023     		mov	r3, #128
  96 0046 5B03     		lsl	r3, r3, #13
  97 0048 1F43     		orr	r7, r3
  98              	.LVL6:
  90:CAN_TX_RX_func.c ****                             CAN_SET_TX_ID_EXTENDED_MSG(i, message->id);
  99              		.loc 1 90 0
 100 004a 2301     		lsl	r3, r4, #4
 101 004c 3F4A     		ldr	r2, .L23+4
 102 004e 9446     		mov	ip, r2
 103 0050 6344     		add	r3, r3, ip
 104 0052 3268     		ldr	r2, [r6]
 105 0054 D200     		lsl	r2, r2, #3
 106 0056 5A60     		str	r2, [r3, #4]
 107              	.L6:
  91:CAN_TX_RX_func.c ****                         }
  92:CAN_TX_RX_func.c **** 
  93:CAN_TX_RX_func.c ****                         if (message->dlc < CAN_TX_DLC_MAX_VALUE)
 108              		.loc 1 93 0
 109 0058 B379     		ldrb	r3, [r6, #6]
 110 005a 072B     		cmp	r3, #7
 111 005c 03D8     		bhi	.L7
  94:CAN_TX_RX_func.c ****                         {
  95:CAN_TX_RX_func.c ****                             regTemp |= ((uint32) message->dlc) << CAN_TWO_BYTE_OFFSET;
 112              		.loc 1 95 0
 113 005e 1B04     		lsl	r3, r3, #16
 114 0060 1F43     		orr	r7, r3
 115              	.LVL7:
 116 0062 B946     		mov	r9, r7
 117              	.LVL8:
 118 0064 03E0     		b	.L8
 119              	.L7:
  96:CAN_TX_RX_func.c ****                         }
  97:CAN_TX_RX_func.c ****                         else
  98:CAN_TX_RX_func.c ****                         {
  99:CAN_TX_RX_func.c ****                             regTemp |= CAN_TX_DLC_UPPER_VALUE;
 120              		.loc 1 99 0
 121 0066 8023     		mov	r3, #128
 122 0068 1B03     		lsl	r3, r3, #12
 123 006a 1F43     		orr	r7, r3
 124              	.LVL9:
 125 006c B946     		mov	r9, r7
 126              	.LVL10:
ARM GAS  C:\Users\HENRYA~1\AppData\Local\Temp\cc7VeyuG.s 			page 5


 127              	.L8:
 100:CAN_TX_RX_func.c ****                         }
 101:CAN_TX_RX_func.c **** 
 102:CAN_TX_RX_func.c ****                         if (message->irq != CAN_TRANSMIT_INT_DISABLE)
 128              		.loc 1 102 0
 129 006e F379     		ldrb	r3, [r6, #7]
 130 0070 002B     		cmp	r3, #0
 131 0072 03D0     		beq	.L9
 103:CAN_TX_RX_func.c ****                         {
 104:CAN_TX_RX_func.c ****                             regTemp |= CAN_TX_INT_ENABLE_MASK;    /* Transmit Interrupt Enable */
 132              		.loc 1 104 0
 133 0074 0423     		mov	r3, #4
 134 0076 4A46     		mov	r2, r9
 135 0078 1A43     		orr	r2, r3
 136 007a 9146     		mov	r9, r2
 137              	.LVL11:
 138              	.L9:
 105:CAN_TX_RX_func.c ****                         }
 106:CAN_TX_RX_func.c **** 
 107:CAN_TX_RX_func.c ****                         for (j = 0u; (j < message->dlc) && (j < CAN_TX_DLC_MAX_VALUE); j++)
 139              		.loc 1 107 0
 140 007c 0023     		mov	r3, #0
 141 007e 2AE0     		b	.L10
 142              	.LVL12:
 143              	.L14:
 108:CAN_TX_RX_func.c ****                         {
 109:CAN_TX_RX_func.c ****                             #if (CY_PSOC3 || CY_PSOC5)
 110:CAN_TX_RX_func.c ****                                 CAN_TX_DATA_BYTE(i, j) = message->msg->byte[j];
 111:CAN_TX_RX_func.c ****                             #else /* CY_PSOC4 */
 112:CAN_TX_RX_func.c ****                                 CAN_TX_DATA_BYTE(i, j, message->msg->byte[j]);
 144              		.loc 1 112 0
 145 0080 032B     		cmp	r3, #3
 146 0082 13D9     		bls	.L11
 147              		.loc 1 112 0 is_stmt 0 discriminator 1
 148 0084 2001     		lsl	r0, r4, #4
 149 0086 324A     		ldr	r2, .L23+8
 150 0088 9446     		mov	ip, r2
 151 008a 6044     		add	r0, r0, ip
 152 008c 0168     		ldr	r1, [r0]
 153 008e DA00     		lsl	r2, r3, #3
 154 0090 5242     		neg	r2, r2
 155 0092 3832     		add	r2, r2, #56
 156 0094 FF27     		mov	r7, #255
 157 0096 9740     		lsl	r7, r7, r2
 158 0098 B943     		bic	r1, r7
 159 009a 8C46     		mov	ip, r1
 160 009c F168     		ldr	r1, [r6, #12]
 161 009e C95C     		ldrb	r1, [r1, r3]
 162 00a0 9140     		lsl	r1, r1, r2
 163 00a2 0A1C     		mov	r2, r1
 164 00a4 6146     		mov	r1, ip
 165 00a6 0A43     		orr	r2, r1
 166 00a8 0260     		str	r2, [r0]
 167 00aa 12E0     		b	.L12
 168              	.L11:
 169              		.loc 1 112 0 discriminator 2
 170 00ac 2001     		lsl	r0, r4, #4
ARM GAS  C:\Users\HENRYA~1\AppData\Local\Temp\cc7VeyuG.s 			page 6


 171 00ae 274A     		ldr	r2, .L23+4
 172 00b0 9446     		mov	ip, r2
 173 00b2 6044     		add	r0, r0, ip
 174 00b4 8168     		ldr	r1, [r0, #8]
 175 00b6 DA00     		lsl	r2, r3, #3
 176 00b8 5242     		neg	r2, r2
 177 00ba 1832     		add	r2, r2, #24
 178 00bc FF27     		mov	r7, #255
 179 00be 9740     		lsl	r7, r7, r2
 180 00c0 B943     		bic	r1, r7
 181 00c2 8C46     		mov	ip, r1
 182 00c4 F168     		ldr	r1, [r6, #12]
 183 00c6 C95C     		ldrb	r1, [r1, r3]
 184 00c8 9140     		lsl	r1, r1, r2
 185 00ca 0A1C     		mov	r2, r1
 186 00cc 6146     		mov	r1, ip
 187 00ce 0A43     		orr	r2, r1
 188 00d0 8260     		str	r2, [r0, #8]
 189              	.L12:
 107:CAN_TX_RX_func.c ****                         {
 190              		.loc 1 107 0 is_stmt 1 discriminator 2
 191 00d2 0133     		add	r3, r3, #1
 192              	.LVL13:
 193 00d4 DBB2     		uxtb	r3, r3
 194              	.LVL14:
 195              	.L10:
 107:CAN_TX_RX_func.c ****                         {
 196              		.loc 1 107 0 is_stmt 0 discriminator 1
 197 00d6 B279     		ldrb	r2, [r6, #6]
 198 00d8 9A42     		cmp	r2, r3
 199 00da 01D9     		bls	.L13
 107:CAN_TX_RX_func.c ****                         {
 200              		.loc 1 107 0 discriminator 3
 201 00dc 072B     		cmp	r3, #7
 202 00de CFD9     		bls	.L14
 203              	.L13:
 113:CAN_TX_RX_func.c ****                             #endif /* CY_PSOC3 || CY_PSOC5 */
 114:CAN_TX_RX_func.c ****                         }
 115:CAN_TX_RX_func.c **** 
 116:CAN_TX_RX_func.c ****                         /* Disable isr */
 117:CAN_TX_RX_func.c ****     CyIntDisable(CAN_ISR_NUMBER);
 204              		.loc 1 117 0 is_stmt 1
 205 00e0 1B20     		mov	r0, #27
 206 00e2 FFF7FEFF 		bl	CyIntDisable
 207              	.LVL15:
 118:CAN_TX_RX_func.c **** 
 119:CAN_TX_RX_func.c ****                         /* WPN[23] and WPN[3] set to 1 for write to CAN Control reg */
 120:CAN_TX_RX_func.c ****                         CY_SET_REG32(CAN_TX_CMD_PTR(i), (regTemp | CAN_TX_WPN_SET));
 208              		.loc 1 120 0
 209 00e6 2301     		lsl	r3, r4, #4
 210 00e8 184A     		ldr	r2, .L23+4
 211 00ea 9446     		mov	ip, r2
 212 00ec 6344     		add	r3, r3, ip
 213 00ee 194A     		ldr	r2, .L23+12
 214 00f0 4F46     		mov	r7, r9
 215 00f2 1743     		orr	r7, r2
 216 00f4 1F60     		str	r7, [r3]
ARM GAS  C:\Users\HENRYA~1\AppData\Local\Temp\cc7VeyuG.s 			page 7


 121:CAN_TX_RX_func.c **** 
 122:CAN_TX_RX_func.c ****                         #if (CY_PSOC3 || CY_PSOC5)
 123:CAN_TX_RX_func.c ****                             CY_SET_REG32(CAN_TX_CMD_PTR(i), CAN_SEND_MESSAGE);
 124:CAN_TX_RX_func.c ****                         #else /* CY_PSOC4 */
 125:CAN_TX_RX_func.c ****                             if (message->sst != CAN_STANDARD_MESSAGE)
 217              		.loc 1 125 0
 218 00f6 327A     		ldrb	r2, [r6, #8]
 219 00f8 002A     		cmp	r2, #0
 220 00fa 04D0     		beq	.L15
 126:CAN_TX_RX_func.c ****                             {
 127:CAN_TX_RX_func.c ****                                 /* Single Shot Transmission */
 128:CAN_TX_RX_func.c ****                                 CAN_TX_CMD_REG(i) |= CAN_SEND_MESSAGE |
 221              		.loc 1 128 0
 222 00fc 1968     		ldr	r1, [r3]
 223 00fe 0322     		mov	r2, #3
 224 0100 0A43     		orr	r2, r1
 225 0102 1A60     		str	r2, [r3]
 226 0104 03E0     		b	.L16
 227              	.L15:
 129:CAN_TX_RX_func.c ****                                 CAN_TX_ABORT_MASK;
 130:CAN_TX_RX_func.c ****                             }
 131:CAN_TX_RX_func.c ****                             else
 132:CAN_TX_RX_func.c ****                             {
 133:CAN_TX_RX_func.c ****                                 CAN_TX_CMD_REG(i) |= CAN_SEND_MESSAGE;
 228              		.loc 1 133 0
 229 0106 1968     		ldr	r1, [r3]
 230 0108 0122     		mov	r2, #1
 231 010a 0A43     		orr	r2, r1
 232 010c 1A60     		str	r2, [r3]
 233              	.L16:
 134:CAN_TX_RX_func.c ****                             }
 135:CAN_TX_RX_func.c ****                         #endif /* CY_PSOC3 || CY_PSOC5 */
 136:CAN_TX_RX_func.c **** 
 137:CAN_TX_RX_func.c ****                         /* Enable isr */
 138:CAN_TX_RX_func.c ****     CyIntEnable(CAN_ISR_NUMBER);
 234              		.loc 1 138 0
 235 010e 1B20     		mov	r0, #27
 236 0110 FFF7FEFF 		bl	CyIntEnable
 237              	.LVL16:
 139:CAN_TX_RX_func.c **** 
 140:CAN_TX_RX_func.c ****                         result = CYRET_SUCCESS;
 238              		.loc 1 140 0
 239 0114 0020     		mov	r0, #0
 240              	.LVL17:
 241              	.L3:
 141:CAN_TX_RX_func.c ****                     }
 142:CAN_TX_RX_func.c ****             }
 143:CAN_TX_RX_func.c ****             shift <<= 1u;
 242              		.loc 1 143 0
 243 0116 6D00     		lsl	r5, r5, #1
 244              	.LVL18:
 245 0118 EDB2     		uxtb	r5, r5
 246              	.LVL19:
 144:CAN_TX_RX_func.c ****             if (result == CYRET_SUCCESS)
 247              		.loc 1 144 0
 248 011a 0028     		cmp	r0, #0
 249 011c 07D0     		beq	.L17
ARM GAS  C:\Users\HENRYA~1\AppData\Local\Temp\cc7VeyuG.s 			page 8


  62:CAN_TX_RX_func.c ****         {
 250              		.loc 1 62 0 discriminator 2
 251 011e 0134     		add	r4, r4, #1
 252              	.LVL20:
 253 0120 E4B2     		uxtb	r4, r4
 254              	.LVL21:
 255 0122 01E0     		b	.L20
 256              	.LVL22:
 257              	.L22:
 258 0124 0125     		mov	r5, #1
 259 0126 0024     		mov	r4, #0
 260              	.L20:
 261              	.LVL23:
  62:CAN_TX_RX_func.c ****         {
 262              		.loc 1 62 0 is_stmt 0 discriminator 1
 263 0128 072C     		cmp	r4, #7
 264 012a 00D8     		bhi	.LCB277
 265 012c 71E7     		b	.L18	@long jump
 266              	.LCB277:
 267              	.L17:
 145:CAN_TX_RX_func.c ****             {
 146:CAN_TX_RX_func.c ****                 break;
 147:CAN_TX_RX_func.c ****             }
 148:CAN_TX_RX_func.c ****         }
 149:CAN_TX_RX_func.c ****         if (result == CYRET_SUCCESS)
 268              		.loc 1 149 0 is_stmt 1
 269 012e 0028     		cmp	r0, #0
 270 0130 06D0     		beq	.L19
 150:CAN_TX_RX_func.c ****         {
 151:CAN_TX_RX_func.c ****             break;
 152:CAN_TX_RX_func.c ****         }
 153:CAN_TX_RX_func.c ****         else
 154:CAN_TX_RX_func.c ****         {
 155:CAN_TX_RX_func.c ****             retry++;
 271              		.loc 1 155 0
 272 0132 4346     		mov	r3, r8
 273 0134 0133     		add	r3, r3, #1
 274 0136 DBB2     		uxtb	r3, r3
 275 0138 9846     		mov	r8, r3
 276              	.LVL24:
 277              	.L2:
  59:CAN_TX_RX_func.c ****     {
 278              		.loc 1 59 0
 279 013a 4346     		mov	r3, r8
 280 013c 022B     		cmp	r3, #2
 281 013e F1D9     		bls	.L22
 282              	.L19:
 156:CAN_TX_RX_func.c ****         }
 157:CAN_TX_RX_func.c ****     }
 158:CAN_TX_RX_func.c **** 
 159:CAN_TX_RX_func.c ****     return (result);
 160:CAN_TX_RX_func.c **** }
 283              		.loc 1 160 0
 284              		@ sp needed
 285              	.LVL25:
 286              	.LVL26:
 287 0140 0CBC     		pop	{r2, r3}
ARM GAS  C:\Users\HENRYA~1\AppData\Local\Temp\cc7VeyuG.s 			page 9


 288 0142 9046     		mov	r8, r2
 289 0144 9946     		mov	r9, r3
 290 0146 F8BD     		pop	{r3, r4, r5, r6, r7, pc}
 291              	.L24:
 292              		.align	2
 293              	.L23:
 294 0148 08002E40 		.word	1076756488
 295 014c 20002E40 		.word	1076756512
 296 0150 2C002E40 		.word	1076756524
 297 0154 08008000 		.word	8388616
 298              		.cfi_endproc
 299              	.LFE1:
 300              		.size	CAN_SendMsg, .-CAN_SendMsg
 301              		.section	.text.CAN_TxCancel,"ax",%progbits
 302              		.align	2
 303              		.global	CAN_TxCancel
 304              		.code	16
 305              		.thumb_func
 306              		.type	CAN_TxCancel, %function
 307              	CAN_TxCancel:
 308              	.LFB2:
 161:CAN_TX_RX_func.c **** 
 162:CAN_TX_RX_func.c **** 
 163:CAN_TX_RX_func.c **** /*******************************************************************************
 164:CAN_TX_RX_func.c **** * FUNCTION NAME:   CAN_TxCancel
 165:CAN_TX_RX_func.c **** ********************************************************************************
 166:CAN_TX_RX_func.c **** *
 167:CAN_TX_RX_func.c **** * Summary:
 168:CAN_TX_RX_func.c **** *  This function cancels transmission of a message that has been queued to be
 169:CAN_TX_RX_func.c **** *  transmitted. Values between 0 and 7 are valid.
 170:CAN_TX_RX_func.c **** *
 171:CAN_TX_RX_func.c **** * Parameters:
 172:CAN_TX_RX_func.c **** *  bufferId: The mailbox number.
 173:CAN_TX_RX_func.c **** *
 174:CAN_TX_RX_func.c **** * Return:
 175:CAN_TX_RX_func.c **** *  None.
 176:CAN_TX_RX_func.c **** *
 177:CAN_TX_RX_func.c **** *******************************************************************************/
 178:CAN_TX_RX_func.c **** void CAN_TxCancel(uint8 bufferId) 
 179:CAN_TX_RX_func.c **** {
 309              		.loc 1 179 0
 310              		.cfi_startproc
 311              	.LVL27:
 180:CAN_TX_RX_func.c ****     if (bufferId < CAN_NUMBER_OF_TX_MAILBOXES)
 312              		.loc 1 180 0
 313 0000 0728     		cmp	r0, #7
 314 0002 09D8     		bhi	.L25
 181:CAN_TX_RX_func.c ****     {
 182:CAN_TX_RX_func.c ****         CAN_TX_ABORT_MESSAGE(bufferId);
 315              		.loc 1 182 0
 316 0004 0001     		lsl	r0, r0, #4
 317              	.LVL28:
 318 0006 054B     		ldr	r3, .L27
 319 0008 9C46     		mov	ip, r3
 320 000a 6044     		add	r0, r0, ip
 321 000c 0368     		ldr	r3, [r0]
 322 000e 0322     		mov	r2, #3
ARM GAS  C:\Users\HENRYA~1\AppData\Local\Temp\cc7VeyuG.s 			page 10


 323 0010 9343     		bic	r3, r2
 324 0012 013A     		sub	r2, r2, #1
 325 0014 1343     		orr	r3, r2
 326 0016 0360     		str	r3, [r0]
 327              	.L25:
 183:CAN_TX_RX_func.c ****     }
 184:CAN_TX_RX_func.c **** }
 328              		.loc 1 184 0
 329              		@ sp needed
 330 0018 7047     		bx	lr
 331              	.L28:
 332 001a C046     		.align	2
 333              	.L27:
 334 001c 20002E40 		.word	1076756512
 335              		.cfi_endproc
 336              	.LFE2:
 337              		.size	CAN_TxCancel, .-CAN_TxCancel
 338              		.section	.text.CAN_SendMsg0,"ax",%progbits
 339              		.align	2
 340              		.global	CAN_SendMsg0
 341              		.code	16
 342              		.thumb_func
 343              		.type	CAN_SendMsg0, %function
 344              	CAN_SendMsg0:
 345              	.LFB3:
 185:CAN_TX_RX_func.c **** 
 186:CAN_TX_RX_func.c **** 
 187:CAN_TX_RX_func.c **** #if (CAN_TX0_FUNC_ENABLE)
 188:CAN_TX_RX_func.c ****     /*******************************************************************************
 189:CAN_TX_RX_func.c ****     * FUNCTION NAME:   CAN_SendMsg0
 190:CAN_TX_RX_func.c ****     ********************************************************************************
 191:CAN_TX_RX_func.c ****     *
 192:CAN_TX_RX_func.c ****     * Summary:
 193:CAN_TX_RX_func.c ****     *  This function is the entry point to Transmit Message 0. The function checks
 194:CAN_TX_RX_func.c ****     *  if mailbox 0 doesn't already have un-transmitted messages waiting for
 195:CAN_TX_RX_func.c ****     *  arbitration. If not initiate transmission of the message.
 196:CAN_TX_RX_func.c ****     *  Generated only for the Transmit mailbox designed as Full.
 197:CAN_TX_RX_func.c ****     *
 198:CAN_TX_RX_func.c ****     * Parameters:
 199:CAN_TX_RX_func.c ****     *  None.
 200:CAN_TX_RX_func.c ****     *
 201:CAN_TX_RX_func.c ****     * Return:
 202:CAN_TX_RX_func.c ****     *  Indication if Message has been sent.
 203:CAN_TX_RX_func.c ****     *   Define                             Description
 204:CAN_TX_RX_func.c ****     *    CYRET_SUCCESS                      The function passed successfully
 205:CAN_TX_RX_func.c ****     *    CAN_FAIL              The function failed
 206:CAN_TX_RX_func.c ****     *
 207:CAN_TX_RX_func.c ****     *******************************************************************************/
 208:CAN_TX_RX_func.c ****     uint8 CAN_SendMsg0(void) 
 209:CAN_TX_RX_func.c ****     {
 346              		.loc 1 209 0
 347              		.cfi_startproc
 348              	.LVL29:
 210:CAN_TX_RX_func.c ****         uint8 result = CYRET_SUCCESS;
 211:CAN_TX_RX_func.c **** 
 212:CAN_TX_RX_func.c ****         #if (CY_PSOC3 || CY_PSOC5)
 213:CAN_TX_RX_func.c ****             if ((CAN_TX[0u].txcmd.byte[0u] & CAN_TX_REQUEST_PENDING) != 0u)
ARM GAS  C:\Users\HENRYA~1\AppData\Local\Temp\cc7VeyuG.s 			page 11


 214:CAN_TX_RX_func.c ****         #else  /* CY_PSOC4 */
 215:CAN_TX_RX_func.c ****             if ((CAN_TX_CMD_REG(0u) & CAN_TX_REQUEST_PENDING) != 0u)
 349              		.loc 1 215 0
 350 0000 064B     		ldr	r3, .L32
 351 0002 1B68     		ldr	r3, [r3]
 352 0004 DB07     		lsl	r3, r3, #31
 353 0006 06D4     		bmi	.L31
 216:CAN_TX_RX_func.c ****         #endif /* CY_PSOC3 || CY_PSOC5 */
 217:CAN_TX_RX_func.c ****             {
 218:CAN_TX_RX_func.c ****                 result = CAN_FAIL;
 219:CAN_TX_RX_func.c ****             }
 220:CAN_TX_RX_func.c ****             else
 221:CAN_TX_RX_func.c ****             {
 222:CAN_TX_RX_func.c ****                 /* `#START MESSAGE_0_TRASMITTED` */
 223:CAN_TX_RX_func.c ****                 //CAN_TX_DATA_BYTE(0,0,dato_enviado);
 224:CAN_TX_RX_func.c ****                 /* `#END` */
 225:CAN_TX_RX_func.c **** 
 226:CAN_TX_RX_func.c ****                 #ifdef CAN_SEND_MSG_0_CALLBACK
 227:CAN_TX_RX_func.c ****                     CAN_SendMsg_0_Callback();
 228:CAN_TX_RX_func.c ****                 #endif /* CAN_SEND_MSG_0_CALLBACK */
 229:CAN_TX_RX_func.c **** 
 230:CAN_TX_RX_func.c ****                 CY_SET_REG32(CAN_TX_CMD_PTR(0u),
 354              		.loc 1 230 0
 355 0008 044A     		ldr	r2, .L32
 356 000a 1168     		ldr	r1, [r2]
 357 000c 0123     		mov	r3, #1
 358 000e 0B43     		orr	r3, r1
 359 0010 1360     		str	r3, [r2]
 210:CAN_TX_RX_func.c ****         uint8 result = CYRET_SUCCESS;
 360              		.loc 1 210 0
 361 0012 0020     		mov	r0, #0
 362 0014 00E0     		b	.L30
 363              	.L31:
 218:CAN_TX_RX_func.c ****             }
 364              		.loc 1 218 0
 365 0016 0120     		mov	r0, #1
 366              	.L30:
 367              	.LVL30:
 231:CAN_TX_RX_func.c ****                 CY_GET_REG32(CAN_TX_CMD_PTR(0u)) | CAN_SEND_MESSAGE);
 232:CAN_TX_RX_func.c ****             }
 233:CAN_TX_RX_func.c **** 
 234:CAN_TX_RX_func.c ****         return (result);
 235:CAN_TX_RX_func.c ****     }
 368              		.loc 1 235 0
 369              		@ sp needed
 370 0018 7047     		bx	lr
 371              	.L33:
 372 001a C046     		.align	2
 373              	.L32:
 374 001c 20002E40 		.word	1076756512
 375              		.cfi_endproc
 376              	.LFE3:
 377              		.size	CAN_SendMsg0, .-CAN_SendMsg0
 378              		.section	.text.CAN_ReceiveMsg,"ax",%progbits
 379              		.align	2
 380              		.global	CAN_ReceiveMsg
 381              		.code	16
ARM GAS  C:\Users\HENRYA~1\AppData\Local\Temp\cc7VeyuG.s 			page 12


 382              		.thumb_func
 383              		.type	CAN_ReceiveMsg, %function
 384              	CAN_ReceiveMsg:
 385              	.LFB4:
 236:CAN_TX_RX_func.c **** #endif /* CAN_TX0_FUNC_ENABLE */
 237:CAN_TX_RX_func.c **** 
 238:CAN_TX_RX_func.c **** 
 239:CAN_TX_RX_func.c **** #if (CAN_TX1_FUNC_ENABLE)
 240:CAN_TX_RX_func.c ****     /*******************************************************************************
 241:CAN_TX_RX_func.c ****     * FUNCTION NAME:   CAN_SendMsg1
 242:CAN_TX_RX_func.c ****     ********************************************************************************
 243:CAN_TX_RX_func.c ****     *
 244:CAN_TX_RX_func.c ****     * Summary:
 245:CAN_TX_RX_func.c ****     *  This function is the entry point to Transmit Message 1. The function checks
 246:CAN_TX_RX_func.c ****     *  if mailbox 1 doesn't already have un-transmitted messages waiting for
 247:CAN_TX_RX_func.c ****     *  arbitration. If not initiate transmission of the message.
 248:CAN_TX_RX_func.c ****     *  Generated only for the Transmit mailbox designed as Full.
 249:CAN_TX_RX_func.c ****     *
 250:CAN_TX_RX_func.c ****     * Parameters:
 251:CAN_TX_RX_func.c ****     *  None.
 252:CAN_TX_RX_func.c ****     *
 253:CAN_TX_RX_func.c ****     * Return:
 254:CAN_TX_RX_func.c ****     *  Indication if Message has been sent.
 255:CAN_TX_RX_func.c ****     *   Define                             Description
 256:CAN_TX_RX_func.c ****     *    CYRET_SUCCESS                      The function passed successfully
 257:CAN_TX_RX_func.c ****     *    CAN_FAIL              The function failed
 258:CAN_TX_RX_func.c ****     *
 259:CAN_TX_RX_func.c ****     *******************************************************************************/
 260:CAN_TX_RX_func.c ****     uint8 CAN_SendMsg1(void) 
 261:CAN_TX_RX_func.c ****     {
 262:CAN_TX_RX_func.c ****         uint8 result = CYRET_SUCCESS;
 263:CAN_TX_RX_func.c **** 
 264:CAN_TX_RX_func.c ****         #if (CY_PSOC3 || CY_PSOC5)
 265:CAN_TX_RX_func.c ****             if ((CAN_TX[1u].txcmd.byte[0u] & CAN_TX_REQUEST_PENDING) != 0u)
 266:CAN_TX_RX_func.c ****         #else  /* CY_PSOC4 */
 267:CAN_TX_RX_func.c ****             if ((CAN_TX_CMD_REG(1u) & CAN_TX_REQUEST_PENDING) != 0u)
 268:CAN_TX_RX_func.c ****         #endif /* CY_PSOC3 || CY_PSOC5 */
 269:CAN_TX_RX_func.c ****             {
 270:CAN_TX_RX_func.c ****                 result = CAN_FAIL;
 271:CAN_TX_RX_func.c ****             }
 272:CAN_TX_RX_func.c ****             else
 273:CAN_TX_RX_func.c ****             {
 274:CAN_TX_RX_func.c ****                 /* `#START MESSAGE_1_TRASMITTED` */
 275:CAN_TX_RX_func.c **** 
 276:CAN_TX_RX_func.c ****                 /* `#END` */
 277:CAN_TX_RX_func.c **** 
 278:CAN_TX_RX_func.c ****                 #ifdef CAN_SEND_MSG_1_CALLBACK
 279:CAN_TX_RX_func.c ****                     CAN_SendMsg_1_Callback();
 280:CAN_TX_RX_func.c ****                 #endif /* CAN_SEND_MSG_1_CALLBACK */
 281:CAN_TX_RX_func.c **** 
 282:CAN_TX_RX_func.c ****                 CY_SET_REG32(CAN_TX_CMD_PTR(1u),
 283:CAN_TX_RX_func.c ****                 CY_GET_REG32(CAN_TX_CMD_PTR(1u)) | CAN_SEND_MESSAGE);
 284:CAN_TX_RX_func.c ****             }
 285:CAN_TX_RX_func.c **** 
 286:CAN_TX_RX_func.c ****         return (result);
 287:CAN_TX_RX_func.c ****     }
 288:CAN_TX_RX_func.c **** #endif /* CAN_TX1_FUNC_ENABLE */
ARM GAS  C:\Users\HENRYA~1\AppData\Local\Temp\cc7VeyuG.s 			page 13


 289:CAN_TX_RX_func.c **** 
 290:CAN_TX_RX_func.c **** 
 291:CAN_TX_RX_func.c **** #if (CAN_TX2_FUNC_ENABLE)
 292:CAN_TX_RX_func.c ****     /*******************************************************************************
 293:CAN_TX_RX_func.c ****     * FUNCTION NAME:   CAN_SendMsg2
 294:CAN_TX_RX_func.c ****     ********************************************************************************
 295:CAN_TX_RX_func.c ****     *
 296:CAN_TX_RX_func.c ****     * Summary:
 297:CAN_TX_RX_func.c ****     *  This function is the entry point to Transmit Message 2. The function checks
 298:CAN_TX_RX_func.c ****     *  if mailbox 2 doesn't already have un-transmitted messages waiting for
 299:CAN_TX_RX_func.c ****     *  arbitration. If not initiate transmission of the message.
 300:CAN_TX_RX_func.c ****     *  Generated only for the Transmit mailbox designed as Full.
 301:CAN_TX_RX_func.c ****     *
 302:CAN_TX_RX_func.c ****     * Parameters:
 303:CAN_TX_RX_func.c ****     *  None.
 304:CAN_TX_RX_func.c ****     *
 305:CAN_TX_RX_func.c ****     * Return:
 306:CAN_TX_RX_func.c ****     *  Indication if Message has been sent.
 307:CAN_TX_RX_func.c ****     *   Define                             Description
 308:CAN_TX_RX_func.c ****     *    CYRET_SUCCESS                      The function passed successfully
 309:CAN_TX_RX_func.c ****     *    CAN_FAIL              The function failed
 310:CAN_TX_RX_func.c ****     *
 311:CAN_TX_RX_func.c ****     *******************************************************************************/
 312:CAN_TX_RX_func.c ****     uint8 CAN_SendMsg2(void) 
 313:CAN_TX_RX_func.c ****     {
 314:CAN_TX_RX_func.c ****         uint8 result = CYRET_SUCCESS;
 315:CAN_TX_RX_func.c **** 
 316:CAN_TX_RX_func.c ****         #if (CY_PSOC3 || CY_PSOC5)
 317:CAN_TX_RX_func.c ****             if ((CAN_TX[2u].txcmd.byte[0u] & CAN_TX_REQUEST_PENDING) != 0u)
 318:CAN_TX_RX_func.c ****         #else  /* CY_PSOC4 */
 319:CAN_TX_RX_func.c ****             if ((CAN_TX_CMD_REG(2u) & CAN_TX_REQUEST_PENDING) != 0u)
 320:CAN_TX_RX_func.c ****         #endif /* CY_PSOC3 || CY_PSOC5 */
 321:CAN_TX_RX_func.c ****             {
 322:CAN_TX_RX_func.c ****                 result = CAN_FAIL;
 323:CAN_TX_RX_func.c ****             }
 324:CAN_TX_RX_func.c ****             else
 325:CAN_TX_RX_func.c ****             {
 326:CAN_TX_RX_func.c ****                 /* `#START MESSAGE_2_TRASMITTED` */
 327:CAN_TX_RX_func.c **** 
 328:CAN_TX_RX_func.c ****                 /* `#END` */
 329:CAN_TX_RX_func.c **** 
 330:CAN_TX_RX_func.c ****                 #ifdef CAN_SEND_MSG_2_CALLBACK
 331:CAN_TX_RX_func.c ****                     CAN_SendMsg_2_Callback();
 332:CAN_TX_RX_func.c ****                 #endif /* CAN_SEND_MSG_2_CALLBACK */
 333:CAN_TX_RX_func.c **** 
 334:CAN_TX_RX_func.c ****                 CY_SET_REG32(CAN_TX_CMD_PTR(2u),
 335:CAN_TX_RX_func.c ****                 CY_GET_REG32(CAN_TX_CMD_PTR(2u)) | CAN_SEND_MESSAGE);
 336:CAN_TX_RX_func.c ****             }
 337:CAN_TX_RX_func.c **** 
 338:CAN_TX_RX_func.c ****         return (result);
 339:CAN_TX_RX_func.c ****     }
 340:CAN_TX_RX_func.c **** #endif /* CAN_TX2_FUNC_ENABLE */
 341:CAN_TX_RX_func.c **** 
 342:CAN_TX_RX_func.c **** 
 343:CAN_TX_RX_func.c **** #if (CAN_TX3_FUNC_ENABLE)
 344:CAN_TX_RX_func.c ****     /*******************************************************************************
 345:CAN_TX_RX_func.c ****     * FUNCTION NAME:   CAN_SendMsg3
ARM GAS  C:\Users\HENRYA~1\AppData\Local\Temp\cc7VeyuG.s 			page 14


 346:CAN_TX_RX_func.c ****     ********************************************************************************
 347:CAN_TX_RX_func.c ****     *
 348:CAN_TX_RX_func.c ****     * Summary:
 349:CAN_TX_RX_func.c ****     *  This function is the entry point to Transmit Message 3. The function checks
 350:CAN_TX_RX_func.c ****     *  if mailbox 3 doesn't already have un-transmitted messages waiting for
 351:CAN_TX_RX_func.c ****     *  arbitration. If not initiate transmission of the message.
 352:CAN_TX_RX_func.c ****     *  Generated only for the Transmit mailbox designed as Full.
 353:CAN_TX_RX_func.c ****     *
 354:CAN_TX_RX_func.c ****     * Parameters:
 355:CAN_TX_RX_func.c ****     *  None.
 356:CAN_TX_RX_func.c ****     *
 357:CAN_TX_RX_func.c ****     * Return:
 358:CAN_TX_RX_func.c ****     *  Indication if Message has been sent.
 359:CAN_TX_RX_func.c ****     *   Define                             Description
 360:CAN_TX_RX_func.c ****     *    CYRET_SUCCESS                      The function passed successfully
 361:CAN_TX_RX_func.c ****     *    CAN_FAIL              The function failed
 362:CAN_TX_RX_func.c ****     *
 363:CAN_TX_RX_func.c ****     *******************************************************************************/
 364:CAN_TX_RX_func.c ****     uint8 CAN_SendMsg3(void) 
 365:CAN_TX_RX_func.c ****     {
 366:CAN_TX_RX_func.c ****         uint8 result = CYRET_SUCCESS;
 367:CAN_TX_RX_func.c **** 
 368:CAN_TX_RX_func.c ****         #if (CY_PSOC3 || CY_PSOC5)
 369:CAN_TX_RX_func.c ****             if ((CAN_TX[3u].txcmd.byte[0u] & CAN_TX_REQUEST_PENDING) != 0u)
 370:CAN_TX_RX_func.c ****         #else  /* CY_PSOC4 */
 371:CAN_TX_RX_func.c ****             if ((CAN_TX_CMD_REG(3u) & CAN_TX_REQUEST_PENDING) != 0u)
 372:CAN_TX_RX_func.c ****         #endif /* CY_PSOC3 || CY_PSOC5 */
 373:CAN_TX_RX_func.c ****             {
 374:CAN_TX_RX_func.c ****                 result = CAN_FAIL;
 375:CAN_TX_RX_func.c ****             }
 376:CAN_TX_RX_func.c ****             else
 377:CAN_TX_RX_func.c ****             {
 378:CAN_TX_RX_func.c ****                 /* `#START MESSAGE_3_TRASMITTED` */
 379:CAN_TX_RX_func.c **** 
 380:CAN_TX_RX_func.c ****                 /* `#END` */
 381:CAN_TX_RX_func.c **** 
 382:CAN_TX_RX_func.c ****                 #ifdef CAN_SEND_MSG_3_CALLBACK
 383:CAN_TX_RX_func.c ****                     CAN_SendMsg_3_Callback();
 384:CAN_TX_RX_func.c ****                 #endif /* CAN_SEND_MSG_3_CALLBACK */
 385:CAN_TX_RX_func.c **** 
 386:CAN_TX_RX_func.c ****                 CY_SET_REG32(CAN_TX_CMD_PTR(3u),
 387:CAN_TX_RX_func.c ****                 CY_GET_REG32(CAN_TX_CMD_PTR(3u)) | CAN_SEND_MESSAGE);
 388:CAN_TX_RX_func.c ****             }
 389:CAN_TX_RX_func.c **** 
 390:CAN_TX_RX_func.c ****         return (result);
 391:CAN_TX_RX_func.c ****     }
 392:CAN_TX_RX_func.c **** #endif /* CAN_TX3_FUNC_ENABLE */
 393:CAN_TX_RX_func.c **** 
 394:CAN_TX_RX_func.c **** 
 395:CAN_TX_RX_func.c **** #if (CAN_TX4_FUNC_ENABLE)
 396:CAN_TX_RX_func.c ****     /*******************************************************************************
 397:CAN_TX_RX_func.c ****     * FUNCTION NAME:   CAN_SendMsg4
 398:CAN_TX_RX_func.c ****     ********************************************************************************
 399:CAN_TX_RX_func.c ****     *
 400:CAN_TX_RX_func.c ****     * Summary:
 401:CAN_TX_RX_func.c ****     *  This function is the entry point to Transmit Message 4. The function checks
 402:CAN_TX_RX_func.c ****     *  if mailbox 4 doesn't already have un-transmitted messages waiting for
ARM GAS  C:\Users\HENRYA~1\AppData\Local\Temp\cc7VeyuG.s 			page 15


 403:CAN_TX_RX_func.c ****     *  arbitration. If not initiate transmission of the message.
 404:CAN_TX_RX_func.c ****     *  Generated only for the Transmit mailbox designed as Full.
 405:CAN_TX_RX_func.c ****     *
 406:CAN_TX_RX_func.c ****     * Parameters:
 407:CAN_TX_RX_func.c ****     *  None.
 408:CAN_TX_RX_func.c ****     *
 409:CAN_TX_RX_func.c ****     * Return:
 410:CAN_TX_RX_func.c ****     *  Indication if Message has been sent.
 411:CAN_TX_RX_func.c ****     *   Define                             Description
 412:CAN_TX_RX_func.c ****     *    CYRET_SUCCESS                      The function passed successfully
 413:CAN_TX_RX_func.c ****     *    CAN_FAIL              The function failed
 414:CAN_TX_RX_func.c ****     *
 415:CAN_TX_RX_func.c ****     *******************************************************************************/
 416:CAN_TX_RX_func.c ****     uint8 CAN_SendMsg4(void) 
 417:CAN_TX_RX_func.c ****     {
 418:CAN_TX_RX_func.c ****         uint8 result = CYRET_SUCCESS;
 419:CAN_TX_RX_func.c **** 
 420:CAN_TX_RX_func.c ****         #if (CY_PSOC3 || CY_PSOC5)
 421:CAN_TX_RX_func.c ****             if ((CAN_TX[4u].txcmd.byte[0u] & CAN_TX_REQUEST_PENDING) != 0u)
 422:CAN_TX_RX_func.c ****         #else  /* CY_PSOC4 */
 423:CAN_TX_RX_func.c ****             if ((CAN_TX_CMD_REG(4u) & CAN_TX_REQUEST_PENDING) != 0u)
 424:CAN_TX_RX_func.c ****         #endif /* CY_PSOC3 || CY_PSOC5 */
 425:CAN_TX_RX_func.c ****             {
 426:CAN_TX_RX_func.c ****                 result = CAN_FAIL;
 427:CAN_TX_RX_func.c ****             }
 428:CAN_TX_RX_func.c ****             else
 429:CAN_TX_RX_func.c ****             {
 430:CAN_TX_RX_func.c ****                 /* `#START MESSAGE_4_TRASMITTED` */
 431:CAN_TX_RX_func.c **** 
 432:CAN_TX_RX_func.c ****                 /* `#END` */
 433:CAN_TX_RX_func.c **** 
 434:CAN_TX_RX_func.c ****                 #ifdef CAN_SEND_MSG_4_CALLBACK
 435:CAN_TX_RX_func.c ****                     CAN_SendMsg_4_Callback();
 436:CAN_TX_RX_func.c ****                 #endif /* CAN_SEND_MSG_4_CALLBACK */
 437:CAN_TX_RX_func.c **** 
 438:CAN_TX_RX_func.c ****                 CY_SET_REG32(CAN_TX_CMD_PTR(4u),
 439:CAN_TX_RX_func.c ****                 CY_GET_REG32(CAN_TX_CMD_PTR(4u)) | CAN_SEND_MESSAGE);
 440:CAN_TX_RX_func.c ****             }
 441:CAN_TX_RX_func.c **** 
 442:CAN_TX_RX_func.c ****         return (result);
 443:CAN_TX_RX_func.c ****     }
 444:CAN_TX_RX_func.c **** #endif /* CAN_TX4_FUNC_ENABLE */
 445:CAN_TX_RX_func.c **** 
 446:CAN_TX_RX_func.c **** 
 447:CAN_TX_RX_func.c **** #if (CAN_TX5_FUNC_ENABLE)
 448:CAN_TX_RX_func.c ****     /*******************************************************************************
 449:CAN_TX_RX_func.c ****     * FUNCTION NAME:   CAN_SendMsg5
 450:CAN_TX_RX_func.c ****     ********************************************************************************
 451:CAN_TX_RX_func.c ****     *
 452:CAN_TX_RX_func.c ****     * Summary:
 453:CAN_TX_RX_func.c ****     *  This function is the entry point to Transmit Message 5. The function checks
 454:CAN_TX_RX_func.c ****     *  if mailbox 5 doesn't already have un-transmitted messages waiting for
 455:CAN_TX_RX_func.c ****     *  arbitration. If not initiate transmission of the message.
 456:CAN_TX_RX_func.c ****     *  Generated only for the Transmit mailbox designed as Full.
 457:CAN_TX_RX_func.c ****     *
 458:CAN_TX_RX_func.c ****     * Parameters:
 459:CAN_TX_RX_func.c ****     *  None.
ARM GAS  C:\Users\HENRYA~1\AppData\Local\Temp\cc7VeyuG.s 			page 16


 460:CAN_TX_RX_func.c ****     *
 461:CAN_TX_RX_func.c ****     * Return:
 462:CAN_TX_RX_func.c ****     *  Indication if Message has been sent.
 463:CAN_TX_RX_func.c ****     *   Define                             Description
 464:CAN_TX_RX_func.c ****     *    CYRET_SUCCESS                      The function passed successfully
 465:CAN_TX_RX_func.c ****     *    CAN_FAIL              The function failed
 466:CAN_TX_RX_func.c ****     *
 467:CAN_TX_RX_func.c ****     *******************************************************************************/
 468:CAN_TX_RX_func.c ****     uint8 CAN_SendMsg5(void) 
 469:CAN_TX_RX_func.c ****     {
 470:CAN_TX_RX_func.c ****         uint8 result = CYRET_SUCCESS;
 471:CAN_TX_RX_func.c **** 
 472:CAN_TX_RX_func.c ****         #if (CY_PSOC3 || CY_PSOC5)
 473:CAN_TX_RX_func.c ****             if ((CAN_TX[5u].txcmd.byte[0u] & CAN_TX_REQUEST_PENDING) != 0u)
 474:CAN_TX_RX_func.c ****         #else  /* CY_PSOC4 */
 475:CAN_TX_RX_func.c ****             if ((CAN_TX_CMD_REG(5u) & CAN_TX_REQUEST_PENDING) != 0u)
 476:CAN_TX_RX_func.c ****         #endif /* CY_PSOC3 || CY_PSOC5 */
 477:CAN_TX_RX_func.c ****             {
 478:CAN_TX_RX_func.c ****                 result = CAN_FAIL;
 479:CAN_TX_RX_func.c ****             }
 480:CAN_TX_RX_func.c ****             else
 481:CAN_TX_RX_func.c ****             {
 482:CAN_TX_RX_func.c ****                 /* `#START MESSAGE_5_TRASMITTED` */
 483:CAN_TX_RX_func.c **** 
 484:CAN_TX_RX_func.c ****                 /* `#END` */
 485:CAN_TX_RX_func.c **** 
 486:CAN_TX_RX_func.c ****                 #ifdef CAN_SEND_MSG_5_CALLBACK
 487:CAN_TX_RX_func.c ****                     CAN_SendMsg_5_Callback();
 488:CAN_TX_RX_func.c ****                 #endif /* CAN_SEND_MSG_5_CALLBACK */
 489:CAN_TX_RX_func.c **** 
 490:CAN_TX_RX_func.c ****                 CY_SET_REG32(CAN_TX_CMD_PTR(5u),
 491:CAN_TX_RX_func.c ****                 CY_GET_REG32(CAN_TX_CMD_PTR(5u)) | CAN_SEND_MESSAGE);
 492:CAN_TX_RX_func.c ****             }
 493:CAN_TX_RX_func.c **** 
 494:CAN_TX_RX_func.c ****         return (result);
 495:CAN_TX_RX_func.c ****     }
 496:CAN_TX_RX_func.c **** #endif /* CAN_TX5_FUNC_ENABLE */
 497:CAN_TX_RX_func.c **** 
 498:CAN_TX_RX_func.c **** 
 499:CAN_TX_RX_func.c **** #if (CAN_TX6_FUNC_ENABLE)
 500:CAN_TX_RX_func.c ****     /*******************************************************************************
 501:CAN_TX_RX_func.c ****     * FUNCTION NAME:   CAN_SendMsg6
 502:CAN_TX_RX_func.c ****     ********************************************************************************
 503:CAN_TX_RX_func.c ****     *
 504:CAN_TX_RX_func.c ****     * Summary:
 505:CAN_TX_RX_func.c ****     *  This function is the entry point to Transmit Message 6. The function checks
 506:CAN_TX_RX_func.c ****     *  if mailbox 6 doesn't already have un-transmitted messages waiting for
 507:CAN_TX_RX_func.c ****     *  arbitration. If not initiate transmission of the message.
 508:CAN_TX_RX_func.c ****     *  Generated only for the Transmit mailbox designed as Full.
 509:CAN_TX_RX_func.c ****     *
 510:CAN_TX_RX_func.c ****     * Parameters:
 511:CAN_TX_RX_func.c ****     *  None.
 512:CAN_TX_RX_func.c ****     *
 513:CAN_TX_RX_func.c ****     * Return:
 514:CAN_TX_RX_func.c ****     *  Indication if Message has been sent.
 515:CAN_TX_RX_func.c ****     *   Define                             Description
 516:CAN_TX_RX_func.c ****     *    CYRET_SUCCESS                      The function passed successfully
ARM GAS  C:\Users\HENRYA~1\AppData\Local\Temp\cc7VeyuG.s 			page 17


 517:CAN_TX_RX_func.c ****     *    CAN_FAIL              The function failed
 518:CAN_TX_RX_func.c ****     *
 519:CAN_TX_RX_func.c ****     *******************************************************************************/
 520:CAN_TX_RX_func.c ****     uint8 CAN_SendMsg6(void) 
 521:CAN_TX_RX_func.c ****     {
 522:CAN_TX_RX_func.c ****         uint8 result = CYRET_SUCCESS;
 523:CAN_TX_RX_func.c **** 
 524:CAN_TX_RX_func.c ****         #if (CY_PSOC3 || CY_PSOC5)
 525:CAN_TX_RX_func.c ****             if ((CAN_TX[6u].txcmd.byte[0u] & CAN_TX_REQUEST_PENDING) != 0u)
 526:CAN_TX_RX_func.c ****         #else  /* CY_PSOC4 */
 527:CAN_TX_RX_func.c ****             if ((CAN_TX_CMD_REG(6u) & CAN_TX_REQUEST_PENDING) != 0u)
 528:CAN_TX_RX_func.c ****         #endif /* CY_PSOC3 || CY_PSOC5 */
 529:CAN_TX_RX_func.c ****             {
 530:CAN_TX_RX_func.c ****                 result = CAN_FAIL;
 531:CAN_TX_RX_func.c ****             }
 532:CAN_TX_RX_func.c ****             else
 533:CAN_TX_RX_func.c ****             {
 534:CAN_TX_RX_func.c ****                 /* `#START MESSAGE_6_TRASMITTED` */
 535:CAN_TX_RX_func.c **** 
 536:CAN_TX_RX_func.c ****                 /* `#END` */
 537:CAN_TX_RX_func.c **** 
 538:CAN_TX_RX_func.c ****                 #ifdef CAN_SEND_MSG_6_CALLBACK
 539:CAN_TX_RX_func.c ****                     CAN_SendMsg_6_Callback();
 540:CAN_TX_RX_func.c ****                 #endif /* CAN_SEND_MSG_6_CALLBACK */
 541:CAN_TX_RX_func.c **** 
 542:CAN_TX_RX_func.c ****                 CY_SET_REG32(CAN_TX_CMD_PTR(6u),
 543:CAN_TX_RX_func.c ****                 CY_GET_REG32(CAN_TX_CMD_PTR(6u)) | CAN_SEND_MESSAGE);
 544:CAN_TX_RX_func.c ****             }
 545:CAN_TX_RX_func.c **** 
 546:CAN_TX_RX_func.c ****         return (result);
 547:CAN_TX_RX_func.c ****     }
 548:CAN_TX_RX_func.c **** #endif /* CAN_TX6_FUNC_ENABLE */
 549:CAN_TX_RX_func.c **** 
 550:CAN_TX_RX_func.c **** 
 551:CAN_TX_RX_func.c **** #if (CAN_TX7_FUNC_ENABLE)
 552:CAN_TX_RX_func.c ****     /*******************************************************************************
 553:CAN_TX_RX_func.c ****     * FUNCTION NAME:   CAN_SendMsg7)
 554:CAN_TX_RX_func.c ****     ********************************************************************************
 555:CAN_TX_RX_func.c ****     *
 556:CAN_TX_RX_func.c ****     * Summary:
 557:CAN_TX_RX_func.c ****     *  This function is the entry point to Transmit Message 7. The function checks
 558:CAN_TX_RX_func.c ****     *  if mailbox 7 doesn't already have un-transmitted messages waiting for
 559:CAN_TX_RX_func.c ****     *  arbitration. If not initiate transmission of the message.
 560:CAN_TX_RX_func.c ****     *  Generated only for the Transmit mailbox designed as Full.
 561:CAN_TX_RX_func.c ****     *
 562:CAN_TX_RX_func.c ****     * Parameters:
 563:CAN_TX_RX_func.c ****     *  None.
 564:CAN_TX_RX_func.c ****     *
 565:CAN_TX_RX_func.c ****     * Return:
 566:CAN_TX_RX_func.c ****     *  Indication if Message has been sent.
 567:CAN_TX_RX_func.c ****     *   Define                             Description
 568:CAN_TX_RX_func.c ****     *    CYRET_SUCCESS                      The function passed successfully
 569:CAN_TX_RX_func.c ****     *    CAN_FAIL              The function failed
 570:CAN_TX_RX_func.c ****     *
 571:CAN_TX_RX_func.c ****     *******************************************************************************/
 572:CAN_TX_RX_func.c ****     uint8 CAN_SendMsg7(void) 
 573:CAN_TX_RX_func.c ****     {
ARM GAS  C:\Users\HENRYA~1\AppData\Local\Temp\cc7VeyuG.s 			page 18


 574:CAN_TX_RX_func.c ****         uint8 result = CYRET_SUCCESS;
 575:CAN_TX_RX_func.c **** 
 576:CAN_TX_RX_func.c ****         #if (CY_PSOC3 || CY_PSOC5)
 577:CAN_TX_RX_func.c ****             if ((CAN_TX[7u].txcmd.byte[0u] & CAN_TX_REQUEST_PENDING) != 0u)
 578:CAN_TX_RX_func.c ****         #else  /* CY_PSOC4 */
 579:CAN_TX_RX_func.c ****             if ((CAN_TX_CMD_REG(7u) & CAN_TX_REQUEST_PENDING) != 0u)
 580:CAN_TX_RX_func.c ****         #endif /* CY_PSOC3 || CY_PSOC5 */
 581:CAN_TX_RX_func.c ****             {
 582:CAN_TX_RX_func.c ****                 result = CAN_FAIL;
 583:CAN_TX_RX_func.c ****             }
 584:CAN_TX_RX_func.c ****             else
 585:CAN_TX_RX_func.c ****             {
 586:CAN_TX_RX_func.c ****                 /* `#START MESSAGE_7_TRASMITTED` */
 587:CAN_TX_RX_func.c **** 
 588:CAN_TX_RX_func.c ****                 /* `#END` */
 589:CAN_TX_RX_func.c **** 
 590:CAN_TX_RX_func.c ****                 #ifdef CAN_SEND_MSG_7_CALLBACK
 591:CAN_TX_RX_func.c ****                     CAN_SendMsg_7_Callback();
 592:CAN_TX_RX_func.c ****                 #endif /* CAN_SEND_MSG_7_CALLBACK */
 593:CAN_TX_RX_func.c **** 
 594:CAN_TX_RX_func.c ****                 CY_SET_REG32(CAN_TX_CMD_PTR(7u),
 595:CAN_TX_RX_func.c ****                 CY_GET_REG32(CAN_TX_CMD_PTR(7u)) | CAN_SEND_MESSAGE);
 596:CAN_TX_RX_func.c ****             }
 597:CAN_TX_RX_func.c **** 
 598:CAN_TX_RX_func.c ****         return (result);
 599:CAN_TX_RX_func.c ****     }
 600:CAN_TX_RX_func.c **** #endif /* CAN_TX7_FUNC_ENABLE */
 601:CAN_TX_RX_func.c **** 
 602:CAN_TX_RX_func.c **** 
 603:CAN_TX_RX_func.c **** /*******************************************************************************
 604:CAN_TX_RX_func.c **** * FUNCTION NAME:   CAN_ReceiveMsg
 605:CAN_TX_RX_func.c **** ********************************************************************************
 606:CAN_TX_RX_func.c **** *
 607:CAN_TX_RX_func.c **** * Summary:
 608:CAN_TX_RX_func.c **** *  This function is the entry point to Receive Message Interrupt for Basic
 609:CAN_TX_RX_func.c **** *  mailboxes. Clears the Receive particular Message interrupt flag. Generated
 610:CAN_TX_RX_func.c **** *  only if one of the Receive mailboxes is designed as Basic.
 611:CAN_TX_RX_func.c **** *
 612:CAN_TX_RX_func.c **** * Parameters:
 613:CAN_TX_RX_func.c **** *  rxMailbox: The mailbox number that trig Receive Message Interrupt.
 614:CAN_TX_RX_func.c **** *
 615:CAN_TX_RX_func.c **** * Return:
 616:CAN_TX_RX_func.c **** *  None.
 617:CAN_TX_RX_func.c **** *
 618:CAN_TX_RX_func.c **** * Reentrant:
 619:CAN_TX_RX_func.c **** *  Depends on the Customer code.
 620:CAN_TX_RX_func.c **** *
 621:CAN_TX_RX_func.c **** *******************************************************************************/
 622:CAN_TX_RX_func.c **** void CAN_ReceiveMsg(uint8 rxMailbox) 
 623:CAN_TX_RX_func.c **** {
 386              		.loc 1 623 0
 387              		.cfi_startproc
 388              	.LVL31:
 624:CAN_TX_RX_func.c ****     #if (CY_PSOC3 || CY_PSOC5)
 625:CAN_TX_RX_func.c ****         if ((CAN_RX[rxMailbox].rxcmd.byte[0u] & CAN_RX_ACK_MSG) != 0u)
 626:CAN_TX_RX_func.c ****     #else  /* CY_PSOC4 */
 627:CAN_TX_RX_func.c ****         if ((CAN_RX_CMD_REG(rxMailbox) & CAN_RX_ACK_MSG) != 0u)
ARM GAS  C:\Users\HENRYA~1\AppData\Local\Temp\cc7VeyuG.s 			page 19


 389              		.loc 1 627 0
 390 0000 4001     		lsl	r0, r0, #5
 391              	.LVL32:
 392 0002 054B     		ldr	r3, .L36
 393 0004 9C46     		mov	ip, r3
 394 0006 6044     		add	r0, r0, ip
 395 0008 0368     		ldr	r3, [r0]
 396 000a DB07     		lsl	r3, r3, #31
 397 000c 03D5     		bpl	.L34
 628:CAN_TX_RX_func.c ****     #endif /* CY_PSOC3 || CY_PSOC5 */
 629:CAN_TX_RX_func.c ****         {
 630:CAN_TX_RX_func.c ****             /* `#START MESSAGE_BASIC_RECEIVED` */
 631:CAN_TX_RX_func.c **** 
 632:CAN_TX_RX_func.c ****             /* `#END` */
 633:CAN_TX_RX_func.c **** 
 634:CAN_TX_RX_func.c ****             #ifdef CAN_RECEIVE_MSG_CALLBACK
 635:CAN_TX_RX_func.c ****                 CAN_ReceiveMsg_Callback();
 636:CAN_TX_RX_func.c ****             #endif /* CAN_RECEIVE_MSG_CALLBACK */
 637:CAN_TX_RX_func.c **** 
 638:CAN_TX_RX_func.c ****             #if (CY_PSOC3 || CY_PSOC5)
 639:CAN_TX_RX_func.c ****                 CAN_RX[rxMailbox].rxcmd.byte[0u] |= CAN_RX_ACK_MSG;
 640:CAN_TX_RX_func.c ****             #else  /* CY_PSOC4 */
 641:CAN_TX_RX_func.c ****                 CAN_RX_CMD_REG(rxMailbox) |= CAN_RX_ACK_MSG;
 398              		.loc 1 641 0
 399 000e 0268     		ldr	r2, [r0]
 400 0010 0123     		mov	r3, #1
 401 0012 1343     		orr	r3, r2
 402 0014 0360     		str	r3, [r0]
 403              	.L34:
 642:CAN_TX_RX_func.c ****             #endif /* CY_PSOC3 || CY_PSOC5 */
 643:CAN_TX_RX_func.c ****         }
 644:CAN_TX_RX_func.c **** }
 404              		.loc 1 644 0
 405              		@ sp needed
 406 0016 7047     		bx	lr
 407              	.L37:
 408              		.align	2
 409              	.L36:
 410 0018 A0002E40 		.word	1076756640
 411              		.cfi_endproc
 412              	.LFE4:
 413              		.size	CAN_ReceiveMsg, .-CAN_ReceiveMsg
 414              		.section	.text.CAN_ReceiveMsg0,"ax",%progbits
 415              		.align	2
 416              		.global	CAN_ReceiveMsg0
 417              		.code	16
 418              		.thumb_func
 419              		.type	CAN_ReceiveMsg0, %function
 420              	CAN_ReceiveMsg0:
 421              	.LFB5:
 645:CAN_TX_RX_func.c **** 
 646:CAN_TX_RX_func.c **** 
 647:CAN_TX_RX_func.c **** #if (CAN_RX0_FUNC_ENABLE)
 648:CAN_TX_RX_func.c ****     /*******************************************************************************
 649:CAN_TX_RX_func.c ****     * FUNCTION NAME:   CAN_ReceiveMsg0
 650:CAN_TX_RX_func.c ****     ********************************************************************************
 651:CAN_TX_RX_func.c ****     *
ARM GAS  C:\Users\HENRYA~1\AppData\Local\Temp\cc7VeyuG.s 			page 20


 652:CAN_TX_RX_func.c ****     * Summary:
 653:CAN_TX_RX_func.c ****     *  This function is the entry point to Receive Message 0 Interrupt. Clears the
 654:CAN_TX_RX_func.c ****     *  Receive Message 0 interrupt flag. Generated only for the Receive mailbox
 655:CAN_TX_RX_func.c ****     *  designed as Full.
 656:CAN_TX_RX_func.c ****     *
 657:CAN_TX_RX_func.c ****     * Parameters:
 658:CAN_TX_RX_func.c ****     *  None.
 659:CAN_TX_RX_func.c ****     *
 660:CAN_TX_RX_func.c ****     * Return:
 661:CAN_TX_RX_func.c ****     *  None.
 662:CAN_TX_RX_func.c ****     *
 663:CAN_TX_RX_func.c ****     * Reentrant:
 664:CAN_TX_RX_func.c ****     *  Depends on the Customer code.
 665:CAN_TX_RX_func.c ****     *
 666:CAN_TX_RX_func.c ****     *******************************************************************************/
 667:CAN_TX_RX_func.c ****     void CAN_ReceiveMsg0(void) 
 668:CAN_TX_RX_func.c ****     {
 422              		.loc 1 668 0
 423              		.cfi_startproc
 669:CAN_TX_RX_func.c ****         /* `#START MESSAGE_0_RECEIVED` */
 670:CAN_TX_RX_func.c ****         mailbox0[0]=CAN_RX_DATA_BYTE1(0);
 424              		.loc 1 670 0
 425 0000 0F4A     		ldr	r2, .L39
 426 0002 1168     		ldr	r1, [r2]
 427 0004 090E     		lsr	r1, r1, #24
 428 0006 0F4B     		ldr	r3, .L39+4
 429 0008 1970     		strb	r1, [r3]
 671:CAN_TX_RX_func.c ****         mailbox0[1]=CAN_RX_DATA_BYTE2(0);
 430              		.loc 1 671 0
 431 000a 1168     		ldr	r1, [r2]
 432 000c 090C     		lsr	r1, r1, #16
 433 000e 5970     		strb	r1, [r3, #1]
 672:CAN_TX_RX_func.c ****         mailbox0[2]=CAN_RX_DATA_BYTE3(0);
 434              		.loc 1 672 0
 435 0010 1168     		ldr	r1, [r2]
 436 0012 090A     		lsr	r1, r1, #8
 437 0014 9970     		strb	r1, [r3, #2]
 673:CAN_TX_RX_func.c ****         mailbox0[3]=CAN_RX_DATA_BYTE4(0);
 438              		.loc 1 673 0
 439 0016 1268     		ldr	r2, [r2]
 440 0018 DA70     		strb	r2, [r3, #3]
 674:CAN_TX_RX_func.c ****         mailbox0[4]=CAN_RX_DATA_BYTE5(0);
 441              		.loc 1 674 0
 442 001a 0B4A     		ldr	r2, .L39+8
 443 001c 1168     		ldr	r1, [r2]
 444 001e 090E     		lsr	r1, r1, #24
 445 0020 1971     		strb	r1, [r3, #4]
 675:CAN_TX_RX_func.c ****         mailbox0[5]=CAN_RX_DATA_BYTE6(0);
 446              		.loc 1 675 0
 447 0022 1168     		ldr	r1, [r2]
 448 0024 090C     		lsr	r1, r1, #16
 449 0026 5971     		strb	r1, [r3, #5]
 676:CAN_TX_RX_func.c ****         mailbox0[6]=CAN_RX_DATA_BYTE7(0);
 450              		.loc 1 676 0
 451 0028 1168     		ldr	r1, [r2]
 452 002a 090A     		lsr	r1, r1, #8
 453 002c 9971     		strb	r1, [r3, #6]
ARM GAS  C:\Users\HENRYA~1\AppData\Local\Temp\cc7VeyuG.s 			page 21


 677:CAN_TX_RX_func.c ****         mailbox0[7]=CAN_RX_DATA_BYTE8(0);
 454              		.loc 1 677 0
 455 002e 1268     		ldr	r2, [r2]
 456 0030 DA71     		strb	r2, [r3, #7]
 678:CAN_TX_RX_func.c ****         /* `#END` */
 679:CAN_TX_RX_func.c **** 
 680:CAN_TX_RX_func.c ****         #ifdef CAN_RECEIVE_MSG_0_CALLBACK
 681:CAN_TX_RX_func.c ****             CAN_ReceiveMsg_0_Callback();
 682:CAN_TX_RX_func.c ****         #endif /* CAN_RECEIVE_MSG_0_CALLBACK */
 683:CAN_TX_RX_func.c **** 
 684:CAN_TX_RX_func.c ****         CAN_RX_ACK_MESSAGE(0u);
 457              		.loc 1 684 0
 458 0032 064A     		ldr	r2, .L39+12
 459 0034 1168     		ldr	r1, [r2]
 460 0036 0123     		mov	r3, #1
 461 0038 0B43     		orr	r3, r1
 462 003a 1360     		str	r3, [r2]
 685:CAN_TX_RX_func.c ****     }
 463              		.loc 1 685 0
 464              		@ sp needed
 465 003c 7047     		bx	lr
 466              	.L40:
 467 003e C046     		.align	2
 468              	.L39:
 469 0040 A8002E40 		.word	1076756648
 470 0044 00000000 		.word	mailbox0
 471 0048 AC002E40 		.word	1076756652
 472 004c A0002E40 		.word	1076756640
 473              		.cfi_endproc
 474              	.LFE5:
 475              		.size	CAN_ReceiveMsg0, .-CAN_ReceiveMsg0
 476              		.text
 477              	.Letext0:
 478              		.file 2 "Generated_Source\\PSoC4/cytypes.h"
 479              		.file 3 "Generated_Source\\PSoC4/CAN.h"
 480              		.file 4 "Generated_Source\\PSoC4/CyLib.h"