ARM GAS  C:\Users\HENRYA~1\AppData\Local\Temp\ccb5OmGZ.s 			page 1


   1              		.cpu cortex-m0
   2              		.fpu softvfp
   3              		.eabi_attribute 20, 1
   4              		.eabi_attribute 21, 1
   5              		.eabi_attribute 23, 3
   6              		.eabi_attribute 24, 1
   7              		.eabi_attribute 25, 1
   8              		.eabi_attribute 26, 1
   9              		.eabi_attribute 30, 1
  10              		.eabi_attribute 34, 0
  11              		.eabi_attribute 18, 4
  12              		.code	16
  13              		.file	"main.c"
  14              		.text
  15              	.Ltext0:
  16              		.cfi_sections	.debug_frame
  17              		.section	.text.interrutcan,"ax",%progbits
  18              		.align	2
  19              		.global	interrutcan
  20              		.code	16
  21              		.thumb_func
  22              		.type	interrutcan, %function
  23              	interrutcan:
  24              	.LFB36:
  25              		.file 1 "main.c"
   1:main.c        **** #include <project.h>
   2:main.c        **** #include <stdio.h>
   3:main.c        **** //Import Libraries
   4:main.c        **** //Global Variables
   5:main.c        **** int16 S1=0,S2=0,S3=0,S4=0;
   6:main.c        **** uint8 dato_enviado;
   7:main.c        **** uint8 dato_recibido;
   8:main.c        **** int32 Conversion=0;
   9:main.c        **** float32 Tension=0.0;
  10:main.c        **** char publicar[6];
  11:main.c        **** char* formato=" %i";
  12:main.c        **** uint8 mailbox0[8];
  13:main.c        **** 
  14:main.c        **** CY_ISR(interrutcan){
  26              		.loc 1 14 0
  27              		.cfi_startproc
  28 0000 70B5     		push	{r4, r5, r6, lr}
  29              		.cfi_def_cfa_offset 16
  30              		.cfi_offset 4, -16
  31              		.cfi_offset 5, -12
  32              		.cfi_offset 6, -8
  33              		.cfi_offset 14, -4
  15:main.c        ****     CAN_MsgRXIsr();
  34              		.loc 1 15 0
  35 0002 FFF7FEFF 		bl	CAN_MsgRXIsr
  36              	.LVL0:
  16:main.c        ****     LED_1_Write(1);
  37              		.loc 1 16 0
  38 0006 0120     		mov	r0, #1
  39 0008 FFF7FEFF 		bl	LED_1_Write
  40              	.LVL1:
  17:main.c        ****     sprintf(publicar, formato, mailbox0[0]);
ARM GAS  C:\Users\HENRYA~1\AppData\Local\Temp\ccb5OmGZ.s 			page 2


  41              		.loc 1 17 0
  42 000c 244E     		ldr	r6, .L2
  43 000e 3278     		ldrb	r2, [r6]
  44 0010 244C     		ldr	r4, .L2+4
  45 0012 254D     		ldr	r5, .L2+8
  46 0014 201C     		mov	r0, r4
  47 0016 2968     		ldr	r1, [r5]
  48 0018 FFF7FEFF 		bl	sprintf
  49              	.LVL2:
  18:main.c        ****     XBEE_PutString(publicar);
  50              		.loc 1 18 0
  51 001c 201C     		mov	r0, r4
  52 001e FFF7FEFF 		bl	XBEE_PutString
  53              	.LVL3:
  19:main.c        ****     sprintf(publicar, formato, mailbox0[1]);
  54              		.loc 1 19 0
  55 0022 7278     		ldrb	r2, [r6, #1]
  56 0024 201C     		mov	r0, r4
  57 0026 2968     		ldr	r1, [r5]
  58 0028 FFF7FEFF 		bl	sprintf
  59              	.LVL4:
  20:main.c        ****     XBEE_PutString(publicar);
  60              		.loc 1 20 0
  61 002c 201C     		mov	r0, r4
  62 002e FFF7FEFF 		bl	XBEE_PutString
  63              	.LVL5:
  21:main.c        ****     sprintf(publicar, formato, mailbox0[2]);
  64              		.loc 1 21 0
  65 0032 B278     		ldrb	r2, [r6, #2]
  66 0034 201C     		mov	r0, r4
  67 0036 2968     		ldr	r1, [r5]
  68 0038 FFF7FEFF 		bl	sprintf
  69              	.LVL6:
  22:main.c        ****     XBEE_PutString(publicar);    
  70              		.loc 1 22 0
  71 003c 201C     		mov	r0, r4
  72 003e FFF7FEFF 		bl	XBEE_PutString
  73              	.LVL7:
  23:main.c        ****     sprintf(publicar, formato, mailbox0[3]);
  74              		.loc 1 23 0
  75 0042 F278     		ldrb	r2, [r6, #3]
  76 0044 201C     		mov	r0, r4
  77 0046 2968     		ldr	r1, [r5]
  78 0048 FFF7FEFF 		bl	sprintf
  79              	.LVL8:
  24:main.c        ****     XBEE_PutString(publicar);    
  80              		.loc 1 24 0
  81 004c 201C     		mov	r0, r4
  82 004e FFF7FEFF 		bl	XBEE_PutString
  83              	.LVL9:
  25:main.c        ****     sprintf(publicar, formato, mailbox0[4]);
  84              		.loc 1 25 0
  85 0052 3279     		ldrb	r2, [r6, #4]
  86 0054 201C     		mov	r0, r4
  87 0056 2968     		ldr	r1, [r5]
  88 0058 FFF7FEFF 		bl	sprintf
  89              	.LVL10:
ARM GAS  C:\Users\HENRYA~1\AppData\Local\Temp\ccb5OmGZ.s 			page 3


  26:main.c        ****     XBEE_PutString(publicar);    
  90              		.loc 1 26 0
  91 005c 201C     		mov	r0, r4
  92 005e FFF7FEFF 		bl	XBEE_PutString
  93              	.LVL11:
  27:main.c        ****     sprintf(publicar, formato, mailbox0[5]);
  94              		.loc 1 27 0
  95 0062 7279     		ldrb	r2, [r6, #5]
  96 0064 201C     		mov	r0, r4
  97 0066 2968     		ldr	r1, [r5]
  98 0068 FFF7FEFF 		bl	sprintf
  99              	.LVL12:
  28:main.c        ****     XBEE_PutString(publicar);    
 100              		.loc 1 28 0
 101 006c 201C     		mov	r0, r4
 102 006e FFF7FEFF 		bl	XBEE_PutString
 103              	.LVL13:
  29:main.c        ****     sprintf(publicar, formato, mailbox0[6]);
 104              		.loc 1 29 0
 105 0072 B279     		ldrb	r2, [r6, #6]
 106 0074 201C     		mov	r0, r4
 107 0076 2968     		ldr	r1, [r5]
 108 0078 FFF7FEFF 		bl	sprintf
 109              	.LVL14:
  30:main.c        ****     XBEE_PutString(publicar);    
 110              		.loc 1 30 0
 111 007c 201C     		mov	r0, r4
 112 007e FFF7FEFF 		bl	XBEE_PutString
 113              	.LVL15:
  31:main.c        ****     sprintf(publicar, formato, mailbox0[7]);
 114              		.loc 1 31 0
 115 0082 F279     		ldrb	r2, [r6, #7]
 116 0084 2968     		ldr	r1, [r5]
 117 0086 201C     		mov	r0, r4
 118 0088 FFF7FEFF 		bl	sprintf
 119              	.LVL16:
  32:main.c        ****     XBEE_PutString(publicar); 
 120              		.loc 1 32 0
 121 008c 201C     		mov	r0, r4
 122 008e FFF7FEFF 		bl	XBEE_PutString
 123              	.LVL17:
  33:main.c        ****     XBEE_PutCRLF(0);
 124              		.loc 1 33 0
 125 0092 0020     		mov	r0, #0
 126 0094 FFF7FEFF 		bl	XBEE_PutCRLF
 127              	.LVL18:
  34:main.c        ****     LED_1_Write(0);
 128              		.loc 1 34 0
 129 0098 0020     		mov	r0, #0
 130 009a FFF7FEFF 		bl	LED_1_Write
 131              	.LVL19:
  35:main.c        **** }
 132              		.loc 1 35 0
 133              		@ sp needed
 134 009e 70BD     		pop	{r4, r5, r6, pc}
 135              	.L3:
 136              		.align	2
ARM GAS  C:\Users\HENRYA~1\AppData\Local\Temp\ccb5OmGZ.s 			page 4


 137              	.L2:
 138 00a0 00000000 		.word	mailbox0
 139 00a4 00000000 		.word	publicar
 140 00a8 00000000 		.word	.LANCHOR0
 141              		.cfi_endproc
 142              	.LFE36:
 143              		.size	interrutcan, .-interrutcan
 144              		.section	.text.main,"ax",%progbits
 145              		.align	2
 146              		.global	main
 147              		.code	16
 148              		.thumb_func
 149              		.type	main, %function
 150              	main:
 151              	.LFB37:
  36:main.c        **** 
  37:main.c        **** int main()
  38:main.c        **** {
 152              		.loc 1 38 0
 153              		.cfi_startproc
 154 0000 10B5     		push	{r4, lr}
 155              		.cfi_def_cfa_offset 8
 156              		.cfi_offset 4, -8
 157              		.cfi_offset 14, -4
  39:main.c        ****     CyGlobalIntEnable;    
 158              		.loc 1 39 0
 159              	@ 39 "main.c" 1
 160 0002 62B6     		CPSIE   i
 161              	@ 0 "" 2
  40:main.c        ****     //Init LED's
  41:main.c        ****     LED_1_Write(0);
 162              		.loc 1 41 0
 163              		.code	16
 164 0004 0020     		mov	r0, #0
 165 0006 FFF7FEFF 		bl	LED_1_Write
 166              	.LVL20:
  42:main.c        ****     //Serial Start
  43:main.c        ****     XBEE_Start();
 167              		.loc 1 43 0
 168 000a FFF7FEFF 		bl	XBEE_Start
 169              	.LVL21:
  44:main.c        ****     RESET_XBEE_Write(1);
 170              		.loc 1 44 0
 171 000e 0120     		mov	r0, #1
 172 0010 FFF7FEFF 		bl	RESET_XBEE_Write
 173              	.LVL22:
  45:main.c        ****     ADC_Start();
 174              		.loc 1 45 0
 175 0014 FFF7FEFF 		bl	ADC_Start
 176              	.LVL23:
  46:main.c        ****     ADC_StartConvert();
 177              		.loc 1 46 0
 178 0018 FFF7FEFF 		bl	ADC_StartConvert
 179              	.LVL24:
  47:main.c        ****     ADC_IsEndConversion(ADC_WAIT_FOR_RESULT);
 180              		.loc 1 47 0
 181 001c 0220     		mov	r0, #2
ARM GAS  C:\Users\HENRYA~1\AppData\Local\Temp\ccb5OmGZ.s 			page 5


 182 001e FFF7FEFF 		bl	ADC_IsEndConversion
 183              	.LVL25:
  48:main.c        ****     CAN_Start(); ///  start CAN
 184              		.loc 1 48 0
 185 0022 FFF7FEFF 		bl	CAN_Start
 186              	.LVL26:
  49:main.c        ****     CAN_isr_StartEx(interrutcan);//interrucion can 
 187              		.loc 1 49 0
 188 0026 0848     		ldr	r0, .L6
 189 0028 FFF7FEFF 		bl	CAN_isr_StartEx
 190              	.LVL27:
  50:main.c        ****     CAN_GlobalIntEnable();
 191              		.loc 1 50 0
 192 002c FFF7FEFF 		bl	CAN_GlobalIntEnable
 193              	.LVL28:
 194              	.L5:
  51:main.c        ****     for(;;)
  52:main.c        ****     {
  53:main.c        ****         Conversion=ADC_GetResult16(0);
 195              		.loc 1 53 0 discriminator 1
 196 0030 0020     		mov	r0, #0
 197 0032 FFF7FEFF 		bl	ADC_GetResult16
 198              	.LVL29:
 199 0036 011C     		mov	r1, r0
 200 0038 044C     		ldr	r4, .L6+4
 201 003a 2060     		str	r0, [r4]
  54:main.c        ****         Tension=ADC_CountsTo_Volts(0,Conversion);
 202              		.loc 1 54 0 discriminator 1
 203 003c 0020     		mov	r0, #0
 204 003e FFF7FEFF 		bl	ADC_CountsTo_Volts
 205              	.LVL30:
 206 0042 6060     		str	r0, [r4, #4]
  55:main.c        ****         }
 207              		.loc 1 55 0 discriminator 1
 208 0044 F4E7     		b	.L5
 209              	.L7:
 210 0046 C046     		.align	2
 211              	.L6:
 212 0048 00000000 		.word	interrutcan
 213 004c 00000000 		.word	.LANCHOR1
 214              		.cfi_endproc
 215              	.LFE37:
 216              		.size	main, .-main
 217              		.comm	mailbox0,8,4
 218              		.global	formato
 219              		.comm	publicar,6,4
 220              		.global	Tension
 221              		.global	Conversion
 222              		.comm	dato_recibido,1,1
 223              		.comm	dato_enviado,1,1
 224              		.global	S4
 225              		.global	S3
 226              		.global	S2
 227              		.global	S1
 228              		.data
 229              		.align	2
 230              		.set	.LANCHOR0,. + 0
ARM GAS  C:\Users\HENRYA~1\AppData\Local\Temp\ccb5OmGZ.s 			page 6


 231              		.type	formato, %object
 232              		.size	formato, 4
 233              	formato:
 234 0000 00000000 		.word	.LC5
 235              		.section	.rodata.str1.4,"aMS",%progbits,1
 236              		.align	2
 237              	.LC5:
 238 0000 20256900 		.ascii	" %i\000"
 239              		.bss
 240              		.align	2
 241              		.set	.LANCHOR1,. + 0
 242              		.type	Conversion, %object
 243              		.size	Conversion, 4
 244              	Conversion:
 245 0000 00000000 		.space	4
 246              		.type	Tension, %object
 247              		.size	Tension, 4
 248              	Tension:
 249 0004 00000000 		.space	4
 250              		.type	S4, %object
 251              		.size	S4, 2
 252              	S4:
 253 0008 0000     		.space	2
 254              		.type	S3, %object
 255              		.size	S3, 2
 256              	S3:
 257 000a 0000     		.space	2
 258              		.type	S2, %object
 259              		.size	S2, 2
 260              	S2:
 261 000c 0000     		.space	2
 262              		.type	S1, %object
 263              		.size	S1, 2
 264              	S1:
 265 000e 0000     		.space	2
 266              		.text
 267              	.Letext0:
 268              		.file 2 "Generated_Source\\PSoC4/cytypes.h"
 269              		.file 3 "Generated_Source\\PSoC4/LED_1.h"
 270              		.file 4 "Generated_Source\\PSoC4/XBEE.h"
 271              		.file 5 "Generated_Source\\PSoC4/CAN.h"
 272              		.file 6 "Generated_Source\\PSoC4/RESET_XBEE.h"
 273              		.file 7 "Generated_Source\\PSoC4/ADC.h"
 274              		.file 8 "c:\\program files (x86)\\cypress\\psoc creator\\4.0\\psoc creator\\import\\gnu\\arm\\4.9.
 275              		.file 9 "Generated_Source\\PSoC4/CAN_isr.h"