ARM GAS  C:\Users\HENRYA~1\AppData\Local\Temp\cc3rDxkw.s 			page 1


   1              		.syntax unified
   2              		.cpu cortex-m0
   3              		.fpu softvfp
   4              		.eabi_attribute 20, 1
   5              		.eabi_attribute 21, 1
   6              		.eabi_attribute 23, 3
   7              		.eabi_attribute 24, 1
   8              		.eabi_attribute 25, 1
   9              		.eabi_attribute 26, 1
  10              		.eabi_attribute 30, 1
  11              		.eabi_attribute 34, 0
  12              		.eabi_attribute 18, 4
  13              		.thumb
  14              		.syntax unified
  15              		.file	"cyfitter_cfg.c"
  16              		.text
  17              	.Ltext0:
  18              		.cfi_sections	.debug_frame
  19              		.section	.text.cfg_write_bytes32,"ax",%progbits
  20              		.align	2
  21              		.code	16
  22              		.thumb_func
  23              		.type	cfg_write_bytes32, %function
  24              	cfg_write_bytes32:
  25              	.LFB4:
  26              		.file 1 "Generated_Source\\PSoC4\\cyfitter_cfg.c"
   1:Generated_Source\PSoC4/cyfitter_cfg.c **** 
   2:Generated_Source\PSoC4/cyfitter_cfg.c **** /*******************************************************************************
   3:Generated_Source\PSoC4/cyfitter_cfg.c **** * File Name: cyfitter_cfg.c
   4:Generated_Source\PSoC4/cyfitter_cfg.c **** * 
   5:Generated_Source\PSoC4/cyfitter_cfg.c **** * PSoC Creator  4.1 Update 1
   6:Generated_Source\PSoC4/cyfitter_cfg.c **** *
   7:Generated_Source\PSoC4/cyfitter_cfg.c **** * Description:
   8:Generated_Source\PSoC4/cyfitter_cfg.c **** * This file contains device initialization code.
   9:Generated_Source\PSoC4/cyfitter_cfg.c **** * Except for the user defined sections in CyClockStartupError(), this file should not be modified.
  10:Generated_Source\PSoC4/cyfitter_cfg.c **** * This file is automatically generated by PSoC Creator.
  11:Generated_Source\PSoC4/cyfitter_cfg.c **** *
  12:Generated_Source\PSoC4/cyfitter_cfg.c **** ********************************************************************************
  13:Generated_Source\PSoC4/cyfitter_cfg.c **** * Copyright (c) 2007-2017 Cypress Semiconductor.  All rights reserved.
  14:Generated_Source\PSoC4/cyfitter_cfg.c **** * You may use this file only in accordance with the license, terms, conditions, 
  15:Generated_Source\PSoC4/cyfitter_cfg.c **** * disclaimers, and limitations in the end user license agreement accompanying 
  16:Generated_Source\PSoC4/cyfitter_cfg.c **** * the software package with which this file was provided.
  17:Generated_Source\PSoC4/cyfitter_cfg.c **** ********************************************************************************/
  18:Generated_Source\PSoC4/cyfitter_cfg.c **** 
  19:Generated_Source\PSoC4/cyfitter_cfg.c **** #include <string.h>
  20:Generated_Source\PSoC4/cyfitter_cfg.c **** #include "cytypes.h"
  21:Generated_Source\PSoC4/cyfitter_cfg.c **** #include "cydevice_trm.h"
  22:Generated_Source\PSoC4/cyfitter_cfg.c **** #include "cyfitter.h"
  23:Generated_Source\PSoC4/cyfitter_cfg.c **** #include "CyLib.h"
  24:Generated_Source\PSoC4/cyfitter_cfg.c **** #include "CyLFClk.h"
  25:Generated_Source\PSoC4/cyfitter_cfg.c **** #include "cyfitter_cfg.h"
  26:Generated_Source\PSoC4/cyfitter_cfg.c **** #include "cyapicallbacks.h"
  27:Generated_Source\PSoC4/cyfitter_cfg.c **** 
  28:Generated_Source\PSoC4/cyfitter_cfg.c **** 
  29:Generated_Source\PSoC4/cyfitter_cfg.c **** #if defined(__GNUC__) || defined(__ARMCC_VERSION)
  30:Generated_Source\PSoC4/cyfitter_cfg.c ****     #define CYPACKED 
  31:Generated_Source\PSoC4/cyfitter_cfg.c ****     #define CYPACKED_ATTR __attribute__ ((packed))
ARM GAS  C:\Users\HENRYA~1\AppData\Local\Temp\cc3rDxkw.s 			page 2


  32:Generated_Source\PSoC4/cyfitter_cfg.c ****     #define CYALIGNED __attribute__ ((aligned))
  33:Generated_Source\PSoC4/cyfitter_cfg.c ****     #define CY_CFG_UNUSED __attribute__ ((unused))
  34:Generated_Source\PSoC4/cyfitter_cfg.c ****     #ifndef CY_CFG_SECTION
  35:Generated_Source\PSoC4/cyfitter_cfg.c ****         #define CY_CFG_SECTION __attribute__ ((section(".psocinit")))
  36:Generated_Source\PSoC4/cyfitter_cfg.c ****     #endif
  37:Generated_Source\PSoC4/cyfitter_cfg.c ****     
  38:Generated_Source\PSoC4/cyfitter_cfg.c ****     #if defined(__ARMCC_VERSION)
  39:Generated_Source\PSoC4/cyfitter_cfg.c ****         #define CY_CFG_MEMORY_BARRIER() __memory_changed()
  40:Generated_Source\PSoC4/cyfitter_cfg.c ****     #else
  41:Generated_Source\PSoC4/cyfitter_cfg.c ****         #define CY_CFG_MEMORY_BARRIER() __sync_synchronize()
  42:Generated_Source\PSoC4/cyfitter_cfg.c ****     #endif
  43:Generated_Source\PSoC4/cyfitter_cfg.c ****     
  44:Generated_Source\PSoC4/cyfitter_cfg.c **** #elif defined(__ICCARM__)
  45:Generated_Source\PSoC4/cyfitter_cfg.c ****     #include <intrinsics.h>
  46:Generated_Source\PSoC4/cyfitter_cfg.c **** 
  47:Generated_Source\PSoC4/cyfitter_cfg.c ****     #define CYPACKED __packed
  48:Generated_Source\PSoC4/cyfitter_cfg.c ****     #define CYPACKED_ATTR 
  49:Generated_Source\PSoC4/cyfitter_cfg.c ****     #define CYALIGNED _Pragma("data_alignment=4")
  50:Generated_Source\PSoC4/cyfitter_cfg.c ****     #define CY_CFG_UNUSED _Pragma("diag_suppress=Pe177")
  51:Generated_Source\PSoC4/cyfitter_cfg.c ****     #define CY_CFG_SECTION _Pragma("location=\".psocinit\"")
  52:Generated_Source\PSoC4/cyfitter_cfg.c ****     
  53:Generated_Source\PSoC4/cyfitter_cfg.c ****     #define CY_CFG_MEMORY_BARRIER() __DMB()
  54:Generated_Source\PSoC4/cyfitter_cfg.c ****     
  55:Generated_Source\PSoC4/cyfitter_cfg.c **** #else
  56:Generated_Source\PSoC4/cyfitter_cfg.c ****     #error Unsupported toolchain
  57:Generated_Source\PSoC4/cyfitter_cfg.c **** #endif
  58:Generated_Source\PSoC4/cyfitter_cfg.c **** 
  59:Generated_Source\PSoC4/cyfitter_cfg.c **** #ifndef CYCODE
  60:Generated_Source\PSoC4/cyfitter_cfg.c ****     #define CYCODE
  61:Generated_Source\PSoC4/cyfitter_cfg.c **** #endif
  62:Generated_Source\PSoC4/cyfitter_cfg.c **** #ifndef CYDATA
  63:Generated_Source\PSoC4/cyfitter_cfg.c ****     #define CYDATA
  64:Generated_Source\PSoC4/cyfitter_cfg.c **** #endif
  65:Generated_Source\PSoC4/cyfitter_cfg.c **** #ifndef CYFAR
  66:Generated_Source\PSoC4/cyfitter_cfg.c ****     #define CYFAR
  67:Generated_Source\PSoC4/cyfitter_cfg.c **** #endif
  68:Generated_Source\PSoC4/cyfitter_cfg.c **** #ifndef CYXDATA
  69:Generated_Source\PSoC4/cyfitter_cfg.c ****     #define CYXDATA
  70:Generated_Source\PSoC4/cyfitter_cfg.c **** #endif
  71:Generated_Source\PSoC4/cyfitter_cfg.c **** 
  72:Generated_Source\PSoC4/cyfitter_cfg.c **** 
  73:Generated_Source\PSoC4/cyfitter_cfg.c **** CY_CFG_UNUSED
  74:Generated_Source\PSoC4/cyfitter_cfg.c **** static void CYMEMZERO(void *s, size_t n);
  75:Generated_Source\PSoC4/cyfitter_cfg.c **** CY_CFG_UNUSED
  76:Generated_Source\PSoC4/cyfitter_cfg.c **** static void CYMEMZERO(void *s, size_t n)
  77:Generated_Source\PSoC4/cyfitter_cfg.c **** {
  78:Generated_Source\PSoC4/cyfitter_cfg.c **** 	(void)memset(s, 0, n);
  79:Generated_Source\PSoC4/cyfitter_cfg.c **** }
  80:Generated_Source\PSoC4/cyfitter_cfg.c **** CY_CFG_UNUSED
  81:Generated_Source\PSoC4/cyfitter_cfg.c **** static void CYCONFIGCPY(void *dest, const void *src, size_t n);
  82:Generated_Source\PSoC4/cyfitter_cfg.c **** CY_CFG_UNUSED
  83:Generated_Source\PSoC4/cyfitter_cfg.c **** static void CYCONFIGCPY(void *dest, const void *src, size_t n)
  84:Generated_Source\PSoC4/cyfitter_cfg.c **** {
  85:Generated_Source\PSoC4/cyfitter_cfg.c **** 	(void)memcpy(dest, src, n);
  86:Generated_Source\PSoC4/cyfitter_cfg.c **** }
  87:Generated_Source\PSoC4/cyfitter_cfg.c **** CY_CFG_UNUSED
  88:Generated_Source\PSoC4/cyfitter_cfg.c **** static void CYCONFIGCPYCODE(void *dest, const void *src, size_t n);
ARM GAS  C:\Users\HENRYA~1\AppData\Local\Temp\cc3rDxkw.s 			page 3


  89:Generated_Source\PSoC4/cyfitter_cfg.c **** CY_CFG_UNUSED
  90:Generated_Source\PSoC4/cyfitter_cfg.c **** static void CYCONFIGCPYCODE(void *dest, const void *src, size_t n)
  91:Generated_Source\PSoC4/cyfitter_cfg.c **** {
  92:Generated_Source\PSoC4/cyfitter_cfg.c **** 	(void)memcpy(dest, src, n);
  93:Generated_Source\PSoC4/cyfitter_cfg.c **** }
  94:Generated_Source\PSoC4/cyfitter_cfg.c **** 
  95:Generated_Source\PSoC4/cyfitter_cfg.c **** 
  96:Generated_Source\PSoC4/cyfitter_cfg.c **** 
  97:Generated_Source\PSoC4/cyfitter_cfg.c **** 
  98:Generated_Source\PSoC4/cyfitter_cfg.c **** /* Clock startup error codes                                                   */
  99:Generated_Source\PSoC4/cyfitter_cfg.c **** #define CYCLOCKSTART_NO_ERROR    0u
 100:Generated_Source\PSoC4/cyfitter_cfg.c **** #define CYCLOCKSTART_XTAL_ERROR  1u
 101:Generated_Source\PSoC4/cyfitter_cfg.c **** #define CYCLOCKSTART_32KHZ_ERROR 2u
 102:Generated_Source\PSoC4/cyfitter_cfg.c **** #define CYCLOCKSTART_PLL_ERROR   3u
 103:Generated_Source\PSoC4/cyfitter_cfg.c **** #define CYCLOCKSTART_FLL_ERROR   4u
 104:Generated_Source\PSoC4/cyfitter_cfg.c **** 
 105:Generated_Source\PSoC4/cyfitter_cfg.c **** 
 106:Generated_Source\PSoC4/cyfitter_cfg.c **** #ifdef CY_NEED_CYCLOCKSTARTUPERROR
 107:Generated_Source\PSoC4/cyfitter_cfg.c **** /*******************************************************************************
 108:Generated_Source\PSoC4/cyfitter_cfg.c **** * Function Name: CyClockStartupError
 109:Generated_Source\PSoC4/cyfitter_cfg.c **** ********************************************************************************
 110:Generated_Source\PSoC4/cyfitter_cfg.c **** * Summary:
 111:Generated_Source\PSoC4/cyfitter_cfg.c **** *  If an error is encountered during clock configuration (crystal startup error,
 112:Generated_Source\PSoC4/cyfitter_cfg.c **** *  PLL lock error, etc.), the system will end up here.  Unless reimplemented by
 113:Generated_Source\PSoC4/cyfitter_cfg.c **** *  the customer, this function will stop in an infinite loop.
 114:Generated_Source\PSoC4/cyfitter_cfg.c **** *
 115:Generated_Source\PSoC4/cyfitter_cfg.c **** * Parameters:
 116:Generated_Source\PSoC4/cyfitter_cfg.c **** *   void
 117:Generated_Source\PSoC4/cyfitter_cfg.c **** *
 118:Generated_Source\PSoC4/cyfitter_cfg.c **** * Return:
 119:Generated_Source\PSoC4/cyfitter_cfg.c **** *   void
 120:Generated_Source\PSoC4/cyfitter_cfg.c **** *
 121:Generated_Source\PSoC4/cyfitter_cfg.c **** *******************************************************************************/
 122:Generated_Source\PSoC4/cyfitter_cfg.c **** CY_CFG_UNUSED
 123:Generated_Source\PSoC4/cyfitter_cfg.c **** static void CyClockStartupError(uint8 errorCode);
 124:Generated_Source\PSoC4/cyfitter_cfg.c **** CY_CFG_UNUSED
 125:Generated_Source\PSoC4/cyfitter_cfg.c **** static void CyClockStartupError(uint8 errorCode)
 126:Generated_Source\PSoC4/cyfitter_cfg.c **** {
 127:Generated_Source\PSoC4/cyfitter_cfg.c ****     /* To remove the compiler warning if errorCode not used. */
 128:Generated_Source\PSoC4/cyfitter_cfg.c **** #if defined(CY_PSOC3) && (CY_PSOC3)
 129:Generated_Source\PSoC4/cyfitter_cfg.c ****     errorCode = errorCode;
 130:Generated_Source\PSoC4/cyfitter_cfg.c **** #else
 131:Generated_Source\PSoC4/cyfitter_cfg.c ****     (void)errorCode;
 132:Generated_Source\PSoC4/cyfitter_cfg.c **** #endif /* CY_PSOC3 */
 133:Generated_Source\PSoC4/cyfitter_cfg.c **** 
 134:Generated_Source\PSoC4/cyfitter_cfg.c ****     /* If we have a clock startup error (bad MHz crystal, PLL lock, etc.),  */
 135:Generated_Source\PSoC4/cyfitter_cfg.c ****     /* we will end up here to allow the customer to implement something to  */
 136:Generated_Source\PSoC4/cyfitter_cfg.c ****     /* deal with the clock condition.                                       */
 137:Generated_Source\PSoC4/cyfitter_cfg.c **** 
 138:Generated_Source\PSoC4/cyfitter_cfg.c **** #ifdef CY_CFG_CLOCK_STARTUP_ERROR_CALLBACK
 139:Generated_Source\PSoC4/cyfitter_cfg.c ****     CY_CFG_Clock_Startup_ErrorCallback();
 140:Generated_Source\PSoC4/cyfitter_cfg.c **** #else
 141:Generated_Source\PSoC4/cyfitter_cfg.c ****     /*  If not using CY_CFG_CLOCK_STARTUP_ERROR_CALLBACK, place your clock startup code here. */
 142:Generated_Source\PSoC4/cyfitter_cfg.c ****     /* `#START CyClockStartupError` */
 143:Generated_Source\PSoC4/cyfitter_cfg.c **** 
 144:Generated_Source\PSoC4/cyfitter_cfg.c ****     /* If we have a clock startup error (bad MHz crystal, PLL lock, etc.),  */
 145:Generated_Source\PSoC4/cyfitter_cfg.c ****     /* we will end up here to allow the customer to implement something to  */
ARM GAS  C:\Users\HENRYA~1\AppData\Local\Temp\cc3rDxkw.s 			page 4


 146:Generated_Source\PSoC4/cyfitter_cfg.c ****     /* deal with the clock condition.                                       */
 147:Generated_Source\PSoC4/cyfitter_cfg.c **** 
 148:Generated_Source\PSoC4/cyfitter_cfg.c ****     /* `#END` */
 149:Generated_Source\PSoC4/cyfitter_cfg.c **** 
 150:Generated_Source\PSoC4/cyfitter_cfg.c ****     while(1) {}
 151:Generated_Source\PSoC4/cyfitter_cfg.c **** #endif /* CY_CFG_CLOCK_STARTUP_ERROR_CALLBACK */
 152:Generated_Source\PSoC4/cyfitter_cfg.c **** }
 153:Generated_Source\PSoC4/cyfitter_cfg.c **** #endif
 154:Generated_Source\PSoC4/cyfitter_cfg.c **** 
 155:Generated_Source\PSoC4/cyfitter_cfg.c **** #define CY_CFG_BASE_ADDR_COUNT 10u
 156:Generated_Source\PSoC4/cyfitter_cfg.c **** CYPACKED typedef struct
 157:Generated_Source\PSoC4/cyfitter_cfg.c **** {
 158:Generated_Source\PSoC4/cyfitter_cfg.c **** 	uint8 offset;
 159:Generated_Source\PSoC4/cyfitter_cfg.c **** 	uint8 value;
 160:Generated_Source\PSoC4/cyfitter_cfg.c **** } CYPACKED_ATTR cy_cfg_addrvalue_t;
 161:Generated_Source\PSoC4/cyfitter_cfg.c **** 
 162:Generated_Source\PSoC4/cyfitter_cfg.c **** 
 163:Generated_Source\PSoC4/cyfitter_cfg.c **** 
 164:Generated_Source\PSoC4/cyfitter_cfg.c **** /*******************************************************************************
 165:Generated_Source\PSoC4/cyfitter_cfg.c **** * Function Name: cfg_write_bytes32
 166:Generated_Source\PSoC4/cyfitter_cfg.c **** ********************************************************************************
 167:Generated_Source\PSoC4/cyfitter_cfg.c **** * Summary:
 168:Generated_Source\PSoC4/cyfitter_cfg.c **** *  This function is used for setting up the chip configuration areas that
 169:Generated_Source\PSoC4/cyfitter_cfg.c **** *  contain relatively sparse data.
 170:Generated_Source\PSoC4/cyfitter_cfg.c **** *
 171:Generated_Source\PSoC4/cyfitter_cfg.c **** * Parameters:
 172:Generated_Source\PSoC4/cyfitter_cfg.c **** *   void
 173:Generated_Source\PSoC4/cyfitter_cfg.c **** *
 174:Generated_Source\PSoC4/cyfitter_cfg.c **** * Return:
 175:Generated_Source\PSoC4/cyfitter_cfg.c **** *   void
 176:Generated_Source\PSoC4/cyfitter_cfg.c **** *
 177:Generated_Source\PSoC4/cyfitter_cfg.c **** *******************************************************************************/
 178:Generated_Source\PSoC4/cyfitter_cfg.c **** static void cfg_write_bytes32(const uint32 addr_table[], const cy_cfg_addrvalue_t data_table[]);
 179:Generated_Source\PSoC4/cyfitter_cfg.c **** static void cfg_write_bytes32(const uint32 addr_table[], const cy_cfg_addrvalue_t data_table[])
 180:Generated_Source\PSoC4/cyfitter_cfg.c **** {
  27              		.loc 1 180 0
  28              		.cfi_startproc
  29              		@ args = 0, pretend = 0, frame = 0
  30              		@ frame_needed = 0, uses_anonymous_args = 0
  31              	.LVL0:
  32 0000 F0B5     		push	{r4, r5, r6, r7, lr}
  33              		.cfi_def_cfa_offset 20
  34              		.cfi_offset 4, -20
  35              		.cfi_offset 5, -16
  36              		.cfi_offset 6, -12
  37              		.cfi_offset 7, -8
  38              		.cfi_offset 14, -4
  39              	.LVL1:
 181:Generated_Source\PSoC4/cyfitter_cfg.c **** 	/* For 32-bit little-endian architectures */
 182:Generated_Source\PSoC4/cyfitter_cfg.c **** 	uint32 i, j = 0u;
  40              		.loc 1 182 0
  41 0002 0025     		movs	r5, #0
 183:Generated_Source\PSoC4/cyfitter_cfg.c **** 	for (i = 0u; i < CY_CFG_BASE_ADDR_COUNT; i++)
  42              		.loc 1 183 0
  43 0004 0027     		movs	r7, #0
  44 0006 11E0     		b	.L2
  45              	.LVL2:
ARM GAS  C:\Users\HENRYA~1\AppData\Local\Temp\cc3rDxkw.s 			page 5


  46              	.L5:
  47              	.LBB2:
 184:Generated_Source\PSoC4/cyfitter_cfg.c **** 	{
 185:Generated_Source\PSoC4/cyfitter_cfg.c **** 		uint32 baseAddr = addr_table[i];
  48              		.loc 1 185 0
  49 0008 BB00     		lsls	r3, r7, #2
  50 000a C658     		ldr	r6, [r0, r3]
  51              	.LVL3:
 186:Generated_Source\PSoC4/cyfitter_cfg.c **** 		uint8 count = (uint8)baseAddr;
  52              		.loc 1 186 0
  53 000c F3B2     		uxtb	r3, r6
  54              	.LVL4:
 187:Generated_Source\PSoC4/cyfitter_cfg.c **** 		baseAddr &= 0xFFFFFF00u;
  55              		.loc 1 187 0
  56 000e FF22     		movs	r2, #255
  57 0010 9643     		bics	r6, r2
  58              	.LVL5:
 188:Generated_Source\PSoC4/cyfitter_cfg.c **** 		while (count != 0u)
  59              		.loc 1 188 0
  60 0012 08E0     		b	.L3
  61              	.L4:
 189:Generated_Source\PSoC4/cyfitter_cfg.c **** 		{
 190:Generated_Source\PSoC4/cyfitter_cfg.c **** 			CY_SET_REG8((void *)(baseAddr + data_table[j].offset), data_table[j].value);
  62              		.loc 1 190 0
  63 0014 6A00     		lsls	r2, r5, #1
  64 0016 8A18     		adds	r2, r1, r2
  65 0018 1478     		ldrb	r4, [r2]
  66 001a A419     		adds	r4, r4, r6
  67 001c 5278     		ldrb	r2, [r2, #1]
  68 001e 2270     		strb	r2, [r4]
 191:Generated_Source\PSoC4/cyfitter_cfg.c **** 			j++;
  69              		.loc 1 191 0
  70 0020 0135     		adds	r5, r5, #1
  71              	.LVL6:
 192:Generated_Source\PSoC4/cyfitter_cfg.c **** 			count--;
  72              		.loc 1 192 0
  73 0022 013B     		subs	r3, r3, #1
  74              	.LVL7:
  75 0024 DBB2     		uxtb	r3, r3
  76              	.LVL8:
  77              	.L3:
 188:Generated_Source\PSoC4/cyfitter_cfg.c **** 		{
  78              		.loc 1 188 0
  79 0026 002B     		cmp	r3, #0
  80 0028 F4D1     		bne	.L4
  81              	.LBE2:
 183:Generated_Source\PSoC4/cyfitter_cfg.c **** 	{
  82              		.loc 1 183 0 discriminator 2
  83 002a 0137     		adds	r7, r7, #1
  84              	.LVL9:
  85              	.L2:
 183:Generated_Source\PSoC4/cyfitter_cfg.c **** 	{
  86              		.loc 1 183 0 is_stmt 0 discriminator 1
  87 002c 092F     		cmp	r7, #9
  88 002e EBD9     		bls	.L5
 193:Generated_Source\PSoC4/cyfitter_cfg.c **** 		}
 194:Generated_Source\PSoC4/cyfitter_cfg.c **** 	}
ARM GAS  C:\Users\HENRYA~1\AppData\Local\Temp\cc3rDxkw.s 			page 6


 195:Generated_Source\PSoC4/cyfitter_cfg.c **** }
  89              		.loc 1 195 0 is_stmt 1
  90              		@ sp needed
  91              	.LVL10:
  92              	.LVL11:
  93 0030 F0BD     		pop	{r4, r5, r6, r7, pc}
  94              		.cfi_endproc
  95              	.LFE4:
  96              		.size	cfg_write_bytes32, .-cfg_write_bytes32
  97 0032 C046     		.section	.text.AnalogSetDefault,"ax",%progbits
  98              		.align	2
  99              		.code	16
 100              		.thumb_func
 101              		.type	AnalogSetDefault, %function
 102              	AnalogSetDefault:
 103              	.LFB6:
 196:Generated_Source\PSoC4/cyfitter_cfg.c **** 
 197:Generated_Source\PSoC4/cyfitter_cfg.c **** 
 198:Generated_Source\PSoC4/cyfitter_cfg.c **** /*******************************************************************************
 199:Generated_Source\PSoC4/cyfitter_cfg.c **** * Function Name: ClockSetup
 200:Generated_Source\PSoC4/cyfitter_cfg.c **** ********************************************************************************
 201:Generated_Source\PSoC4/cyfitter_cfg.c **** *
 202:Generated_Source\PSoC4/cyfitter_cfg.c **** * Summary:
 203:Generated_Source\PSoC4/cyfitter_cfg.c **** *   Performs the initialization of all of the clocks in the device based on the
 204:Generated_Source\PSoC4/cyfitter_cfg.c **** *   settings in the Clock tab of the DWR.  This includes enabling the requested
 205:Generated_Source\PSoC4/cyfitter_cfg.c **** *   clocks and setting the necessary dividers to produce the desired frequency. 
 206:Generated_Source\PSoC4/cyfitter_cfg.c **** *
 207:Generated_Source\PSoC4/cyfitter_cfg.c **** * Parameters:
 208:Generated_Source\PSoC4/cyfitter_cfg.c **** *   void
 209:Generated_Source\PSoC4/cyfitter_cfg.c **** *
 210:Generated_Source\PSoC4/cyfitter_cfg.c **** * Return:
 211:Generated_Source\PSoC4/cyfitter_cfg.c **** *   void
 212:Generated_Source\PSoC4/cyfitter_cfg.c **** *
 213:Generated_Source\PSoC4/cyfitter_cfg.c **** *******************************************************************************/
 214:Generated_Source\PSoC4/cyfitter_cfg.c **** static void ClockSetup(void);
 215:Generated_Source\PSoC4/cyfitter_cfg.c **** CY_CFG_SECTION
 216:Generated_Source\PSoC4/cyfitter_cfg.c **** static void ClockSetup(void)
 217:Generated_Source\PSoC4/cyfitter_cfg.c **** {
 218:Generated_Source\PSoC4/cyfitter_cfg.c **** 
 219:Generated_Source\PSoC4/cyfitter_cfg.c **** 	/* Set Flash Cycles based on max possible frequency in case a glitch occurs during ClockSetup(). *
 220:Generated_Source\PSoC4/cyfitter_cfg.c **** 	CY_SET_REG32((void CYXDATA *)(CYREG_CPUSS_FLASH_CTL), (0x0012u));
 221:Generated_Source\PSoC4/cyfitter_cfg.c **** 
 222:Generated_Source\PSoC4/cyfitter_cfg.c **** 	/* Start the WCO */
 223:Generated_Source\PSoC4/cyfitter_cfg.c **** 	CySysClkWcoStart();
 224:Generated_Source\PSoC4/cyfitter_cfg.c **** 	CyDelayCycles(12000000u); /* WCO may take up to 500ms to start */
 225:Generated_Source\PSoC4/cyfitter_cfg.c **** 
 226:Generated_Source\PSoC4/cyfitter_cfg.c **** 	/* Setup and trim IMO based on desired frequency. */
 227:Generated_Source\PSoC4/cyfitter_cfg.c **** 	CySysClkWriteImoFreq(24u);
 228:Generated_Source\PSoC4/cyfitter_cfg.c **** 	CySysClkImoEnableWcoLock();
 229:Generated_Source\PSoC4/cyfitter_cfg.c **** 	/* CYDEV_CLK_ILO_CONFIG Starting address: CYDEV_CLK_ILO_CONFIG */
 230:Generated_Source\PSoC4/cyfitter_cfg.c **** 	CY_SET_REG32((void *)(CYREG_CLK_ILO_CONFIG), 0x80000006u);
 231:Generated_Source\PSoC4/cyfitter_cfg.c **** 
 232:Generated_Source\PSoC4/cyfitter_cfg.c **** 	/* CYDEV_WDT_CONFIG Starting address: CYDEV_WDT_CONFIG */
 233:Generated_Source\PSoC4/cyfitter_cfg.c **** 	CY_SET_REG32((void *)(CYREG_WDT_CONFIG), 0x40000000u);
 234:Generated_Source\PSoC4/cyfitter_cfg.c **** 
 235:Generated_Source\PSoC4/cyfitter_cfg.c **** 
 236:Generated_Source\PSoC4/cyfitter_cfg.c **** 	/* Setup phase aligned clocks */
ARM GAS  C:\Users\HENRYA~1\AppData\Local\Temp\cc3rDxkw.s 			page 7


 237:Generated_Source\PSoC4/cyfitter_cfg.c **** 	CY_SET_REG32((void *)CYREG_PERI_DIV_16_CTL0, 0x00000000u);
 238:Generated_Source\PSoC4/cyfitter_cfg.c **** 	CY_SET_REG32((void *)CYREG_PERI_DIV_CMD, 0x8000FF40u);
 239:Generated_Source\PSoC4/cyfitter_cfg.c **** 	CY_SET_REG32((void *)CYREG_PERI_DIV_16_CTL2, 0x005DBF00u);
 240:Generated_Source\PSoC4/cyfitter_cfg.c **** 	CY_SET_REG32((void *)CYREG_PERI_DIV_CMD, 0x8000FF42u);
 241:Generated_Source\PSoC4/cyfitter_cfg.c **** 	CY_SET_REG32((void *)CYREG_PERI_DIV_16_CTL1, 0x00013800u);
 242:Generated_Source\PSoC4/cyfitter_cfg.c **** 	CY_SET_REG32((void *)CYREG_PERI_DIV_CMD, 0x8000FF41u);
 243:Generated_Source\PSoC4/cyfitter_cfg.c **** 
 244:Generated_Source\PSoC4/cyfitter_cfg.c **** 	/* CYDEV_CLK_IMO_CONFIG Starting address: CYDEV_CLK_IMO_CONFIG */
 245:Generated_Source\PSoC4/cyfitter_cfg.c **** 	CY_SET_REG32((void *)(CYREG_CLK_IMO_CONFIG), 0x80000000u);
 246:Generated_Source\PSoC4/cyfitter_cfg.c **** 
 247:Generated_Source\PSoC4/cyfitter_cfg.c **** 	/* CYDEV_CLK_SELECT Starting address: CYDEV_CLK_SELECT */
 248:Generated_Source\PSoC4/cyfitter_cfg.c **** 	CY_SET_REG32((void *)(CYREG_CLK_SELECT), 0x00000000u);
 249:Generated_Source\PSoC4/cyfitter_cfg.c **** 
 250:Generated_Source\PSoC4/cyfitter_cfg.c **** 	/* CYDEV_PERI_PCLK_CTL22 Starting address: CYDEV_PERI_PCLK_CTL22 */
 251:Generated_Source\PSoC4/cyfitter_cfg.c **** 	CY_SET_REG32((void *)(CYREG_PERI_PCLK_CTL22), 0x00000042u);
 252:Generated_Source\PSoC4/cyfitter_cfg.c **** 
 253:Generated_Source\PSoC4/cyfitter_cfg.c **** 	/* CYDEV_PERI_PCLK_CTL20 Starting address: CYDEV_PERI_PCLK_CTL20 */
 254:Generated_Source\PSoC4/cyfitter_cfg.c **** 	CY_SET_REG32((void *)(CYREG_PERI_PCLK_CTL20), 0x00000041u);
 255:Generated_Source\PSoC4/cyfitter_cfg.c **** 
 256:Generated_Source\PSoC4/cyfitter_cfg.c **** 	(void)CyIntSetVector(7u, &CySysWdtIsr);
 257:Generated_Source\PSoC4/cyfitter_cfg.c **** 	CyIntEnable(7u);
 258:Generated_Source\PSoC4/cyfitter_cfg.c **** 	CY_SET_REG32((void *)(CYREG_WDT_CONFIG), 0x40000000u);
 259:Generated_Source\PSoC4/cyfitter_cfg.c **** 	/* Set Flash Cycles based on newly configured 24.00MHz HFCLK. */
 260:Generated_Source\PSoC4/cyfitter_cfg.c **** 	CY_SET_REG32((void CYXDATA *)(CYREG_CPUSS_FLASH_CTL), (0x0011u));
 261:Generated_Source\PSoC4/cyfitter_cfg.c **** }
 262:Generated_Source\PSoC4/cyfitter_cfg.c **** 
 263:Generated_Source\PSoC4/cyfitter_cfg.c **** 
 264:Generated_Source\PSoC4/cyfitter_cfg.c **** /* Analog API Functions */
 265:Generated_Source\PSoC4/cyfitter_cfg.c **** 
 266:Generated_Source\PSoC4/cyfitter_cfg.c **** 
 267:Generated_Source\PSoC4/cyfitter_cfg.c **** /*******************************************************************************
 268:Generated_Source\PSoC4/cyfitter_cfg.c **** * Function Name: AnalogSetDefault
 269:Generated_Source\PSoC4/cyfitter_cfg.c **** ********************************************************************************
 270:Generated_Source\PSoC4/cyfitter_cfg.c **** *
 271:Generated_Source\PSoC4/cyfitter_cfg.c **** * Summary:
 272:Generated_Source\PSoC4/cyfitter_cfg.c **** *  Sets up the analog portions of the chip to default values based on chip
 273:Generated_Source\PSoC4/cyfitter_cfg.c **** *  configuration options from the project.
 274:Generated_Source\PSoC4/cyfitter_cfg.c **** *
 275:Generated_Source\PSoC4/cyfitter_cfg.c **** * Parameters:
 276:Generated_Source\PSoC4/cyfitter_cfg.c **** *  void
 277:Generated_Source\PSoC4/cyfitter_cfg.c **** *
 278:Generated_Source\PSoC4/cyfitter_cfg.c **** * Return:
 279:Generated_Source\PSoC4/cyfitter_cfg.c **** *  void
 280:Generated_Source\PSoC4/cyfitter_cfg.c **** *
 281:Generated_Source\PSoC4/cyfitter_cfg.c **** *******************************************************************************/
 282:Generated_Source\PSoC4/cyfitter_cfg.c **** static void AnalogSetDefault(void);
 283:Generated_Source\PSoC4/cyfitter_cfg.c **** static void AnalogSetDefault(void)
 284:Generated_Source\PSoC4/cyfitter_cfg.c **** {
 104              		.loc 1 284 0
 105              		.cfi_startproc
 106              		@ args = 0, pretend = 0, frame = 0
 107              		@ frame_needed = 0, uses_anonymous_args = 0
 108              		@ link register save eliminated.
 285:Generated_Source\PSoC4/cyfitter_cfg.c **** 	CY_SET_XTND_REG32((void CYFAR *)CYREG_CTBM0_DFT_CTRL, 0x00000003u);
 109              		.loc 1 285 0
 110 0000 0323     		movs	r3, #3
 111 0002 044A     		ldr	r2, .L7
ARM GAS  C:\Users\HENRYA~1\AppData\Local\Temp\cc3rDxkw.s 			page 8


 112 0004 1360     		str	r3, [r2]
 286:Generated_Source\PSoC4/cyfitter_cfg.c **** 	CY_SET_XTND_REG32((void CYFAR *)CYREG_CTBM1_DFT_CTRL, 0x00000003u);
 113              		.loc 1 286 0
 114 0006 044A     		ldr	r2, .L7+4
 115 0008 1360     		str	r3, [r2]
 287:Generated_Source\PSoC4/cyfitter_cfg.c **** 	CY_SET_XTND_REG32((void CYFAR *)CYREG_PASS_DSAB_DSAB_CTRL, 0x00000000u);
 116              		.loc 1 287 0
 117 000a 0022     		movs	r2, #0
 118 000c 034B     		ldr	r3, .L7+8
 119 000e 1A60     		str	r2, [r3]
 288:Generated_Source\PSoC4/cyfitter_cfg.c **** }
 120              		.loc 1 288 0
 121              		@ sp needed
 122 0010 7047     		bx	lr
 123              	.L8:
 124 0012 C046     		.align	2
 125              	.L7:
 126 0014 30003040 		.word	1076887600
 127 0018 30003140 		.word	1076953136
 128 001c 000E3F40 		.word	1077874176
 129              		.cfi_endproc
 130              	.LFE6:
 131              		.size	AnalogSetDefault, .-AnalogSetDefault
 132              		.section	.text.CYMEMZERO,"ax",%progbits
 133              		.align	2
 134              		.code	16
 135              		.thumb_func
 136              		.type	CYMEMZERO, %function
 137              	CYMEMZERO:
 138              	.LFB1:
  77:Generated_Source\PSoC4/cyfitter_cfg.c **** 	(void)memset(s, 0, n);
 139              		.loc 1 77 0
 140              		.cfi_startproc
 141              		@ args = 0, pretend = 0, frame = 0
 142              		@ frame_needed = 0, uses_anonymous_args = 0
 143              	.LVL12:
 144 0000 10B5     		push	{r4, lr}
 145              		.cfi_def_cfa_offset 8
 146              		.cfi_offset 4, -8
 147              		.cfi_offset 14, -4
 148 0002 0A00     		movs	r2, r1
  78:Generated_Source\PSoC4/cyfitter_cfg.c **** }
 149              		.loc 1 78 0
 150 0004 0021     		movs	r1, #0
 151              	.LVL13:
 152 0006 FFF7FEFF 		bl	memset
 153              	.LVL14:
  79:Generated_Source\PSoC4/cyfitter_cfg.c **** CY_CFG_UNUSED
 154              		.loc 1 79 0
 155              		@ sp needed
 156 000a 10BD     		pop	{r4, pc}
 157              		.cfi_endproc
 158              	.LFE1:
 159              		.size	CYMEMZERO, .-CYMEMZERO
 160              		.section	.text.CYCONFIGCPYCODE,"ax",%progbits
 161              		.align	2
 162              		.code	16
ARM GAS  C:\Users\HENRYA~1\AppData\Local\Temp\cc3rDxkw.s 			page 9


 163              		.thumb_func
 164              		.type	CYCONFIGCPYCODE, %function
 165              	CYCONFIGCPYCODE:
 166              	.LFB3:
  91:Generated_Source\PSoC4/cyfitter_cfg.c **** 	(void)memcpy(dest, src, n);
 167              		.loc 1 91 0
 168              		.cfi_startproc
 169              		@ args = 0, pretend = 0, frame = 0
 170              		@ frame_needed = 0, uses_anonymous_args = 0
 171              	.LVL15:
 172 0000 10B5     		push	{r4, lr}
 173              		.cfi_def_cfa_offset 8
 174              		.cfi_offset 4, -8
 175              		.cfi_offset 14, -4
  92:Generated_Source\PSoC4/cyfitter_cfg.c **** }
 176              		.loc 1 92 0
 177 0002 FFF7FEFF 		bl	memcpy
 178              	.LVL16:
  93:Generated_Source\PSoC4/cyfitter_cfg.c **** 
 179              		.loc 1 93 0
 180              		@ sp needed
 181 0006 10BD     		pop	{r4, pc}
 182              		.cfi_endproc
 183              	.LFE3:
 184              		.size	CYCONFIGCPYCODE, .-CYCONFIGCPYCODE
 185              		.section	.psocinit,"ax",%progbits
 186              		.align	2
 187              		.code	16
 188              		.thumb_func
 189              		.type	ClockSetup, %function
 190              	ClockSetup:
 191              	.LFB5:
 217:Generated_Source\PSoC4/cyfitter_cfg.c **** 
 192              		.loc 1 217 0
 193              		.cfi_startproc
 194              		@ args = 0, pretend = 0, frame = 0
 195              		@ frame_needed = 0, uses_anonymous_args = 0
 196 0000 70B5     		push	{r4, r5, r6, lr}
 197              		.cfi_def_cfa_offset 16
 198              		.cfi_offset 4, -16
 199              		.cfi_offset 5, -12
 200              		.cfi_offset 6, -8
 201              		.cfi_offset 14, -4
 220:Generated_Source\PSoC4/cyfitter_cfg.c **** 
 202              		.loc 1 220 0
 203 0002 1E4C     		ldr	r4, .L12
 204 0004 1223     		movs	r3, #18
 205 0006 2360     		str	r3, [r4]
 223:Generated_Source\PSoC4/cyfitter_cfg.c **** 	CyDelayCycles(12000000u); /* WCO may take up to 500ms to start */
 206              		.loc 1 223 0
 207 0008 FFF7FEFF 		bl	CySysClkWcoStart
 208              	.LVL17:
 224:Generated_Source\PSoC4/cyfitter_cfg.c **** 
 209              		.loc 1 224 0
 210 000c 1C48     		ldr	r0, .L12+4
 211 000e FFF7FEFF 		bl	CyDelayCycles
 212              	.LVL18:
ARM GAS  C:\Users\HENRYA~1\AppData\Local\Temp\cc3rDxkw.s 			page 10


 227:Generated_Source\PSoC4/cyfitter_cfg.c **** 	CySysClkImoEnableWcoLock();
 213              		.loc 1 227 0
 214 0012 1820     		movs	r0, #24
 215 0014 FFF7FEFF 		bl	CySysClkWriteImoFreq
 216              	.LVL19:
 228:Generated_Source\PSoC4/cyfitter_cfg.c **** 	/* CYDEV_CLK_ILO_CONFIG Starting address: CYDEV_CLK_ILO_CONFIG */
 217              		.loc 1 228 0
 218 0018 FFF7FEFF 		bl	CySysClkImoEnableWcoLock
 219              	.LVL20:
 230:Generated_Source\PSoC4/cyfitter_cfg.c **** 
 220              		.loc 1 230 0
 221 001c 194A     		ldr	r2, .L12+8
 222 001e 1A4B     		ldr	r3, .L12+12
 223 0020 1A60     		str	r2, [r3]
 233:Generated_Source\PSoC4/cyfitter_cfg.c **** 
 224              		.loc 1 233 0
 225 0022 1A4D     		ldr	r5, .L12+16
 226 0024 8026     		movs	r6, #128
 227 0026 F605     		lsls	r6, r6, #23
 228 0028 2E60     		str	r6, [r5]
 237:Generated_Source\PSoC4/cyfitter_cfg.c **** 	CY_SET_REG32((void *)CYREG_PERI_DIV_CMD, 0x8000FF40u);
 229              		.loc 1 237 0
 230 002a 0022     		movs	r2, #0
 231 002c 184B     		ldr	r3, .L12+20
 232 002e 1A60     		str	r2, [r3]
 238:Generated_Source\PSoC4/cyfitter_cfg.c **** 	CY_SET_REG32((void *)CYREG_PERI_DIV_16_CTL2, 0x005DBF00u);
 233              		.loc 1 238 0
 234 0030 184B     		ldr	r3, .L12+24
 235 0032 1949     		ldr	r1, .L12+28
 236 0034 1960     		str	r1, [r3]
 239:Generated_Source\PSoC4/cyfitter_cfg.c **** 	CY_SET_REG32((void *)CYREG_PERI_DIV_CMD, 0x8000FF42u);
 237              		.loc 1 239 0
 238 0036 1948     		ldr	r0, .L12+32
 239 0038 1949     		ldr	r1, .L12+36
 240 003a 0860     		str	r0, [r1]
 240:Generated_Source\PSoC4/cyfitter_cfg.c **** 	CY_SET_REG32((void *)CYREG_PERI_DIV_16_CTL1, 0x00013800u);
 241              		.loc 1 240 0
 242 003c 1949     		ldr	r1, .L12+40
 243 003e 1960     		str	r1, [r3]
 241:Generated_Source\PSoC4/cyfitter_cfg.c **** 	CY_SET_REG32((void *)CYREG_PERI_DIV_CMD, 0x8000FF41u);
 244              		.loc 1 241 0
 245 0040 9C20     		movs	r0, #156
 246 0042 4002     		lsls	r0, r0, #9
 247 0044 1849     		ldr	r1, .L12+44
 248 0046 0860     		str	r0, [r1]
 242:Generated_Source\PSoC4/cyfitter_cfg.c **** 
 249              		.loc 1 242 0
 250 0048 1849     		ldr	r1, .L12+48
 251 004a 1960     		str	r1, [r3]
 245:Generated_Source\PSoC4/cyfitter_cfg.c **** 
 252              		.loc 1 245 0
 253 004c 8021     		movs	r1, #128
 254 004e 0906     		lsls	r1, r1, #24
 255 0050 174B     		ldr	r3, .L12+52
 256 0052 1960     		str	r1, [r3]
 248:Generated_Source\PSoC4/cyfitter_cfg.c **** 
 257              		.loc 1 248 0
ARM GAS  C:\Users\HENRYA~1\AppData\Local\Temp\cc3rDxkw.s 			page 11


 258 0054 174B     		ldr	r3, .L12+56
 259 0056 1A60     		str	r2, [r3]
 251:Generated_Source\PSoC4/cyfitter_cfg.c **** 
 260              		.loc 1 251 0
 261 0058 4232     		adds	r2, r2, #66
 262 005a 174B     		ldr	r3, .L12+60
 263 005c 1A60     		str	r2, [r3]
 254:Generated_Source\PSoC4/cyfitter_cfg.c **** 
 264              		.loc 1 254 0
 265 005e 013A     		subs	r2, r2, #1
 266 0060 164B     		ldr	r3, .L12+64
 267 0062 1A60     		str	r2, [r3]
 256:Generated_Source\PSoC4/cyfitter_cfg.c **** 	CyIntEnable(7u);
 268              		.loc 1 256 0
 269 0064 1649     		ldr	r1, .L12+68
 270 0066 0720     		movs	r0, #7
 271 0068 FFF7FEFF 		bl	CyIntSetVector
 272              	.LVL21:
 257:Generated_Source\PSoC4/cyfitter_cfg.c **** 	CY_SET_REG32((void *)(CYREG_WDT_CONFIG), 0x40000000u);
 273              		.loc 1 257 0
 274 006c 0720     		movs	r0, #7
 275 006e FFF7FEFF 		bl	CyIntEnable
 276              	.LVL22:
 258:Generated_Source\PSoC4/cyfitter_cfg.c **** 	/* Set Flash Cycles based on newly configured 24.00MHz HFCLK. */
 277              		.loc 1 258 0
 278 0072 2E60     		str	r6, [r5]
 260:Generated_Source\PSoC4/cyfitter_cfg.c **** }
 279              		.loc 1 260 0
 280 0074 1123     		movs	r3, #17
 281 0076 2360     		str	r3, [r4]
 261:Generated_Source\PSoC4/cyfitter_cfg.c **** 
 282              		.loc 1 261 0
 283              		@ sp needed
 284 0078 70BD     		pop	{r4, r5, r6, pc}
 285              	.L13:
 286 007a C046     		.align	2
 287              	.L12:
 288 007c 30001040 		.word	1074790448
 289 0080 001BB700 		.word	12000000
 290 0084 06000080 		.word	-2147483642
 291 0088 04010B40 		.word	1074462980
 292 008c 0C020B40 		.word	1074463244
 293 0090 00030140 		.word	1073808128
 294 0094 00000140 		.word	1073807360
 295 0098 40FF0080 		.word	-2147418304
 296 009c 00BF5D00 		.word	6143744
 297 00a0 08030140 		.word	1073808136
 298 00a4 42FF0080 		.word	-2147418302
 299 00a8 04030140 		.word	1073808132
 300 00ac 41FF0080 		.word	-2147418303
 301 00b0 08010B40 		.word	1074462984
 302 00b4 00010B40 		.word	1074462976
 303 00b8 58010140 		.word	1073807704
 304 00bc 50010140 		.word	1073807696
 305 00c0 00000000 		.word	CySysWdtIsr
 306              		.cfi_endproc
 307              	.LFE5:
ARM GAS  C:\Users\HENRYA~1\AppData\Local\Temp\cc3rDxkw.s 			page 12


 308              		.size	ClockSetup, .-ClockSetup
 309              		.align	2
 310              		.global	cyfitter_cfg
 311              		.code	16
 312              		.thumb_func
 313              		.type	cyfitter_cfg, %function
 314              	cyfitter_cfg:
 315              	.LFB7:
 289:Generated_Source\PSoC4/cyfitter_cfg.c **** 
 290:Generated_Source\PSoC4/cyfitter_cfg.c **** 
 291:Generated_Source\PSoC4/cyfitter_cfg.c **** 
 292:Generated_Source\PSoC4/cyfitter_cfg.c **** 
 293:Generated_Source\PSoC4/cyfitter_cfg.c **** /*******************************************************************************
 294:Generated_Source\PSoC4/cyfitter_cfg.c **** * Function Name: cyfitter_cfg
 295:Generated_Source\PSoC4/cyfitter_cfg.c **** ********************************************************************************
 296:Generated_Source\PSoC4/cyfitter_cfg.c **** * Summary:
 297:Generated_Source\PSoC4/cyfitter_cfg.c **** *  This function is called by the start-up code for the selected device. It
 298:Generated_Source\PSoC4/cyfitter_cfg.c **** *  performs all of the necessary device configuration based on the design
 299:Generated_Source\PSoC4/cyfitter_cfg.c **** *  settings.  This includes settings from the Design Wide Resources (DWR) such
 300:Generated_Source\PSoC4/cyfitter_cfg.c **** *  as Clocks and Pins as well as any component configuration that is necessary.
 301:Generated_Source\PSoC4/cyfitter_cfg.c **** *
 302:Generated_Source\PSoC4/cyfitter_cfg.c **** * Parameters:
 303:Generated_Source\PSoC4/cyfitter_cfg.c **** *   void
 304:Generated_Source\PSoC4/cyfitter_cfg.c **** *
 305:Generated_Source\PSoC4/cyfitter_cfg.c **** * Return:
 306:Generated_Source\PSoC4/cyfitter_cfg.c **** *   void
 307:Generated_Source\PSoC4/cyfitter_cfg.c **** *
 308:Generated_Source\PSoC4/cyfitter_cfg.c **** *******************************************************************************/
 309:Generated_Source\PSoC4/cyfitter_cfg.c **** CY_CFG_SECTION
 310:Generated_Source\PSoC4/cyfitter_cfg.c **** void cyfitter_cfg(void)
 311:Generated_Source\PSoC4/cyfitter_cfg.c **** {
 316              		.loc 1 311 0
 317              		.cfi_startproc
 318              		@ args = 0, pretend = 0, frame = 0
 319              		@ frame_needed = 0, uses_anonymous_args = 0
 320 00c4 70B5     		push	{r4, r5, r6, lr}
 321              		.cfi_def_cfa_offset 16
 322              		.cfi_offset 4, -16
 323              		.cfi_offset 5, -12
 324              		.cfi_offset 6, -8
 325              		.cfi_offset 14, -4
 312:Generated_Source\PSoC4/cyfitter_cfg.c **** 	/* Disable interrupts by default. Let user enable if/when they want. */
 313:Generated_Source\PSoC4/cyfitter_cfg.c **** 	CyGlobalIntDisable;
 326              		.loc 1 313 0
 327              		.syntax divided
 328              	@ 313 "Generated_Source\PSoC4\cyfitter_cfg.c" 1
 329 00c6 72B6     		CPSID   i
 330              	@ 0 "" 2
 314:Generated_Source\PSoC4/cyfitter_cfg.c **** 
 315:Generated_Source\PSoC4/cyfitter_cfg.c **** 	/* Enable the clock in the interrupt controller for the routed interrupts */
 316:Generated_Source\PSoC4/cyfitter_cfg.c **** 	CY_SET_REG8((void *)CYREG_UDB_UDBIF_INT_CLK_CTL, 0x01u);
 331              		.loc 1 316 0
 332              		.thumb
 333              		.syntax unified
 334 00c8 0122     		movs	r2, #1
 335 00ca 394B     		ldr	r3, .L19
 336 00cc 1A70     		strb	r2, [r3]
ARM GAS  C:\Users\HENRYA~1\AppData\Local\Temp\cc3rDxkw.s 			page 13


 337              	.LVL23:
 338              	.LBB3:
 317:Generated_Source\PSoC4/cyfitter_cfg.c **** 	{
 318:Generated_Source\PSoC4/cyfitter_cfg.c **** 		static const uint32 CYCODE cy_cfg_addr_table[] = {
 319:Generated_Source\PSoC4/cyfitter_cfg.c **** 			0x400F0003u, /* Base address: 0x400F0000 Count: 3 */
 320:Generated_Source\PSoC4/cyfitter_cfg.c **** 			0x400F3042u, /* Base address: 0x400F3000 Count: 66 */
 321:Generated_Source\PSoC4/cyfitter_cfg.c **** 			0x400F312Bu, /* Base address: 0x400F3100 Count: 43 */
 322:Generated_Source\PSoC4/cyfitter_cfg.c **** 			0x400F3222u, /* Base address: 0x400F3200 Count: 34 */
 323:Generated_Source\PSoC4/cyfitter_cfg.c **** 			0x400F3345u, /* Base address: 0x400F3300 Count: 69 */
 324:Generated_Source\PSoC4/cyfitter_cfg.c **** 			0x400F4006u, /* Base address: 0x400F4000 Count: 6 */
 325:Generated_Source\PSoC4/cyfitter_cfg.c **** 			0x400F4106u, /* Base address: 0x400F4100 Count: 6 */
 326:Generated_Source\PSoC4/cyfitter_cfg.c **** 			0x400F4202u, /* Base address: 0x400F4200 Count: 2 */
 327:Generated_Source\PSoC4/cyfitter_cfg.c **** 			0x400F4302u, /* Base address: 0x400F4300 Count: 2 */
 328:Generated_Source\PSoC4/cyfitter_cfg.c **** 			0x400F6002u, /* Base address: 0x400F6000 Count: 2 */
 329:Generated_Source\PSoC4/cyfitter_cfg.c **** 		};
 330:Generated_Source\PSoC4/cyfitter_cfg.c **** 
 331:Generated_Source\PSoC4/cyfitter_cfg.c **** 		static const cy_cfg_addrvalue_t CYCODE cy_cfg_data_table[] = {
 332:Generated_Source\PSoC4/cyfitter_cfg.c **** 			{0x81u, 0x72u},
 333:Generated_Source\PSoC4/cyfitter_cfg.c **** 			{0x82u, 0x38u},
 334:Generated_Source\PSoC4/cyfitter_cfg.c **** 			{0x83u, 0x0Du},
 335:Generated_Source\PSoC4/cyfitter_cfg.c **** 			{0x00u, 0x01u},
 336:Generated_Source\PSoC4/cyfitter_cfg.c **** 			{0x01u, 0x06u},
 337:Generated_Source\PSoC4/cyfitter_cfg.c **** 			{0x03u, 0x01u},
 338:Generated_Source\PSoC4/cyfitter_cfg.c **** 			{0x05u, 0x02u},
 339:Generated_Source\PSoC4/cyfitter_cfg.c **** 			{0x08u, 0x01u},
 340:Generated_Source\PSoC4/cyfitter_cfg.c **** 			{0x09u, 0x06u},
 341:Generated_Source\PSoC4/cyfitter_cfg.c **** 			{0x0Bu, 0x01u},
 342:Generated_Source\PSoC4/cyfitter_cfg.c **** 			{0x0Cu, 0x01u},
 343:Generated_Source\PSoC4/cyfitter_cfg.c **** 			{0x0Du, 0x01u},
 344:Generated_Source\PSoC4/cyfitter_cfg.c **** 			{0x0Fu, 0x06u},
 345:Generated_Source\PSoC4/cyfitter_cfg.c **** 			{0x13u, 0x01u},
 346:Generated_Source\PSoC4/cyfitter_cfg.c **** 			{0x21u, 0x04u},
 347:Generated_Source\PSoC4/cyfitter_cfg.c **** 			{0x28u, 0x01u},
 348:Generated_Source\PSoC4/cyfitter_cfg.c **** 			{0x29u, 0x06u},
 349:Generated_Source\PSoC4/cyfitter_cfg.c **** 			{0x2Du, 0x07u},
 350:Generated_Source\PSoC4/cyfitter_cfg.c **** 			{0x36u, 0x01u},
 351:Generated_Source\PSoC4/cyfitter_cfg.c **** 			{0x37u, 0x07u},
 352:Generated_Source\PSoC4/cyfitter_cfg.c **** 			{0x3Bu, 0x88u},
 353:Generated_Source\PSoC4/cyfitter_cfg.c **** 			{0x3Eu, 0x40u},
 354:Generated_Source\PSoC4/cyfitter_cfg.c **** 			{0x58u, 0x04u},
 355:Generated_Source\PSoC4/cyfitter_cfg.c **** 			{0x59u, 0x04u},
 356:Generated_Source\PSoC4/cyfitter_cfg.c **** 			{0x5Cu, 0x10u},
 357:Generated_Source\PSoC4/cyfitter_cfg.c **** 			{0x5Fu, 0x01u},
 358:Generated_Source\PSoC4/cyfitter_cfg.c **** 			{0x80u, 0x1Fu},
 359:Generated_Source\PSoC4/cyfitter_cfg.c **** 			{0x83u, 0x18u},
 360:Generated_Source\PSoC4/cyfitter_cfg.c **** 			{0x84u, 0x18u},
 361:Generated_Source\PSoC4/cyfitter_cfg.c **** 			{0x85u, 0xE7u},
 362:Generated_Source\PSoC4/cyfitter_cfg.c **** 			{0x88u, 0x08u},
 363:Generated_Source\PSoC4/cyfitter_cfg.c **** 			{0x89u, 0xE7u},
 364:Generated_Source\PSoC4/cyfitter_cfg.c **** 			{0x8Cu, 0x07u},
 365:Generated_Source\PSoC4/cyfitter_cfg.c **** 			{0x8Du, 0x18u},
 366:Generated_Source\PSoC4/cyfitter_cfg.c **** 			{0x8Eu, 0x18u},
 367:Generated_Source\PSoC4/cyfitter_cfg.c **** 			{0x91u, 0x80u},
 368:Generated_Source\PSoC4/cyfitter_cfg.c **** 			{0x92u, 0x04u},
 369:Generated_Source\PSoC4/cyfitter_cfg.c **** 			{0x94u, 0x1Cu},
 370:Generated_Source\PSoC4/cyfitter_cfg.c **** 			{0x95u, 0x19u},
 371:Generated_Source\PSoC4/cyfitter_cfg.c **** 			{0x96u, 0x02u},
ARM GAS  C:\Users\HENRYA~1\AppData\Local\Temp\cc3rDxkw.s 			page 14


 372:Generated_Source\PSoC4/cyfitter_cfg.c **** 			{0x97u, 0x06u},
 373:Generated_Source\PSoC4/cyfitter_cfg.c **** 			{0x98u, 0x04u},
 374:Generated_Source\PSoC4/cyfitter_cfg.c **** 			{0x9Au, 0x20u},
 375:Generated_Source\PSoC4/cyfitter_cfg.c **** 			{0x9Cu, 0x1Cu},
 376:Generated_Source\PSoC4/cyfitter_cfg.c **** 			{0x9Eu, 0x01u},
 377:Generated_Source\PSoC4/cyfitter_cfg.c **** 			{0x9Fu, 0x18u},
 378:Generated_Source\PSoC4/cyfitter_cfg.c **** 			{0xA0u, 0x10u},
 379:Generated_Source\PSoC4/cyfitter_cfg.c **** 			{0xA1u, 0x2Au},
 380:Generated_Source\PSoC4/cyfitter_cfg.c **** 			{0xA3u, 0x41u},
 381:Generated_Source\PSoC4/cyfitter_cfg.c **** 			{0xA5u, 0x54u},
 382:Generated_Source\PSoC4/cyfitter_cfg.c **** 			{0xA7u, 0x21u},
 383:Generated_Source\PSoC4/cyfitter_cfg.c **** 			{0xABu, 0x18u},
 384:Generated_Source\PSoC4/cyfitter_cfg.c **** 			{0xADu, 0x18u},
 385:Generated_Source\PSoC4/cyfitter_cfg.c **** 			{0xAEu, 0x03u},
 386:Generated_Source\PSoC4/cyfitter_cfg.c **** 			{0xB0u, 0x20u},
 387:Generated_Source\PSoC4/cyfitter_cfg.c **** 			{0xB1u, 0x80u},
 388:Generated_Source\PSoC4/cyfitter_cfg.c **** 			{0xB2u, 0x1Fu},
 389:Generated_Source\PSoC4/cyfitter_cfg.c **** 			{0xB3u, 0x60u},
 390:Generated_Source\PSoC4/cyfitter_cfg.c **** 			{0xB5u, 0x07u},
 391:Generated_Source\PSoC4/cyfitter_cfg.c **** 			{0xB7u, 0x18u},
 392:Generated_Source\PSoC4/cyfitter_cfg.c **** 			{0xBAu, 0x08u},
 393:Generated_Source\PSoC4/cyfitter_cfg.c **** 			{0xD6u, 0x02u},
 394:Generated_Source\PSoC4/cyfitter_cfg.c **** 			{0xD7u, 0x10u},
 395:Generated_Source\PSoC4/cyfitter_cfg.c **** 			{0xD8u, 0x04u},
 396:Generated_Source\PSoC4/cyfitter_cfg.c **** 			{0xD9u, 0x04u},
 397:Generated_Source\PSoC4/cyfitter_cfg.c **** 			{0xDBu, 0x04u},
 398:Generated_Source\PSoC4/cyfitter_cfg.c **** 			{0xDCu, 0x11u},
 399:Generated_Source\PSoC4/cyfitter_cfg.c **** 			{0xDDu, 0x10u},
 400:Generated_Source\PSoC4/cyfitter_cfg.c **** 			{0xDFu, 0x01u},
 401:Generated_Source\PSoC4/cyfitter_cfg.c **** 			{0x00u, 0x52u},
 402:Generated_Source\PSoC4/cyfitter_cfg.c **** 			{0x04u, 0x40u},
 403:Generated_Source\PSoC4/cyfitter_cfg.c **** 			{0x06u, 0xD4u},
 404:Generated_Source\PSoC4/cyfitter_cfg.c **** 			{0x0Eu, 0x59u},
 405:Generated_Source\PSoC4/cyfitter_cfg.c **** 			{0x12u, 0x08u},
 406:Generated_Source\PSoC4/cyfitter_cfg.c **** 			{0x14u, 0x40u},
 407:Generated_Source\PSoC4/cyfitter_cfg.c **** 			{0x17u, 0x40u},
 408:Generated_Source\PSoC4/cyfitter_cfg.c **** 			{0x19u, 0x80u},
 409:Generated_Source\PSoC4/cyfitter_cfg.c **** 			{0x1Cu, 0x10u},
 410:Generated_Source\PSoC4/cyfitter_cfg.c **** 			{0x1Eu, 0x50u},
 411:Generated_Source\PSoC4/cyfitter_cfg.c **** 			{0x1Fu, 0x08u},
 412:Generated_Source\PSoC4/cyfitter_cfg.c **** 			{0x20u, 0x02u},
 413:Generated_Source\PSoC4/cyfitter_cfg.c **** 			{0x22u, 0x08u},
 414:Generated_Source\PSoC4/cyfitter_cfg.c **** 			{0x24u, 0x01u},
 415:Generated_Source\PSoC4/cyfitter_cfg.c **** 			{0x25u, 0x01u},
 416:Generated_Source\PSoC4/cyfitter_cfg.c **** 			{0x26u, 0x02u},
 417:Generated_Source\PSoC4/cyfitter_cfg.c **** 			{0x27u, 0x54u},
 418:Generated_Source\PSoC4/cyfitter_cfg.c **** 			{0x28u, 0x40u},
 419:Generated_Source\PSoC4/cyfitter_cfg.c **** 			{0x2Au, 0x52u},
 420:Generated_Source\PSoC4/cyfitter_cfg.c **** 			{0x2Du, 0x02u},
 421:Generated_Source\PSoC4/cyfitter_cfg.c **** 			{0x2Eu, 0x84u},
 422:Generated_Source\PSoC4/cyfitter_cfg.c **** 			{0x2Fu, 0x08u},
 423:Generated_Source\PSoC4/cyfitter_cfg.c **** 			{0x32u, 0x02u},
 424:Generated_Source\PSoC4/cyfitter_cfg.c **** 			{0x37u, 0x45u},
 425:Generated_Source\PSoC4/cyfitter_cfg.c **** 			{0x38u, 0x50u},
 426:Generated_Source\PSoC4/cyfitter_cfg.c **** 			{0x39u, 0x01u},
 427:Generated_Source\PSoC4/cyfitter_cfg.c **** 			{0x3Au, 0x04u},
 428:Generated_Source\PSoC4/cyfitter_cfg.c **** 			{0x3Cu, 0x42u},
ARM GAS  C:\Users\HENRYA~1\AppData\Local\Temp\cc3rDxkw.s 			page 15


 429:Generated_Source\PSoC4/cyfitter_cfg.c **** 			{0x3Du, 0x29u},
 430:Generated_Source\PSoC4/cyfitter_cfg.c **** 			{0x3Eu, 0x01u},
 431:Generated_Source\PSoC4/cyfitter_cfg.c **** 			{0x42u, 0x04u},
 432:Generated_Source\PSoC4/cyfitter_cfg.c **** 			{0x43u, 0x10u},
 433:Generated_Source\PSoC4/cyfitter_cfg.c **** 			{0x5Du, 0x80u},
 434:Generated_Source\PSoC4/cyfitter_cfg.c **** 			{0x6Du, 0x28u},
 435:Generated_Source\PSoC4/cyfitter_cfg.c **** 			{0x6Fu, 0x01u},
 436:Generated_Source\PSoC4/cyfitter_cfg.c **** 			{0x76u, 0x16u},
 437:Generated_Source\PSoC4/cyfitter_cfg.c **** 			{0xC0u, 0xFBu},
 438:Generated_Source\PSoC4/cyfitter_cfg.c **** 			{0xC2u, 0xF0u},
 439:Generated_Source\PSoC4/cyfitter_cfg.c **** 			{0xC4u, 0x92u},
 440:Generated_Source\PSoC4/cyfitter_cfg.c **** 			{0xCAu, 0xFDu},
 441:Generated_Source\PSoC4/cyfitter_cfg.c **** 			{0xCCu, 0xD1u},
 442:Generated_Source\PSoC4/cyfitter_cfg.c **** 			{0xCEu, 0xFFu},
 443:Generated_Source\PSoC4/cyfitter_cfg.c **** 			{0xD6u, 0x10u},
 444:Generated_Source\PSoC4/cyfitter_cfg.c **** 			{0x8Au, 0x01u},
 445:Generated_Source\PSoC4/cyfitter_cfg.c **** 			{0x9Au, 0x02u},
 446:Generated_Source\PSoC4/cyfitter_cfg.c **** 			{0xA2u, 0x02u},
 447:Generated_Source\PSoC4/cyfitter_cfg.c **** 			{0xAEu, 0x01u},
 448:Generated_Source\PSoC4/cyfitter_cfg.c **** 			{0xB0u, 0x02u},
 449:Generated_Source\PSoC4/cyfitter_cfg.c **** 			{0xB2u, 0x01u},
 450:Generated_Source\PSoC4/cyfitter_cfg.c **** 			{0xB4u, 0x01u},
 451:Generated_Source\PSoC4/cyfitter_cfg.c **** 			{0xBEu, 0x05u},
 452:Generated_Source\PSoC4/cyfitter_cfg.c **** 			{0xC0u, 0x53u},
 453:Generated_Source\PSoC4/cyfitter_cfg.c **** 			{0xC5u, 0xECu},
 454:Generated_Source\PSoC4/cyfitter_cfg.c **** 			{0xC7u, 0x02u},
 455:Generated_Source\PSoC4/cyfitter_cfg.c **** 			{0xC8u, 0x13u},
 456:Generated_Source\PSoC4/cyfitter_cfg.c **** 			{0xC9u, 0xFFu},
 457:Generated_Source\PSoC4/cyfitter_cfg.c **** 			{0xCAu, 0xFFu},
 458:Generated_Source\PSoC4/cyfitter_cfg.c **** 			{0xCBu, 0xFFu},
 459:Generated_Source\PSoC4/cyfitter_cfg.c **** 			{0xCFu, 0x01u},
 460:Generated_Source\PSoC4/cyfitter_cfg.c **** 			{0xD0u, 0x18u},
 461:Generated_Source\PSoC4/cyfitter_cfg.c **** 			{0xD2u, 0x80u},
 462:Generated_Source\PSoC4/cyfitter_cfg.c **** 			{0xD4u, 0x01u},
 463:Generated_Source\PSoC4/cyfitter_cfg.c **** 			{0xD8u, 0x04u},
 464:Generated_Source\PSoC4/cyfitter_cfg.c **** 			{0xDAu, 0x04u},
 465:Generated_Source\PSoC4/cyfitter_cfg.c **** 			{0xDBu, 0x04u},
 466:Generated_Source\PSoC4/cyfitter_cfg.c **** 			{0xDCu, 0x03u},
 467:Generated_Source\PSoC4/cyfitter_cfg.c **** 			{0xDDu, 0x33u},
 468:Generated_Source\PSoC4/cyfitter_cfg.c **** 			{0xDFu, 0x01u},
 469:Generated_Source\PSoC4/cyfitter_cfg.c **** 			{0xE0u, 0x40u},
 470:Generated_Source\PSoC4/cyfitter_cfg.c **** 			{0xE2u, 0x40u},
 471:Generated_Source\PSoC4/cyfitter_cfg.c **** 			{0xE4u, 0x40u},
 472:Generated_Source\PSoC4/cyfitter_cfg.c **** 			{0xE5u, 0x40u},
 473:Generated_Source\PSoC4/cyfitter_cfg.c **** 			{0xE6u, 0x80u},
 474:Generated_Source\PSoC4/cyfitter_cfg.c **** 			{0xE8u, 0x80u},
 475:Generated_Source\PSoC4/cyfitter_cfg.c **** 			{0xEAu, 0x80u},
 476:Generated_Source\PSoC4/cyfitter_cfg.c **** 			{0xECu, 0x80u},
 477:Generated_Source\PSoC4/cyfitter_cfg.c **** 			{0xEEu, 0x80u},
 478:Generated_Source\PSoC4/cyfitter_cfg.c **** 			{0x03u, 0x08u},
 479:Generated_Source\PSoC4/cyfitter_cfg.c **** 			{0x04u, 0x40u},
 480:Generated_Source\PSoC4/cyfitter_cfg.c **** 			{0x06u, 0x54u},
 481:Generated_Source\PSoC4/cyfitter_cfg.c **** 			{0x09u, 0x20u},
 482:Generated_Source\PSoC4/cyfitter_cfg.c **** 			{0x0Eu, 0x18u},
 483:Generated_Source\PSoC4/cyfitter_cfg.c **** 			{0x0Fu, 0x02u},
 484:Generated_Source\PSoC4/cyfitter_cfg.c **** 			{0x10u, 0x86u},
 485:Generated_Source\PSoC4/cyfitter_cfg.c **** 			{0x13u, 0x20u},
ARM GAS  C:\Users\HENRYA~1\AppData\Local\Temp\cc3rDxkw.s 			page 16


 486:Generated_Source\PSoC4/cyfitter_cfg.c **** 			{0x16u, 0x02u},
 487:Generated_Source\PSoC4/cyfitter_cfg.c **** 			{0x17u, 0x15u},
 488:Generated_Source\PSoC4/cyfitter_cfg.c **** 			{0x18u, 0x10u},
 489:Generated_Source\PSoC4/cyfitter_cfg.c **** 			{0x19u, 0x20u},
 490:Generated_Source\PSoC4/cyfitter_cfg.c **** 			{0x1Au, 0x40u},
 491:Generated_Source\PSoC4/cyfitter_cfg.c **** 			{0x1Cu, 0x40u},
 492:Generated_Source\PSoC4/cyfitter_cfg.c **** 			{0x1Du, 0xA0u},
 493:Generated_Source\PSoC4/cyfitter_cfg.c **** 			{0x1Fu, 0x02u},
 494:Generated_Source\PSoC4/cyfitter_cfg.c **** 			{0x26u, 0x80u},
 495:Generated_Source\PSoC4/cyfitter_cfg.c **** 			{0x27u, 0x20u},
 496:Generated_Source\PSoC4/cyfitter_cfg.c **** 			{0x2Cu, 0x20u},
 497:Generated_Source\PSoC4/cyfitter_cfg.c **** 			{0x2Fu, 0x02u},
 498:Generated_Source\PSoC4/cyfitter_cfg.c **** 			{0x36u, 0x88u},
 499:Generated_Source\PSoC4/cyfitter_cfg.c **** 			{0x3Cu, 0x02u},
 500:Generated_Source\PSoC4/cyfitter_cfg.c **** 			{0x3Eu, 0x10u},
 501:Generated_Source\PSoC4/cyfitter_cfg.c **** 			{0x3Fu, 0x02u},
 502:Generated_Source\PSoC4/cyfitter_cfg.c **** 			{0x42u, 0xC0u},
 503:Generated_Source\PSoC4/cyfitter_cfg.c **** 			{0x43u, 0x08u},
 504:Generated_Source\PSoC4/cyfitter_cfg.c **** 			{0x45u, 0xA1u},
 505:Generated_Source\PSoC4/cyfitter_cfg.c **** 			{0x47u, 0x01u},
 506:Generated_Source\PSoC4/cyfitter_cfg.c **** 			{0x48u, 0x02u},
 507:Generated_Source\PSoC4/cyfitter_cfg.c **** 			{0x49u, 0x05u},
 508:Generated_Source\PSoC4/cyfitter_cfg.c **** 			{0x4Cu, 0x80u},
 509:Generated_Source\PSoC4/cyfitter_cfg.c **** 			{0x4Eu, 0x08u},
 510:Generated_Source\PSoC4/cyfitter_cfg.c **** 			{0x4Fu, 0x40u},
 511:Generated_Source\PSoC4/cyfitter_cfg.c **** 			{0x53u, 0x08u},
 512:Generated_Source\PSoC4/cyfitter_cfg.c **** 			{0x54u, 0x20u},
 513:Generated_Source\PSoC4/cyfitter_cfg.c **** 			{0x59u, 0x05u},
 514:Generated_Source\PSoC4/cyfitter_cfg.c **** 			{0x5Bu, 0x40u},
 515:Generated_Source\PSoC4/cyfitter_cfg.c **** 			{0x5Cu, 0x41u},
 516:Generated_Source\PSoC4/cyfitter_cfg.c **** 			{0x5Fu, 0x40u},
 517:Generated_Source\PSoC4/cyfitter_cfg.c **** 			{0x64u, 0x04u},
 518:Generated_Source\PSoC4/cyfitter_cfg.c **** 			{0x66u, 0x80u},
 519:Generated_Source\PSoC4/cyfitter_cfg.c **** 			{0x67u, 0x80u},
 520:Generated_Source\PSoC4/cyfitter_cfg.c **** 			{0x70u, 0x02u},
 521:Generated_Source\PSoC4/cyfitter_cfg.c **** 			{0x85u, 0x20u},
 522:Generated_Source\PSoC4/cyfitter_cfg.c **** 			{0x87u, 0x40u},
 523:Generated_Source\PSoC4/cyfitter_cfg.c **** 			{0x8Au, 0x48u},
 524:Generated_Source\PSoC4/cyfitter_cfg.c **** 			{0x8Cu, 0x10u},
 525:Generated_Source\PSoC4/cyfitter_cfg.c **** 			{0x8Fu, 0x40u},
 526:Generated_Source\PSoC4/cyfitter_cfg.c **** 			{0x90u, 0x01u},
 527:Generated_Source\PSoC4/cyfitter_cfg.c **** 			{0x92u, 0x10u},
 528:Generated_Source\PSoC4/cyfitter_cfg.c **** 			{0x94u, 0x40u},
 529:Generated_Source\PSoC4/cyfitter_cfg.c **** 			{0x9Au, 0x16u},
 530:Generated_Source\PSoC4/cyfitter_cfg.c **** 			{0x9Bu, 0x14u},
 531:Generated_Source\PSoC4/cyfitter_cfg.c **** 			{0x9Eu, 0x40u},
 532:Generated_Source\PSoC4/cyfitter_cfg.c **** 			{0xA0u, 0x01u},
 533:Generated_Source\PSoC4/cyfitter_cfg.c **** 			{0xA1u, 0x01u},
 534:Generated_Source\PSoC4/cyfitter_cfg.c **** 			{0xA2u, 0x0Cu},
 535:Generated_Source\PSoC4/cyfitter_cfg.c **** 			{0xB5u, 0x02u},
 536:Generated_Source\PSoC4/cyfitter_cfg.c **** 			{0xB6u, 0x04u},
 537:Generated_Source\PSoC4/cyfitter_cfg.c **** 			{0xC0u, 0xF2u},
 538:Generated_Source\PSoC4/cyfitter_cfg.c **** 			{0xC2u, 0xE2u},
 539:Generated_Source\PSoC4/cyfitter_cfg.c **** 			{0xC4u, 0xF9u},
 540:Generated_Source\PSoC4/cyfitter_cfg.c **** 			{0xCAu, 0x50u},
 541:Generated_Source\PSoC4/cyfitter_cfg.c **** 			{0xCCu, 0x50u},
 542:Generated_Source\PSoC4/cyfitter_cfg.c **** 			{0xCEu, 0xA0u},
ARM GAS  C:\Users\HENRYA~1\AppData\Local\Temp\cc3rDxkw.s 			page 17


 543:Generated_Source\PSoC4/cyfitter_cfg.c **** 			{0xD0u, 0xB2u},
 544:Generated_Source\PSoC4/cyfitter_cfg.c **** 			{0xD2u, 0x38u},
 545:Generated_Source\PSoC4/cyfitter_cfg.c **** 			{0xD6u, 0x8Bu},
 546:Generated_Source\PSoC4/cyfitter_cfg.c **** 			{0xD8u, 0xB0u},
 547:Generated_Source\PSoC4/cyfitter_cfg.c **** 			{0x68u, 0x80u},
 548:Generated_Source\PSoC4/cyfitter_cfg.c **** 			{0x6Bu, 0x08u},
 549:Generated_Source\PSoC4/cyfitter_cfg.c **** 			{0x6Fu, 0x08u},
 550:Generated_Source\PSoC4/cyfitter_cfg.c **** 			{0x73u, 0x08u},
 551:Generated_Source\PSoC4/cyfitter_cfg.c **** 			{0xDAu, 0xC0u},
 552:Generated_Source\PSoC4/cyfitter_cfg.c **** 			{0xDCu, 0x20u},
 553:Generated_Source\PSoC4/cyfitter_cfg.c **** 			{0x84u, 0x80u},
 554:Generated_Source\PSoC4/cyfitter_cfg.c **** 			{0x87u, 0x08u},
 555:Generated_Source\PSoC4/cyfitter_cfg.c **** 			{0xA4u, 0x80u},
 556:Generated_Source\PSoC4/cyfitter_cfg.c **** 			{0xA7u, 0x08u},
 557:Generated_Source\PSoC4/cyfitter_cfg.c **** 			{0xE2u, 0x10u},
 558:Generated_Source\PSoC4/cyfitter_cfg.c **** 			{0xE6u, 0x40u},
 559:Generated_Source\PSoC4/cyfitter_cfg.c **** 			{0x01u, 0x08u},
 560:Generated_Source\PSoC4/cyfitter_cfg.c **** 			{0xC0u, 0x08u},
 561:Generated_Source\PSoC4/cyfitter_cfg.c **** 			{0xB5u, 0x08u},
 562:Generated_Source\PSoC4/cyfitter_cfg.c **** 			{0xEAu, 0x02u},
 563:Generated_Source\PSoC4/cyfitter_cfg.c **** 			{0x10u, 0x0Au},
 564:Generated_Source\PSoC4/cyfitter_cfg.c **** 			{0x11u, 0x01u},
 565:Generated_Source\PSoC4/cyfitter_cfg.c **** 		};
 566:Generated_Source\PSoC4/cyfitter_cfg.c **** 
 567:Generated_Source\PSoC4/cyfitter_cfg.c **** 
 568:Generated_Source\PSoC4/cyfitter_cfg.c **** 
 569:Generated_Source\PSoC4/cyfitter_cfg.c **** 		CYPACKED typedef struct {
 570:Generated_Source\PSoC4/cyfitter_cfg.c **** 			void CYFAR *address;
 571:Generated_Source\PSoC4/cyfitter_cfg.c **** 			uint16 size;
 572:Generated_Source\PSoC4/cyfitter_cfg.c **** 		} CYPACKED_ATTR cfg_memset_t;
 573:Generated_Source\PSoC4/cyfitter_cfg.c **** 
 574:Generated_Source\PSoC4/cyfitter_cfg.c **** 
 575:Generated_Source\PSoC4/cyfitter_cfg.c **** 		CYPACKED typedef struct {
 576:Generated_Source\PSoC4/cyfitter_cfg.c **** 			void CYFAR *dest;
 577:Generated_Source\PSoC4/cyfitter_cfg.c **** 			const void CYCODE *src;
 578:Generated_Source\PSoC4/cyfitter_cfg.c **** 			uint16 size;
 579:Generated_Source\PSoC4/cyfitter_cfg.c **** 		} CYPACKED_ATTR cfg_memcpy_t;
 580:Generated_Source\PSoC4/cyfitter_cfg.c **** 
 581:Generated_Source\PSoC4/cyfitter_cfg.c **** 		static const cfg_memset_t CYCODE cfg_memset_list[] = {
 582:Generated_Source\PSoC4/cyfitter_cfg.c **** 			/* address, size */
 583:Generated_Source\PSoC4/cyfitter_cfg.c **** 			{(void CYFAR *)(CYDEV_UDB_P0_U0_BASE), 512u},
 584:Generated_Source\PSoC4/cyfitter_cfg.c **** 			{(void CYFAR *)(CYDEV_UDB_P1_U1_BASE), 384u},
 585:Generated_Source\PSoC4/cyfitter_cfg.c **** 			{(void CYFAR *)(CYDEV_UDB_DSI0_BASE), 1024u},
 586:Generated_Source\PSoC4/cyfitter_cfg.c **** 		};
 587:Generated_Source\PSoC4/cyfitter_cfg.c **** 
 588:Generated_Source\PSoC4/cyfitter_cfg.c **** 		/* UDB_0_0_1_CONFIG Address: CYDEV_UDB_P1_U0_BASE Size (bytes): 128 */
 589:Generated_Source\PSoC4/cyfitter_cfg.c **** 		static const uint8 CYCODE BS_UDB_0_0_1_CONFIG_VAL[] = {
 590:Generated_Source\PSoC4/cyfitter_cfg.c **** 			0x1Fu, 0x00u, 0x00u, 0x01u, 0x0Cu, 0x00u, 0x00u, 0x00u, 0x04u, 0x00u, 0x00u, 0x01u, 0x13u, 0x00u
 591:Generated_Source\PSoC4/cyfitter_cfg.c **** 			0x00u, 0x00u, 0x00u, 0x00u, 0x1Cu, 0x01u, 0x03u, 0x00u, 0x01u, 0x00u, 0x40u, 0x00u, 0x0Fu, 0x00u
 592:Generated_Source\PSoC4/cyfitter_cfg.c **** 			0x00u, 0x00u, 0x13u, 0x00u, 0x03u, 0x00u, 0x20u, 0x02u, 0x02u, 0x00u, 0x40u, 0x00u, 0x08u, 0x01u
 593:Generated_Source\PSoC4/cyfitter_cfg.c **** 			0x0Fu, 0x00u, 0x00u, 0x02u, 0x1Cu, 0x00u, 0x60u, 0x01u, 0x00u, 0x80u, 0x02u, 0x00u, 0x00u, 0x00u
 594:Generated_Source\PSoC4/cyfitter_cfg.c **** 			0x54u, 0x06u, 0x02u, 0x00u, 0x01u, 0xC0u, 0xE0u, 0x00u, 0x0Au, 0xFFu, 0xFFu, 0xFFu, 0x62u, 0xA0u
 595:Generated_Source\PSoC4/cyfitter_cfg.c **** 			0x0Cu, 0x00u, 0x00u, 0x00u, 0x18u, 0x00u, 0x04u, 0x00u, 0x04u, 0x04u, 0x04u, 0x04u, 0x11u, 0x11u
 596:Generated_Source\PSoC4/cyfitter_cfg.c **** 			0x00u, 0x00u, 0x00u, 0x00u, 0x00u, 0x00u, 0x40u, 0x02u, 0x00u, 0x10u, 0x30u, 0x10u, 0x00u, 0x10u
 597:Generated_Source\PSoC4/cyfitter_cfg.c **** 			0x00u, 0x00u, 0x00u, 0x00u, 0x00u, 0x00u, 0x00u, 0x00u, 0x00u, 0x00u, 0x00u, 0x00u, 0x00u, 0x00u
 598:Generated_Source\PSoC4/cyfitter_cfg.c **** 
 599:Generated_Source\PSoC4/cyfitter_cfg.c **** 		static const cfg_memcpy_t CYCODE cfg_memcpy_list [] = {
ARM GAS  C:\Users\HENRYA~1\AppData\Local\Temp\cc3rDxkw.s 			page 18


 600:Generated_Source\PSoC4/cyfitter_cfg.c **** 			/* dest, src, size */
 601:Generated_Source\PSoC4/cyfitter_cfg.c **** 			{(void CYFAR *)(CYDEV_UDB_P1_U0_BASE), BS_UDB_0_0_1_CONFIG_VAL, 128u},
 602:Generated_Source\PSoC4/cyfitter_cfg.c **** 		};
 603:Generated_Source\PSoC4/cyfitter_cfg.c **** 
 604:Generated_Source\PSoC4/cyfitter_cfg.c **** 		uint8 CYDATA i;
 605:Generated_Source\PSoC4/cyfitter_cfg.c **** 
 606:Generated_Source\PSoC4/cyfitter_cfg.c **** 		/* Zero out critical memory blocks before beginning configuration */
 607:Generated_Source\PSoC4/cyfitter_cfg.c **** 		for (i = 0u; i < (sizeof(cfg_memset_list)/sizeof(cfg_memset_list[0])); i++)
 339              		.loc 1 607 0
 340 00ce 0024     		movs	r4, #0
 341 00d0 0FE0     		b	.L15
 342              	.LVL24:
 343              	.L16:
 344              	.LBB4:
 608:Generated_Source\PSoC4/cyfitter_cfg.c **** 		{
 609:Generated_Source\PSoC4/cyfitter_cfg.c **** 			const cfg_memset_t CYCODE * CYDATA ms = &cfg_memset_list[i];
 610:Generated_Source\PSoC4/cyfitter_cfg.c **** 			CYMEMZERO(ms->address, (size_t)(uint32)(ms->size));
 345              		.loc 1 610 0 discriminator 3
 346 00d2 3848     		ldr	r0, .L19+4
 347 00d4 6200     		lsls	r2, r4, #1
 348 00d6 1319     		adds	r3, r2, r4
 349 00d8 5900     		lsls	r1, r3, #1
 350 00da 0B00     		movs	r3, r1
 351 00dc 4118     		adds	r1, r0, r1
 352 00de 8988     		ldrh	r1, [r1, #4]
 353 00e0 1A5A     		ldrh	r2, [r3, r0]
 354 00e2 C318     		adds	r3, r0, r3
 355 00e4 5888     		ldrh	r0, [r3, #2]
 356 00e6 0004     		lsls	r0, r0, #16
 357 00e8 1043     		orrs	r0, r2
 358 00ea FFF7FEFF 		bl	CYMEMZERO
 359              	.LVL25:
 360              	.LBE4:
 607:Generated_Source\PSoC4/cyfitter_cfg.c **** 		{
 361              		.loc 1 607 0 discriminator 3
 362 00ee 0134     		adds	r4, r4, #1
 363              	.LVL26:
 364 00f0 E4B2     		uxtb	r4, r4
 365              	.LVL27:
 366              	.L15:
 607:Generated_Source\PSoC4/cyfitter_cfg.c **** 		{
 367              		.loc 1 607 0 is_stmt 0 discriminator 1
 368 00f2 022C     		cmp	r4, #2
 369 00f4 EDD9     		bls	.L16
 370 00f6 0024     		movs	r4, #0
 371              	.LVL28:
 372 00f8 11E0     		b	.L17
 373              	.LVL29:
 374              	.L18:
 375              	.LBB5:
 611:Generated_Source\PSoC4/cyfitter_cfg.c **** 		}
 612:Generated_Source\PSoC4/cyfitter_cfg.c **** 
 613:Generated_Source\PSoC4/cyfitter_cfg.c **** 		/* Copy device configuration data into registers */
 614:Generated_Source\PSoC4/cyfitter_cfg.c **** 		for (i = 0u; i < (sizeof(cfg_memcpy_list)/sizeof(cfg_memcpy_list[0])); i++)
 615:Generated_Source\PSoC4/cyfitter_cfg.c **** 		{
 616:Generated_Source\PSoC4/cyfitter_cfg.c **** 			const cfg_memcpy_t CYCODE * CYDATA mc = &cfg_memcpy_list[i];
 617:Generated_Source\PSoC4/cyfitter_cfg.c **** 			void * CYDATA destPtr = mc->dest;
ARM GAS  C:\Users\HENRYA~1\AppData\Local\Temp\cc3rDxkw.s 			page 19


 376              		.loc 1 617 0 is_stmt 1 discriminator 3
 377 00fa 2E4E     		ldr	r6, .L19+4
 378 00fc A200     		lsls	r2, r4, #2
 379 00fe 1319     		adds	r3, r2, r4
 380 0100 5900     		lsls	r1, r3, #1
 381 0102 7118     		adds	r1, r6, r1
 382 0104 8D8A     		ldrh	r5, [r1, #20]
 383 0106 C88A     		ldrh	r0, [r1, #22]
 384 0108 0004     		lsls	r0, r0, #16
 385 010a 2843     		orrs	r0, r5
 386              	.LVL30:
 618:Generated_Source\PSoC4/cyfitter_cfg.c **** 			const void CYCODE * CYDATA srcPtr = mc->src;
 387              		.loc 1 618 0 discriminator 3
 388 010c 0A8B     		ldrh	r2, [r1, #24]
 389 010e 498B     		ldrh	r1, [r1, #26]
 390 0110 0904     		lsls	r1, r1, #16
 391 0112 1143     		orrs	r1, r2
 392              	.LVL31:
 619:Generated_Source\PSoC4/cyfitter_cfg.c **** 			uint16 CYDATA numBytes = mc->size;
 620:Generated_Source\PSoC4/cyfitter_cfg.c **** 			CYCONFIGCPYCODE(destPtr, srcPtr, numBytes);
 393              		.loc 1 620 0 discriminator 3
 394 0114 8022     		movs	r2, #128
 395 0116 FFF7FEFF 		bl	CYCONFIGCPYCODE
 396              	.LVL32:
 397              	.LBE5:
 614:Generated_Source\PSoC4/cyfitter_cfg.c **** 		{
 398              		.loc 1 614 0 discriminator 3
 399 011a 0134     		adds	r4, r4, #1
 400              	.LVL33:
 401 011c E4B2     		uxtb	r4, r4
 402              	.LVL34:
 403              	.L17:
 614:Generated_Source\PSoC4/cyfitter_cfg.c **** 		{
 404              		.loc 1 614 0 is_stmt 0 discriminator 1
 405 011e 002C     		cmp	r4, #0
 406 0120 EBD0     		beq	.L18
 621:Generated_Source\PSoC4/cyfitter_cfg.c **** 		}
 622:Generated_Source\PSoC4/cyfitter_cfg.c **** 
 623:Generated_Source\PSoC4/cyfitter_cfg.c **** 		cfg_write_bytes32(cy_cfg_addr_table, cy_cfg_data_table);
 407              		.loc 1 623 0 is_stmt 1
 408 0122 2449     		ldr	r1, .L19+4
 409 0124 2031     		adds	r1, r1, #32
 410 0126 2448     		ldr	r0, .L19+8
 411 0128 7430     		adds	r0, r0, #116
 412 012a FFF7FEFF 		bl	cfg_write_bytes32
 413              	.LVL35:
 624:Generated_Source\PSoC4/cyfitter_cfg.c **** 
 625:Generated_Source\PSoC4/cyfitter_cfg.c **** 		/* Perform normal device configuration. Order is not critical for these items. */
 626:Generated_Source\PSoC4/cyfitter_cfg.c **** 		CY_SET_REG16((void *)(CYREG_UDB_BCTL0_DRV), 0x0A00u);
 414              		.loc 1 626 0
 415 012e A022     		movs	r2, #160
 416 0130 1201     		lsls	r2, r2, #4
 417 0132 224B     		ldr	r3, .L19+12
 418 0134 1A80     		strh	r2, [r3]
 627:Generated_Source\PSoC4/cyfitter_cfg.c **** 		CY_SET_REG8((void *)(CYREG_UDB_BCTL0_DRV + 0x2u), 0x01u);
 419              		.loc 1 627 0
 420 0136 0121     		movs	r1, #1
ARM GAS  C:\Users\HENRYA~1\AppData\Local\Temp\cc3rDxkw.s 			page 20


 421 0138 214B     		ldr	r3, .L19+16
 422 013a 1970     		strb	r1, [r3]
 628:Generated_Source\PSoC4/cyfitter_cfg.c **** 
 629:Generated_Source\PSoC4/cyfitter_cfg.c **** 		/* HSIOM Starting address: CYDEV_HSIOM_BASE */
 630:Generated_Source\PSoC4/cyfitter_cfg.c **** 		CY_SET_REG32((void *)(CYREG_HSIOM_PORT_SEL3), 0x0000EE00u);
 423              		.loc 1 630 0
 424 013c EE22     		movs	r2, #238
 425 013e 1202     		lsls	r2, r2, #8
 426 0140 204B     		ldr	r3, .L19+20
 427 0142 1A60     		str	r2, [r3]
 631:Generated_Source\PSoC4/cyfitter_cfg.c **** 		CY_SET_REG32((void *)(CYREG_HSIOM_PORT_SEL4), 0x000000AAu);
 428              		.loc 1 631 0
 429 0144 AA22     		movs	r2, #170
 430 0146 204B     		ldr	r3, .L19+24
 431 0148 1A60     		str	r2, [r3]
 632:Generated_Source\PSoC4/cyfitter_cfg.c **** 
 633:Generated_Source\PSoC4/cyfitter_cfg.c **** 		/* UDB_PA_2 Starting address: CYDEV_UDB_PA2_BASE */
 634:Generated_Source\PSoC4/cyfitter_cfg.c **** 		CY_SET_REG32((void *)(CYDEV_UDB_PA2_BASE), 0x00990004u);
 432              		.loc 1 634 0
 433 014a 204A     		ldr	r2, .L19+28
 434 014c 204B     		ldr	r3, .L19+32
 435 014e 1A60     		str	r2, [r3]
 635:Generated_Source\PSoC4/cyfitter_cfg.c **** 		CY_SET_REG32((void *)(CYREG_UDB_PA2_CFG4), 0x00020000u);
 436              		.loc 1 635 0
 437 0150 8022     		movs	r2, #128
 438 0152 9202     		lsls	r2, r2, #10
 439 0154 1F4B     		ldr	r3, .L19+36
 440 0156 1A60     		str	r2, [r3]
 636:Generated_Source\PSoC4/cyfitter_cfg.c **** 
 637:Generated_Source\PSoC4/cyfitter_cfg.c **** 		/* UDB_PA_3 Starting address: CYDEV_UDB_PA3_BASE */
 638:Generated_Source\PSoC4/cyfitter_cfg.c **** 		CY_SET_REG32((void *)(CYDEV_UDB_PA3_BASE), 0x00990000u);
 441              		.loc 1 638 0
 442 0158 9922     		movs	r2, #153
 443 015a 1204     		lsls	r2, r2, #16
 444 015c 1E4B     		ldr	r3, .L19+40
 445 015e 1A60     		str	r2, [r3]
 639:Generated_Source\PSoC4/cyfitter_cfg.c **** 
 640:Generated_Source\PSoC4/cyfitter_cfg.c **** 		/* INT_SELECT Starting address: CYDEV_CPUSS_INT_SEL */
 641:Generated_Source\PSoC4/cyfitter_cfg.c **** 		CY_SET_REG32((void *)(CYREG_CPUSS_INT_SEL), 0x00000007u);
 446              		.loc 1 641 0
 447 0160 0723     		movs	r3, #7
 448 0162 1E4A     		ldr	r2, .L19+44
 449 0164 1360     		str	r3, [r2]
 642:Generated_Source\PSoC4/cyfitter_cfg.c **** 
 643:Generated_Source\PSoC4/cyfitter_cfg.c **** 		/* INT_CONFIG Starting address: CYDEV_UDB_INT_CFG */
 644:Generated_Source\PSoC4/cyfitter_cfg.c **** 		CY_SET_REG32((void *)(CYREG_UDB_INT_CFG), 0x00000007u);
 450              		.loc 1 644 0
 451 0166 1E4A     		ldr	r2, .L19+48
 452 0168 1360     		str	r3, [r2]
 645:Generated_Source\PSoC4/cyfitter_cfg.c **** 
 646:Generated_Source\PSoC4/cyfitter_cfg.c **** 		/* Enable UDB array and digital routing */
 647:Generated_Source\PSoC4/cyfitter_cfg.c **** 		CY_SET_XTND_REG8((void *)CYREG_UDB_UDBIF_WAIT_CFG, (uint8)((CY_GET_XTND_REG8((void *)CYREG_UDB_UD
 453              		.loc 1 647 0
 454 016a 1E48     		ldr	r0, .L19+52
 455 016c 0378     		ldrb	r3, [r0]
 456 016e 3C22     		movs	r2, #60
 457 0170 9343     		bics	r3, r2
ARM GAS  C:\Users\HENRYA~1\AppData\Local\Temp\cc3rDxkw.s 			page 21


 458 0172 1422     		movs	r2, #20
 459 0174 1343     		orrs	r3, r2
 460 0176 DBB2     		uxtb	r3, r3
 461 0178 0370     		strb	r3, [r0]
 648:Generated_Source\PSoC4/cyfitter_cfg.c **** 		CY_SET_XTND_REG8((void *)CYREG_UDB_UDBIF_BANK_CTL, (uint8)(CY_GET_XTND_REG8((void *)CYREG_UDB_UDB
 462              		.loc 1 648 0
 463 017a 1B4A     		ldr	r2, .L19+56
 464 017c 1078     		ldrb	r0, [r2]
 465 017e 1623     		movs	r3, #22
 466 0180 0343     		orrs	r3, r0
 467 0182 DBB2     		uxtb	r3, r3
 468 0184 1370     		strb	r3, [r2]
 469              	.LBE3:
 649:Generated_Source\PSoC4/cyfitter_cfg.c **** 	}
 650:Generated_Source\PSoC4/cyfitter_cfg.c **** 
 651:Generated_Source\PSoC4/cyfitter_cfg.c **** 	/* Perform second pass device configuration. These items must be configured in specific order afte
 652:Generated_Source\PSoC4/cyfitter_cfg.c **** 	/* IOPINS0_2 Starting address: CYDEV_GPIO_PRT2_BASE */
 653:Generated_Source\PSoC4/cyfitter_cfg.c **** 	CY_SET_REG32((void *)(CYREG_GPIO_PRT2_PC), 0x00000001u);
 470              		.loc 1 653 0
 471 0186 194B     		ldr	r3, .L19+60
 472 0188 1960     		str	r1, [r3]
 654:Generated_Source\PSoC4/cyfitter_cfg.c **** 
 655:Generated_Source\PSoC4/cyfitter_cfg.c **** 	/* IOPINS0_3 Starting address: CYDEV_GPIO_PRT3_BASE */
 656:Generated_Source\PSoC4/cyfitter_cfg.c **** 	CY_SET_REG32((void *)(CYREG_GPIO_PRT3_PC), 0x00000D80u);
 473              		.loc 1 656 0
 474 018a D822     		movs	r2, #216
 475 018c 1201     		lsls	r2, r2, #4
 476 018e 184B     		ldr	r3, .L19+64
 477 0190 1A60     		str	r2, [r3]
 657:Generated_Source\PSoC4/cyfitter_cfg.c **** 
 658:Generated_Source\PSoC4/cyfitter_cfg.c **** 	/* IOPINS0_4 Starting address: CYDEV_GPIO_PRT4_BASE */
 659:Generated_Source\PSoC4/cyfitter_cfg.c **** 	CY_SET_REG32((void *)(CYDEV_GPIO_PRT4_BASE), 0x00000002u);
 478              		.loc 1 659 0
 479 0192 0222     		movs	r2, #2
 480 0194 174B     		ldr	r3, .L19+68
 481 0196 1A60     		str	r2, [r3]
 660:Generated_Source\PSoC4/cyfitter_cfg.c **** 	CY_SET_REG32((void *)(CYREG_GPIO_PRT4_PC), 0x00000031u);
 482              		.loc 1 660 0
 483 0198 2F32     		adds	r2, r2, #47
 484 019a 174B     		ldr	r3, .L19+72
 485 019c 1A60     		str	r2, [r3]
 661:Generated_Source\PSoC4/cyfitter_cfg.c **** 
 662:Generated_Source\PSoC4/cyfitter_cfg.c **** 	/* IOPINS0_6 Starting address: CYDEV_GPIO_PRT6_BASE */
 663:Generated_Source\PSoC4/cyfitter_cfg.c **** 	CY_SET_REG32((void *)(CYREG_GPIO_PRT6_PC), 0x00030000u);
 486              		.loc 1 663 0
 487 019e C022     		movs	r2, #192
 488 01a0 9202     		lsls	r2, r2, #10
 489 01a2 164B     		ldr	r3, .L19+76
 490 01a4 1A60     		str	r2, [r3]
 664:Generated_Source\PSoC4/cyfitter_cfg.c **** 
 665:Generated_Source\PSoC4/cyfitter_cfg.c **** 
 666:Generated_Source\PSoC4/cyfitter_cfg.c **** 	/* Setup clocks based on selections from Clock DWR */
 667:Generated_Source\PSoC4/cyfitter_cfg.c **** 	ClockSetup();
 491              		.loc 1 667 0
 492 01a6 FFF72BFF 		bl	ClockSetup
 493              	.LVL36:
 668:Generated_Source\PSoC4/cyfitter_cfg.c **** 
ARM GAS  C:\Users\HENRYA~1\AppData\Local\Temp\cc3rDxkw.s 			page 22


 669:Generated_Source\PSoC4/cyfitter_cfg.c **** 	/* Perform basic analog initialization to defaults */
 670:Generated_Source\PSoC4/cyfitter_cfg.c **** 	AnalogSetDefault();
 494              		.loc 1 670 0
 495 01aa FFF7FEFF 		bl	AnalogSetDefault
 496              	.LVL37:
 671:Generated_Source\PSoC4/cyfitter_cfg.c **** 
 672:Generated_Source\PSoC4/cyfitter_cfg.c **** }
 497              		.loc 1 672 0
 498              		@ sp needed
 499              	.LVL38:
 500 01ae 70BD     		pop	{r4, r5, r6, pc}
 501              	.L20:
 502              		.align	2
 503              	.L19:
 504 01b0 1C700F40 		.word	1074753564
 505 01b4 00000000 		.word	.LANCHOR0
 506 01b8 80010000 		.word	.LANCHOR1
 507 01bc 00600F40 		.word	1074749440
 508 01c0 02600F40 		.word	1074749442
 509 01c4 00030240 		.word	1073873664
 510 01c8 00040240 		.word	1073873920
 511 01cc 04009900 		.word	10027012
 512 01d0 20500F40 		.word	1074745376
 513 01d4 24500F40 		.word	1074745380
 514 01d8 30500F40 		.word	1074745392
 515 01dc 20001040 		.word	1074790432
 516 01e0 00800F40 		.word	1074757632
 517 01e4 01700F40 		.word	1074753537
 518 01e8 00700F40 		.word	1074753536
 519 01ec 08020440 		.word	1074004488
 520 01f0 08030440 		.word	1074004744
 521 01f4 00040440 		.word	1074004992
 522 01f8 08040440 		.word	1074005000
 523 01fc 08060440 		.word	1074005512
 524              		.cfi_endproc
 525              	.LFE7:
 526              		.size	cyfitter_cfg, .-cyfitter_cfg
 527              		.section	.rodata
 528              		.align	2
 529              		.set	.LANCHOR0,. + 0
 530              		.set	.LANCHOR1,. + 384
 531              		.type	cfg_memset_list.4912, %object
 532              		.size	cfg_memset_list.4912, 18
 533              	cfg_memset_list.4912:
 534 0000 00300F40 		.word	1074737152
 535 0004 0002     		.short	512
 536 0006 80320F40 		.4byte	1074737792
 537 000a 8001     		.short	384
 538 000c 00400F40 		.word	1074741248
 539 0010 0004     		.short	1024
 540 0012 0000     		.space	2
 541              		.type	cfg_memcpy_list.4914, %object
 542              		.size	cfg_memcpy_list.4914, 10
 543              	cfg_memcpy_list.4914:
 544 0014 00320F40 		.word	1074737664
 545 0018 1C020000 		.word	BS_UDB_0_0_1_CONFIG_VAL.4913
 546 001c 8000     		.short	128
ARM GAS  C:\Users\HENRYA~1\AppData\Local\Temp\cc3rDxkw.s 			page 23


 547 001e 0000     		.space	2
 548              		.type	cy_cfg_data_table.4902, %object
 549              		.size	cy_cfg_data_table.4902, 466
 550              	cy_cfg_data_table.4902:
 551 0020 81       		.byte	-127
 552 0021 72       		.byte	114
 553 0022 82       		.byte	-126
 554 0023 38       		.byte	56
 555 0024 83       		.byte	-125
 556 0025 0D       		.byte	13
 557 0026 00       		.byte	0
 558 0027 01       		.byte	1
 559 0028 01       		.byte	1
 560 0029 06       		.byte	6
 561 002a 03       		.byte	3
 562 002b 01       		.byte	1
 563 002c 05       		.byte	5
 564 002d 02       		.byte	2
 565 002e 08       		.byte	8
 566 002f 01       		.byte	1
 567 0030 09       		.byte	9
 568 0031 06       		.byte	6
 569 0032 0B       		.byte	11
 570 0033 01       		.byte	1
 571 0034 0C       		.byte	12
 572 0035 01       		.byte	1
 573 0036 0D       		.byte	13
 574 0037 01       		.byte	1
 575 0038 0F       		.byte	15
 576 0039 06       		.byte	6
 577 003a 13       		.byte	19
 578 003b 01       		.byte	1
 579 003c 21       		.byte	33
 580 003d 04       		.byte	4
 581 003e 28       		.byte	40
 582 003f 01       		.byte	1
 583 0040 29       		.byte	41
 584 0041 06       		.byte	6
 585 0042 2D       		.byte	45
 586 0043 07       		.byte	7
 587 0044 36       		.byte	54
 588 0045 01       		.byte	1
 589 0046 37       		.byte	55
 590 0047 07       		.byte	7
 591 0048 3B       		.byte	59
 592 0049 88       		.byte	-120
 593 004a 3E       		.byte	62
 594 004b 40       		.byte	64
 595 004c 58       		.byte	88
 596 004d 04       		.byte	4
 597 004e 59       		.byte	89
 598 004f 04       		.byte	4
 599 0050 5C       		.byte	92
 600 0051 10       		.byte	16
 601 0052 5F       		.byte	95
 602 0053 01       		.byte	1
 603 0054 80       		.byte	-128
ARM GAS  C:\Users\HENRYA~1\AppData\Local\Temp\cc3rDxkw.s 			page 24


 604 0055 1F       		.byte	31
 605 0056 83       		.byte	-125
 606 0057 18       		.byte	24
 607 0058 84       		.byte	-124
 608 0059 18       		.byte	24
 609 005a 85       		.byte	-123
 610 005b E7       		.byte	-25
 611 005c 88       		.byte	-120
 612 005d 08       		.byte	8
 613 005e 89       		.byte	-119
 614 005f E7       		.byte	-25
 615 0060 8C       		.byte	-116
 616 0061 07       		.byte	7
 617 0062 8D       		.byte	-115
 618 0063 18       		.byte	24
 619 0064 8E       		.byte	-114
 620 0065 18       		.byte	24
 621 0066 91       		.byte	-111
 622 0067 80       		.byte	-128
 623 0068 92       		.byte	-110
 624 0069 04       		.byte	4
 625 006a 94       		.byte	-108
 626 006b 1C       		.byte	28
 627 006c 95       		.byte	-107
 628 006d 19       		.byte	25
 629 006e 96       		.byte	-106
 630 006f 02       		.byte	2
 631 0070 97       		.byte	-105
 632 0071 06       		.byte	6
 633 0072 98       		.byte	-104
 634 0073 04       		.byte	4
 635 0074 9A       		.byte	-102
 636 0075 20       		.byte	32
 637 0076 9C       		.byte	-100
 638 0077 1C       		.byte	28
 639 0078 9E       		.byte	-98
 640 0079 01       		.byte	1
 641 007a 9F       		.byte	-97
 642 007b 18       		.byte	24
 643 007c A0       		.byte	-96
 644 007d 10       		.byte	16
 645 007e A1       		.byte	-95
 646 007f 2A       		.byte	42
 647 0080 A3       		.byte	-93
 648 0081 41       		.byte	65
 649 0082 A5       		.byte	-91
 650 0083 54       		.byte	84
 651 0084 A7       		.byte	-89
 652 0085 21       		.byte	33
 653 0086 AB       		.byte	-85
 654 0087 18       		.byte	24
 655 0088 AD       		.byte	-83
 656 0089 18       		.byte	24
 657 008a AE       		.byte	-82
 658 008b 03       		.byte	3
 659 008c B0       		.byte	-80
 660 008d 20       		.byte	32
ARM GAS  C:\Users\HENRYA~1\AppData\Local\Temp\cc3rDxkw.s 			page 25


 661 008e B1       		.byte	-79
 662 008f 80       		.byte	-128
 663 0090 B2       		.byte	-78
 664 0091 1F       		.byte	31
 665 0092 B3       		.byte	-77
 666 0093 60       		.byte	96
 667 0094 B5       		.byte	-75
 668 0095 07       		.byte	7
 669 0096 B7       		.byte	-73
 670 0097 18       		.byte	24
 671 0098 BA       		.byte	-70
 672 0099 08       		.byte	8
 673 009a D6       		.byte	-42
 674 009b 02       		.byte	2
 675 009c D7       		.byte	-41
 676 009d 10       		.byte	16
 677 009e D8       		.byte	-40
 678 009f 04       		.byte	4
 679 00a0 D9       		.byte	-39
 680 00a1 04       		.byte	4
 681 00a2 DB       		.byte	-37
 682 00a3 04       		.byte	4
 683 00a4 DC       		.byte	-36
 684 00a5 11       		.byte	17
 685 00a6 DD       		.byte	-35
 686 00a7 10       		.byte	16
 687 00a8 DF       		.byte	-33
 688 00a9 01       		.byte	1
 689 00aa 00       		.byte	0
 690 00ab 52       		.byte	82
 691 00ac 04       		.byte	4
 692 00ad 40       		.byte	64
 693 00ae 06       		.byte	6
 694 00af D4       		.byte	-44
 695 00b0 0E       		.byte	14
 696 00b1 59       		.byte	89
 697 00b2 12       		.byte	18
 698 00b3 08       		.byte	8
 699 00b4 14       		.byte	20
 700 00b5 40       		.byte	64
 701 00b6 17       		.byte	23
 702 00b7 40       		.byte	64
 703 00b8 19       		.byte	25
 704 00b9 80       		.byte	-128
 705 00ba 1C       		.byte	28
 706 00bb 10       		.byte	16
 707 00bc 1E       		.byte	30
 708 00bd 50       		.byte	80
 709 00be 1F       		.byte	31
 710 00bf 08       		.byte	8
 711 00c0 20       		.byte	32
 712 00c1 02       		.byte	2
 713 00c2 22       		.byte	34
 714 00c3 08       		.byte	8
 715 00c4 24       		.byte	36
 716 00c5 01       		.byte	1
 717 00c6 25       		.byte	37
ARM GAS  C:\Users\HENRYA~1\AppData\Local\Temp\cc3rDxkw.s 			page 26


 718 00c7 01       		.byte	1
 719 00c8 26       		.byte	38
 720 00c9 02       		.byte	2
 721 00ca 27       		.byte	39
 722 00cb 54       		.byte	84
 723 00cc 28       		.byte	40
 724 00cd 40       		.byte	64
 725 00ce 2A       		.byte	42
 726 00cf 52       		.byte	82
 727 00d0 2D       		.byte	45
 728 00d1 02       		.byte	2
 729 00d2 2E       		.byte	46
 730 00d3 84       		.byte	-124
 731 00d4 2F       		.byte	47
 732 00d5 08       		.byte	8
 733 00d6 32       		.byte	50
 734 00d7 02       		.byte	2
 735 00d8 37       		.byte	55
 736 00d9 45       		.byte	69
 737 00da 38       		.byte	56
 738 00db 50       		.byte	80
 739 00dc 39       		.byte	57
 740 00dd 01       		.byte	1
 741 00de 3A       		.byte	58
 742 00df 04       		.byte	4
 743 00e0 3C       		.byte	60
 744 00e1 42       		.byte	66
 745 00e2 3D       		.byte	61
 746 00e3 29       		.byte	41
 747 00e4 3E       		.byte	62
 748 00e5 01       		.byte	1
 749 00e6 42       		.byte	66
 750 00e7 04       		.byte	4
 751 00e8 43       		.byte	67
 752 00e9 10       		.byte	16
 753 00ea 5D       		.byte	93
 754 00eb 80       		.byte	-128
 755 00ec 6D       		.byte	109
 756 00ed 28       		.byte	40
 757 00ee 6F       		.byte	111
 758 00ef 01       		.byte	1
 759 00f0 76       		.byte	118
 760 00f1 16       		.byte	22
 761 00f2 C0       		.byte	-64
 762 00f3 FB       		.byte	-5
 763 00f4 C2       		.byte	-62
 764 00f5 F0       		.byte	-16
 765 00f6 C4       		.byte	-60
 766 00f7 92       		.byte	-110
 767 00f8 CA       		.byte	-54
 768 00f9 FD       		.byte	-3
 769 00fa CC       		.byte	-52
 770 00fb D1       		.byte	-47
 771 00fc CE       		.byte	-50
 772 00fd FF       		.byte	-1
 773 00fe D6       		.byte	-42
 774 00ff 10       		.byte	16
ARM GAS  C:\Users\HENRYA~1\AppData\Local\Temp\cc3rDxkw.s 			page 27


 775 0100 8A       		.byte	-118
 776 0101 01       		.byte	1
 777 0102 9A       		.byte	-102
 778 0103 02       		.byte	2
 779 0104 A2       		.byte	-94
 780 0105 02       		.byte	2
 781 0106 AE       		.byte	-82
 782 0107 01       		.byte	1
 783 0108 B0       		.byte	-80
 784 0109 02       		.byte	2
 785 010a B2       		.byte	-78
 786 010b 01       		.byte	1
 787 010c B4       		.byte	-76
 788 010d 01       		.byte	1
 789 010e BE       		.byte	-66
 790 010f 05       		.byte	5
 791 0110 C0       		.byte	-64
 792 0111 53       		.byte	83
 793 0112 C5       		.byte	-59
 794 0113 EC       		.byte	-20
 795 0114 C7       		.byte	-57
 796 0115 02       		.byte	2
 797 0116 C8       		.byte	-56
 798 0117 13       		.byte	19
 799 0118 C9       		.byte	-55
 800 0119 FF       		.byte	-1
 801 011a CA       		.byte	-54
 802 011b FF       		.byte	-1
 803 011c CB       		.byte	-53
 804 011d FF       		.byte	-1
 805 011e CF       		.byte	-49
 806 011f 01       		.byte	1
 807 0120 D0       		.byte	-48
 808 0121 18       		.byte	24
 809 0122 D2       		.byte	-46
 810 0123 80       		.byte	-128
 811 0124 D4       		.byte	-44
 812 0125 01       		.byte	1
 813 0126 D8       		.byte	-40
 814 0127 04       		.byte	4
 815 0128 DA       		.byte	-38
 816 0129 04       		.byte	4
 817 012a DB       		.byte	-37
 818 012b 04       		.byte	4
 819 012c DC       		.byte	-36
 820 012d 03       		.byte	3
 821 012e DD       		.byte	-35
 822 012f 33       		.byte	51
 823 0130 DF       		.byte	-33
 824 0131 01       		.byte	1
 825 0132 E0       		.byte	-32
 826 0133 40       		.byte	64
 827 0134 E2       		.byte	-30
 828 0135 40       		.byte	64
 829 0136 E4       		.byte	-28
 830 0137 40       		.byte	64
 831 0138 E5       		.byte	-27
ARM GAS  C:\Users\HENRYA~1\AppData\Local\Temp\cc3rDxkw.s 			page 28


 832 0139 40       		.byte	64
 833 013a E6       		.byte	-26
 834 013b 80       		.byte	-128
 835 013c E8       		.byte	-24
 836 013d 80       		.byte	-128
 837 013e EA       		.byte	-22
 838 013f 80       		.byte	-128
 839 0140 EC       		.byte	-20
 840 0141 80       		.byte	-128
 841 0142 EE       		.byte	-18
 842 0143 80       		.byte	-128
 843 0144 03       		.byte	3
 844 0145 08       		.byte	8
 845 0146 04       		.byte	4
 846 0147 40       		.byte	64
 847 0148 06       		.byte	6
 848 0149 54       		.byte	84
 849 014a 09       		.byte	9
 850 014b 20       		.byte	32
 851 014c 0E       		.byte	14
 852 014d 18       		.byte	24
 853 014e 0F       		.byte	15
 854 014f 02       		.byte	2
 855 0150 10       		.byte	16
 856 0151 86       		.byte	-122
 857 0152 13       		.byte	19
 858 0153 20       		.byte	32
 859 0154 16       		.byte	22
 860 0155 02       		.byte	2
 861 0156 17       		.byte	23
 862 0157 15       		.byte	21
 863 0158 18       		.byte	24
 864 0159 10       		.byte	16
 865 015a 19       		.byte	25
 866 015b 20       		.byte	32
 867 015c 1A       		.byte	26
 868 015d 40       		.byte	64
 869 015e 1C       		.byte	28
 870 015f 40       		.byte	64
 871 0160 1D       		.byte	29
 872 0161 A0       		.byte	-96
 873 0162 1F       		.byte	31
 874 0163 02       		.byte	2
 875 0164 26       		.byte	38
 876 0165 80       		.byte	-128
 877 0166 27       		.byte	39
 878 0167 20       		.byte	32
 879 0168 2C       		.byte	44
 880 0169 20       		.byte	32
 881 016a 2F       		.byte	47
 882 016b 02       		.byte	2
 883 016c 36       		.byte	54
 884 016d 88       		.byte	-120
 885 016e 3C       		.byte	60
 886 016f 02       		.byte	2
 887 0170 3E       		.byte	62
 888 0171 10       		.byte	16
ARM GAS  C:\Users\HENRYA~1\AppData\Local\Temp\cc3rDxkw.s 			page 29


 889 0172 3F       		.byte	63
 890 0173 02       		.byte	2
 891 0174 42       		.byte	66
 892 0175 C0       		.byte	-64
 893 0176 43       		.byte	67
 894 0177 08       		.byte	8
 895 0178 45       		.byte	69
 896 0179 A1       		.byte	-95
 897 017a 47       		.byte	71
 898 017b 01       		.byte	1
 899 017c 48       		.byte	72
 900 017d 02       		.byte	2
 901 017e 49       		.byte	73
 902 017f 05       		.byte	5
 903 0180 4C       		.byte	76
 904 0181 80       		.byte	-128
 905 0182 4E       		.byte	78
 906 0183 08       		.byte	8
 907 0184 4F       		.byte	79
 908 0185 40       		.byte	64
 909 0186 53       		.byte	83
 910 0187 08       		.byte	8
 911 0188 54       		.byte	84
 912 0189 20       		.byte	32
 913 018a 59       		.byte	89
 914 018b 05       		.byte	5
 915 018c 5B       		.byte	91
 916 018d 40       		.byte	64
 917 018e 5C       		.byte	92
 918 018f 41       		.byte	65
 919 0190 5F       		.byte	95
 920 0191 40       		.byte	64
 921 0192 64       		.byte	100
 922 0193 04       		.byte	4
 923 0194 66       		.byte	102
 924 0195 80       		.byte	-128
 925 0196 67       		.byte	103
 926 0197 80       		.byte	-128
 927 0198 70       		.byte	112
 928 0199 02       		.byte	2
 929 019a 85       		.byte	-123
 930 019b 20       		.byte	32
 931 019c 87       		.byte	-121
 932 019d 40       		.byte	64
 933 019e 8A       		.byte	-118
 934 019f 48       		.byte	72
 935 01a0 8C       		.byte	-116
 936 01a1 10       		.byte	16
 937 01a2 8F       		.byte	-113
 938 01a3 40       		.byte	64
 939 01a4 90       		.byte	-112
 940 01a5 01       		.byte	1
 941 01a6 92       		.byte	-110
 942 01a7 10       		.byte	16
 943 01a8 94       		.byte	-108
 944 01a9 40       		.byte	64
 945 01aa 9A       		.byte	-102
ARM GAS  C:\Users\HENRYA~1\AppData\Local\Temp\cc3rDxkw.s 			page 30


 946 01ab 16       		.byte	22
 947 01ac 9B       		.byte	-101
 948 01ad 14       		.byte	20
 949 01ae 9E       		.byte	-98
 950 01af 40       		.byte	64
 951 01b0 A0       		.byte	-96
 952 01b1 01       		.byte	1
 953 01b2 A1       		.byte	-95
 954 01b3 01       		.byte	1
 955 01b4 A2       		.byte	-94
 956 01b5 0C       		.byte	12
 957 01b6 B5       		.byte	-75
 958 01b7 02       		.byte	2
 959 01b8 B6       		.byte	-74
 960 01b9 04       		.byte	4
 961 01ba C0       		.byte	-64
 962 01bb F2       		.byte	-14
 963 01bc C2       		.byte	-62
 964 01bd E2       		.byte	-30
 965 01be C4       		.byte	-60
 966 01bf F9       		.byte	-7
 967 01c0 CA       		.byte	-54
 968 01c1 50       		.byte	80
 969 01c2 CC       		.byte	-52
 970 01c3 50       		.byte	80
 971 01c4 CE       		.byte	-50
 972 01c5 A0       		.byte	-96
 973 01c6 D0       		.byte	-48
 974 01c7 B2       		.byte	-78
 975 01c8 D2       		.byte	-46
 976 01c9 38       		.byte	56
 977 01ca D6       		.byte	-42
 978 01cb 8B       		.byte	-117
 979 01cc D8       		.byte	-40
 980 01cd B0       		.byte	-80
 981 01ce 68       		.byte	104
 982 01cf 80       		.byte	-128
 983 01d0 6B       		.byte	107
 984 01d1 08       		.byte	8
 985 01d2 6F       		.byte	111
 986 01d3 08       		.byte	8
 987 01d4 73       		.byte	115
 988 01d5 08       		.byte	8
 989 01d6 DA       		.byte	-38
 990 01d7 C0       		.byte	-64
 991 01d8 DC       		.byte	-36
 992 01d9 20       		.byte	32
 993 01da 84       		.byte	-124
 994 01db 80       		.byte	-128
 995 01dc 87       		.byte	-121
 996 01dd 08       		.byte	8
 997 01de A4       		.byte	-92
 998 01df 80       		.byte	-128
 999 01e0 A7       		.byte	-89
 1000 01e1 08       		.byte	8
 1001 01e2 E2       		.byte	-30
 1002 01e3 10       		.byte	16
ARM GAS  C:\Users\HENRYA~1\AppData\Local\Temp\cc3rDxkw.s 			page 31


 1003 01e4 E6       		.byte	-26
 1004 01e5 40       		.byte	64
 1005 01e6 01       		.byte	1
 1006 01e7 08       		.byte	8
 1007 01e8 C0       		.byte	-64
 1008 01e9 08       		.byte	8
 1009 01ea B5       		.byte	-75
 1010 01eb 08       		.byte	8
 1011 01ec EA       		.byte	-22
 1012 01ed 02       		.byte	2
 1013 01ee 10       		.byte	16
 1014 01ef 0A       		.byte	10
 1015 01f0 11       		.byte	17
 1016 01f1 01       		.byte	1
 1017 01f2 0000     		.space	2
 1018              		.type	cy_cfg_addr_table.4901, %object
 1019              		.size	cy_cfg_addr_table.4901, 40
 1020              	cy_cfg_addr_table.4901:
 1021 01f4 03000F40 		.word	1074724867
 1022 01f8 42300F40 		.word	1074737218
 1023 01fc 2B310F40 		.word	1074737451
 1024 0200 22320F40 		.word	1074737698
 1025 0204 45330F40 		.word	1074737989
 1026 0208 06400F40 		.word	1074741254
 1027 020c 06410F40 		.word	1074741510
 1028 0210 02420F40 		.word	1074741762
 1029 0214 02430F40 		.word	1074742018
 1030 0218 02600F40 		.word	1074749442
 1031              		.type	BS_UDB_0_0_1_CONFIG_VAL.4913, %object
 1032              		.size	BS_UDB_0_0_1_CONFIG_VAL.4913, 128
 1033              	BS_UDB_0_0_1_CONFIG_VAL.4913:
 1034 021c 1F       		.byte	31
 1035 021d 00       		.byte	0
 1036 021e 00       		.byte	0
 1037 021f 01       		.byte	1
 1038 0220 0C       		.byte	12
 1039 0221 00       		.byte	0
 1040 0222 00       		.byte	0
 1041 0223 00       		.byte	0
 1042 0224 04       		.byte	4
 1043 0225 00       		.byte	0
 1044 0226 00       		.byte	0
 1045 0227 01       		.byte	1
 1046 0228 13       		.byte	19
 1047 0229 00       		.byte	0
 1048 022a 0C       		.byte	12
 1049 022b 00       		.byte	0
 1050 022c 00       		.byte	0
 1051 022d 00       		.byte	0
 1052 022e 00       		.byte	0
 1053 022f 00       		.byte	0
 1054 0230 1C       		.byte	28
 1055 0231 01       		.byte	1
 1056 0232 03       		.byte	3
 1057 0233 00       		.byte	0
 1058 0234 01       		.byte	1
 1059 0235 00       		.byte	0
ARM GAS  C:\Users\HENRYA~1\AppData\Local\Temp\cc3rDxkw.s 			page 32


 1060 0236 40       		.byte	64
 1061 0237 00       		.byte	0
 1062 0238 0F       		.byte	15
 1063 0239 00       		.byte	0
 1064 023a 10       		.byte	16
 1065 023b 02       		.byte	2
 1066 023c 00       		.byte	0
 1067 023d 00       		.byte	0
 1068 023e 13       		.byte	19
 1069 023f 00       		.byte	0
 1070 0240 03       		.byte	3
 1071 0241 00       		.byte	0
 1072 0242 20       		.byte	32
 1073 0243 02       		.byte	2
 1074 0244 02       		.byte	2
 1075 0245 00       		.byte	0
 1076 0246 40       		.byte	64
 1077 0247 00       		.byte	0
 1078 0248 08       		.byte	8
 1079 0249 01       		.byte	1
 1080 024a 00       		.byte	0
 1081 024b 00       		.byte	0
 1082 024c 0F       		.byte	15
 1083 024d 00       		.byte	0
 1084 024e 00       		.byte	0
 1085 024f 02       		.byte	2
 1086 0250 1C       		.byte	28
 1087 0251 00       		.byte	0
 1088 0252 60       		.byte	96
 1089 0253 01       		.byte	1
 1090 0254 00       		.byte	0
 1091 0255 80       		.byte	-128
 1092 0256 02       		.byte	2
 1093 0257 00       		.byte	0
 1094 0258 00       		.byte	0
 1095 0259 00       		.byte	0
 1096 025a 40       		.byte	64
 1097 025b 04       		.byte	4
 1098 025c 54       		.byte	84
 1099 025d 06       		.byte	6
 1100 025e 02       		.byte	2
 1101 025f 00       		.byte	0
 1102 0260 01       		.byte	1
 1103 0261 C0       		.byte	-64
 1104 0262 E0       		.byte	-32
 1105 0263 00       		.byte	0
 1106 0264 0A       		.byte	10
 1107 0265 FF       		.byte	-1
 1108 0266 FF       		.byte	-1
 1109 0267 FF       		.byte	-1
 1110 0268 62       		.byte	98
 1111 0269 A0       		.byte	-96
 1112 026a F0       		.byte	-16
 1113 026b 41       		.byte	65
 1114 026c 0C       		.byte	12
 1115 026d 00       		.byte	0
 1116 026e 00       		.byte	0
ARM GAS  C:\Users\HENRYA~1\AppData\Local\Temp\cc3rDxkw.s 			page 33


 1117 026f 00       		.byte	0
 1118 0270 18       		.byte	24
 1119 0271 00       		.byte	0
 1120 0272 04       		.byte	4
 1121 0273 00       		.byte	0
 1122 0274 04       		.byte	4
 1123 0275 04       		.byte	4
 1124 0276 04       		.byte	4
 1125 0277 04       		.byte	4
 1126 0278 11       		.byte	17
 1127 0279 11       		.byte	17
 1128 027a 00       		.byte	0
 1129 027b 01       		.byte	1
 1130 027c 00       		.byte	0
 1131 027d 00       		.byte	0
 1132 027e 00       		.byte	0
 1133 027f 00       		.byte	0
 1134 0280 00       		.byte	0
 1135 0281 00       		.byte	0
 1136 0282 40       		.byte	64
 1137 0283 02       		.byte	2
 1138 0284 00       		.byte	0
 1139 0285 10       		.byte	16
 1140 0286 30       		.byte	48
 1141 0287 10       		.byte	16
 1142 0288 00       		.byte	0
 1143 0289 10       		.byte	16
 1144 028a 10       		.byte	16
 1145 028b 12       		.byte	18
 1146 028c 00       		.byte	0
 1147 028d 00       		.byte	0
 1148 028e 00       		.byte	0
 1149 028f 00       		.byte	0
 1150 0290 00       		.byte	0
 1151 0291 00       		.byte	0
 1152 0292 00       		.byte	0
 1153 0293 00       		.byte	0
 1154 0294 00       		.byte	0
 1155 0295 00       		.byte	0
 1156 0296 00       		.byte	0
 1157 0297 00       		.byte	0
 1158 0298 00       		.byte	0
 1159 0299 00       		.byte	0
 1160 029a 00       		.byte	0
 1161 029b 00       		.byte	0
 1162              		.text
 1163              	.Letext0:
 1164              		.file 2 "c:\\program files (x86)\\cypress\\psoc creator\\4.1\\psoc creator\\import\\gnu\\arm\\5.4.
 1165              		.file 3 "Generated_Source\\PSoC4\\cytypes.h"
 1166              		.file 4 "Generated_Source\\PSoC4\\CyLFClk.h"
 1167              		.file 5 "Generated_Source\\PSoC4\\CyLib.h"