ARM GAS  C:\Users\HENRYA~1\AppData\Local\Temp\ccjVYXEn.s 			page 1


   1              		.syntax unified
   2              		.cpu cortex-m0
   3              		.fpu softvfp
   4              		.eabi_attribute 20, 1
   5              		.eabi_attribute 21, 1
   6              		.eabi_attribute 23, 3
   7              		.eabi_attribute 24, 1
   8              		.eabi_attribute 25, 1
   9              		.eabi_attribute 26, 1
  10              		.eabi_attribute 30, 1
  11              		.eabi_attribute 34, 0
  12              		.eabi_attribute 18, 4
  13              		.thumb
  14              		.syntax unified
  15              		.file	"main.c"
  16              		.text
  17              	.Ltext0:
  18              		.cfi_sections	.debug_frame
  19              		.section	.text.Serial_Interrupt,"ax",%progbits
  20              		.align	2
  21              		.global	Serial_Interrupt
  22              		.code	16
  23              		.thumb_func
  24              		.type	Serial_Interrupt, %function
  25              	Serial_Interrupt:
  26              	.LFB52:
  27              		.file 1 "main.c"
   1:main.c        **** #include <project.h>
   2:main.c        **** #include <stdio.h>
   3:main.c        **** #include <stdlib.h>
   4:main.c        **** #include <math.h>
   5:main.c        **** #include <protocolo can.h>
   6:main.c        **** //Import Libraries
   7:main.c        **** //Global Variables
   8:main.c        **** uint8 mailbox0[8];
   9:main.c        **** uint8 mailbox1[8];
  10:main.c        **** uint8 mailbox2[8];
  11:main.c        **** uint8 dato_enviado[8];
  12:main.c        **** uint8 dato_enviado_1[8];
  13:main.c        **** char dist=0;
  14:main.c        **** int16 conta=0;
  15:main.c        **** int cantidadM=0;
  16:main.c        **** //Variables AE
  17:main.c        **** int16 Max_Conta=100;
  18:main.c        **** float Amplitud_H=0.0;
  19:main.c        **** float Offset_H=0.833;
  20:main.c        **** float Fase_H=0.0;
  21:main.c        **** float Amplitud_V=0.0;
  22:main.c        **** float Offset_V=0.833;
  23:main.c        **** float Fase_V=0.0;
  24:main.c        **** float ampli_aux=0.0;
  25:main.c        **** float off_aux=0.0;
  26:main.c        **** float pha_aux=0.0;
  27:main.c        **** int flag=0;
  28:main.c        **** float L_actual=0.0;
  29:main.c        **** float L_anterior=0.0;
  30:main.c        **** int Cantidad_Sensores=0;
ARM GAS  C:\Users\HENRYA~1\AppData\Local\Temp\ccjVYXEn.s 			page 2


  31:main.c        **** int conta_H=0;
  32:main.c        **** int punto_a=0;
  33:main.c        **** int punto_b=0;
  34:main.c        **** int move_s=0;
  35:main.c        **** 
  36:main.c        **** double randd() {
  37:main.c        ****   return (double)rand()/((double)RAND_MAX + 1);
  38:main.c        **** }
  39:main.c        **** 
  40:main.c        **** double random_amplitud(){
  41:main.c        ****     return randd();
  42:main.c        **** }
  43:main.c        **** 
  44:main.c        **** double random_Fase(){
  45:main.c        ****     float r=0.0;
  46:main.c        ****     r=randd();
  47:main.c        ****     if(r>0.5){return randd();}
  48:main.c        ****     else{return randd()*-1;}
  49:main.c        **** }
  50:main.c        **** 
  51:main.c        **** double random_Offset(){
  52:main.c        ****     float r=0.0;
  53:main.c        ****     r=randd();
  54:main.c        ****     r=r*0.5;
  55:main.c        ****     r=r+0.3;
  56:main.c        ****     return r;
  57:main.c        **** }
  58:main.c        **** 
  59:main.c        **** void movimiento(unsigned int dirr,int mov){
  60:main.c        ****     char byteh,bytel;
  61:main.c        ****     byteh= mov >> 8;
  62:main.c        ****     bytel=mov;
  63:main.c        ****     dato_enviado[0]=VER ;//verificacion
  64:main.c        ****     dato_enviado[1]=dirr ;//dir
  65:main.c        ****     dato_enviado[2]=ESCRITURA ;//operacion
  66:main.c        ****     dato_enviado[3]=MOTOR;//lugar
  67:main.c        ****     dato_enviado[4]= byteh ;  //dato
  68:main.c        ****     dato_enviado[5]= bytel ;  //dato
  69:main.c        ****     CAN_SendMsg0(); 
  70:main.c        ****     CyDelay(25);    
  71:main.c        **** }
  72:main.c        **** 
  73:main.c        **** void Send_Angle(int datas,int Conta3){ 
  74:main.c        ****     int8 datoL=datas;
  75:main.c        ****     int8 datoH=datas>>8;  
  76:main.c        ****     dato_enviado[0]=VER2;//verificacion
  77:main.c        ****     dato_enviado[1]=Conta3;//dir
  78:main.c        ****     dato_enviado[2]=Conta3;//dir
  79:main.c        ****     dato_enviado[3]=ANGLE;
  80:main.c        ****     dato_enviado[4]=0;//lugar
  81:main.c        ****     dato_enviado[5]=0;  //dato... en este caso direcion para asignar
  82:main.c        ****     dato_enviado[6]=0;
  83:main.c        ****     dato_enviado[7]=Conta3;
  84:main.c        ****     CAN_SendMsg0(); 
  85:main.c        ****     CyDelay(50);
  86:main.c        **** }
  87:main.c        **** 
ARM GAS  C:\Users\HENRYA~1\AppData\Local\Temp\ccjVYXEn.s 			page 3


  88:main.c        **** void Enviar_Parametros(float Amplitud,float Phase,float Offset,int Orientacion){
  89:main.c        ****     //Convertir el Valor a entero para ser enviado
  90:main.c        ****     int Amp_env=(int)fabs(Amplitud*10000);
  91:main.c        ****     int Phase_env=(int)fabs(Phase*10000);
  92:main.c        ****     int Offset_env=(int)fabs(Offset*10000);
  93:main.c        ****     //Enviar datos
  94:main.c        ****     dato_enviado_1[0]=VER_M1;
  95:main.c        ****     dato_enviado_1[1]=Orientacion;
  96:main.c        ****     //Convertir Amplitud
  97:main.c        ****     uint8 datoL=Amp_env;
  98:main.c        ****     uint8 datoH=Amp_env>>8;
  99:main.c        ****     uint8 Aux=0;
 100:main.c        ****     if(Amplitud<0.0){
 101:main.c        ****         Aux=(1<<7);
 102:main.c        ****         datoH=datoH+Aux;
 103:main.c        ****     }
 104:main.c        ****     else{
 105:main.c        ****         Aux=(0<<7);
 106:main.c        ****         datoH=datoH+Aux;    
 107:main.c        ****     }
 108:main.c        ****     dato_enviado_1[2]=datoL;
 109:main.c        ****     dato_enviado_1[3]=datoH;
 110:main.c        ****     //Convertir Fase
 111:main.c        ****     datoL=Phase_env;
 112:main.c        ****     datoH=Phase_env>>8;
 113:main.c        ****     if(Phase<0.0){
 114:main.c        ****         Aux=(1<<7);
 115:main.c        ****         datoH=datoH+Aux;
 116:main.c        ****     }
 117:main.c        ****     else{
 118:main.c        ****         Aux=(0<<7);
 119:main.c        ****         datoH=datoH+Aux;    
 120:main.c        ****     }
 121:main.c        ****     dato_enviado_1[4]=datoL;
 122:main.c        ****     dato_enviado_1[5]=datoH;
 123:main.c        ****     //Convertir Offset
 124:main.c        ****     datoL=Offset_env;
 125:main.c        ****     datoH=Offset_env>>8;
 126:main.c        ****     if(Offset<0.0){
 127:main.c        ****         Aux=(1<<7);
 128:main.c        ****         datoH=datoH+Aux;
 129:main.c        ****     }
 130:main.c        ****     else{
 131:main.c        ****         Aux=(0<<7);
 132:main.c        ****         datoH=datoH+Aux;    
 133:main.c        ****     }
 134:main.c        ****     dato_enviado_1[6]=datoL;
 135:main.c        ****     dato_enviado_1[7]=datoH;    
 136:main.c        ****     CAN_SendMsg1();
 137:main.c        ****     CyDelay(25);
 138:main.c        **** }
 139:main.c        **** 
 140:main.c        **** //Interrupt's
 141:main.c        **** void Recibe_mail_0(){
 142:main.c        **** if(mailbox0[0]==VER){
 143:main.c        ****             switch(mailbox0[2]){
 144:main.c        ****             ///////////////////////////////////////////////////////
ARM GAS  C:\Users\HENRYA~1\AppData\Local\Temp\ccjVYXEn.s 			page 4


 145:main.c        ****             case ESCRITURA:{ 
 146:main.c        ****                 switch(mailbox0[3]){//////////+6+++++++++++++
 147:main.c        ****                     case CANTIDAD_MOD: 
 148:main.c        ****                             cantidadM=mailbox0[4];                           
 149:main.c        ****                     break;
 150:main.c        ****                     case START:
 151:main.c        ****                         
 152:main.c        ****                     break;
 153:main.c        ****                 }
 154:main.c        ****             }                                            
 155:main.c        ****         }    
 156:main.c        **** }
 157:main.c        **** if(mailbox0[0]==VER2){
 158:main.c        ****                 switch(mailbox0[3]){
 159:main.c        ****                 ///////////////////////////////////////////////////////
 160:main.c        ****                 case ANGLE:{
 161:main.c        ****                     int Contador=mailbox0[7];
 162:main.c        ****                     if(Contador>=cantidadM){
 163:main.c        ****                     } 
 164:main.c        ****                 }
 165:main.c        ****                 break;}
 166:main.c        ****             } 
 167:main.c        **** }
 168:main.c        **** 
 169:main.c        **** void Recibe_Mail_2(){
 170:main.c        ****     if(mailbox2[0]==SENSORES){
 171:main.c        ****         //Mailbox2[1] Derecha
 172:main.c        ****         //Mailbox2[2] Frente
 173:main.c        ****         //Mailbox2[3] Izquierda
 174:main.c        ****         if(mailbox2[1]==0&&mailbox2[2]==0&&mailbox2[3]==0)      {Cantidad_Sensores=0;}   //Normal
 175:main.c        ****         else if(mailbox2[1]==0&&mailbox2[2]==0&&mailbox2[3]==1) {Cantidad_Sensores=1;}   //Izquierd
 176:main.c        ****         else if(mailbox2[1]==0&&mailbox2[2]==1&&mailbox2[3]==0) {Cantidad_Sensores=2;}   //Frontal
 177:main.c        ****         else if(mailbox2[1]==0&&mailbox2[2]==1&&mailbox2[3]==1) {Cantidad_Sensores=3;}   //Frontal 
 178:main.c        ****         else if(mailbox2[1]==1&&mailbox2[2]==0&&mailbox2[3]==0) {Cantidad_Sensores=4;}   //Derecha
 179:main.c        ****         else if(mailbox2[1]==1&&mailbox2[2]==0&&mailbox2[3]==1) {Cantidad_Sensores=5;}   //Derecha 
 180:main.c        ****         else if(mailbox2[1]==1&&mailbox2[2]==1&&mailbox2[3]==0) {Cantidad_Sensores=6;}   //Frontal 
 181:main.c        ****         else if(mailbox2[1]==1&&mailbox2[2]==1&&mailbox2[3]==1) {Cantidad_Sensores=7;}   //Todos
 182:main.c        ****         else                                                    {Cantidad_Sensores=0;}   //Normal
 183:main.c        ****     }
 184:main.c        **** }
 185:main.c        **** 
 186:main.c        **** void Left_Move(){
 187:main.c        ****     Send_Angle(0,200);
 188:main.c        ****     int  i=0;
 189:main.c        ****     int j=0;
 190:main.c        ****     for(i=0;i<cantidadM;i++){ //Alineación
 191:main.c        ****         movimiento(i,512);
 192:main.c        ****         }
 193:main.c        ****     CyDelay(2000);
 194:main.c        ****     movimiento(cantidadM,675);//Ancla Trasera
 195:main.c        ****     CyDelay(2000);
 196:main.c        ****     //Giro
 197:main.c        ****     for(j=0;j<1;j++){
 198:main.c        ****         for(i=2;i<cantidadM;i=i+4){ 
 199:main.c        ****             movimiento(i,650);
 200:main.c        ****             movimiento(i+1,750);
 201:main.c        ****             }
ARM GAS  C:\Users\HENRYA~1\AppData\Local\Temp\ccjVYXEn.s 			page 5


 202:main.c        ****         movimiento(cantidadM,512);//Ancla Trasera
 203:main.c        ****         CyDelay(2000);
 204:main.c        ****         movimiento(0,350);//Ancla Delantera
 205:main.c        ****         CyDelay(2000);
 206:main.c        ****         for(i=2;i<cantidadM;i=i+4){ //Alineación
 207:main.c        ****             movimiento(i,512);
 208:main.c        ****             movimiento(i+1,512);
 209:main.c        ****         }    
 210:main.c        ****         CyDelay(2000);
 211:main.c        ****     }         
 212:main.c        ****     for(i=0;i<cantidadM;i++){ //Alineación
 213:main.c        ****         movimiento(i,512);
 214:main.c        ****         }
 215:main.c        ****     CyDelay(2000); 
 216:main.c        ****     Send_Angle(0,0);
 217:main.c        **** }
 218:main.c        **** 
 219:main.c        **** void Right_Move(){
 220:main.c        ****     Send_Angle(0,200);
 221:main.c        ****     int  i=0;
 222:main.c        ****     int j=0;
 223:main.c        ****     for(i=0;i<cantidadM;i++){ //Alineación
 224:main.c        ****         movimiento(i,512);
 225:main.c        ****         }
 226:main.c        ****     CyDelay(2000);
 227:main.c        ****     movimiento(cantidadM,675);//Ancla Trasera
 228:main.c        ****     CyDelay(2000);
 229:main.c        ****     //Giro
 230:main.c        ****     for(j=0;j<1;j++){
 231:main.c        ****         for(i=2;i<cantidadM;i=i+4){ 
 232:main.c        ****             movimiento(i,374);
 233:main.c        ****             movimiento(i+1,274);
 234:main.c        ****             }
 235:main.c        ****         movimiento(cantidadM,512);//Ancla Trasera
 236:main.c        ****         CyDelay(2000);
 237:main.c        ****         movimiento(0,350);//Ancla Delantera
 238:main.c        ****         CyDelay(2000);
 239:main.c        ****         for(i=2;i<cantidadM;i=i+4){ //Alineación
 240:main.c        ****             movimiento(i,512);
 241:main.c        ****             movimiento(i+1,512);
 242:main.c        ****         }    
 243:main.c        ****         CyDelay(2000);
 244:main.c        ****     }         
 245:main.c        ****     for(i=0;i<cantidadM;i++){ //Alineación
 246:main.c        ****         movimiento(i,512);
 247:main.c        ****         }
 248:main.c        ****     CyDelay(2000); 
 249:main.c        ****     Send_Angle(0,0);
 250:main.c        **** }
 251:main.c        **** 
 252:main.c        **** void Select_Move(){
 253:main.c        ****     Send_Angle(0,200);
 254:main.c        ****     int  i=0;
 255:main.c        ****     for(i=0;i<6;i++){ //Alineación
 256:main.c        ****         movimiento(i,512);
 257:main.c        ****         }
 258:main.c        ****     CyDelay(2000);
ARM GAS  C:\Users\HENRYA~1\AppData\Local\Temp\ccjVYXEn.s 			page 6


 259:main.c        ****     movimiento(2,750);
 260:main.c        ****     CyDelay(5000);
 261:main.c        ****     move_s=1;
 262:main.c        **** }
 263:main.c        **** 
 264:main.c        **** void Select_Move_2(){
 265:main.c        ****     punto_a=dist;  
 266:main.c        ****     move_s=2;
 267:main.c        **** }
 268:main.c        **** 
 269:main.c        **** void Select_Move_3(){
 270:main.c        ****     movimiento(2,274);
 271:main.c        ****     CyDelay(5000);
 272:main.c        ****     move_s=3;
 273:main.c        **** }
 274:main.c        **** 
 275:main.c        **** void Select_Move_4(){
 276:main.c        ****     punto_b=dist;   
 277:main.c        ****     move_s=0;       
 278:main.c        ****     if(punto_a>=punto_b){
 279:main.c        ****         Left_Move();    
 280:main.c        ****     }
 281:main.c        ****     else{
 282:main.c        ****         Right_Move();
 283:main.c        ****     } 
 284:main.c        **** }
 285:main.c        **** 
 286:main.c        **** CY_ISR(Serial_Interrupt){
  28              		.loc 1 286 0
  29              		.cfi_startproc
  30              		@ args = 0, pretend = 0, frame = 0
  31              		@ frame_needed = 0, uses_anonymous_args = 0
  32 0000 10B5     		push	{r4, lr}
  33              		.cfi_def_cfa_offset 8
  34              		.cfi_offset 4, -8
  35              		.cfi_offset 14, -4
 287:main.c        ****    dist=SENSOR_U_GetChar();
  36              		.loc 1 287 0
  37 0002 FFF7FEFF 		bl	SENSOR_U_GetChar
  38              	.LVL0:
  39 0006 014B     		ldr	r3, .L2
  40 0008 1870     		strb	r0, [r3]
 288:main.c        **** }
  41              		.loc 1 288 0
  42              		@ sp needed
  43 000a 10BD     		pop	{r4, pc}
  44              	.L3:
  45              		.align	2
  46              	.L2:
  47 000c 00000000 		.word	.LANCHOR0
  48              		.cfi_endproc
  49              	.LFE52:
  50              		.size	Serial_Interrupt, .-Serial_Interrupt
  51              		.global	__aeabi_i2d
  52              		.global	__aeabi_dmul
  53              		.section	.text.randd,"ax",%progbits
  54              		.align	2
ARM GAS  C:\Users\HENRYA~1\AppData\Local\Temp\ccjVYXEn.s 			page 7


  55              		.global	randd
  56              		.code	16
  57              		.thumb_func
  58              		.type	randd, %function
  59              	randd:
  60              	.LFB37:
  36:main.c        ****   return (double)rand()/((double)RAND_MAX + 1);
  61              		.loc 1 36 0
  62              		.cfi_startproc
  63              		@ args = 0, pretend = 0, frame = 0
  64              		@ frame_needed = 0, uses_anonymous_args = 0
  65 0000 10B5     		push	{r4, lr}
  66              		.cfi_def_cfa_offset 8
  67              		.cfi_offset 4, -8
  68              		.cfi_offset 14, -4
  37:main.c        **** }
  69              		.loc 1 37 0
  70 0002 FFF7FEFF 		bl	rand
  71              	.LVL1:
  72 0006 FFF7FEFF 		bl	__aeabi_i2d
  73              	.LVL2:
  74 000a 0022     		movs	r2, #0
  75 000c F823     		movs	r3, #248
  76 000e 9B05     		lsls	r3, r3, #22
  77 0010 FFF7FEFF 		bl	__aeabi_dmul
  78              	.LVL3:
  38:main.c        **** 
  79              		.loc 1 38 0
  80              		@ sp needed
  81 0014 10BD     		pop	{r4, pc}
  82              		.cfi_endproc
  83              	.LFE37:
  84              		.size	randd, .-randd
  85 0016 C046     		.section	.text.random_amplitud,"ax",%progbits
  86              		.align	2
  87              		.global	random_amplitud
  88              		.code	16
  89              		.thumb_func
  90              		.type	random_amplitud, %function
  91              	random_amplitud:
  92              	.LFB38:
  40:main.c        ****     return randd();
  93              		.loc 1 40 0
  94              		.cfi_startproc
  95              		@ args = 0, pretend = 0, frame = 0
  96              		@ frame_needed = 0, uses_anonymous_args = 0
  97 0000 10B5     		push	{r4, lr}
  98              		.cfi_def_cfa_offset 8
  99              		.cfi_offset 4, -8
 100              		.cfi_offset 14, -4
  41:main.c        **** }
 101              		.loc 1 41 0
 102 0002 FFF7FEFF 		bl	randd
 103              	.LVL4:
  42:main.c        **** 
 104              		.loc 1 42 0
 105              		@ sp needed
ARM GAS  C:\Users\HENRYA~1\AppData\Local\Temp\ccjVYXEn.s 			page 8


 106 0006 10BD     		pop	{r4, pc}
 107              		.cfi_endproc
 108              	.LFE38:
 109              		.size	random_amplitud, .-random_amplitud
 110              		.global	__aeabi_d2f
 111              		.global	__aeabi_fcmpgt
 112              		.section	.text.random_Fase,"ax",%progbits
 113              		.align	2
 114              		.global	random_Fase
 115              		.code	16
 116              		.thumb_func
 117              		.type	random_Fase, %function
 118              	random_Fase:
 119              	.LFB39:
  44:main.c        ****     float r=0.0;
 120              		.loc 1 44 0
 121              		.cfi_startproc
 122              		@ args = 0, pretend = 0, frame = 0
 123              		@ frame_needed = 0, uses_anonymous_args = 0
 124 0000 10B5     		push	{r4, lr}
 125              		.cfi_def_cfa_offset 8
 126              		.cfi_offset 4, -8
 127              		.cfi_offset 14, -4
 128              	.LVL5:
  46:main.c        ****     if(r>0.5){return randd();}
 129              		.loc 1 46 0
 130 0002 FFF7FEFF 		bl	randd
 131              	.LVL6:
 132 0006 FFF7FEFF 		bl	__aeabi_d2f
 133              	.LVL7:
  47:main.c        ****     else{return randd()*-1;}
 134              		.loc 1 47 0
 135 000a FC21     		movs	r1, #252
 136 000c 8905     		lsls	r1, r1, #22
 137 000e FFF7FEFF 		bl	__aeabi_fcmpgt
 138              	.LVL8:
 139 0012 0028     		cmp	r0, #0
 140 0014 02D0     		beq	.L11
  47:main.c        ****     else{return randd()*-1;}
 141              		.loc 1 47 0 is_stmt 0 discriminator 1
 142 0016 FFF7FEFF 		bl	randd
 143              	.LVL9:
 144 001a 05E0     		b	.L9
 145              	.L11:
  48:main.c        **** }
 146              		.loc 1 48 0 is_stmt 1
 147 001c FFF7FEFF 		bl	randd
 148              	.LVL10:
 149 0020 8023     		movs	r3, #128
 150 0022 1B06     		lsls	r3, r3, #24
 151 0024 9C46     		mov	ip, r3
 152 0026 6144     		add	r1, r1, ip
 153              	.L9:
  49:main.c        **** 
 154              		.loc 1 49 0
 155              		@ sp needed
 156 0028 10BD     		pop	{r4, pc}
ARM GAS  C:\Users\HENRYA~1\AppData\Local\Temp\ccjVYXEn.s 			page 9


 157              		.cfi_endproc
 158              	.LFE39:
 159              		.size	random_Fase, .-random_Fase
 160              		.global	__aeabi_fmul
 161              		.global	__aeabi_f2d
 162              		.global	__aeabi_dadd
 163 002a C046     		.section	.text.random_Offset,"ax",%progbits
 164              		.align	2
 165              		.global	random_Offset
 166              		.code	16
 167              		.thumb_func
 168              		.type	random_Offset, %function
 169              	random_Offset:
 170              	.LFB40:
  51:main.c        ****     float r=0.0;
 171              		.loc 1 51 0
 172              		.cfi_startproc
 173              		@ args = 0, pretend = 0, frame = 0
 174              		@ frame_needed = 0, uses_anonymous_args = 0
 175 0000 10B5     		push	{r4, lr}
 176              		.cfi_def_cfa_offset 8
 177              		.cfi_offset 4, -8
 178              		.cfi_offset 14, -4
 179              	.LVL11:
  53:main.c        ****     r=r*0.5;
 180              		.loc 1 53 0
 181 0002 FFF7FEFF 		bl	randd
 182              	.LVL12:
 183 0006 FFF7FEFF 		bl	__aeabi_d2f
 184              	.LVL13:
  54:main.c        ****     r=r+0.3;
 185              		.loc 1 54 0
 186 000a FC21     		movs	r1, #252
 187 000c 8905     		lsls	r1, r1, #22
 188 000e FFF7FEFF 		bl	__aeabi_fmul
 189              	.LVL14:
  55:main.c        ****     return r;
 190              		.loc 1 55 0
 191 0012 FFF7FEFF 		bl	__aeabi_f2d
 192              	.LVL15:
 193 0016 044A     		ldr	r2, .L13
 194 0018 044B     		ldr	r3, .L13+4
 195 001a FFF7FEFF 		bl	__aeabi_dadd
 196              	.LVL16:
 197 001e FFF7FEFF 		bl	__aeabi_d2f
 198              	.LVL17:
  56:main.c        **** }
 199              		.loc 1 56 0
 200 0022 FFF7FEFF 		bl	__aeabi_f2d
 201              	.LVL18:
  57:main.c        **** 
 202              		.loc 1 57 0
 203              		@ sp needed
 204 0026 10BD     		pop	{r4, pc}
 205              	.L14:
 206              		.align	2
 207              	.L13:
ARM GAS  C:\Users\HENRYA~1\AppData\Local\Temp\ccjVYXEn.s 			page 10


 208 0028 33333333 		.word	858993459
 209 002c 3333D33F 		.word	1070805811
 210              		.cfi_endproc
 211              	.LFE40:
 212              		.size	random_Offset, .-random_Offset
 213              		.section	.text.movimiento,"ax",%progbits
 214              		.align	2
 215              		.global	movimiento
 216              		.code	16
 217              		.thumb_func
 218              		.type	movimiento, %function
 219              	movimiento:
 220              	.LFB41:
  59:main.c        ****     char byteh,bytel;
 221              		.loc 1 59 0
 222              		.cfi_startproc
 223              		@ args = 0, pretend = 0, frame = 0
 224              		@ frame_needed = 0, uses_anonymous_args = 0
 225              	.LVL19:
 226 0000 10B5     		push	{r4, lr}
 227              		.cfi_def_cfa_offset 8
 228              		.cfi_offset 4, -8
 229              		.cfi_offset 14, -4
  61:main.c        ****     bytel=mov;
 230              		.loc 1 61 0
 231 0002 0A12     		asrs	r2, r1, #8
 232              	.LVL20:
  63:main.c        ****     dato_enviado[1]=dirr ;//dir
 233              		.loc 1 63 0
 234 0004 074B     		ldr	r3, .L16
 235 0006 7F24     		movs	r4, #127
 236 0008 1C70     		strb	r4, [r3]
  64:main.c        ****     dato_enviado[2]=ESCRITURA ;//operacion
 237              		.loc 1 64 0
 238 000a 5870     		strb	r0, [r3, #1]
  65:main.c        ****     dato_enviado[3]=MOTOR;//lugar
 239              		.loc 1 65 0
 240 000c 0220     		movs	r0, #2
 241              	.LVL21:
 242 000e 9870     		strb	r0, [r3, #2]
  66:main.c        ****     dato_enviado[4]= byteh ;  //dato
 243              		.loc 1 66 0
 244 0010 0130     		adds	r0, r0, #1
 245 0012 D870     		strb	r0, [r3, #3]
  67:main.c        ****     dato_enviado[5]= bytel ;  //dato
 246              		.loc 1 67 0
 247 0014 1A71     		strb	r2, [r3, #4]
  68:main.c        ****     CAN_SendMsg0(); 
 248              		.loc 1 68 0
 249 0016 5971     		strb	r1, [r3, #5]
  69:main.c        ****     CyDelay(25);    
 250              		.loc 1 69 0
 251 0018 FFF7FEFF 		bl	CAN_SendMsg0
 252              	.LVL22:
  70:main.c        **** }
 253              		.loc 1 70 0
 254 001c 1920     		movs	r0, #25
ARM GAS  C:\Users\HENRYA~1\AppData\Local\Temp\ccjVYXEn.s 			page 11


 255 001e FFF7FEFF 		bl	CyDelay
 256              	.LVL23:
  71:main.c        **** 
 257              		.loc 1 71 0
 258              		@ sp needed
 259 0022 10BD     		pop	{r4, pc}
 260              	.L17:
 261              		.align	2
 262              	.L16:
 263 0024 00000000 		.word	dato_enviado
 264              		.cfi_endproc
 265              	.LFE41:
 266              		.size	movimiento, .-movimiento
 267              		.section	.text.Send_Angle,"ax",%progbits
 268              		.align	2
 269              		.global	Send_Angle
 270              		.code	16
 271              		.thumb_func
 272              		.type	Send_Angle, %function
 273              	Send_Angle:
 274              	.LFB42:
  73:main.c        ****     int8 datoL=datas;
 275              		.loc 1 73 0
 276              		.cfi_startproc
 277              		@ args = 0, pretend = 0, frame = 0
 278              		@ frame_needed = 0, uses_anonymous_args = 0
 279              	.LVL24:
 280 0000 10B5     		push	{r4, lr}
 281              		.cfi_def_cfa_offset 8
 282              		.cfi_offset 4, -8
 283              		.cfi_offset 14, -4
 284              	.LVL25:
  76:main.c        ****     dato_enviado[1]=Conta3;//dir
 285              		.loc 1 76 0
 286 0002 094B     		ldr	r3, .L19
 287 0004 8022     		movs	r2, #128
 288 0006 1A70     		strb	r2, [r3]
  77:main.c        ****     dato_enviado[2]=Conta3;//dir
 289              		.loc 1 77 0
 290 0008 C9B2     		uxtb	r1, r1
 291              	.LVL26:
 292 000a 5970     		strb	r1, [r3, #1]
  78:main.c        ****     dato_enviado[3]=ANGLE;
 293              		.loc 1 78 0
 294 000c 9970     		strb	r1, [r3, #2]
  79:main.c        ****     dato_enviado[4]=0;//lugar
 295              		.loc 1 79 0
 296 000e 653A     		subs	r2, r2, #101
 297 0010 DA70     		strb	r2, [r3, #3]
  80:main.c        ****     dato_enviado[5]=0;  //dato... en este caso direcion para asignar
 298              		.loc 1 80 0
 299 0012 0022     		movs	r2, #0
 300 0014 1A71     		strb	r2, [r3, #4]
  81:main.c        ****     dato_enviado[6]=0;
 301              		.loc 1 81 0
 302 0016 5A71     		strb	r2, [r3, #5]
  82:main.c        ****     dato_enviado[7]=Conta3;
ARM GAS  C:\Users\HENRYA~1\AppData\Local\Temp\ccjVYXEn.s 			page 12


 303              		.loc 1 82 0
 304 0018 9A71     		strb	r2, [r3, #6]
  83:main.c        ****     CAN_SendMsg0(); 
 305              		.loc 1 83 0
 306 001a D971     		strb	r1, [r3, #7]
  84:main.c        ****     CyDelay(50);
 307              		.loc 1 84 0
 308 001c FFF7FEFF 		bl	CAN_SendMsg0
 309              	.LVL27:
  85:main.c        **** }
 310              		.loc 1 85 0
 311 0020 3220     		movs	r0, #50
 312 0022 FFF7FEFF 		bl	CyDelay
 313              	.LVL28:
  86:main.c        **** 
 314              		.loc 1 86 0
 315              		@ sp needed
 316 0026 10BD     		pop	{r4, pc}
 317              	.L20:
 318              		.align	2
 319              	.L19:
 320 0028 00000000 		.word	dato_enviado
 321              		.cfi_endproc
 322              	.LFE42:
 323              		.size	Send_Angle, .-Send_Angle
 324              		.global	__aeabi_f2iz
 325              		.global	__aeabi_fcmplt
 326              		.section	.text.Enviar_Parametros,"ax",%progbits
 327              		.align	2
 328              		.global	Enviar_Parametros
 329              		.code	16
 330              		.thumb_func
 331              		.type	Enviar_Parametros, %function
 332              	Enviar_Parametros:
 333              	.LFB43:
  88:main.c        ****     //Convertir el Valor a entero para ser enviado
 334              		.loc 1 88 0
 335              		.cfi_startproc
 336              		@ args = 0, pretend = 0, frame = 16
 337              		@ frame_needed = 0, uses_anonymous_args = 0
 338              	.LVL29:
 339 0000 F0B5     		push	{r4, r5, r6, r7, lr}
 340              		.cfi_def_cfa_offset 20
 341              		.cfi_offset 4, -20
 342              		.cfi_offset 5, -16
 343              		.cfi_offset 6, -12
 344              		.cfi_offset 7, -8
 345              		.cfi_offset 14, -4
 346 0002 85B0     		sub	sp, sp, #20
 347              		.cfi_def_cfa_offset 40
 348 0004 0190     		str	r0, [sp, #4]
 349 0006 0291     		str	r1, [sp, #8]
 350 0008 0392     		str	r2, [sp, #12]
 351 000a 1F00     		movs	r7, r3
  90:main.c        ****     int Phase_env=(int)fabs(Phase*10000);
 352              		.loc 1 90 0
 353 000c 2749     		ldr	r1, .L31
ARM GAS  C:\Users\HENRYA~1\AppData\Local\Temp\ccjVYXEn.s 			page 13


 354              	.LVL30:
 355 000e FFF7FEFF 		bl	__aeabi_fmul
 356              	.LVL31:
 357 0012 4000     		lsls	r0, r0, #1
 358 0014 4008     		lsrs	r0, r0, #1
 359 0016 FFF7FEFF 		bl	__aeabi_f2iz
 360              	.LVL32:
 361 001a 0600     		movs	r6, r0
 362              	.LVL33:
  91:main.c        ****     int Offset_env=(int)fabs(Offset*10000);
 363              		.loc 1 91 0
 364 001c 2349     		ldr	r1, .L31
 365 001e 0298     		ldr	r0, [sp, #8]
 366              	.LVL34:
 367 0020 FFF7FEFF 		bl	__aeabi_fmul
 368              	.LVL35:
 369 0024 4000     		lsls	r0, r0, #1
 370 0026 4008     		lsrs	r0, r0, #1
 371 0028 FFF7FEFF 		bl	__aeabi_f2iz
 372              	.LVL36:
 373 002c 0500     		movs	r5, r0
 374              	.LVL37:
  92:main.c        ****     //Enviar datos
 375              		.loc 1 92 0
 376 002e 1F49     		ldr	r1, .L31
 377 0030 0398     		ldr	r0, [sp, #12]
 378              	.LVL38:
 379 0032 FFF7FEFF 		bl	__aeabi_fmul
 380              	.LVL39:
 381 0036 4000     		lsls	r0, r0, #1
 382 0038 4008     		lsrs	r0, r0, #1
 383 003a FFF7FEFF 		bl	__aeabi_f2iz
 384              	.LVL40:
 385 003e 0400     		movs	r4, r0
 386              	.LVL41:
  94:main.c        ****     dato_enviado_1[1]=Orientacion;
 387              		.loc 1 94 0
 388 0040 1B4B     		ldr	r3, .L31+4
 389 0042 8122     		movs	r2, #129
 390 0044 1A70     		strb	r2, [r3]
  95:main.c        ****     //Convertir Amplitud
 391              		.loc 1 95 0
 392 0046 5F70     		strb	r7, [r3, #1]
  97:main.c        ****     uint8 datoH=Amp_env>>8;
 393              		.loc 1 97 0
 394 0048 F7B2     		uxtb	r7, r6
 395              	.LVL42:
  98:main.c        ****     uint8 Aux=0;
 396              		.loc 1 98 0
 397 004a 3612     		asrs	r6, r6, #8
 398              	.LVL43:
 399 004c F6B2     		uxtb	r6, r6
 400              	.LVL44:
 100:main.c        ****         Aux=(1<<7);
 401              		.loc 1 100 0
 402 004e 0021     		movs	r1, #0
 403 0050 0198     		ldr	r0, [sp, #4]
ARM GAS  C:\Users\HENRYA~1\AppData\Local\Temp\ccjVYXEn.s 			page 14


 404              	.LVL45:
 405 0052 FFF7FEFF 		bl	__aeabi_fcmplt
 406              	.LVL46:
 407 0056 0028     		cmp	r0, #0
 408 0058 01D0     		beq	.L22
 409              	.LVL47:
 102:main.c        ****     }
 410              		.loc 1 102 0
 411 005a 803E     		subs	r6, r6, #128
 412              	.LVL48:
 413 005c F6B2     		uxtb	r6, r6
 414              	.LVL49:
 415              	.L22:
 108:main.c        ****     dato_enviado_1[3]=datoH;
 416              		.loc 1 108 0
 417 005e 144B     		ldr	r3, .L31+4
 418 0060 9F70     		strb	r7, [r3, #2]
 109:main.c        ****     //Convertir Fase
 419              		.loc 1 109 0
 420 0062 DE70     		strb	r6, [r3, #3]
 111:main.c        ****     datoH=Phase_env>>8;
 421              		.loc 1 111 0
 422 0064 EEB2     		uxtb	r6, r5
 423              	.LVL50:
 112:main.c        ****     if(Phase<0.0){
 424              		.loc 1 112 0
 425 0066 2D12     		asrs	r5, r5, #8
 426              	.LVL51:
 427 0068 EDB2     		uxtb	r5, r5
 428              	.LVL52:
 113:main.c        ****         Aux=(1<<7);
 429              		.loc 1 113 0
 430 006a 0021     		movs	r1, #0
 431 006c 0298     		ldr	r0, [sp, #8]
 432 006e FFF7FEFF 		bl	__aeabi_fcmplt
 433              	.LVL53:
 434 0072 0028     		cmp	r0, #0
 435 0074 01D0     		beq	.L24
 436              	.LVL54:
 115:main.c        ****     }
 437              		.loc 1 115 0
 438 0076 803D     		subs	r5, r5, #128
 439              	.LVL55:
 440 0078 EDB2     		uxtb	r5, r5
 441              	.LVL56:
 442              	.L24:
 121:main.c        ****     dato_enviado_1[5]=datoH;
 443              		.loc 1 121 0
 444 007a 0D4B     		ldr	r3, .L31+4
 445 007c 1E71     		strb	r6, [r3, #4]
 122:main.c        ****     //Convertir Offset
 446              		.loc 1 122 0
 447 007e 5D71     		strb	r5, [r3, #5]
 124:main.c        ****     datoH=Offset_env>>8;
 448              		.loc 1 124 0
 449 0080 E5B2     		uxtb	r5, r4
 450              	.LVL57:
ARM GAS  C:\Users\HENRYA~1\AppData\Local\Temp\ccjVYXEn.s 			page 15


 125:main.c        ****     if(Offset<0.0){
 451              		.loc 1 125 0
 452 0082 2412     		asrs	r4, r4, #8
 453              	.LVL58:
 454 0084 E4B2     		uxtb	r4, r4
 455              	.LVL59:
 126:main.c        ****         Aux=(1<<7);
 456              		.loc 1 126 0
 457 0086 0021     		movs	r1, #0
 458 0088 0398     		ldr	r0, [sp, #12]
 459 008a FFF7FEFF 		bl	__aeabi_fcmplt
 460              	.LVL60:
 461 008e 0028     		cmp	r0, #0
 462 0090 01D0     		beq	.L26
 463              	.LVL61:
 128:main.c        ****     }
 464              		.loc 1 128 0
 465 0092 803C     		subs	r4, r4, #128
 466              	.LVL62:
 467 0094 E4B2     		uxtb	r4, r4
 468              	.LVL63:
 469              	.L26:
 134:main.c        ****     dato_enviado_1[7]=datoH;    
 470              		.loc 1 134 0
 471 0096 064B     		ldr	r3, .L31+4
 472 0098 9D71     		strb	r5, [r3, #6]
 135:main.c        ****     CAN_SendMsg1();
 473              		.loc 1 135 0
 474 009a DC71     		strb	r4, [r3, #7]
 136:main.c        ****     CyDelay(25);
 475              		.loc 1 136 0
 476 009c FFF7FEFF 		bl	CAN_SendMsg1
 477              	.LVL64:
 137:main.c        **** }
 478              		.loc 1 137 0
 479 00a0 1920     		movs	r0, #25
 480 00a2 FFF7FEFF 		bl	CyDelay
 481              	.LVL65:
 138:main.c        **** 
 482              		.loc 1 138 0
 483 00a6 05B0     		add	sp, sp, #20
 484              		@ sp needed
 485              	.LVL66:
 486              	.LVL67:
 487 00a8 F0BD     		pop	{r4, r5, r6, r7, pc}
 488              	.L32:
 489 00aa C046     		.align	2
 490              	.L31:
 491 00ac 00401C46 		.word	1176256512
 492 00b0 00000000 		.word	dato_enviado_1
 493              		.cfi_endproc
 494              	.LFE43:
 495              		.size	Enviar_Parametros, .-Enviar_Parametros
 496              		.section	.text.Recibe_mail_0,"ax",%progbits
 497              		.align	2
 498              		.global	Recibe_mail_0
 499              		.code	16
ARM GAS  C:\Users\HENRYA~1\AppData\Local\Temp\ccjVYXEn.s 			page 16


 500              		.thumb_func
 501              		.type	Recibe_mail_0, %function
 502              	Recibe_mail_0:
 503              	.LFB44:
 141:main.c        **** if(mailbox0[0]==VER){
 504              		.loc 1 141 0
 505              		.cfi_startproc
 506              		@ args = 0, pretend = 0, frame = 0
 507              		@ frame_needed = 0, uses_anonymous_args = 0
 508              		@ link register save eliminated.
 142:main.c        ****             switch(mailbox0[2]){
 509              		.loc 1 142 0
 510 0000 084B     		ldr	r3, .L37
 511 0002 1B78     		ldrb	r3, [r3]
 512 0004 7F2B     		cmp	r3, #127
 513 0006 0BD1     		bne	.L33
 143:main.c        ****             ///////////////////////////////////////////////////////
 514              		.loc 1 143 0
 515 0008 064B     		ldr	r3, .L37
 516 000a 9B78     		ldrb	r3, [r3, #2]
 517 000c 022B     		cmp	r3, #2
 518 000e 07D1     		bne	.L33
 146:main.c        ****                     case CANTIDAD_MOD: 
 519              		.loc 1 146 0
 520 0010 044B     		ldr	r3, .L37
 521 0012 DB78     		ldrb	r3, [r3, #3]
 522 0014 2B2B     		cmp	r3, #43
 523 0016 03D1     		bne	.L33
 148:main.c        ****                     break;
 524              		.loc 1 148 0
 525 0018 024B     		ldr	r3, .L37
 526 001a 1A79     		ldrb	r2, [r3, #4]
 527 001c 024B     		ldr	r3, .L37+4
 528 001e 5A60     		str	r2, [r3, #4]
 529              	.L33:
 167:main.c        **** 
 530              		.loc 1 167 0
 531              		@ sp needed
 532 0020 7047     		bx	lr
 533              	.L38:
 534 0022 C046     		.align	2
 535              	.L37:
 536 0024 00000000 		.word	mailbox0
 537 0028 00000000 		.word	.LANCHOR0
 538              		.cfi_endproc
 539              	.LFE44:
 540              		.size	Recibe_mail_0, .-Recibe_mail_0
 541              		.section	.text.Recibe_Mail_2,"ax",%progbits
 542              		.align	2
 543              		.global	Recibe_Mail_2
 544              		.code	16
 545              		.thumb_func
 546              		.type	Recibe_Mail_2, %function
 547              	Recibe_Mail_2:
 548              	.LFB45:
 169:main.c        ****     if(mailbox2[0]==SENSORES){
 549              		.loc 1 169 0
ARM GAS  C:\Users\HENRYA~1\AppData\Local\Temp\ccjVYXEn.s 			page 17


 550              		.cfi_startproc
 551              		@ args = 0, pretend = 0, frame = 0
 552              		@ frame_needed = 0, uses_anonymous_args = 0
 553              		@ link register save eliminated.
 170:main.c        ****         //Mailbox2[1] Derecha
 554              		.loc 1 170 0
 555 0000 3B4B     		ldr	r3, .L49
 556 0002 1B78     		ldrb	r3, [r3]
 557 0004 822B     		cmp	r3, #130
 558 0006 72D1     		bne	.L39
 174:main.c        ****         else if(mailbox2[1]==0&&mailbox2[2]==0&&mailbox2[3]==1) {Cantidad_Sensores=1;}   //Izquierd
 559              		.loc 1 174 0
 560 0008 394B     		ldr	r3, .L49
 561 000a 5B78     		ldrb	r3, [r3, #1]
 562 000c 002B     		cmp	r3, #0
 563 000e 0AD1     		bne	.L41
 174:main.c        ****         else if(mailbox2[1]==0&&mailbox2[2]==0&&mailbox2[3]==1) {Cantidad_Sensores=1;}   //Izquierd
 564              		.loc 1 174 0 is_stmt 0 discriminator 1
 565 0010 374A     		ldr	r2, .L49
 566 0012 9278     		ldrb	r2, [r2, #2]
 567 0014 002A     		cmp	r2, #0
 568 0016 06D1     		bne	.L41
 174:main.c        ****         else if(mailbox2[1]==0&&mailbox2[2]==0&&mailbox2[3]==1) {Cantidad_Sensores=1;}   //Izquierd
 569              		.loc 1 174 0 discriminator 2
 570 0018 354A     		ldr	r2, .L49
 571 001a D278     		ldrb	r2, [r2, #3]
 572 001c 002A     		cmp	r2, #0
 573 001e 02D1     		bne	.L41
 174:main.c        ****         else if(mailbox2[1]==0&&mailbox2[2]==0&&mailbox2[3]==1) {Cantidad_Sensores=1;}   //Izquierd
 574              		.loc 1 174 0 discriminator 3
 575 0020 344B     		ldr	r3, .L49+4
 576 0022 9A60     		str	r2, [r3, #8]
 577 0024 63E0     		b	.L39
 578              	.L41:
 175:main.c        ****         else if(mailbox2[1]==0&&mailbox2[2]==1&&mailbox2[3]==0) {Cantidad_Sensores=2;}   //Frontal
 579              		.loc 1 175 0 is_stmt 1
 580 0026 002B     		cmp	r3, #0
 581 0028 0AD1     		bne	.L42
 175:main.c        ****         else if(mailbox2[1]==0&&mailbox2[2]==1&&mailbox2[3]==0) {Cantidad_Sensores=2;}   //Frontal
 582              		.loc 1 175 0 is_stmt 0 discriminator 1
 583 002a 314A     		ldr	r2, .L49
 584 002c 9278     		ldrb	r2, [r2, #2]
 585 002e 002A     		cmp	r2, #0
 586 0030 06D1     		bne	.L42
 175:main.c        ****         else if(mailbox2[1]==0&&mailbox2[2]==1&&mailbox2[3]==0) {Cantidad_Sensores=2;}   //Frontal
 587              		.loc 1 175 0 discriminator 2
 588 0032 2F4A     		ldr	r2, .L49
 589 0034 D278     		ldrb	r2, [r2, #3]
 590 0036 012A     		cmp	r2, #1
 591 0038 02D1     		bne	.L42
 175:main.c        ****         else if(mailbox2[1]==0&&mailbox2[2]==1&&mailbox2[3]==0) {Cantidad_Sensores=2;}   //Frontal
 592              		.loc 1 175 0 discriminator 3
 593 003a 2E4B     		ldr	r3, .L49+4
 594 003c 9A60     		str	r2, [r3, #8]
 595 003e 56E0     		b	.L39
 596              	.L42:
 176:main.c        ****         else if(mailbox2[1]==0&&mailbox2[2]==1&&mailbox2[3]==1) {Cantidad_Sensores=3;}   //Frontal 
ARM GAS  C:\Users\HENRYA~1\AppData\Local\Temp\ccjVYXEn.s 			page 18


 597              		.loc 1 176 0 is_stmt 1
 598 0040 002B     		cmp	r3, #0
 599 0042 0BD1     		bne	.L43
 176:main.c        ****         else if(mailbox2[1]==0&&mailbox2[2]==1&&mailbox2[3]==1) {Cantidad_Sensores=3;}   //Frontal 
 600              		.loc 1 176 0 is_stmt 0 discriminator 1
 601 0044 2A4A     		ldr	r2, .L49
 602 0046 9278     		ldrb	r2, [r2, #2]
 603 0048 012A     		cmp	r2, #1
 604 004a 07D1     		bne	.L43
 176:main.c        ****         else if(mailbox2[1]==0&&mailbox2[2]==1&&mailbox2[3]==1) {Cantidad_Sensores=3;}   //Frontal 
 605              		.loc 1 176 0 discriminator 2
 606 004c 284A     		ldr	r2, .L49
 607 004e D278     		ldrb	r2, [r2, #3]
 608 0050 002A     		cmp	r2, #0
 609 0052 03D1     		bne	.L43
 176:main.c        ****         else if(mailbox2[1]==0&&mailbox2[2]==1&&mailbox2[3]==1) {Cantidad_Sensores=3;}   //Frontal 
 610              		.loc 1 176 0 discriminator 3
 611 0054 0232     		adds	r2, r2, #2
 612 0056 274B     		ldr	r3, .L49+4
 613 0058 9A60     		str	r2, [r3, #8]
 614 005a 48E0     		b	.L39
 615              	.L43:
 177:main.c        ****         else if(mailbox2[1]==1&&mailbox2[2]==0&&mailbox2[3]==0) {Cantidad_Sensores=4;}   //Derecha
 616              		.loc 1 177 0 is_stmt 1
 617 005c 002B     		cmp	r3, #0
 618 005e 0BD1     		bne	.L44
 177:main.c        ****         else if(mailbox2[1]==1&&mailbox2[2]==0&&mailbox2[3]==0) {Cantidad_Sensores=4;}   //Derecha
 619              		.loc 1 177 0 is_stmt 0 discriminator 1
 620 0060 234A     		ldr	r2, .L49
 621 0062 9278     		ldrb	r2, [r2, #2]
 622 0064 012A     		cmp	r2, #1
 623 0066 07D1     		bne	.L44
 177:main.c        ****         else if(mailbox2[1]==1&&mailbox2[2]==0&&mailbox2[3]==0) {Cantidad_Sensores=4;}   //Derecha
 624              		.loc 1 177 0 discriminator 2
 625 0068 214A     		ldr	r2, .L49
 626 006a D278     		ldrb	r2, [r2, #3]
 627 006c 012A     		cmp	r2, #1
 628 006e 03D1     		bne	.L44
 177:main.c        ****         else if(mailbox2[1]==1&&mailbox2[2]==0&&mailbox2[3]==0) {Cantidad_Sensores=4;}   //Derecha
 629              		.loc 1 177 0 discriminator 3
 630 0070 0232     		adds	r2, r2, #2
 631 0072 204B     		ldr	r3, .L49+4
 632 0074 9A60     		str	r2, [r3, #8]
 633 0076 3AE0     		b	.L39
 634              	.L44:
 178:main.c        ****         else if(mailbox2[1]==1&&mailbox2[2]==0&&mailbox2[3]==1) {Cantidad_Sensores=5;}   //Derecha 
 635              		.loc 1 178 0 is_stmt 1
 636 0078 012B     		cmp	r3, #1
 637 007a 0BD1     		bne	.L45
 178:main.c        ****         else if(mailbox2[1]==1&&mailbox2[2]==0&&mailbox2[3]==1) {Cantidad_Sensores=5;}   //Derecha 
 638              		.loc 1 178 0 is_stmt 0 discriminator 1
 639 007c 1C4A     		ldr	r2, .L49
 640 007e 9278     		ldrb	r2, [r2, #2]
 641 0080 002A     		cmp	r2, #0
 642 0082 07D1     		bne	.L45
 178:main.c        ****         else if(mailbox2[1]==1&&mailbox2[2]==0&&mailbox2[3]==1) {Cantidad_Sensores=5;}   //Derecha 
 643              		.loc 1 178 0 discriminator 2
ARM GAS  C:\Users\HENRYA~1\AppData\Local\Temp\ccjVYXEn.s 			page 19


 644 0084 1A4A     		ldr	r2, .L49
 645 0086 D278     		ldrb	r2, [r2, #3]
 646 0088 002A     		cmp	r2, #0
 647 008a 03D1     		bne	.L45
 178:main.c        ****         else if(mailbox2[1]==1&&mailbox2[2]==0&&mailbox2[3]==1) {Cantidad_Sensores=5;}   //Derecha 
 648              		.loc 1 178 0 discriminator 3
 649 008c 0432     		adds	r2, r2, #4
 650 008e 194B     		ldr	r3, .L49+4
 651 0090 9A60     		str	r2, [r3, #8]
 652 0092 2CE0     		b	.L39
 653              	.L45:
 179:main.c        ****         else if(mailbox2[1]==1&&mailbox2[2]==1&&mailbox2[3]==0) {Cantidad_Sensores=6;}   //Frontal 
 654              		.loc 1 179 0 is_stmt 1
 655 0094 012B     		cmp	r3, #1
 656 0096 0BD1     		bne	.L46
 179:main.c        ****         else if(mailbox2[1]==1&&mailbox2[2]==1&&mailbox2[3]==0) {Cantidad_Sensores=6;}   //Frontal 
 657              		.loc 1 179 0 is_stmt 0 discriminator 1
 658 0098 154A     		ldr	r2, .L49
 659 009a 9278     		ldrb	r2, [r2, #2]
 660 009c 002A     		cmp	r2, #0
 661 009e 07D1     		bne	.L46
 179:main.c        ****         else if(mailbox2[1]==1&&mailbox2[2]==1&&mailbox2[3]==0) {Cantidad_Sensores=6;}   //Frontal 
 662              		.loc 1 179 0 discriminator 2
 663 00a0 134A     		ldr	r2, .L49
 664 00a2 D278     		ldrb	r2, [r2, #3]
 665 00a4 012A     		cmp	r2, #1
 666 00a6 03D1     		bne	.L46
 179:main.c        ****         else if(mailbox2[1]==1&&mailbox2[2]==1&&mailbox2[3]==0) {Cantidad_Sensores=6;}   //Frontal 
 667              		.loc 1 179 0 discriminator 3
 668 00a8 0432     		adds	r2, r2, #4
 669 00aa 124B     		ldr	r3, .L49+4
 670 00ac 9A60     		str	r2, [r3, #8]
 671 00ae 1EE0     		b	.L39
 672              	.L46:
 180:main.c        ****         else if(mailbox2[1]==1&&mailbox2[2]==1&&mailbox2[3]==1) {Cantidad_Sensores=7;}   //Todos
 673              		.loc 1 180 0 is_stmt 1
 674 00b0 012B     		cmp	r3, #1
 675 00b2 0BD1     		bne	.L47
 180:main.c        ****         else if(mailbox2[1]==1&&mailbox2[2]==1&&mailbox2[3]==1) {Cantidad_Sensores=7;}   //Todos
 676              		.loc 1 180 0 is_stmt 0 discriminator 1
 677 00b4 0E4A     		ldr	r2, .L49
 678 00b6 9278     		ldrb	r2, [r2, #2]
 679 00b8 012A     		cmp	r2, #1
 680 00ba 07D1     		bne	.L47
 180:main.c        ****         else if(mailbox2[1]==1&&mailbox2[2]==1&&mailbox2[3]==1) {Cantidad_Sensores=7;}   //Todos
 681              		.loc 1 180 0 discriminator 2
 682 00bc 0C4A     		ldr	r2, .L49
 683 00be D278     		ldrb	r2, [r2, #3]
 684 00c0 002A     		cmp	r2, #0
 685 00c2 03D1     		bne	.L47
 180:main.c        ****         else if(mailbox2[1]==1&&mailbox2[2]==1&&mailbox2[3]==1) {Cantidad_Sensores=7;}   //Todos
 686              		.loc 1 180 0 discriminator 3
 687 00c4 0632     		adds	r2, r2, #6
 688 00c6 0B4B     		ldr	r3, .L49+4
 689 00c8 9A60     		str	r2, [r3, #8]
 690 00ca 10E0     		b	.L39
 691              	.L47:
ARM GAS  C:\Users\HENRYA~1\AppData\Local\Temp\ccjVYXEn.s 			page 20


 181:main.c        ****         else                                                    {Cantidad_Sensores=0;}   //Normal
 692              		.loc 1 181 0 is_stmt 1
 693 00cc 012B     		cmp	r3, #1
 694 00ce 0BD1     		bne	.L48
 181:main.c        ****         else                                                    {Cantidad_Sensores=0;}   //Normal
 695              		.loc 1 181 0 is_stmt 0 discriminator 1
 696 00d0 074B     		ldr	r3, .L49
 697 00d2 9B78     		ldrb	r3, [r3, #2]
 698 00d4 012B     		cmp	r3, #1
 699 00d6 07D1     		bne	.L48
 181:main.c        ****         else                                                    {Cantidad_Sensores=0;}   //Normal
 700              		.loc 1 181 0 discriminator 2
 701 00d8 054B     		ldr	r3, .L49
 702 00da DB78     		ldrb	r3, [r3, #3]
 703 00dc 012B     		cmp	r3, #1
 704 00de 03D1     		bne	.L48
 181:main.c        ****         else                                                    {Cantidad_Sensores=0;}   //Normal
 705              		.loc 1 181 0 discriminator 3
 706 00e0 0722     		movs	r2, #7
 707 00e2 044B     		ldr	r3, .L49+4
 708 00e4 9A60     		str	r2, [r3, #8]
 709 00e6 02E0     		b	.L39
 710              	.L48:
 182:main.c        ****     }
 711              		.loc 1 182 0 is_stmt 1
 712 00e8 0022     		movs	r2, #0
 713 00ea 024B     		ldr	r3, .L49+4
 714 00ec 9A60     		str	r2, [r3, #8]
 715              	.L39:
 184:main.c        **** 
 716              		.loc 1 184 0
 717              		@ sp needed
 718 00ee 7047     		bx	lr
 719              	.L50:
 720              		.align	2
 721              	.L49:
 722 00f0 00000000 		.word	mailbox2
 723 00f4 00000000 		.word	.LANCHOR0
 724              		.cfi_endproc
 725              	.LFE45:
 726              		.size	Recibe_Mail_2, .-Recibe_Mail_2
 727              		.section	.text.interrutcan,"ax",%progbits
 728              		.align	2
 729              		.global	interrutcan
 730              		.code	16
 731              		.thumb_func
 732              		.type	interrutcan, %function
 733              	interrutcan:
 734              	.LFB53:
 289:main.c        **** 
 290:main.c        **** CY_ISR(interrutcan){
 735              		.loc 1 290 0
 736              		.cfi_startproc
 737              		@ args = 0, pretend = 0, frame = 0
 738              		@ frame_needed = 0, uses_anonymous_args = 0
 739 0000 10B5     		push	{r4, lr}
 740              		.cfi_def_cfa_offset 8
ARM GAS  C:\Users\HENRYA~1\AppData\Local\Temp\ccjVYXEn.s 			page 21


 741              		.cfi_offset 4, -8
 742              		.cfi_offset 14, -4
 291:main.c        ****     CAN_GlobalIntDisable();
 743              		.loc 1 291 0
 744 0002 FFF7FEFF 		bl	CAN_GlobalIntDisable
 745              	.LVL68:
 292:main.c        ****     CAN_MsgRXIsr();  
 746              		.loc 1 292 0
 747 0006 FFF7FEFF 		bl	CAN_MsgRXIsr
 748              	.LVL69:
 293:main.c        ****     Recibe_mail_0();
 749              		.loc 1 293 0
 750 000a FFF7FEFF 		bl	Recibe_mail_0
 751              	.LVL70:
 294:main.c        ****     Recibe_Mail_2();
 752              		.loc 1 294 0
 753 000e FFF7FEFF 		bl	Recibe_Mail_2
 754              	.LVL71:
 295:main.c        ****     CAN_GlobalIntEnable();
 755              		.loc 1 295 0
 756 0012 FFF7FEFF 		bl	CAN_GlobalIntEnable
 757              	.LVL72:
 296:main.c        **** }
 758              		.loc 1 296 0
 759              		@ sp needed
 760 0016 10BD     		pop	{r4, pc}
 761              		.cfi_endproc
 762              	.LFE53:
 763              		.size	interrutcan, .-interrutcan
 764              		.section	.text.Left_Move,"ax",%progbits
 765              		.align	2
 766              		.global	Left_Move
 767              		.code	16
 768              		.thumb_func
 769              		.type	Left_Move, %function
 770              	Left_Move:
 771              	.LFB46:
 186:main.c        ****     Send_Angle(0,200);
 772              		.loc 1 186 0
 773              		.cfi_startproc
 774              		@ args = 0, pretend = 0, frame = 0
 775              		@ frame_needed = 0, uses_anonymous_args = 0
 776 0000 70B5     		push	{r4, r5, r6, lr}
 777              		.cfi_def_cfa_offset 16
 778              		.cfi_offset 4, -16
 779              		.cfi_offset 5, -12
 780              		.cfi_offset 6, -8
 781              		.cfi_offset 14, -4
 187:main.c        ****     int  i=0;
 782              		.loc 1 187 0
 783 0002 C821     		movs	r1, #200
 784 0004 0020     		movs	r0, #0
 785 0006 FFF7FEFF 		bl	Send_Angle
 786              	.LVL73:
 190:main.c        ****         movimiento(i,512);
 787              		.loc 1 190 0
 788 000a 0024     		movs	r4, #0
ARM GAS  C:\Users\HENRYA~1\AppData\Local\Temp\ccjVYXEn.s 			page 22


 789 000c 05E0     		b	.L53
 790              	.LVL74:
 791              	.L54:
 191:main.c        ****         }
 792              		.loc 1 191 0 discriminator 3
 793 000e 8021     		movs	r1, #128
 794 0010 8900     		lsls	r1, r1, #2
 795 0012 2000     		movs	r0, r4
 796 0014 FFF7FEFF 		bl	movimiento
 797              	.LVL75:
 190:main.c        ****         movimiento(i,512);
 798              		.loc 1 190 0 discriminator 3
 799 0018 0134     		adds	r4, r4, #1
 800              	.LVL76:
 801              	.L53:
 190:main.c        ****         movimiento(i,512);
 802              		.loc 1 190 0 is_stmt 0 discriminator 1
 803 001a 304B     		ldr	r3, .L63
 804 001c 5B68     		ldr	r3, [r3, #4]
 805 001e 9C42     		cmp	r4, r3
 806 0020 F5DB     		blt	.L54
 193:main.c        ****     movimiento(cantidadM,675);//Ancla Trasera
 807              		.loc 1 193 0 is_stmt 1
 808 0022 FA24     		movs	r4, #250
 809              	.LVL77:
 810 0024 E400     		lsls	r4, r4, #3
 811 0026 2000     		movs	r0, r4
 812 0028 FFF7FEFF 		bl	CyDelay
 813              	.LVL78:
 194:main.c        ****     CyDelay(2000);
 814              		.loc 1 194 0
 815 002c 2B4B     		ldr	r3, .L63
 816 002e 5868     		ldr	r0, [r3, #4]
 817 0030 2B49     		ldr	r1, .L63+4
 818 0032 FFF7FEFF 		bl	movimiento
 819              	.LVL79:
 195:main.c        ****     //Giro
 820              		.loc 1 195 0
 821 0036 2000     		movs	r0, r4
 822 0038 FFF7FEFF 		bl	CyDelay
 823              	.LVL80:
 197:main.c        ****         for(i=2;i<cantidadM;i=i+4){ 
 824              		.loc 1 197 0
 825 003c 0026     		movs	r6, #0
 826 003e 35E0     		b	.L55
 827              	.LVL81:
 828              	.L56:
 199:main.c        ****             movimiento(i+1,750);
 829              		.loc 1 199 0 discriminator 3
 830 0040 2849     		ldr	r1, .L63+8
 831 0042 2000     		movs	r0, r4
 832 0044 FFF7FEFF 		bl	movimiento
 833              	.LVL82:
 200:main.c        ****             }
 834              		.loc 1 200 0 discriminator 3
 835 0048 601C     		adds	r0, r4, #1
 836 004a 2749     		ldr	r1, .L63+12
ARM GAS  C:\Users\HENRYA~1\AppData\Local\Temp\ccjVYXEn.s 			page 23


 837 004c FFF7FEFF 		bl	movimiento
 838              	.LVL83:
 198:main.c        ****             movimiento(i,650);
 839              		.loc 1 198 0 discriminator 3
 840 0050 0434     		adds	r4, r4, #4
 841              	.LVL84:
 842 0052 00E0     		b	.L59
 843              	.LVL85:
 844              	.L62:
 845 0054 0224     		movs	r4, #2
 846              	.L59:
 847              	.LVL86:
 198:main.c        ****             movimiento(i,650);
 848              		.loc 1 198 0 is_stmt 0 discriminator 1
 849 0056 214B     		ldr	r3, .L63
 850 0058 5868     		ldr	r0, [r3, #4]
 851 005a 8442     		cmp	r4, r0
 852 005c F0DB     		blt	.L56
 202:main.c        ****         CyDelay(2000);
 853              		.loc 1 202 0 is_stmt 1
 854 005e 8021     		movs	r1, #128
 855 0060 8900     		lsls	r1, r1, #2
 856 0062 FFF7FEFF 		bl	movimiento
 857              	.LVL87:
 203:main.c        ****         movimiento(0,350);//Ancla Delantera
 858              		.loc 1 203 0
 859 0066 FA24     		movs	r4, #250
 860              	.LVL88:
 861 0068 E400     		lsls	r4, r4, #3
 862 006a 2000     		movs	r0, r4
 863 006c FFF7FEFF 		bl	CyDelay
 864              	.LVL89:
 204:main.c        ****         CyDelay(2000);
 865              		.loc 1 204 0
 866 0070 AF21     		movs	r1, #175
 867 0072 4900     		lsls	r1, r1, #1
 868 0074 0020     		movs	r0, #0
 869 0076 FFF7FEFF 		bl	movimiento
 870              	.LVL90:
 205:main.c        ****         for(i=2;i<cantidadM;i=i+4){ //Alineación
 871              		.loc 1 205 0
 872 007a 2000     		movs	r0, r4
 873 007c FFF7FEFF 		bl	CyDelay
 874              	.LVL91:
 206:main.c        ****             movimiento(i,512);
 875              		.loc 1 206 0
 876 0080 0224     		movs	r4, #2
 877 0082 0AE0     		b	.L57
 878              	.LVL92:
 879              	.L58:
 207:main.c        ****             movimiento(i+1,512);
 880              		.loc 1 207 0 discriminator 3
 881 0084 8025     		movs	r5, #128
 882 0086 AD00     		lsls	r5, r5, #2
 883 0088 2900     		movs	r1, r5
 884 008a 2000     		movs	r0, r4
 885 008c FFF7FEFF 		bl	movimiento
ARM GAS  C:\Users\HENRYA~1\AppData\Local\Temp\ccjVYXEn.s 			page 24


 886              	.LVL93:
 208:main.c        ****         }    
 887              		.loc 1 208 0 discriminator 3
 888 0090 601C     		adds	r0, r4, #1
 889 0092 2900     		movs	r1, r5
 890 0094 FFF7FEFF 		bl	movimiento
 891              	.LVL94:
 206:main.c        ****             movimiento(i,512);
 892              		.loc 1 206 0 discriminator 3
 893 0098 0434     		adds	r4, r4, #4
 894              	.LVL95:
 895              	.L57:
 206:main.c        ****             movimiento(i,512);
 896              		.loc 1 206 0 is_stmt 0 discriminator 1
 897 009a 104B     		ldr	r3, .L63
 898 009c 5B68     		ldr	r3, [r3, #4]
 899 009e 9C42     		cmp	r4, r3
 900 00a0 F0DB     		blt	.L58
 210:main.c        ****     }         
 901              		.loc 1 210 0 is_stmt 1 discriminator 2
 902 00a2 FA20     		movs	r0, #250
 903 00a4 C000     		lsls	r0, r0, #3
 904 00a6 FFF7FEFF 		bl	CyDelay
 905              	.LVL96:
 197:main.c        ****         for(i=2;i<cantidadM;i=i+4){ 
 906              		.loc 1 197 0 discriminator 2
 907 00aa 0136     		adds	r6, r6, #1
 908              	.LVL97:
 909              	.L55:
 197:main.c        ****         for(i=2;i<cantidadM;i=i+4){ 
 910              		.loc 1 197 0 is_stmt 0 discriminator 1
 911 00ac 002E     		cmp	r6, #0
 912 00ae D1DD     		ble	.L62
 913 00b0 0024     		movs	r4, #0
 914 00b2 05E0     		b	.L60
 915              	.LVL98:
 916              	.L61:
 213:main.c        ****         }
 917              		.loc 1 213 0 is_stmt 1 discriminator 3
 918 00b4 8021     		movs	r1, #128
 919 00b6 8900     		lsls	r1, r1, #2
 920 00b8 2000     		movs	r0, r4
 921 00ba FFF7FEFF 		bl	movimiento
 922              	.LVL99:
 212:main.c        ****         movimiento(i,512);
 923              		.loc 1 212 0 discriminator 3
 924 00be 0134     		adds	r4, r4, #1
 925              	.LVL100:
 926              	.L60:
 212:main.c        ****         movimiento(i,512);
 927              		.loc 1 212 0 is_stmt 0 discriminator 1
 928 00c0 064B     		ldr	r3, .L63
 929 00c2 5B68     		ldr	r3, [r3, #4]
 930 00c4 9C42     		cmp	r4, r3
 931 00c6 F5DB     		blt	.L61
 215:main.c        ****     Send_Angle(0,0);
 932              		.loc 1 215 0 is_stmt 1
ARM GAS  C:\Users\HENRYA~1\AppData\Local\Temp\ccjVYXEn.s 			page 25


 933 00c8 FA20     		movs	r0, #250
 934 00ca C000     		lsls	r0, r0, #3
 935 00cc FFF7FEFF 		bl	CyDelay
 936              	.LVL101:
 216:main.c        **** }
 937              		.loc 1 216 0
 938 00d0 0021     		movs	r1, #0
 939 00d2 0020     		movs	r0, #0
 940 00d4 FFF7FEFF 		bl	Send_Angle
 941              	.LVL102:
 217:main.c        **** 
 942              		.loc 1 217 0
 943              		@ sp needed
 944              	.LVL103:
 945              	.LVL104:
 946 00d8 70BD     		pop	{r4, r5, r6, pc}
 947              	.L64:
 948 00da C046     		.align	2
 949              	.L63:
 950 00dc 00000000 		.word	.LANCHOR0
 951 00e0 A3020000 		.word	675
 952 00e4 8A020000 		.word	650
 953 00e8 EE020000 		.word	750
 954              		.cfi_endproc
 955              	.LFE46:
 956              		.size	Left_Move, .-Left_Move
 957              		.section	.text.Right_Move,"ax",%progbits
 958              		.align	2
 959              		.global	Right_Move
 960              		.code	16
 961              		.thumb_func
 962              		.type	Right_Move, %function
 963              	Right_Move:
 964              	.LFB47:
 219:main.c        ****     Send_Angle(0,200);
 965              		.loc 1 219 0
 966              		.cfi_startproc
 967              		@ args = 0, pretend = 0, frame = 0
 968              		@ frame_needed = 0, uses_anonymous_args = 0
 969 0000 70B5     		push	{r4, r5, r6, lr}
 970              		.cfi_def_cfa_offset 16
 971              		.cfi_offset 4, -16
 972              		.cfi_offset 5, -12
 973              		.cfi_offset 6, -8
 974              		.cfi_offset 14, -4
 220:main.c        ****     int  i=0;
 975              		.loc 1 220 0
 976 0002 C821     		movs	r1, #200
 977 0004 0020     		movs	r0, #0
 978 0006 FFF7FEFF 		bl	Send_Angle
 979              	.LVL105:
 223:main.c        ****         movimiento(i,512);
 980              		.loc 1 223 0
 981 000a 0024     		movs	r4, #0
 982 000c 05E0     		b	.L66
 983              	.LVL106:
 984              	.L67:
ARM GAS  C:\Users\HENRYA~1\AppData\Local\Temp\ccjVYXEn.s 			page 26


 224:main.c        ****         }
 985              		.loc 1 224 0 discriminator 3
 986 000e 8021     		movs	r1, #128
 987 0010 8900     		lsls	r1, r1, #2
 988 0012 2000     		movs	r0, r4
 989 0014 FFF7FEFF 		bl	movimiento
 990              	.LVL107:
 223:main.c        ****         movimiento(i,512);
 991              		.loc 1 223 0 discriminator 3
 992 0018 0134     		adds	r4, r4, #1
 993              	.LVL108:
 994              	.L66:
 223:main.c        ****         movimiento(i,512);
 995              		.loc 1 223 0 is_stmt 0 discriminator 1
 996 001a 314B     		ldr	r3, .L76
 997 001c 5B68     		ldr	r3, [r3, #4]
 998 001e 9C42     		cmp	r4, r3
 999 0020 F5DB     		blt	.L67
 226:main.c        ****     movimiento(cantidadM,675);//Ancla Trasera
 1000              		.loc 1 226 0 is_stmt 1
 1001 0022 FA24     		movs	r4, #250
 1002              	.LVL109:
 1003 0024 E400     		lsls	r4, r4, #3
 1004 0026 2000     		movs	r0, r4
 1005 0028 FFF7FEFF 		bl	CyDelay
 1006              	.LVL110:
 227:main.c        ****     CyDelay(2000);
 1007              		.loc 1 227 0
 1008 002c 2C4B     		ldr	r3, .L76
 1009 002e 5868     		ldr	r0, [r3, #4]
 1010 0030 2C49     		ldr	r1, .L76+4
 1011 0032 FFF7FEFF 		bl	movimiento
 1012              	.LVL111:
 228:main.c        ****     //Giro
 1013              		.loc 1 228 0
 1014 0036 2000     		movs	r0, r4
 1015 0038 FFF7FEFF 		bl	CyDelay
 1016              	.LVL112:
 230:main.c        ****         for(i=2;i<cantidadM;i=i+4){ 
 1017              		.loc 1 230 0
 1018 003c 0026     		movs	r6, #0
 1019 003e 37E0     		b	.L68
 1020              	.LVL113:
 1021              	.L69:
 232:main.c        ****             movimiento(i+1,274);
 1022              		.loc 1 232 0 discriminator 3
 1023 0040 BB21     		movs	r1, #187
 1024 0042 4900     		lsls	r1, r1, #1
 1025 0044 2000     		movs	r0, r4
 1026 0046 FFF7FEFF 		bl	movimiento
 1027              	.LVL114:
 233:main.c        ****             }
 1028              		.loc 1 233 0 discriminator 3
 1029 004a 601C     		adds	r0, r4, #1
 1030 004c 8921     		movs	r1, #137
 1031 004e 4900     		lsls	r1, r1, #1
 1032 0050 FFF7FEFF 		bl	movimiento
ARM GAS  C:\Users\HENRYA~1\AppData\Local\Temp\ccjVYXEn.s 			page 27


 1033              	.LVL115:
 231:main.c        ****             movimiento(i,374);
 1034              		.loc 1 231 0 discriminator 3
 1035 0054 0434     		adds	r4, r4, #4
 1036              	.LVL116:
 1037 0056 00E0     		b	.L72
 1038              	.LVL117:
 1039              	.L75:
 1040 0058 0224     		movs	r4, #2
 1041              	.L72:
 1042              	.LVL118:
 231:main.c        ****             movimiento(i,374);
 1043              		.loc 1 231 0 is_stmt 0 discriminator 1
 1044 005a 214B     		ldr	r3, .L76
 1045 005c 5868     		ldr	r0, [r3, #4]
 1046 005e 8442     		cmp	r4, r0
 1047 0060 EEDB     		blt	.L69
 235:main.c        ****         CyDelay(2000);
 1048              		.loc 1 235 0 is_stmt 1
 1049 0062 8021     		movs	r1, #128
 1050 0064 8900     		lsls	r1, r1, #2
 1051 0066 FFF7FEFF 		bl	movimiento
 1052              	.LVL119:
 236:main.c        ****         movimiento(0,350);//Ancla Delantera
 1053              		.loc 1 236 0
 1054 006a FA24     		movs	r4, #250
 1055              	.LVL120:
 1056 006c E400     		lsls	r4, r4, #3
 1057 006e 2000     		movs	r0, r4
 1058 0070 FFF7FEFF 		bl	CyDelay
 1059              	.LVL121:
 237:main.c        ****         CyDelay(2000);
 1060              		.loc 1 237 0
 1061 0074 AF21     		movs	r1, #175
 1062 0076 4900     		lsls	r1, r1, #1
 1063 0078 0020     		movs	r0, #0
 1064 007a FFF7FEFF 		bl	movimiento
 1065              	.LVL122:
 238:main.c        ****         for(i=2;i<cantidadM;i=i+4){ //Alineación
 1066              		.loc 1 238 0
 1067 007e 2000     		movs	r0, r4
 1068 0080 FFF7FEFF 		bl	CyDelay
 1069              	.LVL123:
 239:main.c        ****             movimiento(i,512);
 1070              		.loc 1 239 0
 1071 0084 0224     		movs	r4, #2
 1072 0086 0AE0     		b	.L70
 1073              	.LVL124:
 1074              	.L71:
 240:main.c        ****             movimiento(i+1,512);
 1075              		.loc 1 240 0 discriminator 3
 1076 0088 8025     		movs	r5, #128
 1077 008a AD00     		lsls	r5, r5, #2
 1078 008c 2900     		movs	r1, r5
 1079 008e 2000     		movs	r0, r4
 1080 0090 FFF7FEFF 		bl	movimiento
 1081              	.LVL125:
ARM GAS  C:\Users\HENRYA~1\AppData\Local\Temp\ccjVYXEn.s 			page 28


 241:main.c        ****         }    
 1082              		.loc 1 241 0 discriminator 3
 1083 0094 601C     		adds	r0, r4, #1
 1084 0096 2900     		movs	r1, r5
 1085 0098 FFF7FEFF 		bl	movimiento
 1086              	.LVL126:
 239:main.c        ****             movimiento(i,512);
 1087              		.loc 1 239 0 discriminator 3
 1088 009c 0434     		adds	r4, r4, #4
 1089              	.LVL127:
 1090              	.L70:
 239:main.c        ****             movimiento(i,512);
 1091              		.loc 1 239 0 is_stmt 0 discriminator 1
 1092 009e 104B     		ldr	r3, .L76
 1093 00a0 5B68     		ldr	r3, [r3, #4]
 1094 00a2 9C42     		cmp	r4, r3
 1095 00a4 F0DB     		blt	.L71
 243:main.c        ****     }         
 1096              		.loc 1 243 0 is_stmt 1 discriminator 2
 1097 00a6 FA20     		movs	r0, #250
 1098 00a8 C000     		lsls	r0, r0, #3
 1099 00aa FFF7FEFF 		bl	CyDelay
 1100              	.LVL128:
 230:main.c        ****         for(i=2;i<cantidadM;i=i+4){ 
 1101              		.loc 1 230 0 discriminator 2
 1102 00ae 0136     		adds	r6, r6, #1
 1103              	.LVL129:
 1104              	.L68:
 230:main.c        ****         for(i=2;i<cantidadM;i=i+4){ 
 1105              		.loc 1 230 0 is_stmt 0 discriminator 1
 1106 00b0 002E     		cmp	r6, #0
 1107 00b2 D1DD     		ble	.L75
 1108 00b4 0024     		movs	r4, #0
 1109 00b6 05E0     		b	.L73
 1110              	.LVL130:
 1111              	.L74:
 246:main.c        ****         }
 1112              		.loc 1 246 0 is_stmt 1 discriminator 3
 1113 00b8 8021     		movs	r1, #128
 1114 00ba 8900     		lsls	r1, r1, #2
 1115 00bc 2000     		movs	r0, r4
 1116 00be FFF7FEFF 		bl	movimiento
 1117              	.LVL131:
 245:main.c        ****         movimiento(i,512);
 1118              		.loc 1 245 0 discriminator 3
 1119 00c2 0134     		adds	r4, r4, #1
 1120              	.LVL132:
 1121              	.L73:
 245:main.c        ****         movimiento(i,512);
 1122              		.loc 1 245 0 is_stmt 0 discriminator 1
 1123 00c4 064B     		ldr	r3, .L76
 1124 00c6 5B68     		ldr	r3, [r3, #4]
 1125 00c8 9C42     		cmp	r4, r3
 1126 00ca F5DB     		blt	.L74
 248:main.c        ****     Send_Angle(0,0);
 1127              		.loc 1 248 0 is_stmt 1
 1128 00cc FA20     		movs	r0, #250
ARM GAS  C:\Users\HENRYA~1\AppData\Local\Temp\ccjVYXEn.s 			page 29


 1129 00ce C000     		lsls	r0, r0, #3
 1130 00d0 FFF7FEFF 		bl	CyDelay
 1131              	.LVL133:
 249:main.c        **** }
 1132              		.loc 1 249 0
 1133 00d4 0021     		movs	r1, #0
 1134 00d6 0020     		movs	r0, #0
 1135 00d8 FFF7FEFF 		bl	Send_Angle
 1136              	.LVL134:
 250:main.c        **** 
 1137              		.loc 1 250 0
 1138              		@ sp needed
 1139              	.LVL135:
 1140              	.LVL136:
 1141 00dc 70BD     		pop	{r4, r5, r6, pc}
 1142              	.L77:
 1143 00de C046     		.align	2
 1144              	.L76:
 1145 00e0 00000000 		.word	.LANCHOR0
 1146 00e4 A3020000 		.word	675
 1147              		.cfi_endproc
 1148              	.LFE47:
 1149              		.size	Right_Move, .-Right_Move
 1150              		.section	.text.Select_Move,"ax",%progbits
 1151              		.align	2
 1152              		.global	Select_Move
 1153              		.code	16
 1154              		.thumb_func
 1155              		.type	Select_Move, %function
 1156              	Select_Move:
 1157              	.LFB48:
 252:main.c        ****     Send_Angle(0,200);
 1158              		.loc 1 252 0
 1159              		.cfi_startproc
 1160              		@ args = 0, pretend = 0, frame = 0
 1161              		@ frame_needed = 0, uses_anonymous_args = 0
 1162 0000 10B5     		push	{r4, lr}
 1163              		.cfi_def_cfa_offset 8
 1164              		.cfi_offset 4, -8
 1165              		.cfi_offset 14, -4
 253:main.c        ****     int  i=0;
 1166              		.loc 1 253 0
 1167 0002 C821     		movs	r1, #200
 1168 0004 0020     		movs	r0, #0
 1169 0006 FFF7FEFF 		bl	Send_Angle
 1170              	.LVL137:
 255:main.c        ****         movimiento(i,512);
 1171              		.loc 1 255 0
 1172 000a 0024     		movs	r4, #0
 1173 000c 05E0     		b	.L79
 1174              	.LVL138:
 1175              	.L80:
 256:main.c        ****         }
 1176              		.loc 1 256 0 discriminator 3
 1177 000e 8021     		movs	r1, #128
 1178 0010 8900     		lsls	r1, r1, #2
 1179 0012 2000     		movs	r0, r4
ARM GAS  C:\Users\HENRYA~1\AppData\Local\Temp\ccjVYXEn.s 			page 30


 1180 0014 FFF7FEFF 		bl	movimiento
 1181              	.LVL139:
 255:main.c        ****         movimiento(i,512);
 1182              		.loc 1 255 0 discriminator 3
 1183 0018 0134     		adds	r4, r4, #1
 1184              	.LVL140:
 1185              	.L79:
 255:main.c        ****         movimiento(i,512);
 1186              		.loc 1 255 0 is_stmt 0 discriminator 1
 1187 001a 052C     		cmp	r4, #5
 1188 001c F7DD     		ble	.L80
 258:main.c        ****     movimiento(2,750);
 1189              		.loc 1 258 0 is_stmt 1
 1190 001e FA20     		movs	r0, #250
 1191 0020 C000     		lsls	r0, r0, #3
 1192 0022 FFF7FEFF 		bl	CyDelay
 1193              	.LVL141:
 259:main.c        ****     CyDelay(5000);
 1194              		.loc 1 259 0
 1195 0026 0549     		ldr	r1, .L81
 1196 0028 0220     		movs	r0, #2
 1197 002a FFF7FEFF 		bl	movimiento
 1198              	.LVL142:
 260:main.c        ****     move_s=1;
 1199              		.loc 1 260 0
 1200 002e 0448     		ldr	r0, .L81+4
 1201 0030 FFF7FEFF 		bl	CyDelay
 1202              	.LVL143:
 261:main.c        **** }
 1203              		.loc 1 261 0
 1204 0034 0122     		movs	r2, #1
 1205 0036 034B     		ldr	r3, .L81+8
 1206 0038 DA60     		str	r2, [r3, #12]
 262:main.c        **** 
 1207              		.loc 1 262 0
 1208              		@ sp needed
 1209              	.LVL144:
 1210 003a 10BD     		pop	{r4, pc}
 1211              	.L82:
 1212              		.align	2
 1213              	.L81:
 1214 003c EE020000 		.word	750
 1215 0040 88130000 		.word	5000
 1216 0044 00000000 		.word	.LANCHOR0
 1217              		.cfi_endproc
 1218              	.LFE48:
 1219              		.size	Select_Move, .-Select_Move
 1220              		.section	.text.Select_Move_2,"ax",%progbits
 1221              		.align	2
 1222              		.global	Select_Move_2
 1223              		.code	16
 1224              		.thumb_func
 1225              		.type	Select_Move_2, %function
 1226              	Select_Move_2:
 1227              	.LFB49:
 264:main.c        ****     punto_a=dist;  
 1228              		.loc 1 264 0
ARM GAS  C:\Users\HENRYA~1\AppData\Local\Temp\ccjVYXEn.s 			page 31


 1229              		.cfi_startproc
 1230              		@ args = 0, pretend = 0, frame = 0
 1231              		@ frame_needed = 0, uses_anonymous_args = 0
 1232              		@ link register save eliminated.
 265:main.c        ****     move_s=2;
 1233              		.loc 1 265 0
 1234 0000 024B     		ldr	r3, .L84
 1235 0002 1A78     		ldrb	r2, [r3]
 1236 0004 1A61     		str	r2, [r3, #16]
 266:main.c        **** }
 1237              		.loc 1 266 0
 1238 0006 0222     		movs	r2, #2
 1239 0008 DA60     		str	r2, [r3, #12]
 267:main.c        **** 
 1240              		.loc 1 267 0
 1241              		@ sp needed
 1242 000a 7047     		bx	lr
 1243              	.L85:
 1244              		.align	2
 1245              	.L84:
 1246 000c 00000000 		.word	.LANCHOR0
 1247              		.cfi_endproc
 1248              	.LFE49:
 1249              		.size	Select_Move_2, .-Select_Move_2
 1250              		.section	.text.Select_Move_3,"ax",%progbits
 1251              		.align	2
 1252              		.global	Select_Move_3
 1253              		.code	16
 1254              		.thumb_func
 1255              		.type	Select_Move_3, %function
 1256              	Select_Move_3:
 1257              	.LFB50:
 269:main.c        ****     movimiento(2,274);
 1258              		.loc 1 269 0
 1259              		.cfi_startproc
 1260              		@ args = 0, pretend = 0, frame = 0
 1261              		@ frame_needed = 0, uses_anonymous_args = 0
 1262 0000 10B5     		push	{r4, lr}
 1263              		.cfi_def_cfa_offset 8
 1264              		.cfi_offset 4, -8
 1265              		.cfi_offset 14, -4
 270:main.c        ****     CyDelay(5000);
 1266              		.loc 1 270 0
 1267 0002 8921     		movs	r1, #137
 1268 0004 4900     		lsls	r1, r1, #1
 1269 0006 0220     		movs	r0, #2
 1270 0008 FFF7FEFF 		bl	movimiento
 1271              	.LVL145:
 271:main.c        ****     move_s=3;
 1272              		.loc 1 271 0
 1273 000c 0348     		ldr	r0, .L87
 1274 000e FFF7FEFF 		bl	CyDelay
 1275              	.LVL146:
 272:main.c        **** }
 1276              		.loc 1 272 0
 1277 0012 0322     		movs	r2, #3
 1278 0014 024B     		ldr	r3, .L87+4
ARM GAS  C:\Users\HENRYA~1\AppData\Local\Temp\ccjVYXEn.s 			page 32


 1279 0016 DA60     		str	r2, [r3, #12]
 273:main.c        **** 
 1280              		.loc 1 273 0
 1281              		@ sp needed
 1282 0018 10BD     		pop	{r4, pc}
 1283              	.L88:
 1284 001a C046     		.align	2
 1285              	.L87:
 1286 001c 88130000 		.word	5000
 1287 0020 00000000 		.word	.LANCHOR0
 1288              		.cfi_endproc
 1289              	.LFE50:
 1290              		.size	Select_Move_3, .-Select_Move_3
 1291              		.section	.text.Select_Move_4,"ax",%progbits
 1292              		.align	2
 1293              		.global	Select_Move_4
 1294              		.code	16
 1295              		.thumb_func
 1296              		.type	Select_Move_4, %function
 1297              	Select_Move_4:
 1298              	.LFB51:
 275:main.c        ****     punto_b=dist;   
 1299              		.loc 1 275 0
 1300              		.cfi_startproc
 1301              		@ args = 0, pretend = 0, frame = 0
 1302              		@ frame_needed = 0, uses_anonymous_args = 0
 1303 0000 10B5     		push	{r4, lr}
 1304              		.cfi_def_cfa_offset 8
 1305              		.cfi_offset 4, -8
 1306              		.cfi_offset 14, -4
 276:main.c        ****     move_s=0;       
 1307              		.loc 1 276 0
 1308 0002 074B     		ldr	r3, .L92
 1309 0004 1A78     		ldrb	r2, [r3]
 1310 0006 5A61     		str	r2, [r3, #20]
 277:main.c        ****     if(punto_a>=punto_b){
 1311              		.loc 1 277 0
 1312 0008 0021     		movs	r1, #0
 1313 000a D960     		str	r1, [r3, #12]
 278:main.c        ****         Left_Move();    
 1314              		.loc 1 278 0
 1315 000c 1B69     		ldr	r3, [r3, #16]
 1316 000e 9A42     		cmp	r2, r3
 1317 0010 02DC     		bgt	.L90
 279:main.c        ****     }
 1318              		.loc 1 279 0
 1319 0012 FFF7FEFF 		bl	Left_Move
 1320              	.LVL147:
 1321 0016 01E0     		b	.L89
 1322              	.L90:
 282:main.c        ****     } 
 1323              		.loc 1 282 0
 1324 0018 FFF7FEFF 		bl	Right_Move
 1325              	.LVL148:
 1326              	.L89:
 284:main.c        **** 
 1327              		.loc 1 284 0
ARM GAS  C:\Users\HENRYA~1\AppData\Local\Temp\ccjVYXEn.s 			page 33


 1328              		@ sp needed
 1329 001c 10BD     		pop	{r4, pc}
 1330              	.L93:
 1331 001e C046     		.align	2
 1332              	.L92:
 1333 0020 00000000 		.word	.LANCHOR0
 1334              		.cfi_endproc
 1335              	.LFE51:
 1336              		.size	Select_Move_4, .-Select_Move_4
 1337              		.section	.text.Temporizador,"ax",%progbits
 1338              		.align	2
 1339              		.global	Temporizador
 1340              		.code	16
 1341              		.thumb_func
 1342              		.type	Temporizador, %function
 1343              	Temporizador:
 1344              	.LFB54:
 297:main.c        **** 
 298:main.c        **** CY_ISR(Temporizador){
 1345              		.loc 1 298 0
 1346              		.cfi_startproc
 1347              		@ args = 0, pretend = 0, frame = 0
 1348              		@ frame_needed = 0, uses_anonymous_args = 0
 1349 0000 70B5     		push	{r4, r5, r6, lr}
 1350              		.cfi_def_cfa_offset 16
 1351              		.cfi_offset 4, -16
 1352              		.cfi_offset 5, -12
 1353              		.cfi_offset 6, -8
 1354              		.cfi_offset 14, -4
 299:main.c        ****     conta++;
 1355              		.loc 1 299 0
 1356 0002 364A     		ldr	r2, .L105
 1357 0004 138B     		ldrh	r3, [r2, #24]
 1358 0006 0133     		adds	r3, r3, #1
 1359 0008 1BB2     		sxth	r3, r3
 1360 000a 1383     		strh	r3, [r2, #24]
 300:main.c        ****     if(conta==Max_Conta){     
 1361              		.loc 1 300 0
 1362 000c 344A     		ldr	r2, .L105+4
 1363 000e 0021     		movs	r1, #0
 1364 0010 525E     		ldrsh	r2, [r2, r1]
 1365 0012 9342     		cmp	r3, r2
 1366 0014 5DD1     		bne	.L95
 301:main.c        ****         LED_1_Write(1);
 1367              		.loc 1 301 0
 1368 0016 0120     		movs	r0, #1
 1369 0018 FFF7FEFF 		bl	LED_1_Write
 1370              	.LVL149:
 302:main.c        ****         if(move_s==0){
 1371              		.loc 1 302 0
 1372 001c 2F4B     		ldr	r3, .L105
 1373 001e DB68     		ldr	r3, [r3, #12]
 1374 0020 002B     		cmp	r3, #0
 1375 0022 43D1     		bne	.L96
 303:main.c        ****             if(Cantidad_Sensores==2){
 1376              		.loc 1 303 0
 1377 0024 2D4B     		ldr	r3, .L105
ARM GAS  C:\Users\HENRYA~1\AppData\Local\Temp\ccjVYXEn.s 			page 34


 1378 0026 9B68     		ldr	r3, [r3, #8]
 1379 0028 022B     		cmp	r3, #2
 1380 002a 02D1     		bne	.L97
 304:main.c        ****                 Select_Move();      
 1381              		.loc 1 304 0
 1382 002c FFF7FEFF 		bl	Select_Move
 1383              	.LVL150:
 1384 0030 48E0     		b	.L98
 1385              	.L97:
 305:main.c        ****             }
 306:main.c        ****             else if(Cantidad_Sensores==3){//Izquierda
 1386              		.loc 1 306 0
 1387 0032 032B     		cmp	r3, #3
 1388 0034 02D1     		bne	.L99
 307:main.c        ****                 Left_Move();
 1389              		.loc 1 307 0
 1390 0036 FFF7FEFF 		bl	Left_Move
 1391              	.LVL151:
 1392 003a 43E0     		b	.L98
 1393              	.L99:
 308:main.c        ****             }
 309:main.c        ****             else if(Cantidad_Sensores==6){//Derecha
 1394              		.loc 1 309 0
 1395 003c 062B     		cmp	r3, #6
 1396 003e 02D1     		bne	.L100
 310:main.c        ****                 Right_Move();           
 1397              		.loc 1 310 0
 1398 0040 FFF7FEFF 		bl	Right_Move
 1399              	.LVL152:
 1400 0044 3EE0     		b	.L98
 1401              	.L100:
 311:main.c        ****             }
 312:main.c        ****             else if(Cantidad_Sensores==7){//Reversa
 1402              		.loc 1 312 0
 1403 0046 072B     		cmp	r3, #7
 1404 0048 19D1     		bne	.L101
 313:main.c        ****                 Amplitud_V=0.8;Offset_V=0.833;Fase_V=-0.5;
 1405              		.loc 1 313 0
 1406 004a 244C     		ldr	r4, .L105
 1407 004c 2548     		ldr	r0, .L105+8
 1408 004e E061     		str	r0, [r4, #28]
 1409 0050 234D     		ldr	r5, .L105+4
 1410 0052 254A     		ldr	r2, .L105+12
 1411 0054 6A60     		str	r2, [r5, #4]
 1412 0056 BF21     		movs	r1, #191
 1413 0058 0906     		lsls	r1, r1, #24
 1414 005a 2162     		str	r1, [r4, #32]
 314:main.c        ****                 Enviar_Parametros(Amplitud_V,Fase_V,Offset_V,V); 
 1415              		.loc 1 314 0
 1416 005c 1A33     		adds	r3, r3, #26
 1417 005e FFF7FEFF 		bl	Enviar_Parametros
 1418              	.LVL153:
 315:main.c        ****                 CyDelay(1000);
 1419              		.loc 1 315 0
 1420 0062 FA20     		movs	r0, #250
 1421 0064 8000     		lsls	r0, r0, #2
 1422 0066 FFF7FEFF 		bl	CyDelay
ARM GAS  C:\Users\HENRYA~1\AppData\Local\Temp\ccjVYXEn.s 			page 35


 1423              	.LVL154:
 316:main.c        ****                 Enviar_Parametros(0.0,Fase_V,Offset_V,H);
 1424              		.loc 1 316 0
 1425 006a 6A68     		ldr	r2, [r5, #4]
 1426 006c 216A     		ldr	r1, [r4, #32]
 1427 006e 2023     		movs	r3, #32
 1428 0070 0020     		movs	r0, #0
 1429 0072 FFF7FEFF 		bl	Enviar_Parametros
 1430              	.LVL155:
 317:main.c        ****                 CyDelay(15000);
 1431              		.loc 1 317 0
 1432 0076 1D48     		ldr	r0, .L105+16
 1433 0078 FFF7FEFF 		bl	CyDelay
 1434              	.LVL156:
 1435 007c 22E0     		b	.L98
 1436              	.L101:
 318:main.c        ****             }
 319:main.c        ****             else{   //Adelante
 320:main.c        ****                 Amplitud_V=0.8;Offset_V=0.833;Fase_V=0.5;
 1437              		.loc 1 320 0
 1438 007e 174C     		ldr	r4, .L105
 1439 0080 1848     		ldr	r0, .L105+8
 1440 0082 E061     		str	r0, [r4, #28]
 1441 0084 164D     		ldr	r5, .L105+4
 1442 0086 184A     		ldr	r2, .L105+12
 1443 0088 6A60     		str	r2, [r5, #4]
 1444 008a FC21     		movs	r1, #252
 1445 008c 8905     		lsls	r1, r1, #22
 1446 008e 2162     		str	r1, [r4, #32]
 321:main.c        ****                 Enviar_Parametros(Amplitud_V,Fase_V,Offset_V,V);    
 1447              		.loc 1 321 0
 1448 0090 2123     		movs	r3, #33
 1449 0092 FFF7FEFF 		bl	Enviar_Parametros
 1450              	.LVL157:
 322:main.c        ****                 CyDelay(1000);
 1451              		.loc 1 322 0
 1452 0096 FA20     		movs	r0, #250
 1453 0098 8000     		lsls	r0, r0, #2
 1454 009a FFF7FEFF 		bl	CyDelay
 1455              	.LVL158:
 323:main.c        ****                 Enviar_Parametros(0.0,Fase_V,Offset_V,H);
 1456              		.loc 1 323 0
 1457 009e 6A68     		ldr	r2, [r5, #4]
 1458 00a0 216A     		ldr	r1, [r4, #32]
 1459 00a2 2023     		movs	r3, #32
 1460 00a4 0020     		movs	r0, #0
 1461 00a6 FFF7FEFF 		bl	Enviar_Parametros
 1462              	.LVL159:
 1463 00aa 0BE0     		b	.L98
 1464              	.L96:
 324:main.c        ****             }
 325:main.c        ****         }
 326:main.c        ****         else if (move_s==1){Select_Move_2();}
 1465              		.loc 1 326 0
 1466 00ac 012B     		cmp	r3, #1
 1467 00ae 02D1     		bne	.L102
 1468              		.loc 1 326 0 is_stmt 0 discriminator 1
ARM GAS  C:\Users\HENRYA~1\AppData\Local\Temp\ccjVYXEn.s 			page 36


 1469 00b0 FFF7FEFF 		bl	Select_Move_2
 1470              	.LVL160:
 1471 00b4 06E0     		b	.L98
 1472              	.L102:
 327:main.c        ****         else if (move_s==2){Select_Move_3();}
 1473              		.loc 1 327 0 is_stmt 1
 1474 00b6 022B     		cmp	r3, #2
 1475 00b8 02D1     		bne	.L103
 1476              		.loc 1 327 0 is_stmt 0 discriminator 1
 1477 00ba FFF7FEFF 		bl	Select_Move_3
 1478              	.LVL161:
 1479 00be 01E0     		b	.L98
 1480              	.L103:
 328:main.c        ****         else{Select_Move_4();}
 1481              		.loc 1 328 0 is_stmt 1
 1482 00c0 FFF7FEFF 		bl	Select_Move_4
 1483              	.LVL162:
 1484              	.L98:
 329:main.c        ****         Max_Conta=10;
 1485              		.loc 1 329 0
 1486 00c4 0A22     		movs	r2, #10
 1487 00c6 064B     		ldr	r3, .L105+4
 1488 00c8 1A80     		strh	r2, [r3]
 330:main.c        ****         conta=0;
 1489              		.loc 1 330 0
 1490 00ca 0022     		movs	r2, #0
 1491 00cc 034B     		ldr	r3, .L105
 1492 00ce 1A83     		strh	r2, [r3, #24]
 1493 00d0 02E0     		b	.L94
 1494              	.L95:
 331:main.c        ****     }
 332:main.c        ****     else{
 333:main.c        ****         LED_1_Write(0);
 1495              		.loc 1 333 0
 1496 00d2 0020     		movs	r0, #0
 1497 00d4 FFF7FEFF 		bl	LED_1_Write
 1498              	.LVL163:
 1499              	.L94:
 334:main.c        ****     }  
 335:main.c        **** }
 1500              		.loc 1 335 0
 1501              		@ sp needed
 1502 00d8 70BD     		pop	{r4, r5, r6, pc}
 1503              	.L106:
 1504 00da C046     		.align	2
 1505              	.L105:
 1506 00dc 00000000 		.word	.LANCHOR0
 1507 00e0 00000000 		.word	.LANCHOR1
 1508 00e4 CDCC4C3F 		.word	1061997773
 1509 00e8 7D3F553F 		.word	1062551421
 1510 00ec 983A0000 		.word	15000
 1511              		.cfi_endproc
 1512              	.LFE54:
 1513              		.size	Temporizador, .-Temporizador
 1514              		.section	.text.main,"ax",%progbits
 1515              		.align	2
 1516              		.global	main
ARM GAS  C:\Users\HENRYA~1\AppData\Local\Temp\ccjVYXEn.s 			page 37


 1517              		.code	16
 1518              		.thumb_func
 1519              		.type	main, %function
 1520              	main:
 1521              	.LFB55:
 336:main.c        **** 
 337:main.c        **** int main()
 338:main.c        **** {
 1522              		.loc 1 338 0
 1523              		.cfi_startproc
 1524              		@ Volatile: function does not return.
 1525              		@ args = 0, pretend = 0, frame = 0
 1526              		@ frame_needed = 0, uses_anonymous_args = 0
 1527 0000 10B5     		push	{r4, lr}
 1528              		.cfi_def_cfa_offset 8
 1529              		.cfi_offset 4, -8
 1530              		.cfi_offset 14, -4
 339:main.c        ****     //Init LED's
 340:main.c        ****     CAN_Start(); ///  start CAN
 1531              		.loc 1 340 0
 1532 0002 FFF7FEFF 		bl	CAN_Start
 1533              	.LVL164:
 341:main.c        ****     Timer_1_Start();
 1534              		.loc 1 341 0
 1535 0006 FFF7FEFF 		bl	Timer_1_Start
 1536              	.LVL165:
 342:main.c        ****     Timer_Start();
 1537              		.loc 1 342 0
 1538 000a FFF7FEFF 		bl	Timer_Start
 1539              	.LVL166:
 343:main.c        ****     SENSOR_U_Start();
 1540              		.loc 1 343 0
 1541 000e FFF7FEFF 		bl	SENSOR_U_Start
 1542              	.LVL167:
 344:main.c        ****     CAN_isr_StartEx(interrutcan);
 1543              		.loc 1 344 0
 1544 0012 0848     		ldr	r0, .L109
 1545 0014 FFF7FEFF 		bl	CAN_isr_StartEx
 1546              	.LVL168:
 345:main.c        ****     CAN_GlobalIntEnable();
 1547              		.loc 1 345 0
 1548 0018 FFF7FEFF 		bl	CAN_GlobalIntEnable
 1549              	.LVL169:
 346:main.c        ****     Int_Serial_StartEx(Serial_Interrupt);
 1550              		.loc 1 346 0
 1551 001c 0648     		ldr	r0, .L109+4
 1552 001e FFF7FEFF 		bl	Int_Serial_StartEx
 1553              	.LVL170:
 347:main.c        ****     Timer_StartEx(Temporizador);
 1554              		.loc 1 347 0
 1555 0022 0648     		ldr	r0, .L109+8
 1556 0024 FFF7FEFF 		bl	Timer_StartEx
 1557              	.LVL171:
 348:main.c        ****     LED_1_Write(0);
 1558              		.loc 1 348 0
 1559 0028 0020     		movs	r0, #0
 1560 002a FFF7FEFF 		bl	LED_1_Write
ARM GAS  C:\Users\HENRYA~1\AppData\Local\Temp\ccjVYXEn.s 			page 38


 1561              	.LVL172:
 349:main.c        ****     CyGlobalIntEnable;
 1562              		.loc 1 349 0
 1563              		.syntax divided
 1564              	@ 349 "main.c" 1
 1565 002e 62B6     		CPSIE   i
 1566              	@ 0 "" 2
 1567              		.thumb
 1568              		.syntax unified
 1569              	.L108:
 1570 0030 FEE7     		b	.L108
 1571              	.L110:
 1572 0032 C046     		.align	2
 1573              	.L109:
 1574 0034 00000000 		.word	interrutcan
 1575 0038 00000000 		.word	Serial_Interrupt
 1576 003c 00000000 		.word	Temporizador
 1577              		.cfi_endproc
 1578              	.LFE55:
 1579              		.size	main, .-main
 1580              		.global	move_s
 1581              		.global	punto_b
 1582              		.global	punto_a
 1583              		.global	conta_H
 1584              		.global	Cantidad_Sensores
 1585              		.global	L_anterior
 1586              		.global	L_actual
 1587              		.global	flag
 1588              		.global	pha_aux
 1589              		.global	off_aux
 1590              		.global	ampli_aux
 1591              		.global	Fase_V
 1592              		.global	Offset_V
 1593              		.global	Amplitud_V
 1594              		.global	Fase_H
 1595              		.global	Offset_H
 1596              		.global	Amplitud_H
 1597              		.global	Max_Conta
 1598              		.global	cantidadM
 1599              		.global	conta
 1600              		.global	dist
 1601              		.comm	dato_enviado_1,8,4
 1602              		.comm	dato_enviado,8,4
 1603              		.comm	mailbox2,8,4
 1604              		.comm	mailbox1,8,4
 1605              		.comm	mailbox0,8,4
 1606              		.data
 1607              		.align	2
 1608              		.set	.LANCHOR1,. + 0
 1609              		.type	Max_Conta, %object
 1610              		.size	Max_Conta, 2
 1611              	Max_Conta:
 1612 0000 6400     		.short	100
 1613 0002 0000     		.space	2
 1614              		.type	Offset_V, %object
 1615              		.size	Offset_V, 4
 1616              	Offset_V:
ARM GAS  C:\Users\HENRYA~1\AppData\Local\Temp\ccjVYXEn.s 			page 39


 1617 0004 7D3F553F 		.word	1062551421
 1618              		.type	Offset_H, %object
 1619              		.size	Offset_H, 4
 1620              	Offset_H:
 1621 0008 7D3F553F 		.word	1062551421
 1622              		.bss
 1623              		.align	2
 1624              		.set	.LANCHOR0,. + 0
 1625              		.type	dist, %object
 1626              		.size	dist, 1
 1627              	dist:
 1628 0000 00       		.space	1
 1629 0001 000000   		.space	3
 1630              		.type	cantidadM, %object
 1631              		.size	cantidadM, 4
 1632              	cantidadM:
 1633 0004 00000000 		.space	4
 1634              		.type	Cantidad_Sensores, %object
 1635              		.size	Cantidad_Sensores, 4
 1636              	Cantidad_Sensores:
 1637 0008 00000000 		.space	4
 1638              		.type	move_s, %object
 1639              		.size	move_s, 4
 1640              	move_s:
 1641 000c 00000000 		.space	4
 1642              		.type	punto_a, %object
 1643              		.size	punto_a, 4
 1644              	punto_a:
 1645 0010 00000000 		.space	4
 1646              		.type	punto_b, %object
 1647              		.size	punto_b, 4
 1648              	punto_b:
 1649 0014 00000000 		.space	4
 1650              		.type	conta, %object
 1651              		.size	conta, 2
 1652              	conta:
 1653 0018 0000     		.space	2
 1654 001a 0000     		.space	2
 1655              		.type	Amplitud_V, %object
 1656              		.size	Amplitud_V, 4
 1657              	Amplitud_V:
 1658 001c 00000000 		.space	4
 1659              		.type	Fase_V, %object
 1660              		.size	Fase_V, 4
 1661              	Fase_V:
 1662 0020 00000000 		.space	4
 1663              		.type	conta_H, %object
 1664              		.size	conta_H, 4
 1665              	conta_H:
 1666 0024 00000000 		.space	4
 1667              		.type	L_anterior, %object
 1668              		.size	L_anterior, 4
 1669              	L_anterior:
 1670 0028 00000000 		.space	4
 1671              		.type	L_actual, %object
 1672              		.size	L_actual, 4
 1673              	L_actual:
ARM GAS  C:\Users\HENRYA~1\AppData\Local\Temp\ccjVYXEn.s 			page 40


 1674 002c 00000000 		.space	4
 1675              		.type	flag, %object
 1676              		.size	flag, 4
 1677              	flag:
 1678 0030 00000000 		.space	4
 1679              		.type	pha_aux, %object
 1680              		.size	pha_aux, 4
 1681              	pha_aux:
 1682 0034 00000000 		.space	4
 1683              		.type	off_aux, %object
 1684              		.size	off_aux, 4
 1685              	off_aux:
 1686 0038 00000000 		.space	4
 1687              		.type	ampli_aux, %object
 1688              		.size	ampli_aux, 4
 1689              	ampli_aux:
 1690 003c 00000000 		.space	4
 1691              		.type	Fase_H, %object
 1692              		.size	Fase_H, 4
 1693              	Fase_H:
 1694 0040 00000000 		.space	4
 1695              		.type	Amplitud_H, %object
 1696              		.size	Amplitud_H, 4
 1697              	Amplitud_H:
 1698 0044 00000000 		.space	4
 1699              		.text
 1700              	.Letext0:
 1701              		.file 2 "Generated_Source\\PSoC4/cytypes.h"
 1702              		.file 3 "Generated_Source\\PSoC4/SENSOR_U.h"
 1703              		.file 4 "c:\\program files (x86)\\cypress\\psoc creator\\4.1\\psoc creator\\import\\gnu\\arm\\5.4.
 1704              		.file 5 "Generated_Source\\PSoC4/CAN.h"
 1705              		.file 6 "Generated_Source\\PSoC4/CyLib.h"
 1706              		.file 7 "Generated_Source\\PSoC4/LED_1.h"
 1707              		.file 8 "Generated_Source\\PSoC4/Timer_1.h"
 1708              		.file 9 "Generated_Source\\PSoC4/Timer.h"
 1709              		.file 10 "Generated_Source\\PSoC4/CAN_isr.h"
 1710              		.file 11 "Generated_Source\\PSoC4/Int_Serial.h"