ARM GAS  C:\Users\HENRYA~1\AppData\Local\Temp\ccNfq1WN.s 			page 1


   1              		.syntax unified
   2              		.cpu cortex-m0
   3              		.fpu softvfp
   4              		.eabi_attribute 20, 1
   5              		.eabi_attribute 21, 1
   6              		.eabi_attribute 23, 3
   7              		.eabi_attribute 24, 1
   8              		.eabi_attribute 25, 1
   9              		.eabi_attribute 26, 1
  10              		.eabi_attribute 30, 1
  11              		.eabi_attribute 34, 0
  12              		.eabi_attribute 18, 4
  13              		.thumb
  14              		.syntax unified
  15              		.file	"main.c"
  16              		.text
  17              	.Ltext0:
  18              		.cfi_sections	.debug_frame
  19              		.global	__aeabi_i2d
  20              		.global	__aeabi_dmul
  21              		.global	__aeabi_d2f
  22              		.global	__aeabi_fadd
  23              		.section	.text.Serial_Interrupt,"ax",%progbits
  24              		.align	2
  25              		.global	Serial_Interrupt
  26              		.code	16
  27              		.thumb_func
  28              		.type	Serial_Interrupt, %function
  29              	Serial_Interrupt:
  30              	.LFB62:
  31              		.file 1 "main.c"
   1:main.c        **** #include <project.h>
   2:main.c        **** #include <stdio.h>
   3:main.c        **** #include <stdlib.h>
   4:main.c        **** #include <math.h>
   5:main.c        **** #include <protocolo can.h>
   6:main.c        **** //Import Libraries
   7:main.c        **** //Global Variables
   8:main.c        **** uint8 mailbox0[8];
   9:main.c        **** uint8 mailbox1[8];
  10:main.c        **** uint8 mailbox2[8];
  11:main.c        **** uint8 dato_enviado[8];
  12:main.c        **** uint8 dato_enviado_1[8];
  13:main.c        **** uint8 dato_enviado_2[8];
  14:main.c        **** int16 conta=0;
  15:main.c        **** int cantidadM=0;
  16:main.c        **** int Cantidad_Sensores=0;
  17:main.c        **** //Variables AE
  18:main.c        **** int Max_Conta=150;
  19:main.c        **** float Amplitud_H=0.0;
  20:main.c        **** float Amplitud_V=0.0;
  21:main.c        **** float Offset_H=0.833;
  22:main.c        **** float Offset_V=0.833;
  23:main.c        **** float Fase=0.0;
  24:main.c        **** float ampli_aux_V=0.0;
  25:main.c        **** float ampli_aux_H=0.0;
  26:main.c        **** float off_aux_V=0.833;
ARM GAS  C:\Users\HENRYA~1\AppData\Local\Temp\ccNfq1WN.s 			page 2


  27:main.c        **** float off_aux_H=0.833;
  28:main.c        **** float pha_aux=0.0;
  29:main.c        **** float ampli_aux_V_2=0.0;
  30:main.c        **** float off_aux_V_2=0.833;
  31:main.c        **** float pha_aux_2=0.0;
  32:main.c        **** float ampli_aux_H_2=0.0;
  33:main.c        **** float off_aux_H_2=0.833;
  34:main.c        **** float Peso_Sensor=0.0;
  35:main.c        **** int flag=0;
  36:main.c        **** float dist=0.0;
  37:main.c        **** float L_actual=0.0;
  38:main.c        **** float L_anterior=0.0;
  39:main.c        **** int punto_a=0;
  40:main.c        **** int punto_b=0;
  41:main.c        **** int move_s=0;
  42:main.c        **** int individuo=0;
  43:main.c        **** 
  44:main.c        **** //Crear Array con tamaño de la población 
  45:main.c        **** int Individuos=10;
  46:main.c        **** float Poblacion[5][10];
  47:main.c        **** float Poblacion_1[5][10];
  48:main.c        **** float Fitness[10];
  49:main.c        **** float Fitness_1[10];
  50:main.c        **** float Fitness_Normalizado[10];
  51:main.c        **** int Fila=0;
  52:main.c        **** int Columna=0;
  53:main.c        **** float Umbral_Cruce=0.7;
  54:main.c        **** float Umbral_Mutacion=0.3;
  55:main.c        **** int conmutador=0;
  56:main.c        **** int puntero=0;
  57:main.c        **** int indice[10];
  58:main.c        **** float Acu=0.0;
  59:main.c        **** float bolita=0.0;
  60:main.c        **** 
  61:main.c        **** double randd() {
  62:main.c        ****   return (double)rand()/((double)RAND_MAX + 1);
  63:main.c        **** }
  64:main.c        **** 
  65:main.c        **** double random_gauss(){
  66:main.c        ****     return randd()*0.2;
  67:main.c        **** }
  68:main.c        **** 
  69:main.c        **** double random_amplitud_1(){
  70:main.c        ****     float r=0.0;
  71:main.c        ****     r=randd();
  72:main.c        ****     return r;
  73:main.c        **** }
  74:main.c        **** 
  75:main.c        **** double random_amplitud_2(){
  76:main.c        ****     float r=0.0;
  77:main.c        ****     r=randd();
  78:main.c        ****     r=r*0.2;
  79:main.c        ****     return r;
  80:main.c        **** }
  81:main.c        **** 
  82:main.c        **** double random_Fase(){
  83:main.c        ****     float r=0.0;
ARM GAS  C:\Users\HENRYA~1\AppData\Local\Temp\ccNfq1WN.s 			page 3


  84:main.c        ****     r=-2*randd();
  85:main.c        ****     r=r+1;
  86:main.c        ****     return r;
  87:main.c        **** }
  88:main.c        **** 
  89:main.c        **** double random_Offset(){
  90:main.c        ****     float r=0.0;
  91:main.c        ****     r=randd();
  92:main.c        ****     //r=r*-0.01;
  93:main.c        ****     //r=r+0.02;
  94:main.c        ****     r=r*0.4;
  95:main.c        ****     r=r-0.2;
  96:main.c        ****     r=0.833+r;
  97:main.c        ****     return r;
  98:main.c        **** }
  99:main.c        **** void movimiento(unsigned int dirr,int mov){
 100:main.c        ****     char byteh,bytel;
 101:main.c        ****     byteh= mov >> 8;
 102:main.c        ****     bytel=mov;
 103:main.c        ****     dato_enviado[0]=VER ;//verificacion
 104:main.c        ****     dato_enviado[1]=dirr ;//dir
 105:main.c        ****     dato_enviado[2]=ESCRITURA ;//operacion
 106:main.c        ****     dato_enviado[3]=MOTOR;//lugar
 107:main.c        ****     dato_enviado[4]= byteh ;  //dato
 108:main.c        ****     dato_enviado[5]= bytel ;  //dato
 109:main.c        ****     CAN_SendMsg0(); 
 110:main.c        ****     CyDelay(25);    
 111:main.c        **** }
 112:main.c        **** 
 113:main.c        **** void Send_Angle(int datas,int Conta3){ 
 114:main.c        ****     dato_enviado[0]=VER2;//verificacion
 115:main.c        ****     dato_enviado[1]=Conta3;//dir
 116:main.c        ****     dato_enviado[2]=Conta3;//dir
 117:main.c        ****     dato_enviado[3]=ANGLE;
 118:main.c        ****     dato_enviado[4]=0;//lugar
 119:main.c        ****     dato_enviado[5]=0;  //dato... en este caso direcion para asignar
 120:main.c        ****     dato_enviado[6]=datas;
 121:main.c        ****     dato_enviado[7]=Conta3;
 122:main.c        ****     CAN_SendMsg0(); 
 123:main.c        ****     CyDelay(50);
 124:main.c        **** }
 125:main.c        **** 
 126:main.c        **** void Enviar_Parametros(float Amplitud,float Phase,float Offset,int Orientacion){
 127:main.c        ****     //Convertir el Valor a entero para ser enviado
 128:main.c        ****     int Amp_env=(int)fabs(Amplitud*10000);
 129:main.c        ****     int Phase_env=(int)fabs(Phase*10000);
 130:main.c        ****     int Offset_env=(int)fabs(Offset*10000);
 131:main.c        ****     //Enviar datos
 132:main.c        ****     dato_enviado_1[0]=VER_M1;
 133:main.c        ****     dato_enviado_1[1]=Orientacion;
 134:main.c        ****     //Convertir Amplitud
 135:main.c        ****     uint8 datoL=Amp_env;
 136:main.c        ****     uint8 datoH=Amp_env>>8;
 137:main.c        ****     uint8 Aux=0;
 138:main.c        ****     if(Amplitud<0.0){
 139:main.c        ****         Aux=(1<<7);
 140:main.c        ****         datoH=datoH+Aux;
ARM GAS  C:\Users\HENRYA~1\AppData\Local\Temp\ccNfq1WN.s 			page 4


 141:main.c        ****     }
 142:main.c        ****     else{
 143:main.c        ****         Aux=(0<<7);
 144:main.c        ****         datoH=datoH+Aux;    
 145:main.c        ****     }
 146:main.c        ****     dato_enviado_1[2]=datoL;
 147:main.c        ****     dato_enviado_1[3]=datoH;
 148:main.c        ****     //Convertir Fase
 149:main.c        ****     datoL=Phase_env;
 150:main.c        ****     datoH=Phase_env>>8;
 151:main.c        ****     if(Phase<0.0){
 152:main.c        ****         Aux=(1<<7);
 153:main.c        ****         datoH=datoH+Aux;
 154:main.c        ****     }
 155:main.c        ****     else{
 156:main.c        ****         Aux=(0<<7);
 157:main.c        ****         datoH=datoH+Aux;    
 158:main.c        ****     }
 159:main.c        ****     dato_enviado_1[4]=datoL;
 160:main.c        ****     dato_enviado_1[5]=datoH;
 161:main.c        ****     //Convertir Offset
 162:main.c        ****     datoL=Offset_env;
 163:main.c        ****     datoH=Offset_env>>8;
 164:main.c        ****     if(Offset<0.0){
 165:main.c        ****         Aux=(1<<7);
 166:main.c        ****         datoH=datoH+Aux;
 167:main.c        ****     }
 168:main.c        ****     else{
 169:main.c        ****         Aux=(0<<7);
 170:main.c        ****         datoH=datoH+Aux;    
 171:main.c        ****     }
 172:main.c        ****     dato_enviado_1[6]=datoL;
 173:main.c        ****     dato_enviado_1[7]=datoH;    
 174:main.c        ****     CAN_SendMsg1();
 175:main.c        ****     CyDelay(25);
 176:main.c        **** }
 177:main.c        **** 
 178:main.c        **** void Recibe_mail_0(){
 179:main.c        **** if(mailbox0[0]==VER){
 180:main.c        ****             switch(mailbox0[2]){
 181:main.c        ****             ///////////////////////////////////////////////////////
 182:main.c        ****             case ESCRITURA:{ 
 183:main.c        ****                 switch(mailbox0[3]){//////////+6+++++++++++++
 184:main.c        ****                     case CANTIDAD_MOD: 
 185:main.c        ****                             cantidadM=mailbox0[4];
 186:main.c        ****                     break;
 187:main.c        ****                     case START:
 188:main.c        ****                         
 189:main.c        ****                     break;
 190:main.c        ****                 }
 191:main.c        ****             }                                            
 192:main.c        ****         }    
 193:main.c        **** }
 194:main.c        **** if(mailbox0[0]==VER2){
 195:main.c        ****                 switch(mailbox0[3]){
 196:main.c        ****                 ///////////////////////////////////////////////////////
 197:main.c        ****                 case ANGLE:{
ARM GAS  C:\Users\HENRYA~1\AppData\Local\Temp\ccNfq1WN.s 			page 5


 198:main.c        ****                     int Contador=mailbox0[7];
 199:main.c        ****                     if(Contador>=cantidadM){
 200:main.c        ****                             Enviar_Parametros(Amplitud_H,Fase,Offset_H,H);
 201:main.c        ****                             CyDelay(50);
 202:main.c        ****                             Enviar_Parametros(Amplitud_V,Fase,Offset_V,V);
 203:main.c        ****                             CyDelay(50); 
 204:main.c        ****                             Send_Angle(0,0);
 205:main.c        ****                     } 
 206:main.c        ****                 }
 207:main.c        ****                 break;}
 208:main.c        ****             }
 209:main.c        **** }
 210:main.c        **** 
 211:main.c        **** void Recibe_Mail_2(){
 212:main.c        ****     if(mailbox2[0]==SENSORES){
 213:main.c        ****         //Mailbox2[1] Derecha
 214:main.c        ****         //Mailbox2[2] Frente
 215:main.c        ****         //Mailbox2[3] Izquierda
 216:main.c        ****         if(mailbox2[1]==0&&mailbox2[2]==0&&mailbox2[3]==0)      {Peso_Sensor=0.0;}   //Normal
 217:main.c        ****         else if(mailbox2[1]==0&&mailbox2[2]==0&&mailbox2[3]==1) {Peso_Sensor=20;}   //Izquierda
 218:main.c        ****         else if(mailbox2[1]==0&&mailbox2[2]==1&&mailbox2[3]==0) {Peso_Sensor=60;}   //Frontal
 219:main.c        ****         else if(mailbox2[1]==0&&mailbox2[2]==1&&mailbox2[3]==1) {Peso_Sensor=80;}   //Frontal e Izq
 220:main.c        ****         else if(mailbox2[1]==1&&mailbox2[2]==0&&mailbox2[3]==0) {Peso_Sensor=20;}   //Derecha
 221:main.c        ****         else if(mailbox2[1]==1&&mailbox2[2]==0&&mailbox2[3]==1) {Peso_Sensor=40;}   //Derecha e Izq
 222:main.c        ****         else if(mailbox2[1]==1&&mailbox2[2]==1&&mailbox2[3]==0) {Peso_Sensor=80;}   //Frontal y Der
 223:main.c        ****         else if(mailbox2[1]==1&&mailbox2[2]==1&&mailbox2[3]==1) {Peso_Sensor=100;}     //Todos
 224:main.c        ****         else                                                    {Peso_Sensor=0.0;}   //Normal
 225:main.c        ****     }
 226:main.c        **** }
 227:main.c        **** 
 228:main.c        **** CY_ISR(interrutcan){
 229:main.c        ****     CAN_GlobalIntDisable();
 230:main.c        ****     CAN_MsgRXIsr();  
 231:main.c        ****     Recibe_mail_0();
 232:main.c        ****     Recibe_Mail_2();
 233:main.c        ****     CAN_GlobalIntEnable();
 234:main.c        **** }
 235:main.c        **** 
 236:main.c        **** float maximo(float *valores, int num){ 
 237:main.c        ****   int i; 
 238:main.c        ****   float max; 
 239:main.c        ****   max = valores[0]; 
 240:main.c        ****   for (i = 1; i < num; i++) 
 241:main.c        ****     if (valores[i] > max) 
 242:main.c        **** 	  max = valores[i]; 
 243:main.c        ****   return (max); 
 244:main.c        **** } 
 245:main.c        **** 
 246:main.c        **** void Normalizar(int I){
 247:main.c        ****     float Valor_Maximo=maximo(Fitness,I);
 248:main.c        ****     float Valor_Maximo_1=maximo(Fitness_1,I);
 249:main.c        ****     int i=0;
 250:main.c        ****     for (i=0;i<Individuos;i++){
 251:main.c        ****         Fitness[i]=Fitness[i]/Valor_Maximo;
 252:main.c        ****         Fitness[i]=1.0-Fitness[i];
 253:main.c        ****         Fitness_1[i]=Fitness_1[i]/Valor_Maximo_1;
 254:main.c        ****         Fitness_1[i]=1.0-Fitness_1[i];        
ARM GAS  C:\Users\HENRYA~1\AppData\Local\Temp\ccNfq1WN.s 			page 6


 255:main.c        ****     }
 256:main.c        **** }
 257:main.c        **** 
 258:main.c        **** void Evaluar_Fitness(int i){
 259:main.c        ****     Amplitud_V=Poblacion_1[0][i];
 260:main.c        ****     Amplitud_H=Poblacion_1[1][i];
 261:main.c        ****     Fase=Poblacion_1[2][i];
 262:main.c        ****     Offset_V=Poblacion_1[3][i];
 263:main.c        ****     Offset_H=Poblacion_1[4][i];    
 264:main.c        ****         for(int i=0;i<5;i++){
 265:main.c        ****             Enviar_Parametros(Amplitud_H,Fase,Offset_H,H);
 266:main.c        ****             CyDelay(50);
 267:main.c        ****             Enviar_Parametros(Amplitud_V,Fase,Offset_V,V);
 268:main.c        ****             CyDelay(50);
 269:main.c        ****             Send_Angle(0,0);
 270:main.c        ****         }   
 271:main.c        **** }
 272:main.c        **** 
 273:main.c        **** void Espere(){
 274:main.c        ****     Amplitud_V=0.0;
 275:main.c        ****     Amplitud_H=0.0;
 276:main.c        ****     Fase=0.0;
 277:main.c        ****     Offset_V=0.833;
 278:main.c        ****     Offset_H=0.833;
 279:main.c        ****         for(int i=0;i<5;i++){
 280:main.c        ****             Enviar_Parametros(Amplitud_H,Fase,Offset_H,H);
 281:main.c        ****             CyDelay(50);
 282:main.c        ****             Enviar_Parametros(Amplitud_V,Fase,Offset_V,V);
 283:main.c        ****             CyDelay(50);
 284:main.c        ****             Send_Angle(0,0);
 285:main.c        ****         }   
 286:main.c        **** }
 287:main.c        **** 
 288:main.c        **** void Seleccion(){
 289:main.c        ****     int i=0,j=0;
 290:main.c        ****     Acu=0.0;
 291:main.c        ****     bolita=0.0;
 292:main.c        ****     //Crear Vector de Seleccion
 293:main.c        ****     for(i=0;i<Individuos;i++){
 294:main.c        ****         Acu=Acu+Fitness[i];            
 295:main.c        ****     }
 296:main.c        ****     for(i=0;i<Individuos;i++){
 297:main.c        ****         Fitness_Normalizado[i]=Fitness[i]/Acu;            
 298:main.c        ****     }    
 299:main.c        ****     //Ruleta
 300:main.c        ****     for(i=0;i<Individuos;i++){
 301:main.c        ****         bolita=randd();
 302:main.c        ****         Acu=0.0;
 303:main.c        ****         j=0;
 304:main.c        ****         while (Acu<bolita){
 305:main.c        ****             Acu=Fitness_Normalizado[j]+Acu;
 306:main.c        ****             indice[i]=j;
 307:main.c        ****             j++;
 308:main.c        ****         }
 309:main.c        ****     } 
 310:main.c        ****     //Llenar Matriz de población_1
 311:main.c        ****     for(i=0;i<Individuos;i++){
ARM GAS  C:\Users\HENRYA~1\AppData\Local\Temp\ccNfq1WN.s 			page 7


 312:main.c        ****         Poblacion_1[0][i]=Poblacion[0][indice[i]];
 313:main.c        ****         Poblacion_1[1][i]=Poblacion[1][indice[i]];
 314:main.c        ****         Poblacion_1[2][i]=Poblacion[2][indice[i]];
 315:main.c        ****         Poblacion_1[3][i]=Poblacion[3][indice[i]];
 316:main.c        ****         Poblacion_1[4][i]=Poblacion[4][indice[i]];
 317:main.c        ****         Fitness_1[i]=Fitness[indice[i]];
 318:main.c        ****     }     
 319:main.c        **** }
 320:main.c        **** 
 321:main.c        **** float Saturador(float numero_comprobar,float lim_inf, float lim_sup){
 322:main.c        ****     if(numero_comprobar>lim_sup){return lim_sup;}
 323:main.c        ****     else if (numero_comprobar<lim_inf){return lim_inf;}
 324:main.c        ****     else{return numero_comprobar;}
 325:main.c        **** }
 326:main.c        **** 
 327:main.c        **** void reparacion(int Aux_ind){
 328:main.c        ****     if(randd()<0.5){
 329:main.c        ****     Poblacion_1[0][Aux_ind] = Saturador(Poblacion_1[0][Aux_ind],0.0,0.2);      
 330:main.c        ****     Poblacion_1[1][Aux_ind] = Saturador(Poblacion_1[1][Aux_ind],0.0,0.8);
 331:main.c        ****     }
 332:main.c        ****     else{
 333:main.c        ****     Poblacion_1[0][Aux_ind] = Saturador(Poblacion_1[0][Aux_ind],0.0,0.8);      
 334:main.c        ****     Poblacion_1[1][Aux_ind] = Saturador(Poblacion_1[1][Aux_ind],0.0,0.2);
 335:main.c        ****     }    
 336:main.c        ****     Poblacion_1[2][Aux_ind] = Saturador(Poblacion_1[2][Aux_ind],-1.0,1.0);   
 337:main.c        ****     Poblacion_1[3][Aux_ind] = Saturador(Poblacion_1[3][Aux_ind],(0.833-0.3),(0.833+0.3));
 338:main.c        ****     Poblacion_1[4][Aux_ind] = Saturador(Poblacion_1[4][Aux_ind],(0.833-0.3),(0.833+0.3));
 339:main.c        **** }
 340:main.c        **** 
 341:main.c        **** void Cruce(){
 342:main.c        ****     int papa=(int)Individuos*randd();
 343:main.c        ****     int mama=(int)Individuos*randd();
 344:main.c        ****     for (int i=0; i<5; i++) {
 345:main.c        ****         float alpha = randd();
 346:main.c        ****         float alpha_1 = randd();
 347:main.c        ****         float neg_alpha = 1.0 - alpha;
 348:main.c        ****         float neg_alpha_1 = 1.0 - alpha_1;
 349:main.c        ****         float tx;
 350:main.c        ****         float ty;
 351:main.c        ****         tx = Poblacion_1[i][papa];
 352:main.c        ****         ty = Poblacion_1[i][mama];
 353:main.c        ****         Poblacion_1[i][papa] = alpha * tx + neg_alpha * ty;
 354:main.c        ****         Poblacion_1[i][mama] = alpha_1 * tx + neg_alpha_1 * ty;
 355:main.c        ****     } 
 356:main.c        ****     reparacion(papa);
 357:main.c        ****     reparacion(mama);
 358:main.c        **** }
 359:main.c        **** 
 360:main.c        **** void Mutacion(){
 361:main.c        ****     int Selector=(int)Individuos*randd();
 362:main.c        ****     int componente=(int)randd()*4;
 363:main.c        ****     if(componente==0){Poblacion_1[componente][Selector]=Poblacion_1[componente][Selector]+random_ga
 364:main.c        ****     else if(componente==1){Poblacion_1[componente][Selector]=Poblacion_1[componente][Selector]+rand
 365:main.c        ****     else if(componente==2){Poblacion_1[componente][Selector]=Poblacion_1[componente][Selector]+rand
 366:main.c        ****     else if(componente==3){Poblacion_1[componente][Selector]=Poblacion_1[componente][Selector]+rand
 367:main.c        ****     else if(componente==4){Poblacion_1[componente][Selector]=Poblacion_1[componente][Selector]+rand
 368:main.c        ****     reparacion(Selector);
ARM GAS  C:\Users\HENRYA~1\AppData\Local\Temp\ccNfq1WN.s 			page 8


 369:main.c        **** }
 370:main.c        **** 
 371:main.c        **** void Reemplazo_Generacional(){
 372:main.c        ****     int i=0;
 373:main.c        ****     for(i=0;i<Individuos;i++){
 374:main.c        ****         if(Fitness_1[i]<Fitness[i]){
 375:main.c        ****             Poblacion[0][i]=Poblacion_1[0][i];
 376:main.c        ****             Poblacion[1][i]=Poblacion_1[1][i];
 377:main.c        ****             Poblacion[2][i]=Poblacion_1[2][i];
 378:main.c        ****             Poblacion[3][i]=Poblacion_1[3][i];
 379:main.c        ****             Poblacion[4][i]=Poblacion_1[4][i];
 380:main.c        ****             }
 381:main.c        ****     }
 382:main.c        **** }
 383:main.c        **** 
 384:main.c        **** void A_G(){
 385:main.c        ****     float Prob_c=0.5;
 386:main.c        ****     float Prob_m=0.2;
 387:main.c        ****     //Ingrese su Algoritmo Aqui
 388:main.c        ****     switch (flag){
 389:main.c        ****         case 0:
 390:main.c        ****             Normalizar(Individuos);
 391:main.c        ****             Reemplazo_Generacional();
 392:main.c        ****             Max_Conta=5;
 393:main.c        ****             puntero=0;
 394:main.c        ****             flag=1;        
 395:main.c        ****             break;
 396:main.c        ****         case 1:
 397:main.c        ****             Espere();
 398:main.c        ****             Seleccion();
 399:main.c        ****             Max_Conta=5;
 400:main.c        ****             flag=2;
 401:main.c        ****             break;
 402:main.c        ****         case 2:
 403:main.c        ****             Prob_c=randd();
 404:main.c        ****             if(Prob_c<Umbral_Cruce){
 405:main.c        ****                 Cruce();
 406:main.c        ****             }
 407:main.c        ****             Prob_m=randd();
 408:main.c        ****             if(Prob_m<Umbral_Mutacion){
 409:main.c        ****                 Mutacion();
 410:main.c        ****             }
 411:main.c        ****             flag=3;
 412:main.c        ****             break;
 413:main.c        ****         case 3:
 414:main.c        ****             switch (conmutador){
 415:main.c        ****                 case 0:
 416:main.c        ****                     conmutador=1;
 417:main.c        ****                     Evaluar_Fitness(puntero);
 418:main.c        ****                     Max_Conta=50;                    
 419:main.c        ****                 break;
 420:main.c        ****                 case 1:
 421:main.c        ****                     conmutador=2;
 422:main.c        ****                     Espere();
 423:main.c        ****                     Max_Conta=20;
 424:main.c        ****                 break;
 425:main.c        ****                 case 2:
ARM GAS  C:\Users\HENRYA~1\AppData\Local\Temp\ccNfq1WN.s 			page 9


 426:main.c        ****                     conmutador=0;
 427:main.c        ****                     Fitness_1[puntero]=dist;
 428:main.c        ****                     //dist=dist*100;
 429:main.c        ****                     dato_enviado_2[0]=individuo;
 430:main.c        ****                     dato_enviado_2[1]=(int)dist;
 431:main.c        ****                     CAN_SendMsg3();                    
 432:main.c        ****                     puntero++;
 433:main.c        ****                     Max_Conta=10;
 434:main.c        ****                     if(puntero==Individuos){flag=0;}
 435:main.c        ****                 break;
 436:main.c        ****             }
 437:main.c        ****             break;
 438:main.c        ****     }
 439:main.c        **** }
 440:main.c        **** 
 441:main.c        **** void Ejecutar(){
 442:main.c        ****     conta++;
 443:main.c        ****     if(conta==Max_Conta){     
 444:main.c        ****         LED_1_Write(1);    
 445:main.c        ****         A_G();         
 446:main.c        ****         conta=0;
 447:main.c        ****     }
 448:main.c        ****     else{
 449:main.c        ****         LED_1_Write(0);
 450:main.c        ****     }
 451:main.c        **** }
 452:main.c        **** //Interrupt's
 453:main.c        **** CY_ISR(Temporizador){
 454:main.c        ****     Ejecutar();  
 455:main.c        **** }
 456:main.c        **** 
 457:main.c        **** CY_ISR(Serial_Interrupt){
  32              		.loc 1 457 0
  33              		.cfi_startproc
  34              		@ args = 0, pretend = 0, frame = 0
  35              		@ frame_needed = 0, uses_anonymous_args = 0
  36 0000 10B5     		push	{r4, lr}
  37              		.cfi_def_cfa_offset 8
  38              		.cfi_offset 4, -8
  39              		.cfi_offset 14, -4
 458:main.c        ****     dist=SENSOR_U_GetChar()/2.0;
  40              		.loc 1 458 0
  41 0002 FFF7FEFF 		bl	SENSOR_U_GetChar
  42              	.LVL0:
  43 0006 FFF7FEFF 		bl	__aeabi_i2d
  44              	.LVL1:
  45 000a 0022     		movs	r2, #0
  46 000c 054B     		ldr	r3, .L2
  47 000e FFF7FEFF 		bl	__aeabi_dmul
  48              	.LVL2:
  49 0012 FFF7FEFF 		bl	__aeabi_d2f
  50              	.LVL3:
  51 0016 044C     		ldr	r4, .L2+4
 459:main.c        ****     dist=dist+Peso_Sensor;
  52              		.loc 1 459 0
  53 0018 6168     		ldr	r1, [r4, #4]
  54 001a FFF7FEFF 		bl	__aeabi_fadd
ARM GAS  C:\Users\HENRYA~1\AppData\Local\Temp\ccNfq1WN.s 			page 10


  55              	.LVL4:
  56 001e 2060     		str	r0, [r4]
 460:main.c        **** }
  57              		.loc 1 460 0
  58              		@ sp needed
  59 0020 10BD     		pop	{r4, pc}
  60              	.L3:
  61 0022 C046     		.align	2
  62              	.L2:
  63 0024 0000E03F 		.word	1071644672
  64 0028 00000000 		.word	.LANCHOR0
  65              		.cfi_endproc
  66              	.LFE62:
  67              		.size	Serial_Interrupt, .-Serial_Interrupt
  68              		.section	.text.randd,"ax",%progbits
  69              		.align	2
  70              		.global	randd
  71              		.code	16
  72              		.thumb_func
  73              		.type	randd, %function
  74              	randd:
  75              	.LFB37:
  61:main.c        ****   return (double)rand()/((double)RAND_MAX + 1);
  76              		.loc 1 61 0
  77              		.cfi_startproc
  78              		@ args = 0, pretend = 0, frame = 0
  79              		@ frame_needed = 0, uses_anonymous_args = 0
  80 0000 10B5     		push	{r4, lr}
  81              		.cfi_def_cfa_offset 8
  82              		.cfi_offset 4, -8
  83              		.cfi_offset 14, -4
  62:main.c        **** }
  84              		.loc 1 62 0
  85 0002 FFF7FEFF 		bl	rand
  86              	.LVL5:
  87 0006 FFF7FEFF 		bl	__aeabi_i2d
  88              	.LVL6:
  89 000a 0022     		movs	r2, #0
  90 000c F823     		movs	r3, #248
  91 000e 9B05     		lsls	r3, r3, #22
  92 0010 FFF7FEFF 		bl	__aeabi_dmul
  93              	.LVL7:
  63:main.c        **** 
  94              		.loc 1 63 0
  95              		@ sp needed
  96 0014 10BD     		pop	{r4, pc}
  97              		.cfi_endproc
  98              	.LFE37:
  99              		.size	randd, .-randd
 100 0016 C046     		.section	.text.random_gauss,"ax",%progbits
 101              		.align	2
 102              		.global	random_gauss
 103              		.code	16
 104              		.thumb_func
 105              		.type	random_gauss, %function
 106              	random_gauss:
 107              	.LFB38:
ARM GAS  C:\Users\HENRYA~1\AppData\Local\Temp\ccNfq1WN.s 			page 11


  65:main.c        ****     return randd()*0.2;
 108              		.loc 1 65 0
 109              		.cfi_startproc
 110              		@ args = 0, pretend = 0, frame = 0
 111              		@ frame_needed = 0, uses_anonymous_args = 0
 112 0000 10B5     		push	{r4, lr}
 113              		.cfi_def_cfa_offset 8
 114              		.cfi_offset 4, -8
 115              		.cfi_offset 14, -4
  66:main.c        **** }
 116              		.loc 1 66 0
 117 0002 FFF7FEFF 		bl	randd
 118              	.LVL8:
 119 0006 024A     		ldr	r2, .L6
 120 0008 024B     		ldr	r3, .L6+4
 121 000a FFF7FEFF 		bl	__aeabi_dmul
 122              	.LVL9:
  67:main.c        **** 
 123              		.loc 1 67 0
 124              		@ sp needed
 125 000e 10BD     		pop	{r4, pc}
 126              	.L7:
 127              		.align	2
 128              	.L6:
 129 0010 9A999999 		.word	-1717986918
 130 0014 9999C93F 		.word	1070176665
 131              		.cfi_endproc
 132              	.LFE38:
 133              		.size	random_gauss, .-random_gauss
 134              		.global	__aeabi_f2d
 135              		.section	.text.random_amplitud_1,"ax",%progbits
 136              		.align	2
 137              		.global	random_amplitud_1
 138              		.code	16
 139              		.thumb_func
 140              		.type	random_amplitud_1, %function
 141              	random_amplitud_1:
 142              	.LFB39:
  69:main.c        ****     float r=0.0;
 143              		.loc 1 69 0
 144              		.cfi_startproc
 145              		@ args = 0, pretend = 0, frame = 0
 146              		@ frame_needed = 0, uses_anonymous_args = 0
 147 0000 10B5     		push	{r4, lr}
 148              		.cfi_def_cfa_offset 8
 149              		.cfi_offset 4, -8
 150              		.cfi_offset 14, -4
 151              	.LVL10:
  71:main.c        ****     return r;
 152              		.loc 1 71 0
 153 0002 FFF7FEFF 		bl	randd
 154              	.LVL11:
 155 0006 FFF7FEFF 		bl	__aeabi_d2f
 156              	.LVL12:
  72:main.c        **** }
 157              		.loc 1 72 0
 158 000a FFF7FEFF 		bl	__aeabi_f2d
ARM GAS  C:\Users\HENRYA~1\AppData\Local\Temp\ccNfq1WN.s 			page 12


 159              	.LVL13:
  73:main.c        **** 
 160              		.loc 1 73 0
 161              		@ sp needed
 162 000e 10BD     		pop	{r4, pc}
 163              		.cfi_endproc
 164              	.LFE39:
 165              		.size	random_amplitud_1, .-random_amplitud_1
 166              		.section	.text.random_amplitud_2,"ax",%progbits
 167              		.align	2
 168              		.global	random_amplitud_2
 169              		.code	16
 170              		.thumb_func
 171              		.type	random_amplitud_2, %function
 172              	random_amplitud_2:
 173              	.LFB40:
  75:main.c        ****     float r=0.0;
 174              		.loc 1 75 0
 175              		.cfi_startproc
 176              		@ args = 0, pretend = 0, frame = 0
 177              		@ frame_needed = 0, uses_anonymous_args = 0
 178 0000 10B5     		push	{r4, lr}
 179              		.cfi_def_cfa_offset 8
 180              		.cfi_offset 4, -8
 181              		.cfi_offset 14, -4
 182              	.LVL14:
  77:main.c        ****     r=r*0.2;
 183              		.loc 1 77 0
 184 0002 FFF7FEFF 		bl	randd
 185              	.LVL15:
 186 0006 FFF7FEFF 		bl	__aeabi_d2f
 187              	.LVL16:
  78:main.c        ****     return r;
 188              		.loc 1 78 0
 189 000a FFF7FEFF 		bl	__aeabi_f2d
 190              	.LVL17:
 191 000e 044A     		ldr	r2, .L10
 192 0010 044B     		ldr	r3, .L10+4
 193 0012 FFF7FEFF 		bl	__aeabi_dmul
 194              	.LVL18:
 195 0016 FFF7FEFF 		bl	__aeabi_d2f
 196              	.LVL19:
  79:main.c        **** }
 197              		.loc 1 79 0
 198 001a FFF7FEFF 		bl	__aeabi_f2d
 199              	.LVL20:
  80:main.c        **** 
 200              		.loc 1 80 0
 201              		@ sp needed
 202 001e 10BD     		pop	{r4, pc}
 203              	.L11:
 204              		.align	2
 205              	.L10:
 206 0020 9A999999 		.word	-1717986918
 207 0024 9999C93F 		.word	1070176665
 208              		.cfi_endproc
 209              	.LFE40:
ARM GAS  C:\Users\HENRYA~1\AppData\Local\Temp\ccNfq1WN.s 			page 13


 210              		.size	random_amplitud_2, .-random_amplitud_2
 211              		.section	.text.random_Fase,"ax",%progbits
 212              		.align	2
 213              		.global	random_Fase
 214              		.code	16
 215              		.thumb_func
 216              		.type	random_Fase, %function
 217              	random_Fase:
 218              	.LFB41:
  82:main.c        ****     float r=0.0;
 219              		.loc 1 82 0
 220              		.cfi_startproc
 221              		@ args = 0, pretend = 0, frame = 0
 222              		@ frame_needed = 0, uses_anonymous_args = 0
 223 0000 10B5     		push	{r4, lr}
 224              		.cfi_def_cfa_offset 8
 225              		.cfi_offset 4, -8
 226              		.cfi_offset 14, -4
 227              	.LVL21:
  84:main.c        ****     r=r+1;
 228              		.loc 1 84 0
 229 0002 FFF7FEFF 		bl	randd
 230              	.LVL22:
 231 0006 0022     		movs	r2, #0
 232 0008 C023     		movs	r3, #192
 233 000a 1B06     		lsls	r3, r3, #24
 234 000c FFF7FEFF 		bl	__aeabi_dmul
 235              	.LVL23:
 236 0010 FFF7FEFF 		bl	__aeabi_d2f
 237              	.LVL24:
  85:main.c        ****     return r;
 238              		.loc 1 85 0
 239 0014 FE21     		movs	r1, #254
 240 0016 8905     		lsls	r1, r1, #22
 241 0018 FFF7FEFF 		bl	__aeabi_fadd
 242              	.LVL25:
  86:main.c        **** }
 243              		.loc 1 86 0
 244 001c FFF7FEFF 		bl	__aeabi_f2d
 245              	.LVL26:
  87:main.c        **** 
 246              		.loc 1 87 0
 247              		@ sp needed
 248 0020 10BD     		pop	{r4, pc}
 249              		.cfi_endproc
 250              	.LFE41:
 251              		.size	random_Fase, .-random_Fase
 252              		.global	__aeabi_dsub
 253              		.global	__aeabi_dadd
 254 0022 C046     		.section	.text.random_Offset,"ax",%progbits
 255              		.align	2
 256              		.global	random_Offset
 257              		.code	16
 258              		.thumb_func
 259              		.type	random_Offset, %function
 260              	random_Offset:
 261              	.LFB42:
ARM GAS  C:\Users\HENRYA~1\AppData\Local\Temp\ccNfq1WN.s 			page 14


  89:main.c        ****     float r=0.0;
 262              		.loc 1 89 0
 263              		.cfi_startproc
 264              		@ args = 0, pretend = 0, frame = 0
 265              		@ frame_needed = 0, uses_anonymous_args = 0
 266 0000 10B5     		push	{r4, lr}
 267              		.cfi_def_cfa_offset 8
 268              		.cfi_offset 4, -8
 269              		.cfi_offset 14, -4
 270              	.LVL27:
  91:main.c        ****     //r=r*-0.01;
 271              		.loc 1 91 0
 272 0002 FFF7FEFF 		bl	randd
 273              	.LVL28:
 274 0006 FFF7FEFF 		bl	__aeabi_d2f
 275              	.LVL29:
  94:main.c        ****     r=r-0.2;
 276              		.loc 1 94 0
 277 000a FFF7FEFF 		bl	__aeabi_f2d
 278              	.LVL30:
 279 000e 0C4A     		ldr	r2, .L14
 280 0010 0C4B     		ldr	r3, .L14+4
 281 0012 FFF7FEFF 		bl	__aeabi_dmul
 282              	.LVL31:
 283 0016 FFF7FEFF 		bl	__aeabi_d2f
 284              	.LVL32:
  95:main.c        ****     r=0.833+r;
 285              		.loc 1 95 0
 286 001a FFF7FEFF 		bl	__aeabi_f2d
 287              	.LVL33:
 288 001e 084A     		ldr	r2, .L14
 289 0020 094B     		ldr	r3, .L14+8
 290 0022 FFF7FEFF 		bl	__aeabi_dsub
 291              	.LVL34:
 292 0026 FFF7FEFF 		bl	__aeabi_d2f
 293              	.LVL35:
  96:main.c        ****     return r;
 294              		.loc 1 96 0
 295 002a FFF7FEFF 		bl	__aeabi_f2d
 296              	.LVL36:
 297 002e 074A     		ldr	r2, .L14+12
 298 0030 074B     		ldr	r3, .L14+16
 299 0032 FFF7FEFF 		bl	__aeabi_dadd
 300              	.LVL37:
 301 0036 FFF7FEFF 		bl	__aeabi_d2f
 302              	.LVL38:
  97:main.c        **** }
 303              		.loc 1 97 0
 304 003a FFF7FEFF 		bl	__aeabi_f2d
 305              	.LVL39:
  98:main.c        **** void movimiento(unsigned int dirr,int mov){
 306              		.loc 1 98 0
 307              		@ sp needed
 308 003e 10BD     		pop	{r4, pc}
 309              	.L15:
 310              		.align	2
 311              	.L14:
ARM GAS  C:\Users\HENRYA~1\AppData\Local\Temp\ccNfq1WN.s 			page 15


 312 0040 9A999999 		.word	-1717986918
 313 0044 9999D93F 		.word	1071225241
 314 0048 9999C93F 		.word	1070176665
 315 004c 0E2DB29D 		.word	-1649267442
 316 0050 EFA7EA3F 		.word	1072343023
 317              		.cfi_endproc
 318              	.LFE42:
 319              		.size	random_Offset, .-random_Offset
 320              		.section	.text.movimiento,"ax",%progbits
 321              		.align	2
 322              		.global	movimiento
 323              		.code	16
 324              		.thumb_func
 325              		.type	movimiento, %function
 326              	movimiento:
 327              	.LFB43:
  99:main.c        ****     char byteh,bytel;
 328              		.loc 1 99 0
 329              		.cfi_startproc
 330              		@ args = 0, pretend = 0, frame = 0
 331              		@ frame_needed = 0, uses_anonymous_args = 0
 332              	.LVL40:
 333 0000 10B5     		push	{r4, lr}
 334              		.cfi_def_cfa_offset 8
 335              		.cfi_offset 4, -8
 336              		.cfi_offset 14, -4
 101:main.c        ****     bytel=mov;
 337              		.loc 1 101 0
 338 0002 0A12     		asrs	r2, r1, #8
 339              	.LVL41:
 103:main.c        ****     dato_enviado[1]=dirr ;//dir
 340              		.loc 1 103 0
 341 0004 074B     		ldr	r3, .L17
 342 0006 7F24     		movs	r4, #127
 343 0008 1C70     		strb	r4, [r3]
 104:main.c        ****     dato_enviado[2]=ESCRITURA ;//operacion
 344              		.loc 1 104 0
 345 000a 5870     		strb	r0, [r3, #1]
 105:main.c        ****     dato_enviado[3]=MOTOR;//lugar
 346              		.loc 1 105 0
 347 000c 0220     		movs	r0, #2
 348              	.LVL42:
 349 000e 9870     		strb	r0, [r3, #2]
 106:main.c        ****     dato_enviado[4]= byteh ;  //dato
 350              		.loc 1 106 0
 351 0010 0130     		adds	r0, r0, #1
 352 0012 D870     		strb	r0, [r3, #3]
 107:main.c        ****     dato_enviado[5]= bytel ;  //dato
 353              		.loc 1 107 0
 354 0014 1A71     		strb	r2, [r3, #4]
 108:main.c        ****     CAN_SendMsg0(); 
 355              		.loc 1 108 0
 356 0016 5971     		strb	r1, [r3, #5]
 109:main.c        ****     CyDelay(25);    
 357              		.loc 1 109 0
 358 0018 FFF7FEFF 		bl	CAN_SendMsg0
 359              	.LVL43:
ARM GAS  C:\Users\HENRYA~1\AppData\Local\Temp\ccNfq1WN.s 			page 16


 110:main.c        **** }
 360              		.loc 1 110 0
 361 001c 1920     		movs	r0, #25
 362 001e FFF7FEFF 		bl	CyDelay
 363              	.LVL44:
 111:main.c        **** 
 364              		.loc 1 111 0
 365              		@ sp needed
 366 0022 10BD     		pop	{r4, pc}
 367              	.L18:
 368              		.align	2
 369              	.L17:
 370 0024 00000000 		.word	dato_enviado
 371              		.cfi_endproc
 372              	.LFE43:
 373              		.size	movimiento, .-movimiento
 374              		.section	.text.Send_Angle,"ax",%progbits
 375              		.align	2
 376              		.global	Send_Angle
 377              		.code	16
 378              		.thumb_func
 379              		.type	Send_Angle, %function
 380              	Send_Angle:
 381              	.LFB44:
 113:main.c        ****     dato_enviado[0]=VER2;//verificacion
 382              		.loc 1 113 0
 383              		.cfi_startproc
 384              		@ args = 0, pretend = 0, frame = 0
 385              		@ frame_needed = 0, uses_anonymous_args = 0
 386              	.LVL45:
 387 0000 10B5     		push	{r4, lr}
 388              		.cfi_def_cfa_offset 8
 389              		.cfi_offset 4, -8
 390              		.cfi_offset 14, -4
 114:main.c        ****     dato_enviado[1]=Conta3;//dir
 391              		.loc 1 114 0
 392 0002 094B     		ldr	r3, .L20
 393 0004 8022     		movs	r2, #128
 394 0006 1A70     		strb	r2, [r3]
 115:main.c        ****     dato_enviado[2]=Conta3;//dir
 395              		.loc 1 115 0
 396 0008 C9B2     		uxtb	r1, r1
 397              	.LVL46:
 398 000a 5970     		strb	r1, [r3, #1]
 116:main.c        ****     dato_enviado[3]=ANGLE;
 399              		.loc 1 116 0
 400 000c 9970     		strb	r1, [r3, #2]
 117:main.c        ****     dato_enviado[4]=0;//lugar
 401              		.loc 1 117 0
 402 000e 653A     		subs	r2, r2, #101
 403 0010 DA70     		strb	r2, [r3, #3]
 118:main.c        ****     dato_enviado[5]=0;  //dato... en este caso direcion para asignar
 404              		.loc 1 118 0
 405 0012 0022     		movs	r2, #0
 406 0014 1A71     		strb	r2, [r3, #4]
 119:main.c        ****     dato_enviado[6]=datas;
 407              		.loc 1 119 0
ARM GAS  C:\Users\HENRYA~1\AppData\Local\Temp\ccNfq1WN.s 			page 17


 408 0016 5A71     		strb	r2, [r3, #5]
 120:main.c        ****     dato_enviado[7]=Conta3;
 409              		.loc 1 120 0
 410 0018 9871     		strb	r0, [r3, #6]
 121:main.c        ****     CAN_SendMsg0(); 
 411              		.loc 1 121 0
 412 001a D971     		strb	r1, [r3, #7]
 122:main.c        ****     CyDelay(50);
 413              		.loc 1 122 0
 414 001c FFF7FEFF 		bl	CAN_SendMsg0
 415              	.LVL47:
 123:main.c        **** }
 416              		.loc 1 123 0
 417 0020 3220     		movs	r0, #50
 418 0022 FFF7FEFF 		bl	CyDelay
 419              	.LVL48:
 124:main.c        **** 
 420              		.loc 1 124 0
 421              		@ sp needed
 422 0026 10BD     		pop	{r4, pc}
 423              	.L21:
 424              		.align	2
 425              	.L20:
 426 0028 00000000 		.word	dato_enviado
 427              		.cfi_endproc
 428              	.LFE44:
 429              		.size	Send_Angle, .-Send_Angle
 430              		.global	__aeabi_fmul
 431              		.global	__aeabi_f2iz
 432              		.global	__aeabi_fcmplt
 433              		.section	.text.Enviar_Parametros,"ax",%progbits
 434              		.align	2
 435              		.global	Enviar_Parametros
 436              		.code	16
 437              		.thumb_func
 438              		.type	Enviar_Parametros, %function
 439              	Enviar_Parametros:
 440              	.LFB45:
 126:main.c        ****     //Convertir el Valor a entero para ser enviado
 441              		.loc 1 126 0
 442              		.cfi_startproc
 443              		@ args = 0, pretend = 0, frame = 16
 444              		@ frame_needed = 0, uses_anonymous_args = 0
 445              	.LVL49:
 446 0000 F0B5     		push	{r4, r5, r6, r7, lr}
 447              		.cfi_def_cfa_offset 20
 448              		.cfi_offset 4, -20
 449              		.cfi_offset 5, -16
 450              		.cfi_offset 6, -12
 451              		.cfi_offset 7, -8
 452              		.cfi_offset 14, -4
 453 0002 85B0     		sub	sp, sp, #20
 454              		.cfi_def_cfa_offset 40
 455 0004 0190     		str	r0, [sp, #4]
 456 0006 0291     		str	r1, [sp, #8]
 457 0008 0392     		str	r2, [sp, #12]
 458 000a 1F00     		movs	r7, r3
ARM GAS  C:\Users\HENRYA~1\AppData\Local\Temp\ccNfq1WN.s 			page 18


 128:main.c        ****     int Phase_env=(int)fabs(Phase*10000);
 459              		.loc 1 128 0
 460 000c 2749     		ldr	r1, .L32
 461              	.LVL50:
 462 000e FFF7FEFF 		bl	__aeabi_fmul
 463              	.LVL51:
 464 0012 4000     		lsls	r0, r0, #1
 465 0014 4008     		lsrs	r0, r0, #1
 466 0016 FFF7FEFF 		bl	__aeabi_f2iz
 467              	.LVL52:
 468 001a 0600     		movs	r6, r0
 469              	.LVL53:
 129:main.c        ****     int Offset_env=(int)fabs(Offset*10000);
 470              		.loc 1 129 0
 471 001c 2349     		ldr	r1, .L32
 472 001e 0298     		ldr	r0, [sp, #8]
 473              	.LVL54:
 474 0020 FFF7FEFF 		bl	__aeabi_fmul
 475              	.LVL55:
 476 0024 4000     		lsls	r0, r0, #1
 477 0026 4008     		lsrs	r0, r0, #1
 478 0028 FFF7FEFF 		bl	__aeabi_f2iz
 479              	.LVL56:
 480 002c 0500     		movs	r5, r0
 481              	.LVL57:
 130:main.c        ****     //Enviar datos
 482              		.loc 1 130 0
 483 002e 1F49     		ldr	r1, .L32
 484 0030 0398     		ldr	r0, [sp, #12]
 485              	.LVL58:
 486 0032 FFF7FEFF 		bl	__aeabi_fmul
 487              	.LVL59:
 488 0036 4000     		lsls	r0, r0, #1
 489 0038 4008     		lsrs	r0, r0, #1
 490 003a FFF7FEFF 		bl	__aeabi_f2iz
 491              	.LVL60:
 492 003e 0400     		movs	r4, r0
 493              	.LVL61:
 132:main.c        ****     dato_enviado_1[1]=Orientacion;
 494              		.loc 1 132 0
 495 0040 1B4B     		ldr	r3, .L32+4
 496 0042 8122     		movs	r2, #129
 497 0044 1A70     		strb	r2, [r3]
 133:main.c        ****     //Convertir Amplitud
 498              		.loc 1 133 0
 499 0046 5F70     		strb	r7, [r3, #1]
 135:main.c        ****     uint8 datoH=Amp_env>>8;
 500              		.loc 1 135 0
 501 0048 F7B2     		uxtb	r7, r6
 502              	.LVL62:
 136:main.c        ****     uint8 Aux=0;
 503              		.loc 1 136 0
 504 004a 3612     		asrs	r6, r6, #8
 505              	.LVL63:
 506 004c F6B2     		uxtb	r6, r6
 507              	.LVL64:
 138:main.c        ****         Aux=(1<<7);
ARM GAS  C:\Users\HENRYA~1\AppData\Local\Temp\ccNfq1WN.s 			page 19


 508              		.loc 1 138 0
 509 004e 0021     		movs	r1, #0
 510 0050 0198     		ldr	r0, [sp, #4]
 511              	.LVL65:
 512 0052 FFF7FEFF 		bl	__aeabi_fcmplt
 513              	.LVL66:
 514 0056 0028     		cmp	r0, #0
 515 0058 01D0     		beq	.L23
 516              	.LVL67:
 140:main.c        ****     }
 517              		.loc 1 140 0
 518 005a 803E     		subs	r6, r6, #128
 519              	.LVL68:
 520 005c F6B2     		uxtb	r6, r6
 521              	.LVL69:
 522              	.L23:
 146:main.c        ****     dato_enviado_1[3]=datoH;
 523              		.loc 1 146 0
 524 005e 144B     		ldr	r3, .L32+4
 525 0060 9F70     		strb	r7, [r3, #2]
 147:main.c        ****     //Convertir Fase
 526              		.loc 1 147 0
 527 0062 DE70     		strb	r6, [r3, #3]
 149:main.c        ****     datoH=Phase_env>>8;
 528              		.loc 1 149 0
 529 0064 EEB2     		uxtb	r6, r5
 530              	.LVL70:
 150:main.c        ****     if(Phase<0.0){
 531              		.loc 1 150 0
 532 0066 2D12     		asrs	r5, r5, #8
 533              	.LVL71:
 534 0068 EDB2     		uxtb	r5, r5
 535              	.LVL72:
 151:main.c        ****         Aux=(1<<7);
 536              		.loc 1 151 0
 537 006a 0021     		movs	r1, #0
 538 006c 0298     		ldr	r0, [sp, #8]
 539 006e FFF7FEFF 		bl	__aeabi_fcmplt
 540              	.LVL73:
 541 0072 0028     		cmp	r0, #0
 542 0074 01D0     		beq	.L25
 543              	.LVL74:
 153:main.c        ****     }
 544              		.loc 1 153 0
 545 0076 803D     		subs	r5, r5, #128
 546              	.LVL75:
 547 0078 EDB2     		uxtb	r5, r5
 548              	.LVL76:
 549              	.L25:
 159:main.c        ****     dato_enviado_1[5]=datoH;
 550              		.loc 1 159 0
 551 007a 0D4B     		ldr	r3, .L32+4
 552 007c 1E71     		strb	r6, [r3, #4]
 160:main.c        ****     //Convertir Offset
 553              		.loc 1 160 0
 554 007e 5D71     		strb	r5, [r3, #5]
 162:main.c        ****     datoH=Offset_env>>8;
ARM GAS  C:\Users\HENRYA~1\AppData\Local\Temp\ccNfq1WN.s 			page 20


 555              		.loc 1 162 0
 556 0080 E5B2     		uxtb	r5, r4
 557              	.LVL77:
 163:main.c        ****     if(Offset<0.0){
 558              		.loc 1 163 0
 559 0082 2412     		asrs	r4, r4, #8
 560              	.LVL78:
 561 0084 E4B2     		uxtb	r4, r4
 562              	.LVL79:
 164:main.c        ****         Aux=(1<<7);
 563              		.loc 1 164 0
 564 0086 0021     		movs	r1, #0
 565 0088 0398     		ldr	r0, [sp, #12]
 566 008a FFF7FEFF 		bl	__aeabi_fcmplt
 567              	.LVL80:
 568 008e 0028     		cmp	r0, #0
 569 0090 01D0     		beq	.L27
 570              	.LVL81:
 166:main.c        ****     }
 571              		.loc 1 166 0
 572 0092 803C     		subs	r4, r4, #128
 573              	.LVL82:
 574 0094 E4B2     		uxtb	r4, r4
 575              	.LVL83:
 576              	.L27:
 172:main.c        ****     dato_enviado_1[7]=datoH;    
 577              		.loc 1 172 0
 578 0096 064B     		ldr	r3, .L32+4
 579 0098 9D71     		strb	r5, [r3, #6]
 173:main.c        ****     CAN_SendMsg1();
 580              		.loc 1 173 0
 581 009a DC71     		strb	r4, [r3, #7]
 174:main.c        ****     CyDelay(25);
 582              		.loc 1 174 0
 583 009c FFF7FEFF 		bl	CAN_SendMsg1
 584              	.LVL84:
 175:main.c        **** }
 585              		.loc 1 175 0
 586 00a0 1920     		movs	r0, #25
 587 00a2 FFF7FEFF 		bl	CyDelay
 588              	.LVL85:
 176:main.c        **** 
 589              		.loc 1 176 0
 590 00a6 05B0     		add	sp, sp, #20
 591              		@ sp needed
 592              	.LVL86:
 593              	.LVL87:
 594 00a8 F0BD     		pop	{r4, r5, r6, r7, pc}
 595              	.L33:
 596 00aa C046     		.align	2
 597              	.L32:
 598 00ac 00401C46 		.word	1176256512
 599 00b0 00000000 		.word	dato_enviado_1
 600              		.cfi_endproc
 601              	.LFE45:
 602              		.size	Enviar_Parametros, .-Enviar_Parametros
 603              		.section	.text.Recibe_mail_0,"ax",%progbits
ARM GAS  C:\Users\HENRYA~1\AppData\Local\Temp\ccNfq1WN.s 			page 21


 604              		.align	2
 605              		.global	Recibe_mail_0
 606              		.code	16
 607              		.thumb_func
 608              		.type	Recibe_mail_0, %function
 609              	Recibe_mail_0:
 610              	.LFB46:
 178:main.c        **** if(mailbox0[0]==VER){
 611              		.loc 1 178 0
 612              		.cfi_startproc
 613              		@ args = 0, pretend = 0, frame = 0
 614              		@ frame_needed = 0, uses_anonymous_args = 0
 615 0000 70B5     		push	{r4, r5, r6, lr}
 616              		.cfi_def_cfa_offset 16
 617              		.cfi_offset 4, -16
 618              		.cfi_offset 5, -12
 619              		.cfi_offset 6, -8
 620              		.cfi_offset 14, -4
 179:main.c        ****             switch(mailbox0[2]){
 621              		.loc 1 179 0
 622 0002 1A4B     		ldr	r3, .L40
 623 0004 1B78     		ldrb	r3, [r3]
 624 0006 7F2B     		cmp	r3, #127
 625 0008 0BD1     		bne	.L35
 180:main.c        ****             ///////////////////////////////////////////////////////
 626              		.loc 1 180 0
 627 000a 184A     		ldr	r2, .L40
 628 000c 9278     		ldrb	r2, [r2, #2]
 629 000e 022A     		cmp	r2, #2
 630 0010 07D1     		bne	.L35
 183:main.c        ****                     case CANTIDAD_MOD: 
 631              		.loc 1 183 0
 632 0012 164A     		ldr	r2, .L40
 633 0014 D278     		ldrb	r2, [r2, #3]
 634 0016 2B2A     		cmp	r2, #43
 635 0018 03D1     		bne	.L35
 185:main.c        ****                     break;
 636              		.loc 1 185 0
 637 001a 144A     		ldr	r2, .L40
 638 001c 1179     		ldrb	r1, [r2, #4]
 639 001e 144A     		ldr	r2, .L40+4
 640 0020 9160     		str	r1, [r2, #8]
 641              	.L35:
 194:main.c        ****                 switch(mailbox0[3]){
 642              		.loc 1 194 0
 643 0022 802B     		cmp	r3, #128
 644 0024 21D1     		bne	.L34
 195:main.c        ****                 ///////////////////////////////////////////////////////
 645              		.loc 1 195 0
 646 0026 114B     		ldr	r3, .L40
 647 0028 DB78     		ldrb	r3, [r3, #3]
 648 002a 1B2B     		cmp	r3, #27
 649 002c 1DD1     		bne	.L34
 650              	.LBB2:
 198:main.c        ****                     if(Contador>=cantidadM){
 651              		.loc 1 198 0
 652 002e 0F4B     		ldr	r3, .L40
ARM GAS  C:\Users\HENRYA~1\AppData\Local\Temp\ccNfq1WN.s 			page 22


 653 0030 DA79     		ldrb	r2, [r3, #7]
 654              	.LVL88:
 199:main.c        ****                             Enviar_Parametros(Amplitud_H,Fase,Offset_H,H);
 655              		.loc 1 199 0
 656 0032 0F4B     		ldr	r3, .L40+4
 657 0034 9B68     		ldr	r3, [r3, #8]
 658 0036 9A42     		cmp	r2, r3
 659 0038 17DB     		blt	.L34
 200:main.c        ****                             CyDelay(50);
 660              		.loc 1 200 0
 661 003a 0E4D     		ldr	r5, .L40+8
 662 003c 0C4C     		ldr	r4, .L40+4
 663 003e 2023     		movs	r3, #32
 664 0040 2A68     		ldr	r2, [r5]
 665              	.LVL89:
 666 0042 E168     		ldr	r1, [r4, #12]
 667 0044 2069     		ldr	r0, [r4, #16]
 668 0046 FFF7FEFF 		bl	Enviar_Parametros
 669              	.LVL90:
 201:main.c        ****                             Enviar_Parametros(Amplitud_V,Fase,Offset_V,V);
 670              		.loc 1 201 0
 671 004a 3220     		movs	r0, #50
 672 004c FFF7FEFF 		bl	CyDelay
 673              	.LVL91:
 202:main.c        ****                             CyDelay(50); 
 674              		.loc 1 202 0
 675 0050 6A68     		ldr	r2, [r5, #4]
 676 0052 E168     		ldr	r1, [r4, #12]
 677 0054 6069     		ldr	r0, [r4, #20]
 678 0056 2123     		movs	r3, #33
 679 0058 FFF7FEFF 		bl	Enviar_Parametros
 680              	.LVL92:
 203:main.c        ****                             Send_Angle(0,0);
 681              		.loc 1 203 0
 682 005c 3220     		movs	r0, #50
 683 005e FFF7FEFF 		bl	CyDelay
 684              	.LVL93:
 204:main.c        ****                     } 
 685              		.loc 1 204 0
 686 0062 0021     		movs	r1, #0
 687 0064 0020     		movs	r0, #0
 688 0066 FFF7FEFF 		bl	Send_Angle
 689              	.LVL94:
 690              	.L34:
 691              	.LBE2:
 209:main.c        **** 
 692              		.loc 1 209 0
 693              		@ sp needed
 694 006a 70BD     		pop	{r4, r5, r6, pc}
 695              	.L41:
 696              		.align	2
 697              	.L40:
 698 006c 00000000 		.word	mailbox0
 699 0070 00000000 		.word	.LANCHOR0
 700 0074 00000000 		.word	.LANCHOR1
 701              		.cfi_endproc
 702              	.LFE46:
ARM GAS  C:\Users\HENRYA~1\AppData\Local\Temp\ccNfq1WN.s 			page 23


 703              		.size	Recibe_mail_0, .-Recibe_mail_0
 704              		.section	.text.Recibe_Mail_2,"ax",%progbits
 705              		.align	2
 706              		.global	Recibe_Mail_2
 707              		.code	16
 708              		.thumb_func
 709              		.type	Recibe_Mail_2, %function
 710              	Recibe_Mail_2:
 711              	.LFB47:
 211:main.c        ****     if(mailbox2[0]==SENSORES){
 712              		.loc 1 211 0
 713              		.cfi_startproc
 714              		@ args = 0, pretend = 0, frame = 0
 715              		@ frame_needed = 0, uses_anonymous_args = 0
 716              		@ link register save eliminated.
 212:main.c        ****         //Mailbox2[1] Derecha
 717              		.loc 1 212 0
 718 0000 3C4B     		ldr	r3, .L52
 719 0002 1B78     		ldrb	r3, [r3]
 720 0004 822B     		cmp	r3, #130
 721 0006 74D1     		bne	.L42
 216:main.c        ****         else if(mailbox2[1]==0&&mailbox2[2]==0&&mailbox2[3]==1) {Peso_Sensor=20;}   //Izquierda
 722              		.loc 1 216 0
 723 0008 3A4B     		ldr	r3, .L52
 724 000a 5B78     		ldrb	r3, [r3, #1]
 725 000c 002B     		cmp	r3, #0
 726 000e 0BD1     		bne	.L44
 216:main.c        ****         else if(mailbox2[1]==0&&mailbox2[2]==0&&mailbox2[3]==1) {Peso_Sensor=20;}   //Izquierda
 727              		.loc 1 216 0 is_stmt 0 discriminator 1
 728 0010 384A     		ldr	r2, .L52
 729 0012 9278     		ldrb	r2, [r2, #2]
 730 0014 002A     		cmp	r2, #0
 731 0016 07D1     		bne	.L44
 216:main.c        ****         else if(mailbox2[1]==0&&mailbox2[2]==0&&mailbox2[3]==1) {Peso_Sensor=20;}   //Izquierda
 732              		.loc 1 216 0 discriminator 2
 733 0018 364A     		ldr	r2, .L52
 734 001a D278     		ldrb	r2, [r2, #3]
 735 001c 002A     		cmp	r2, #0
 736 001e 03D1     		bne	.L44
 216:main.c        ****         else if(mailbox2[1]==0&&mailbox2[2]==0&&mailbox2[3]==1) {Peso_Sensor=20;}   //Izquierda
 737              		.loc 1 216 0 discriminator 3
 738 0020 0022     		movs	r2, #0
 739 0022 354B     		ldr	r3, .L52+4
 740 0024 5A60     		str	r2, [r3, #4]
 741 0026 64E0     		b	.L42
 742              	.L44:
 217:main.c        ****         else if(mailbox2[1]==0&&mailbox2[2]==1&&mailbox2[3]==0) {Peso_Sensor=60;}   //Frontal
 743              		.loc 1 217 0 is_stmt 1
 744 0028 002B     		cmp	r3, #0
 745 002a 0BD1     		bne	.L45
 217:main.c        ****         else if(mailbox2[1]==0&&mailbox2[2]==1&&mailbox2[3]==0) {Peso_Sensor=60;}   //Frontal
 746              		.loc 1 217 0 is_stmt 0 discriminator 1
 747 002c 314A     		ldr	r2, .L52
 748 002e 9278     		ldrb	r2, [r2, #2]
 749 0030 002A     		cmp	r2, #0
 750 0032 07D1     		bne	.L45
 217:main.c        ****         else if(mailbox2[1]==0&&mailbox2[2]==1&&mailbox2[3]==0) {Peso_Sensor=60;}   //Frontal
ARM GAS  C:\Users\HENRYA~1\AppData\Local\Temp\ccNfq1WN.s 			page 24


 751              		.loc 1 217 0 discriminator 2
 752 0034 2F4A     		ldr	r2, .L52
 753 0036 D278     		ldrb	r2, [r2, #3]
 754 0038 012A     		cmp	r2, #1
 755 003a 03D1     		bne	.L45
 217:main.c        ****         else if(mailbox2[1]==0&&mailbox2[2]==1&&mailbox2[3]==0) {Peso_Sensor=60;}   //Frontal
 756              		.loc 1 217 0 discriminator 3
 757 003c 2F4A     		ldr	r2, .L52+8
 758 003e 2E4B     		ldr	r3, .L52+4
 759 0040 5A60     		str	r2, [r3, #4]
 760 0042 56E0     		b	.L42
 761              	.L45:
 218:main.c        ****         else if(mailbox2[1]==0&&mailbox2[2]==1&&mailbox2[3]==1) {Peso_Sensor=80;}   //Frontal e Izq
 762              		.loc 1 218 0 is_stmt 1
 763 0044 002B     		cmp	r3, #0
 764 0046 0BD1     		bne	.L46
 218:main.c        ****         else if(mailbox2[1]==0&&mailbox2[2]==1&&mailbox2[3]==1) {Peso_Sensor=80;}   //Frontal e Izq
 765              		.loc 1 218 0 is_stmt 0 discriminator 1
 766 0048 2A4A     		ldr	r2, .L52
 767 004a 9278     		ldrb	r2, [r2, #2]
 768 004c 012A     		cmp	r2, #1
 769 004e 07D1     		bne	.L46
 218:main.c        ****         else if(mailbox2[1]==0&&mailbox2[2]==1&&mailbox2[3]==1) {Peso_Sensor=80;}   //Frontal e Izq
 770              		.loc 1 218 0 discriminator 2
 771 0050 284A     		ldr	r2, .L52
 772 0052 D278     		ldrb	r2, [r2, #3]
 773 0054 002A     		cmp	r2, #0
 774 0056 03D1     		bne	.L46
 218:main.c        ****         else if(mailbox2[1]==0&&mailbox2[2]==1&&mailbox2[3]==1) {Peso_Sensor=80;}   //Frontal e Izq
 775              		.loc 1 218 0 discriminator 3
 776 0058 294A     		ldr	r2, .L52+12
 777 005a 274B     		ldr	r3, .L52+4
 778 005c 5A60     		str	r2, [r3, #4]
 779 005e 48E0     		b	.L42
 780              	.L46:
 219:main.c        ****         else if(mailbox2[1]==1&&mailbox2[2]==0&&mailbox2[3]==0) {Peso_Sensor=20;}   //Derecha
 781              		.loc 1 219 0 is_stmt 1
 782 0060 002B     		cmp	r3, #0
 783 0062 0BD1     		bne	.L47
 219:main.c        ****         else if(mailbox2[1]==1&&mailbox2[2]==0&&mailbox2[3]==0) {Peso_Sensor=20;}   //Derecha
 784              		.loc 1 219 0 is_stmt 0 discriminator 1
 785 0064 234A     		ldr	r2, .L52
 786 0066 9278     		ldrb	r2, [r2, #2]
 787 0068 012A     		cmp	r2, #1
 788 006a 07D1     		bne	.L47
 219:main.c        ****         else if(mailbox2[1]==1&&mailbox2[2]==0&&mailbox2[3]==0) {Peso_Sensor=20;}   //Derecha
 789              		.loc 1 219 0 discriminator 2
 790 006c 214A     		ldr	r2, .L52
 791 006e D278     		ldrb	r2, [r2, #3]
 792 0070 012A     		cmp	r2, #1
 793 0072 03D1     		bne	.L47
 219:main.c        ****         else if(mailbox2[1]==1&&mailbox2[2]==0&&mailbox2[3]==0) {Peso_Sensor=20;}   //Derecha
 794              		.loc 1 219 0 discriminator 3
 795 0074 234A     		ldr	r2, .L52+16
 796 0076 204B     		ldr	r3, .L52+4
 797 0078 5A60     		str	r2, [r3, #4]
 798 007a 3AE0     		b	.L42
ARM GAS  C:\Users\HENRYA~1\AppData\Local\Temp\ccNfq1WN.s 			page 25


 799              	.L47:
 220:main.c        ****         else if(mailbox2[1]==1&&mailbox2[2]==0&&mailbox2[3]==1) {Peso_Sensor=40;}   //Derecha e Izq
 800              		.loc 1 220 0 is_stmt 1
 801 007c 012B     		cmp	r3, #1
 802 007e 0BD1     		bne	.L48
 220:main.c        ****         else if(mailbox2[1]==1&&mailbox2[2]==0&&mailbox2[3]==1) {Peso_Sensor=40;}   //Derecha e Izq
 803              		.loc 1 220 0 is_stmt 0 discriminator 1
 804 0080 1C4A     		ldr	r2, .L52
 805 0082 9278     		ldrb	r2, [r2, #2]
 806 0084 002A     		cmp	r2, #0
 807 0086 07D1     		bne	.L48
 220:main.c        ****         else if(mailbox2[1]==1&&mailbox2[2]==0&&mailbox2[3]==1) {Peso_Sensor=40;}   //Derecha e Izq
 808              		.loc 1 220 0 discriminator 2
 809 0088 1A4A     		ldr	r2, .L52
 810 008a D278     		ldrb	r2, [r2, #3]
 811 008c 002A     		cmp	r2, #0
 812 008e 03D1     		bne	.L48
 220:main.c        ****         else if(mailbox2[1]==1&&mailbox2[2]==0&&mailbox2[3]==1) {Peso_Sensor=40;}   //Derecha e Izq
 813              		.loc 1 220 0 discriminator 3
 814 0090 1A4A     		ldr	r2, .L52+8
 815 0092 194B     		ldr	r3, .L52+4
 816 0094 5A60     		str	r2, [r3, #4]
 817 0096 2CE0     		b	.L42
 818              	.L48:
 221:main.c        ****         else if(mailbox2[1]==1&&mailbox2[2]==1&&mailbox2[3]==0) {Peso_Sensor=80;}   //Frontal y Der
 819              		.loc 1 221 0 is_stmt 1
 820 0098 012B     		cmp	r3, #1
 821 009a 0BD1     		bne	.L49
 221:main.c        ****         else if(mailbox2[1]==1&&mailbox2[2]==1&&mailbox2[3]==0) {Peso_Sensor=80;}   //Frontal y Der
 822              		.loc 1 221 0 is_stmt 0 discriminator 1
 823 009c 154A     		ldr	r2, .L52
 824 009e 9278     		ldrb	r2, [r2, #2]
 825 00a0 002A     		cmp	r2, #0
 826 00a2 07D1     		bne	.L49
 221:main.c        ****         else if(mailbox2[1]==1&&mailbox2[2]==1&&mailbox2[3]==0) {Peso_Sensor=80;}   //Frontal y Der
 827              		.loc 1 221 0 discriminator 2
 828 00a4 134A     		ldr	r2, .L52
 829 00a6 D278     		ldrb	r2, [r2, #3]
 830 00a8 012A     		cmp	r2, #1
 831 00aa 03D1     		bne	.L49
 221:main.c        ****         else if(mailbox2[1]==1&&mailbox2[2]==1&&mailbox2[3]==0) {Peso_Sensor=80;}   //Frontal y Der
 832              		.loc 1 221 0 discriminator 3
 833 00ac 164A     		ldr	r2, .L52+20
 834 00ae 124B     		ldr	r3, .L52+4
 835 00b0 5A60     		str	r2, [r3, #4]
 836 00b2 1EE0     		b	.L42
 837              	.L49:
 222:main.c        ****         else if(mailbox2[1]==1&&mailbox2[2]==1&&mailbox2[3]==1) {Peso_Sensor=100;}     //Todos
 838              		.loc 1 222 0 is_stmt 1
 839 00b4 012B     		cmp	r3, #1
 840 00b6 0BD1     		bne	.L50
 222:main.c        ****         else if(mailbox2[1]==1&&mailbox2[2]==1&&mailbox2[3]==1) {Peso_Sensor=100;}     //Todos
 841              		.loc 1 222 0 is_stmt 0 discriminator 1
 842 00b8 0E4A     		ldr	r2, .L52
 843 00ba 9278     		ldrb	r2, [r2, #2]
 844 00bc 012A     		cmp	r2, #1
 845 00be 07D1     		bne	.L50
ARM GAS  C:\Users\HENRYA~1\AppData\Local\Temp\ccNfq1WN.s 			page 26


 222:main.c        ****         else if(mailbox2[1]==1&&mailbox2[2]==1&&mailbox2[3]==1) {Peso_Sensor=100;}     //Todos
 846              		.loc 1 222 0 discriminator 2
 847 00c0 0C4A     		ldr	r2, .L52
 848 00c2 D278     		ldrb	r2, [r2, #3]
 849 00c4 002A     		cmp	r2, #0
 850 00c6 03D1     		bne	.L50
 222:main.c        ****         else if(mailbox2[1]==1&&mailbox2[2]==1&&mailbox2[3]==1) {Peso_Sensor=100;}     //Todos
 851              		.loc 1 222 0 discriminator 3
 852 00c8 0E4A     		ldr	r2, .L52+16
 853 00ca 0B4B     		ldr	r3, .L52+4
 854 00cc 5A60     		str	r2, [r3, #4]
 855 00ce 10E0     		b	.L42
 856              	.L50:
 223:main.c        ****         else                                                    {Peso_Sensor=0.0;}   //Normal
 857              		.loc 1 223 0 is_stmt 1
 858 00d0 012B     		cmp	r3, #1
 859 00d2 0BD1     		bne	.L51
 223:main.c        ****         else                                                    {Peso_Sensor=0.0;}   //Normal
 860              		.loc 1 223 0 is_stmt 0 discriminator 1
 861 00d4 074B     		ldr	r3, .L52
 862 00d6 9B78     		ldrb	r3, [r3, #2]
 863 00d8 012B     		cmp	r3, #1
 864 00da 07D1     		bne	.L51
 223:main.c        ****         else                                                    {Peso_Sensor=0.0;}   //Normal
 865              		.loc 1 223 0 discriminator 2
 866 00dc 054B     		ldr	r3, .L52
 867 00de DB78     		ldrb	r3, [r3, #3]
 868 00e0 012B     		cmp	r3, #1
 869 00e2 03D1     		bne	.L51
 223:main.c        ****         else                                                    {Peso_Sensor=0.0;}   //Normal
 870              		.loc 1 223 0 discriminator 3
 871 00e4 094A     		ldr	r2, .L52+24
 872 00e6 044B     		ldr	r3, .L52+4
 873 00e8 5A60     		str	r2, [r3, #4]
 874 00ea 02E0     		b	.L42
 875              	.L51:
 224:main.c        ****     }
 876              		.loc 1 224 0 is_stmt 1
 877 00ec 0022     		movs	r2, #0
 878 00ee 024B     		ldr	r3, .L52+4
 879 00f0 5A60     		str	r2, [r3, #4]
 880              	.L42:
 226:main.c        **** 
 881              		.loc 1 226 0
 882              		@ sp needed
 883 00f2 7047     		bx	lr
 884              	.L53:
 885              		.align	2
 886              	.L52:
 887 00f4 00000000 		.word	mailbox2
 888 00f8 00000000 		.word	.LANCHOR0
 889 00fc 0000A041 		.word	1101004800
 890 0100 00007042 		.word	1114636288
 891 0104 0000A042 		.word	1117782016
 892 0108 00002042 		.word	1109393408
 893 010c 0000C842 		.word	1120403456
 894              		.cfi_endproc
ARM GAS  C:\Users\HENRYA~1\AppData\Local\Temp\ccNfq1WN.s 			page 27


 895              	.LFE47:
 896              		.size	Recibe_Mail_2, .-Recibe_Mail_2
 897              		.section	.text.interrutcan,"ax",%progbits
 898              		.align	2
 899              		.global	interrutcan
 900              		.code	16
 901              		.thumb_func
 902              		.type	interrutcan, %function
 903              	interrutcan:
 904              	.LFB48:
 228:main.c        ****     CAN_GlobalIntDisable();
 905              		.loc 1 228 0
 906              		.cfi_startproc
 907              		@ args = 0, pretend = 0, frame = 0
 908              		@ frame_needed = 0, uses_anonymous_args = 0
 909 0000 10B5     		push	{r4, lr}
 910              		.cfi_def_cfa_offset 8
 911              		.cfi_offset 4, -8
 912              		.cfi_offset 14, -4
 229:main.c        ****     CAN_MsgRXIsr();  
 913              		.loc 1 229 0
 914 0002 FFF7FEFF 		bl	CAN_GlobalIntDisable
 915              	.LVL95:
 230:main.c        ****     Recibe_mail_0();
 916              		.loc 1 230 0
 917 0006 FFF7FEFF 		bl	CAN_MsgRXIsr
 918              	.LVL96:
 231:main.c        ****     Recibe_Mail_2();
 919              		.loc 1 231 0
 920 000a FFF7FEFF 		bl	Recibe_mail_0
 921              	.LVL97:
 232:main.c        ****     CAN_GlobalIntEnable();
 922              		.loc 1 232 0
 923 000e FFF7FEFF 		bl	Recibe_Mail_2
 924              	.LVL98:
 233:main.c        **** }
 925              		.loc 1 233 0
 926 0012 FFF7FEFF 		bl	CAN_GlobalIntEnable
 927              	.LVL99:
 234:main.c        **** 
 928              		.loc 1 234 0
 929              		@ sp needed
 930 0016 10BD     		pop	{r4, pc}
 931              		.cfi_endproc
 932              	.LFE48:
 933              		.size	interrutcan, .-interrutcan
 934              		.section	.text.maximo,"ax",%progbits
 935              		.align	2
 936              		.global	maximo
 937              		.code	16
 938              		.thumb_func
 939              		.type	maximo, %function
 940              	maximo:
 941              	.LFB49:
 236:main.c        ****   int i; 
 942              		.loc 1 236 0
 943              		.cfi_startproc
ARM GAS  C:\Users\HENRYA~1\AppData\Local\Temp\ccNfq1WN.s 			page 28


 944              		@ args = 0, pretend = 0, frame = 8
 945              		@ frame_needed = 0, uses_anonymous_args = 0
 946              	.LVL100:
 947 0000 F0B5     		push	{r4, r5, r6, r7, lr}
 948              		.cfi_def_cfa_offset 20
 949              		.cfi_offset 4, -20
 950              		.cfi_offset 5, -16
 951              		.cfi_offset 6, -12
 952              		.cfi_offset 7, -8
 953              		.cfi_offset 14, -4
 954 0002 83B0     		sub	sp, sp, #12
 955              		.cfi_def_cfa_offset 32
 956 0004 0700     		movs	r7, r0
 957 0006 0E00     		movs	r6, r1
 239:main.c        ****   for (i = 1; i < num; i++) 
 958              		.loc 1 239 0
 959 0008 0368     		ldr	r3, [r0]
 960 000a 0193     		str	r3, [sp, #4]
 961              	.LVL101:
 240:main.c        ****     if (valores[i] > max) 
 962              		.loc 1 240 0
 963 000c 0124     		movs	r4, #1
 964 000e 09E0     		b	.L56
 965              	.LVL102:
 966              	.L58:
 241:main.c        **** 	  max = valores[i]; 
 967              		.loc 1 241 0
 968 0010 A300     		lsls	r3, r4, #2
 969 0012 DD59     		ldr	r5, [r3, r7]
 970 0014 291C     		adds	r1, r5, #0
 971 0016 0198     		ldr	r0, [sp, #4]
 972 0018 FFF7FEFF 		bl	__aeabi_fcmplt
 973              	.LVL103:
 974 001c 0028     		cmp	r0, #0
 975 001e 00D0     		beq	.L57
 242:main.c        ****   return (max); 
 976              		.loc 1 242 0
 977 0020 0195     		str	r5, [sp, #4]
 978              	.LVL104:
 979              	.L57:
 240:main.c        ****     if (valores[i] > max) 
 980              		.loc 1 240 0 discriminator 2
 981 0022 0134     		adds	r4, r4, #1
 982              	.LVL105:
 983              	.L56:
 240:main.c        ****     if (valores[i] > max) 
 984              		.loc 1 240 0 is_stmt 0 discriminator 1
 985 0024 B442     		cmp	r4, r6
 986 0026 F3DB     		blt	.L58
 244:main.c        **** 
 987              		.loc 1 244 0 is_stmt 1
 988 0028 0198     		ldr	r0, [sp, #4]
 989 002a 03B0     		add	sp, sp, #12
 990              		@ sp needed
 991              	.LVL106:
 992              	.LVL107:
 993              	.LVL108:
ARM GAS  C:\Users\HENRYA~1\AppData\Local\Temp\ccNfq1WN.s 			page 29


 994 002c F0BD     		pop	{r4, r5, r6, r7, pc}
 995              		.cfi_endproc
 996              	.LFE49:
 997              		.size	maximo, .-maximo
 998              		.global	__aeabi_fdiv
 999              		.global	__aeabi_fsub
 1000 002e C046     		.section	.text.Normalizar,"ax",%progbits
 1001              		.align	2
 1002              		.global	Normalizar
 1003              		.code	16
 1004              		.thumb_func
 1005              		.type	Normalizar, %function
 1006              	Normalizar:
 1007              	.LFB50:
 246:main.c        ****     float Valor_Maximo=maximo(Fitness,I);
 1008              		.loc 1 246 0
 1009              		.cfi_startproc
 1010              		@ args = 0, pretend = 0, frame = 8
 1011              		@ frame_needed = 0, uses_anonymous_args = 0
 1012              	.LVL109:
 1013 0000 F0B5     		push	{r4, r5, r6, r7, lr}
 1014              		.cfi_def_cfa_offset 20
 1015              		.cfi_offset 4, -20
 1016              		.cfi_offset 5, -16
 1017              		.cfi_offset 6, -12
 1018              		.cfi_offset 7, -8
 1019              		.cfi_offset 14, -4
 1020 0002 83B0     		sub	sp, sp, #12
 1021              		.cfi_def_cfa_offset 32
 1022 0004 0400     		movs	r4, r0
 247:main.c        ****     float Valor_Maximo_1=maximo(Fitness_1,I);
 1023              		.loc 1 247 0
 1024 0006 0100     		movs	r1, r0
 1025 0008 1548     		ldr	r0, .L63
 1026              	.LVL110:
 1027 000a FFF7FEFF 		bl	maximo
 1028              	.LVL111:
 1029 000e 071C     		adds	r7, r0, #0
 1030              	.LVL112:
 248:main.c        ****     int i=0;
 1031              		.loc 1 248 0
 1032 0010 2100     		movs	r1, r4
 1033 0012 1448     		ldr	r0, .L63+4
 1034              	.LVL113:
 1035 0014 FFF7FEFF 		bl	maximo
 1036              	.LVL114:
 1037 0018 0190     		str	r0, [sp, #4]
 1038              	.LVL115:
 250:main.c        ****         Fitness[i]=Fitness[i]/Valor_Maximo;
 1039              		.loc 1 250 0
 1040 001a 0025     		movs	r5, #0
 1041 001c 19E0     		b	.L61
 1042              	.LVL116:
 1043              	.L62:
 251:main.c        ****         Fitness[i]=1.0-Fitness[i];
 1044              		.loc 1 251 0 discriminator 3
 1045 001e 104E     		ldr	r6, .L63
ARM GAS  C:\Users\HENRYA~1\AppData\Local\Temp\ccNfq1WN.s 			page 30


 1046 0020 AC00     		lsls	r4, r5, #2
 1047 0022 391C     		adds	r1, r7, #0
 1048 0024 A059     		ldr	r0, [r4, r6]
 1049 0026 FFF7FEFF 		bl	__aeabi_fdiv
 1050              	.LVL117:
 1051 002a 011C     		adds	r1, r0, #0
 1052 002c A051     		str	r0, [r4, r6]
 252:main.c        ****         Fitness_1[i]=Fitness_1[i]/Valor_Maximo_1;
 1053              		.loc 1 252 0 discriminator 3
 1054 002e FE20     		movs	r0, #254
 1055 0030 8005     		lsls	r0, r0, #22
 1056 0032 FFF7FEFF 		bl	__aeabi_fsub
 1057              	.LVL118:
 1058 0036 A051     		str	r0, [r4, r6]
 253:main.c        ****         Fitness_1[i]=1.0-Fitness_1[i];        
 1059              		.loc 1 253 0 discriminator 3
 1060 0038 0A4E     		ldr	r6, .L63+4
 1061 003a 0199     		ldr	r1, [sp, #4]
 1062 003c A059     		ldr	r0, [r4, r6]
 1063 003e FFF7FEFF 		bl	__aeabi_fdiv
 1064              	.LVL119:
 1065 0042 011C     		adds	r1, r0, #0
 1066 0044 A051     		str	r0, [r4, r6]
 254:main.c        ****     }
 1067              		.loc 1 254 0 discriminator 3
 1068 0046 FE20     		movs	r0, #254
 1069 0048 8005     		lsls	r0, r0, #22
 1070 004a FFF7FEFF 		bl	__aeabi_fsub
 1071              	.LVL120:
 1072 004e A051     		str	r0, [r4, r6]
 250:main.c        ****         Fitness[i]=Fitness[i]/Valor_Maximo;
 1073              		.loc 1 250 0 discriminator 3
 1074 0050 0135     		adds	r5, r5, #1
 1075              	.LVL121:
 1076              	.L61:
 250:main.c        ****         Fitness[i]=Fitness[i]/Valor_Maximo;
 1077              		.loc 1 250 0 is_stmt 0 discriminator 1
 1078 0052 054B     		ldr	r3, .L63+8
 1079 0054 9B68     		ldr	r3, [r3, #8]
 1080 0056 9D42     		cmp	r5, r3
 1081 0058 E1DB     		blt	.L62
 256:main.c        **** 
 1082              		.loc 1 256 0 is_stmt 1
 1083 005a 03B0     		add	sp, sp, #12
 1084              		@ sp needed
 1085              	.LVL122:
 1086              	.LVL123:
 1087 005c F0BD     		pop	{r4, r5, r6, r7, pc}
 1088              	.L64:
 1089 005e C046     		.align	2
 1090              	.L63:
 1091 0060 00000000 		.word	Fitness
 1092 0064 00000000 		.word	Fitness_1
 1093 0068 00000000 		.word	.LANCHOR1
 1094              		.cfi_endproc
 1095              	.LFE50:
 1096              		.size	Normalizar, .-Normalizar
ARM GAS  C:\Users\HENRYA~1\AppData\Local\Temp\ccNfq1WN.s 			page 31


 1097              		.section	.text.Evaluar_Fitness,"ax",%progbits
 1098              		.align	2
 1099              		.global	Evaluar_Fitness
 1100              		.code	16
 1101              		.thumb_func
 1102              		.type	Evaluar_Fitness, %function
 1103              	Evaluar_Fitness:
 1104              	.LFB51:
 258:main.c        ****     Amplitud_V=Poblacion_1[0][i];
 1105              		.loc 1 258 0
 1106              		.cfi_startproc
 1107              		@ args = 0, pretend = 0, frame = 0
 1108              		@ frame_needed = 0, uses_anonymous_args = 0
 1109              	.LVL124:
 1110 0000 70B5     		push	{r4, r5, r6, lr}
 1111              		.cfi_def_cfa_offset 16
 1112              		.cfi_offset 4, -16
 1113              		.cfi_offset 5, -12
 1114              		.cfi_offset 6, -8
 1115              		.cfi_offset 14, -4
 259:main.c        ****     Amplitud_H=Poblacion_1[1][i];
 1116              		.loc 1 259 0
 1117 0002 1B4B     		ldr	r3, .L68
 1118 0004 8200     		lsls	r2, r0, #2
 1119 0006 D158     		ldr	r1, [r2, r3]
 1120 0008 1A4A     		ldr	r2, .L68+4
 1121 000a 5161     		str	r1, [r2, #20]
 260:main.c        ****     Fase=Poblacion_1[2][i];
 1122              		.loc 1 260 0
 1123 000c 0100     		movs	r1, r0
 1124 000e 0A31     		adds	r1, r1, #10
 1125 0010 8900     		lsls	r1, r1, #2
 1126 0012 C958     		ldr	r1, [r1, r3]
 1127 0014 1161     		str	r1, [r2, #16]
 261:main.c        ****     Offset_V=Poblacion_1[3][i];
 1128              		.loc 1 261 0
 1129 0016 0100     		movs	r1, r0
 1130 0018 1431     		adds	r1, r1, #20
 1131 001a 8900     		lsls	r1, r1, #2
 1132 001c C958     		ldr	r1, [r1, r3]
 1133 001e D160     		str	r1, [r2, #12]
 262:main.c        ****     Offset_H=Poblacion_1[4][i];    
 1134              		.loc 1 262 0
 1135 0020 0200     		movs	r2, r0
 1136 0022 1E32     		adds	r2, r2, #30
 1137 0024 9200     		lsls	r2, r2, #2
 1138 0026 D158     		ldr	r1, [r2, r3]
 1139 0028 134A     		ldr	r2, .L68+8
 1140 002a 5160     		str	r1, [r2, #4]
 263:main.c        ****         for(int i=0;i<5;i++){
 1141              		.loc 1 263 0
 1142 002c 2830     		adds	r0, r0, #40
 1143              	.LVL125:
 1144 002e 8000     		lsls	r0, r0, #2
 1145              	.LVL126:
 1146 0030 C358     		ldr	r3, [r0, r3]
 1147 0032 1360     		str	r3, [r2]
ARM GAS  C:\Users\HENRYA~1\AppData\Local\Temp\ccNfq1WN.s 			page 32


 1148              	.LVL127:
 1149              	.LBB3:
 264:main.c        ****             Enviar_Parametros(Amplitud_H,Fase,Offset_H,H);
 1150              		.loc 1 264 0
 1151 0034 0025     		movs	r5, #0
 1152 0036 18E0     		b	.L66
 1153              	.LVL128:
 1154              	.L67:
 265:main.c        ****             CyDelay(50);
 1155              		.loc 1 265 0 discriminator 3
 1156 0038 0F4E     		ldr	r6, .L68+8
 1157 003a 0E4C     		ldr	r4, .L68+4
 1158 003c 2023     		movs	r3, #32
 1159 003e 3268     		ldr	r2, [r6]
 1160 0040 E168     		ldr	r1, [r4, #12]
 1161 0042 2069     		ldr	r0, [r4, #16]
 1162 0044 FFF7FEFF 		bl	Enviar_Parametros
 1163              	.LVL129:
 266:main.c        ****             Enviar_Parametros(Amplitud_V,Fase,Offset_V,V);
 1164              		.loc 1 266 0 discriminator 3
 1165 0048 3220     		movs	r0, #50
 1166 004a FFF7FEFF 		bl	CyDelay
 1167              	.LVL130:
 267:main.c        ****             CyDelay(50);
 1168              		.loc 1 267 0 discriminator 3
 1169 004e 7268     		ldr	r2, [r6, #4]
 1170 0050 E168     		ldr	r1, [r4, #12]
 1171 0052 6069     		ldr	r0, [r4, #20]
 1172 0054 2123     		movs	r3, #33
 1173 0056 FFF7FEFF 		bl	Enviar_Parametros
 1174              	.LVL131:
 268:main.c        ****             Send_Angle(0,0);
 1175              		.loc 1 268 0 discriminator 3
 1176 005a 3220     		movs	r0, #50
 1177 005c FFF7FEFF 		bl	CyDelay
 1178              	.LVL132:
 269:main.c        ****         }   
 1179              		.loc 1 269 0 discriminator 3
 1180 0060 0021     		movs	r1, #0
 1181 0062 0020     		movs	r0, #0
 1182 0064 FFF7FEFF 		bl	Send_Angle
 1183              	.LVL133:
 264:main.c        ****             Enviar_Parametros(Amplitud_H,Fase,Offset_H,H);
 1184              		.loc 1 264 0 discriminator 3
 1185 0068 0135     		adds	r5, r5, #1
 1186              	.LVL134:
 1187              	.L66:
 264:main.c        ****             Enviar_Parametros(Amplitud_H,Fase,Offset_H,H);
 1188              		.loc 1 264 0 is_stmt 0 discriminator 1
 1189 006a 042D     		cmp	r5, #4
 1190 006c E4DD     		ble	.L67
 1191              	.LBE3:
 271:main.c        **** 
 1192              		.loc 1 271 0 is_stmt 1
 1193              		@ sp needed
 1194              	.LVL135:
 1195 006e 70BD     		pop	{r4, r5, r6, pc}
ARM GAS  C:\Users\HENRYA~1\AppData\Local\Temp\ccNfq1WN.s 			page 33


 1196              	.L69:
 1197              		.align	2
 1198              	.L68:
 1199 0070 00000000 		.word	Poblacion_1
 1200 0074 00000000 		.word	.LANCHOR0
 1201 0078 00000000 		.word	.LANCHOR1
 1202              		.cfi_endproc
 1203              	.LFE51:
 1204              		.size	Evaluar_Fitness, .-Evaluar_Fitness
 1205              		.section	.text.Espere,"ax",%progbits
 1206              		.align	2
 1207              		.global	Espere
 1208              		.code	16
 1209              		.thumb_func
 1210              		.type	Espere, %function
 1211              	Espere:
 1212              	.LFB52:
 273:main.c        ****     Amplitud_V=0.0;
 1213              		.loc 1 273 0
 1214              		.cfi_startproc
 1215              		@ args = 0, pretend = 0, frame = 0
 1216              		@ frame_needed = 0, uses_anonymous_args = 0
 1217 0000 70B5     		push	{r4, r5, r6, lr}
 1218              		.cfi_def_cfa_offset 16
 1219              		.cfi_offset 4, -16
 1220              		.cfi_offset 5, -12
 1221              		.cfi_offset 6, -8
 1222              		.cfi_offset 14, -4
 274:main.c        ****     Amplitud_H=0.0;
 1223              		.loc 1 274 0
 1224 0002 134B     		ldr	r3, .L73
 1225 0004 0022     		movs	r2, #0
 1226 0006 5A61     		str	r2, [r3, #20]
 275:main.c        ****     Fase=0.0;
 1227              		.loc 1 275 0
 1228 0008 1A61     		str	r2, [r3, #16]
 276:main.c        ****     Offset_V=0.833;
 1229              		.loc 1 276 0
 1230 000a DA60     		str	r2, [r3, #12]
 277:main.c        ****     Offset_H=0.833;
 1231              		.loc 1 277 0
 1232 000c 114B     		ldr	r3, .L73+4
 1233 000e 124A     		ldr	r2, .L73+8
 1234 0010 5A60     		str	r2, [r3, #4]
 278:main.c        ****         for(int i=0;i<5;i++){
 1235              		.loc 1 278 0
 1236 0012 1A60     		str	r2, [r3]
 1237              	.LVL136:
 1238              	.LBB4:
 279:main.c        ****             Enviar_Parametros(Amplitud_H,Fase,Offset_H,H);
 1239              		.loc 1 279 0
 1240 0014 0025     		movs	r5, #0
 1241 0016 18E0     		b	.L71
 1242              	.LVL137:
 1243              	.L72:
 280:main.c        ****             CyDelay(50);
 1244              		.loc 1 280 0 discriminator 3
ARM GAS  C:\Users\HENRYA~1\AppData\Local\Temp\ccNfq1WN.s 			page 34


 1245 0018 0E4E     		ldr	r6, .L73+4
 1246 001a 0D4C     		ldr	r4, .L73
 1247 001c 2023     		movs	r3, #32
 1248 001e 3268     		ldr	r2, [r6]
 1249 0020 E168     		ldr	r1, [r4, #12]
 1250 0022 2069     		ldr	r0, [r4, #16]
 1251 0024 FFF7FEFF 		bl	Enviar_Parametros
 1252              	.LVL138:
 281:main.c        ****             Enviar_Parametros(Amplitud_V,Fase,Offset_V,V);
 1253              		.loc 1 281 0 discriminator 3
 1254 0028 3220     		movs	r0, #50
 1255 002a FFF7FEFF 		bl	CyDelay
 1256              	.LVL139:
 282:main.c        ****             CyDelay(50);
 1257              		.loc 1 282 0 discriminator 3
 1258 002e 7268     		ldr	r2, [r6, #4]
 1259 0030 E168     		ldr	r1, [r4, #12]
 1260 0032 6069     		ldr	r0, [r4, #20]
 1261 0034 2123     		movs	r3, #33
 1262 0036 FFF7FEFF 		bl	Enviar_Parametros
 1263              	.LVL140:
 283:main.c        ****             Send_Angle(0,0);
 1264              		.loc 1 283 0 discriminator 3
 1265 003a 3220     		movs	r0, #50
 1266 003c FFF7FEFF 		bl	CyDelay
 1267              	.LVL141:
 284:main.c        ****         }   
 1268              		.loc 1 284 0 discriminator 3
 1269 0040 0021     		movs	r1, #0
 1270 0042 0020     		movs	r0, #0
 1271 0044 FFF7FEFF 		bl	Send_Angle
 1272              	.LVL142:
 279:main.c        ****             Enviar_Parametros(Amplitud_H,Fase,Offset_H,H);
 1273              		.loc 1 279 0 discriminator 3
 1274 0048 0135     		adds	r5, r5, #1
 1275              	.LVL143:
 1276              	.L71:
 279:main.c        ****             Enviar_Parametros(Amplitud_H,Fase,Offset_H,H);
 1277              		.loc 1 279 0 is_stmt 0 discriminator 1
 1278 004a 042D     		cmp	r5, #4
 1279 004c E4DD     		ble	.L72
 1280              	.LBE4:
 286:main.c        **** 
 1281              		.loc 1 286 0 is_stmt 1
 1282              		@ sp needed
 1283              	.LVL144:
 1284 004e 70BD     		pop	{r4, r5, r6, pc}
 1285              	.L74:
 1286              		.align	2
 1287              	.L73:
 1288 0050 00000000 		.word	.LANCHOR0
 1289 0054 00000000 		.word	.LANCHOR1
 1290 0058 7D3F553F 		.word	1062551421
 1291              		.cfi_endproc
 1292              	.LFE52:
 1293              		.size	Espere, .-Espere
 1294              		.global	__aeabi_fcmpgt
ARM GAS  C:\Users\HENRYA~1\AppData\Local\Temp\ccNfq1WN.s 			page 35


 1295              		.section	.text.Seleccion,"ax",%progbits
 1296              		.align	2
 1297              		.global	Seleccion
 1298              		.code	16
 1299              		.thumb_func
 1300              		.type	Seleccion, %function
 1301              	Seleccion:
 1302              	.LFB53:
 288:main.c        ****     int i=0,j=0;
 1303              		.loc 1 288 0
 1304              		.cfi_startproc
 1305              		@ args = 0, pretend = 0, frame = 0
 1306              		@ frame_needed = 0, uses_anonymous_args = 0
 1307 0000 F0B5     		push	{r4, r5, r6, r7, lr}
 1308              		.cfi_def_cfa_offset 20
 1309              		.cfi_offset 4, -20
 1310              		.cfi_offset 5, -16
 1311              		.cfi_offset 6, -12
 1312              		.cfi_offset 7, -8
 1313              		.cfi_offset 14, -4
 1314 0002 4746     		mov	r7, r8
 1315 0004 80B4     		push	{r7}
 1316              		.cfi_def_cfa_offset 24
 1317              		.cfi_offset 8, -24
 1318              	.LVL145:
 290:main.c        ****     bolita=0.0;
 1319              		.loc 1 290 0
 1320 0006 414B     		ldr	r3, .L86
 1321 0008 0022     		movs	r2, #0
 1322 000a 9A61     		str	r2, [r3, #24]
 291:main.c        ****     //Crear Vector de Seleccion
 1323              		.loc 1 291 0
 1324 000c DA61     		str	r2, [r3, #28]
 293:main.c        ****         Acu=Acu+Fitness[i];            
 1325              		.loc 1 293 0
 1326 000e 0024     		movs	r4, #0
 1327 0010 08E0     		b	.L76
 1328              	.LVL146:
 1329              	.L77:
 294:main.c        ****     }
 1330              		.loc 1 294 0 discriminator 3
 1331 0012 A200     		lsls	r2, r4, #2
 1332 0014 3E4B     		ldr	r3, .L86+4
 1333 0016 D058     		ldr	r0, [r2, r3]
 1334 0018 3C4D     		ldr	r5, .L86
 1335 001a A969     		ldr	r1, [r5, #24]
 1336 001c FFF7FEFF 		bl	__aeabi_fadd
 1337              	.LVL147:
 1338 0020 A861     		str	r0, [r5, #24]
 293:main.c        ****         Acu=Acu+Fitness[i];            
 1339              		.loc 1 293 0 discriminator 3
 1340 0022 0134     		adds	r4, r4, #1
 1341              	.LVL148:
 1342              	.L76:
 293:main.c        ****         Acu=Acu+Fitness[i];            
 1343              		.loc 1 293 0 is_stmt 0 discriminator 1
 1344 0024 3B4B     		ldr	r3, .L86+8
ARM GAS  C:\Users\HENRYA~1\AppData\Local\Temp\ccNfq1WN.s 			page 36


 1345 0026 9D68     		ldr	r5, [r3, #8]
 1346 0028 AC42     		cmp	r4, r5
 1347 002a F2DB     		blt	.L77
 1348 002c 0024     		movs	r4, #0
 1349              	.LVL149:
 1350 002e 09E0     		b	.L78
 1351              	.LVL150:
 1352              	.L79:
 297:main.c        ****     }    
 1353              		.loc 1 297 0 is_stmt 1 discriminator 3
 1354 0030 A600     		lsls	r6, r4, #2
 1355 0032 374B     		ldr	r3, .L86+4
 1356 0034 F058     		ldr	r0, [r6, r3]
 1357 0036 354B     		ldr	r3, .L86
 1358 0038 9969     		ldr	r1, [r3, #24]
 1359 003a FFF7FEFF 		bl	__aeabi_fdiv
 1360              	.LVL151:
 1361 003e 364B     		ldr	r3, .L86+12
 1362 0040 F050     		str	r0, [r6, r3]
 296:main.c        ****         Fitness_Normalizado[i]=Fitness[i]/Acu;            
 1363              		.loc 1 296 0 discriminator 3
 1364 0042 0134     		adds	r4, r4, #1
 1365              	.LVL152:
 1366              	.L78:
 296:main.c        ****         Fitness_Normalizado[i]=Fitness[i]/Acu;            
 1367              		.loc 1 296 0 is_stmt 0 discriminator 1
 1368 0044 AC42     		cmp	r4, r5
 1369 0046 F3DB     		blt	.L79
 1370 0048 0027     		movs	r7, #0
 1371 004a 1FE0     		b	.L80
 1372              	.LVL153:
 1373              	.L83:
 301:main.c        ****         Acu=0.0;
 1374              		.loc 1 301 0 is_stmt 1
 1375 004c FFF7FEFF 		bl	randd
 1376              	.LVL154:
 1377 0050 FFF7FEFF 		bl	__aeabi_d2f
 1378              	.LVL155:
 1379 0054 051C     		adds	r5, r0, #0
 1380 0056 2D4B     		ldr	r3, .L86
 1381 0058 D861     		str	r0, [r3, #28]
 302:main.c        ****         j=0;
 1382              		.loc 1 302 0
 1383 005a 0022     		movs	r2, #0
 1384 005c 9A61     		str	r2, [r3, #24]
 1385              	.LVL156:
 303:main.c        ****         while (Acu<bolita){
 1386              		.loc 1 303 0
 1387 005e 0024     		movs	r4, #0
 304:main.c        ****             Acu=Fitness_Normalizado[j]+Acu;
 1388              		.loc 1 304 0
 1389 0060 0BE0     		b	.L81
 1390              	.LVL157:
 1391              	.L82:
 305:main.c        ****             indice[i]=j;
 1392              		.loc 1 305 0
 1393 0062 A200     		lsls	r2, r4, #2
ARM GAS  C:\Users\HENRYA~1\AppData\Local\Temp\ccNfq1WN.s 			page 37


 1394 0064 2C4B     		ldr	r3, .L86+12
 1395 0066 D158     		ldr	r1, [r2, r3]
 1396 0068 301C     		adds	r0, r6, #0
 1397 006a FFF7FEFF 		bl	__aeabi_fadd
 1398              	.LVL158:
 1399 006e 274B     		ldr	r3, .L86
 1400 0070 9861     		str	r0, [r3, #24]
 306:main.c        ****             j++;
 1401              		.loc 1 306 0
 1402 0072 BB00     		lsls	r3, r7, #2
 1403 0074 294A     		ldr	r2, .L86+16
 1404 0076 9C50     		str	r4, [r3, r2]
 307:main.c        ****         }
 1405              		.loc 1 307 0
 1406 0078 0134     		adds	r4, r4, #1
 1407              	.LVL159:
 1408              	.L81:
 304:main.c        ****             Acu=Fitness_Normalizado[j]+Acu;
 1409              		.loc 1 304 0
 1410 007a 244B     		ldr	r3, .L86
 1411 007c 9E69     		ldr	r6, [r3, #24]
 1412 007e 311C     		adds	r1, r6, #0
 1413 0080 281C     		adds	r0, r5, #0
 1414 0082 FFF7FEFF 		bl	__aeabi_fcmpgt
 1415              	.LVL160:
 1416 0086 0028     		cmp	r0, #0
 1417 0088 EBD1     		bne	.L82
 300:main.c        ****         bolita=randd();
 1418              		.loc 1 300 0 discriminator 2
 1419 008a 0137     		adds	r7, r7, #1
 1420              	.LVL161:
 1421              	.L80:
 300:main.c        ****         bolita=randd();
 1422              		.loc 1 300 0 is_stmt 0 discriminator 1
 1423 008c 214B     		ldr	r3, .L86+8
 1424 008e 9E68     		ldr	r6, [r3, #8]
 1425 0090 B742     		cmp	r7, r6
 1426 0092 DBDB     		blt	.L83
 1427 0094 0022     		movs	r2, #0
 1428 0096 34E0     		b	.L84
 1429              	.LVL162:
 1430              	.L85:
 312:main.c        ****         Poblacion_1[1][i]=Poblacion[1][indice[i]];
 1431              		.loc 1 312 0 is_stmt 1 discriminator 3
 1432 0098 9400     		lsls	r4, r2, #2
 1433 009a 204B     		ldr	r3, .L86+16
 1434 009c E358     		ldr	r3, [r4, r3]
 1435 009e 2048     		ldr	r0, .L86+20
 1436 00a0 9900     		lsls	r1, r3, #2
 1437 00a2 8846     		mov	r8, r1
 1438 00a4 1F49     		ldr	r1, .L86+24
 1439 00a6 4546     		mov	r5, r8
 1440 00a8 2D58     		ldr	r5, [r5, r0]
 1441 00aa 6550     		str	r5, [r4, r1]
 313:main.c        ****         Poblacion_1[2][i]=Poblacion[2][indice[i]];
 1442              		.loc 1 313 0 discriminator 3
 1443 00ac 1D00     		movs	r5, r3
ARM GAS  C:\Users\HENRYA~1\AppData\Local\Temp\ccNfq1WN.s 			page 38


 1444 00ae 0A35     		adds	r5, r5, #10
 1445 00b0 AD00     		lsls	r5, r5, #2
 1446 00b2 2D58     		ldr	r5, [r5, r0]
 1447 00b4 AC46     		mov	ip, r5
 1448 00b6 1500     		movs	r5, r2
 1449 00b8 0A35     		adds	r5, r5, #10
 1450 00ba AD00     		lsls	r5, r5, #2
 1451 00bc 6746     		mov	r7, ip
 1452 00be 6F50     		str	r7, [r5, r1]
 314:main.c        ****         Poblacion_1[3][i]=Poblacion[3][indice[i]];
 1453              		.loc 1 314 0 discriminator 3
 1454 00c0 1D00     		movs	r5, r3
 1455 00c2 1435     		adds	r5, r5, #20
 1456 00c4 AD00     		lsls	r5, r5, #2
 1457 00c6 2D58     		ldr	r5, [r5, r0]
 1458 00c8 AC46     		mov	ip, r5
 1459 00ca 1500     		movs	r5, r2
 1460 00cc 1435     		adds	r5, r5, #20
 1461 00ce AD00     		lsls	r5, r5, #2
 1462 00d0 6746     		mov	r7, ip
 1463 00d2 6F50     		str	r7, [r5, r1]
 315:main.c        ****         Poblacion_1[4][i]=Poblacion[4][indice[i]];
 1464              		.loc 1 315 0 discriminator 3
 1465 00d4 1D00     		movs	r5, r3
 1466 00d6 1E35     		adds	r5, r5, #30
 1467 00d8 AD00     		lsls	r5, r5, #2
 1468 00da 2D58     		ldr	r5, [r5, r0]
 1469 00dc AC46     		mov	ip, r5
 1470 00de 1500     		movs	r5, r2
 1471 00e0 1E35     		adds	r5, r5, #30
 1472 00e2 AD00     		lsls	r5, r5, #2
 1473 00e4 6746     		mov	r7, ip
 1474 00e6 6F50     		str	r7, [r5, r1]
 316:main.c        ****         Fitness_1[i]=Fitness[indice[i]];
 1475              		.loc 1 316 0 discriminator 3
 1476 00e8 2833     		adds	r3, r3, #40
 1477 00ea 9B00     		lsls	r3, r3, #2
 1478 00ec 1858     		ldr	r0, [r3, r0]
 1479 00ee 1300     		movs	r3, r2
 1480 00f0 2833     		adds	r3, r3, #40
 1481 00f2 9B00     		lsls	r3, r3, #2
 1482 00f4 5850     		str	r0, [r3, r1]
 317:main.c        ****     }     
 1483              		.loc 1 317 0 discriminator 3
 1484 00f6 064B     		ldr	r3, .L86+4
 1485 00f8 4146     		mov	r1, r8
 1486 00fa C958     		ldr	r1, [r1, r3]
 1487 00fc 0A4B     		ldr	r3, .L86+28
 1488 00fe E150     		str	r1, [r4, r3]
 311:main.c        ****         Poblacion_1[0][i]=Poblacion[0][indice[i]];
 1489              		.loc 1 311 0 discriminator 3
 1490 0100 0132     		adds	r2, r2, #1
 1491              	.LVL163:
 1492              	.L84:
 311:main.c        ****         Poblacion_1[0][i]=Poblacion[0][indice[i]];
 1493              		.loc 1 311 0 is_stmt 0 discriminator 1
 1494 0102 B242     		cmp	r2, r6
ARM GAS  C:\Users\HENRYA~1\AppData\Local\Temp\ccNfq1WN.s 			page 39


 1495 0104 C8DB     		blt	.L85
 319:main.c        **** 
 1496              		.loc 1 319 0 is_stmt 1
 1497              		@ sp needed
 1498 0106 04BC     		pop	{r2}
 1499 0108 9046     		mov	r8, r2
 1500 010a F0BD     		pop	{r4, r5, r6, r7, pc}
 1501              	.L87:
 1502              		.align	2
 1503              	.L86:
 1504 010c 00000000 		.word	.LANCHOR0
 1505 0110 00000000 		.word	Fitness
 1506 0114 00000000 		.word	.LANCHOR1
 1507 0118 00000000 		.word	Fitness_Normalizado
 1508 011c 00000000 		.word	indice
 1509 0120 00000000 		.word	Poblacion
 1510 0124 00000000 		.word	Poblacion_1
 1511 0128 00000000 		.word	Fitness_1
 1512              		.cfi_endproc
 1513              	.LFE53:
 1514              		.size	Seleccion, .-Seleccion
 1515              		.section	.text.Saturador,"ax",%progbits
 1516              		.align	2
 1517              		.global	Saturador
 1518              		.code	16
 1519              		.thumb_func
 1520              		.type	Saturador, %function
 1521              	Saturador:
 1522              	.LFB54:
 321:main.c        ****     if(numero_comprobar>lim_sup){return lim_sup;}
 1523              		.loc 1 321 0
 1524              		.cfi_startproc
 1525              		@ args = 0, pretend = 0, frame = 0
 1526              		@ frame_needed = 0, uses_anonymous_args = 0
 1527              	.LVL164:
 1528 0000 70B5     		push	{r4, r5, r6, lr}
 1529              		.cfi_def_cfa_offset 16
 1530              		.cfi_offset 4, -16
 1531              		.cfi_offset 5, -12
 1532              		.cfi_offset 6, -8
 1533              		.cfi_offset 14, -4
 1534 0002 051C     		adds	r5, r0, #0
 1535 0004 0E1C     		adds	r6, r1, #0
 1536 0006 141C     		adds	r4, r2, #0
 322:main.c        ****     else if (numero_comprobar<lim_inf){return lim_inf;}
 1537              		.loc 1 322 0
 1538 0008 111C     		adds	r1, r2, #0
 1539              	.LVL165:
 1540 000a FFF7FEFF 		bl	__aeabi_fcmpgt
 1541              	.LVL166:
 1542 000e 0028     		cmp	r0, #0
 1543 0010 07D1     		bne	.L91
 323:main.c        ****     else{return numero_comprobar;}
 1544              		.loc 1 323 0
 1545 0012 311C     		adds	r1, r6, #0
 1546 0014 281C     		adds	r0, r5, #0
 1547 0016 FFF7FEFF 		bl	__aeabi_fcmplt
ARM GAS  C:\Users\HENRYA~1\AppData\Local\Temp\ccNfq1WN.s 			page 40


 1548              	.LVL167:
 1549 001a 0028     		cmp	r0, #0
 1550 001c 03D0     		beq	.L94
 1551 001e 301C     		adds	r0, r6, #0
 1552 0020 02E0     		b	.L89
 1553              	.L91:
 322:main.c        ****     else if (numero_comprobar<lim_inf){return lim_inf;}
 1554              		.loc 1 322 0
 1555 0022 201C     		adds	r0, r4, #0
 1556 0024 00E0     		b	.L89
 1557              	.L94:
 324:main.c        **** }
 1558              		.loc 1 324 0
 1559 0026 281C     		adds	r0, r5, #0
 1560              	.L89:
 325:main.c        **** 
 1561              		.loc 1 325 0
 1562              		@ sp needed
 1563              	.LVL168:
 1564              	.LVL169:
 1565              	.LVL170:
 1566 0028 70BD     		pop	{r4, r5, r6, pc}
 1567              		.cfi_endproc
 1568              	.LFE54:
 1569              		.size	Saturador, .-Saturador
 1570              		.global	__aeabi_dcmplt
 1571 002a C046     		.section	.text.reparacion,"ax",%progbits
 1572              		.align	2
 1573              		.global	reparacion
 1574              		.code	16
 1575              		.thumb_func
 1576              		.type	reparacion, %function
 1577              	reparacion:
 1578              	.LFB55:
 327:main.c        ****     if(randd()<0.5){
 1579              		.loc 1 327 0
 1580              		.cfi_startproc
 1581              		@ args = 0, pretend = 0, frame = 0
 1582              		@ frame_needed = 0, uses_anonymous_args = 0
 1583              	.LVL171:
 1584 0000 F8B5     		push	{r3, r4, r5, r6, r7, lr}
 1585              		.cfi_def_cfa_offset 24
 1586              		.cfi_offset 3, -24
 1587              		.cfi_offset 4, -20
 1588              		.cfi_offset 5, -16
 1589              		.cfi_offset 6, -12
 1590              		.cfi_offset 7, -8
 1591              		.cfi_offset 14, -4
 1592 0002 0400     		movs	r4, r0
 328:main.c        ****     Poblacion_1[0][Aux_ind] = Saturador(Poblacion_1[0][Aux_ind],0.0,0.2);      
 1593              		.loc 1 328 0
 1594 0004 FFF7FEFF 		bl	randd
 1595              	.LVL172:
 1596 0008 0022     		movs	r2, #0
 1597 000a 244B     		ldr	r3, .L101
 1598 000c FFF7FEFF 		bl	__aeabi_dcmplt
 1599              	.LVL173:
ARM GAS  C:\Users\HENRYA~1\AppData\Local\Temp\ccNfq1WN.s 			page 41


 1600 0010 0028     		cmp	r0, #0
 1601 0012 12D0     		beq	.L100
 329:main.c        ****     Poblacion_1[1][Aux_ind] = Saturador(Poblacion_1[1][Aux_ind],0.0,0.8);
 1602              		.loc 1 329 0
 1603 0014 0027     		movs	r7, #0
 1604 0016 224D     		ldr	r5, .L101+4
 1605 0018 A600     		lsls	r6, r4, #2
 1606 001a 224A     		ldr	r2, .L101+8
 1607 001c 391C     		adds	r1, r7, #0
 1608 001e 7059     		ldr	r0, [r6, r5]
 1609 0020 FFF7FEFF 		bl	Saturador
 1610              	.LVL174:
 1611 0024 7051     		str	r0, [r6, r5]
 330:main.c        ****     }
 1612              		.loc 1 330 0
 1613 0026 2600     		movs	r6, r4
 1614 0028 0A36     		adds	r6, r6, #10
 1615 002a B600     		lsls	r6, r6, #2
 1616 002c 1E4A     		ldr	r2, .L101+12
 1617 002e 391C     		adds	r1, r7, #0
 1618 0030 7059     		ldr	r0, [r6, r5]
 1619 0032 FFF7FEFF 		bl	Saturador
 1620              	.LVL175:
 1621 0036 7051     		str	r0, [r6, r5]
 1622 0038 11E0     		b	.L98
 1623              	.L100:
 333:main.c        ****     Poblacion_1[1][Aux_ind] = Saturador(Poblacion_1[1][Aux_ind],0.0,0.2);
 1624              		.loc 1 333 0
 1625 003a 0027     		movs	r7, #0
 1626 003c 184D     		ldr	r5, .L101+4
 1627 003e A600     		lsls	r6, r4, #2
 1628 0040 194A     		ldr	r2, .L101+12
 1629 0042 391C     		adds	r1, r7, #0
 1630 0044 7059     		ldr	r0, [r6, r5]
 1631 0046 FFF7FEFF 		bl	Saturador
 1632              	.LVL176:
 1633 004a 7051     		str	r0, [r6, r5]
 334:main.c        ****     }    
 1634              		.loc 1 334 0
 1635 004c 2600     		movs	r6, r4
 1636 004e 0A36     		adds	r6, r6, #10
 1637 0050 B600     		lsls	r6, r6, #2
 1638 0052 144A     		ldr	r2, .L101+8
 1639 0054 391C     		adds	r1, r7, #0
 1640 0056 7059     		ldr	r0, [r6, r5]
 1641 0058 FFF7FEFF 		bl	Saturador
 1642              	.LVL177:
 1643 005c 7051     		str	r0, [r6, r5]
 1644              	.L98:
 336:main.c        ****     Poblacion_1[3][Aux_ind] = Saturador(Poblacion_1[3][Aux_ind],(0.833-0.3),(0.833+0.3));
 1645              		.loc 1 336 0
 1646 005e 104F     		ldr	r7, .L101+4
 1647 0060 2500     		movs	r5, r4
 1648 0062 1435     		adds	r5, r5, #20
 1649 0064 AD00     		lsls	r5, r5, #2
 1650 0066 FE22     		movs	r2, #254
 1651 0068 9205     		lsls	r2, r2, #22
ARM GAS  C:\Users\HENRYA~1\AppData\Local\Temp\ccNfq1WN.s 			page 42


 1652 006a 1049     		ldr	r1, .L101+16
 1653 006c E859     		ldr	r0, [r5, r7]
 1654 006e FFF7FEFF 		bl	Saturador
 1655              	.LVL178:
 1656 0072 E851     		str	r0, [r5, r7]
 337:main.c        ****     Poblacion_1[4][Aux_ind] = Saturador(Poblacion_1[4][Aux_ind],(0.833-0.3),(0.833+0.3));
 1657              		.loc 1 337 0
 1658 0074 0E4E     		ldr	r6, .L101+20
 1659 0076 2300     		movs	r3, r4
 1660 0078 1E33     		adds	r3, r3, #30
 1661 007a 9D00     		lsls	r5, r3, #2
 1662 007c 321C     		adds	r2, r6, #0
 1663 007e 0D49     		ldr	r1, .L101+24
 1664 0080 E859     		ldr	r0, [r5, r7]
 1665 0082 FFF7FEFF 		bl	Saturador
 1666              	.LVL179:
 1667 0086 E851     		str	r0, [r5, r7]
 338:main.c        **** }
 1668              		.loc 1 338 0
 1669 0088 2834     		adds	r4, r4, #40
 1670              	.LVL180:
 1671 008a A400     		lsls	r4, r4, #2
 1672              	.LVL181:
 1673 008c 321C     		adds	r2, r6, #0
 1674 008e 0949     		ldr	r1, .L101+24
 1675 0090 E059     		ldr	r0, [r4, r7]
 1676 0092 FFF7FEFF 		bl	Saturador
 1677              	.LVL182:
 1678 0096 E051     		str	r0, [r4, r7]
 339:main.c        **** 
 1679              		.loc 1 339 0
 1680              		@ sp needed
 1681 0098 F8BD     		pop	{r3, r4, r5, r6, r7, pc}
 1682              	.L102:
 1683 009a C046     		.align	2
 1684              	.L101:
 1685 009c 0000E03F 		.word	1071644672
 1686 00a0 00000000 		.word	Poblacion_1
 1687 00a4 CDCC4C3E 		.word	1045220557
 1688 00a8 CDCC4C3F 		.word	1061997773
 1689 00ac 000080BF 		.word	-1082130432
 1690 00b0 2506913F 		.word	1066468901
 1691 00b4 B072083F 		.word	1057518256
 1692              		.cfi_endproc
 1693              	.LFE55:
 1694              		.size	reparacion, .-reparacion
 1695              		.global	__aeabi_d2iz
 1696              		.section	.text.Cruce,"ax",%progbits
 1697              		.align	2
 1698              		.global	Cruce
 1699              		.code	16
 1700              		.thumb_func
 1701              		.type	Cruce, %function
 1702              	Cruce:
 1703              	.LFB56:
 341:main.c        ****     int papa=(int)Individuos*randd();
 1704              		.loc 1 341 0
ARM GAS  C:\Users\HENRYA~1\AppData\Local\Temp\ccNfq1WN.s 			page 43


 1705              		.cfi_startproc
 1706              		@ args = 0, pretend = 0, frame = 24
 1707              		@ frame_needed = 0, uses_anonymous_args = 0
 1708 0000 F0B5     		push	{r4, r5, r6, r7, lr}
 1709              		.cfi_def_cfa_offset 20
 1710              		.cfi_offset 4, -20
 1711              		.cfi_offset 5, -16
 1712              		.cfi_offset 6, -12
 1713              		.cfi_offset 7, -8
 1714              		.cfi_offset 14, -4
 1715 0002 4F46     		mov	r7, r9
 1716 0004 4646     		mov	r6, r8
 1717 0006 C0B4     		push	{r6, r7}
 1718              		.cfi_def_cfa_offset 28
 1719              		.cfi_offset 8, -28
 1720              		.cfi_offset 9, -24
 1721 0008 87B0     		sub	sp, sp, #28
 1722              		.cfi_def_cfa_offset 56
 342:main.c        ****     int mama=(int)Individuos*randd();
 1723              		.loc 1 342 0
 1724 000a 394C     		ldr	r4, .L106
 1725 000c A068     		ldr	r0, [r4, #8]
 1726 000e FFF7FEFF 		bl	__aeabi_i2d
 1727              	.LVL183:
 1728 0012 0600     		movs	r6, r0
 1729 0014 0F00     		movs	r7, r1
 1730 0016 FFF7FEFF 		bl	randd
 1731              	.LVL184:
 1732 001a 0200     		movs	r2, r0
 1733 001c 0B00     		movs	r3, r1
 1734 001e 3000     		movs	r0, r6
 1735 0020 3900     		movs	r1, r7
 1736 0022 FFF7FEFF 		bl	__aeabi_dmul
 1737              	.LVL185:
 1738 0026 FFF7FEFF 		bl	__aeabi_d2iz
 1739              	.LVL186:
 1740 002a 8146     		mov	r9, r0
 1741              	.LVL187:
 343:main.c        ****     for (int i=0; i<5; i++) {
 1742              		.loc 1 343 0
 1743 002c A068     		ldr	r0, [r4, #8]
 1744              	.LVL188:
 1745 002e FFF7FEFF 		bl	__aeabi_i2d
 1746              	.LVL189:
 1747 0032 0400     		movs	r4, r0
 1748 0034 0D00     		movs	r5, r1
 1749 0036 FFF7FEFF 		bl	randd
 1750              	.LVL190:
 1751 003a 0200     		movs	r2, r0
 1752 003c 0B00     		movs	r3, r1
 1753 003e 2000     		movs	r0, r4
 1754 0040 2900     		movs	r1, r5
 1755 0042 FFF7FEFF 		bl	__aeabi_dmul
 1756              	.LVL191:
 1757 0046 FFF7FEFF 		bl	__aeabi_d2iz
 1758              	.LVL192:
 1759 004a 8046     		mov	r8, r0
ARM GAS  C:\Users\HENRYA~1\AppData\Local\Temp\ccNfq1WN.s 			page 44


 1760              	.LVL193:
 1761              	.LBB5:
 344:main.c        ****         float alpha = randd();
 1762              		.loc 1 344 0
 1763 004c 0025     		movs	r5, #0
 1764 004e 41E0     		b	.L104
 1765              	.LVL194:
 1766              	.L105:
 1767              	.LBB6:
 345:main.c        ****         float alpha_1 = randd();
 1768              		.loc 1 345 0 discriminator 3
 1769 0050 FFF7FEFF 		bl	randd
 1770              	.LVL195:
 1771 0054 FFF7FEFF 		bl	__aeabi_d2f
 1772              	.LVL196:
 1773 0058 061C     		adds	r6, r0, #0
 1774              	.LVL197:
 346:main.c        ****         float neg_alpha = 1.0 - alpha;
 1775              		.loc 1 346 0 discriminator 3
 1776 005a FFF7FEFF 		bl	randd
 1777              	.LVL198:
 1778 005e FFF7FEFF 		bl	__aeabi_d2f
 1779              	.LVL199:
 1780 0062 041C     		adds	r4, r0, #0
 1781              	.LVL200:
 347:main.c        ****         float neg_alpha_1 = 1.0 - alpha_1;
 1782              		.loc 1 347 0 discriminator 3
 1783 0064 0296     		str	r6, [sp, #8]
 1784 0066 311C     		adds	r1, r6, #0
 1785 0068 FE20     		movs	r0, #254
 1786              	.LVL201:
 1787 006a 8005     		lsls	r0, r0, #22
 1788 006c FFF7FEFF 		bl	__aeabi_fsub
 1789              	.LVL202:
 1790 0070 0490     		str	r0, [sp, #16]
 1791              	.LVL203:
 348:main.c        ****         float tx;
 1792              		.loc 1 348 0 discriminator 3
 1793 0072 0394     		str	r4, [sp, #12]
 1794 0074 211C     		adds	r1, r4, #0
 1795 0076 FE20     		movs	r0, #254
 1796              	.LVL204:
 1797 0078 8005     		lsls	r0, r0, #22
 1798 007a FFF7FEFF 		bl	__aeabi_fsub
 1799              	.LVL205:
 1800 007e 0590     		str	r0, [sp, #20]
 1801              	.LVL206:
 351:main.c        ****         ty = Poblacion_1[i][mama];
 1802              		.loc 1 351 0 discriminator 3
 1803 0080 1C4F     		ldr	r7, .L106+4
 1804 0082 AB00     		lsls	r3, r5, #2
 1805 0084 5919     		adds	r1, r3, r5
 1806 0086 4A00     		lsls	r2, r1, #1
 1807 0088 4A44     		add	r2, r2, r9
 1808 008a 9600     		lsls	r6, r2, #2
 1809              	.LVL207:
 1810 008c F259     		ldr	r2, [r6, r7]
ARM GAS  C:\Users\HENRYA~1\AppData\Local\Temp\ccNfq1WN.s 			page 45


 1811              	.LVL208:
 352:main.c        ****         Poblacion_1[i][papa] = alpha * tx + neg_alpha * ty;
 1812              		.loc 1 352 0 discriminator 3
 1813 008e 4C00     		lsls	r4, r1, #1
 1814              	.LVL209:
 1815 0090 4444     		add	r4, r4, r8
 1816 0092 A400     		lsls	r4, r4, #2
 1817 0094 E359     		ldr	r3, [r4, r7]
 1818 0096 0093     		str	r3, [sp]
 1819              	.LVL210:
 353:main.c        ****         Poblacion_1[i][mama] = alpha_1 * tx + neg_alpha_1 * ty;
 1820              		.loc 1 353 0 discriminator 3
 1821 0098 0192     		str	r2, [sp, #4]
 1822 009a 111C     		adds	r1, r2, #0
 1823 009c 0298     		ldr	r0, [sp, #8]
 1824              	.LVL211:
 1825 009e FFF7FEFF 		bl	__aeabi_fmul
 1826              	.LVL212:
 1827 00a2 0290     		str	r0, [sp, #8]
 1828              	.LVL213:
 1829 00a4 0099     		ldr	r1, [sp]
 1830 00a6 0498     		ldr	r0, [sp, #16]
 1831 00a8 FFF7FEFF 		bl	__aeabi_fmul
 1832              	.LVL214:
 1833 00ac 011C     		adds	r1, r0, #0
 1834 00ae 0298     		ldr	r0, [sp, #8]
 1835 00b0 FFF7FEFF 		bl	__aeabi_fadd
 1836              	.LVL215:
 1837 00b4 F051     		str	r0, [r6, r7]
 354:main.c        ****     } 
 1838              		.loc 1 354 0 discriminator 3
 1839 00b6 0199     		ldr	r1, [sp, #4]
 1840 00b8 0398     		ldr	r0, [sp, #12]
 1841 00ba FFF7FEFF 		bl	__aeabi_fmul
 1842              	.LVL216:
 1843 00be 061C     		adds	r6, r0, #0
 1844 00c0 0099     		ldr	r1, [sp]
 1845 00c2 0598     		ldr	r0, [sp, #20]
 1846 00c4 FFF7FEFF 		bl	__aeabi_fmul
 1847              	.LVL217:
 1848 00c8 011C     		adds	r1, r0, #0
 1849 00ca 301C     		adds	r0, r6, #0
 1850 00cc FFF7FEFF 		bl	__aeabi_fadd
 1851              	.LVL218:
 1852 00d0 E051     		str	r0, [r4, r7]
 1853              	.LBE6:
 344:main.c        ****         float alpha = randd();
 1854              		.loc 1 344 0 discriminator 3
 1855 00d2 0135     		adds	r5, r5, #1
 1856              	.LVL219:
 1857              	.L104:
 344:main.c        ****         float alpha = randd();
 1858              		.loc 1 344 0 is_stmt 0 discriminator 1
 1859 00d4 042D     		cmp	r5, #4
 1860 00d6 BBDD     		ble	.L105
 1861              	.LBE5:
 356:main.c        ****     reparacion(mama);
ARM GAS  C:\Users\HENRYA~1\AppData\Local\Temp\ccNfq1WN.s 			page 46


 1862              		.loc 1 356 0 is_stmt 1
 1863 00d8 4846     		mov	r0, r9
 1864 00da FFF7FEFF 		bl	reparacion
 1865              	.LVL220:
 357:main.c        **** }
 1866              		.loc 1 357 0
 1867 00de 4046     		mov	r0, r8
 1868 00e0 FFF7FEFF 		bl	reparacion
 1869              	.LVL221:
 358:main.c        **** 
 1870              		.loc 1 358 0
 1871 00e4 07B0     		add	sp, sp, #28
 1872              		@ sp needed
 1873              	.LVL222:
 1874              	.LVL223:
 1875              	.LVL224:
 1876 00e6 0CBC     		pop	{r2, r3}
 1877 00e8 9046     		mov	r8, r2
 1878 00ea 9946     		mov	r9, r3
 1879 00ec F0BD     		pop	{r4, r5, r6, r7, pc}
 1880              	.L107:
 1881 00ee C046     		.align	2
 1882              	.L106:
 1883 00f0 00000000 		.word	.LANCHOR1
 1884 00f4 00000000 		.word	Poblacion_1
 1885              		.cfi_endproc
 1886              	.LFE56:
 1887              		.size	Cruce, .-Cruce
 1888              		.section	.text.Mutacion,"ax",%progbits
 1889              		.align	2
 1890              		.global	Mutacion
 1891              		.code	16
 1892              		.thumb_func
 1893              		.type	Mutacion, %function
 1894              	Mutacion:
 1895              	.LFB57:
 360:main.c        ****     int Selector=(int)Individuos*randd();
 1896              		.loc 1 360 0
 1897              		.cfi_startproc
 1898              		@ args = 0, pretend = 0, frame = 8
 1899              		@ frame_needed = 0, uses_anonymous_args = 0
 1900 0000 F0B5     		push	{r4, r5, r6, r7, lr}
 1901              		.cfi_def_cfa_offset 20
 1902              		.cfi_offset 4, -20
 1903              		.cfi_offset 5, -16
 1904              		.cfi_offset 6, -12
 1905              		.cfi_offset 7, -8
 1906              		.cfi_offset 14, -4
 1907 0002 5746     		mov	r7, r10
 1908 0004 80B4     		push	{r7}
 1909              		.cfi_def_cfa_offset 24
 1910              		.cfi_offset 10, -24
 1911 0006 82B0     		sub	sp, sp, #8
 1912              		.cfi_def_cfa_offset 32
 361:main.c        ****     int componente=(int)randd()*4;
 1913              		.loc 1 361 0
 1914 0008 554B     		ldr	r3, .L114
ARM GAS  C:\Users\HENRYA~1\AppData\Local\Temp\ccNfq1WN.s 			page 47


 1915 000a 9868     		ldr	r0, [r3, #8]
 1916 000c FFF7FEFF 		bl	__aeabi_i2d
 1917              	.LVL225:
 1918 0010 0400     		movs	r4, r0
 1919 0012 0D00     		movs	r5, r1
 1920 0014 FFF7FEFF 		bl	randd
 1921              	.LVL226:
 1922 0018 0200     		movs	r2, r0
 1923 001a 0B00     		movs	r3, r1
 1924 001c 2000     		movs	r0, r4
 1925 001e 2900     		movs	r1, r5
 1926 0020 FFF7FEFF 		bl	__aeabi_dmul
 1927              	.LVL227:
 1928 0024 FFF7FEFF 		bl	__aeabi_d2iz
 1929              	.LVL228:
 1930 0028 0400     		movs	r4, r0
 1931              	.LVL229:
 362:main.c        ****     if(componente==0){Poblacion_1[componente][Selector]=Poblacion_1[componente][Selector]+random_ga
 1932              		.loc 1 362 0
 1933 002a FFF7FEFF 		bl	randd
 1934              	.LVL230:
 1935 002e FFF7FEFF 		bl	__aeabi_d2iz
 1936              	.LVL231:
 1937 0032 8500     		lsls	r5, r0, #2
 1938              	.LVL232:
 363:main.c        ****     else if(componente==1){Poblacion_1[componente][Selector]=Poblacion_1[componente][Selector]+rand
 1939              		.loc 1 363 0
 1940 0034 1AD1     		bne	.L109
 363:main.c        ****     else if(componente==1){Poblacion_1[componente][Selector]=Poblacion_1[componente][Selector]+rand
 1941              		.loc 1 363 0 is_stmt 0 discriminator 1
 1942 0036 4B4E     		ldr	r6, .L114+4
 1943 0038 AF00     		lsls	r7, r5, #2
 1944 003a 7A19     		adds	r2, r7, r5
 1945 003c 5300     		lsls	r3, r2, #1
 1946 003e 1B19     		adds	r3, r3, r4
 1947 0040 9B00     		lsls	r3, r3, #2
 1948 0042 9B59     		ldr	r3, [r3, r6]
 1949 0044 9A46     		mov	r10, r3
 1950 0046 FFF7FEFF 		bl	random_gauss
 1951              	.LVL233:
 1952 004a 0090     		str	r0, [sp]
 1953 004c 0191     		str	r1, [sp, #4]
 1954 004e 5046     		mov	r0, r10
 1955 0050 FFF7FEFF 		bl	__aeabi_f2d
 1956              	.LVL234:
 1957 0054 009A     		ldr	r2, [sp]
 1958 0056 019B     		ldr	r3, [sp, #4]
 1959 0058 FFF7FEFF 		bl	__aeabi_dadd
 1960              	.LVL235:
 1961 005c 7D19     		adds	r5, r7, r5
 1962              	.LVL236:
 1963 005e 6B00     		lsls	r3, r5, #1
 1964 0060 1B19     		adds	r3, r3, r4
 1965 0062 9D00     		lsls	r5, r3, #2
 1966 0064 FFF7FEFF 		bl	__aeabi_d2f
 1967              	.LVL237:
 1968 0068 A851     		str	r0, [r5, r6]
ARM GAS  C:\Users\HENRYA~1\AppData\Local\Temp\ccNfq1WN.s 			page 48


 1969 006a 72E0     		b	.L110
 1970              	.LVL238:
 1971              	.L109:
 364:main.c        ****     else if(componente==2){Poblacion_1[componente][Selector]=Poblacion_1[componente][Selector]+rand
 1972              		.loc 1 364 0 is_stmt 1
 1973 006c 012D     		cmp	r5, #1
 1974 006e 1AD1     		bne	.L111
 364:main.c        ****     else if(componente==2){Poblacion_1[componente][Selector]=Poblacion_1[componente][Selector]+rand
 1975              		.loc 1 364 0 is_stmt 0 discriminator 1
 1976 0070 3C4E     		ldr	r6, .L114+4
 1977 0072 AF00     		lsls	r7, r5, #2
 1978 0074 7A19     		adds	r2, r7, r5
 1979 0076 5300     		lsls	r3, r2, #1
 1980 0078 1B19     		adds	r3, r3, r4
 1981 007a 9B00     		lsls	r3, r3, #2
 1982 007c 9B59     		ldr	r3, [r3, r6]
 1983 007e 9A46     		mov	r10, r3
 1984 0080 FFF7FEFF 		bl	random_gauss
 1985              	.LVL239:
 1986 0084 0090     		str	r0, [sp]
 1987 0086 0191     		str	r1, [sp, #4]
 1988 0088 5046     		mov	r0, r10
 1989 008a FFF7FEFF 		bl	__aeabi_f2d
 1990              	.LVL240:
 1991 008e 009A     		ldr	r2, [sp]
 1992 0090 019B     		ldr	r3, [sp, #4]
 1993 0092 FFF7FEFF 		bl	__aeabi_dadd
 1994              	.LVL241:
 1995 0096 7D19     		adds	r5, r7, r5
 1996              	.LVL242:
 1997 0098 6B00     		lsls	r3, r5, #1
 1998 009a 1B19     		adds	r3, r3, r4
 1999 009c 9D00     		lsls	r5, r3, #2
 2000 009e FFF7FEFF 		bl	__aeabi_d2f
 2001              	.LVL243:
 2002 00a2 A851     		str	r0, [r5, r6]
 2003 00a4 55E0     		b	.L110
 2004              	.LVL244:
 2005              	.L111:
 365:main.c        ****     else if(componente==3){Poblacion_1[componente][Selector]=Poblacion_1[componente][Selector]+rand
 2006              		.loc 1 365 0 is_stmt 1
 2007 00a6 022D     		cmp	r5, #2
 2008 00a8 1AD1     		bne	.L112
 365:main.c        ****     else if(componente==3){Poblacion_1[componente][Selector]=Poblacion_1[componente][Selector]+rand
 2009              		.loc 1 365 0 is_stmt 0 discriminator 1
 2010 00aa 2E4E     		ldr	r6, .L114+4
 2011 00ac AF00     		lsls	r7, r5, #2
 2012 00ae 7A19     		adds	r2, r7, r5
 2013 00b0 5300     		lsls	r3, r2, #1
 2014 00b2 1B19     		adds	r3, r3, r4
 2015 00b4 9B00     		lsls	r3, r3, #2
 2016 00b6 9B59     		ldr	r3, [r3, r6]
 2017 00b8 9A46     		mov	r10, r3
 2018 00ba FFF7FEFF 		bl	random_gauss
 2019              	.LVL245:
 2020 00be 0090     		str	r0, [sp]
 2021 00c0 0191     		str	r1, [sp, #4]
ARM GAS  C:\Users\HENRYA~1\AppData\Local\Temp\ccNfq1WN.s 			page 49


 2022 00c2 5046     		mov	r0, r10
 2023 00c4 FFF7FEFF 		bl	__aeabi_f2d
 2024              	.LVL246:
 2025 00c8 009A     		ldr	r2, [sp]
 2026 00ca 019B     		ldr	r3, [sp, #4]
 2027 00cc FFF7FEFF 		bl	__aeabi_dadd
 2028              	.LVL247:
 2029 00d0 7D19     		adds	r5, r7, r5
 2030              	.LVL248:
 2031 00d2 6B00     		lsls	r3, r5, #1
 2032 00d4 1B19     		adds	r3, r3, r4
 2033 00d6 9D00     		lsls	r5, r3, #2
 2034 00d8 FFF7FEFF 		bl	__aeabi_d2f
 2035              	.LVL249:
 2036 00dc A851     		str	r0, [r5, r6]
 2037 00de 38E0     		b	.L110
 2038              	.LVL250:
 2039              	.L112:
 366:main.c        ****     else if(componente==4){Poblacion_1[componente][Selector]=Poblacion_1[componente][Selector]+rand
 2040              		.loc 1 366 0 is_stmt 1
 2041 00e0 032D     		cmp	r5, #3
 2042 00e2 1AD1     		bne	.L113
 366:main.c        ****     else if(componente==4){Poblacion_1[componente][Selector]=Poblacion_1[componente][Selector]+rand
 2043              		.loc 1 366 0 is_stmt 0 discriminator 1
 2044 00e4 1F4E     		ldr	r6, .L114+4
 2045 00e6 AF00     		lsls	r7, r5, #2
 2046 00e8 7A19     		adds	r2, r7, r5
 2047 00ea 5300     		lsls	r3, r2, #1
 2048 00ec 1B19     		adds	r3, r3, r4
 2049 00ee 9B00     		lsls	r3, r3, #2
 2050 00f0 9B59     		ldr	r3, [r3, r6]
 2051 00f2 9A46     		mov	r10, r3
 2052 00f4 FFF7FEFF 		bl	random_gauss
 2053              	.LVL251:
 2054 00f8 0090     		str	r0, [sp]
 2055 00fa 0191     		str	r1, [sp, #4]
 2056 00fc 5046     		mov	r0, r10
 2057 00fe FFF7FEFF 		bl	__aeabi_f2d
 2058              	.LVL252:
 2059 0102 009A     		ldr	r2, [sp]
 2060 0104 019B     		ldr	r3, [sp, #4]
 2061 0106 FFF7FEFF 		bl	__aeabi_dadd
 2062              	.LVL253:
 2063 010a 7D19     		adds	r5, r7, r5
 2064              	.LVL254:
 2065 010c 6B00     		lsls	r3, r5, #1
 2066 010e 1B19     		adds	r3, r3, r4
 2067 0110 9D00     		lsls	r5, r3, #2
 2068 0112 FFF7FEFF 		bl	__aeabi_d2f
 2069              	.LVL255:
 2070 0116 A851     		str	r0, [r5, r6]
 2071 0118 1BE0     		b	.L110
 2072              	.LVL256:
 2073              	.L113:
 367:main.c        ****     reparacion(Selector);
 2074              		.loc 1 367 0 is_stmt 1
 2075 011a 042D     		cmp	r5, #4
ARM GAS  C:\Users\HENRYA~1\AppData\Local\Temp\ccNfq1WN.s 			page 50


 2076 011c 19D1     		bne	.L110
 367:main.c        ****     reparacion(Selector);
 2077              		.loc 1 367 0 is_stmt 0 discriminator 1
 2078 011e 114E     		ldr	r6, .L114+4
 2079 0120 AF00     		lsls	r7, r5, #2
 2080 0122 7A19     		adds	r2, r7, r5
 2081 0124 5300     		lsls	r3, r2, #1
 2082 0126 1B19     		adds	r3, r3, r4
 2083 0128 9B00     		lsls	r3, r3, #2
 2084 012a 9B59     		ldr	r3, [r3, r6]
 2085 012c 9A46     		mov	r10, r3
 2086 012e FFF7FEFF 		bl	random_gauss
 2087              	.LVL257:
 2088 0132 0090     		str	r0, [sp]
 2089 0134 0191     		str	r1, [sp, #4]
 2090 0136 5046     		mov	r0, r10
 2091 0138 FFF7FEFF 		bl	__aeabi_f2d
 2092              	.LVL258:
 2093 013c 009A     		ldr	r2, [sp]
 2094 013e 019B     		ldr	r3, [sp, #4]
 2095 0140 FFF7FEFF 		bl	__aeabi_dadd
 2096              	.LVL259:
 2097 0144 7D19     		adds	r5, r7, r5
 2098              	.LVL260:
 2099 0146 6B00     		lsls	r3, r5, #1
 2100 0148 1B19     		adds	r3, r3, r4
 2101 014a 9D00     		lsls	r5, r3, #2
 2102 014c FFF7FEFF 		bl	__aeabi_d2f
 2103              	.LVL261:
 2104 0150 A851     		str	r0, [r5, r6]
 2105              	.L110:
 368:main.c        **** }
 2106              		.loc 1 368 0 is_stmt 1
 2107 0152 2000     		movs	r0, r4
 2108 0154 FFF7FEFF 		bl	reparacion
 2109              	.LVL262:
 369:main.c        **** 
 2110              		.loc 1 369 0
 2111 0158 02B0     		add	sp, sp, #8
 2112              		@ sp needed
 2113              	.LVL263:
 2114 015a 04BC     		pop	{r2}
 2115 015c 9246     		mov	r10, r2
 2116 015e F0BD     		pop	{r4, r5, r6, r7, pc}
 2117              	.L115:
 2118              		.align	2
 2119              	.L114:
 2120 0160 00000000 		.word	.LANCHOR1
 2121 0164 00000000 		.word	Poblacion_1
 2122              		.cfi_endproc
 2123              	.LFE57:
 2124              		.size	Mutacion, .-Mutacion
 2125              		.section	.text.Reemplazo_Generacional,"ax",%progbits
 2126              		.align	2
 2127              		.global	Reemplazo_Generacional
 2128              		.code	16
 2129              		.thumb_func
ARM GAS  C:\Users\HENRYA~1\AppData\Local\Temp\ccNfq1WN.s 			page 51


 2130              		.type	Reemplazo_Generacional, %function
 2131              	Reemplazo_Generacional:
 2132              	.LFB58:
 371:main.c        ****     int i=0;
 2133              		.loc 1 371 0
 2134              		.cfi_startproc
 2135              		@ args = 0, pretend = 0, frame = 0
 2136              		@ frame_needed = 0, uses_anonymous_args = 0
 2137 0000 10B5     		push	{r4, lr}
 2138              		.cfi_def_cfa_offset 8
 2139              		.cfi_offset 4, -8
 2140              		.cfi_offset 14, -4
 2141              	.LVL264:
 373:main.c        ****         if(Fitness_1[i]<Fitness[i]){
 2142              		.loc 1 373 0
 2143 0002 0024     		movs	r4, #0
 2144 0004 22E0     		b	.L117
 2145              	.LVL265:
 2146              	.L120:
 374:main.c        ****             Poblacion[0][i]=Poblacion_1[0][i];
 2147              		.loc 1 374 0
 2148 0006 A300     		lsls	r3, r4, #2
 2149 0008 134A     		ldr	r2, .L122
 2150 000a 9858     		ldr	r0, [r3, r2]
 2151 000c 134A     		ldr	r2, .L122+4
 2152 000e 9958     		ldr	r1, [r3, r2]
 2153 0010 FFF7FEFF 		bl	__aeabi_fcmplt
 2154              	.LVL266:
 2155 0014 0028     		cmp	r0, #0
 2156 0016 18D0     		beq	.L118
 375:main.c        ****             Poblacion[1][i]=Poblacion_1[1][i];
 2157              		.loc 1 375 0
 2158 0018 114A     		ldr	r2, .L122+8
 2159 001a A100     		lsls	r1, r4, #2
 2160 001c 114B     		ldr	r3, .L122+12
 2161 001e 8858     		ldr	r0, [r1, r2]
 2162 0020 C850     		str	r0, [r1, r3]
 376:main.c        ****             Poblacion[2][i]=Poblacion_1[2][i];
 2163              		.loc 1 376 0
 2164 0022 2100     		movs	r1, r4
 2165 0024 0A31     		adds	r1, r1, #10
 2166 0026 8900     		lsls	r1, r1, #2
 2167 0028 8858     		ldr	r0, [r1, r2]
 2168 002a C850     		str	r0, [r1, r3]
 377:main.c        ****             Poblacion[3][i]=Poblacion_1[3][i];
 2169              		.loc 1 377 0
 2170 002c 2100     		movs	r1, r4
 2171 002e 1431     		adds	r1, r1, #20
 2172 0030 8900     		lsls	r1, r1, #2
 2173 0032 8858     		ldr	r0, [r1, r2]
 2174 0034 C850     		str	r0, [r1, r3]
 378:main.c        ****             Poblacion[4][i]=Poblacion_1[4][i];
 2175              		.loc 1 378 0
 2176 0036 2100     		movs	r1, r4
 2177 0038 1E31     		adds	r1, r1, #30
 2178 003a 8900     		lsls	r1, r1, #2
 2179 003c 8858     		ldr	r0, [r1, r2]
ARM GAS  C:\Users\HENRYA~1\AppData\Local\Temp\ccNfq1WN.s 			page 52


 2180 003e C850     		str	r0, [r1, r3]
 379:main.c        ****             }
 2181              		.loc 1 379 0
 2182 0040 2100     		movs	r1, r4
 2183 0042 2831     		adds	r1, r1, #40
 2184 0044 8900     		lsls	r1, r1, #2
 2185 0046 8A58     		ldr	r2, [r1, r2]
 2186 0048 CA50     		str	r2, [r1, r3]
 2187              	.L118:
 373:main.c        ****         if(Fitness_1[i]<Fitness[i]){
 2188              		.loc 1 373 0 discriminator 2
 2189 004a 0134     		adds	r4, r4, #1
 2190              	.LVL267:
 2191              	.L117:
 373:main.c        ****         if(Fitness_1[i]<Fitness[i]){
 2192              		.loc 1 373 0 is_stmt 0 discriminator 1
 2193 004c 064B     		ldr	r3, .L122+16
 2194 004e 9B68     		ldr	r3, [r3, #8]
 2195 0050 9C42     		cmp	r4, r3
 2196 0052 D8DB     		blt	.L120
 382:main.c        **** 
 2197              		.loc 1 382 0 is_stmt 1
 2198              		@ sp needed
 2199              	.LVL268:
 2200 0054 10BD     		pop	{r4, pc}
 2201              	.L123:
 2202 0056 C046     		.align	2
 2203              	.L122:
 2204 0058 00000000 		.word	Fitness_1
 2205 005c 00000000 		.word	Fitness
 2206 0060 00000000 		.word	Poblacion_1
 2207 0064 00000000 		.word	Poblacion
 2208 0068 00000000 		.word	.LANCHOR1
 2209              		.cfi_endproc
 2210              	.LFE58:
 2211              		.size	Reemplazo_Generacional, .-Reemplazo_Generacional
 2212              		.section	.text.A_G,"ax",%progbits
 2213              		.align	2
 2214              		.global	A_G
 2215              		.code	16
 2216              		.thumb_func
 2217              		.type	A_G, %function
 2218              	A_G:
 2219              	.LFB59:
 384:main.c        ****     float Prob_c=0.5;
 2220              		.loc 1 384 0
 2221              		.cfi_startproc
 2222              		@ args = 0, pretend = 0, frame = 0
 2223              		@ frame_needed = 0, uses_anonymous_args = 0
 2224 0000 70B5     		push	{r4, r5, r6, lr}
 2225              		.cfi_def_cfa_offset 16
 2226              		.cfi_offset 4, -16
 2227              		.cfi_offset 5, -12
 2228              		.cfi_offset 6, -8
 2229              		.cfi_offset 14, -4
 2230              	.LVL269:
 388:main.c        ****         case 0:
ARM GAS  C:\Users\HENRYA~1\AppData\Local\Temp\ccNfq1WN.s 			page 53


 2231              		.loc 1 388 0
 2232 0002 3D4B     		ldr	r3, .L140
 2233 0004 1B6A     		ldr	r3, [r3, #32]
 2234 0006 012B     		cmp	r3, #1
 2235 0008 16D0     		beq	.L126
 2236 000a 02DC     		bgt	.L127
 2237 000c 002B     		cmp	r3, #0
 2238 000e 05D0     		beq	.L128
 2239 0010 70E0     		b	.L124
 2240              	.L127:
 2241 0012 022B     		cmp	r3, #2
 2242 0014 1BD0     		beq	.L129
 2243 0016 032B     		cmp	r3, #3
 2244 0018 35D0     		beq	.L130
 2245 001a 6BE0     		b	.L124
 2246              	.L128:
 390:main.c        ****             Reemplazo_Generacional();
 2247              		.loc 1 390 0
 2248 001c 374C     		ldr	r4, .L140+4
 2249 001e A068     		ldr	r0, [r4, #8]
 2250 0020 FFF7FEFF 		bl	Normalizar
 2251              	.LVL270:
 391:main.c        ****             Max_Conta=5;
 2252              		.loc 1 391 0
 2253 0024 FFF7FEFF 		bl	Reemplazo_Generacional
 2254              	.LVL271:
 392:main.c        ****             puntero=0;
 2255              		.loc 1 392 0
 2256 0028 0523     		movs	r3, #5
 2257 002a E360     		str	r3, [r4, #12]
 393:main.c        ****             flag=1;        
 2258              		.loc 1 393 0
 2259 002c 324B     		ldr	r3, .L140
 2260 002e 0022     		movs	r2, #0
 2261 0030 5A62     		str	r2, [r3, #36]
 394:main.c        ****             break;
 2262              		.loc 1 394 0
 2263 0032 0132     		adds	r2, r2, #1
 2264 0034 1A62     		str	r2, [r3, #32]
 395:main.c        ****         case 1:
 2265              		.loc 1 395 0
 2266 0036 5DE0     		b	.L124
 2267              	.L126:
 397:main.c        ****             Seleccion();
 2268              		.loc 1 397 0
 2269 0038 FFF7FEFF 		bl	Espere
 2270              	.LVL272:
 398:main.c        ****             Max_Conta=5;
 2271              		.loc 1 398 0
 2272 003c FFF7FEFF 		bl	Seleccion
 2273              	.LVL273:
 399:main.c        ****             flag=2;
 2274              		.loc 1 399 0
 2275 0040 0522     		movs	r2, #5
 2276 0042 2E4B     		ldr	r3, .L140+4
 2277 0044 DA60     		str	r2, [r3, #12]
 400:main.c        ****             break;
ARM GAS  C:\Users\HENRYA~1\AppData\Local\Temp\ccNfq1WN.s 			page 54


 2278              		.loc 1 400 0
 2279 0046 033A     		subs	r2, r2, #3
 2280 0048 2B4B     		ldr	r3, .L140
 2281 004a 1A62     		str	r2, [r3, #32]
 401:main.c        ****         case 2:
 2282              		.loc 1 401 0
 2283 004c 52E0     		b	.L124
 2284              	.L129:
 403:main.c        ****             if(Prob_c<Umbral_Cruce){
 2285              		.loc 1 403 0
 2286 004e FFF7FEFF 		bl	randd
 2287              	.LVL274:
 2288 0052 FFF7FEFF 		bl	__aeabi_d2f
 2289              	.LVL275:
 404:main.c        ****                 Cruce();
 2290              		.loc 1 404 0
 2291 0056 294B     		ldr	r3, .L140+4
 2292 0058 1969     		ldr	r1, [r3, #16]
 2293 005a FFF7FEFF 		bl	__aeabi_fcmplt
 2294              	.LVL276:
 2295 005e 0028     		cmp	r0, #0
 2296 0060 01D0     		beq	.L131
 405:main.c        ****             }
 2297              		.loc 1 405 0
 2298 0062 FFF7FEFF 		bl	Cruce
 2299              	.LVL277:
 2300              	.L131:
 407:main.c        ****             if(Prob_m<Umbral_Mutacion){
 2301              		.loc 1 407 0
 2302 0066 FFF7FEFF 		bl	randd
 2303              	.LVL278:
 2304 006a FFF7FEFF 		bl	__aeabi_d2f
 2305              	.LVL279:
 408:main.c        ****                 Mutacion();
 2306              		.loc 1 408 0
 2307 006e 234B     		ldr	r3, .L140+4
 2308 0070 5969     		ldr	r1, [r3, #20]
 2309 0072 FFF7FEFF 		bl	__aeabi_fcmplt
 2310              	.LVL280:
 2311 0076 0028     		cmp	r0, #0
 2312 0078 01D0     		beq	.L133
 409:main.c        ****             }
 2313              		.loc 1 409 0
 2314 007a FFF7FEFF 		bl	Mutacion
 2315              	.LVL281:
 2316              	.L133:
 411:main.c        ****             break;
 2317              		.loc 1 411 0
 2318 007e 0322     		movs	r2, #3
 2319 0080 1D4B     		ldr	r3, .L140
 2320 0082 1A62     		str	r2, [r3, #32]
 412:main.c        ****         case 3:
 2321              		.loc 1 412 0
 2322 0084 36E0     		b	.L124
 2323              	.LVL282:
 2324              	.L130:
 414:main.c        ****                 case 0:
ARM GAS  C:\Users\HENRYA~1\AppData\Local\Temp\ccNfq1WN.s 			page 55


 2325              		.loc 1 414 0
 2326 0086 1C4B     		ldr	r3, .L140
 2327 0088 9B6A     		ldr	r3, [r3, #40]
 2328 008a 012B     		cmp	r3, #1
 2329 008c 0DD0     		beq	.L135
 2330 008e 022B     		cmp	r3, #2
 2331 0090 14D0     		beq	.L136
 2332 0092 002B     		cmp	r3, #0
 2333 0094 2ED1     		bne	.L124
 416:main.c        ****                     Evaluar_Fitness(puntero);
 2334              		.loc 1 416 0
 2335 0096 184B     		ldr	r3, .L140
 2336 0098 0122     		movs	r2, #1
 2337 009a 9A62     		str	r2, [r3, #40]
 417:main.c        ****                     Max_Conta=50;                    
 2338              		.loc 1 417 0
 2339 009c 586A     		ldr	r0, [r3, #36]
 2340 009e FFF7FEFF 		bl	Evaluar_Fitness
 2341              	.LVL283:
 418:main.c        ****                 break;
 2342              		.loc 1 418 0
 2343 00a2 3222     		movs	r2, #50
 2344 00a4 154B     		ldr	r3, .L140+4
 2345 00a6 DA60     		str	r2, [r3, #12]
 419:main.c        ****                 case 1:
 2346              		.loc 1 419 0
 2347 00a8 24E0     		b	.L124
 2348              	.L135:
 421:main.c        ****                     Espere();
 2349              		.loc 1 421 0
 2350 00aa 0222     		movs	r2, #2
 2351 00ac 124B     		ldr	r3, .L140
 2352 00ae 9A62     		str	r2, [r3, #40]
 422:main.c        ****                     Max_Conta=20;
 2353              		.loc 1 422 0
 2354 00b0 FFF7FEFF 		bl	Espere
 2355              	.LVL284:
 423:main.c        ****                 break;
 2356              		.loc 1 423 0
 2357 00b4 1422     		movs	r2, #20
 2358 00b6 114B     		ldr	r3, .L140+4
 2359 00b8 DA60     		str	r2, [r3, #12]
 424:main.c        ****                 case 2:
 2360              		.loc 1 424 0
 2361 00ba 1BE0     		b	.L124
 2362              	.L136:
 426:main.c        ****                     Fitness_1[puntero]=dist;
 2363              		.loc 1 426 0
 2364 00bc 0E4C     		ldr	r4, .L140
 2365 00be 0023     		movs	r3, #0
 2366 00c0 A362     		str	r3, [r4, #40]
 427:main.c        ****                     //dist=dist*100;
 2367              		.loc 1 427 0
 2368 00c2 2068     		ldr	r0, [r4]
 2369 00c4 636A     		ldr	r3, [r4, #36]
 2370 00c6 9B00     		lsls	r3, r3, #2
 2371 00c8 0D4A     		ldr	r2, .L140+8
ARM GAS  C:\Users\HENRYA~1\AppData\Local\Temp\ccNfq1WN.s 			page 56


 2372 00ca 9850     		str	r0, [r3, r2]
 429:main.c        ****                     dato_enviado_2[1]=(int)dist;
 2373              		.loc 1 429 0
 2374 00cc 0D4D     		ldr	r5, .L140+12
 2375 00ce E36A     		ldr	r3, [r4, #44]
 2376 00d0 2B70     		strb	r3, [r5]
 430:main.c        ****                     CAN_SendMsg3();                    
 2377              		.loc 1 430 0
 2378 00d2 FFF7FEFF 		bl	__aeabi_f2iz
 2379              	.LVL285:
 2380 00d6 6870     		strb	r0, [r5, #1]
 431:main.c        ****                     puntero++;
 2381              		.loc 1 431 0
 2382 00d8 FFF7FEFF 		bl	CAN_SendMsg3
 2383              	.LVL286:
 432:main.c        ****                     Max_Conta=10;
 2384              		.loc 1 432 0
 2385 00dc 636A     		ldr	r3, [r4, #36]
 2386 00de 0133     		adds	r3, r3, #1
 2387 00e0 6362     		str	r3, [r4, #36]
 433:main.c        ****                     if(puntero==Individuos){flag=0;}
 2388              		.loc 1 433 0
 2389 00e2 064A     		ldr	r2, .L140+4
 2390 00e4 0A21     		movs	r1, #10
 2391 00e6 D160     		str	r1, [r2, #12]
 434:main.c        ****                 break;
 2392              		.loc 1 434 0
 2393 00e8 9268     		ldr	r2, [r2, #8]
 2394 00ea 9342     		cmp	r3, r2
 2395 00ec 02D1     		bne	.L124
 434:main.c        ****                 break;
 2396              		.loc 1 434 0 is_stmt 0 discriminator 1
 2397 00ee 0022     		movs	r2, #0
 2398 00f0 014B     		ldr	r3, .L140
 2399 00f2 1A62     		str	r2, [r3, #32]
 2400              	.LVL287:
 2401              	.L124:
 439:main.c        **** 
 2402              		.loc 1 439 0 is_stmt 1
 2403              		@ sp needed
 2404 00f4 70BD     		pop	{r4, r5, r6, pc}
 2405              	.L141:
 2406 00f6 C046     		.align	2
 2407              	.L140:
 2408 00f8 00000000 		.word	.LANCHOR0
 2409 00fc 00000000 		.word	.LANCHOR1
 2410 0100 00000000 		.word	Fitness_1
 2411 0104 00000000 		.word	dato_enviado_2
 2412              		.cfi_endproc
 2413              	.LFE59:
 2414              		.size	A_G, .-A_G
 2415              		.section	.text.Ejecutar,"ax",%progbits
 2416              		.align	2
 2417              		.global	Ejecutar
 2418              		.code	16
 2419              		.thumb_func
 2420              		.type	Ejecutar, %function
ARM GAS  C:\Users\HENRYA~1\AppData\Local\Temp\ccNfq1WN.s 			page 57


 2421              	Ejecutar:
 2422              	.LFB60:
 441:main.c        ****     conta++;
 2423              		.loc 1 441 0
 2424              		.cfi_startproc
 2425              		@ args = 0, pretend = 0, frame = 0
 2426              		@ frame_needed = 0, uses_anonymous_args = 0
 2427 0000 10B5     		push	{r4, lr}
 2428              		.cfi_def_cfa_offset 8
 2429              		.cfi_offset 4, -8
 2430              		.cfi_offset 14, -4
 442:main.c        ****     if(conta==Max_Conta){     
 2431              		.loc 1 442 0
 2432 0002 0B4A     		ldr	r2, .L145
 2433 0004 138E     		ldrh	r3, [r2, #48]
 2434 0006 0133     		adds	r3, r3, #1
 2435 0008 1BB2     		sxth	r3, r3
 2436 000a 1386     		strh	r3, [r2, #48]
 443:main.c        ****         LED_1_Write(1);    
 2437              		.loc 1 443 0
 2438 000c 094A     		ldr	r2, .L145+4
 2439 000e D268     		ldr	r2, [r2, #12]
 2440 0010 9342     		cmp	r3, r2
 2441 0012 08D1     		bne	.L143
 444:main.c        ****         A_G();         
 2442              		.loc 1 444 0
 2443 0014 0120     		movs	r0, #1
 2444 0016 FFF7FEFF 		bl	LED_1_Write
 2445              	.LVL288:
 445:main.c        ****         conta=0;
 2446              		.loc 1 445 0
 2447 001a FFF7FEFF 		bl	A_G
 2448              	.LVL289:
 446:main.c        ****     }
 2449              		.loc 1 446 0
 2450 001e 0022     		movs	r2, #0
 2451 0020 034B     		ldr	r3, .L145
 2452 0022 1A86     		strh	r2, [r3, #48]
 2453 0024 02E0     		b	.L142
 2454              	.L143:
 449:main.c        ****     }
 2455              		.loc 1 449 0
 2456 0026 0020     		movs	r0, #0
 2457 0028 FFF7FEFF 		bl	LED_1_Write
 2458              	.LVL290:
 2459              	.L142:
 451:main.c        **** //Interrupt's
 2460              		.loc 1 451 0
 2461              		@ sp needed
 2462 002c 10BD     		pop	{r4, pc}
 2463              	.L146:
 2464 002e C046     		.align	2
 2465              	.L145:
 2466 0030 00000000 		.word	.LANCHOR0
 2467 0034 00000000 		.word	.LANCHOR1
 2468              		.cfi_endproc
 2469              	.LFE60:
ARM GAS  C:\Users\HENRYA~1\AppData\Local\Temp\ccNfq1WN.s 			page 58


 2470              		.size	Ejecutar, .-Ejecutar
 2471              		.section	.text.Temporizador,"ax",%progbits
 2472              		.align	2
 2473              		.global	Temporizador
 2474              		.code	16
 2475              		.thumb_func
 2476              		.type	Temporizador, %function
 2477              	Temporizador:
 2478              	.LFB61:
 453:main.c        ****     Ejecutar();  
 2479              		.loc 1 453 0
 2480              		.cfi_startproc
 2481              		@ args = 0, pretend = 0, frame = 0
 2482              		@ frame_needed = 0, uses_anonymous_args = 0
 2483 0000 10B5     		push	{r4, lr}
 2484              		.cfi_def_cfa_offset 8
 2485              		.cfi_offset 4, -8
 2486              		.cfi_offset 14, -4
 454:main.c        **** }
 2487              		.loc 1 454 0
 2488 0002 FFF7FEFF 		bl	Ejecutar
 2489              	.LVL291:
 455:main.c        **** 
 2490              		.loc 1 455 0
 2491              		@ sp needed
 2492 0006 10BD     		pop	{r4, pc}
 2493              		.cfi_endproc
 2494              	.LFE61:
 2495              		.size	Temporizador, .-Temporizador
 2496              		.section	.text.main,"ax",%progbits
 2497              		.align	2
 2498              		.global	main
 2499              		.code	16
 2500              		.thumb_func
 2501              		.type	main, %function
 2502              	main:
 2503              	.LFB63:
 461:main.c        **** 
 462:main.c        **** int main()
 463:main.c        **** {
 2504              		.loc 1 463 0
 2505              		.cfi_startproc
 2506              		@ args = 0, pretend = 0, frame = 0
 2507              		@ frame_needed = 0, uses_anonymous_args = 0
 2508 0000 70B5     		push	{r4, r5, r6, lr}
 2509              		.cfi_def_cfa_offset 16
 2510              		.cfi_offset 4, -16
 2511              		.cfi_offset 5, -12
 2512              		.cfi_offset 6, -8
 2513              		.cfi_offset 14, -4
 2514              	.LVL292:
 464:main.c        ****     int i=0;
 465:main.c        ****     for(i=0;i<Individuos;i++){
 2515              		.loc 1 465 0
 2516 0002 0024     		movs	r4, #0
 2517 0004 58E0     		b	.L149
 2518              	.LVL293:
ARM GAS  C:\Users\HENRYA~1\AppData\Local\Temp\ccNfq1WN.s 			page 59


 2519              	.L153:
 466:main.c        ****         Fitness[i]=randd();
 2520              		.loc 1 466 0
 2521 0006 FFF7FEFF 		bl	randd
 2522              	.LVL294:
 2523 000a A500     		lsls	r5, r4, #2
 2524 000c FFF7FEFF 		bl	__aeabi_d2f
 2525              	.LVL295:
 2526 0010 674B     		ldr	r3, .L164
 2527 0012 E850     		str	r0, [r5, r3]
 467:main.c        ****         if(randd()<0.5){
 2528              		.loc 1 467 0
 2529 0014 FFF7FEFF 		bl	randd
 2530              	.LVL296:
 2531 0018 0022     		movs	r2, #0
 2532 001a 664B     		ldr	r3, .L164+4
 2533 001c FFF7FEFF 		bl	__aeabi_dcmplt
 2534              	.LVL297:
 2535 0020 0028     		cmp	r0, #0
 2536 0022 27D0     		beq	.L162
 468:main.c        ****             Poblacion[0][i]=random_amplitud_1();
 2537              		.loc 1 468 0
 2538 0024 FFF7FEFF 		bl	random_amplitud_1
 2539              	.LVL298:
 2540 0028 634D     		ldr	r5, .L164+8
 2541 002a A600     		lsls	r6, r4, #2
 2542 002c FFF7FEFF 		bl	__aeabi_d2f
 2543              	.LVL299:
 2544 0030 7051     		str	r0, [r6, r5]
 469:main.c        ****             Poblacion[1][i]=random_amplitud_2();
 2545              		.loc 1 469 0
 2546 0032 FFF7FEFF 		bl	random_amplitud_2
 2547              	.LVL300:
 2548 0036 2600     		movs	r6, r4
 2549 0038 0A36     		adds	r6, r6, #10
 2550 003a B600     		lsls	r6, r6, #2
 2551 003c FFF7FEFF 		bl	__aeabi_d2f
 2552              	.LVL301:
 2553 0040 7051     		str	r0, [r6, r5]
 470:main.c        ****             Poblacion[2][i]=random_Fase();
 2554              		.loc 1 470 0
 2555 0042 FFF7FEFF 		bl	random_Fase
 2556              	.LVL302:
 2557 0046 2600     		movs	r6, r4
 2558 0048 1436     		adds	r6, r6, #20
 2559 004a B600     		lsls	r6, r6, #2
 2560 004c FFF7FEFF 		bl	__aeabi_d2f
 2561              	.LVL303:
 2562 0050 7051     		str	r0, [r6, r5]
 471:main.c        ****             Poblacion[3][i]=random_Offset();
 2563              		.loc 1 471 0
 2564 0052 FFF7FEFF 		bl	random_Offset
 2565              	.LVL304:
 2566 0056 2600     		movs	r6, r4
 2567 0058 1E36     		adds	r6, r6, #30
 2568 005a B600     		lsls	r6, r6, #2
 2569 005c FFF7FEFF 		bl	__aeabi_d2f
ARM GAS  C:\Users\HENRYA~1\AppData\Local\Temp\ccNfq1WN.s 			page 60


 2570              	.LVL305:
 2571 0060 7051     		str	r0, [r6, r5]
 472:main.c        ****             Poblacion[4][i]=random_Offset(); 
 2572              		.loc 1 472 0
 2573 0062 FFF7FEFF 		bl	random_Offset
 2574              	.LVL306:
 2575 0066 2600     		movs	r6, r4
 2576 0068 2836     		adds	r6, r6, #40
 2577 006a B600     		lsls	r6, r6, #2
 2578 006c FFF7FEFF 		bl	__aeabi_d2f
 2579              	.LVL307:
 2580 0070 7051     		str	r0, [r6, r5]
 2581 0072 20E0     		b	.L152
 2582              	.L162:
 473:main.c        ****         }
 474:main.c        ****         else{
 475:main.c        ****             Poblacion[0][i]=random_amplitud_1();
 2583              		.loc 1 475 0
 2584 0074 FFF7FEFF 		bl	random_amplitud_1
 2585              	.LVL308:
 2586 0078 4F4D     		ldr	r5, .L164+8
 2587 007a A600     		lsls	r6, r4, #2
 2588 007c FFF7FEFF 		bl	__aeabi_d2f
 2589              	.LVL309:
 2590 0080 7051     		str	r0, [r6, r5]
 476:main.c        ****             Poblacion[1][i]=0.0;
 2591              		.loc 1 476 0
 2592 0082 2300     		movs	r3, r4
 2593 0084 0A33     		adds	r3, r3, #10
 2594 0086 9B00     		lsls	r3, r3, #2
 2595 0088 0022     		movs	r2, #0
 2596 008a 5A51     		str	r2, [r3, r5]
 477:main.c        ****             Poblacion[2][i]=random_Fase();
 2597              		.loc 1 477 0
 2598 008c FFF7FEFF 		bl	random_Fase
 2599              	.LVL310:
 2600 0090 2600     		movs	r6, r4
 2601 0092 1436     		adds	r6, r6, #20
 2602 0094 B600     		lsls	r6, r6, #2
 2603 0096 FFF7FEFF 		bl	__aeabi_d2f
 2604              	.LVL311:
 2605 009a 7051     		str	r0, [r6, r5]
 478:main.c        ****             Poblacion[3][i]=0.833;
 2606              		.loc 1 478 0
 2607 009c 2300     		movs	r3, r4
 2608 009e 1E33     		adds	r3, r3, #30
 2609 00a0 9B00     		lsls	r3, r3, #2
 2610 00a2 464A     		ldr	r2, .L164+12
 2611 00a4 5A51     		str	r2, [r3, r5]
 479:main.c        ****             Poblacion[4][i]=random_Offset(); 
 2612              		.loc 1 479 0
 2613 00a6 FFF7FEFF 		bl	random_Offset
 2614              	.LVL312:
 2615 00aa 2600     		movs	r6, r4
 2616 00ac 2836     		adds	r6, r6, #40
 2617 00ae B600     		lsls	r6, r6, #2
 2618 00b0 FFF7FEFF 		bl	__aeabi_d2f
ARM GAS  C:\Users\HENRYA~1\AppData\Local\Temp\ccNfq1WN.s 			page 61


 2619              	.LVL313:
 2620 00b4 7051     		str	r0, [r6, r5]
 2621              	.L152:
 465:main.c        ****         Fitness[i]=randd();
 2622              		.loc 1 465 0 discriminator 2
 2623 00b6 0134     		adds	r4, r4, #1
 2624              	.LVL314:
 2625              	.L149:
 465:main.c        ****         Fitness[i]=randd();
 2626              		.loc 1 465 0 is_stmt 0 discriminator 1
 2627 00b8 414B     		ldr	r3, .L164+16
 2628 00ba 9B68     		ldr	r3, [r3, #8]
 2629 00bc 9C42     		cmp	r4, r3
 2630 00be A2DB     		blt	.L153
 2631 00c0 0024     		movs	r4, #0
 2632              	.LVL315:
 2633 00c2 58E0     		b	.L154
 2634              	.LVL316:
 2635              	.L158:
 480:main.c        ****         } 
 481:main.c        ****     }
 482:main.c        ****     for(i=0;i<Individuos;i++){
 483:main.c        ****         Fitness_1[i]=randd();
 2636              		.loc 1 483 0 is_stmt 1
 2637 00c4 FFF7FEFF 		bl	randd
 2638              	.LVL317:
 2639 00c8 A500     		lsls	r5, r4, #2
 2640 00ca FFF7FEFF 		bl	__aeabi_d2f
 2641              	.LVL318:
 2642 00ce 3D4B     		ldr	r3, .L164+20
 2643 00d0 E850     		str	r0, [r5, r3]
 484:main.c        ****         if(randd()<0.5){
 2644              		.loc 1 484 0
 2645 00d2 FFF7FEFF 		bl	randd
 2646              	.LVL319:
 2647 00d6 0022     		movs	r2, #0
 2648 00d8 364B     		ldr	r3, .L164+4
 2649 00da FFF7FEFF 		bl	__aeabi_dcmplt
 2650              	.LVL320:
 2651 00de 0028     		cmp	r0, #0
 2652 00e0 27D0     		beq	.L163
 485:main.c        ****             Poblacion_1[0][i]=random_amplitud_1();
 2653              		.loc 1 485 0
 2654 00e2 FFF7FEFF 		bl	random_amplitud_1
 2655              	.LVL321:
 2656 00e6 384D     		ldr	r5, .L164+24
 2657 00e8 A600     		lsls	r6, r4, #2
 2658 00ea FFF7FEFF 		bl	__aeabi_d2f
 2659              	.LVL322:
 2660 00ee 7051     		str	r0, [r6, r5]
 486:main.c        ****             Poblacion_1[1][i]=random_amplitud_2();
 2661              		.loc 1 486 0
 2662 00f0 FFF7FEFF 		bl	random_amplitud_2
 2663              	.LVL323:
 2664 00f4 2600     		movs	r6, r4
 2665 00f6 0A36     		adds	r6, r6, #10
 2666 00f8 B600     		lsls	r6, r6, #2
ARM GAS  C:\Users\HENRYA~1\AppData\Local\Temp\ccNfq1WN.s 			page 62


 2667 00fa FFF7FEFF 		bl	__aeabi_d2f
 2668              	.LVL324:
 2669 00fe 7051     		str	r0, [r6, r5]
 487:main.c        ****             Poblacion_1[2][i]=random_Fase();
 2670              		.loc 1 487 0
 2671 0100 FFF7FEFF 		bl	random_Fase
 2672              	.LVL325:
 2673 0104 2600     		movs	r6, r4
 2674 0106 1436     		adds	r6, r6, #20
 2675 0108 B600     		lsls	r6, r6, #2
 2676 010a FFF7FEFF 		bl	__aeabi_d2f
 2677              	.LVL326:
 2678 010e 7051     		str	r0, [r6, r5]
 488:main.c        ****             Poblacion_1[3][i]=random_Offset();
 2679              		.loc 1 488 0
 2680 0110 FFF7FEFF 		bl	random_Offset
 2681              	.LVL327:
 2682 0114 2600     		movs	r6, r4
 2683 0116 1E36     		adds	r6, r6, #30
 2684 0118 B600     		lsls	r6, r6, #2
 2685 011a FFF7FEFF 		bl	__aeabi_d2f
 2686              	.LVL328:
 2687 011e 7051     		str	r0, [r6, r5]
 489:main.c        ****             Poblacion_1[4][i]=random_Offset(); 
 2688              		.loc 1 489 0
 2689 0120 FFF7FEFF 		bl	random_Offset
 2690              	.LVL329:
 2691 0124 2600     		movs	r6, r4
 2692 0126 2836     		adds	r6, r6, #40
 2693 0128 B600     		lsls	r6, r6, #2
 2694 012a FFF7FEFF 		bl	__aeabi_d2f
 2695              	.LVL330:
 2696 012e 7051     		str	r0, [r6, r5]
 2697 0130 20E0     		b	.L157
 2698              	.L163:
 490:main.c        ****         }
 491:main.c        ****         else{
 492:main.c        ****             Poblacion_1[0][i]=random_amplitud_1();
 2699              		.loc 1 492 0
 2700 0132 FFF7FEFF 		bl	random_amplitud_1
 2701              	.LVL331:
 2702 0136 244D     		ldr	r5, .L164+24
 2703 0138 A600     		lsls	r6, r4, #2
 2704 013a FFF7FEFF 		bl	__aeabi_d2f
 2705              	.LVL332:
 2706 013e 7051     		str	r0, [r6, r5]
 493:main.c        ****             Poblacion_1[1][i]=0.0;
 2707              		.loc 1 493 0
 2708 0140 2300     		movs	r3, r4
 2709 0142 0A33     		adds	r3, r3, #10
 2710 0144 9B00     		lsls	r3, r3, #2
 2711 0146 0022     		movs	r2, #0
 2712 0148 5A51     		str	r2, [r3, r5]
 494:main.c        ****             Poblacion_1[2][i]=random_Fase();
 2713              		.loc 1 494 0
 2714 014a FFF7FEFF 		bl	random_Fase
 2715              	.LVL333:
ARM GAS  C:\Users\HENRYA~1\AppData\Local\Temp\ccNfq1WN.s 			page 63


 2716 014e 2600     		movs	r6, r4
 2717 0150 1436     		adds	r6, r6, #20
 2718 0152 B600     		lsls	r6, r6, #2
 2719 0154 FFF7FEFF 		bl	__aeabi_d2f
 2720              	.LVL334:
 2721 0158 7051     		str	r0, [r6, r5]
 495:main.c        ****             Poblacion_1[3][i]=0.833;
 2722              		.loc 1 495 0
 2723 015a 2300     		movs	r3, r4
 2724 015c 1E33     		adds	r3, r3, #30
 2725 015e 9B00     		lsls	r3, r3, #2
 2726 0160 164A     		ldr	r2, .L164+12
 2727 0162 5A51     		str	r2, [r3, r5]
 496:main.c        ****             Poblacion_1[4][i]=random_Offset(); 
 2728              		.loc 1 496 0
 2729 0164 FFF7FEFF 		bl	random_Offset
 2730              	.LVL335:
 2731 0168 2600     		movs	r6, r4
 2732 016a 2836     		adds	r6, r6, #40
 2733 016c B600     		lsls	r6, r6, #2
 2734 016e FFF7FEFF 		bl	__aeabi_d2f
 2735              	.LVL336:
 2736 0172 7051     		str	r0, [r6, r5]
 2737              	.L157:
 482:main.c        ****         Fitness_1[i]=randd();
 2738              		.loc 1 482 0 discriminator 2
 2739 0174 0134     		adds	r4, r4, #1
 2740              	.LVL337:
 2741              	.L154:
 482:main.c        ****         Fitness_1[i]=randd();
 2742              		.loc 1 482 0 is_stmt 0 discriminator 1
 2743 0176 124B     		ldr	r3, .L164+16
 2744 0178 9B68     		ldr	r3, [r3, #8]
 2745 017a 9C42     		cmp	r4, r3
 2746 017c A2DB     		blt	.L158
 497:main.c        ****         }
 498:main.c        ****     }
 499:main.c        ****     Max_Conta=150;    
 2747              		.loc 1 499 0 is_stmt 1
 2748 017e 9622     		movs	r2, #150
 2749 0180 0F4B     		ldr	r3, .L164+16
 2750 0182 DA60     		str	r2, [r3, #12]
 500:main.c        ****     //Init LED's
 501:main.c        ****     CAN_Start(); ///  start CAN
 2751              		.loc 1 501 0
 2752 0184 FFF7FEFF 		bl	CAN_Start
 2753              	.LVL338:
 502:main.c        ****     Timer_1_Start();
 2754              		.loc 1 502 0
 2755 0188 FFF7FEFF 		bl	Timer_1_Start
 2756              	.LVL339:
 503:main.c        ****     Timer_Start();
 2757              		.loc 1 503 0
 2758 018c FFF7FEFF 		bl	Timer_Start
 2759              	.LVL340:
 504:main.c        ****     SENSOR_U_Start();
 2760              		.loc 1 504 0
ARM GAS  C:\Users\HENRYA~1\AppData\Local\Temp\ccNfq1WN.s 			page 64


 2761 0190 FFF7FEFF 		bl	SENSOR_U_Start
 2762              	.LVL341:
 505:main.c        ****     CAN_isr_StartEx(interrutcan);
 2763              		.loc 1 505 0
 2764 0194 0D48     		ldr	r0, .L164+28
 2765 0196 FFF7FEFF 		bl	CAN_isr_StartEx
 2766              	.LVL342:
 506:main.c        ****     CAN_GlobalIntEnable();
 2767              		.loc 1 506 0
 2768 019a FFF7FEFF 		bl	CAN_GlobalIntEnable
 2769              	.LVL343:
 507:main.c        ****     Int_Serial_StartEx(Serial_Interrupt);
 2770              		.loc 1 507 0
 2771 019e 0C48     		ldr	r0, .L164+32
 2772 01a0 FFF7FEFF 		bl	Int_Serial_StartEx
 2773              	.LVL344:
 508:main.c        ****     Timer_StartEx(Temporizador);
 2774              		.loc 1 508 0
 2775 01a4 0B48     		ldr	r0, .L164+36
 2776 01a6 FFF7FEFF 		bl	Timer_StartEx
 2777              	.LVL345:
 509:main.c        ****     CyGlobalIntEnable;
 2778              		.loc 1 509 0
 2779              		.syntax divided
 2780              	@ 509 "main.c" 1
 2781 01aa 62B6     		CPSIE   i
 2782              	@ 0 "" 2
 2783              		.thumb
 2784              		.syntax unified
 2785              	.L159:
 2786 01ac FEE7     		b	.L159
 2787              	.L165:
 2788 01ae C046     		.align	2
 2789              	.L164:
 2790 01b0 00000000 		.word	Fitness
 2791 01b4 0000E03F 		.word	1071644672
 2792 01b8 00000000 		.word	Poblacion
 2793 01bc 7D3F553F 		.word	1062551421
 2794 01c0 00000000 		.word	.LANCHOR1
 2795 01c4 00000000 		.word	Fitness_1
 2796 01c8 00000000 		.word	Poblacion_1
 2797 01cc 00000000 		.word	interrutcan
 2798 01d0 00000000 		.word	Serial_Interrupt
 2799 01d4 00000000 		.word	Temporizador
 2800              		.cfi_endproc
 2801              	.LFE63:
 2802              		.size	main, .-main
 2803              		.global	bolita
 2804              		.global	Acu
 2805              		.comm	indice,40,4
 2806              		.global	puntero
 2807              		.global	conmutador
 2808              		.global	Umbral_Mutacion
 2809              		.global	Umbral_Cruce
 2810              		.global	Columna
 2811              		.global	Fila
 2812              		.comm	Fitness_Normalizado,40,4
ARM GAS  C:\Users\HENRYA~1\AppData\Local\Temp\ccNfq1WN.s 			page 65


 2813              		.comm	Fitness_1,40,4
 2814              		.comm	Fitness,40,4
 2815              		.comm	Poblacion_1,200,4
 2816              		.comm	Poblacion,200,4
 2817              		.global	Individuos
 2818              		.global	individuo
 2819              		.global	move_s
 2820              		.global	punto_b
 2821              		.global	punto_a
 2822              		.global	L_anterior
 2823              		.global	L_actual
 2824              		.global	dist
 2825              		.global	flag
 2826              		.global	Peso_Sensor
 2827              		.global	off_aux_H_2
 2828              		.global	ampli_aux_H_2
 2829              		.global	pha_aux_2
 2830              		.global	off_aux_V_2
 2831              		.global	ampli_aux_V_2
 2832              		.global	pha_aux
 2833              		.global	off_aux_H
 2834              		.global	off_aux_V
 2835              		.global	ampli_aux_H
 2836              		.global	ampli_aux_V
 2837              		.global	Fase
 2838              		.global	Offset_V
 2839              		.global	Offset_H
 2840              		.global	Amplitud_V
 2841              		.global	Amplitud_H
 2842              		.global	Max_Conta
 2843              		.global	Cantidad_Sensores
 2844              		.global	cantidadM
 2845              		.global	conta
 2846              		.comm	dato_enviado_2,8,4
 2847              		.comm	dato_enviado_1,8,4
 2848              		.comm	dato_enviado,8,4
 2849              		.comm	mailbox2,8,4
 2850              		.comm	mailbox1,8,4
 2851              		.comm	mailbox0,8,4
 2852              		.data
 2853              		.align	2
 2854              		.set	.LANCHOR1,. + 0
 2855              		.type	Offset_H, %object
 2856              		.size	Offset_H, 4
 2857              	Offset_H:
 2858 0000 7D3F553F 		.word	1062551421
 2859              		.type	Offset_V, %object
 2860              		.size	Offset_V, 4
 2861              	Offset_V:
 2862 0004 7D3F553F 		.word	1062551421
 2863              		.type	Individuos, %object
 2864              		.size	Individuos, 4
 2865              	Individuos:
 2866 0008 0A000000 		.word	10
 2867              		.type	Max_Conta, %object
 2868              		.size	Max_Conta, 4
 2869              	Max_Conta:
ARM GAS  C:\Users\HENRYA~1\AppData\Local\Temp\ccNfq1WN.s 			page 66


 2870 000c 96000000 		.word	150
 2871              		.type	Umbral_Cruce, %object
 2872              		.size	Umbral_Cruce, 4
 2873              	Umbral_Cruce:
 2874 0010 3333333F 		.word	1060320051
 2875              		.type	Umbral_Mutacion, %object
 2876              		.size	Umbral_Mutacion, 4
 2877              	Umbral_Mutacion:
 2878 0014 9A99993E 		.word	1050253722
 2879              		.type	off_aux_H_2, %object
 2880              		.size	off_aux_H_2, 4
 2881              	off_aux_H_2:
 2882 0018 7D3F553F 		.word	1062551421
 2883              		.type	off_aux_V_2, %object
 2884              		.size	off_aux_V_2, 4
 2885              	off_aux_V_2:
 2886 001c 7D3F553F 		.word	1062551421
 2887              		.type	off_aux_H, %object
 2888              		.size	off_aux_H, 4
 2889              	off_aux_H:
 2890 0020 7D3F553F 		.word	1062551421
 2891              		.type	off_aux_V, %object
 2892              		.size	off_aux_V, 4
 2893              	off_aux_V:
 2894 0024 7D3F553F 		.word	1062551421
 2895              		.bss
 2896              		.align	2
 2897              		.set	.LANCHOR0,. + 0
 2898              		.type	dist, %object
 2899              		.size	dist, 4
 2900              	dist:
 2901 0000 00000000 		.space	4
 2902              		.type	Peso_Sensor, %object
 2903              		.size	Peso_Sensor, 4
 2904              	Peso_Sensor:
 2905 0004 00000000 		.space	4
 2906              		.type	cantidadM, %object
 2907              		.size	cantidadM, 4
 2908              	cantidadM:
 2909 0008 00000000 		.space	4
 2910              		.type	Fase, %object
 2911              		.size	Fase, 4
 2912              	Fase:
 2913 000c 00000000 		.space	4
 2914              		.type	Amplitud_H, %object
 2915              		.size	Amplitud_H, 4
 2916              	Amplitud_H:
 2917 0010 00000000 		.space	4
 2918              		.type	Amplitud_V, %object
 2919              		.size	Amplitud_V, 4
 2920              	Amplitud_V:
 2921 0014 00000000 		.space	4
 2922              		.type	Acu, %object
 2923              		.size	Acu, 4
 2924              	Acu:
 2925 0018 00000000 		.space	4
 2926              		.type	bolita, %object
ARM GAS  C:\Users\HENRYA~1\AppData\Local\Temp\ccNfq1WN.s 			page 67


 2927              		.size	bolita, 4
 2928              	bolita:
 2929 001c 00000000 		.space	4
 2930              		.type	flag, %object
 2931              		.size	flag, 4
 2932              	flag:
 2933 0020 00000000 		.space	4
 2934              		.type	puntero, %object
 2935              		.size	puntero, 4
 2936              	puntero:
 2937 0024 00000000 		.space	4
 2938              		.type	conmutador, %object
 2939              		.size	conmutador, 4
 2940              	conmutador:
 2941 0028 00000000 		.space	4
 2942              		.type	individuo, %object
 2943              		.size	individuo, 4
 2944              	individuo:
 2945 002c 00000000 		.space	4
 2946              		.type	conta, %object
 2947              		.size	conta, 2
 2948              	conta:
 2949 0030 0000     		.space	2
 2950 0032 0000     		.space	2
 2951              		.type	Columna, %object
 2952              		.size	Columna, 4
 2953              	Columna:
 2954 0034 00000000 		.space	4
 2955              		.type	Fila, %object
 2956              		.size	Fila, 4
 2957              	Fila:
 2958 0038 00000000 		.space	4
 2959              		.type	move_s, %object
 2960              		.size	move_s, 4
 2961              	move_s:
 2962 003c 00000000 		.space	4
 2963              		.type	punto_b, %object
 2964              		.size	punto_b, 4
 2965              	punto_b:
 2966 0040 00000000 		.space	4
 2967              		.type	punto_a, %object
 2968              		.size	punto_a, 4
 2969              	punto_a:
 2970 0044 00000000 		.space	4
 2971              		.type	L_anterior, %object
 2972              		.size	L_anterior, 4
 2973              	L_anterior:
 2974 0048 00000000 		.space	4
 2975              		.type	L_actual, %object
 2976              		.size	L_actual, 4
 2977              	L_actual:
 2978 004c 00000000 		.space	4
 2979              		.type	ampli_aux_H_2, %object
 2980              		.size	ampli_aux_H_2, 4
 2981              	ampli_aux_H_2:
 2982 0050 00000000 		.space	4
 2983              		.type	pha_aux_2, %object
ARM GAS  C:\Users\HENRYA~1\AppData\Local\Temp\ccNfq1WN.s 			page 68


 2984              		.size	pha_aux_2, 4
 2985              	pha_aux_2:
 2986 0054 00000000 		.space	4
 2987              		.type	ampli_aux_V_2, %object
 2988              		.size	ampli_aux_V_2, 4
 2989              	ampli_aux_V_2:
 2990 0058 00000000 		.space	4
 2991              		.type	pha_aux, %object
 2992              		.size	pha_aux, 4
 2993              	pha_aux:
 2994 005c 00000000 		.space	4
 2995              		.type	ampli_aux_H, %object
 2996              		.size	ampli_aux_H, 4
 2997              	ampli_aux_H:
 2998 0060 00000000 		.space	4
 2999              		.type	ampli_aux_V, %object
 3000              		.size	ampli_aux_V, 4
 3001              	ampli_aux_V:
 3002 0064 00000000 		.space	4
 3003              		.type	Cantidad_Sensores, %object
 3004              		.size	Cantidad_Sensores, 4
 3005              	Cantidad_Sensores:
 3006 0068 00000000 		.space	4
 3007              		.text
 3008              	.Letext0:
 3009              		.file 2 "Generated_Source\\PSoC4/cytypes.h"
 3010              		.file 3 "Generated_Source\\PSoC4/SENSOR_U.h"
 3011              		.file 4 "c:\\program files (x86)\\cypress\\psoc creator\\4.1\\psoc creator\\import\\gnu\\arm\\5.4.
 3012              		.file 5 "Generated_Source\\PSoC4/CAN.h"
 3013              		.file 6 "Generated_Source\\PSoC4/CyLib.h"
 3014              		.file 7 "Generated_Source\\PSoC4/LED_1.h"
 3015              		.file 8 "Generated_Source\\PSoC4/Timer_1.h"
 3016              		.file 9 "Generated_Source\\PSoC4/Timer.h"
 3017              		.file 10 "Generated_Source\\PSoC4/CAN_isr.h"
 3018              		.file 11 "Generated_Source\\PSoC4/Int_Serial.h"