ARM GAS  C:\Users\HENRYA~1\AppData\Local\Temp\ccNfq1WN.s 			page 1


   1              		.syntax unified
   2              		.cpu cortex-m0
   3              		.fpu softvfp
   4              		.eabi_attribute 20, 1
   5              		.eabi_attribute 21, 1
   6              		.eabi_attribute 23, 3
   7              		.eabi_attribute 24, 1
   8              		.eabi_attribute 25, 1
   9              		.eabi_attribute 26, 1
  10              		.eabi_attribute 30, 1
  11              		.eabi_attribute 34, 0
  12              		.eabi_attribute 18, 4
  13              		.thumb
  14              		.syntax unified
  15              		.file	"main.c"
  16              		.text
  17              	.Ltext0:
  18              		.cfi_sections	.debug_frame
  19              		.global	__aeabi_i2d
  20              		.global	__aeabi_dmul
  21              		.global	__aeabi_d2f
  22              		.global	__aeabi_fadd
  23              		.section	.text.Serial_Interrupt,"ax",%progbits
  24              		.align	2
  25              		.global	Serial_Interrupt
  26              		.code	16
  27              		.thumb_func
  28              		.type	Serial_Interrupt, %function
  29              	Serial_Interrupt:
  30              	.LFB62:
  31              		.file 1 "main.c"
   1:main.c        **** #include <project.h>
   2:main.c        **** #include <stdio.h>
   3:main.c        **** #include <stdlib.h>
   4:main.c        **** #include <math.h>
   5:main.c        **** #include <protocolo can.h>
   6:main.c        **** //Import Libraries
   7:main.c        **** //Global Variables
   8:main.c        **** uint8 mailbox0[8];
   9:main.c        **** uint8 mailbox1[8];
  10:main.c        **** uint8 mailbox2[8];
  11:main.c        **** uint8 dato_enviado[8];
  12:main.c        **** uint8 dato_enviado_1[8];
  13:main.c        **** uint8 dato_enviado_2[8];
  14:main.c        **** int16 conta=0;
  15:main.c        **** int cantidadM=0;
  16:main.c        **** int Cantidad_Sensores=0;
  17:main.c        **** //Variables AE
  18:main.c        **** int Max_Conta=150;
  19:main.c        **** float Amplitud_H=0.0;
  20:main.c        **** float Amplitud_V=0.0;
  21:main.c        **** float Offset_H=0.833;
  22:main.c        **** float Offset_V=0.833;
  23:main.c        **** float Fase=0.0;
  24:main.c        **** float ampli_aux_V=0.0;
  25:main.c        **** float ampli_aux_H=0.0;
  26:main.c        **** float off_aux_V=0.833;
ARM GAS  C:\Users\HENRYA~1\AppData\Local\Temp\ccNfq1WN.s 			page 2


  27:main.c        **** float off_aux_H=0.833;
  28:main.c        **** float pha_aux=0.0;
  29:main.c        **** float ampli_aux_V_2=0.0;
  30:main.c        **** float off_aux_V_2=0.833;
  31:main.c        **** float pha_aux_2=0.0;
  32:main.c        **** float ampli_aux_H_2=0.0;
  33:main.c        **** float off_aux_H_2=0.833;
  34:main.c        **** float Peso_Sensor=0.0;
  35:main.c        **** int flag=0;
  36:main.c        **** float dist=0.0;
  37:main.c        **** float L_actual=0.0;
  38:main.c        **** float L_anterior=0.0;
  39:main.c        **** int punto_a=0;
  40:main.c        **** int punto_b=0;
  41:main.c        **** int move_s=0;
  42:main.c        **** int individuo=0;
  43:main.c        **** 
  44:main.c        **** //Crear Array con tamaño de la población 
  45:main.c        **** int Individuos=10;
  46:main.c        **** float Poblacion[5][10];
  47:main.c        **** float Poblacion_1[5][10];
  48:main.c        **** float Fitness[10];
  49:main.c        **** float Fitness_1[10];
  50:main.c        **** float Fitness_Normalizado[10];
  51:main.c        **** int Fila=0;
  52:main.c        **** int Columna=0;
  53:main.c        **** float Umbral_Cruce=0.7;
  54:main.c        **** float Umbral_Mutacion=0.3;
  55:main.c        **** int conmutador=0;
  56:main.c        **** int puntero=0;
  57:main.c        **** int indice[10];
  58:main.c        **** float Acu=0.0;
  59:main.c        **** float bolita=0.0;
  60:main.c        **** 
  61:main.c        **** double randd() {
  62:main.c        ****   return (double)rand()/((double)RAND_MAX + 1);
  63:main.c        **** }
  64:main.c        **** 
  65:main.c        **** double random_gauss(){
  66:main.c        ****     return randd()*0.2;
  67:main.c        **** }
  68:main.c        **** 
  69:main.c        **** double random_amplitud_1(){
  70:main.c        ****     float r=0.0;
  71:main.c        ****     r=randd();
  72:main.c        ****     return r;
  73:main.c        **** }
  74:main.c        **** 
  75:main.c        **** double random_amplitud_2(){
  76:main.c        ****     float r=0.0;
  77:main.c        ****     r=randd();
  78:main.c        ****     r=r*0.2;
  79:main.c        ****     return r;
  80:main.c        **** }
  81:main.c        **** 
  82:main.c        **** double random_Fase(){
  83:main.c        ****     float r=0.0;
ARM GAS  C:\Users\HENRYA~1\AppData\Local\Temp\ccNfq1WN.s 			page 3


  84:main.c        ****     r=-2*randd();
  85:main.c        ****     r=r+1;
  86:main.c        ****     return r;
  87:main.c        **** }
  88:main.c        **** 
  89:main.c        **** double random_Offset(){
  90:main.c        ****     float r=0.0;
  91:main.c        ****     r=randd();
  92:main.c        ****     //r=r*-0.01;
  93:main.c        ****     //r=r+0.02;
  94:main.c        ****     r=r*0.4;
  95:main.c        ****     r=r-0.2;
  96:main.c        ****     r=0.833+r;
  97:main.c        ****     return r;
  98:main.c        **** }
  99:main.c        **** void movimiento(unsigned int dirr,int mov){
 100:main.c        ****     char byteh,bytel;
 101:main.c        ****     byteh= mov >> 8;
 102:main.c        ****     bytel=mov;
 103:main.c        ****     dato_enviado[0]=VER ;//verificacion
 104:main.c        ****     dato_enviado[1]=dirr ;//dir
 105:main.c        ****     dato_enviado[2]=ESCRITURA ;//operacion
 106:main.c        ****     dato_enviado[3]=MOTOR;//lugar
 107:main.c        ****     dato_enviado[4]= byteh ;  //dato
 108:main.c        ****     dato_enviado[5]= bytel ;  //dato
 109:main.c        ****     CAN_SendMsg0(); 
 110:main.c        ****     CyDelay(25);    
 111:main.c        **** }
 112:main.c        **** 
 113:main.c        **** void Send_Angle(int datas,int Conta3){ 
 114:main.c        ****     dato_enviado[0]=VER2;//verificacion
 115:main.c        ****     dato_enviado[1]=Conta3;//dir
 116:main.c        ****     dato_enviado[2]=Conta3;//dir
 117:main.c        ****     dato_enviado[3]=ANGLE;
 118:main.c        ****     dato_enviado[4]=0;//lugar
 119:main.c        ****     dato_enviado[5]=0;  //dato... en este caso direcion para asignar
 120:main.c        ****     dato_enviado[6]=datas;
 121:main.c        ****     dato_enviado[7]=Conta3;
 122:main.c        ****     CAN_SendMsg0(); 
 123:main.c        ****     CyDelay(50);
 124:main.c        **** }
 125:main.c        **** 
 126:main.c        **** void Enviar_Parametros(float Amplitud,float Phase,float Offset,int Orientacion){
 127:main.c        ****     //Convertir el Valor a entero para ser enviado
 128:main.c        ****     int Amp_env=(int)fabs(Amplitud*10000);
 129:main.c        ****     int Phase_env=(int)fabs(Phase*10000);
 130:main.c        ****     int Offset_env=(int)fabs(Offset*10000);
 131:main.c        ****     //Enviar datos
 132:main.c        ****     dato_enviado_1[0]=VER_M1;
 133:main.c        ****     dato_enviado_1[1]=Orientacion;
 134:main.c        ****     //Convertir Amplitud
 135:main.c        ****     uint8 datoL=Amp_env;
 136:main.c        ****     uint8 datoH=Amp_env>>8;
 137:main.c        ****     uint8 Aux=0;
 138:main.c        ****     if(Amplitud<0.0){
 139:main.c        ****         Aux=(1<<7);
 140:main.c        ****         datoH=datoH+Aux;
ARM GAS  C:\Users\HENRYA~1\AppData\Local\Temp\ccNfq1WN.s 			page 4


 141:main.c        ****     }
 142:main.c        ****     else{
 143:main.c        ****         Aux=(0<<7);
 144:main.c        ****         datoH=datoH+Aux;    
 145:main.c        ****     }
 146:main.c        ****     dato_enviado_1[2]=datoL;
 147:main.c        ****     dato_enviado_1[3]=datoH;
 148:main.c        ****     //Convertir Fase
 149:main.c        ****     datoL=Phase_env;
 150:main.c        ****     datoH=Phase_env>>8;
 151:main.c        ****     if(Phase<0.0){
 152:main.c        ****         Aux=(1<<7);
 153:main.c        ****         datoH=datoH+Aux;
 154:main.c        ****     }
 155:main.c        ****     else{
 156:main.c        ****         Aux=(0<<7);
 157:main.c        ****         datoH=datoH+Aux;    
 158:main.c        ****     }
 159:main.c        ****     dato_enviado_1[4]=datoL;
 160:main.c        ****     dato_enviado_1[5]=datoH;
 161:main.c        ****     //Convertir Offset
 162:main.c        ****     datoL=Offset_env;
 163:main.c        ****     datoH=Offset_env>>8;
 164:main.c        ****     if(Offset<0.0){
 165:main.c        ****         Aux=(1<<7);
 166:main.c        ****         datoH=datoH+Aux;
 167:main.c        ****     }
 168:main.c        ****     else{
 169:main.c        ****         Aux=(0<<7);
 170:main.c        ****         datoH=datoH+Aux;    
 171:main.c        ****     }
 172:main.c        ****     dato_enviado_1[6]=datoL;
 173:main.c        ****     dato_enviado_1[7]=datoH;    
 174:main.c        ****     CAN_SendMsg1();
 175:main.c        ****     CyDelay(25);
 176:main.c        **** }
 177:main.c        **** 
 178:main.c        **** void Recibe_mail_0(){
 179:main.c        **** if(mailbox0[0]==VER){
 180:main.c        ****             switch(mailbox0[2]){
 181:main.c        ****             ///////////////////////////////////////////////////////
 182:main.c        ****             case ESCRITURA:{ 
 183:main.c        ****                 switch(mailbox0[3]){//////////+6+++++++++++++
 184:main.c        ****                     case CANTIDAD_MOD: 
 185:main.c        ****                             cantidadM=mailbox0[4];
 186:main.c        ****                     break;
 187:main.c        ****                     case START:
 188:main.c        ****                         
 189:main.c        ****                     break;
 190:main.c        ****                 }
 191:main.c        ****             }                                            
 192:main.c        ****         }    
 193:main.c        **** }
 194:main.c        **** if(mailbox0[0]==VER2){
 195:main.c        ****                 switch(mailbox0[3]){
 196:main.c        ****                 ///////////////////////////////////////////////////////
 197:main.c        ****                 case ANGLE:{
ARM GAS  C:\Users\HENRYA~1\AppData\Local\Temp\ccNfq1WN.s 			page 5


 198:main.c        ****                     int Contador=mailbox0[7];
 199:main.c        ****                     if(Contador>=cantidadM){
 200:main.c        ****                             Enviar_Parametros(Amplitud_H,Fase,Offset_H,H);
 201:main.c        ****                             CyDelay(50);
 202:main.c        ****                             Enviar_Parametros(Amplitud_V,Fase,Offset_V,V);
 203:main.c        ****                             CyDelay(50); 
 204:main.c        ****                             Send_Angle(0,0);
 205:main.c        ****                     } 
 206:main.c        ****                 }
 207:main.c        ****                 break;}
 208:main.c        ****             }
 209:main.c        **** }
 210:main.c        **** 
 211:main.c        **** void Recibe_Mail_2(){
 212:main.c        ****     if(mailbox2[0]==SENSORES){
 213:main.c        ****         //Mailbox2[1] Derecha
 214:main.c        ****         //Mailbox2[2] Frente
 215:main.c        ****         //Mailbox2[3] Izquierda
 216:main.c        ****         if(mailbox2[1]==0&&mailbox2[2]==0&&mailbox2[3]==0)      {Peso_Sensor=0.0;}   //Normal
 217:main.c        ****         else if(mailbox2[1]==0&&mailbox2[2]==0&&mailbox2[3]==1) {Peso_Sensor=20;}   //Izquierda
 218:main.c        ****         else if(mailbox2[1]==0&&mailbox2[2]==1&&mailbox2[3]==0) {Peso_Sensor=60;}   //Frontal
 219:main.c        ****         else if(mailbox2[1]==0&&mailbox2[2]==1&&mailbox2[3]==1) {Peso_Sensor=80;}   //Frontal e Izq
 220:main.c        ****         else if(mailbox2[1]==1&&mailbox2[2]==0&&mailbox2[3]==0) {Peso_Sensor=20;}   //Derecha
 221:main.c        ****         else if(mailbox2[1]==1&&mailbox2[2]==0&&mailbox2[3]==1) {Peso_Sensor=40;}   //Derecha e Izq
 222:main.c        ****         else if(mailbox2[1]==1&&mailbox2[2]==1&&mailbox2[3]==0) {Peso_Sensor=80;}   //Frontal y Der
 223:main.c        ****         else if(mailbox2[1]==1&&mailbox2[2]==1&&mailbox2[3]==1) {Peso_Sensor=100;}     //Todos
 224:main.c        ****         else                                                    {Peso_Sensor=0.0;}   //Normal
 225:main.c        ****     }
 226:main.c        **** }
 227:main.c        **** 
 228:main.c        **** CY_ISR(interrutcan){
 229:main.c        ****     CAN_GlobalIntDisable();
 230:main.c        ****     CAN_MsgRXIsr();  
 231:main.c        ****     Recibe_mail_0();
 232:main.c        ****     Recibe_Mail_2();
 233:main.c        ****     CAN_GlobalIntEnable();
 234:main.c        **** }
 235:main.c        **** 
 236:main.c        **** float maximo(float *valores, int num){ 
 237:main.c        ****   int i; 
 238:main.c        ****   float max; 
 239:main.c        ****   max = valores[0]; 
 240:main.c        ****   for (i = 1; i < num; i++) 
 241:main.c        ****     if (valores[i] > max) 
 242:main.c        **** 	  max = valores[i]; 
 243:main.c        ****   return (max); 
 244:main.c        **** } 
 245:main.c        **** 
 246:main.c        **** void Normalizar(int I){
 247:main.c        ****     float Valor_Maximo=maximo(Fitness,I);
 248:main.c        ****     float Valor_Maximo_1=maximo(Fitness_1,I);
 249:main.c        ****     int i=0;
 250:main.c        ****     for (i=0;i<Individuos;i++){
 251:main.c        ****         Fitness[i]=Fitness[i]/Valor_Maximo;
 252:main.c        ****         Fitness[i]=1.0-Fitness[i];
 253:main.c        ****         Fitness_1[i]=Fitness_1[i]/Valor_Maximo_1;
 254:main.c        ****         Fitness_1[i]=1.0-Fitness_1[i];        
ARM GAS  C:\Users\HENRYA~1\AppData\Local\Temp\ccNfq1WN.s 			page 6


 255:main.c        ****     }
 256:main.c        **** }
 257:main.c        **** 
 258:main.c        **** void Evaluar_Fitness(int i){
 259:main.c        ****     Amplitud_V=Poblacion_1[0][i];
 260:main.c        ****     Amplitud_H=Poblacion_1[1][i];
 261:main.c        ****     Fase=Poblacion_1[2][i];
 262:main.c        ****     Offset_V=Poblacion_1[3][i];
 263:main.c        ****     Offset_H=Poblacion_1[4][i];    
 264:main.c        ****         for(int i=0;i<5;i++){
 265:main.c        ****             Enviar_Parametros(Amplitud_H,Fase,Offset_H,H);
 266:main.c        ****             CyDelay(50);
 267:main.c        ****             Enviar_Parametros(Amplitud_V,Fase,Offset_V,V);
 268:main.c        ****             CyDelay(50);
 269:main.c        ****             Send_Angle(0,0);
 270:main.c        ****         }   
 271:main.c        **** }
 272:main.c        **** 
 273:main.c        **** void Espere(){
 274:main.c        ****     Amplitud_V=0.0;
 275:main.c        ****     Amplitud_H=0.0;
 276:main.c        ****     Fase=0.0;
 277:main.c        ****     Offset_V=0.833;
 278:main.c        ****     Offset_H=0.833;
 279:main.c        ****         for(int i=0;i<5;i++){
 280:main.c        ****             Enviar_Parametros(Amplitud_H,Fase,Offset_H,H);
 281:main.c        ****             CyDelay(50);
 282:main.c        ****             Enviar_Parametros(Amplitud_V,Fase,Offset_V,V);
 283:main.c        ****             CyDelay(50);
 284:main.c        ****             Send_Angle(0,0);
 285:main.c        ****         }   
 286:main.c        **** }
 287:main.c        **** 
 288:main.c        **** void Seleccion(){
 289:main.c        ****     int i=0,j=0;
 290:main.c        ****     Acu=0.0;
 291:main.c        ****     bolita=0.0;
 292:main.c        ****     //Crear Vector de Seleccion
 293:main.c        ****     for(i=0;i<Individuos;i++){
 294:main.c        ****         Acu=Acu+Fitness[i];            
 295:main.c        ****     }
 296:main.c        ****     for(i=0;i<Individuos;i++){
 297:main.c        ****         Fitness_Normalizado[i]=Fitness[i]/Acu;            
 298:main.c        ****     }    
 299:main.c        ****     //Ruleta
 300:main.c        ****     for(i=0;i<Individuos;i++){
 301:main.c        ****         bolita=randd();
 302:main.c        ****         Acu=0.0;
 303:main.c        ****         j=0;
 304:main.c        ****         while (Acu<bolita){
 305:main.c        ****             Acu=Fitness_Normalizado[j]+Acu;
 306:main.c        ****             indice[i]=j;
 307:main.c        ****             j++;
 308:main.c        ****         }
 309:main.c        ****     } 
 310:main.c        ****     //Llenar Matriz de población_1
 311:main.c        ****     for(i=0;i<Individuos;i++){
ARM GAS  C:\Users\HENRYA~1\AppData\Local\Temp\ccNfq1WN.s 			page 7


 312:main.c        ****         Poblacion_1[0][i]=Poblacion[0][indice[i]];
 313:main.c        ****         Poblacion_1[1][i]=Poblacion[1][indice[i]];
 314:main.c        ****         Poblacion_1[2][i]=Poblacion[2][indice[i]];
 315:main.c        ****         Poblacion_1[3][i]=Poblacion[3][indice[i]];
 316:main.c        ****         Poblacion_1[4][i]=Poblacion[4][indice[i]];
 317:main.c        ****         Fitness_1[i]=Fitness[indice[i]];
 318:main.c        ****     }     
 319:main.c        **** }
 320:main.c        **** 
 321:main.c        **** float Saturador(float numero_comprobar,float lim_inf, float lim_sup){
 322:main.c        ****     if(numero_comprobar>lim_sup){return lim_sup;}
 323:main.c        ****     else if (numero_comprobar<lim_inf){return lim_inf;}
 324:main.c        ****     else{return numero_comprobar;}
 325:main.c        **** }
 326:main.c        **** 
 327:main.c        **** void reparacion(int Aux_ind){
 328:main.c        ****     if(randd()<0.5){
 329:main.c        ****     Poblacion_1[0][Aux_ind] = Saturador(Poblacion_1[0][Aux_ind],0.0,0.2);      
 330:main.c        ****     Poblacion_1[1][Aux_ind] = Saturador(Poblacion_1[1][Aux_ind],0.0,0.8);
 331:main.c        ****     }
 332:main.c        ****     else{
 333:main.c        ****     Poblacion_1[0][Aux_ind] = Saturador(Poblacion_1[0][Aux_ind],0.0,0.8);      
 334:main.c        ****     Poblacion_1[1][Aux_ind] = Saturador(Poblacion_1[1][Aux_ind],0.0,0.2);
 335:main.c        ****     }    
 336:main.c        ****     Poblacion_1[2][Aux_ind] = Saturador(Poblacion_1[2][Aux_ind],-1.0,1.0);   
 337:main.c        ****     Poblacion_1[3][Aux_ind] = Saturador(Poblacion_1[3][Aux_ind],(0.833-0.3),(0.833+0.3));
 338:main.c        ****     Poblacion_1[4][Aux_ind] = Saturador(Poblacion_1[4][Aux_ind],(0.833-0.3),(0.833+0.3));
 339:main.c        **** }
 340:main.c        **** 
 341:main.c        **** void Cruce(){
 342:main.c        ****     int papa=(int)Individuos*randd();
 343:main.c        ****     int mama=(int)Individuos*randd();
 344:main.c        ****     for (int i=0; i<5; i++) {
 345:main.c        ****         float alpha = randd();
 346:main.c        ****         float alpha_1 = randd();
 347:main.c        ****         float neg_alpha = 1.0 - alpha;
 348:main.c        ****         float neg_alpha_1 = 1.0 - alpha_1;
 349:main.c        ****         float tx;
 350:main.c        ****         float ty;
 351:main.c        ****         tx = Poblacion_1[i][papa];
 352:main.c        ****         ty = Poblacion_1[i][mama];
 353:main.c        ****         Poblacion_1[i][papa] = alpha * tx + neg_alpha * ty;
 354:main.c        ****         Poblacion_1[i][mama] = alpha_1 * tx + neg_alpha_1 * ty;
 355:main.c        ****     } 
 356:main.c        ****     reparacion(papa);
 357:main.c        ****     reparacion(mama);
 358:main.c        **** }
 359:main.c        **** 
 360:main.c        **** void Mutacion(){
 361:main.c        ****     int Selector=(int)Individuos*randd();
 362:main.c        ****     int componente=(int)randd()*4;
 363:main.c        ****     if(componente==0){Poblacion_1[componente][Selector]=Poblacion_1[componente][Selector]+random_ga
 364:main.c        ****     else if(componente==1){Poblacion_1[componente][Selector]=Poblacion_1[componente][Selector]+rand
 365:main.c        ****     else if(componente==2){Poblacion_1[componente][Selector]=Poblacion_1[componente][Selector]+rand
 366:main.c        ****     else if(componente==3){Poblacion_1[componente][Selector]=Poblacion_1[componente][Selector]+rand
 367:main.c        ****     else if(componente==4){Poblacion_1[componente][Selector]=Poblacion_1[componente][Selector]+rand
 368:main.c        ****     reparacion(Selector);
ARM GAS  C:\Users\HENRYA~1\AppData\Local\Temp\ccNfq1WN.s 			page 8


 369:main.c        **** }
 370:main.c        **** 
 371:main.c        **** void Reemplazo_Generacional(){
 372:main.c        ****     int i=0;
 373:main.c        ****     for(i=0;i<Individuos;i++){
 374:main.c        ****         if(Fitness_1[i]<Fitness[i]){
 375:main.c        ****             Poblacion[0][i]=Poblacion_1[0][i];
 376:main.c        ****             Poblacion[1][i]=Poblacion_1[1][i];
 377:main.c        ****             Poblacion[2][i]=Poblacion_1[2][i];
 378:main.c        ****             Poblacion[3][i]=Poblacion_1[3][i];
 379:main.c        ****             Poblacion[4][i]=Poblacion_1[4][i];
 380:main.c        ****             }
 381:main.c        ****     }
 382:main.c        **** }
 383:main.c        **** 
 384:main.c        **** void A_G(){
 385:main.c        ****     float Prob_c=0.5;
 386:main.c        ****     float Prob_m=0.2;
 387:main.c        ****     //Ingrese su Algoritmo Aqui
 388:main.c        ****     switch (flag){
 389:main.c        ****         case 0:
 390:main.c        ****             Normalizar(Individuos);
 391:main.c        ****             Reemplazo_Generacional();
 392:main.c        ****             Max_Conta=5;
 393:main.c        ****             puntero=0;
 394:main.c        ****             flag=1;        
 395:main.c        ****             break;
 396:main.c        ****         case 1:
 397:main.c        ****             Espere();
 398:main.c        ****             Seleccion();
 399:main.c        ****             Max_Conta=5;
 400:main.c        ****             flag=2;
 401:main.c        ****             break;
 402:main.c        ****         case 2:
 403:main.c        ****             Prob_c=randd();
 404:main.c        ****             if(Prob_c<Umbral_Cruce){
 405:main.c        ****                 Cruce();
 406:main.c        ****             }
 407:main.c        ****             Prob_m=randd();
 408:main.c        ****             if(Prob_m<Umbral_Mutacion){
 409:main.c        ****                 Mutacion();
 410:main.c        ****             }
 411:main.c        ****             flag=3;
 412:main.c        ****             break;
 413:main.c        ****         case 3:
 414:main.c        ****             switch (conmutador){
 415:main.c        ****                 case 0:
 416:main.c        ****                     conmutador=1;
 417:main.c        ****                     Evaluar_Fitness(puntero);
 418:main.c        ****                     Max_Conta=50;                    
 419:main.c        ****                 break;
 420:main.c        ****                 case 1:
 421:main.c        ****                     conmutador=2;
 422:main.c        ****                     Espere();
 423:main.c        ****                     Max_Conta=20;
 424:main.c        ****                 break;
 425:main.c        ****                 case 2:
ARM GAS  C:\Users\HENRYA~1\AppData\Local\Temp\ccNfq1WN.s 			page 9


 426:main.c        ****                     conmutador=0;
 427:main.c        ****                     Fitness_1[puntero]=dist;
 428:main.c        ****                     //dist=dist*100;
 429:main.c        ****                     dato_enviado_2[0]=individuo;
 430:main.c        ****                     dato_enviado_2[1]=(int)dist;
 431:main.c        ****                     CAN_SendMsg3();                    
 432:main.c        ****                     puntero++;
 433:main.c        ****                     Max_Conta=10;
 434:main.c        ****                     if(puntero==Individuos){flag=0;}
 435:main.c        ****                 break;
 436:main.c        ****             }
 437:main.c        ****             break;
 438:main.c        ****     }
 439:main.c        **** }
 440:main.c        **** 
 441:main.c        **** void Ejecutar(){
 442:main.c        ****     conta++;
 443:main.c        ****     if(conta==Max_Conta){     
 444:main.c        ****         LED_1_Write(1);    
 445:main.c        ****         A_G();         
 446:main.c        ****         conta=0;
 447:main.c        ****     }
 448:main.c        ****     else{
 449:main.c        ****         LED_1_Write(0);
 450:main.c        ****     }
 451:main.c        **** }
 452:main.c        **** //Interrupt's
 453:main.c        **** CY_ISR(Temporizador){
 454:main.c        ****     Ejecutar();  
 455:main.c        **** }
 456:main.c        **** 
 457:main.c        **** CY_ISR(Serial_Interrupt){
  32              		.loc 1 457 0
  33              		.cfi_startproc
  34              		@ args = 0, pretend = 0, frame = 0
  35              		@ frame_needed = 0, uses_anonymous_args = 0
  36 0000 10B5     		push	{r4, lr}
  37              		.cfi_def_cfa_offset 8
  38              		.cfi_offset 4, -8
  39              		.cfi_offset 14, -4
 458:main.c        ****     dist=SENSOR_U_GetChar()/2.0;
  40              		.loc 1 458 0
  41 0002 FFF7FEFF 		bl	SENSOR_U_GetChar
  42              	.LVL0:
  43 0006 FFF7FEFF 		bl	__aeabi_i2d
  44              	.LVL1:
  45 000a 0022     		movs	r2, #0
  46 000c 054B     		ldr	r3, .L2
  47 000e FFF7FEFF 		bl	__aeabi_dmul
  48              	.LVL2:
  49 0012 FFF7FEFF 		bl	__aeabi_d2f
  50              	.LVL3:
  51 0016 044C     		ldr	r4, .L2+4
 459:main.c        ****     dist=dist+Peso_Sensor;
  52              		.loc 1 459 0
  53 0018 6168     		ldr	r1, [r4, #4]
  54 001a FFF7FEFF 		bl	__aeabi_fadd
ARM GAS  C:\Users\HENRYA~1\AppData\Local\Temp\ccNfq1WN.s 			page 10


  55              	.LVL4:
  56 001e 2060     		str	r0, [r4]
 460:main.c        **** }
  57              		.loc 1 460 0
  58              		@ sp needed
  59 0020 10BD     		pop	{r4, pc}
  60              	.L3:
  61 0022 C046     		.align	2
  62              	.L2:
  63 0024 0000E03F 		.word	1071644672
  64 0028 00000000 		.word	.LANCHOR0
  65              		.cfi_endproc
  66              	.LFE62:
  67              		.size	Serial_Interrupt, .-Serial_Interrupt
  68              		.section	.text.randd,"ax",%progbits
  69              		.align	2
  70              		.global	randd
  71              		.code	16
  72              		.thumb_func
  73              		.type	randd, %function
  74              	randd:
  75              	.LFB37:
  61:main.c        ****   return (double)rand()/((double)RAND_MAX + 1);
  76              		.loc 1 61 0
  77              		.cfi_startproc
  78              		@ args = 0, pretend = 0, frame = 0
  79              		@ frame_needed = 0, uses_anonymous_args = 0
  80 0000 10B5     		push	{r4, lr}
  81              		.cfi_def_cfa_offset 8
  82              		.cfi_offset 4, -8
  83              		.cfi_offset 14, -4
  62:main.c        **** }
  84              		.loc 1 62 0
  85 0002 FFF7FEFF 		bl	rand
  86              	.LVL5:
  87 0006 FFF7FEFF 		bl	__aeabi_i2d
  88              	.LVL6:
  89 000a 0022     		movs	r2, #0
  90 000c F823     		movs	r3, #248
  91 000e 9B05     		lsls	r3, r3, #22
  92 0010 FFF7FEFF 		bl	__aeabi_dmul
  93              	.LVL7:
  63:main.c        **** 
  94              		.loc 1 63 0
  95              		@ sp needed
  96 0014 10BD     		pop	{r4, pc}
  97              		.cfi_endproc
  98              	.LFE37:
  99              		.size	randd, .-randd
 100 0016 C046     		.section	.text.random_gauss,"ax",%progbits
 101              		.align	2
 102              		.global	random_gauss
 103              		.code	16
 104              		.thumb_func
 105              		.type	random_gauss, %function
 106              	random_gauss:
 107              	.LFB38:
ARM GAS  C:\Users\HENRYA~1\AppData\Local\Temp\ccNfq1WN.s 			page 11


  65:main.c        ****     return randd()*0.2;
 108              		.loc 1 65 0
 109              		.cfi_startproc
 110              		@ args = 0, pretend = 0, frame = 0
 111              		@ frame_needed = 0, uses_anonymous_args = 0
 112 0000 10B5     		push	{r4, lr}
 113              		.cfi_def_cfa_offset 8
 114              		.cfi_offset 4, -8
 115              		.cfi_offset 14, -4
  66:main.c        **** }
 116              		.loc 1 66 0
 117 0002 FFF7FEFF 		bl	randd
 118              	.LVL8:
 119 0006 024A     		ldr	r2, .L6
 120 0008 024B     		ldr	r3, .L6+4
 121 000a FFF7FEFF 		bl	__aeabi_dmul
 122              	.LVL9:
  67:main.c        **** 
 123              		.loc 1 67 0
 124              		@ sp needed
 125 000e 10BD     		pop	{r4, pc}
 126              	.L7:
 127              		.align	2
 128              	.L6:
 129 0010 9A999999 		.word	-1717986918
 130 0014 9999C93F 		.word	1070176665
 131              		.cfi_endproc
 132              	.LFE38:
 133              		.size	random_gauss, .-random_gauss
 134              		.global	__aeabi_f2d
 135              		.section	.text.random_amplitud_1,"ax",%progbits
 136              		.align	2
 137              		.global	random_amplitud_1
 138              		.code	16
 139              		.thumb_func
 140              		.type	random_amplitud_1, %function
 141              	random_amplitud_1:
 142              	.LFB39:
  69:main.c        ****     float r=0.0;
 143              		.loc 1 69 0
 144              		.cfi_startproc
 145              		@ args = 0, pretend = 0, frame = 0
 146              		@ frame_needed = 0, uses_anonymous_args = 0
 147 0000 10B5     		push	{r4, lr}
 148              		.cfi_def_cfa_offset 8
 149              		.cfi_offset 4, -8
 150              		.cfi_offset 14, -4
 151              	.LVL10:
  71:main.c        ****     return r;
 152              		.loc 1 71 0
 153 0002 FFF7FEFF 		bl	randd
 154              	.LVL11:
 155 0006 FFF7FEFF 		bl	__aeabi_d2f
 156              	.LVL12:
  72:main.c        **** }
 157              		.loc 1 72 0
 158 000a FFF7FEFF 		bl	__aeabi_f2d
ARM GAS  C:\Users\HENRYA~1\AppData\Local\Temp\ccNfq1WN.s 			page 12


 159              	.LVL13:
  73:main.c        **** 
 160              		.loc 1 73 0
 161              		@ sp needed
 162 000e 10BD     		pop	{r4, pc}
 163              		.cfi_endproc
 164              	.LFE39:
 165              		.size	random_amplitud_1, .-random_amplitud_1
 166              		.section	.text.random_amplitud_2,"ax",%progbits
 167              		.align	2
 168              		.global	random_amplitud_2
 169              		.code	16
 170              		.thumb_func
 171              		.type	random_amplitud_2, %function
 172              	random_amplitud_2:
 173              	.LFB40:
  75:main.c        ****     float r=0.0;
 174              		.loc 1 75 0
 175              		.cfi_startproc
 176              		@ args = 0, pretend = 0, frame = 0
 177              		@ frame_needed = 0, uses_anonymous_args = 0
 178 0000 10B5     		push	{r4, lr}
 179              		.cfi_def_cfa_offset 8
 180              		.cfi_offset 4, -8
 181              		.cfi_offset 14, -4
 182              	.LVL14:
  77:main.c        ****     r=r*0.2;
 183              		.loc 1 77 0
 184 0002 FFF7FEFF 		bl	randd
 185              	.LVL15:
 186 0006 FFF7FEFF 		bl	__aeabi_d2f
 187              	.LVL16:
  78:main.c        ****     return r;
 188              		.loc 1 78 0
 189 000a FFF7FEFF 		bl	__aeabi_f2d
 190              	.LVL17:
 191 000e 044A     		ldr	r2, .L10
 192 0010 044B     		ldr	r3, .L10+4
 193 0012 FFF7FEFF 		bl	__aeabi_dmul
 194              	.LVL18:
 195 0016 FFF7FEFF 		bl	__aeabi_d2f
 196              	.LVL19:
  79:main.c        **** }
 197              		.loc 1 79 0
 198 001a FFF7FEFF 		bl	__aeabi_f2d
 199              	.LVL20:
  80:main.c        **** 
 200              		.loc 1 80 0
 201              		@ sp needed
 202 001e 10BD     		pop	{r4, pc}
 203              	.L11:
 204              		.align	2
 205              	.L10:
 206 0020 9A999999 		.word	-1717986918
 207 0024 9999C93F 		.word	1070176665
 208              		.cfi_endproc
 209              	.LFE40:
ARM GAS  C:\Users\HENRYA~1\AppData\Local\Temp\ccNfq1WN.s 			page 13


 210              		.size	random_amplitud_2, .-random_amplitud_2
 211              		.section	.text.random_Fase,"ax",%progbits
 212              		.align	2
 213              		.global	random_Fase
 214              		.code	16
 215              		.thumb_func
 216              		.type	random_Fase, %function
 217              	random_Fase:
 218              	.LFB41:
  82:main.c        ****     float r=0.0;
 219              		.loc 1 82 0
 220              		.cfi_startproc
 221              		@ args = 0, pretend = 0, frame = 0
 222              		@ frame_needed = 0, uses_anonymous_args = 0
 223 0000 10B5     		push	{r4, lr}
 224              		.cfi_def_cfa_offset 8
 225              		.cfi_offset 4, -8
 226              		.cfi_offset 14, -4
 227              	.LVL21:
  84:main.c        ****     r=r+1;
 228              		.loc 1 84 0
 229 0002 FFF7FEFF 		bl	randd
 230              	.LVL22:
 231 0006 0022     		movs	r2, #0
 232 0008 C023     		movs	r3, #192
 233 000a 1B06     		lsls	r3, r3, #24
 234 000c FFF7FEFF 		bl	__aeabi_dmul
 235              	.LVL23:
 236 0010 FFF7FEFF 		bl	__aeabi_d2f
 237              	.LVL24:
  85:main.c        ****     return r;
 238              		.loc 1 85 0
 239 0014 FE21     		movs	r1, #254
 240 0016 8905     		lsls	r1, r1, #22
 241 0018 FFF7FEFF 		bl	__aeabi_fadd
 242              	.LVL25:
  86:main.c        **** }
 243              		.loc 1 86 0
 244 001c FFF7FEFF 		bl	__aeabi_f2d
 245              	.LVL26:
  87:main.c        **** 
 246              		.loc 1 87 0
 247              		@ sp needed
 248 0020 10BD     		pop	{r4, pc}
 249              		.cfi_endproc
 250              	.LFE41:
 251              		.size	random_Fase, .-random_Fase
 252              		.global	__aeabi_dsub
 253              		.global	__aeabi_dadd
 254 0022 C046     		.section	.text.random_Offset,"ax",%progbits
 255              		.align	2
 256              		.global	random_Offset
 257              		.code	16
 258              		.thumb_func
 259              		.type	random_Offset, %function
 260              	random_Offset:
 261              	.LFB42:
ARM GAS  C:\Users\HENRYA~1\AppData\Local\Temp\ccNfq1WN.s 			page 14


  89:main.c        ****     float r=0.0;
 262              		.loc 1 89 0
 263              		.cfi_startproc
 264              		@ args = 0, pretend = 0, frame = 0
 265              		@ frame_needed = 0, uses_anonymous_args = 0
 266 0000 10B5     		push	{r4, lr}
 267              		.cfi_def_cfa_offset 8
 268              		.cfi_offset 4, -8
 269              		.cfi_offset 14, -4
 270              	.LVL27:
  91:main.c        ****     //r=r*-0.01;
 271              		.loc 1 91 0
 272 0002 FFF7FEFF 		bl	randd
 273              	.LVL28:
 274 0006 FFF7FEFF 		bl	__aeabi_d2f
 275              	.LVL29:
  94:main.c        ****     r=r-0.2;
 276              		.loc 1 94 0
 277 000a FFF7FEFF 		bl	__aeabi_f2d
 278              	.LVL30:
 279 000e 0C4A     		ldr	r2, .L14
 280 0010 0C4B     		ldr	r3, .L14+4
 281 0012 FFF7FEFF 		bl	__aeabi_dmul
 282              	.LVL31:
 283 0016 FFF7FEFF 		bl	__aeabi_d2f
 284              	.LVL32:
  95:main.c        ****     r=0.833+r;
 285              		.loc 1 95 0
 286 001a FFF7FEFF 		bl	__aeabi_f2d
 287              	.LVL33:
 288 001e 084A     		ldr	r2, .L14
 289 0020 094B     		ldr	r3, .L14+8
 290 0022 FFF7FEFF 		bl	__aeabi_dsub
 291              	.LVL34:
 292 0026 FFF7FEFF 		bl	__aeabi_d2f
 293              	.LVL35:
  96:main.c        ****     return r;
 294              		.loc 1 96 0
 295 002a FFF7FEFF 		bl	__aeabi_f2d
 296              	.LVL36:
 297 002e 074A     		ldr	r2, .L14+12
 298 0030 074B     		ldr	r3, .L14+16
 299 0032 FFF7FEFF 		bl	__aeabi_dadd
 300              	.LVL37:
 301 0036 FFF7FEFF 		bl	__aeabi_d2f
 302              	.LVL38:
  97:main.c        **** }
 303              		.loc 1 97 0
 304 003a FFF7FEFF 		bl	__aeabi_f2d
 305              	.LVL39:
  98:main.c        **** void movimiento(unsigned int dirr,int mov){
 306              		.loc 1 98 0
 307              		@ sp needed
 308 003e 10BD     		pop	{r4, pc}
 309              	.L15:
 310              		.align	2
 311              	.L14:
ARM GAS  C:\Users\HENRYA~1\AppData\Local\Temp\ccNfq1WN.s 			page 15


 312 0040 9A999999 		.word	-1717986918
 313 0044 9999D93F 		.word	1071225241
 314 0048 9999C93F 		.word	1070176665
 315 004c 0E2DB29D 		.word	-1649267442
 316 0050 EFA7EA3F 		.word	1072343023
 317              		.cfi_endproc
 318              	.LFE42:
 319              		.size	random_Offset, .-random_Offset
 320              		.section	.text.movimiento,"ax",%progbits
 321              		.align	2
 322              		.global	movimiento
 323              		.code	16
 324              		.thumb_func
 325              		.type	movimiento, %function
 326              	movimiento:
 327              	.LFB43:
  99:main.c        ****     char byteh,bytel;
 328              		.loc 1 99 0
 329              		.cfi_startproc
 330              		@ args = 0, pretend = 0, frame = 0
 331              		@ frame_needed = 0, uses_anonymous_args = 0
 332              	.LVL40:
 333 0000 10B5     		push	{r4, lr}
 334              		.cfi_def_cfa_offset 8
 335              		.cfi_offset 4, -8
 336              		.cfi_offset 14, -4
 101:main.c        ****     bytel=mov;
 337              		.loc 1 101 0
 338 0002 0A12     		asrs	r2, r1, #8
 339              	.LVL41:
 103:main.c        ****     dato_enviado[1]=dirr ;//dir
 340              		.loc 1 103 0
 341 0004 074B     		ldr	r3, .L17
 342 0006 7F24     		movs	r4, #127
 343 0008 1C70     		strb	r4, [r3]
 104:main.c        ****     dato_enviado[2]=ESCRITURA ;//operacion
 344              		.loc 1 104 0
 345 000a 5870     		strb	r0, [r3, #1]
 105:main.c        ****     dato_enviado[3]=MOTOR;//lugar
 346              		.loc 1 105 0
 347 000c 0220     		movs	r0, #2
 348              	.LVL42:
 349 000e 9870     		strb	r0, [r3, #2]
 106:main.c        ****     dato_enviado[4]= byteh ;  //dato
 350              		.loc 1 106 0
 351 0010 0130     		adds	r0, r0, #1
 352 0012 D870     		strb	r0, [r3, #3]
 107:main.c        ****     dato_enviado[5]= bytel ;  //dato
 353              		.loc 1 107 0
 354 0014 1A71     		strb	r2, [r3, #4]
 108:main.c        ****     CAN_SendMsg0(); 
 355              		.loc 1 108 0
 356 0016 5971     		strb	r1, [r3, #5]
 109:main.c        ****     CyDelay(25);    
 357              		.loc 1 109 0
 358 0018 FFF7FEFF 		bl	CAN_SendMsg0
 359              	.LVL43:
ARM GAS  C:\Users\HENRYA~1\AppData\Local\Temp\ccNfq1WN.s 			page 16


 110:main.c        **** }
 360              		.loc 1 110 0
 361 001c 1920     		movs	r0, #25
 362 001e FFF7FEFF 		bl	CyDelay
 363              	.LVL44:
 111:main.c        **** 
 364              		.loc 1 111 0
 365              		@ sp needed
 366 0022 10BD     		pop	{r4, pc}
 367              	.L18:
 368              		.align	2
 369              	.L17:
 370 0024 00000000 		.word	dato_enviado
 371              		.cfi_endproc
 372              	.LFE43:
 373              		.size	movimiento, .-movimiento
 374              		.section	.text.Send_Angle,"ax",%progbits
 375              		.align	2
 376              		.global	Send_Angle
 377              		.code	16
 378              		.thumb_func
 379              		.type	Send_Angle, %function
 380              	Send_Angle:
 381              	.LFB44:
 113:main.c        ****     dato_enviado[0]=VER2;//verificacion
 382              		.loc 1 113 0
 383              		.cfi_startproc
 384              		@ args = 0, pretend = 0, frame = 0
 385              		@ frame_needed = 0, uses_anonymous_args = 0
 386              	.LVL45:
 387 0000 10B5     		push	{r4, lr}
 388              		.cfi_def_cfa_offset 8
 389              		.cfi_offset 4, -8
 390              		.cfi_offset 14, -4
 114:main.c        ****     dato_enviado[1]=Conta3;//dir
 391              		.loc 1 114 0
 392 0002 094B     		ldr	r3, .L20
 393 0004 8022     		movs	r2, #128
 394 0006 1A70     		strb	r2, [r3]
 115:main.c        ****     dato_enviado[2]=Conta3;//dir
 395              		.loc 1 115 0
 396 0008 C9B2     		uxtb	r1, r1
 397              	.LVL46:
 398 000a 5970     		strb	r1, [r3, #1]
 116:main.c        ****     dato_enviado[3]=ANGLE;
 399              		.loc 1 116 0
 400 000c 9970     		strb	r1, [r3, #2]
 117:main.c        ****     dato_enviado[4]=0;//lugar
 401              		.loc 1 117 0
 402 000e 653A     		subs	r2, r2, #101
 403 0010 DA70     		strb	r2, [r3, #3]
 118:main.c        ****     dato_enviado[5]=0;  //dato... en este caso direcion para asignar
 404              		.loc 1 118 0
 405 0012 0022     		movs	r2, #0
 406 0014 1A71     		strb	r2, [r3, #4]
 119:main.c        ****     dato_enviado[6]=datas;
 407              		.loc 1 119 0
ARM GAS  C:\Users\HENRYA~1\AppData\Local\Temp\ccNfq1WN.s 			page 17


 408 0016 5A71     		strb	r2, [r3, #5]
 120:main.c        ****     dato_enviado[7]=Conta3;
 409              		.loc 1 120 0
 410 0018 9871     		strb	r0, [r3, #6]
 121:main.c        ****     CAN_SendMsg0(); 
 411              		.loc 1 121 0
 412 001a D971     		strb	r1, [r3, #7]
 122:main.c        ****     CyDelay(50);
 413              		.loc 1 122 0
 414 001c FFF7FEFF 		bl	CAN_SendMsg0
 415              	.LVL47:
 123:main.c        **** }
 416              		.loc 1 123 0
 417 0020 3220     		movs	r0, #50
 418 0022 FFF7FEFF 		bl	CyDelay
 419              	.LVL48:
 124:main.c        **** 
 420              		.loc 1 124 0
 421              		@ sp needed
 422 0026 10BD     		pop	{r4, pc}
 423              	.L21:
 424              		.align	2
 425              	.L20:
 426 0028 00000000 		.word	dato_enviado
 427              		.cfi_endproc
 428              	.LFE44:
 429              		.size	Send_Angle, .-Send_Angle
 430              		.global	__aeabi_fmul
 431              		.global	__aeabi_f2iz
 432              		.global	__aeabi_fcmplt
 433              		.section	.text.Enviar_Parametros,"ax",%progbits
 434              		.align	2
 435              		.global	Enviar_Parametros
 436              		.code	16
 437              		.thumb_func
 438              		.type	Enviar_Parametros, %function
 439              	Enviar_Parametros:
 440              	.LFB45:
 126:main.c        ****     //Convertir el Valor a entero para ser enviado
 441              		.loc 1 126 0
 442              		.cfi_startproc
 443              		@ args = 0, pretend = 0, frame = 16
 444              		@ frame_needed = 0, uses_anonymous_args = 0
 445              	.LVL49:
 446 0000 F0B5     		push	{r4, r5, r6, r7, lr}
 447              		.cfi_def_cfa_offset 20
 448              		.cfi_offset 4, -20
 449              		.cfi_offset 5, -16
 450              		.cfi_offset 6, -12
 451              		.cfi_offset 7, -8
 452              		.cfi_offset 14, -4
 453 0002 85B0     		sub	sp, sp, #20
 454              		.cfi_def_cfa_offset 40
 455 0004 0190     		str	r0, [sp, #4]
 456 0006 0291     		str	r1, [sp, #8]
 457 0008 0392     		str	r2, [sp, #12]
 458 000a 1F00     		movs	r7, r3
ARM GAS  C:\Users\HENRYA~1\AppData\Local\Temp\ccNfq1WN.s 			page 18


 128:main.c        ****     int Phase_env=(int)fabs(Phase*10000);
 459              		.loc 1 128 0
 460 000c 2749     		ldr	r1, .L32
 461              	.LVL50:
 462 000e FFF7FEFF 		bl	__aeabi_fmul
 463              	.LVL51:
 464 0012 4000     		lsls	r0, r0, #1
 465 0014 4008     		lsrs	r0, r0, #1
 466 0016 FFF7FEFF 		bl	__aeabi_f2iz
 467              	.LVL52:
 468 001a 0600     		movs	r6, r0
 469              	.LVL53:
 129:main.c        ****     int Offset_env=(int)fabs(Offset*10000);
 470              		.loc 1 129 0
 471 001c 2349     		ldr	r1, .L32
 472 001e 0298     		ldr	r0, [sp, #8]
 473              	.LVL54:
 474 0020 FFF7FEFF 		bl	__aeabi_fmul
 475              	.LVL55:
 476 0024 4000     		lsls	r0, r0, #1
 477 0026 4008     		lsrs	r0, r0, #1
 478 0028 FFF7FEFF 		bl	__aeabi_f2iz
 479              	.LVL56:
 480 002c 0500     		movs	r5, r0
 481              	.LVL57:
 130:main.c        ****     //Enviar datos
 482              		.loc 1 130 0
 483 002e 1F49     		ldr	r1, .L32
 484 0030 0398     		ldr	r0, [sp, #12]
 485              	.LVL58:
 486 0032 FFF7FEFF 		bl	__aeabi_fmul
 487              	.LVL59:
 488 0036 4000     		lsls	r0, r0, #1
 489 0038 4008     		lsrs	r0, r0, #1
 490 003a FFF7FEFF 		bl	__aeabi_f2iz
 491              	.LVL60:
 492 003e 0400     		movs	r4, r0
 493              	.LVL61:
 132:main.c        ****     dato_enviado_1[1]=Orientacion;
 494              		.loc 1 132 0
 495 0040 1B4B     		ldr	r3, .L32+4
 496 0042 8122     		movs	r2, #129
 497 0044 1A70     		strb	r2, [r3]
 133:main.c        ****     //Convertir Amplitud
 498              		.loc 1 133 0
 499 0046 5F70     		strb	r7, [r3, #1]
 135:main.c        ****     uint8 datoH=Amp_env>>8;
 500              		.loc 1 135 0
 501 0048 F7B2     		uxtb	r7, r6
 502              	.LVL62:
 136:main.c        ****     uint8 Aux=0;
 503              		.loc 1 136 0
 504 004a 3612     		asrs	r6, r6, #8
 505              	.LVL63:
 506 004c F6B2     		uxtb	r6, r6
 507              	.LVL64:
 138:main.c        ****         Aux=(1<<7);
ARM GAS  C:\Users\HENRYA~1\AppData\Local\Temp\ccNfq1WN.s 			page 19


 508              		.loc 1 138 0
 509 004e 0021     		movs	r1, #0
 510 0050 0198     		ldr	r0, [sp, #4]
 511              	.LVL65:
 512 0052 FFF7FEFF 		bl	__aeabi_fcmplt
 513              	.LVL66:
 514 0056 0028     		cmp	r0, #0
 515 0058 01D0     		beq	.L23
 516              	.LVL67:
 140:main.c        ****     }
 517              		.loc 1 140 0
 518 005a 803E     		subs	r6, r6, #128
 519              	.LVL68:
 520 005c F6B2     		uxtb	r6, r6
 521              	.LVL69:
 522              	.L23:
 146:main.c        ****     dato_enviado_1[3]=datoH;
 523              		.loc 1 146 0
 524 005e 144B     		ldr	r3, .L32+4
 525 0060 9F70     		strb	r7, [r3, #2]
 147:main.c        ****     //Convertir Fase
 526              		.loc 1 147 0
 527 0062 DE70     		strb	r6, [r3, #3]
 149:main.c        ****     datoH=Phase_env>>8;
 528              		.loc 1 149 0
 529 0064 EEB2     		uxtb	r6, r5
 530              	.LVL70:
 150:main.c        ****     if(Phase<0.0){
 531              		.loc 1 150 0
 532 0066 2D12     		asrs	r5, r5, #8
 533              	.LVL71:
 534 0068 EDB2     		uxtb	r5, r5
 535              	.LVL72:
 151:main.c        ****         Aux=(1<<7);
 536              		.loc 1 151 0
 537 006a 0021     		movs	r1, #0
 538 006c 0298     		ldr	r0, [sp, #8]
 539 006e FFF7FEFF 		bl	__aeabi_fcmplt
 540              	.LVL73:
 541 0072 0028     		cmp	r0, #0
 542 0074 01D0     		beq	.L25
 543              	.LVL74:
 153:main.c        ****     }
 544              		.loc 1 153 0
 545 0076 803D     		subs	r5, r5, #128
 546              	.LVL75:
 547 0078 EDB2     		uxtb	r5, r5
 548              	.LVL76:
 549              	.L25:
 159:main.c        ****     dato_enviado_1[5]=datoH;
 550              		.loc 1 159 0
 551 007a 0D4B     		ldr	r3, .L32+4
 552 007c 1E71     		strb	r6, [r3, #4]
 160:main.c        ****     //Convertir Offset
 553              		.loc 1 160 0
 554 007e 5D71     		strb	r5, [r3, #5]
 162:main.c        ****     datoH=Offset_env>>8;
ARM GAS  C:\Users\HENRYA~1\AppData\Local\Temp\ccNfq1WN.s 			page 20


 555              		.loc 1 162 0
 556 0080 E5B2     		uxtb	r5, r4
 557              	.LVL77:
 163:main.c        ****     if(Offset<0.0){
 558              		.loc 1 163 0
 559 0082 2412     		asrs	r4, r4, #8
 560              	.LVL78:
 561 0084 E4B2     		uxtb	r4, r4
 562              	.LVL79:
 164:main.c        ****         Aux=(1<<7);
 563              		.loc 1 164 0
 564 0086 0021     		movs	r1, #0
 565 0088 0398     		ldr	r0, [sp, #12]
 566 008a FFF7FEFF 		bl	__aeabi_fcmplt
 567              	.LVL80:
 568 008e 0028     		cmp	r0, #0
 569 0090 01D0     		beq	.L27
 570              	.LVL81:
 166:main.c        ****     }
 571              		.loc 1 166 0
 572 0092 803C     		subs	r4, r4, #128
 573              	.LVL82:
 574 0094 E4B2     		uxtb	r4, r4
 575              	.LVL83:
 576              	.L27:
 172:main.c        ****     dato_enviado_1[7]=datoH;    
 577              		.loc 1 172 0
 578 0096 064B     		ldr	r3, .L32+4
 579 0098 9D71     		strb	r5, [r3, #6]
 173:main.c        ****     CAN_SendMsg1();
 580              		.loc 1 173 0
 581 009a DC71     		strb	r4, [r3, #7]
 174:main.c        ****     CyDelay(25);
 582              		.loc 1 174 0
 583 009c FFF7FEFF 		bl	CAN_SendMsg1
 584              	.LVL84:
 175:main.c        **** }
 585              		.loc 1 175 0
 586 00a0 1920     		movs	r0, #25
 587 00a2 FFF7FEFF 		bl	CyDelay
 588              	.LVL85:
 176:main.c        **** 
 589              		.loc 1 176 0
 590 00a6 05B0     		add	sp, sp, #20
 591              		@ sp needed
 592              	.LVL86:
 593              	.LVL87:
 594 00a8 F0BD     		pop	{r4, r5, r6, r7, pc}
 595              	.L33:
 596 00aa C046     		.align	2
 597              	.L32:
 598 00ac 00401C46 		.word	1176256512
 599 00b0 00000000 		.word	dato_enviado_1
 600              		.cfi_endproc
 601              	.LFE45:
 602              		.size	Enviar_Parametros, .-Enviar_Parametros
 603              		.section	.text.Recibe_mail_0,"ax",%progbits
ARM GAS  C:\Users\HENRYA~1\AppData\Local\Temp\ccNfq1WN.s 			page 21


 604              		.align	2
 605              		.global	Recibe_mail_0
 606              		.code	16
 607              		.thumb_func
 608              		.type	Recibe_mail_0, %function
 609              	Recibe_mail_0:
 610              	.LFB46:
 178:main.c        **** if(mailbox0[0]==VER){
 611              		.loc 1 178 0
 612              		.cfi_startproc
 613              		@ args = 0, pretend = 0, frame = 0
 614              		@ frame_needed = 0, uses_anonymous_args = 0
 615 0000 70B5     		push	{r4, r5, r6, lr}
 616              		.cfi_def_cfa_offset 16
 617              		.cfi_offset 4, -16
 618              		.cfi_offset 5, -12
 619              		.cfi_offset 6, -8
 620              		.cfi_offset 14, -4
 179:main.c        ****             switch(mailbox0[2]){
 621              		.loc 1 179 0
 622 0002 1A4B     		ldr	r3, .L40
 623 0004 1B78     		ldrb	r3, [r3]
 624 0006 7F2B     		cmp	r3, #127
 625 0008 0BD1     		bne	.L35
 180:main.c        ****             ///////////////////////////////////////////////////////
 626              		.loc 1 180 0
 627 000a 184A     		ldr	r2, .L40
 628 000c 9278     		ldrb	r2, [r2, #2]
 629 000e 022A     		cmp	r2, #2
 630 0010 07D1     		bne	.L35
 183:main.c        ****                     case CANTIDAD_MOD: 
 631              		.loc 1 183 0
 632 0012 164A     		ldr	r2, .L40
 633 0014 D278     		ldrb	r2, [r2, #3]
 634 0016 2B2A     		cmp	r2, #43
 635 0018 03D1     		bne	.L35
 185:main.c        ****                     break;
 636              		.loc 1 185 0
 637 001a 144A     		ldr	r2, .L40
 638 001c 1179     		ldrb	r1, [r2, #4]
 639 001e 144A     		ldr	r2, .L40+4
 640 0020 9160     		str	r1, [r2, #8]
 641              	.L35:
 194:main.c        ****                 switch(mailbox0[3]){
 642              		.loc 1 194 0
 643 0022 802B     		cmp	r3, #128
 644 0024 21D1     		bne	.L34
 195:main.c        ****                 ///////////////////////////////////////////////////////
 645              		.loc 1 195 0
 646 0026 114B     		ldr	r3, .L40
 647 0028 DB78     		ldrb	r3, [r3, #3]
 648 002a 1B2B     		cmp	r3, #27
 649 002c 1DD1     		bne	.L34
 650              	.LBB2:
 198:main.c        ****                     if(Contador>=cantidadM){
 651              		.loc 1 198 0
 652 002e 0F4B     		ldr	r3, .L40
ARM GAS  C:\Users\HENRYA~1\AppData\Local\Temp\ccNfq1WN.s 			page 22


 653 0030 DA79     		ldrb	r2, [r3, #7]
 654              	.LVL88:
 199:main.c        ****                             Enviar_Parametros(Amplitud_H,Fase,Offset_H,H);
 655              		.loc 1 199 0
 656 0032 0F4B     		ldr	r3, .L40+4
 657 0034 9B68     		ldr	r3, [r3, #8]
 658 0036 9A42     		cmp	r2, r3
 659 0038 17DB     		blt	.L34
 200:main.c        ****                             CyDelay(50);
 660              		.loc 1 200 0
 661 003a 0E4D     		ldr	r5, .L40+8
 662 003c 0C4C     		ldr	r4, .L40+4
 663 003e 2023     		movs	r3, #32
 664 0040 2A68     		ldr	r2, [r5]
 665              	.LVL89:
 666 0042 E168     		ldr	r1, [r4, #12]
 667 0044 2069     		ldr	r0, [r4, #16]
 668 0046 FFF7FEFF 		bl	Enviar_Parametros
 669              	.LVL90:
 201:main.c        ****                             Enviar_Parametros(Amplitud_V,Fase,Offset_V,V);
 670              		.loc 1 201 0
 671 004a 3220     		movs	r0, #50
 672 004c FFF7FEFF 		bl	CyDelay
 673              	.LVL91:
 202:main.c        ****                             CyDelay(50); 
 674              		.loc 1 202 0
 675 0050 6A68     		ldr	r2, [r5, #4]
 676 0052 E168     		ldr	r1, [r4, #12]
 677 0054 6069     		ldr	r0, [r4, #20]
 678 0056 2123     		movs	r3, #33
 679 0058 FFF7FEFF 		bl	Enviar_Parametros
 680              	.LVL92:
 203:main.c        ****                             Send_Angle(0,0);
 681              		.loc 1 203 0
 682 005c 3220     		movs	r0, #50
 683 005e FFF7FEFF 		bl	CyDelay
 684              	.LVL93:
 204:main.c        ****                     } 
 685              		.loc 1 204 0
 686 0062 0021     		movs	r1, #0
 687 0064 0020     		movs	r0, #0
 688 0066 FFF7FEFF 		bl	Send_Angle
 689              	.LVL94:
 690              	.L34:
 691              	.LBE2:
 209:main.c        **** 
 692              		.loc 1 209 0
 693              		@ sp needed
 694 006a 70BD     		pop	{r4, r5, r6, pc}
 695              	.L41:
 696              		.align	2
 697              	.L40:
 698 006c 00000000 		.word	mailbox0
 699 0070 00000000 		.word	.LANCHOR0
 700 0074 00000000 		.word	.LANCHOR1
 701              		.cfi_endproc
 702              	.LFE46:
ARM GAS  C:\Users\HENRYA~1\AppData\Local\Temp\ccNfq1WN.s 			page 23


 703              		.size	Recibe_mail_0, .-Recibe_mail_0
 704              		.section	.text.Recibe_Mail_2,"ax",%progbits
 705              		.align	2
 706              		.global	Recibe_Mail_2
 707              		.code	16
 708              		.thumb_func
 709              		.type	Recibe_Mail_2, %function
 710              	Recibe_Mail_2:
 711              	.LFB47:
 211:main.c        ****     if(mailbox2[0]==SENSORES){
 712              		.loc 1 211 0
 713              		.cfi_startproc
 714              		@ args = 0, pretend = 0, frame = 0
 715              		@ frame_needed = 0, uses_anonymous_args = 0
 716              		@ link register save eliminated.
 212:main.c        ****         //Mailbox2[1] Derecha
 717              		.loc 1 212 0
 718 0000 3C4B     		ldr	r3, .L52
 719 0002 1B78     		ldrb	r3, [r3]
 720 0004 822B     		cmp	r3, #130
 721 0006 74D1     		bne	.L42
 216:main.c        ****         else if(mailbox2[1]==0&&mailbox2[2]==0&&mailbox2[3]==1) {Peso_Sensor=20;}   //Izquierda
 722              		.loc 1 216 0
 723 0008 3A4B     		ldr	r3, .L52
 724 000a 5B78     		ldrb	r3, [r3, #1]
 725 000c 002B     		cmp	r3, #0
 726 000e 0BD1     		bne	.L44
 216:main.c        ****         else if(mailbox2[1]==0&&mailbox2[2]==0&&mailbox2[3]==1) {Peso_Sensor=20;}   //Izquierda
 727              		.loc 1 216 0 is_stmt 0 discriminator 1
 728 0010 384A     		ldr	r2, .L52
 729 0012 9278     		ldrb	r2, [r2, #2]
 730 0014 002A     		cmp	r2, #0
 731 0016 07D1     		bne	.L44
 216:main.c        ****         else if(mailbox2[1]==0&&mailbox2[2]==0&&mailbox2[3]==1) {Peso_Sensor=20;}   //Izquierda
 732              		.loc 1 216 0 discriminator 2
 733 0018 364A     		ldr	r2, .L52
 734 001a D278     		ldrb	r2, [r2, #3]
 735 001c 002A     		cmp	r2, #0
 736 001e 03D1     		bne	.L44
 216:main.c        ****         else if(mailbox2[1]==0&&mailbox2[2]==0&&mailbox2[3]==1) {Peso_Sensor=20;}   //Izquierda
 737              		.loc 1 216 0 discriminator 3
 738 0020 0022     		movs	r2, #0
 739 0022 354B     		ldr	r3, .L52+4
 740 0024 5A60     		str	r2, [r3, #4]
 741 0026 64E0     		b	.L42
 742              	.L44:
 217:main.c        ****         else if(mailbox2[1]==0&&mailbox2[2]==1&&mailbox2[3]==0) {Peso_Sensor=60;}   //Frontal
 743              		.loc 1 217 0 is_stmt 1
 744 0028 002B     		cmp	r3, #0
 745 002a 0BD1     		bne	.L45
 217:main.c        ****         else if(mailbox2[1]==0&&mailbox2[2]==1&&mailbox2[3]==0) {Peso_Sensor=60;}   //Frontal
 746              		.loc 1 217 0 is_stmt 0 discriminator 1
 747 002c 314A     		ldr	r2, .L52
 748 002e 9278     		ldrb	r2, [r2, #2]
 749 0030 002A     		cmp	r2, #0
 750 0032 07D1     		bne	.L45
 217:main.c        ****         else if(mailbox2[1]==0&&mailbox2[2]==1&&mailbox2[3]==0) {Peso_Sensor=60;}   //Frontal
ARM GAS  C:\Users\HENRYA~1\AppData\Local\Temp\ccNfq1WN.s 			page 24


 751              		.loc 1 217 0 discriminator 2
 752 0034 2F4A     		ldr	r2, .L52
 753 0036 D278     		ldrb	r2, [r2, #3]
 754 0038 012A     		cmp	r2, #1
 755 003a 03D1     		bne	.L45
 217:main.c        ****         else if(mailbox2[1]==0&&mailbox2[2]==1&&mailbox2[3]==0) {Peso_Sensor=60;}   //Frontal
 756              		.loc 1 217 0 discriminator 3
 757 003c 2F4A     		ldr	r2, .L52+8
 758 003e 2E4B     		ldr	r3, .L52+4
 759 0040 5A60     		str	r2, [r3, #4]
 760 0042 56E0     		b	.L42
 761              	.L45:
 218:main.c        ****         else if(mailbox2[1]==0&&mailbox2[2]==1&&mailbox2[3]==1) {Peso_Sensor=80;}   //Frontal e Izq
 762              		.loc 1 218 0 is_stmt 1
 763 0044 002B     		cmp	r3, #0
 764 0046 0BD1     		bne	.L46
 218:main.c        ****         else if(mailbox2[1]==0&&mailbox2[2]==1&&mailbox2[3]==1) {Peso_Sensor=80;}   //Frontal e Izq
 765              		.loc 1 218 0 is_stmt 0 discriminator 1
 766 0048 2A4A     		ldr	r2, .L52
 767 004a 9278     		ldrb	r2, [r2, #2]
 768 004c 012A     		cmp	r2, #1
 769 004e 07D1     		bne	.L46
 218:main.c        ****         else if(mailbox2[1]==0&&mailbox2[2]==1&&mailbox2[3]==1) {Peso_Sensor=80;}   //Frontal e Izq
 770              		.loc 1 218 0 discriminator 2
 771 0050 284A     		ldr	r2, .L52
 772 0052 D278     		ldrb	r2, [r2, #3]
 773 0054 002A     		cmp	r2, #0
 774 0056 03D1     		bne	.L46
 218:main.c        ****         else if(mailbox2[1]==0&&mailbox2[2]==1&&mailbox2[3]==1) {Peso_Sensor=80;}   //Frontal e Izq
 775              		.loc 1 218 0 discriminator 3
 776 0058 294A     		ldr	r2, .L52+12
 777 005a 274B     		ldr	r3, .L52+4
 778 005c 5A60     		str	r2, [r3, #4]
 779 005e 48E0     		b	.L42
 780              	.L46:
 219:main.c        ****         else if(mailbox2[1]==1&&mailbox2[2]==0&&mailbox2[3]==0) {Peso_Sensor=20;}   //Derecha
 781              		.loc 1 219 0 is_stmt 1
 782 0060 002B     		cmp	r3, #0
 783 0062 0BD1     		bne	.L47
 219:main.c        ****         else if(mailbox2[1]==1&&mailbox2[2]==0&&mailbox2[3]==0) {Peso_Sensor=20;}   //Derecha
 784              		.loc 1 219 0 is_stmt 0 discriminator 1
 785 0064 234A     		ldr	r2, .L52
 786 0066 9278     		ldrb	r2, [r2, #2]
 787 0068 012A     		cmp	r2, #1
 788 006a 07D1     		bne	.L47
 219:main.c        ****         else if(mailbox2[1]==1&&mailbox2[2]==0&&mailbox2[3]==0) {Peso_Sensor=20;}   //Derecha
 789              		.loc 1 219 0 discriminator 2
 790 006c 214A     		ldr	r2, .L52
 791 006e D278     		ldrb	r2, [r2, #3]
 792 0070 012A     		cmp	r2, #1
 793 0072 03D1     		bne	.L47
 219:main.c        ****         else if(mailbox2[1]==1&&mailbox2[2]==0&&mailbox2[3]==0) {Peso_Sensor=20;}   //Derecha
 794              		.loc 1 219 0 discriminator 3
 795 0074 234A     		ldr	r2, .L52+16
 796 0076 204B     		ldr	r3, .L52+4
 797 0078 5A60     		str	r2, [r3, #4]
 798 007a 3AE0     		b	.L42
ARM GAS  C:\Users\HENRYA~1\AppData\Local\Temp\ccNfq1WN.s 			page 25


 799              	.L47:
 220:main.c        ****         else if(mailbox2[1]==1&&mailbox2[2]==0&&mailbox2[3]==1) {Peso_Sensor=40;}   //Derecha e Izq
 800              		.loc 1 220 0 is_stmt 1
 801 007c 012B     		cmp	r3, #1
 802 007e 0BD1     		bne	.L48
 220:main.c        ****         else if(mailbox2[1]==1&&mailbox2[2]==0&&mailbox2[3]==1) {Peso_Sensor=40;}   //Derecha e Izq
 803              		.loc 1 220 0 is_stmt 0 discriminator 1
 804 0080 1C4A     		ldr	r2, .L52
 805 0082 9278     		ldrb	r2, [r2, #2]
 806 0084 002A     		cmp	r2, #0
 807 0086 07D1     		bne	.L48
 220:main.c        ****         else if(mailbox2[1]==1&&mailbox2[2]==0&&mailbox2[3]==1) {Peso_Sensor=40;}   //Derecha e Izq
 808              		.loc 1 220 0 discriminator 2
 809 0088 1A4A     		ldr	r2, .L52
 810 008a D278     		ldrb	r2, [r2, #3]
 811 008c 002A     		cmp	r2, #0
 812 008e 03D1     		bne	.L48
 220:main.c        ****         else if(mailbox2[1]==1&&mailbox2[2]==0&&mailbox2[3]==1) {Peso_Sensor=40;}   //Derecha e Izq
 813              		.loc 1 220 0 discriminator 3
 814 0090 1A4A     		ldr	r2, .L52+8
 815 0092 194B     		ldr	r3, .L52+4
 816 0094 5A60     		str	r2, [r3, #4]
 817 0096 2CE0     		b	.L42
 818              	.L48:
 221:main.c        ****         else if(mailbox2[1]==1&&mailbox2[2]==1&&mailbox2[3]==0) {Peso_Sensor=80;}   //Frontal y Der
 819              		.loc 1 221 0 is_stmt 1
 820 0098 012B     		cmp	r3, #1
 821 009a 0BD1     		bne	.L49
 221:main.c        ****         else if(mailbox2[1]==1&&mailbox2[2]==1&&mailbox2[3]==0) {Peso_Sensor=80;}   //Frontal y Der
 822              		.loc 1 221 0 is_stmt 0 discriminator 1
 823 009c 154A     		ldr	r2, .L52
 824 009e 9278     		ldrb	r2, [r2, #2]
 825 00a0 002A     		cmp	r2, #0
 826 00a2 07D1     		bne	.L49
 221:main.c        ****         else if(mailbox2[1]==1&&mailbox2[2]==1&&mailbox2[3]==0) {Peso_Sensor=80;}   //Frontal y Der
 827              		.loc 1 221 0 discriminator 2
 828 00a4 134A     		ldr	r2, .L52
 829 00a6 D278     		ldrb	r2, [r2, #3]
 830 00a8 012A     		cmp	r2, #1
 831 00aa 03D1     		bne	.L49
 221:main.c        ****         else if(mailbox2[1]==1&&mailbox2[2]==1&&mailbox2[3]==0) {Peso_Sensor=80;}   //Frontal y Der
 832              		.loc 1 221 0 discriminator 3
 833 00ac 164A     		ldr	r2, .L52+20
 834 00ae 124B     		ldr	r3, .L52+4
 835 00b0 5A60     		str	r2, [r3, #4]
 836 00b2 1EE0     		b	.L42
 837              	.L49:
 222:main.c        ****         else if(mailbox2[1]==1&&mailbox2[2]==1&&mailbox2[3]==1) {Peso_Sensor=100;}     //Todos
 838              		.loc 1 222 0 is_stmt 1
 839 00b4 012B     		cmp	r3, #1
 840 00b6 0BD1     		bne	.L50
 222:main.c        ****         else if(mailbox2[1]==1&&mailbox2[2]==1&&mailbox2[3]==1) {Peso_Sensor=100;}     //Todos
 841              		.loc 1 222 0 is_stmt 0 discriminator 1
 842 00b8 0E4A     		ldr	r2, .L52
 843 00ba 9278     		ldrb	r2, [r2, #2]
 844 00bc 012A     		cmp	r2, #1
 845 00be 07D1     		bne	.L50
ARM GAS  C:\Users\HENRYA~1\AppData\Local\Temp\ccNfq1WN.s 			page 26


 222:main.c        ****         else if(mailbox2[1]==1&&mailbox2[2]==1&&mailbox2[3]==1) {Peso_Sensor=100;}     //Todos
 846              		.loc 1 222 0 discriminator 2
 847 00c0 0C4A     		ldr	r2, .L52
 848 00c2 D278     		ldrb	r2, [r2, #3]
 849 00c4 002A     		cmp	r2, #0
 850 00c6 03D1     		bne	.L50
 222:main.c        ****         else if(mailbox2[1]==1&&mailbox2[2]==1&&mailbox2[3]==1) {Peso_Sensor=100;}     //Todos
 851              		.loc 1 222 0 discriminator 3
 852 00c8 0E4A     		ldr	r2, .L52+16
 853 00ca 0B4B     		ldr	r3, .L52+4
 854 00cc 5A60     		str	r2, [r3, #4]
 855 00ce 10E0     		b	.L42
 856              	.L50:
 223:main.c        ****         else                                                    {Peso_Sensor=0.0;}   //Normal
 857              		.loc 1 223 0 is_stmt 1
 858 00d0 012B     		cmp	r3, #1
 859 00d2 0BD1     		bne	.L51
 223:main.c        ****         else                                                    {Peso_Sensor=0.0;}   //Normal
 860              		.loc 1 223 0 is_stmt 0 discriminator 1
 861 00d4 074B     		ldr	r3, .L52
 862 00d6 9B78     		ldrb	r3, [r3, #2]
 863 00d8 012B     		cmp	r3, #1
 864 00da 07D1     		bne	.L51
 223:main.c        ****         else                                                    {Peso_Sensor=0.0;}   //Normal
 865              		.loc 1 223 0 discriminator 2
 866 00dc 054B     		ldr	r3, .L52
 867 00de DB78     		ldrb	r3, [r3, #3]
 868 00e0 012B     		cmp	r3, #1
 869 00e2 03D1     		bne	.L51
 223:main.c        ****         else                                                    {Peso_Sensor=0.0;}   //Normal
 870              		.loc 1 223 0 discriminator 3
 871 00e4 094A     		ldr	r2, .L52+24
 872 00e6 044B     		ldr	r3, .L52+4
 873 00e8 5A60     		str	r2, [r3, #4]
 874 00ea 02E0     		b	.L42
 875              	.L51:
 224:main.c        ****     }
 876              		.loc 1 224 0 is_stmt 1
 877 00ec 0022     		movs	r2, #0
 878 00ee 024B     		ldr	r3, .L52+4
 879 00f0 5A60     		str	r2, [r3, #4]
 880              	.L42:
 226:main.c        **** 
 881              		.loc 1 226 0
 882              		@ sp needed
 883 00f2 7047     		bx	lr
 884              	.L53:
 885              		.align	2
 886              	.L52:
 887 00f4 00000000 		.word	mailbox2
 888 00f8 00000000 		.word	.LANCHOR0
 889 00fc 0000A041 		.word	1101004800
 890 0100 00007042 		.word	1114636288
 891 0104 0000A042 		.word	1117782016
 892 0108 00002042 		.word	1109393408
 893 010c 0000C842 		.word	1120403456
 894              		.cfi_endproc
ARM GAS  C:\Users\HENRYA~1\AppData\Local\Temp\ccNfq1WN.s 			page 27


 895              	.LFE47:
 896              		.size	Recibe_Mail_2, .-Recibe_Mail_2
 897              		.section	.text.interrutcan,"ax",%progbits
 898              		.align	2
 899              		.global	interrutcan
 900              		.code	16
 901              		.thumb_func
 902              		.type	interrutcan, %function
 903              	interrutcan:
 904              	.LFB48:
 228:main.c        ****     CAN_GlobalIntDisable();
 905              		.loc 1 228 0
 906              		.cfi_startproc
 907              		@ args = 0, pretend = 0, frame = 0
 908              		@ frame_needed = 0, uses_anonymous_args = 0
 909 0000 10B5     		push	{r4, lr}
 910              		.cfi_def_cfa_offset 8
 911              		.cfi_offset 4, -8
 912              		.cfi_offset 14, -4
 229:main.c        ****     CAN_MsgRXIsr();  
 913              		.loc 1 229 0
 914 0002 FFF7FEFF 		bl	CAN_GlobalIntDisable
 915              	.LVL95:
 230:main.c        ****     Recibe_mail_0();
 916              		.loc 1 230 0
 917 0006 FFF7FEFF 		bl	CAN_MsgRXIsr
 918              	.LVL96:
 231:main.c        ****     Recibe_Mail_2();
 919              		.loc 1 231 0
 920 000a FFF7FEFF 		bl	Recibe_mail_0
 921              	.LVL97:
 232:main.c        ****     CAN_GlobalIntEnable();
 922              		.loc 1 232 0
 923 000e FFF7FEFF 		bl	Recibe_Mail_2
 924              	.LVL98:
 233:main.c        **** }
 925              		.loc 1 233 0
 926 0012 FFF7FEFF 		bl	CAN_GlobalIntEnable
 927              	.LVL99:
 234:main.c        **** 
 928              		.loc 1 234 0
 929              		@ sp needed
 930 0016 10BD     		pop	{r4, pc}
 931              		.cfi_endproc
 932              	.LFE48:
 933              		.size	interrutcan, .-interrutcan
 934              		.section	.text.maximo,"ax",%progbits
 935              		.align	2
 936              		.global	maximo
 937              		.code	16
 938              		.thumb_func
 939              		.type	maximo, %function
 940              	maximo:
 941              	.LFB49:
 236:main.c        ****   int i; 
 942              		.loc 1 236 0
 943              		.cfi_startproc
ARM GAS  C:\Users\HENRYA~1\AppData\Local\Temp\ccNfq1WN.s 			page 28


 944              		@ args = 0, pretend = 0, frame = 8
 945              		@ frame_needed = 0, uses_anonymous_args = 0
 946              	.LVL100:
 947 0000 F0B5     		push	{r4, r5, r6, r7, lr}
 948              		.cfi_def_cfa_offset 20
 949              		.cfi_offset 4, -20
 950              		.cfi_offset 5, -16
 951              		.cfi_offset 6, -12
 952              		.cfi_offset 7, -8
 953              		.cfi_offset 14, -4
 954 0002 83B0     		sub	sp, sp, #12
 955              		.cfi_def_cfa_offset 32
 956 0004 0700     		movs	r7, r0
 957 0006 0E00     		movs	r6, r1
 239:main.c        ****   for (i = 1; i < num; i++) 
 958              		.loc 1 239 0
 959 0008 0368     		ldr	r3, [r0]
 960 000a 0193     		str	r3, [sp, #4]
 961              	.LVL101:
 240:main.c        ****     if (valores[i] > max) 
 962              		.loc 1 240 0
 963 000c 0124     		movs	r4, #1
 964 000e 09E0     		b	.L56
 965              	.LVL102:
 966              	.L58:
 241:main.c        **** 	  max = valores[i]; 
 967              		.loc 1 241 0
 968 0010 A300     		lsls	r3, r4, #2
 969 0012 DD59     		ldr	r5, [r3, r7]
 970 0014 291C     		adds	r1, r5, #0
 971 0016 0198     		ldr	r0, [sp, #4]
 972 0018 FFF7FEFF 		bl	__aeabi_fcmplt
 973              	.LVL103:
 974 001c 0028     		cmp	r0, #0
 975 001e 00D0     		beq	.L57
 242:main.c        ****   return (max); 
 976              		.loc 1 242 0
 977 0020 0195     		str	r5, [sp, #4]
 978              	.LVL104:
 979              	.L57:
 240:main.c        ****     if (valores[i] > max) 
 980              		.loc 1 240 0 discriminator 2
 981 0022 0134     		adds	r4, r4, #1
 982              	.LVL105:
 983              	.L56:
 240:main.c        ****     if (valores[i] > max) 
 984              		.loc 1 240 0 is_stmt 0 discriminator 1
 985 0024 B442     		cmp	r4, r6
 986 0026 F3DB     		blt	.L58
 244:main.c        **** 
 987              		.loc 1 244 0 is_stmt 1
 988 0028 0198     		ldr	r0, [sp, #4]
 989 002a 03B0     		add	sp, sp, #12
 990              		@ sp needed
 991              	.LVL106:
 992              	.LVL107:
 993              	.LVL108:
ARM GAS  C:\Users\HENRYA~1\AppData\Local\Temp\ccNfq1WN.s 			page 29


 994 002c F0BD     		pop	{r4, r5, r6, r7, pc}
 995              		.cfi_endproc
 996              	.LFE49:
 997              		.size	maximo, .-maximo
 998              		.global	__aeabi_fdiv
 999              		.global	__aeabi_fsub
 1000 002e C046     		.section	.text.Normalizar,"ax",%progbits
 1001              		.align	2
 1002              		.global	Normalizar
 1003              		.code	16
 1004              		.thumb_func
 1005              		.type	Normalizar, %function
 1006              	Normalizar:
 1007              	.LFB50:
 246:main.c        ****     float Valor_Maximo=maximo(Fitness,I);
 1008              		.loc 1 246 0
 1009              		.cfi_startproc
 1010              		@ args = 0, pretend = 0, frame = 8
 1011              		@ frame_needed = 0, uses_anonymous_args = 0
 1012              	.LVL109:
 1013 0000 F0B5     		push	{r4, r5, r6, r7, lr}
 1014              		.cfi_def_cfa_offset 20
 1015              		.cfi_offset 4, -20
 1016              		.cfi_offset 5, -16
 1017              		.cfi_offset 6, -12
 1018              		.cfi_offset 7, -8
 1019              		.cfi_offset 14, -4
 1020 0002 83B0     		sub	sp, sp, #12
 1021              		.cfi_def_cfa_offset 32
 1022 0004 0400     		movs	r4, r0
 247:main.c        ****     float Valor_Maximo_1=maximo(Fitness_1,I);
 1023              		.loc 1 247 0
 1024 0006 0100     		movs	r1, r0
 1025 0008 1548     		ldr	r0, .L63
 1026              	.LVL110:
 1027 000a FFF7FEFF 		bl	maximo
 1028              	.LVL111:
 1029 000e 071C     		adds	r7, r0, #0
 1030              	.LVL112:
 248:main.c        ****     int i=0;
 1031              		.loc 1 248 0
 1032 0010 2100     		movs	r1, r4
 1033 0012 1448     		ldr	r0, .L63+4
 1034              	.LVL113:
 1035 0014 FFF7FEFF 		bl	maximo
 1036              	.LVL114:
 1037 0018 0190     		str	r0, [sp, #4]
 1038              	.LVL115:
 250:main.c        ****         Fitness[i]=Fitness[i]/Valor_Maximo;
 1039              		.loc 1 250 0
 1040 001a 0025     		movs	r5, #0
 1041 001c 19E0     		b	.L61
 1042              	.LVL116:
 1043              	.L62:
 251:main.c        ****         Fitness[i]=1.0-Fitness[i];
 1044              		.loc 1 251 0 discriminator 3
 1045 001e 104E     		ldr	r6, .L63
ARM GAS  C:\Users\HENRYA~1\AppData\Local\Temp\ccNfq1WN.s 			page 30


 1046 0020 AC00     		lsls	r4, r5, #2
 1047 0022 391C     		adds	r1, r7, #0
 1048 0024 A059     		ldr	r0, [r4, r6]
 1049 0026 FFF7FEFF 		bl	__aeabi_fdiv
 1050              	.LVL117:
 1051 002a 011C     		adds	r1, r0, #0
 1052 002c A051     		str	r0, [r4, r6]
 252:main.c        ****         Fitness_1[i]=Fitness_1[i]/Valor_Maximo_1;
 1053              		.loc 1 252 0 discriminator 3
 1054 002e FE20     		movs	r0, #254
 1055 0030 8005     		lsls	r0, r0, #22
 1056 0032 FFF7FEFF 		bl	__aeabi_fsub
 1057              	.LVL118:
 1058 0036 A051     		str	r0, [r4, r6]
 253:main.c        ****         Fitness_1[i]=1.0-Fitness_1[i];        
 1059              		.loc 1 253 0 discriminator 3
 1060 0038 0A4E     		ldr	r6, .L63+4
 1061 003a 0199     		ldr	r1, [sp, #4]
 1062 003c A059     		ldr	r0, [r4, r6]
 1063 003e FFF7FEFF 		bl	__aeabi_fdiv
 1064              	.LVL119:
 1065 0042 011C     		adds	r1, r0, #0
 1066 0044 A051     		str	r0, [r4, r6]
 254:main.c        ****     }
 1067              		.loc 1 254 0 discriminator 3
 1068 0046 FE20     		movs	r0, #254
 1069 0048 8005     		lsls	r0, r0, #22
 1070 004a FFF7FEFF 		bl	__aeabi_fsub
 1071              	.LVL120:
 1072 004e A051     		str	r0, [r4, r6]
 250:main.c        ****         Fitness[i]=Fitness[i]/Valor_Maximo;
 1073              		.loc 1 250 0 discriminator 3
 1074 0050 0135     		adds	r5, r5, #1
 1075              	.LVL121:
 1076              	.L61:
 250:main.c        ****         Fitness[i]=Fitness[i]/Valor_Maximo;
 1077              		.loc 1 250 0 is_stmt 0 discriminator 1
 1078 0052 054B     		ldr	r3, .L63+8
 1079 0054 9B68     		ldr	r3, [r3, #8]
 1080 0056 9D42     		cmp	r5, r3
 1081 0058 E1DB     		blt	.L62
 256:main.c        **** 
 1082              		.loc 1 256 0 is_stmt 1
 1083 005a 03B0     		add	sp, sp, #12
 1084              		@ sp needed
 1085              	.LVL122:
 1086              	.LVL123:
 1087 005c F0BD     		pop	{r4, r5, r6, r7, pc}
 1088              	.L64:
 1089 005e C046     		.align	2
 1090              	.L63:
 1091 0060 00000000 		.word	Fitness
 1092 0064 00000000 		.word	Fitness_1
 1093 0068 00000000 		.word	.LANCHOR1
 1094              		.cfi_endproc
 1095              	.LFE50:
 1096              		.size	Normalizar, .-Normalizar
ARM GAS  C:\Users\HENRYA~1\AppData\Local\Temp\ccNfq1WN.s 			page 31


 1097              		.section	.text.Evaluar_Fitness,"ax",%progbits
 1098              		.align	2
 1099              		.global	Evaluar_Fitness
 1100              		.code	16
 1101              		.thumb_func
 1102              		.type	Evaluar_Fitness, %function
 1103              	Evaluar_Fitness:
 1104              	.LFB51:
 258:main.c        ****     Amplitud_V=Poblacion_1[0][i];
 1105              		.loc 1 258 0
 1106              		.cfi_startproc
 1107              		@ args = 0, pretend = 0, frame = 0
 1108              		@ frame_needed = 0, uses_anonymous_args = 0
 1109              	.LVL124:
 1110 0000 70B5     		push	{r4, r5, r6, lr}
 1111              		.cfi_def_cfa_offset 16
 1112              		.cfi_offset 4, -16
 1113              		.cfi_offset 5, -12
 1114              		.cfi_offset 6, -8
 1115              		.cfi_offset 14, -4
 259:main.c        ****     Amplitud_H=Poblacion_1[1][i];
 1116              		.loc 1 259 0
 1117 0002 1B4B     		ldr	r3, .L68
 1118 0004 8200     		lsls	r2, r0, #2
 1119 0006 D158     		ldr	r1, [r2, r3]
 1120 0008 1A4A     		ldr	r2, .L68+4
 1121 000a 5161     		str	r1, [r2, #20]
 260:main.c        ****     Fase=Poblacion_1[2][i];
 1122              		.loc 1 260 0
 1123 000c 0100     		movs	r1, r0
 1124 000e 0A31     		adds	r1, r1, #10
 1125 0010 8900     		lsls	r1, r1, #2
 1126 0012 C958     		ldr	r1, [r1, r3]
 1127 0014 1161     		str	r1, [r2, #16]
 261:main.c        ****     Offset_V=Poblacion_1[3][i];
 1128              		.loc 1 261 0
 1129 0016 0100     		movs	r1, r0
 1130 0018 1431     		adds	r1, r1, #20
 1131 001a 8900     		lsls	r1, r1, #2
 1132 001c C958     		ldr	r1, [r1, r3]
 1133 001e D160     		str	r1, [r2, #12]
 262:main.c        ****     Offset_H=Poblacion_1[4][i];    
 1134              		.loc 1 262 0
 1135 0020 0200     		movs	r2, r0
 1136 0022 1E32     		adds	r2, r2, #30
 1137 0024 9200     		lsls	r2, r2, #2
 1138 0026 D158     		ldr	r1, [r2, r3]
 1139 0028 134A     		ldr	r2, .L68+8
 1140 002a 5160     		str	r1, [r2, #4]
 263:main.c        ****         for(int i=0;i<5;i++){
 1141              		.loc 1 263 0
 1142 002c 2830     		adds	r0, r0, #40
 1143              	.LVL125:
 1144 002e 8000     		lsls	r0, r0, #2
 1145              	.LVL126:
 1146 0030 C358     		ldr	r3, [r0, r3]
 1147 0032 1360     		str	r3, [r2]
ARM GAS  C:\Users\HENRYA~1\AppData\Local\Temp\ccNfq1WN.s 			page 32


 1148              	.LVL127:
 1149              	.LBB3:
 264:main.c        ****             Enviar_Parametros(Amplitud_H,Fase,Offset_H,H);
 1150              		.loc 1 264 0
 1151 0034 0025     		movs	r5, #0
 1152 0036 18E0     		b	.L66
 1153              	.LVL128:
 1154              	.L67:
 265:main.c        ****             CyDelay(50);
 1155              		.loc 1 265 0 discriminator 3
 1156 0038 0F4E     		ldr	r6, .L68+8
 1157 003a 0E4C     		ldr	r4, .L68+4
 1158 003c 2023     		movs	r3, #32
 1159 003e 3268     		ldr	r2, [r6]
 1160 0040 E168     		ldr	r1, [r4, #12]
 1161 0042 2069     		ldr	r0, [r4, #16]
 1162 0044 FFF7FEFF 		bl	Enviar_Parametros
 1163              	.LVL129:
 266:main.c        ****             Enviar_Parametros(Amplitud_V,Fase,Offset_V,V);
 1164              		.loc 1 266 0 discriminator 3
 1165 0048 3220     		movs	r0, #50
 1166 004a FFF7FEFF 		bl	CyDelay
 1167              	.LVL130:
 267:main.c        ****             CyDelay(50);
 1168              		.loc 1 267 0 discriminator 3
 1169 004e 7268     		ldr	r2, [r6, #4]
 1170 0050 E168     		ldr	r1, [r4, #12]
 1171 0052 6069     		ldr	r0, [r4, #20]
 1172 0054 2123     		movs	r3, #33
 1173 0056 FFF7FEFF 		bl	Enviar_Parametros
 1174              	.LVL131:
 268:main.c        ****             Send_Angle(0,0);
 1175              		.loc 1 268 0 discriminator 3
 1176 005a 3220     		movs	r0, #50
 1177 005c FFF7FEFF 		bl	CyDelay
 1178              	.LVL132:
 269:main.c        ****         }   
 1179              		.loc 1 269 0 discriminator 3
 1180 0060 0021     		movs	r1, #0
 1181 0062 0020     		movs	r0, #0
 1182 0064 FFF7FEFF 		bl	Send_Angle
 1183              	.LVL133:
 264:main.c        ****             Enviar_Parametros(Amplitud_H,Fase,Offset_H,H);
 1184              		.loc 1 264 0 discriminator 3
 1185 0068 0135     		adds	r5, r5, #1
 1186              	.LVL134:
 1187              	.L66:
 264:main.c        ****             Enviar_Parametros(Amplitud_H,Fase,Offset_H,H);
 1188              		.loc 1 264 0 is_stmt 0 discriminator 1
 1189 006a 042D     		cmp	r5, #4
 1190 006c E4DD     		ble	.L67
 1191              	.LBE3:
 271:main.c        **** 
 1192              		.loc 1 271 0 is_stmt 1
 1193              		@ sp needed
 1194              	.LVL135:
 1195 006e 70BD     		pop	{r4, r5, r6, pc}
ARM GAS  C:\Users\HENRYA~1\AppData\Local\Temp\ccNfq1WN.s 			page 33


 1196              	.L69:
 1197              		.align	2
 1198              	.L68:
 1199 0070 00000000 		.word	Poblacion_1
 1200 0074 00000000 		.word	.LANCHOR0
 1201 0078 00000000 		.word	.LANCHOR1
 1202              		.cfi_endproc
 1203              	.LFE51:
 1204              		.size	Evaluar_Fitness, .-Evaluar_Fitness
 1205              		.section	.text.Espere,"ax",%progbits
 1206              		.align	2
 1207              		.global	Espere
 1208              		.code	16
 1209              		.thumb_func
 1210              		.type	Espere, %function
 1211              	Espere:
 1212              	.LFB52:
 273:main.c        ****     Amplitud_V=0.0;
 1213              		.loc 1 273 0
 1214              		.cfi_startproc
 1215              		@ args = 0, pretend = 0, frame = 0
 1216              		@ frame_needed = 0, uses_anonymous_args = 0
 1217 0000 70B5     		push	{r4, r5, r6, lr}
 1218              		.cfi_def_cfa_offset 16
 1219              		.cfi_offset 4, -16
 1220              		.cfi_offset 5, -12
 1221              		.cfi_offset 6, -8
 1222              		.cfi_offset 14, -4
 274:main.c        ****     Amplitud_H=0.0;
 1223              		.loc 1 274 0
 1224 0002 134B     		ldr	r3, .L73
 1225 0004 0022     		movs	r2, #0
 1226 0006 5A61     		str	r2, [r3, #20]
 275:main.c        ****     Fase=0.0;
 1227              		.loc 1 275 0
 1228 0008 1A61     		str	r2, [r3, #16]
 276:main.c        ****     Offset_V=0.833;
 1229              		.loc 1 276 0
 1230 000a DA60     		str	r2, [r3, #12]
 277:main.c        ****     Offset_H=0.833;
 1231              		.loc 1 277 0
 1232 000c 114B     		ldr	r3, .L73+4
 1233 000e 124A     		ldr	r2, .L73+8
 1234 0010 5A60     		str	r2, [r3, #4]
 278:main.c        ****         for(int i=0;i<5;i++){
 1235              		.loc 1 278 0
 1236 0012 1A60     		str	r2, [r3]
 1237              	.LVL136:
 1238              	.LBB4:
 279:main.c        ****             Enviar_Parametros(Amplitud_H,Fase,Offset_H,H);
 1239              		.loc 1 279 0
 1240 0014 0025     		movs	r5, #0
 1241 0016 18E0     		b	.L71
 1242              	.LVL137:
 1243              	.L72:
 280:main.c        ****             CyDelay(50);
 1244              		.loc 1 280 0 discriminator 3
ARM GAS  C:\Users\HENRYA~1\AppData\Local\Temp\ccNfq1WN.s 			page 34


 1245 0018 0E4E     		ldr	r6, .L73+4
 1246 001a 0D4C     		ldr	r4, .L73
 1247 001c 2023     		movs	r3, #32
 1248 001e 3268     		ldr	r2, [r6]
 1249 0020 E168     		ldr	r1, [r4, #12]
 1250 0022 2069     		ldr	r0, [r4, #16]
 1251 0024 FFF7FEFF 		bl	Enviar_Parametros
 1252              	.LVL138:
 281:main.c        ****             Enviar_Parametros(Amplitud_V,Fase,Offset_V,V);
 1253              		.loc 1 281 0 discriminator 3
 1254 0028 3220     		movs	r0, #50
 1255 002a FFF7FEFF 		bl	CyDelay
 1256              	.LVL139:
 282:main.c        ****             CyDelay(50);
 1257              		.loc 1 282 0 discriminator 3
 1258 002e 7268     		ldr	r2, [r6, #4]
 1259 0030 E168     		ldr	r1, [r4, #12]
 1260 0032 6069     		ldr	r0, [r4, #20]
 1261 0034 2123     		movs	r3, #33
 1262 0036 FFF7FEFF 		bl	Enviar_Parametros
 1263              	.LVL140:
 283:main.c        ****             Send_Angle(0,0);
 1264              		.loc 1 283 0 discriminator 3
 1265 003a 3220     		movs	r0, #50
 1266 003c FFF7FEFF 		bl	CyDelay
 1267              	.LVL141:
 284:main.c        ****         }   
 1268              		.loc 1 284 0 discriminator 3
 1269 0040 0021     		movs	r1, #0
 1270 0042 0020     		movs	r0, #0
 1271 0044 FFF7FEFF 		bl	Send_Angle
 1272              	.LVL142:
 279:main.c        ****             Enviar_Parametros(Amplitud_H,Fase,Offset_H,H);
 1273              		.loc 1 279 0 discriminator 3
 1274 0048 0135     		adds	r5, r5, #1
 1275              	.LVL143:
 1276              	.L71:
 279:main.c        ****             Enviar_Parametros(Amplitud_H,Fase,Offset_H,H);
 1277              		.loc 1 279 0 is_stmt 0 discriminator 1
 1278 004a 042D     		cmp	r5, #4
 1279 004c E4DD     		ble	.L72
 1280              	.LBE4:
 286:main.c        **** 
 1281              		.loc 1 286 0 is_stmt 1
 1282              		@ sp needed
 1283              	.LVL144:
 1284 004e 70BD     		pop	{r4, r5, r6, pc}
 1285              	.L74:
 1286              		.align	2
 1287              	.L73:
 1288 0050 00000000 		.word	.LANCHOR0
 1289 0054 00000000 		.word	.LANCHOR1
 1290 0058 7D3F553F 		.word	1062551421
 1291              		.cfi_endproc
 1292              	.LFE52:
 1293              		.size	Espere, .-Espere
 1294              		.global	__aeabi_fcmpgt
ARM GAS  C:\Users\HENRYA~1\AppData\Local\Temp\ccNfq1WN.s 			page 35


 1295              		.section	.text.Seleccion,"ax",%progbits
 1296              		.align	2
 1297              		.global	Seleccion
 1298              		.code	16
 1299              		.thumb_func
 1300              		.type	Seleccion, %function
 1301              	Seleccion:
 1302              	.LFB53:
 288:main.c        ****     int i=0,j=0;
 1303              		.loc 1 288 0
 1304              		.cfi_startproc
 1305              		@ args = 0, pretend = 0, frame = 0
 1306              		@ frame_needed = 0, uses_anonymous_args = 0
 1307 0000 F0B5     		push	{r4, r5, r6, r7, lr}
 1308              		.cfi_def_cfa_offset 20
 1309              		.cfi_offset 4, -20
 1310              		.cfi_offset 5, -16
 1311              		.cfi_offset 6, -12
 1312              		.cfi_offset 7, -8
 1313              		.cfi_offset 14, -4
 1314 0002 4746     		mov	r7, r8
 1315 0004 80B4     		push	{r7}
 1316              		.cfi_def_cfa_offset 24
 1317              		.cfi_offset 8, -24
 1318              	.LVL145:
 290:main.c        ****     bolita=0.0;
 1319              		.loc 1 290 0
 1320 0006 414B     		ldr	r3, .L86
 1321 0008 0022     		movs	r2, #0
 1322 000a 9A61     		str	r2, [r3, #24]
 291:main.c        ****     //Crear Vector de Seleccion
 1323              		.loc 1 291 0
 1324 000c DA61     		str	r2, [r3, #28]
 293:main.c        ****         Acu=Acu+Fitness[i];            
 1325              		.loc 1 293 0
 1326 000e 0024     		movs	r4, #0
 1327 0010 08E0     		b	.L76
 1328              	.LVL146:
 1329              	.L77:
 294:main.c        ****     }
 1330              		.loc 1 294 0 discriminator 3
 1331 0012 A200     		lsls	r2, r4, #2
 1332 0014 3E4B     		ldr	r3, .L86+4
 1333 0016 D058     		ldr	r0, [r2, r3]
 1334 0018 3C4D     		ldr	r5, .L86
 1335 001a A969     		ldr	r1, [r5, #24]
 1336 001c FFF7FEFF 		bl	__aeabi_fadd
 1337              	.LVL147:
 1338 0020 A861     		str	r0, [r5, #24]
 293:main.c        ****         Acu=Acu+Fitness[i];            
 1339              		.loc 1 293 0 discriminator 3
 1340 0022 0134     		adds	r4, r4, #1
 1341              	.LVL148:
 1342              	.L76:
 293:main.c        ****         Acu=Acu+Fitness[i];            
 1343              		.loc 1 293 0 is_stmt 0 discriminator 1
 1344 0024 3B4B     		ldr	r3, .L86+8
ARM GAS  C:\Users\HENRYA~1\AppData\Local\Temp\ccNfq1WN.s 			page 36


 1345 0026 9D68     		ldr	r5, [r3, #8]
 1346 0028 AC42     		cmp	r4, r5
 1347 002a F2DB     		blt	.L77
 1348 002c 0024     		movs	r4, #0
 1349              	.LVL149:
 1350 002e 09E0     		b	.L78
 1351              	.LVL150:
 1352              	.L79:
 297:main.c        ****     }    
 1353              		.loc 1 297 0 is_stmt 1 discriminator 3
 1354 0030 A600     		lsls	r6, r4, #2
 1355 0032 374B     		ldr	r3, .L86+4
 1356 0034 F058     		ldr	r0, [r6, r3]
 1357 0036 354B     		ldr	r3, .L86
 1358 0038 9969     		ldr	r1, [r3, #24]
 1359 003a FFF7FEFF 		bl	__aeabi_fdiv
 1360              	.LVL151:
 1361 003e 364B     		ldr	r3, .L86+12
 1362 0040 F050     		str	r0, [r6, r3]
 296:main.c        ****         Fitness_Normalizado[i]=Fitness[i]/Acu;            
 1363              		.loc 1 296 0 discriminator 3
 1364 0042 0134     		adds	r4, r4, #1
 1365              	.LVL152:
 1366              	.L78:
 296:main.c        ****         Fitness_Normalizado[i]=Fitness[i]/Acu;            
 1367              		.loc 1 296 0 is_stmt 0 discriminator 1
 1368 0044 AC42     		cmp	r4, r5
 1369 0046 F3DB     		blt	.L79
 1370 0048 0027     		movs	r7, #0
 1371 004a 1FE0     		b	.L80
 1372              	.LVL153:
 1373              	.L83:
 301:main.c        ****         Acu=0.0;
 1374              		.loc 1 301 0 is_stmt 1
 1375 004c FFF7FEFF 		bl	randd
 1376              	.LVL154:
 1377 0050 FFF7FEFF 		bl	__aeabi_d2f
 1378              	.LVL155:
 1379 0054 051C     		adds	r5, r0, #0
 1380 0056 2D4B     		ldr	r3, .L86
 1381 0058 D861     		str	r0, [r3, #28]
 302:main.c        ****         j=0;
 1382              		.loc 1 302 0
 1383 005a 0022     		movs	r2, #0
 1384 005c 9A61     		str	r2, [r3, #24]
 1385              	.LVL156:
 303:main.c        ****         while (Acu<bolita){
 1386              		.loc 1 303 0
 1387 005e 0024     		movs	r4, #0
 304:main.c        ****             Acu=Fitness_Normalizado[j]+Acu;
 1388              		.loc 1 304 0
 1389 0060 0BE0     		b	.L81
 1390              	.LVL157:
 1391              	.L82:
 305:main.c        ****             indice[i]=j;
 1392              		.loc 1 305 0
 1393 0062 A200     		lsls	r2, r4, #2
ARM GAS  C:\Users\HENRYA~1\AppData\Local\Temp\ccNfq1WN.s 			page 37


 1394 0064 2C4B     		ldr	r3, .L86+12
 1395 0066 D158     		ldr	r1, [r2, r3]
 1396 0068 301C     		adds	r0, r6, #0
 1397 006a FFF7FEFF 		bl	__aeabi_fadd
 1398              	.LVL158:
 1399 006e 274B     		ldr	r3, .L86
 1400 0070 9861     		str	r0, [r3, #24]
 306:main.c        ****             j++;
 1401              		.loc 1 306 0
 1402 0072 BB00     		lsls	r3, r7, #2
 1403 0074 294A     		ldr	r2, .L86+16
 1404 0076 9C50     		str	r4, [r3, r2]
 307:main.c        ****         }
 1405              		.loc 1 307 0
 1406 0078 0134     		adds	r4, r4, #1
 1407              	.LVL159:
 1408              	.L81:
 304:main.c        ****             Acu=Fitness_Normalizado[j]+Acu;
 1409              		.loc 1 304 0
 1410 007a 244B     		ldr	r3, .L86
 1411 007c 9E69     		ldr	r6, [r3, #24]
 1412 007e 311C     		adds	r1, r6, #0
 1413 0080 281C     		adds	r0, r5, #0
 1414 0082 FFF7FEFF 		bl	__aeabi_fcmpgt
 1415              	.LVL160:
 1416 0086 0028     		cmp	r0, #0
 1417 0088 EBD1     		bne	.L82
 300:main.c        ****         bolita=randd();
 1418              		.loc 1 300 0 discriminator 2
 1419 008a 0137     		adds	r7, r7, #1
 1420              	.LVL161:
 1421              	.L80:
 300:main.c        ****         bolita=randd();
 1422              		.loc 1 300 0 is_stmt 0 discriminator 1
 1423 008c 214B     		ldr	r3, .L86+8
 1424 008e 9E68     		ldr	r6, [r3, #8]
 1425 0090 B742     		cmp	r7, r6
 1426 0092 DBDB     		blt	.L83
 1427 0094 0022     		movs	r2, #0
 1428 0096 34E0     		b	.L84
 1429              	.LVL162:
 1430              	.L85:
 312:main.c        ****         Poblacion_1[1][i]=Poblacion[1][indice[i]];
 1431              		.loc 1 312 0 is_stmt 1 discriminator 3
 1432 0098 9400     		lsls	r4, r2, #2
 1433 009a 204B     		ldr	r3, .L86+16
 1434 009c E358     		ldr	r3, [r4, r3]
 1435 009e 2048     		ldr	r0, .L86+20
 1436 00a0 9900     		lsls	r1, r3, #2
 1437 00a2 8846     		mov	r8, r1
 1438 00a4 1F49     		ldr	r1, .L86+24
 1439 00a6 4546     		mov	r5, r8
 1440 00a8 2D58     		ldr	r5, [r5, r0]
 1441 00aa 6550     		str	r5, [r4, r1]
 313:main.c        ****         Poblacion_1[2][i]=Poblacion[2][indice[i]];
 1442              		.loc 1 313 0 discriminator 3
 1443 00ac 1D00     		movs	r5, r3
ARM GAS  C:\Users\HENRYA~1\AppData\Local\Temp\ccNfq1WN.s 			page 38


 1444 00ae 0A35     		adds	r5, r5, #10
 1445 00b0 AD00     		lsls	r5, r5, #2
 1446 00b2 2D58     		ldr	r5, [r5, r0]
 1447 00b4 AC46     		mov	ip, r5
 1448 00b6 1500     		movs	r5, r2
 1449 00b8 0A35     		adds	r5, r5, #10
 1450 00ba AD00     		lsls	r5, r5, #2
 1451 00bc 6746     		mov	r7, ip
 1452 00be 6F50     		str	r7, [r5, r1]
 314:main.c        ****         Poblacion_1[3][i]=Poblacion[3][indice[i]];
 1453              		.loc 1 314 0 discriminator 3
 1454 00c0 1D00     		movs	r5, r3
 1455 00c2 1435     		adds	r5, r5, #20
 1456 00c4 AD00     		lsls	r5, r5, #2
 1457 00c6 2D58     		ldr	r5, [r5, r0]
 1458 00c8 AC46     		mov	ip, r5
 1459 00ca 1500     		movs	r5, r2
 1460 00cc 1435     		adds	r5, r5, #20
 1461 00ce AD00     		lsls	r5, r5, #2
 1462 00d0 6746     		mov	r7, ip
 1463 00d2 6F50     		str	r7, [r5, r1]
 315:main.c        ****         Poblacion_1[4][i]=Poblacion[4][indice[i]];
 1464              		.loc 1 315 0 discriminator 3
 1465 00d4 1D00     		movs	r5, r3
 1466 00d6 1E35     		adds	r5, r5, #30
 1467 00d8 AD00     		lsls	r5, r5, #2
 1468 00da 2D58     		ldr	r5, [r5, r0]
 1469 00dc AC46     		mov	ip, r5
 1470 00de 1500     		movs	r5, r2
 1471 00e0 1E35     		adds	r5, r5, #30
 1472 00e2 AD00     		lsls	r5, r5, #2
 1473 00e4 6746     		mov	r7, ip
 1474 00e6 6F50     		str	r7, [r5, r1]
 316:main.c        ****         Fitness_1[i]=Fitness[indice[i]];
 1475              		.loc 1 316 0 discriminator 3
 1476 00e8 2833     		adds	r3, r3, #40
 1477 00ea 9B00     		lsls	r3, r3, #2
 1478 00ec 1858     		ldr	r0, [r3, r0]
 1479 00ee 1300     		movs	r3, r2
 1480 00f0 2833     		adds	r3, r3, #40
 1481 00f2 9B00     		lsls	r3, r3, #2
 1482 00f4 5850     		str	r0, [r3, r1]
 317:main.c        ****     }     
 1483              		.loc 1 317 0 discriminator 3
 1484 00f6 064B     		ldr	r3, .L86+4
 1485 00f8 4146     		mov	r1, r8
 1486 00fa C958     		ldr	r1, [r1, r3]
 1487 00fc 0A4B     		ldr	r3, .L86+28
 1488 00fe E150     		str	r1, [r4, r3]
 311:main.c        ****         Poblacion_1[0][i]=Poblacion[0][indice[i]];
 1489              		.loc 1 311 0 discriminator 3
 1490 0100 0132     		adds	r2, r2, #1
 1491              	.LVL163:
 1492              	.L84:
 311:main.c        ****         Poblacion_1[0][i]=Poblacion[0][indice[i]];
 1493              		.loc 1 311 0 is_stmt 0 discriminator 1
 1494 0102 B242     		cmp	r2, r6
ARM GAS  C:\Users\HENRYA~1\AppData\Local\Temp\ccNfq1WN.s 			page 39


 1495 0104 C8DB     		blt	.L85
 319:main.c        **** 
 1496              		.loc 1 319 0 is_stmt 1
 1497              		@ sp needed
 1498 0106 04BC     		pop	{r2}
 1499 0108 9046     		mov	r8, r2
 1500 010a F0BD     		pop	{r4, r5, r6, r7, pc}
 1501              	.L87:
 1502              		.align	2
 1503              	.L86:
 1504 010c 00000000 		.word	.LANCHOR0
 1505 0110 00000000 		.word	Fitness
 1506 0114 00000000 		.word	.LANCHOR1
 1507 0118 00000000 		.word	Fitness_Normalizado
 1508 011c 00000000 		.word	indice
 1509 0120 00000000 		.word	Poblacion
 1510 0124 00000000 		.word	Poblacion_1
 1511 0128 00000000 		.word	Fitness_1
 1512              		.cfi_endproc
 1513              	.LFE53:
 1514              		.size	Seleccion, .-Seleccion
 1515              		.section	.text.Saturador,"ax",%progbits
 1516              		.align	2
 1517              		.global	Saturador
 1518              		.code	16
 1519              		.thumb_func
 1520              		.type	Saturador, %function
 1521              	Saturador:
 1522              	.LFB54:
 321:main.c        ****     if(numero_comprobar>lim_sup){return lim_sup;}
 1523              		.loc 1 321 0
 1524              		.cfi_startproc
 1525              		@ args = 0, pretend = 0, frame = 0
 1526              		@ frame_needed = 0, uses_anonymous_args = 0
 1527              	.LVL164:
 1528 0000 70B5     		push	{r4, r5, r6, lr}
 1529              		.cfi_def_cfa_offset 16
 1530              		.cfi_offset 4, -16
 1531              		.cfi_offset 5, -12
 1532              		.cfi_offset 6, -8
 1533              		.cfi_offset 14, -4
 1534 0002 051C     		adds	r5, r0, #0
 1535 0004 0E1C     		adds	r6, r1, #0
 1536 0006 141C     		adds	r4, r2, #0
 322:main.c        ****     else if (numero_comprobar<lim_inf){return lim_inf;}
 1537              		.loc 1 322 0
 1538 0008 111C     		adds	r1, r2, #0
 1539              	.LVL165:
 1540 000a FFF7FEFF 		bl	__aeabi_fcmpgt
 1541              	.LVL166:
 1542 000e 0028     		cmp	r0, #0
 1543 0010 07D1     		bne	.L91
 323:main.c        ****     else{return numero_comprobar;}
 1544              		.loc 1 323 0
 1545 0012 311C     		adds	r1, r6, #0
 1546 0014 281C     		adds	r0, r5, #0
 1547 0016 FFF7FEFF 		bl	__aeabi_fcmplt
ARM GAS  C:\Users\HENRYA~1\AppData\Local\Temp\ccNfq1WN.s 			page 40


 1548              	.LVL167:
 1549 001a 0028     		cmp	r0, #0
 1550 001c 03D0     		beq	.L94
 1551 001e 301C     		adds	r0, r6, #0
 1552 0020 02E0     		b	.L89
 1553              	.L91:
 322:main.c        ****     else if (numero_comprobar<lim_inf){return lim_inf;}
 1554              		.loc 1 322 0
 1555 0022 201C     		adds	r0, r4, #0
 1556 0024 00E0     		b	.L89
 1557              	.L94:
 324:main.c        **** }
 1558              		.loc 1 324 0
 1559 0026 281C     		adds	r0, r5, #0
 1560              	.L89:
 325:main.c        **** 
 1561              		.loc 1 325 0
 1562              		@ sp needed
 1563              	.LVL168:
 1564              	.LVL169:
 1565              	.LVL170:
 1566 0028 70BD     		pop	{r4, r5, r6, pc}
 1567              		.cfi_endproc
 1568              	.LFE54:
 1569              		.size	Saturador, .-Saturador
 1570              		.global	__aeabi_dcmplt
 1571 002a C046     		.section	.text.reparacion,"ax",%progbits
 1572              		.align	2
 1573              		.global	reparacion
 1574              		.code	16
 1575              		.thumb_func
 1576              		.type	reparacion, %function
 1577              	reparacion:
 1578              	.LFB55:
 327:main.c        ****     if(randd()<0.5){
 1579              		.loc 1 327 0
 1580              		.cfi_startproc
 1581              		@ args = 0, pretend = 0, frame = 0
 1582              		@ frame_needed = 0, uses_anonymous_args = 0
 1583              	.LVL171:
 1584 0000 F8B5     		push	{r3, r4, r5, r6, r7, lr}
 1585              		.cfi_def_cfa_offset 24
 1586              		.cfi_offset 3, -24
 1587              		.cfi_offset 4, -20
 1588              		.cfi_offset 5, -16
 1589              		.cfi_offset 6, -12
 1590              		.cfi_offset 7, -8
 1591              		.cfi_offset 14, -4
 1592 0002 0400     		movs	r4, r0
 328:main.c        ****     Poblacion_1[0][Aux_ind] = Saturador(Poblacion_1[0][Aux_ind],0.0,0.2);      
 1593              		.loc 1 328 0
 1594 0004 FFF7FEFF 		bl	randd
 1595              	.LVL172:
 1596 0008 0022     		movs	r2, #0
 1597 000a 244B     		ldr	r3, .L101
 1598 000c FFF7FEFF 		bl	__aeabi_dcmplt
 1599              	.LVL173:
ARM GAS  C:\Users\HENRYA~1\AppData\Local\Temp\ccNfq1WN.s 			page 41


 1600 0010 0028     		cmp	r0, #0
 1601 0012 12D0     		beq	.L100
 329:main.c        ****     Poblacion_1[1][Aux_ind] = Saturador(Poblacion_1[1][Aux_ind],0.0,0.8);
 1602              		.loc 1 329 0
 1603 0014 0027     		movs	r7, #0
 1604 0016 224D     		ldr	r5, .L101+4
 1605 0018 A600     		lsls	r6, r4, #2
 1606 001a 224A     		ldr	r2, .L101+8
 1607 001c 391C     		adds	r1, r7, #0
 1608 001e 7059     		ldr	r0, [r6, r5]
 1609 0020 FFF7FEFF 		bl	Saturador
 1610              	.LVL174:
 1611 0024 7051     		str	r0, [r6, r5]
 330:main.c        ****     }
 1612              		.loc 1 330 0
 1613 0026 2600     		movs	r6, r4
 1614 0028 0A36     		adds	r6, r6, #10
 1615 002a B600     		lsls	r6, r6, #2
 1616 002c 1E4A     		ldr	r2, .L101+12
 1617 002e 391C     		adds	r1, r7, #0
 1618 0030 7059     		ldr	r0, [r6, r5]
 1619 0032 FFF7FEFF 		bl	Saturador
 1620              	.LVL175:
 1621 0036 7051     		str	r0, [r6, r5]
 1622 0038 11E0     		b	.L98
 1623              	.L100:
 333:main.c        ****     Poblacion_1[1][Aux_ind] = Saturador(Poblacion_1[1][Aux_ind],0.0,0.2);
 1624              		.loc 1 333 0
 1625 003a 0027     		movs	r7, #0
 1626 003c 184D     		ldr	r5, .L101+4
 1627 003e A600     		lsls	r6, r4, #2
 1628 0040 194A     		ldr	r2, .L101+12
 1629 0042 391C     		adds	r1, r7, #0
 1630 0044 7059     		ldr	r0, [r6, r5]
 1631 0046 FFF7FEFF 		bl	Saturador
 1632              	.LVL176:
 1633 004a 7051     		str	r0, [r6, r5]
 334:main.c        ****     }    
 1634              		.loc 1 334 0
 1635 004c 2600     		movs	r6, r4
 1636 004e 0A36     		adds	r6, r6, #10
 1637 0050 B600     		lsls	r6, r6, #2
 1638 0052 144A     		ldr	r2, .L101+8
 1639 0054 391C     		adds	r1, r7, #0
 1640 0056 7059     		ldr	r0, [r6, r5]
 1641 0058 FFF7FEFF 		bl	Saturador
 1642              	.LVL177:
 1643 005c 7051     		str	r0, [r6, r5]
 1644              	.L98:
 336:main.c        ****     Poblacion_1[3][Aux_ind] = Saturador(Poblacion_1[3][Aux_ind],(0.833-0.3),(0.833+0.3));
 1645              		.loc 1 336 0
 1646 005e 104F     		ldr	r7, .L101+4
 1647 0060 2500     		movs	r5, r4
 1648 0062 1435     		adds	r5, r5, #20
 1649 0064 AD00     		lsls	r5, r5, #2
 1650 0066 FE22     		movs	r2, #254
 1651 0068 9205     		lsls	r2, r2, #22
ARM GAS  C:\Users\HENRYA~1\AppData\Local\Temp\ccNfq1WN.s 			page 42


 1652 006a 1049     		ldr	r1, .L101+16
 1653 006c E859     		ldr	r0, [r5, r7]
 1654 006e FFF7FEFF 		bl	Saturador
 1655              	.LVL178:
 1656 0072 E851     		str	r0, [r5, r7]
 337:main.c        ****     Poblacion_1[4][Aux_ind] = Saturador(Poblacion_1[4][Aux_ind],(0.833-0.3),(0.833+0.3));
 1657              		.loc 1 337 0
 1658 0074 0E4E     		ldr	r6, .L101+20
 1659 0076 2300     		movs	r3, r4
 1660 0078 1E33     		adds	r3, r3, #30
 1661 007a 9D00     		lsls	r5, r3, #2
 1662 007c 321C     		adds	r2, r6, #0
 1663 007e 0D49     		ldr	r1, .L101+24
 1664 0080 E859     		ldr	r0, [r5, r7]
 1665 0082 FFF7FEFF 		bl	Saturador
 1666              	.LVL179:
 1667 0086 E851     		str	r0, [r5, r7]
 338:main.c        **** }
 1668              		.loc 1 338 0
 1669 0088 2834     		adds	r4, r4, #40
 1670              	.LVL180:
 1671 008a A400     		lsls	r4, r4, #2
 1672              	.LVL181:
 1673 008c 321C     		adds	r2, r6, #0
 1674 008e 0949     		ldr	r1, .L101+24
 1675 0090 E059     		ldr	r0, [r4, r7]
 1676 0092 FFF7FEFF 		bl	Saturador
 1677              	.LVL182:
 1678 0096 E051     		str	r0, [r4, r7]
 339:main.c        **** 
 1679              		.loc 1 339 0
 1680              		@ sp needed
 1681 0098 F8BD     		pop	{r3, r4, r5, r6, r7, pc}
 1682              	.L102:
 1683 009a C046     		.align	2
 1684              	.L101:
 1685 009c 0000E03F 		.word	1071644672
 1686 00a0 00000000 		.word	Poblacion_1
 1687 00a4 CDCC4C3E 		.word	1045220557
 1688 00a8 CDCC4C3F 		.word	1061997773
 1689 00ac 000080BF 		.word	-1082130432
 1690 00b0 2506913F 		.word	1066468901
 1691 00b4 B072083F 		.word	1057518256
 1692              		.cfi_endproc
 1693              	.LFE55:
 1694              		.size	reparacion, .-reparacion
 1695              		.global	__aeabi_d2iz
 1696              		.section	.text.Cruce,"ax",%progbits
 1697              		.align	2
 1698              		.global	Cruce
 1699              		.code	16
 1700              		.thumb_func
 1701              		.type	Cruce, %function
 1702              	Cruce:
 1703              	.LFB56:
 341:main.c        ****     int papa=(int)Individuos*randd();
 1704              		.loc 1 341 0
ARM GAS  C:\Users\HENRYA~1\AppData\Local\Temp\ccNfq1WN.s 			page 43


 1705              		.cfi_startproc
 1706              		@ args = 0, pretend = 0, frame = 24
 1707              		@ frame_needed = 0, uses_anonymous_args = 0
 1708 0000 F0B5     		push	{r4, r5, r6, r7, lr}
 1709              		.cfi_def_cfa_offset 20
 1710              		.cfi_offset 4, -20
 1711              		.cfi_offset 5, -16
 1712              		.cfi_offset 6, -12
 1713              		.cfi_offset 7, -8
 1714              		.cfi_offset 14, -4
 1715 0002 4F46     		mov	r7, r9
 1716 0004 4646     		mov	r6, r8
 1717 0006 C0B4     		push	{r6, r7}
 1718              		.cfi_def_cfa_offset 28
 1719              		.cfi_offset 8, -28
 1720              		.cfi_offset 9, -24
 1721 0008 87B0     		sub	sp, sp, #28
 1722              		.cfi_def_cfa_offset 56
 342:main.c        ****     int mama=(int)Individuos*randd();
 1723              		.loc 1 342 0
 1724 000a 394C     		ldr	r4, .L106
 1725 000c A068     		ldr	r0, [r4, #8]
 1726 000e FFF7FEFF 		bl	__aeabi_i2d
 1727              	.LVL183:
 1728 0012 0600     		movs	r6, r0
 1729 0014 0F00     		movs	r7, r1
 1730 0016 FFF7FEFF 		bl	randd
 1731              	.LVL184:
 1732 001a 0200     		movs	r2, r0
 1733 001c 0B00     		movs	r3, r1
 1734 001e 3000     		movs	r0, r6
 1735 0020 3900     		movs	r1, r7
 1736 0022 FFF7FEFF 		bl	__aeabi_dmul
 1737              	.LVL185:
 1738 0026 FFF7FEFF 		bl	__aeabi_d2iz
 1739              	.LVL186:
 1740 002a 8146     		mov	r9, r0
 1741              	.LVL187:
 343:main.c        ****     for (int i=0; i<5; i++) {
 1742              		.loc 1 343 0
 1743 002c A068     		ldr	r0, [r4, #8]
 1744              	.LVL188:
 1745 002e FFF7FEFF 		bl	__aeabi_i2d
 1746              	.LVL189:
 1747 0032 0400     		movs	r4, r0
 1748 0034 0D00     		movs	r5, r1
 1749 0036 FFF7FEFF 		bl	randd
 1750              	.LVL190:
 1751 003a 0200     		movs	r2, r0
 1752 003c 0B00     		movs	r3, r1
 1753 003e 2000     		movs	r0, r4
 1754 0040 2900     		movs	r1, r5
 1755 0042 FFF7FEFF 		bl	__aeabi_dmul
 1756              	.LVL191:
 1757 0046 FFF7FEFF 		bl	__aeabi_d2iz
 1758              	.LVL192:
 1759 004a 8046     		mov	r8, r0
ARM GAS  C:\Users\HENRYA~1\AppData\Local\Temp\ccNfq1WN.s 			page 44


 1760              	.LVL193:
 1761              	.LBB5:
 344:main.c        ****         float alpha = randd();
 1762              		.loc 1 344 0
 1763 004c 0025     		movs	r5, #0
 1764 004e 41E0     		b	.L104
 1765              	.LVL194:
 1766              	.L105:
 1767              	.LBB6:
 345:main.c        ****         float alpha_1 = randd();
 1768              		.loc 1 345 0 discriminator 3
 1769 0050 FFF7FEFF 		bl	randd
 1770              	.LVL195:
 1771 0054 FFF7FEFF 		bl	__aeabi_d2f
 1772              	.LVL196:
 1773 0058 061C     		adds	r6, r0, #0
 1774              	.LVL197:
 346:main.c        ****         float neg_alpha = 1.0 - alpha;
 1775              		.loc 1 346 0 discriminator 3
 1776 005a FFF7FEFF 		bl	randd
 1777              	.LVL198:
 1778 005e FFF7FEFF 		bl	__aeabi_d2f
 1779              	.LVL199:
 1780 0062 041C     		adds	r4, r0, #0
 1781              	.LVL200:
 347:main.c        ****         float neg_alpha_1 = 1.0 - alpha_1;
 1782              		.loc 1 347 0 discriminator 3
 1783 0064 0296     		str	r6, [sp, #8]
 1784 0066 311C     		adds	r1, r6, #0
 1785 0068 FE20     		movs	r0, #254
 1786              	.LVL201:
 1787 006a 8005     		lsls	r0, r0, #22
 1788 006c FFF7FEFF 		bl	__aeabi_fsub
 1789              	.LVL202:
 1790 0070 0490     		str	r0, [sp, #16]
 1791              	.LVL203:
 348:main.c        ****         float tx;
 1792              		.loc 1 348 0 discriminator 3
 1793 0072 0394     		str	r4, [sp, #12]
 1794 0074 211C     		adds	r1, r4, #0
 1795 0076 FE20     		movs	r0, #254
 1796              	.LVL204:
 1797 0078 8005     		lsls	r0, r0, #22
 1798 007a FFF7FEFF 		bl	__aeabi_fsub
 1799              	.LVL205:
 1800 007e 0590     		str	r0, [sp, #20]
 1801              	.LVL206:
 351:main.c        ****         ty = Poblacion_1[i][mama];
 1802              		.loc 1 351 0 discriminator 3
 1803 0080 1C4F     		ldr	r7, .L106+4
 1804 0082 AB00     		lsls	r3, r5, #2
 1805 0084 5919     		adds	r1, r3, r5
 1806 0086 4A00     		lsls	r2, r1, #1
 1807 0088 4A44     		add	r2, r2, r9
 1808 008a 9600     		lsls	r6, r2, #2
 1809              	.LVL207:
 1810 008c F259     		ldr	r2, [r6, r7]
ARM GAS  C:\Users\HENRYA~1\AppData\Local\Temp\ccNfq1WN.s 			page 45


 1811              	.LVL208:
 352:main.c        ****         Poblacion_1[i][papa] = alpha * tx + neg_alpha * ty;
 1812              		.loc 1 352 0 discriminator 3
 1813 008e 4C00     		lsls	r4, r1, #1
 1814              	.LVL209:
 1815 0090 4444     		add	r4, r4, r8
 1816 0092 A400     		lsls	r4, r4, #2
 1817 0094 E359     		ldr	r3, [r4, r7]
 1818 0096 0093     		str	r3, [sp]
 1819              	.LVL210:
 353:main.c        ****         Poblacion_1[i][mama] = alpha_1 * tx + neg_alpha_1 * ty;
 1820              		.loc 1 353 0 discriminator 3
 1821 0098 0192     		str	r2, [sp, #4]
 1822 009a 111C     		adds	r1, r2, #0
 1823 009c 0298     		ldr	r0, [sp, #8]
 1824              	.LVL211:
 1825 009e FFF7FEFF 		bl	__aeabi_fmul
 1826              	.LVL212:
 1827 00a2 0290     		str	r0, [sp, #8]
 1828              	.LVL213:
 1829 00a4 0099     		ldr	r1, [sp]
 1830 00a6 0498     		ldr	r0, [sp, #16]
 1831 00a8 FFF7FEFF 		bl	__aeabi_fmul
 1832              	.LVL214:
 1833 00ac 011C     		adds	r1, r0, #0
 1834 00ae 0298     		ldr	r0, [sp, #8]
 1835 00b0 FFF7FEFF 		bl	__aeabi_fadd
 1836              	.LVL215:
 1837 00b4 F051     		str	r0, [r6, r7]
 354:main.c        ****     } 
 1838              		.loc 1 354 0 discriminator 3
 1839 00b6 0199     		ldr	r1, [sp, #4]
 1840 00b8 0398     		ldr	r0, [sp, #12]
 1841 00ba FFF7FEFF 		bl	__aeabi_fmul
 1842              	.LVL216:
 1843 00be 061C     		adds	r6, r0, #0
 1844 00c0 0099     		ldr	r1, [sp]
 1845 00c2 0598     		ldr	r0, [sp, #20]
 1846 00c4 FFF7FEFF 		bl	__aeabi_fmul
 1847              	.LVL217:
 1848 00c8 011C     		adds	r1, r0, #0
 1849 00ca 301C     		adds	r0, r6, #0
 1850 00cc FFF7FEFF 		bl	__aeabi_fadd
 1851              	.LVL218:
 1852 00d0 E051     		str	r0, [r4, r7]
 1853              	.LBE6:
 344:main.c        ****         float alpha = randd();
 1854              		.loc 1 344 0 discriminator 3
 1855 00d2 0135     		adds	r5, r5, #1
 1856              	.LVL219:
 1857              	.L104:
 344:main.c        ****         float alpha = randd();
 1858              		.loc 1 344 0 is_stmt 0 discriminator 1
 1859 00d4 042D     		cmp	r5, #4
 1860 00d6 BBDD     		ble	.L105
 1861              	.LBE5:
 356:main.c        ****     reparacion(mama);
ARM GAS  C:\Users\HENRYA~1\AppData\Local\Temp\ccNfq1WN.s 			page 46


 1862              		.loc 1 356 0 is_stmt 1
 1863 00d8 4846     		mov	r0, r9
 1864 00da FFF7FEFF 		bl	reparacion
 1865              	.LVL220:
 357:main.c        **** }
 1866              		.loc 1 357 0
 1867 00de 4046     		mov	r0, r8
 1868 00e0 FFF7FEFF 		bl	reparacion
 1869              	.LVL221:
 358:main.c        **** 
 1870              		.loc 1 358 0
 1871 00e4 07B0     		add	sp, sp, #28
 1872              		@ sp needed
 1873              	.LVL222:
 1874              	.LVL223:
 1875              	.LVL224:
 1876 00e6 0CBC     		pop	{r2, r3}
 1877 00e8 9046     		mov	r8, r2
 1878 00ea 9946     		mov	r9, r3
 1879 00ec F0BD     		pop	{r4, r5, r6, r7, pc}
 1880              	.L107:
 1881 00ee C046     		.align	2
 1882              	.L106:
 1883 00f0 00000000 		.word	.LANCHOR1
 1884 00f4 00000000 		.word	Poblacion_1
 1885              		.cfi_endproc
 1886              	.LFE56:
 1887              		.size	Cruce, .-Cruce
 1888              		.section	.text.Mutacion,"ax",%progbits
 1889              		.align	2
 1890              		.global	Mutacion
 1891              		.code	16
 1892              		.thumb_func
 1893              		.type	Mutacion, %function
 1894              	Mutacion:
 1895              	.LFB57:
 360:main.c        ****     int Selector=(int)Individuos*randd();
 1896              		.loc 1 360 0
 1897              		.cfi_startproc
 1898              		@ args = 0, pretend = 0, frame = 8
 1899              		@ frame_needed = 0, uses_anonymous_args = 0
 1900 0000 F0B5     		push	{r4, r5, r6, r7, lr}
 1901              		.cfi_def_cfa_offset 20
 1902              		.cfi_offset 4, -20
 1903              		.cfi_offset 5, -16
 1904              		.cfi_offset 6, -12
 1905              		.cfi_offset 7, -8
 1906              		.cfi_offset 14, -4
 1907 0002 5746     		mov	r7, r10
 1908 0004 80B4     		push	{r7}
 1909              		.cfi_def_cfa_offset 24
 1910              		.cfi_offset 10, -24
 1911 0006 82B0     		sub	sp, sp, #8
 1912              		.cfi_def_cfa_offset 32
 361:main.c        ****     int componente=(int)randd()*4;
 1913              		.loc 1 361 0
 1914 0008 554B     		ldr	r3, .L114
ARM GAS  C:\Users\HENRYA~1\AppData\Local\Temp\ccNfq1WN.s 			page 47


 1915 000a 9868     		ldr	r0, [r3, #8]
 1916 000c FFF7FEFF 		bl	__aeabi_i2d
 1917              	.LVL225:
 1918 0010 0400     		movs	r4, r0
 1919 0012 0D00     		movs	r5, r1
 1920 0014 FFF7FEFF 		bl	randd
 1921              	.LVL226:
 1922 0018 0200     		movs	r2, r0
 1923 001a 0B00     		movs	r3, r1
 1924 001c 2000     		movs	r0, r4
 1925 001e 2900     		movs	r1, r5
 1926 0020 FFF7FEFF 		bl	__aeabi_dmul
 1927              	.LVL227:
 1928 0024 FFF7FEFF 		bl	__aeabi_d2iz
 1929              	.LVL228:
 1930 0028 0400     		movs	r4, r0
 1931              	.LVL229:
 362:main.c        ****     if(componente==0){Poblacion_1[componente][Selector]=Poblacion_1[componente][Selector]+random_ga
 1932              		.loc 1 362 0
 1933 002a FFF7FEFF 		bl	randd
 1934              	.LVL230:
 1935 002e FFF7FEFF 		bl	__aeabi_d2iz
 1936              	.LVL231:
 1937 0032 8500     		lsls	r5, r0, #2
 1938              	.LVL232:
 363:main.c        ****     else if(componente==1){Poblacion_1[componente][Selector]=Poblacion_1[componente][Selector]+rand
 1939              		.loc 1 363 0
 1940 0034 1AD1     		bne	.L109
 363:main.c        ****     else if(componente==1){Poblacion_1[componente][Selector]=Poblacion_1[componente][Selector]+rand
 1941              		.loc 1 363 0 is_stmt 0 discriminator 1
 1942 0036 4B4E     		ldr	r6, .L114+4
 1943 0038 AF00     		lsls	r7, r5, #2
 1944 003a 7A19     		adds	r2, r7, r5
 1945 003c 5300     		lsls	r3, r2, #1
 1946 003e 1B19     		adds	r3, r3, r4
 1947 0040 9B00     		lsls	r3, r3, #2
 1948 0042 9B59     		ldr	r3, [r3, r6]
 1949 0044 9A46     		mov	r10, r3
 1950 0046 FFF7FEFF 		bl	random_gauss
 1951              	.LVL233:
 1952 004a 0090     		str	r0, [sp]
 1953 004c 0191     		str	r1, [sp, #4]
 1954 004e 5046     		mov	r0, r10
 1955 0050 FFF7FEFF 		bl	__aeabi_f2d
 1956              	.LVL234:
 1957 0054 009A     		ldr	r2, [sp]
 1958 0056 019B     		ldr	r3, [sp, #4]
 1959 0058 FFF7FEFF 		bl	__aeabi_dadd
 1960              	.LVL235:
 1961 005c 7D19     		adds	r5, r7, r5
 1962              	.LVL236:
 1963 005e 6B00     		lsls	r3, r5, #1
 1964 0060 1B19     		adds	r3, r3, r4
 1965 0062 9D00     		lsls	r5, r3, #2
 1966 0064 FFF7FEFF 		bl	__aeabi_d2f
 1967              	.LVL237:
 1968 0068 A851     		str	r0, [r5, r6]
ARM GAS  C:\Users\HENRYA~1\AppData\Local\Temp\ccNfq1WN.s 			page 48


 1969 006a 72E0     		b	.L110
 1970              	.LVL238:
 1971              	.L109:
 364:main.c        ****     else if(componente==2){Poblacion_1[componente][Selector]=Poblacion_1[componente][Selector]+rand
 1972              		.loc 1 364 0 is_stmt 1
 1973 006c 012D     		cmp	r5, #1
 1974 006e 1AD1     		bne	.L111
 364:main.c        ****     else if(componente==2){Poblacion_1[componente][Selector]=Poblacion_1[componente][Selector]+rand
 1975              		.loc 1 364 0 is_stmt 0 discriminator 1
 1976 0070 3C4E     		ldr	r6, .L114+4
 1977 0072 AF00     		lsls	r7, r5, #2
 1978 0074 7A19     		adds	r2, r7, r5
 1979 0076 5300     		lsls	r3, r2, #1
 1980 0078 1B19     		adds	r3, r3, r4
 1981 007a 9B00     		lsls	r3, r3, #2
 1982 007c 9B59     		ldr	r3, [r3, r6]
 1983 007e 9A46     		mov	r10, r3
 1984 0080 FFF7FEFF 		bl	random_gauss
 1985              	.LVL239:
 1986 0084 0090     		str	r0, [sp]
 1987 0086 0191     		str	r1, [sp, #4]
 1988 0088 5046     		mov	r0, r10
 1989 008a FFF7FEFF 		bl	__aeabi_f2d
 1990              	.LVL240:
 1991 008e 009A     		ldr	r2, [sp]
 1992 0090 019B     		ldr	r3, [sp, #4]
 1993 0092 FFF7FEFF 		bl	__aeabi_dadd
 1994              	.LVL241:
 1995 0096 7D19     		adds	r5, r7, r5
 1996              	.LVL242:
 1997 0098 6B00     		lsls	r3, r5, #1
 1998 009a 1B19     		adds	r3, r3, r4
 1999 009c 9D00     		lsls	r5, r3, #2
 2000 009e FFF7FEFF 		bl	__aeabi_d2f
 2001              	.LVL243:
 2002 00a2 A851     		str	r0, [r5, r6]
 2003 00a4 55E0     		b	.L110
 2004              	.LVL244:
 2005              	.L111:
 365:main.c        ****     else if(componente==3){Poblacion_1[componente][Selector]=Poblacion_1[componente][Selector]+rand
 2006              		.loc 1 365 0 is_stmt 1
 2007 00a6 022D     		cmp	r5, #2
 2008 00a8 1AD1     		bne	.L112
 365:main.c        ****     else if(componente==3){Poblacion_1[componente][Selector]=Poblacion_1[componente][Selector]+rand
 2009              		.loc 1 365 0 is_stmt 0 discriminator 1
 2010 00aa 2E4E     		ldr	r6, .L114+4
 2011 00ac AF00     		lsls	r7, r5, #2
 2012 00ae 7A19     		adds	r2, r7, r5
 2013 00b0 5300     		lsls	r3, r2, #1
 2014 00b2 1B19     		adds	r3, r3, r4
 2015 00b4 9B00     		lsls	r3, r3, #2
 2016 00b6 9B59     		ldr	r3, [r3, r6]
 2017 00b8 9A46     		mov	r10, r3
 2018 00ba FFF7FEFF 		bl	random_gauss
 2019              	.LVL245:
 2020 00be 0090     		str	r0, [sp]
 2021 00c0 0191     		str	r1, [sp, #4]
ARM GAS  C:\Users\HENRYA~1\AppData\Local\Temp\ccNfq1WN.s 			page 49


 2022 00c2 5046     		mov	r0, r10
 2023 00c4 FFF7FEFF 		bl	__aeabi_f2d
 2024              	.LVL246:
 2025 00c8 009A     		ldr	r2, [sp]
 2026 00ca 019B     		ldr	r3, [sp, #4]
 2027 00cc FFF7FEFF 		bl	__aeabi_dadd
 2028              	.LVL247:
 2029 00d0 7D19     		adds	r5, r7, r5
 2030              	.LVL248:
 2031 00d2 6B00     		lsls	r3, r5, #1
 2032 00d4 1B19     		adds	r3, r3, r4
 2033 00d6 9D00     		lsls	r5, r3, #2
 2034 00d8 FFF7FEFF 		bl	__aeabi_d2f
 2035              	.LVL249:
 2036 00dc A851     		str	r0, [r5, r6]
 2037 00de 38E0     		b	.L110
 2038              	.LVL250:
 2039              	.L112:
 366:main.c        ****     else if(componente==4){Poblacion_1[componente][Selector]=Poblacion_1[componente][Selector]+rand
 2040              		.loc 1 366 0 is_stmt 1
 2041 00e0 032D     		cmp	r5, #3
 2042 00e2 1AD1     		bne	.L113
 366:main.c        ****     else if(componente==4){Poblacion_1[componente][Selector]=Poblacion_1[componente][Selector]+rand
 2043              		.loc 1 366 0 is_stmt 0 discriminator 1
 2044 00e4 1F4E     		ldr	r6, .L114+4
 2045 00e6 AF00     		lsls	r7, r5, #2
 2046 00e8 7A19     		adds	r2, r7, r5
 2047 00ea 5300     		lsls	r3, r2, #1
 2048 00ec 1B19     		adds	r3, r3, r4
 2049 00ee 9B00     		lsls	r3, r3, #2
 2050 00f0 9B59     		ldr	r3, [r3, r6]
 2051 00f2 9A46     		mov	r10, r3
 2052 00f4 FFF7FEFF 		bl	random_gauss
 2053              	.LVL251:
 2054 00f8 0090     		str	r0, [sp]
 2055 00fa 0191     		str	r1, [sp, #4]
 2056 00fc 5046     		mov	r0, r10
 2057 00fe FFF7FEFF 		bl	__aeabi_f2d
 2058              	.LVL252:
 2059 0102 009A     		ldr	r2, [sp]
 2060 0104 019B     		ldr	r3, [sp, #4]
 2061 0106 FFF7FEFF 		bl	__aeabi_dadd
 2062              	.LVL253:
 2063 010a 7D19     		adds	r5, r7, r5
 2064              	.LVL254:
 2065 010c 6B00     		lsls	r3, r5, #1
 2066 010e 1B19     		adds	r3, r3, r4
 2067 0110 9D00     		lsls	r5, r3, #2
 2068 0112 FFF7FEFF 		bl	__aeabi_d2f
 2069              	.LVL255:
 2070 0116 A851     		str	r0, [r5, r6]
 2071 0118 1BE0     		b	.L110
 2072              	.LVL256:
 2073              	.L113:
 367:main.c        ****     reparacion(Selector);
 2074              		.loc 1 367 0 is_stmt 1
 2075 011a 042D     		cmp	r5, #4
ARM GAS  C:\Users\HENRYA~1\AppData\Local\Temp\ccNfq1WN.s 			page 50


 2076 011c 19D1     		bne	.L110
 367:main.c        ****     reparacion(Selector);
 2077              		.loc 1 367 0 is_stmt 0 discriminator 1
 2078 011e 114E     		ldr	r6, .L114+4
 2079 0120 AF00     		lsls	r7, r5, #2
 2080 0122 7A19     		adds	r2, r7, r5
 2081 0124 5300     		lsls	r3, r2, #1
 2082 0126 1B19     		adds	r3, r3, r4
 2083 0128 9B00     		lsls	r3, r3, #2
 2084 012a 9B59     		ldr	r3, [r3, r6]
 2085 012c 9A46     		mov	r10, r3
 2086 012e FFF7FEFF 		bl	random_gauss
 2087              	.LVL257:
 2088 0132 0090     		str	r0, [sp]
 2089 0134 0191     		str	r1, [sp, #4]
 2090 0136 5046     		mov	r0, r10
 2091 0138 FFF7FEFF 		bl	__aeabi_f2d
 2092              	.LVL258:
 2093 013c 009A     		ldr	r2, [sp]
 2094 013e 019B     		ldr	r3, [sp, #4]
 2095 0140 FFF7FEFF 		bl	__aeabi_dadd
 2096              	.LVL259:
 2097 0144 7D19     		adds	r5, r7, r5
 2098              	.LVL260:
 2099 0146 6B00     		lsls	r3, r5, #1
 2100 0148 1B19     		adds	r3, r3, r4
 2101 014a 9D00     		lsls	r5, r3, #2
 2102 014c FFF7FEFF 		bl	__aeabi_d2f
 2103              	.LVL261:
 2104 0150 A851     		str	r0, [r5, r6]
 2105              	.L110:
 368:main.c        **** }
 2106              		.loc 1 368 0 is_stmt 1
 2107 0152 2000     		movs	r0, r4
 2108 0154 FFF7FEFF 		bl	reparacion
 2109              	.LVL262:
 369:main.c        **** 
 2110              		.loc 1 369 0
 2111 0158 02B0     		add	sp, sp, #8
 2112              		@ sp needed
 2113              	.LVL263:
 2114 015a 04BC     		pop	{r2}
 2115 015c 9246     		mov	r10, r2
 2116 015e F0BD     		pop	{r4, r5, r6, r7, pc}
 2117              	.L115:
 2118              		.align	2
 2119              	.L114:
 2120 0160 00000000 		.word	.LANCHOR1
 2121 0164 00000000 		.word	Poblacion_1
 2122              		.cfi_endproc
 2123              	.LFE57:
 2124              		.size	Mutacion, .-Mutacion
 2125              		.section	.text.Reemplazo_Generacional,"ax",%progbits
 2126              		.align	2
 2127              		.global	Reemplazo_Generacional
 2128              		.code	16
 2129              		.thumb_func
ARM GAS  C:\Users\HENRYA~1\AppData\Local\Temp\ccNfq1WN.s 			page 51


 2130              		.type	Reemplazo_Generacional, %function
 2131              	Reemplazo_Generacional:
 2132              	.LFB58:
 371:main.c        ****     int i=0;
 2133              		.loc 1 371 0
 2134              		.cfi_startproc
 2135              		@ args = 0, pretend = 0, frame = 0
 2136              		@ frame_needed = 0, uses_anonymous_args = 0
 2137 0000 10B5     		push	{r4, lr}
 2138              		.cfi_def_cfa_offset 8
 2139              		.cfi_offset 4, -8
 2140              		.cfi_offset 14, -4
 2141              	.LVL264:
 373:main.c        ****         if(Fitness_1[i]<Fitness[i]){
 2142              		.loc 1 373 0
 2143 0002 0024     		movs	r4, #0
 2144 0004 22E0     		b	.L117
 2145              	.LVL265:
 2146              	.L120:
 374:main.c        ****             Poblacion[0][i]=Poblacion_1[0][i];
 2147              		.loc 1 374 0
 2148 0006 A300     		lsls	r3, r4, #2
 2149 0008 134A     		ldr	r2, .L122
 2150 000a 9858     		ldr	r0, [r3, r2]
 2151 000c 134A     		ldr	r2, .L122+4
 2152 000e 9958     		ldr	r1, [r3, r2]
 2153 0010 FFF7FEFF 		bl	__aeabi_fcmplt
 2154              	.LVL266:
 2155 0014 0028     		cmp	r0, #0
 2156 0016 18D0     		beq	.L118
 375:main.c        ****             Poblacion[1][i]=Poblacion_1[1][i];
 2157              		.loc 1 375 0
 2158 0018 114A     		ldr	r2, .L122+8
 2159 001a A100     		lsls	r1, r4, #2
 2160 001c 114B     		ldr	r3, .L122+12
 2161 001e 8858     		ldr	r0, [r1, r2]
 2162 0020 C850     		str	r0, [r1, r3]
 376:main.c        ****             Poblacion[2][i]=Poblacion_1[2][i];
 2163              		.loc 1 376 0
 2164 0022 2100     		movs	r1, r4
 2165 0024 0A31     		adds	r1, r1, #10
 2166 0026 8900     		lsls	r1, r1, #2
 2167 0028 8858     		ldr	r0, [r1, r2]
 2168 002a C850     		str	r0, [r1, r3]
 377:main.c        ****             Poblacion[3][i]=Poblacion_1[3][i];
 2169              		.loc 1 377 0
 2170 002c 2100     		movs	r1, r4
 2171 002e 1431     		adds	r1, r1, #20
 2172 0030 8900     		lsls	r1, r1, #2
 2173 0032 8858     		ldr	r0, [r1, r2]
 2174 0034 C850     		str	r0, [r1, r3]
 378:main.c        ****             Poblacion[4][i]=Poblacion_1[4][i];
 2175              		.loc 1 378 0
 2176 0036 2100     		movs	r1, r4
 2177 0038 1E31     		adds	r1, r1, #30
 2178 003a 8900     		lsls	r1, r1, #2
 2179 003c 8858     		ldr	r0, [r1, r2]
ARM GAS  C:\Users\HENRYA~1\AppData\Local\Temp\ccNfq1WN.s 			page 52


 2180 003e C850     		str	r0, [r1, r3]
 379:main.c        ****             }
 2181              		.loc 1 379 0
 2182 0040 2100     		movs	r1, r4
 2183 0042 2831     		adds	r1, r1, #40
 2184 0044 8900     		lsls	r1, r1, #2
 2185 0046 8A58     		ldr	r2, [r1, r2]
 2186 0048 CA50     		str	r2, [r1, r3]
 2187              	.L118:
 373:main.c        ****         if(Fitness_1[i]<Fitness[i]){
 2188              		.loc 1 373 0 discriminator 2
 2189 004a 0134     		adds	r4, r4, #1
 2190              	.LVL267:
 2191              	.L117:
 373:main.c        ****         if(Fitness_1[i]<Fitness[i]){
 2192              		.loc 1 373 0 is_stmt 0 discriminator 1
 2193 004c 064B     		ldr	r3, .L122+16
 2194 004e 9B68     		ldr	r3, [r3, #8]
 2195 0050 9C42     		cmp	r4, r3
 2196 0052 D8DB     		blt	.L120
 382:main.c        **** 
 2197              		.loc 1 382 0 is_stmt 1
 2198              		@ sp needed
 2199              	.LVL268:
 2200 0054 10BD     		pop	{r4, pc}
 2201              	.L123:
 2202 0056 C046     		.align	2
 2203              	.L122:
 2204 0058 00000000 		.word	Fitness_1
 2205 005c 00000000 		.word	Fitness
 2206 0060 00000000 		.word	Poblacion_1
 2207 0064 00000000 		.word	Poblacion
 2208 0068 00000000 		.word	.LANCHOR1
 2209              		.cfi_endproc
 2210              	.LFE58:
 2211              		.size	Reemplazo_Generacional, .-Reemplazo_Generacional
 2212              		.section	.text.A_G,"ax",%progbits
 2213              		.align	2
 2214              		.global	A_G
 2215              		.code	16
 2216              		.thumb_func
 2217              		.type	A_G, %function
 2218              	A_G:
 2219              	.LFB59:
 384:main.c        ****     float Prob_c=0.5;
 2220              		.loc 1 384 0
 2221              		.cfi_startproc
 2222              		@ args = 0, pretend = 0, frame = 0
 2223              		@ frame_needed = 0, uses_anonymous_args = 0
 2224 0000 70B5     		push	{r4, r5, r6, lr}
 2225              		.cfi_def_cfa_offset 16
 2226              		.cfi_offset 4, -16
 2227              		.cfi_offset 5, -12
 2228              		.cfi_offset 6, -8
 2229              		.cfi_offset 14, -4
 2230              	.LVL269:
 388:main.c        ****         case 0:
ARM GAS  C:\Users\HENRYA~1\AppData\Local\Temp\ccNfq1WN.s 			page 53


 2231              		.loc 1 388 0
 2232 0002 3D4B     		ldr	r3, .L140
 2233 0004 1B6A     		ldr	r3, [r3, #32]
 2234 0006 012B     		cmp	r3, #1
 2235 0008 16D0     		beq	.L126
 2236 000a 02DC     		bgt	.L127
 2237 000c 002B     		cmp	r3, #0
 2238 000e 05D0     		beq	.L128
 2239 0010 70E0     		b	.L124
 2240              	.L127:
 2241 0012 022B     		cmp	r3, #2
 2242 0014 1BD0     		beq	.L129
 2243 0016 032B     		cmp	r3, #3
 2244 0018 35D0     		beq	.L130
 2245 001a 6BE0     		b	.L124
 2246              	.L128:
 390:main.c        ****             Reemplazo_Generacional();
 2247              		.loc 1 390 0
 2248 001c 374C     		ldr	r4, .L140+4
 2249 001e A068     		ldr	r0, [r4, #8]
 2250 0020 FFF7FEFF 		bl	Normalizar
 2251              	.LVL270:
 391:main.c        ****             Max_Conta=5;
 2252              		.loc 1 391 0
 2253 0024 FFF7FEFF 		bl	Reemplazo_Generacional
 2254              	.LVL271:
 392:main.c        ****             puntero=0;
 2255              		.loc 1 392 0
 2256 0028 0523     		movs	r3, #5
 2257 002a E360     		str	r3, [r4, #12]
 393:main.c        ****             flag=1;        
 2258              		.loc 1 393 0
 2259 002c 324B     		ldr	r3, .L140
 2260 002e 0022     		movs	r2, #0
 2261 0030 5A62     		str	r2, [r3, #36]
 394:main.c        ****             break;
 2262              		.loc 1 394 0
 2263 0032 0132     		adds	r2, r2, #1
 2264 0034 1A62     		str	r2, [r3, #32]
 395:main.c        ****         case 1:
 2265              		.loc 1 395 0
 2266 0036 5DE0     		b	.L124
 2267              	.L126:
 397:main.c        ****             Seleccion();
 2268              		.loc 1 397 0
 2269 0038 FFF7FEFF 		bl	Espere
 2270              	.LVL272:
 398:main.c        ****             Max_Conta=5;
 2271              		.loc 1 398 0
 2272 003c FFF7FEFF 		bl	Seleccion
 2273              	.LVL273:
 399:main.c        ****             flag=2;
 2274              		.loc 1 399 0
 2275 0040 0522     		movs	r2, #5
 2276 0042 2E4B     		ldr	r3, .L140+4
 2277 0044 DA60     		str	r2, [r3, #12]
 400:main.c        ****             break;
ARM GAS  C:\Users\HENRYA~1\AppData\Local\Temp\ccNfq1WN.s 			page 54


 2278              		.loc 1 400 0
 2279 0046 033A     		subs	r2, r2, #3
 2280 0048 2B4B     		ldr	r3, .L140
 2281 004a 1A62     		str	r2, [r3, #32]
 401:main.c        ****         case 2:
 2282              		.loc 1 401 0
 2283 004c 52E0     		b	.L124
 2284              	.L129:
 403:main.c        ****             if(Prob_c<Umbral_Cruce){
 2285              		.loc 1 403 0
 2286 004e FFF7FEFF 		bl	randd
 2287              	.LVL274:
 2288 0052 FFF7FEFF 		bl	__aeabi_d2f
 2289              	.LVL275:
 404:main.c        ****                 Cruce();
 2290              		.loc 1 404 0
 2291 0056 294B     		ldr	r3, .L140+4
 2292 0058 1969     		ldr	r1, [r3, #16]
 2293 005a FFF7FEFF 		bl	__aeabi_fcmplt
 2294              	.LVL276:
 2295 005e 0028     		cmp	r0, #0
 2296 0060 01D0     		beq	.L131
 405:main.c        ****             }
 2297              		.loc 1 405 0
 2298 0062 FFF7FEFF 		bl	Cruce
 2299              	.LVL277:
 2300              	.L131:
 407:main.c        ****             if(Prob_m<Umbral_Mutacion){
 2301              		.loc 1 407 0
 2302 0066 FFF7FEFF 		bl	randd
 2303              	.LVL278:
 2304 006a FFF7FEFF 		bl	__aeabi_d2f
 2305              	.LVL279:
 408:main.c        ****                 Mutacion();
 2306              		.loc 1 408 0
 2307 006e 234B     		ldr	r3, .L140+4
 2308 0070 5969     		ldr	r1, [r3, #20]
 2309 0072 FFF7FEFF 		bl	__aeabi_fcmplt
 2310              	.LVL280:
 2311 0076 0028     		cmp	r0, #0
 2312 0078 01D0     		beq	.L133
 409:main.c        ****             }
 2313              		.loc 1 409 0
 2314 007a FFF7FEFF 		bl	Mutacion
 2315              	.LVL281:
 2316              	.L133:
 411:main.c        ****             break;
 2317              		.loc 1 411 0
 2318 007e 0322     		movs	r2, #3
 2319 0080 1D4B     		ldr	r3, .L140
 2320 0082 1A62     		str	r2, [r3, #32]
 412:main.c        ****         case 3:
 2321              		.loc 1 412 0
 2322 0084 36E0     		b	.L124
 2323              	.LVL282:
 2324              	.L130:
 414:main.c        ****                 case 0:
ARM GAS  C:\Users\HENRYA~1\AppData\Local\Temp\ccNfq1WN.s 			page 55


 2325              		.loc 1 414 0
 2326 0086 1C4B     		ldr	r3, .L140
 2327 0088 9B6A     		ldr	r3, [r3, #40]
 2328 008a 012B     		cmp	r3, #1
 2329 008c 0DD0     		beq	.L135
 2330 008e 022B     		cmp	r3, #2
 2331 0090 14D0     		beq	.L136
 2332 0092 002B     		cmp	r3, #0
 2333 0094 2ED1     		bne	.L124
 416:main.c        ****                     Evaluar_Fitness(puntero);
 2334              		.loc 1 416 0
 2335 0096 184B     		ldr	r3, .L140
 2336 0098 0122     		movs	r2, #1
 2337 009a 9A62     		str	r2, [r3, #40]
 417:main.c        ****                     Max_Conta=50;                    
 2338              		.loc 1 417 0
 2339 009c 586A     		ldr	r0, [r3, #36]
 2340 009e FFF7FEFF 		bl	Evaluar_Fitness
 2341              	.LVL283:
 418:main.c        ****                 break;
 2342              		.loc 1 418 0
 2343 00a2 3222     		movs	r2, #50
 2344 00a4 154B     		ldr	r3, .L140+4
 2345 00a6 DA60     		str	r2, [r3, #12]
 419:main.c        ****                 case 1:
 2346              		.loc 1 419 0
 2347 00a8 24E0     		b	.L124
 2348              	.L135:
 421:main.c        ****                     Espere();
 2349              		.loc 1 421 0
 2350 00aa 0222     		movs	r2, #2
 2351 00ac 124B     		ldr	r3, .L140
 2352 00ae 9A62     		str	r2, [r3, #40]
 422:main.c        ****                     Max_Conta=20;
 2353              		.loc 1 422 0
 2354 00b0 FFF7FEFF 		bl	Espere
 2355              	.LVL284:
 423:main.c        ****                 break;
 2356              		.loc 1 423 0
 2357 00b4 1422     		movs	r2, #20
 2358 00b6 114B     		ldr	r3, .L140+4
 2359 00b8 DA60     		str	r2, [r3, #12]
 424:main.c        ****                 case 2:
 2360              		.loc 1 424 0
 2361 00ba 1BE0     		b	.L124
 2362              	.L136:
 426:main.c        ****                     Fitness_1[puntero]=dist;
 2363              		.loc 1 426 0
 2364 00bc 0E4C     		ldr	r4, .L140
 2365 00be 0023     		movs	r3, #0
 2366 00c0 A362     		str	r3, [r4, #40]
 427:main.c        ****                     //dist=dist*100;
 2367              		.loc 1 427 0
 2368 00c2 2068     		ldr	r0, [r4]
 2369 00c4 636A     		ldr	r3, [r4, #36]
 2370 00c6 9B00     		lsls	r3, r3, #2
 2371 00c8 0D4A     		ldr	r2, .L140+8
ARM GAS  C:\Users\HENRYA~1\AppData\Local\Temp\ccNfq1WN.s 			page 56


 2372 00ca 9850     		str	r0, [r3, r2]
 429:main.c        ****                     dato_enviado_2[1]=(int)dist;
 2373              		.loc 1 429 0
 2374 00cc 0D4D     		ldr	r5, .L140+12
 2375 00ce E36A     		ldr	r3, [r4, #44]
 2376 00d0 2B70     		strb	r3, [r5]
 430:main.c        ****                     CAN_SendMsg3();                    
 2377              		.loc 1 430 0
 2378 00d2 FFF7FEFF 		bl	__aeabi_f2iz
 2379              	.LVL285:
 2380 00d6 6870     		strb	r0, [r5, #1]
 431:main.c        ****                     puntero++;
 2381              		.loc 1 431 0
 2382 00d8 FFF7FEFF 		bl	CAN_SendMsg3
 2383              	.LVL286:
 432:main.c        ****                     Max_Conta=10;
 2384              		.loc 1 432 0
 2385 00dc 636A     		ldr	r3, [r4, #36]
 2386 00de 0133     		adds	r3, r3, #1
 2387 00e0 6362     		str	r3, [r4, #36]
 433:main.c        ****                     if(puntero==Individuos){flag=0;}
 2388              		.loc 1 433 0
 2389 00e2 064A     		ldr	r2, .L140+4
 2390 00e4 0A21     		movs	r1, #10
 2391 00e6 D160     		str	r1, [r2, #12]
 434:main.c        ****                 break;
 2392              		.loc 1 434 0
 2393 00e8 9268     		ldr	r2, [r2, #8]
 2394 00ea 9342     		cmp	r3, r2
 2395 00ec 02D1     		bne	.L124
 434:main.c        ****                 break;
 2396              		.loc 1 434 0 is_stmt 0 discriminator 1
 2397 00ee 0022     		movs	r2, #0
 2398 00f0 014B     		ldr	r3, .L140
 2399 00f2 1A62     		str	r2, [r3, #32]
 2400              	.LVL287:
 2401              	.L124:
 439:main.c        **** 
 2402              		.loc 1 439 0 is_stmt 1
 2403              		@ sp needed
 2404 00f4 70BD     		pop	{r4, r5, r6, pc}
 2405              	.L141:
 2406 00f6 C046     		.align	2
 2407              	.L140:
 2408 00f8 00000000 		.word	.LANCHOR0
 2409 00fc 00000000 		.word	.LANCHOR1
 2410 0100 00000000 		.word	Fitness_1
 2411 0104 00000000 		.word	dato_enviado_2
 2412              		.cfi_endproc
 2413              	.LFE59:
 2414              		.size	A_G, .-A_G
 2415              		.section	.text.Ejecutar,"ax",%progbits
 2416              		.align	2
 2417              		.global	Ejecutar
 2418              		.code	16
 2419              		.thumb_func
 2420              		.type	Ejecutar, %function
ARM GAS  C:\Users\HENRYA~1\AppData\Local\Temp\ccNfq1WN.s 			page 57


 2421              	Ejecutar:
 2422              	.LFB60:
 441:main.c        ****     conta++;
 2423              		.loc 1 441 0
 2424              		.cfi_startproc
 2425              		@ args = 0, pretend = 0, frame = 0
 2426              		@ frame_needed = 0, uses_anonymous_args = 0
 2427 0000 10B5     		push	{r4, lr}
 2428              		.cfi_def_cfa_offset 8
 2429              		.cfi_offset 4, -8
 2430              		.cfi_offset 14, -4
 442:main.c        ****     if(conta==Max_Conta){     
 2431              		.loc 1 442 0
 2432 0002 0B4A     		ldr	r2, .L145
 2433 0004 138E     		ldrh	r3, [r2, #48]
 2434 0006 0133     		adds	r3, r3, #1
 2435 0008 1BB2     		sxth	r3, r3
 2436 000a 1386     		strh	r3, [r2, #48]
 443:main.c        ****         LED_1_Write(1);    
 2437              		.loc 1 443 0
 2438 000c 094A     		ldr	r2, .L145+4
 2439 000e D268     		ldr	r2, [r2, #12]
 2440 0010 9342     		cmp	r3, r2
 2441 0012 08D1     		bne	.L143
 444:main.c        ****         A_G();         
 2442              		.loc 1 444 0
 2443 0014 0120     		movs	r0, #1
 2444 0016 FFF7FEFF 		bl	LED_1_Write
 2445              	.LVL288:
 445:main.c        ****         conta=0;
 2446              		.loc 1 445 0
 2447 001a FFF7FEFF 		bl	A_G
 2448              	.LVL289:
 446:main.c        ****     }
 2449              		.loc 1 446 0
 2450 001e 0022     		movs	r2, #0
 2451 0020 034B     		ldr	r3, .L145
 2452 0022 1A86     		strh	r2, [r3, #48]
 2453 0024 02E0     		b	.L142
 2454              	.L143:
 449:main.c        ****     }
 2455              		.loc 1 449 0
 2456 0026 0020     		movs	r0, #0
 2457 0028 FFF7FEFF 		bl	LED_1_Write
 2458              	.LVL290:
 2459              	.L142:
 451:main.c        **** //Interrupt's
 2460              		.loc 1 451 0
 2461              		@ sp needed
 2462 002c 10BD     		pop	{r4, pc}
 2463              	.L146:
 2464 002e C046     		.align	2
 2465              	.L145:
 2466 0030 00000000 		.word	.LANCHOR0
 2467 0034 00000000 		.word	.LANCHOR1
 2468              		.cfi_endproc
 2469              	.LFE60:
ARM GAS  C:\Users\HENRYA~1\AppData\Local\Temp\ccNfq1WN.s 			page 58


 2470              		.size	Ejecutar, .-Ejecutar
 2471              		.section	.text.Temporizador,"ax",%progbits
 2472              		.align	2
 2473              		.global	Temporizador
 2474              		.code	16
 2475              		.thumb_func
 2476              		.type	Temporizador, %function
 2477              	Temporizador:
 2478              	.LFB61:
 453:main.c        ****     Ejecutar();  
 2479              		.loc 1 453 0
 2480              		.cfi_startproc
 2481              		@ args = 0, pretend = 0, frame = 0
 2482              		@ frame_needed = 0, uses_anonymous_args = 0
 2483 0000 10B5     		push	{r4, lr}
 2484              		.cfi_def_cfa_offset 8
 2485              		.cfi_offset 4, -8
 2486              		.cfi_offset 14, -4
 454:main.c        **** }
 2487              		.loc 1 454 0
 2488 0002 FFF7FEFF 		bl	Ejecutar
 2489              	.LVL291:
 455:main.c        **** 
 2490              		.loc 1 455 0
 2491              		@ sp needed
 2492 0006 10BD     		pop	{r4, pc}
 2493              		.cfi_endproc
 2494              	.LFE61:
 2495              		.size	Temporizador, .-Temporizador
 2496              		.section	.text.main,"ax",%progbits
 2497              		.align	2
 2498              		.global	main
 2499              		.code	16
 2500              		.thumb_func
 2501              		.type	main, %function
 2502              	main:
 2503              	.LFB63:
 461:main.c        **** 
 462:main.c        **** int main()
 463:main.c        **** {
 2504              		.loc 1 463 0
 2505              		.cfi_startproc
 2506              		@ args = 0, pretend = 0, frame = 0
 2507              		@ frame_needed = 0, uses_anonymous_args = 0
 2508 0000 70B5     		push	{r4, r5, r6, lr}
 2509              		.cfi_def_cfa_offset 16
 2510              		.cfi_offset 4, -16
 2511              		.cfi_offset 5, -12
 2512              		.cfi_offset 6, -8
 2513              		.cfi_offset 14, -4
 2514              	.LVL292:
 464:main.c        ****     int i=0;
 465:main.c        ****     for(i=0;i<Individuos;i++){
 2515              		.loc 1 465 0
 2516 0002 0024     		movs	r4, #0
 2517 0004 58E0     		b	.L149
 2518              	.LVL293:
ARM GAS  C:\Users\HENRYA~1\AppData\Local\Temp\ccNfq1WN.s 			page 59


 2519              	.L153:
 466:main.c        ****         Fitness[i]=randd();
 2520              		.loc 1 466 0
 2521 0006 FFF7FEFF 		bl	randd
 2522              	.LVL294:
 2523 000a A500     		lsls	r5, r4, #2
 2524 000c FFF7FEFF 		bl	__aeabi_d2f
 2525              	.LVL295:
 2526 0010 674B     		ldr	r3, .L164
 2527 0012 E850     		str	r0, [r5, r3]
 467:main.c        ****         if(randd()<0.5){
 2528              		.loc 1 467 0
 2529 0014 FFF7FEFF 		bl	randd
 2530              	.LVL296:
 2531 0018 0022     		movs	r2, #0
 2532 001a 664B     		ldr	r3, .L164+4
 2533 001c FFF7FEFF 		bl	__aeabi_dcmplt
 2534              	.LVL297:
 2535 0020 0028     		cmp	r0, #0
 2536 0022 27D0     		beq	.L162
 468:main.c        ****             Poblacion[0][i]=random_amplitud_1();
 2537              		.loc 1 468 0
 2538 0024 FFF7FEFF 		bl	random_amplitud_1
 2539              	.LVL298:
 2540 0028 634D     		ldr	r5, .L164+8
 2541 002a A600     		lsls	r6, r4, #2
 2542 002c FFF7FEFF 		bl	__aeabi_d2f
 2543              	.LVL299:
 2544 0030 7051     		str	r0, [r6, r5]
 469:main.c        ****             Poblacion[1][i]=random_amplitud_2();
 2545              		.loc 1 469 0
 2546 0032 FFF7FEFF 		bl	random_amplitud_2
 2547              	.LVL300:
 2548 0036 2600     		movs	r6, r4
 2549 0038 0A36     		adds	r6, r6, #10
 2550 003a B600     		lsls	r6, r6, #2
 2551 003c FFF7FEFF 		bl	__aeabi_d2f
 2552              	.LVL301:
 2553 0040 7051     		str	r0, [r6, r5]
 470:main.c        ****             Poblacion[2][i]=random_Fase();
 2554              		.loc 1 470 0
 2555 0042 FFF7FEFF 		bl	random_Fase
 2556              	.LVL302:
 2557 0046 2600     		movs	r6, r4
 2558 0048 1436     		adds	r6, r6, #20
 2559 004a B600     		lsls	r6, r6, #2
 2560 004c FFF7FEFF 		bl	__aeabi_d2f
 2561              	.LVL303:
 2562 0050 7051     		str	r0, [r6, r5]
 471:main.c        ****             Poblacion[3][i]=random_Offset();
 2563              		.loc 1 471 0
 2564 0052 FFF7FEFF 		bl	random_Offset
 2565              	.LVL304:
 2566 0056 2600     		movs	r6, r4
 2567 0058 1E36     		adds	r6, r6, #30
 2568 005a B600     		lsls	r6, r6, #2
 2569 005c FFF7FEFF 		bl	__aeabi_d2f
ARM GAS  C:\Users\HENRYA~1\AppData\Local\Temp\ccNfq1WN.s 			page 60


 2570              	.LVL305:
 2571 0060 7051     		str	r0, [r6, r5]
 472:main.c        ****             Poblacion[4][i]=random_Offset(); 
 2572              		.loc 1 472 0
 2573 0062 FFF7FEFF 		bl	random_Offset
 2574              	.LVL306:
 2575 0066 2600     		movs	r6, r4
 2576 0068 2836     		adds	r6, r6, #40
 2577 006a B600     		lsls	r6, r6, #2
 2578 006c FFF7FEFF 		bl	__aeabi_d2f
 2579              	.LVL307:
 2580 0070 7051     		str	r0, [r6, r5]
 2581 0072 20E0     		b	.L152
 2582              	.L162:
 473:main.c        ****         }
 474:main.c        ****         else{
 475:main.c        ****             Poblacion[0][i]=random_amplitud_1();
 2583              		.loc 1 475 0
 2584 0074 FFF7FEFF 		bl	random_amplitud_1
 2585              	.LVL308:
 2586 0078 4F4D     		ldr	r5, .L164+8
 2587 007a A600     		lsls	r6, r4, #2
 2588 007c FFF7FEFF 		bl	__aeabi_d2f
 2589              	.LVL309:
 2590 0080 7051     		str	r0, [r6, r5]
 476:main.c        ****             Poblacion[1][i]=0.0;
 2591              		.loc 1 476 0
 2592 0082 2300     		movs	r3, r4
 2593 0084 0A33     		adds	r3, r3, #10
 2594 0086 9B00     		lsls	r3, r3, #2
 2595 0088 0022     		movs	r2, #0
 2596 008a 5A51     		str	r2, [r3, r5]
 477:main.c        ****             Poblacion[2][i]=random_Fase();
 2597              		.loc 1 477 0
 2598 008c FFF7FEFF 		bl	random_Fase
 2599              	.LVL310:
 2600 0090 2600     		movs	r6, r4
 2601 0092 1436     		adds	r6, r6, #20
 2602 0094 B600     		lsls	r6, r6, #2
 2603 0096 FFF7FEFF 		bl	__aeabi_d2f
 2604              	.LVL311:
 2605 009a 7051     		str	r0, [r6, r5]
 478:main.c        ****             Poblacion[3][i]=0.833;
 2606              		.loc 1 478 0
 2607 009c 2300     		movs	r3, r4
 2608 009e 1E33     		adds	r3, r3, #30
 2609 00a0 9B00     		lsls	r3, r3, #2
 2610 00a2 464A     		ldr	r2, .L164+12
 2611 00a4 5A51     		str	r2, [r3, r5]
 479:main.c        ****             Poblacion[4][i]=random_Offset(); 
 2612              		.loc 1 479 0
 2613 00a6 FFF7FEFF 		bl	random_Offset
 2614              	.LVL312:
 2615 00aa 2600     		movs	r6, r4
 2616 00ac 2836     		adds	r6, r6, #40
 2617 00ae B600     		lsls	r6, r6, #2
 2618 00b0 FFF7FEFF 		bl	__aeabi_d2f
ARM GAS  C:\Users\HENRYA~1\AppData\Local\Temp\ccNfq1WN.s 			page 61


 2619              	.LVL313:
 2620 00b4 7051     		str	r0, [r6, r5]
 2621              	.L152:
 465:main.c        ****         Fitness[i]=randd();
 2622              		.loc 1 465 0 discriminator 2
 2623 00b6 0134     		adds	r4, r4, #1
 2624              	.LVL314:
 2625              	.L149:
 465:main.c        ****         Fitness[i]=randd();
 2626              		.loc 1 465 0 is_stmt 0 discriminator 1
 2627 00b8 414B     		ldr	r3, .L164+16
 2628 00ba 9B68     		ldr	r3, [r3, #8]
 2629 00bc 9C42     		cmp	r4, r3
 2630 00be A2DB     		blt	.L153
 2631 00c0 0024     		movs	r4, #0
 2632              	.LVL315:
 2633 00c2 58E0     		b	.L154
 2634              	.LVL316:
 2635              	.L158:
 480:main.c        ****         } 
 481:main.c        ****     }
 482:main.c        ****     for(i=0;i<Individuos;i++){
 483:main.c        ****         Fitness_1[i]=randd();
 2636              		.loc 1 483 0 is_stmt 1
 2637 00c4 FFF7FEFF 		bl	randd
 2638              	.LVL317:
 2639 00c8 A500     		lsls	r5, r4, #2
 2640 00ca FFF7FEFF 		bl	__aeabi_d2f
 2641              	.LVL318:
 2642 00ce 3D4B     		ldr	r3, .L164+20
 2643 00d0 E850     		str	r0, [r5, r3]
 484:main.c        ****         if(randd()<0.5){
 2644              		.loc 1 484 0
 2645 00d2 FFF7FEFF 		bl	randd
 2646              	.LVL319:
 2647 00d6 0022     		movs	r2, #0
 2648 00d8 364B     		ldr	r3, .L164+4
 2649 00da FFF7FEFF 		bl	__aeabi_dcmplt
 2650              	.LVL320:
 2651 00de 0028     		cmp	r0, #0
 2652 00e0 27D0     		beq	.L163
 485:main.c        ****             Poblacion_1[0][i]=random_amplitud_1();
 2653              		.loc 1 485 0
 2654 00e2 FFF7FEFF 		bl	random_amplitud_1
 2655              	.LVL321:
 2656 00e6 384D     		ldr	r5, .L164+24
 2657 00e8 A600     		lsls	r6, r4, #2
 2658 00ea FFF7FEFF 		bl	__aeabi_d2f
 2659              	.LVL322:
 2660 00ee 7051     		str	r0, [r6, r5]
 486:main.c        ****             Poblacion_1[1][i]=random_amplitud_2();
 2661              		.loc 1 486 0
 2662 00f0 FFF7FEFF 		bl	random_amplitud_2
 2663              	.LVL323:
 2664 00f4 2600     		movs	r6, r4
 2665 00f6 0A36     		adds	r6, r6, #10
 2666 00f8 B600     		lsls	r6, r6, #2
ARM GAS  C:\Users\HENRYA~1\AppData\Local\Temp\ccNfq1WN.s 			page 62


 2667 00fa FFF7FEFF 		bl	__aeabi_d2f
 2668              	.LVL324:
 2669 00fe 7051     		str	r0, [r6, r5]
 487:main.c        ****             Poblacion_1[2][i]=random_Fase();
 2670              		.loc 1 487 0
 2671 0100 FFF7FEFF 		bl	random_Fase
 2672              	.LVL325:
 2673 0104 2600     		movs	r6, r4
 2674 0106 1436     		adds	r6, r6, #20
 2675 0108 B600     		lsls	r6, r6, #2
 2676 010a FFF7FEFF 		bl	__aeabi_d2f
 2677              	.LVL326:
 2678 010e 7051     		str	r0, [r6, r5]
 488:main.c        ****             Poblacion_1[3][i]=random_Offset();
 2679              		.loc 1 488 0
 2680 0110 FFF7FEFF 		bl	random_Offset
 2681              	.LVL327:
 2682 0114 2600     		movs	r6, r4
 2683 0116 1E36     		adds	r6, r6, #30
 2684 0118 B600     		lsls	r6, r6, #2
 2685 011a FFF7FEFF 		bl	__aeabi_d2f
 2686              	.LVL328:
 2687 011e 7051     		str	r0, [r6, r5]
 489:main.c        ****             Poblacion_1[4][i]=random_Offset(); 
 2688              		.loc 1 489 0
 2689 0120 FFF7FEFF 		bl	random_Offset
 2690              	.LVL329:
 2691 0124 2600     		movs	r6, r4
 2692 0126 2836     		adds	r6, r6, #40
 2693 0128 B600     		lsls	r6, r6, #2
 2694 012a FFF7FEFF 		bl	__aeabi_d2f
 2695              	.LVL330:
 2696 012e 7051     		str	r0, [r6, r5]
 2697 0130 20E0     		b	.L157
 2698              	.L163:
 490:main.c        ****         }
 491:main.c        ****         else{
 492:main.c        ****             Poblacion_1[0][i]=random_amplitud_1();
 2699              		.loc 1 492 0
 2700 0132 FFF7FEFF 		bl	random_amplitud_1
 2701              	.LVL331:
 2702 0136 244D     		ldr	r5, .L164+24
 2703 0138 A600     		lsls	r6, r4, #2
 2704 013a FFF7FEFF 		bl	__aeabi_d2f
 2705              	.LVL332:
 2706 013e 7051     		str	r0, [r6, r5]
 493:main.c        ****             Poblacion_1[1][i]=0.0;
 2707              		.loc 1 493 0
 2708 0140 2300     		movs	r3, r4
 2709 0142 0A33     		adds	r3, r3, #10
 2710 0144 9B00     		lsls	r3, r3, #2
 2711 0146 0022     		movs	r2, #0
 2712 0148 5A51     		str	r2, [r3, r5]
 494:main.c        ****             Poblacion_1[2][i]=random_Fase();
 2713              		.loc 1 494 0
 2714 014a FFF7FEFF 		bl	random_Fase
 2715              	.LVL333:
ARM GAS  C:\Users\HENRYA~1\AppData\Local\Temp\ccNfq1WN.s 			page 63


 2716 014e 2600     		movs	r6, r4
 2717 0150 1436     		adds	r6, r6, #20
 2718 0152 B600     		lsls	r6, r6, #2
 2719 0154 FFF7FEFF 		bl	__aeabi_d2f
 2720              	.LVL334:
 2721 0158 7051     		str	r0, [r6, r5]
 495:main.c        ****             Poblacion_1[3][i]=0.833;
 2722              		.loc 1 495 0
 2723 015a 2300     		movs	r3, r4
 2724 015c 1E33     		adds	r3, r3, #30
 2725 015e 9B00     		lsls	r3, r3, #2
 2726 0160 164A     		ldr	r2, .L164+12
 2727 0162 5A51     		str	r2, [r3, r5]
 496:main.c        ****             Poblacion_1[4][i]=random_Offset(); 
 2728              		.loc 1 496 0
 2729 0164 FFF7FEFF 		bl	random_Offset
 2730              	.LVL335:
 2731 0168 2600     		movs	r6, r4
 2732 016a 2836     		adds	r6, r6, #40
 2733 016c B600     		lsls	r6, r6, #2
 2734 016e FFF7FEFF 		bl	__aeabi_d2f
 2735              	.LVL336:
 2736 0172 7051     		str	r0, [r6, r5]
 2737              	.L157:
 482:main.c        ****         Fitness_1[i]=randd();
 2738              		.loc 1 482 0 discriminator 2
 2739 0174 0134     		adds	r4, r4, #1
 2740              	.LVL337:
 2741              	.L154:
 482:main.c        ****         Fitness_1[i]=randd();
 2742              		.loc 1 482 0 is_stmt 0 discriminator 1
 2743 0176 124B     		ldr	r3, .L164+16
 2744 0178 9B68     		ldr	r3, [r3, #8]
 2745 017a 9C42     		cmp	r4, r3
 2746 017c A2DB     		blt	.L158
 497:main.c        ****         }
 498:main.c        ****     }
 499:main.c        ****     Max_Conta=150;    
 2747              		.loc 1 499 0 is_stmt 1
 2748 017e 9622     		movs	r2, #150
 2749 0180 0F4B     		ldr	r3, .L164+16
 2750 0182 DA60     		str	r2, [r3, #12]
 500:main.c        ****     //Init LED's
 501:main.c        ****     CAN_Start(); ///  start CAN
 2751              		.loc 1 501 0
 2752 0184 FFF7FEFF 		bl	CAN_Start
 2753              	.LVL338:
 502:main.c        ****     Timer_1_Start();
 2754              		.loc 1 502 0
 2755 0188 FFF7FEFF 		bl	Timer_1_Start
 2756              	.LVL339:
 503:main.c        ****     Timer_Start();
 2757              		.loc 1 503 0
 2758 018c FFF7FEFF 		bl	Timer_Start
 2759              	.LVL340:
 504:main.c        ****     SENSOR_U_Start();
 2760              		.loc 1 504 0
ARM GAS  C:\Users\HENRYA~1\AppData\Local\Temp\ccNfq1WN.s 			page 64


 2761 0190 FFF7FEFF 		bl	SENSOR_U_Start
 2762              	.LVL341:
 505:main.c        ****     CAN_isr_StartEx(interrutcan);
 2763              		.loc 1 505 0
 2764 0194 0D48     		ldr	r0, .L164+28
 2765 0196 FFF7FEFF 		bl	CAN_isr_StartEx
 2766              	.LVL342:
 506:main.c        ****     CAN_GlobalIntEnable();
 2767              		.loc 1 506 0
 2768 019a FFF7FEFF 		bl	CAN_GlobalIntEnable
 2769              	.LVL343:
 507:main.c        ****     Int_Serial_StartEx(Serial_Interrupt);
 2770              		.loc 1 507 0
 2771 019e 0C48     		ldr	r0, .L164+32
 2772 01a0 FFF7FEFF 		bl	Int_Serial_StartEx
 2773              	.LVL344:
 508:main.c        ****     Timer_StartEx(Temporizador);
 2774              		.loc 1 508 0
 2775 01a4 0B48     		ldr	r0, .L164+36
 2776 01a6 FFF7FEFF 		bl	Timer_StartEx
 2777              	.LVL345:
 509:main.c        ****     CyGlobalIntEnable;
 2778              		.loc 1 509 0
 2779              		.syntax divided
 2780              	@ 509 "main.c" 1
 2781 01aa 62B6     		CPSIE   i
 2782              	@ 0 "" 2
 2783              		.thumb
 2784              		.syntax unified
 2785              	.L159:
 2786 01ac FEE7     		b	.L159
 2787              	.L165:
 2788 01ae C046     		.align	2
 2789              	.L164:
 2790 01b0 00000000 		.word	Fitness
 2791 01b4 0000E03F 		.word	1071644672
 2792 01b8 00000000 		.word	Poblacion
 2793 01bc 7D3F553F 		.word	1062551421
 2794 01c0 00000000 		.word	.LANCHOR1
 2795 01c4 00000000 		.word	Fitness_1
 2796 01c8 00000000 		.word	Poblacion_1
 2797 01cc 00000000 		.word	interrutcan
 2798 01d0 00000000 		.word	Serial_Interrupt
 2799 01d4 00000000 		.word	Temporizador
 2800              		.cfi_endproc
 2801              	.LFE63:
 2802              		.size	main, .-main
 2803              		.global	bolita
 2804              		.global	Acu
 2805              		.comm	indice,40,4
 2806              		.global	puntero
 2807              		.global	conmutador
 2808              		.global	Umbral_Mutacion
 2809              		.global	Umbral_Cruce
 2810              		.global	Columna
 2811              		.global	Fila
 2812              		.comm	Fitness_Normalizado,40,4
ARM GAS  C:\Users\HENRYA~1\AppData\Local\Temp\ccNfq1WN.s 			page 65


 2813              		.comm	Fitness_1,40,4
 2814              		.comm	Fitness,40,4
 2815              		.comm	Poblacion_1,200,4
 2816              		.comm	Poblacion,200,4
 2817              		.global	Individuos
 2818              		.global	individuo
 2819              		.global	move_s
 2820              		.global	punto_b
 2821              		.global	punto_a
 2822              		.global	L_anterior
 2823              		.global	L_actual
 2824              		.global	dist
 2825              		.global	flag
 2826              		.global	Peso_Sensor
 2827              		.global	off_aux_H_2
 2828              		.global	ampli_aux_H_2
 2829              		.global	pha_aux_2
 2830              		.global	off_aux_V_2
 2831              		.global	ampli_aux_V_2
 2832              		.global	pha_aux
 2833              		.global	off_aux_H
 2834              		.global	off_aux_V
 2835              		.global	ampli_aux_H
 2836              		.global	ampli_aux_V
 2837              		.global	Fase
 2838              		.global	Offset_V
 2839              		.global	Offset_H
 2840              		.global	Amplitud_V
 2841              		.global	Amplitud_H
 2842              		.global	Max_Conta
 2843              		.global	Cantidad_Sensores
 2844              		.global	cantidadM
 2845              		.global	conta
 2846              		.comm	dato_enviado_2,8,4
 2847              		.comm	dato_enviado_1,8,4
 2848              		.comm	dato_enviado,8,4
 2849              		.comm	mailbox2,8,4
 2850              		.comm	mailbox1,8,4
 2851              		.comm	mailbox0,8,4
 2852              		.data
 2853              		.align	2
 2854              		.set	.LANCHOR1,. + 0
 2855              		.type	Offset_H, %object
 2856              		.size	Offset_H, 4
 2857              	Offset_H:
 2858 0000 7D3F553F 		.word	1062551421
 2859              		.type	Offset_V, %object
 2860              		.size	Offset_V, 4
 2861              	Offset_V:
 2862 0004 7D3F553F 		.word	1062551421
 2863              		.type	Individuos, %object
 2864              		.size	Individuos, 4
 2865              	Individuos:
 2866 0008 0A000000 		.word	10
 2867              		.type	Max_Conta, %object
 2868              		.size	Max_Conta, 4
 2869              	Max_Conta:
ARM GAS  C:\Users\HENRYA~1\AppData\Local\Temp\ccNfq1WN.s 			page 66


 2870 000c 96000000 		.word	150
 2871              		.type	Umbral_Cruce, %object
 2872              		.size	Umbral_Cruce, 4
 2873              	Umbral_Cruce:
 2874 0010 3333333F 		.word	1060320051
 2875              		.type	Umbral_Mutacion, %object
 2876              		.size	Umbral_Mutacion, 4
 2877              	Umbral_Mutacion:
 2878 0014 9A99993E 		.word	1050253722
 2879              		.type	off_aux_H_2, %object
 2880              		.size	off_aux_H_2, 4
 2881              	off_aux_H_2:
 2882 0018 7D3F553F 		.word	1062551421
 2883              		.type	off_aux_V_2, %object
 2884              		.size	off_aux_V_2, 4
 2885              	off_aux_V_2:
 2886 001c 7D3F553F 		.word	1062551421
 2887              		.type	off_aux_H, %object
 2888              		.size	off_aux_H, 4
 2889              	off_aux_H:
 2890 0020 7D3F553F 		.word	1062551421
 2891              		.type	off_aux_V, %object
 2892              		.size	off_aux_V, 4
 2893              	off_aux_V:
 2894 0024 7D3F553F 		.word	1062551421
 2895              		.bss
 2896              		.align	2
 2897              		.set	.LANCHOR0,. + 0
 2898              		.type	dist, %object
 2899              		.size	dist, 4
 2900              	dist:
 2901 0000 00000000 		.space	4
 2902              		.type	Peso_Sensor, %object
 2903              		.size	Peso_Sensor, 4
 2904              	Peso_Sensor:
 2905 0004 00000000 		.space	4
 2906              		.type	cantidadM, %object
 2907              		.size	cantidadM, 4
 2908              	cantidadM:
 2909 0008 00000000 		.space	4
 2910              		.type	Fase, %object
 2911              		.size	Fase, 4
 2912              	Fase:
 2913 000c 00000000 		.space	4
 2914              		.type	Amplitud_H, %object
 2915              		.size	Amplitud_H, 4
 2916              	Amplitud_H:
 2917 0010 00000000 		.space	4
 2918              		.type	Amplitud_V, %object
 2919              		.size	Amplitud_V, 4
 2920              	Amplitud_V:
 2921 0014 00000000 		.space	4
 2922              		.type	Acu, %object
 2923              		.size	Acu, 4
 2924              	Acu:
 2925 0018 00000000 		.space	4
 2926              		.type	bolita, %object
ARM GAS  C:\Users\HENRYA~1\AppData\Local\Temp\ccNfq1WN.s 			page 67


 2927              		.size	bolita, 4
 2928              	bolita:
 2929 001c 00000000 		.space	4
 2930              		.type	flag, %object
 2931              		.size	flag, 4
 2932              	flag:
 2933 0020 00000000 		.space	4
 2934              		.type	puntero, %object
 2935              		.size	puntero, 4
 2936              	puntero:
 2937 0024 00000000 		.space	4
 2938              		.type	conmutador, %object
 2939              		.size	conmutador, 4
 2940              	conmutador:
 2941 0028 00000000 		.space	4
 2942              		.type	individuo, %object
 2943              		.size	individuo, 4
 2944              	individuo:
 2945 002c 00000000 		.space	4
 2946              		.type	conta, %object
 2947              		.size	conta, 2
 2948              	conta:
 2949 0030 0000     		.space	2
 2950 0032 0000     		.space	2
 2951              		.type	Columna, %object
 2952              		.size	Columna, 4
 2953              	Columna:
 2954 0034 00000000 		.space	4
 2955              		.type	Fila, %object
 2956              		.size	Fila, 4
 2957              	Fila:
 2958 0038 00000000 		.space	4
 2959              		.type	move_s, %object
 2960              		.size	move_s, 4
 2961              	move_s:
 2962 003c 00000000 		.space	4
 2963              		.type	punto_b, %object
 2964              		.size	punto_b, 4
 2965              	punto_b:
 2966 0040 00000000 		.space	4
 2967              		.type	punto_a, %object
 2968              		.size	punto_a, 4
 2969              	punto_a:
 2970 0044 00000000 		.space	4
 2971              		.type	L_anterior, %object
 2972              		.size	L_anterior, 4
 2973              	L_anterior:
 2974 0048 00000000 		.space	4
 2975              		.type	L_actual, %object
 2976              		.size	L_actual, 4
 2977              	L_actual:
 2978 004c 00000000 		.space	4
 2979              		.type	ampli_aux_H_2, %object
 2980              		.size	ampli_aux_H_2, 4
 2981              	ampli_aux_H_2:
 2982 0050 00000000 		.space	4
 2983              		.type	pha_aux_2, %object
ARM GAS  C:\Users\HENRYA~1\AppData\Local\Temp\ccNfq1WN.s 			page 68


 2984              		.size	pha_aux_2, 4
 2985              	pha_aux_2:
 2986 0054 00000000 		.space	4
 2987              		.type	ampli_aux_V_2, %object
 2988              		.size	ampli_aux_V_2, 4
 2989              	ampli_aux_V_2:
 2990 0058 00000000 		.space	4
 2991              		.type	pha_aux, %object
 2992              		.size	pha_aux, 4
 2993              	pha_aux:
 2994 005c 00000000 		.space	4
 2995              		.type	ampli_aux_H, %object
 2996              		.size	ampli_aux_H, 4
 2997              	ampli_aux_H:
 2998 0060 00000000 		.space	4
 2999              		.type	ampli_aux_V, %object
 3000              		.size	ampli_aux_V, 4
 3001              	ampli_aux_V:
 3002 0064 00000000 		.space	4
 3003              		.type	Cantidad_Sensores, %object
 3004              		.size	Cantidad_Sensores, 4
 3005              	Cantidad_Sensores:
 3006 0068 00000000 		.space	4
 3007              		.text
 3008              	.Letext0:
 3009              		.file 2 "Generated_Source\\PSoC4/cytypes.h"
 3010              		.file 3 "Generated_Source\\PSoC4/SENSOR_U.h"
 3011              		.file 4 "c:\\program files (x86)\\cypress\\psoc creator\\4.1\\psoc creator\\import\\gnu\\arm\\5.4.
 3012              		.file 5 "Generated_Source\\PSoC4/CAN.h"
 3013              		.file 6 "Generated_Source\\PSoC4/CyLib.h"
 3014              		.file 7 "Generated_Source\\PSoC4/LED_1.h"
 3015              		.file 8 "Generated_Source\\PSoC4/Timer_1.h"
 3016              		.file 9 "Generated_Source\\PSoC4/Timer.h"
 3017              		.file 10 "Generated_Source\\PSoC4/CAN_isr.h"
 3018              		.file 11 "Generated_Source\\PSoC4/Int_Serial.h"
 3019              		.section	.debug_info,"",%progbits
 3020              	.Ldebug_info0:
 3021 0000 B20F0000 		.4byte	0xfb2
 3022 0004 0400     		.2byte	0x4
 3023 0006 00000000 		.4byte	.Ldebug_abbrev0
 3024 000a 04       		.byte	0x4
 3025 000b 01       		.uleb128 0x1
 3026 000c 16020000 		.4byte	.LASF138
 3027 0010 0C       		.byte	0xc
 3028 0011 4C000000 		.4byte	.LASF139
 3029 0015 9E010000 		.4byte	.LASF140
 3030 0019 00000000 		.4byte	.Ldebug_ranges0+0
 3031 001d 00000000 		.4byte	0
 3032 0021 00000000 		.4byte	.Ldebug_line0
 3033 0025 02       		.uleb128 0x2
 3034 0026 04       		.byte	0x4
 3035 0027 04       		.byte	0x4
 3036 0028 22010000 		.4byte	.LASF0
 3037 002c 02       		.uleb128 0x2
 3038 002d 01       		.byte	0x1
 3039 002e 06       		.byte	0x6
 3040 002f 55060000 		.4byte	.LASF1
ARM GAS  C:\Users\HENRYA~1\AppData\Local\Temp\ccNfq1WN.s 			page 69


 3041 0033 02       		.uleb128 0x2
 3042 0034 01       		.byte	0x1
 3043 0035 08       		.byte	0x8
 3044 0036 9D050000 		.4byte	.LASF2
 3045 003a 02       		.uleb128 0x2
 3046 003b 02       		.byte	0x2
 3047 003c 05       		.byte	0x5
 3048 003d B9040000 		.4byte	.LASF3
 3049 0041 02       		.uleb128 0x2
 3050 0042 02       		.byte	0x2
 3051 0043 07       		.byte	0x7
 3052 0044 6D060000 		.4byte	.LASF4
 3053 0048 02       		.uleb128 0x2
 3054 0049 04       		.byte	0x4
 3055 004a 05       		.byte	0x5
 3056 004b C3040000 		.4byte	.LASF5
 3057 004f 02       		.uleb128 0x2
 3058 0050 04       		.byte	0x4
 3059 0051 07       		.byte	0x7
 3060 0052 64050000 		.4byte	.LASF6
 3061 0056 02       		.uleb128 0x2
 3062 0057 08       		.byte	0x8
 3063 0058 05       		.byte	0x5
 3064 0059 C5030000 		.4byte	.LASF7
 3065 005d 02       		.uleb128 0x2
 3066 005e 08       		.byte	0x8
 3067 005f 07       		.byte	0x7
 3068 0060 36010000 		.4byte	.LASF8
 3069 0064 03       		.uleb128 0x3
 3070 0065 04       		.byte	0x4
 3071 0066 05       		.byte	0x5
 3072 0067 696E7400 		.ascii	"int\000"
 3073 006b 02       		.uleb128 0x2
 3074 006c 04       		.byte	0x4
 3075 006d 07       		.byte	0x7
 3076 006e A3000000 		.4byte	.LASF9
 3077 0072 04       		.uleb128 0x4
 3078 0073 A1060000 		.4byte	.LASF10
 3079 0077 02       		.byte	0x2
 3080 0078 9801     		.2byte	0x198
 3081 007a 33000000 		.4byte	0x33
 3082 007e 04       		.uleb128 0x4
 3083 007f BA000000 		.4byte	.LASF11
 3084 0083 02       		.byte	0x2
 3085 0084 9C01     		.2byte	0x19c
 3086 0086 3A000000 		.4byte	0x3a
 3087 008a 02       		.uleb128 0x2
 3088 008b 08       		.byte	0x8
 3089 008c 04       		.byte	0x4
 3090 008d A7060000 		.4byte	.LASF12
 3091 0091 02       		.uleb128 0x2
 3092 0092 01       		.byte	0x1
 3093 0093 08       		.byte	0x8
 3094 0094 27030000 		.4byte	.LASF13
 3095 0098 02       		.uleb128 0x2
 3096 0099 08       		.byte	0x8
 3097 009a 04       		.byte	0x4
ARM GAS  C:\Users\HENRYA~1\AppData\Local\Temp\ccNfq1WN.s 			page 70


 3098 009b 65040000 		.4byte	.LASF14
 3099 009f 02       		.uleb128 0x2
 3100 00a0 04       		.byte	0x4
 3101 00a1 07       		.byte	0x7
 3102 00a2 5B050000 		.4byte	.LASF15
 3103 00a6 05       		.uleb128 0x5
 3104 00a7 72000000 		.4byte	0x72
 3105 00ab B6000000 		.4byte	0xb6
 3106 00af 06       		.uleb128 0x6
 3107 00b0 9F000000 		.4byte	0x9f
 3108 00b4 07       		.byte	0x7
 3109 00b5 00       		.byte	0
 3110 00b6 07       		.uleb128 0x7
 3111 00b7 E0000000 		.4byte	.LASF16
 3112 00bb 01       		.byte	0x1
 3113 00bc C901     		.2byte	0x1c9
 3114 00be 00000000 		.4byte	.LFB62
 3115 00c2 2C000000 		.4byte	.LFE62-.LFB62
 3116 00c6 01       		.uleb128 0x1
 3117 00c7 9C       		.byte	0x9c
 3118 00c8 D6000000 		.4byte	0xd6
 3119 00cc 08       		.uleb128 0x8
 3120 00cd 06000000 		.4byte	.LVL0
 3121 00d1 F60E0000 		.4byte	0xef6
 3122 00d5 00       		.byte	0
 3123 00d6 09       		.uleb128 0x9
 3124 00d7 F5020000 		.4byte	.LASF17
 3125 00db 01       		.byte	0x1
 3126 00dc 3D       		.byte	0x3d
 3127 00dd 8A000000 		.4byte	0x8a
 3128 00e1 00000000 		.4byte	.LFB37
 3129 00e5 16000000 		.4byte	.LFE37-.LFB37
 3130 00e9 01       		.uleb128 0x1
 3131 00ea 9C       		.byte	0x9c
 3132 00eb F9000000 		.4byte	0xf9
 3133 00ef 08       		.uleb128 0x8
 3134 00f0 06000000 		.4byte	.LVL5
 3135 00f4 010F0000 		.4byte	0xf01
 3136 00f8 00       		.byte	0
 3137 00f9 09       		.uleb128 0x9
 3138 00fa 80060000 		.4byte	.LASF18
 3139 00fe 01       		.byte	0x1
 3140 00ff 41       		.byte	0x41
 3141 0100 8A000000 		.4byte	0x8a
 3142 0104 00000000 		.4byte	.LFB38
 3143 0108 18000000 		.4byte	.LFE38-.LFB38
 3144 010c 01       		.uleb128 0x1
 3145 010d 9C       		.byte	0x9c
 3146 010e 1C010000 		.4byte	0x11c
 3147 0112 08       		.uleb128 0x8
 3148 0113 06000000 		.4byte	.LVL8
 3149 0117 D6000000 		.4byte	0xd6
 3150 011b 00       		.byte	0
 3151 011c 09       		.uleb128 0x9
 3152 011d D3030000 		.4byte	.LASF19
 3153 0121 01       		.byte	0x1
 3154 0122 45       		.byte	0x45
ARM GAS  C:\Users\HENRYA~1\AppData\Local\Temp\ccNfq1WN.s 			page 71


 3155 0123 8A000000 		.4byte	0x8a
 3156 0127 00000000 		.4byte	.LFB39
 3157 012b 10000000 		.4byte	.LFE39-.LFB39
 3158 012f 01       		.uleb128 0x1
 3159 0130 9C       		.byte	0x9c
 3160 0131 4C010000 		.4byte	0x14c
 3161 0135 0A       		.uleb128 0xa
 3162 0136 7200     		.ascii	"r\000"
 3163 0138 01       		.byte	0x1
 3164 0139 46       		.byte	0x46
 3165 013a 25000000 		.4byte	0x25
 3166 013e 00000000 		.4byte	.LLST0
 3167 0142 08       		.uleb128 0x8
 3168 0143 06000000 		.4byte	.LVL11
 3169 0147 D6000000 		.4byte	0xd6
 3170 014b 00       		.byte	0
 3171 014c 09       		.uleb128 0x9
 3172 014d E5030000 		.4byte	.LASF20
 3173 0151 01       		.byte	0x1
 3174 0152 4B       		.byte	0x4b
 3175 0153 8A000000 		.4byte	0x8a
 3176 0157 00000000 		.4byte	.LFB40
 3177 015b 28000000 		.4byte	.LFE40-.LFB40
 3178 015f 01       		.uleb128 0x1
 3179 0160 9C       		.byte	0x9c
 3180 0161 7C010000 		.4byte	0x17c
 3181 0165 0A       		.uleb128 0xa
 3182 0166 7200     		.ascii	"r\000"
 3183 0168 01       		.byte	0x1
 3184 0169 4C       		.byte	0x4c
 3185 016a 25000000 		.4byte	0x25
 3186 016e 23000000 		.4byte	.LLST1
 3187 0172 08       		.uleb128 0x8
 3188 0173 06000000 		.4byte	.LVL15
 3189 0177 D6000000 		.4byte	0xd6
 3190 017b 00       		.byte	0
 3191 017c 09       		.uleb128 0x9
 3192 017d 4D010000 		.4byte	.LASF21
 3193 0181 01       		.byte	0x1
 3194 0182 52       		.byte	0x52
 3195 0183 8A000000 		.4byte	0x8a
 3196 0187 00000000 		.4byte	.LFB41
 3197 018b 22000000 		.4byte	.LFE41-.LFB41
 3198 018f 01       		.uleb128 0x1
 3199 0190 9C       		.byte	0x9c
 3200 0191 AC010000 		.4byte	0x1ac
 3201 0195 0A       		.uleb128 0xa
 3202 0196 7200     		.ascii	"r\000"
 3203 0198 01       		.byte	0x1
 3204 0199 53       		.byte	0x53
 3205 019a 25000000 		.4byte	0x25
 3206 019e 51000000 		.4byte	.LLST2
 3207 01a2 08       		.uleb128 0x8
 3208 01a3 06000000 		.4byte	.LVL22
 3209 01a7 D6000000 		.4byte	0xd6
 3210 01ab 00       		.byte	0
 3211 01ac 09       		.uleb128 0x9
ARM GAS  C:\Users\HENRYA~1\AppData\Local\Temp\ccNfq1WN.s 			page 72


 3212 01ad 28010000 		.4byte	.LASF22
 3213 01b1 01       		.byte	0x1
 3214 01b2 59       		.byte	0x59
 3215 01b3 8A000000 		.4byte	0x8a
 3216 01b7 00000000 		.4byte	.LFB42
 3217 01bb 54000000 		.4byte	.LFE42-.LFB42
 3218 01bf 01       		.uleb128 0x1
 3219 01c0 9C       		.byte	0x9c
 3220 01c1 DC010000 		.4byte	0x1dc
 3221 01c5 0A       		.uleb128 0xa
 3222 01c6 7200     		.ascii	"r\000"
 3223 01c8 01       		.byte	0x1
 3224 01c9 5A       		.byte	0x5a
 3225 01ca 25000000 		.4byte	0x25
 3226 01ce 7F000000 		.4byte	.LLST3
 3227 01d2 08       		.uleb128 0x8
 3228 01d3 06000000 		.4byte	.LVL28
 3229 01d7 D6000000 		.4byte	0xd6
 3230 01db 00       		.byte	0
 3231 01dc 0B       		.uleb128 0xb
 3232 01dd A4020000 		.4byte	.LASF23
 3233 01e1 01       		.byte	0x1
 3234 01e2 63       		.byte	0x63
 3235 01e3 00000000 		.4byte	.LFB43
 3236 01e7 28000000 		.4byte	.LFE43-.LFB43
 3237 01eb 01       		.uleb128 0x1
 3238 01ec 9C       		.byte	0x9c
 3239 01ed 46020000 		.4byte	0x246
 3240 01f1 0C       		.uleb128 0xc
 3241 01f2 F7030000 		.4byte	.LASF24
 3242 01f6 01       		.byte	0x1
 3243 01f7 63       		.byte	0x63
 3244 01f8 6B000000 		.4byte	0x6b
 3245 01fc C3000000 		.4byte	.LLST4
 3246 0200 0D       		.uleb128 0xd
 3247 0201 6D6F7600 		.ascii	"mov\000"
 3248 0205 01       		.byte	0x1
 3249 0206 63       		.byte	0x63
 3250 0207 64000000 		.4byte	0x64
 3251 020b E4000000 		.4byte	.LLST5
 3252 020f 0E       		.uleb128 0xe
 3253 0210 E9020000 		.4byte	.LASF25
 3254 0214 01       		.byte	0x1
 3255 0215 64       		.byte	0x64
 3256 0216 91000000 		.4byte	0x91
 3257 021a 05010000 		.4byte	.LLST6
 3258 021e 0E       		.uleb128 0xe
 3259 021f EF020000 		.4byte	.LASF26
 3260 0223 01       		.byte	0x1
 3261 0224 64       		.byte	0x64
 3262 0225 91000000 		.4byte	0x91
 3263 0229 28010000 		.4byte	.LLST7
 3264 022d 08       		.uleb128 0x8
 3265 022e 1C000000 		.4byte	.LVL43
 3266 0232 0C0F0000 		.4byte	0xf0c
 3267 0236 0F       		.uleb128 0xf
 3268 0237 22000000 		.4byte	.LVL44
ARM GAS  C:\Users\HENRYA~1\AppData\Local\Temp\ccNfq1WN.s 			page 73


 3269 023b 180F0000 		.4byte	0xf18
 3270 023f 10       		.uleb128 0x10
 3271 0240 01       		.uleb128 0x1
 3272 0241 50       		.byte	0x50
 3273 0242 01       		.uleb128 0x1
 3274 0243 49       		.byte	0x49
 3275 0244 00       		.byte	0
 3276 0245 00       		.byte	0
 3277 0246 0B       		.uleb128 0xb
 3278 0247 29000000 		.4byte	.LASF27
 3279 024b 01       		.byte	0x1
 3280 024c 71       		.byte	0x71
 3281 024d 00000000 		.4byte	.LFB44
 3282 0251 2C000000 		.4byte	.LFE44-.LFB44
 3283 0255 01       		.uleb128 0x1
 3284 0256 9C       		.byte	0x9c
 3285 0257 93020000 		.4byte	0x293
 3286 025b 0C       		.uleb128 0xc
 3287 025c 2F040000 		.4byte	.LASF28
 3288 0260 01       		.byte	0x1
 3289 0261 71       		.byte	0x71
 3290 0262 64000000 		.4byte	0x64
 3291 0266 49010000 		.4byte	.LLST8
 3292 026a 0C       		.uleb128 0xc
 3293 026b 2D050000 		.4byte	.LASF29
 3294 026f 01       		.byte	0x1
 3295 0270 71       		.byte	0x71
 3296 0271 64000000 		.4byte	0x64
 3297 0275 6A010000 		.4byte	.LLST9
 3298 0279 08       		.uleb128 0x8
 3299 027a 20000000 		.4byte	.LVL47
 3300 027e 0C0F0000 		.4byte	0xf0c
 3301 0282 0F       		.uleb128 0xf
 3302 0283 26000000 		.4byte	.LVL48
 3303 0287 180F0000 		.4byte	0xf18
 3304 028b 10       		.uleb128 0x10
 3305 028c 01       		.uleb128 0x1
 3306 028d 50       		.byte	0x50
 3307 028e 02       		.uleb128 0x2
 3308 028f 08       		.byte	0x8
 3309 0290 32       		.byte	0x32
 3310 0291 00       		.byte	0
 3311 0292 00       		.byte	0
 3312 0293 11       		.uleb128 0x11
 3313 0294 09040000 		.4byte	.LASF30
 3314 0298 01       		.byte	0x1
 3315 0299 7E       		.byte	0x7e
 3316 029a 00000000 		.4byte	.LFB45
 3317 029e B4000000 		.4byte	.LFE45-.LFB45
 3318 02a2 01       		.uleb128 0x1
 3319 02a3 9C       		.byte	0x9c
 3320 02a4 57030000 		.4byte	0x357
 3321 02a8 0C       		.uleb128 0xc
 3322 02a9 1E030000 		.4byte	.LASF31
 3323 02ad 01       		.byte	0x1
 3324 02ae 7E       		.byte	0x7e
 3325 02af 25000000 		.4byte	0x25
ARM GAS  C:\Users\HENRYA~1\AppData\Local\Temp\ccNfq1WN.s 			page 74


 3326 02b3 8B010000 		.4byte	.LLST10
 3327 02b7 0C       		.uleb128 0xc
 3328 02b8 1C010000 		.4byte	.LASF32
 3329 02bc 01       		.byte	0x1
 3330 02bd 7E       		.byte	0x7e
 3331 02be 25000000 		.4byte	0x25
 3332 02c2 AA010000 		.4byte	.LLST11
 3333 02c6 0C       		.uleb128 0xc
 3334 02c7 B8060000 		.4byte	.LASF33
 3335 02cb 01       		.byte	0x1
 3336 02cc 7E       		.byte	0x7e
 3337 02cd 25000000 		.4byte	0x25
 3338 02d1 C9010000 		.4byte	.LLST12
 3339 02d5 0C       		.uleb128 0xc
 3340 02d6 61060000 		.4byte	.LASF34
 3341 02da 01       		.byte	0x1
 3342 02db 7E       		.byte	0x7e
 3343 02dc 64000000 		.4byte	0x64
 3344 02e0 E8010000 		.4byte	.LLST13
 3345 02e4 0E       		.uleb128 0xe
 3346 02e5 4D060000 		.4byte	.LASF35
 3347 02e9 01       		.byte	0x1
 3348 02ea 80       		.byte	0x80
 3349 02eb 64000000 		.4byte	0x64
 3350 02ef 14020000 		.4byte	.LLST14
 3351 02f3 0E       		.uleb128 0xe
 3352 02f4 90030000 		.4byte	.LASF36
 3353 02f8 01       		.byte	0x1
 3354 02f9 81       		.byte	0x81
 3355 02fa 64000000 		.4byte	0x64
 3356 02fe 32020000 		.4byte	.LLST15
 3357 0302 0E       		.uleb128 0xe
 3358 0303 0C030000 		.4byte	.LASF37
 3359 0307 01       		.byte	0x1
 3360 0308 82       		.byte	0x82
 3361 0309 64000000 		.4byte	0x64
 3362 030d 50020000 		.4byte	.LLST16
 3363 0311 0E       		.uleb128 0xe
 3364 0312 4C030000 		.4byte	.LASF38
 3365 0316 01       		.byte	0x1
 3366 0317 87       		.byte	0x87
 3367 0318 72000000 		.4byte	0x72
 3368 031c 6E020000 		.4byte	.LLST17
 3369 0320 0E       		.uleb128 0xe
 3370 0321 46030000 		.4byte	.LASF39
 3371 0325 01       		.byte	0x1
 3372 0326 88       		.byte	0x88
 3373 0327 72000000 		.4byte	0x72
 3374 032b 97020000 		.4byte	.LLST18
 3375 032f 0A       		.uleb128 0xa
 3376 0330 41757800 		.ascii	"Aux\000"
 3377 0334 01       		.byte	0x1
 3378 0335 89       		.byte	0x89
 3379 0336 72000000 		.4byte	0x72
 3380 033a 29030000 		.4byte	.LLST19
 3381 033e 08       		.uleb128 0x8
 3382 033f A0000000 		.4byte	.LVL84
ARM GAS  C:\Users\HENRYA~1\AppData\Local\Temp\ccNfq1WN.s 			page 75


 3383 0343 230F0000 		.4byte	0xf23
 3384 0347 0F       		.uleb128 0xf
 3385 0348 A6000000 		.4byte	.LVL85
 3386 034c 180F0000 		.4byte	0xf18
 3387 0350 10       		.uleb128 0x10
 3388 0351 01       		.uleb128 0x1
 3389 0352 50       		.byte	0x50
 3390 0353 01       		.uleb128 0x1
 3391 0354 49       		.byte	0x49
 3392 0355 00       		.byte	0
 3393 0356 00       		.byte	0
 3394 0357 12       		.uleb128 0x12
 3395 0358 7C050000 		.4byte	.LASF47
 3396 035c 01       		.byte	0x1
 3397 035d B2       		.byte	0xb2
 3398 035e 00000000 		.4byte	.LFB46
 3399 0362 78000000 		.4byte	.LFE46-.LFB46
 3400 0366 01       		.uleb128 0x1
 3401 0367 9C       		.byte	0x9c
 3402 0368 EA030000 		.4byte	0x3ea
 3403 036c 13       		.uleb128 0x13
 3404 036d 2E000000 		.4byte	.LBB2
 3405 0371 3C000000 		.4byte	.LBE2-.LBB2
 3406 0375 0E       		.uleb128 0xe
 3407 0376 E5050000 		.4byte	.LASF40
 3408 037a 01       		.byte	0x1
 3409 037b C6       		.byte	0xc6
 3410 037c 64000000 		.4byte	0x64
 3411 0380 64030000 		.4byte	.LLST20
 3412 0384 14       		.uleb128 0x14
 3413 0385 4A000000 		.4byte	.LVL90
 3414 0389 93020000 		.4byte	0x293
 3415 038d 98030000 		.4byte	0x398
 3416 0391 10       		.uleb128 0x10
 3417 0392 01       		.uleb128 0x1
 3418 0393 53       		.byte	0x53
 3419 0394 02       		.uleb128 0x2
 3420 0395 08       		.byte	0x8
 3421 0396 20       		.byte	0x20
 3422 0397 00       		.byte	0
 3423 0398 14       		.uleb128 0x14
 3424 0399 50000000 		.4byte	.LVL91
 3425 039d 180F0000 		.4byte	0xf18
 3426 03a1 AC030000 		.4byte	0x3ac
 3427 03a5 10       		.uleb128 0x10
 3428 03a6 01       		.uleb128 0x1
 3429 03a7 50       		.byte	0x50
 3430 03a8 02       		.uleb128 0x2
 3431 03a9 08       		.byte	0x8
 3432 03aa 32       		.byte	0x32
 3433 03ab 00       		.byte	0
 3434 03ac 14       		.uleb128 0x14
 3435 03ad 5C000000 		.4byte	.LVL92
 3436 03b1 93020000 		.4byte	0x293
 3437 03b5 C0030000 		.4byte	0x3c0
 3438 03b9 10       		.uleb128 0x10
 3439 03ba 01       		.uleb128 0x1
ARM GAS  C:\Users\HENRYA~1\AppData\Local\Temp\ccNfq1WN.s 			page 76


 3440 03bb 53       		.byte	0x53
 3441 03bc 02       		.uleb128 0x2
 3442 03bd 08       		.byte	0x8
 3443 03be 21       		.byte	0x21
 3444 03bf 00       		.byte	0
 3445 03c0 14       		.uleb128 0x14
 3446 03c1 62000000 		.4byte	.LVL93
 3447 03c5 180F0000 		.4byte	0xf18
 3448 03c9 D4030000 		.4byte	0x3d4
 3449 03cd 10       		.uleb128 0x10
 3450 03ce 01       		.uleb128 0x1
 3451 03cf 50       		.byte	0x50
 3452 03d0 02       		.uleb128 0x2
 3453 03d1 08       		.byte	0x8
 3454 03d2 32       		.byte	0x32
 3455 03d3 00       		.byte	0
 3456 03d4 0F       		.uleb128 0xf
 3457 03d5 6A000000 		.4byte	.LVL94
 3458 03d9 46020000 		.4byte	0x246
 3459 03dd 10       		.uleb128 0x10
 3460 03de 01       		.uleb128 0x1
 3461 03df 50       		.byte	0x50
 3462 03e0 01       		.uleb128 0x1
 3463 03e1 30       		.byte	0x30
 3464 03e2 10       		.uleb128 0x10
 3465 03e3 01       		.uleb128 0x1
 3466 03e4 51       		.byte	0x51
 3467 03e5 01       		.uleb128 0x1
 3468 03e6 30       		.byte	0x30
 3469 03e7 00       		.byte	0
 3470 03e8 00       		.byte	0
 3471 03e9 00       		.byte	0
 3472 03ea 15       		.uleb128 0x15
 3473 03eb 38030000 		.4byte	.LASF141
 3474 03ef 01       		.byte	0x1
 3475 03f0 D3       		.byte	0xd3
 3476 03f1 00000000 		.4byte	.LFB47
 3477 03f5 10010000 		.4byte	.LFE47-.LFB47
 3478 03f9 01       		.uleb128 0x1
 3479 03fa 9C       		.byte	0x9c
 3480 03fb 0B       		.uleb128 0xb
 3481 03fc 0B010000 		.4byte	.LASF41
 3482 0400 01       		.byte	0x1
 3483 0401 E4       		.byte	0xe4
 3484 0402 00000000 		.4byte	.LFB48
 3485 0406 18000000 		.4byte	.LFE48-.LFB48
 3486 040a 01       		.uleb128 0x1
 3487 040b 9C       		.byte	0x9c
 3488 040c 3E040000 		.4byte	0x43e
 3489 0410 08       		.uleb128 0x8
 3490 0411 06000000 		.4byte	.LVL95
 3491 0415 2F0F0000 		.4byte	0xf2f
 3492 0419 08       		.uleb128 0x8
 3493 041a 0A000000 		.4byte	.LVL96
 3494 041e 3A0F0000 		.4byte	0xf3a
 3495 0422 08       		.uleb128 0x8
 3496 0423 0E000000 		.4byte	.LVL97
ARM GAS  C:\Users\HENRYA~1\AppData\Local\Temp\ccNfq1WN.s 			page 77


 3497 0427 57030000 		.4byte	0x357
 3498 042b 08       		.uleb128 0x8
 3499 042c 12000000 		.4byte	.LVL98
 3500 0430 EA030000 		.4byte	0x3ea
 3501 0434 08       		.uleb128 0x8
 3502 0435 16000000 		.4byte	.LVL99
 3503 0439 460F0000 		.4byte	0xf46
 3504 043d 00       		.byte	0
 3505 043e 16       		.uleb128 0x16
 3506 043f B7050000 		.4byte	.LASF50
 3507 0443 01       		.byte	0x1
 3508 0444 EC       		.byte	0xec
 3509 0445 25000000 		.4byte	0x25
 3510 0449 00000000 		.4byte	.LFB49
 3511 044d 2E000000 		.4byte	.LFE49-.LFB49
 3512 0451 01       		.uleb128 0x1
 3513 0452 9C       		.byte	0x9c
 3514 0453 92040000 		.4byte	0x492
 3515 0457 0C       		.uleb128 0xc
 3516 0458 D6020000 		.4byte	.LASF42
 3517 045c 01       		.byte	0x1
 3518 045d EC       		.byte	0xec
 3519 045e 92040000 		.4byte	0x492
 3520 0462 8C030000 		.4byte	.LLST21
 3521 0466 0D       		.uleb128 0xd
 3522 0467 6E756D00 		.ascii	"num\000"
 3523 046b 01       		.byte	0x1
 3524 046c EC       		.byte	0xec
 3525 046d 64000000 		.4byte	0x64
 3526 0471 B8030000 		.4byte	.LLST22
 3527 0475 0A       		.uleb128 0xa
 3528 0476 6900     		.ascii	"i\000"
 3529 0478 01       		.byte	0x1
 3530 0479 ED       		.byte	0xed
 3531 047a 64000000 		.4byte	0x64
 3532 047e E4030000 		.4byte	.LLST23
 3533 0482 0A       		.uleb128 0xa
 3534 0483 6D617800 		.ascii	"max\000"
 3535 0487 01       		.byte	0x1
 3536 0488 EE       		.byte	0xee
 3537 0489 25000000 		.4byte	0x25
 3538 048d 03040000 		.4byte	.LLST24
 3539 0491 00       		.byte	0
 3540 0492 17       		.uleb128 0x17
 3541 0493 04       		.byte	0x4
 3542 0494 25000000 		.4byte	0x25
 3543 0498 11       		.uleb128 0x11
 3544 0499 DE020000 		.4byte	.LASF43
 3545 049d 01       		.byte	0x1
 3546 049e F6       		.byte	0xf6
 3547 049f 00000000 		.4byte	.LFB50
 3548 04a3 6C000000 		.4byte	.LFE50-.LFB50
 3549 04a7 01       		.uleb128 0x1
 3550 04a8 9C       		.byte	0x9c
 3551 04a9 1C050000 		.4byte	0x51c
 3552 04ad 0D       		.uleb128 0xd
 3553 04ae 4900     		.ascii	"I\000"
ARM GAS  C:\Users\HENRYA~1\AppData\Local\Temp\ccNfq1WN.s 			page 78


 3554 04b0 01       		.byte	0x1
 3555 04b1 F6       		.byte	0xf6
 3556 04b2 64000000 		.4byte	0x64
 3557 04b6 22040000 		.4byte	.LLST25
 3558 04ba 0E       		.uleb128 0xe
 3559 04bb 83030000 		.4byte	.LASF44
 3560 04bf 01       		.byte	0x1
 3561 04c0 F7       		.byte	0xf7
 3562 04c1 25000000 		.4byte	0x25
 3563 04c5 59040000 		.4byte	.LLST26
 3564 04c9 0E       		.uleb128 0xe
 3565 04ca 92060000 		.4byte	.LASF45
 3566 04ce 01       		.byte	0x1
 3567 04cf F8       		.byte	0xf8
 3568 04d0 25000000 		.4byte	0x25
 3569 04d4 77040000 		.4byte	.LLST27
 3570 04d8 0A       		.uleb128 0xa
 3571 04d9 6900     		.ascii	"i\000"
 3572 04db 01       		.byte	0x1
 3573 04dc F9       		.byte	0xf9
 3574 04dd 64000000 		.4byte	0x64
 3575 04e1 96040000 		.4byte	.LLST28
 3576 04e5 14       		.uleb128 0x14
 3577 04e6 0E000000 		.4byte	.LVL111
 3578 04ea 3E040000 		.4byte	0x43e
 3579 04ee 02050000 		.4byte	0x502
 3580 04f2 10       		.uleb128 0x10
 3581 04f3 01       		.uleb128 0x1
 3582 04f4 50       		.byte	0x50
 3583 04f5 05       		.uleb128 0x5
 3584 04f6 03       		.byte	0x3
 3585 04f7 00000000 		.4byte	Fitness
 3586 04fb 10       		.uleb128 0x10
 3587 04fc 01       		.uleb128 0x1
 3588 04fd 51       		.byte	0x51
 3589 04fe 02       		.uleb128 0x2
 3590 04ff 74       		.byte	0x74
 3591 0500 00       		.sleb128 0
 3592 0501 00       		.byte	0
 3593 0502 0F       		.uleb128 0xf
 3594 0503 18000000 		.4byte	.LVL114
 3595 0507 3E040000 		.4byte	0x43e
 3596 050b 10       		.uleb128 0x10
 3597 050c 01       		.uleb128 0x1
 3598 050d 50       		.byte	0x50
 3599 050e 05       		.uleb128 0x5
 3600 050f 03       		.byte	0x3
 3601 0510 00000000 		.4byte	Fitness_1
 3602 0514 10       		.uleb128 0x10
 3603 0515 01       		.uleb128 0x1
 3604 0516 51       		.byte	0x51
 3605 0517 02       		.uleb128 0x2
 3606 0518 74       		.byte	0x74
 3607 0519 00       		.sleb128 0
 3608 051a 00       		.byte	0
 3609 051b 00       		.byte	0
 3610 051c 18       		.uleb128 0x18
ARM GAS  C:\Users\HENRYA~1\AppData\Local\Temp\ccNfq1WN.s 			page 79


 3611 051d EE050000 		.4byte	.LASF46
 3612 0521 01       		.byte	0x1
 3613 0522 0201     		.2byte	0x102
 3614 0524 00000000 		.4byte	.LFB51
 3615 0528 7C000000 		.4byte	.LFE51-.LFB51
 3616 052c 01       		.uleb128 0x1
 3617 052d 9C       		.byte	0x9c
 3618 052e BD050000 		.4byte	0x5bd
 3619 0532 19       		.uleb128 0x19
 3620 0533 6900     		.ascii	"i\000"
 3621 0535 01       		.byte	0x1
 3622 0536 0201     		.2byte	0x102
 3623 0538 64000000 		.4byte	0x64
 3624 053c B5040000 		.4byte	.LLST29
 3625 0540 13       		.uleb128 0x13
 3626 0541 34000000 		.4byte	.LBB3
 3627 0545 3A000000 		.4byte	.LBE3-.LBB3
 3628 0549 1A       		.uleb128 0x1a
 3629 054a 6900     		.ascii	"i\000"
 3630 054c 01       		.byte	0x1
 3631 054d 0801     		.2byte	0x108
 3632 054f 64000000 		.4byte	0x64
 3633 0553 E3040000 		.4byte	.LLST30
 3634 0557 14       		.uleb128 0x14
 3635 0558 48000000 		.4byte	.LVL129
 3636 055c 93020000 		.4byte	0x293
 3637 0560 6B050000 		.4byte	0x56b
 3638 0564 10       		.uleb128 0x10
 3639 0565 01       		.uleb128 0x1
 3640 0566 53       		.byte	0x53
 3641 0567 02       		.uleb128 0x2
 3642 0568 08       		.byte	0x8
 3643 0569 20       		.byte	0x20
 3644 056a 00       		.byte	0
 3645 056b 14       		.uleb128 0x14
 3646 056c 4E000000 		.4byte	.LVL130
 3647 0570 180F0000 		.4byte	0xf18
 3648 0574 7F050000 		.4byte	0x57f
 3649 0578 10       		.uleb128 0x10
 3650 0579 01       		.uleb128 0x1
 3651 057a 50       		.byte	0x50
 3652 057b 02       		.uleb128 0x2
 3653 057c 08       		.byte	0x8
 3654 057d 32       		.byte	0x32
 3655 057e 00       		.byte	0
 3656 057f 14       		.uleb128 0x14
 3657 0580 5A000000 		.4byte	.LVL131
 3658 0584 93020000 		.4byte	0x293
 3659 0588 93050000 		.4byte	0x593
 3660 058c 10       		.uleb128 0x10
 3661 058d 01       		.uleb128 0x1
 3662 058e 53       		.byte	0x53
 3663 058f 02       		.uleb128 0x2
 3664 0590 08       		.byte	0x8
 3665 0591 21       		.byte	0x21
 3666 0592 00       		.byte	0
 3667 0593 14       		.uleb128 0x14
ARM GAS  C:\Users\HENRYA~1\AppData\Local\Temp\ccNfq1WN.s 			page 80


 3668 0594 60000000 		.4byte	.LVL132
 3669 0598 180F0000 		.4byte	0xf18
 3670 059c A7050000 		.4byte	0x5a7
 3671 05a0 10       		.uleb128 0x10
 3672 05a1 01       		.uleb128 0x1
 3673 05a2 50       		.byte	0x50
 3674 05a3 02       		.uleb128 0x2
 3675 05a4 08       		.byte	0x8
 3676 05a5 32       		.byte	0x32
 3677 05a6 00       		.byte	0
 3678 05a7 0F       		.uleb128 0xf
 3679 05a8 68000000 		.4byte	.LVL133
 3680 05ac 46020000 		.4byte	0x246
 3681 05b0 10       		.uleb128 0x10
 3682 05b1 01       		.uleb128 0x1
 3683 05b2 50       		.byte	0x50
 3684 05b3 01       		.uleb128 0x1
 3685 05b4 30       		.byte	0x30
 3686 05b5 10       		.uleb128 0x10
 3687 05b6 01       		.uleb128 0x1
 3688 05b7 51       		.byte	0x51
 3689 05b8 01       		.uleb128 0x1
 3690 05b9 30       		.byte	0x30
 3691 05ba 00       		.byte	0
 3692 05bb 00       		.byte	0
 3693 05bc 00       		.byte	0
 3694 05bd 1B       		.uleb128 0x1b
 3695 05be 17030000 		.4byte	.LASF48
 3696 05c2 01       		.byte	0x1
 3697 05c3 1101     		.2byte	0x111
 3698 05c5 00000000 		.4byte	.LFB52
 3699 05c9 5C000000 		.4byte	.LFE52-.LFB52
 3700 05cd 01       		.uleb128 0x1
 3701 05ce 9C       		.byte	0x9c
 3702 05cf 50060000 		.4byte	0x650
 3703 05d3 13       		.uleb128 0x13
 3704 05d4 14000000 		.4byte	.LBB4
 3705 05d8 3A000000 		.4byte	.LBE4-.LBB4
 3706 05dc 1A       		.uleb128 0x1a
 3707 05dd 6900     		.ascii	"i\000"
 3708 05df 01       		.byte	0x1
 3709 05e0 1701     		.2byte	0x117
 3710 05e2 64000000 		.4byte	0x64
 3711 05e6 02050000 		.4byte	.LLST31
 3712 05ea 14       		.uleb128 0x14
 3713 05eb 28000000 		.4byte	.LVL138
 3714 05ef 93020000 		.4byte	0x293
 3715 05f3 FE050000 		.4byte	0x5fe
 3716 05f7 10       		.uleb128 0x10
 3717 05f8 01       		.uleb128 0x1
 3718 05f9 53       		.byte	0x53
 3719 05fa 02       		.uleb128 0x2
 3720 05fb 08       		.byte	0x8
 3721 05fc 20       		.byte	0x20
 3722 05fd 00       		.byte	0
 3723 05fe 14       		.uleb128 0x14
 3724 05ff 2E000000 		.4byte	.LVL139
ARM GAS  C:\Users\HENRYA~1\AppData\Local\Temp\ccNfq1WN.s 			page 81


 3725 0603 180F0000 		.4byte	0xf18
 3726 0607 12060000 		.4byte	0x612
 3727 060b 10       		.uleb128 0x10
 3728 060c 01       		.uleb128 0x1
 3729 060d 50       		.byte	0x50
 3730 060e 02       		.uleb128 0x2
 3731 060f 08       		.byte	0x8
 3732 0610 32       		.byte	0x32
 3733 0611 00       		.byte	0
 3734 0612 14       		.uleb128 0x14
 3735 0613 3A000000 		.4byte	.LVL140
 3736 0617 93020000 		.4byte	0x293
 3737 061b 26060000 		.4byte	0x626
 3738 061f 10       		.uleb128 0x10
 3739 0620 01       		.uleb128 0x1
 3740 0621 53       		.byte	0x53
 3741 0622 02       		.uleb128 0x2
 3742 0623 08       		.byte	0x8
 3743 0624 21       		.byte	0x21
 3744 0625 00       		.byte	0
 3745 0626 14       		.uleb128 0x14
 3746 0627 40000000 		.4byte	.LVL141
 3747 062b 180F0000 		.4byte	0xf18
 3748 062f 3A060000 		.4byte	0x63a
 3749 0633 10       		.uleb128 0x10
 3750 0634 01       		.uleb128 0x1
 3751 0635 50       		.byte	0x50
 3752 0636 02       		.uleb128 0x2
 3753 0637 08       		.byte	0x8
 3754 0638 32       		.byte	0x32
 3755 0639 00       		.byte	0
 3756 063a 0F       		.uleb128 0xf
 3757 063b 48000000 		.4byte	.LVL142
 3758 063f 46020000 		.4byte	0x246
 3759 0643 10       		.uleb128 0x10
 3760 0644 01       		.uleb128 0x1
 3761 0645 50       		.byte	0x50
 3762 0646 01       		.uleb128 0x1
 3763 0647 30       		.byte	0x30
 3764 0648 10       		.uleb128 0x10
 3765 0649 01       		.uleb128 0x1
 3766 064a 51       		.byte	0x51
 3767 064b 01       		.uleb128 0x1
 3768 064c 30       		.byte	0x30
 3769 064d 00       		.byte	0
 3770 064e 00       		.byte	0
 3771 064f 00       		.byte	0
 3772 0650 1C       		.uleb128 0x1c
 3773 0651 25040000 		.4byte	.LASF49
 3774 0655 01       		.byte	0x1
 3775 0656 2001     		.2byte	0x120
 3776 0658 00000000 		.4byte	.LFB53
 3777 065c 2C010000 		.4byte	.LFE53-.LFB53
 3778 0660 01       		.uleb128 0x1
 3779 0661 9C       		.byte	0x9c
 3780 0662 8C060000 		.4byte	0x68c
 3781 0666 1A       		.uleb128 0x1a
ARM GAS  C:\Users\HENRYA~1\AppData\Local\Temp\ccNfq1WN.s 			page 82


 3782 0667 6900     		.ascii	"i\000"
 3783 0669 01       		.byte	0x1
 3784 066a 2101     		.2byte	0x121
 3785 066c 64000000 		.4byte	0x64
 3786 0670 21050000 		.4byte	.LLST32
 3787 0674 1A       		.uleb128 0x1a
 3788 0675 6A00     		.ascii	"j\000"
 3789 0677 01       		.byte	0x1
 3790 0678 2101     		.2byte	0x121
 3791 067a 64000000 		.4byte	0x64
 3792 067e 61050000 		.4byte	.LLST33
 3793 0682 08       		.uleb128 0x8
 3794 0683 50000000 		.4byte	.LVL154
 3795 0687 D6000000 		.4byte	0xd6
 3796 068b 00       		.byte	0
 3797 068c 1D       		.uleb128 0x1d
 3798 068d DB050000 		.4byte	.LASF51
 3799 0691 01       		.byte	0x1
 3800 0692 4101     		.2byte	0x141
 3801 0694 25000000 		.4byte	0x25
 3802 0698 00000000 		.4byte	.LFB54
 3803 069c 2A000000 		.4byte	.LFE54-.LFB54
 3804 06a0 01       		.uleb128 0x1
 3805 06a1 9C       		.byte	0x9c
 3806 06a2 D7060000 		.4byte	0x6d7
 3807 06a6 1E       		.uleb128 0x1e
 3808 06a7 7B040000 		.4byte	.LASF52
 3809 06ab 01       		.byte	0x1
 3810 06ac 4101     		.2byte	0x141
 3811 06ae 25000000 		.4byte	0x25
 3812 06b2 8C050000 		.4byte	.LLST34
 3813 06b6 1E       		.uleb128 0x1e
 3814 06b7 44000000 		.4byte	.LASF53
 3815 06bb 01       		.byte	0x1
 3816 06bc 4101     		.2byte	0x141
 3817 06be 25000000 		.4byte	0x25
 3818 06c2 BA050000 		.4byte	.LLST35
 3819 06c6 1E       		.uleb128 0x1e
 3820 06c7 7B030000 		.4byte	.LASF54
 3821 06cb 01       		.byte	0x1
 3822 06cc 4101     		.2byte	0x141
 3823 06ce 25000000 		.4byte	0x25
 3824 06d2 E8050000 		.4byte	.LLST36
 3825 06d6 00       		.byte	0
 3826 06d7 07       		.uleb128 0x7
 3827 06d8 C2020000 		.4byte	.LASF55
 3828 06dc 01       		.byte	0x1
 3829 06dd 4701     		.2byte	0x147
 3830 06df 00000000 		.4byte	.LFB55
 3831 06e3 B8000000 		.4byte	.LFE55-.LFB55
 3832 06e7 01       		.uleb128 0x1
 3833 06e8 9C       		.byte	0x9c
 3834 06e9 8A070000 		.4byte	0x78a
 3835 06ed 1E       		.uleb128 0x1e
 3836 06ee B8030000 		.4byte	.LASF56
 3837 06f2 01       		.byte	0x1
 3838 06f3 4701     		.2byte	0x147
ARM GAS  C:\Users\HENRYA~1\AppData\Local\Temp\ccNfq1WN.s 			page 83


 3839 06f5 64000000 		.4byte	0x64
 3840 06f9 16060000 		.4byte	.LLST37
 3841 06fd 08       		.uleb128 0x8
 3842 06fe 08000000 		.4byte	.LVL172
 3843 0702 D6000000 		.4byte	0xd6
 3844 0706 14       		.uleb128 0x14
 3845 0707 24000000 		.4byte	.LVL174
 3846 070b 8C060000 		.4byte	0x68c
 3847 070f 1B070000 		.4byte	0x71b
 3848 0713 10       		.uleb128 0x10
 3849 0714 01       		.uleb128 0x1
 3850 0715 51       		.byte	0x51
 3851 0716 03       		.uleb128 0x3
 3852 0717 F5       		.byte	0xf5
 3853 0718 07       		.uleb128 0x7
 3854 0719 25       		.uleb128 0x25
 3855 071a 00       		.byte	0
 3856 071b 14       		.uleb128 0x14
 3857 071c 36000000 		.4byte	.LVL175
 3858 0720 8C060000 		.4byte	0x68c
 3859 0724 30070000 		.4byte	0x730
 3860 0728 10       		.uleb128 0x10
 3861 0729 01       		.uleb128 0x1
 3862 072a 51       		.byte	0x51
 3863 072b 03       		.uleb128 0x3
 3864 072c F5       		.byte	0xf5
 3865 072d 07       		.uleb128 0x7
 3866 072e 25       		.uleb128 0x25
 3867 072f 00       		.byte	0
 3868 0730 14       		.uleb128 0x14
 3869 0731 4A000000 		.4byte	.LVL176
 3870 0735 8C060000 		.4byte	0x68c
 3871 0739 45070000 		.4byte	0x745
 3872 073d 10       		.uleb128 0x10
 3873 073e 01       		.uleb128 0x1
 3874 073f 51       		.byte	0x51
 3875 0740 03       		.uleb128 0x3
 3876 0741 F5       		.byte	0xf5
 3877 0742 07       		.uleb128 0x7
 3878 0743 25       		.uleb128 0x25
 3879 0744 00       		.byte	0
 3880 0745 14       		.uleb128 0x14
 3881 0746 5C000000 		.4byte	.LVL177
 3882 074a 8C060000 		.4byte	0x68c
 3883 074e 5A070000 		.4byte	0x75a
 3884 0752 10       		.uleb128 0x10
 3885 0753 01       		.uleb128 0x1
 3886 0754 51       		.byte	0x51
 3887 0755 03       		.uleb128 0x3
 3888 0756 F5       		.byte	0xf5
 3889 0757 07       		.uleb128 0x7
 3890 0758 25       		.uleb128 0x25
 3891 0759 00       		.byte	0
 3892 075a 08       		.uleb128 0x8
 3893 075b 72000000 		.4byte	.LVL178
 3894 075f 8C060000 		.4byte	0x68c
 3895 0763 14       		.uleb128 0x14
ARM GAS  C:\Users\HENRYA~1\AppData\Local\Temp\ccNfq1WN.s 			page 84


 3896 0764 86000000 		.4byte	.LVL179
 3897 0768 8C060000 		.4byte	0x68c
 3898 076c 78070000 		.4byte	0x778
 3899 0770 10       		.uleb128 0x10
 3900 0771 01       		.uleb128 0x1
 3901 0772 52       		.byte	0x52
 3902 0773 03       		.uleb128 0x3
 3903 0774 F5       		.byte	0xf5
 3904 0775 06       		.uleb128 0x6
 3905 0776 25       		.uleb128 0x25
 3906 0777 00       		.byte	0
 3907 0778 0F       		.uleb128 0xf
 3908 0779 96000000 		.4byte	.LVL182
 3909 077d 8C060000 		.4byte	0x68c
 3910 0781 10       		.uleb128 0x10
 3911 0782 01       		.uleb128 0x1
 3912 0783 52       		.byte	0x52
 3913 0784 03       		.uleb128 0x3
 3914 0785 F5       		.byte	0xf5
 3915 0786 06       		.uleb128 0x6
 3916 0787 25       		.uleb128 0x25
 3917 0788 00       		.byte	0
 3918 0789 00       		.byte	0
 3919 078a 1C       		.uleb128 0x1c
 3920 078b FB020000 		.4byte	.LASF57
 3921 078f 01       		.byte	0x1
 3922 0790 5501     		.2byte	0x155
 3923 0792 00000000 		.4byte	.LFB56
 3924 0796 F8000000 		.4byte	.LFE56-.LFB56
 3925 079a 01       		.uleb128 0x1
 3926 079b 9C       		.byte	0x9c
 3927 079c 8D080000 		.4byte	0x88d
 3928 07a0 1F       		.uleb128 0x1f
 3929 07a1 CE000000 		.4byte	.LASF58
 3930 07a5 01       		.byte	0x1
 3931 07a6 5601     		.2byte	0x156
 3932 07a8 64000000 		.4byte	0x64
 3933 07ac 4F060000 		.4byte	.LLST38
 3934 07b0 1F       		.uleb128 0x1f
 3935 07b1 17010000 		.4byte	.LASF59
 3936 07b5 01       		.byte	0x1
 3937 07b6 5701     		.2byte	0x157
 3938 07b8 64000000 		.4byte	0x64
 3939 07bc 6D060000 		.4byte	.LLST39
 3940 07c0 20       		.uleb128 0x20
 3941 07c1 4C000000 		.4byte	.LBB5
 3942 07c5 8C000000 		.4byte	.LBE5-.LBB5
 3943 07c9 56080000 		.4byte	0x856
 3944 07cd 1A       		.uleb128 0x1a
 3945 07ce 6900     		.ascii	"i\000"
 3946 07d0 01       		.byte	0x1
 3947 07d1 5801     		.2byte	0x158
 3948 07d3 64000000 		.4byte	0x64
 3949 07d7 8B060000 		.4byte	.LLST40
 3950 07db 13       		.uleb128 0x13
 3951 07dc 50000000 		.4byte	.LBB6
 3952 07e0 82000000 		.4byte	.LBE6-.LBB6
ARM GAS  C:\Users\HENRYA~1\AppData\Local\Temp\ccNfq1WN.s 			page 85


 3953 07e4 1F       		.uleb128 0x1f
 3954 07e5 76050000 		.4byte	.LASF60
 3955 07e9 01       		.byte	0x1
 3956 07ea 5901     		.2byte	0x159
 3957 07ec 25000000 		.4byte	0x25
 3958 07f0 AA060000 		.4byte	.LLST41
 3959 07f4 1F       		.uleb128 0x1f
 3960 07f5 A1040000 		.4byte	.LASF61
 3961 07f9 01       		.byte	0x1
 3962 07fa 5A01     		.2byte	0x15a
 3963 07fc 25000000 		.4byte	0x25
 3964 0800 D4060000 		.4byte	.LLST42
 3965 0804 1F       		.uleb128 0x1f
 3966 0805 71000000 		.4byte	.LASF62
 3967 0809 01       		.byte	0x1
 3968 080a 5B01     		.2byte	0x15b
 3969 080c 25000000 		.4byte	0x25
 3970 0810 FE060000 		.4byte	.LLST43
 3971 0814 1F       		.uleb128 0x1f
 3972 0815 2C030000 		.4byte	.LASF63
 3973 0819 01       		.byte	0x1
 3974 081a 5C01     		.2byte	0x15c
 3975 081c 25000000 		.4byte	0x25
 3976 0820 1D070000 		.4byte	.LLST44
 3977 0824 1A       		.uleb128 0x1a
 3978 0825 747800   		.ascii	"tx\000"
 3979 0828 01       		.byte	0x1
 3980 0829 5D01     		.2byte	0x15d
 3981 082b 25000000 		.4byte	0x25
 3982 082f 3C070000 		.4byte	.LLST45
 3983 0833 1A       		.uleb128 0x1a
 3984 0834 747900   		.ascii	"ty\000"
 3985 0837 01       		.byte	0x1
 3986 0838 5E01     		.2byte	0x15e
 3987 083a 25000000 		.4byte	0x25
 3988 083e 5B070000 		.4byte	.LLST46
 3989 0842 08       		.uleb128 0x8
 3990 0843 54000000 		.4byte	.LVL195
 3991 0847 D6000000 		.4byte	0xd6
 3992 084b 08       		.uleb128 0x8
 3993 084c 5E000000 		.4byte	.LVL198
 3994 0850 D6000000 		.4byte	0xd6
 3995 0854 00       		.byte	0
 3996 0855 00       		.byte	0
 3997 0856 08       		.uleb128 0x8
 3998 0857 1A000000 		.4byte	.LVL184
 3999 085b D6000000 		.4byte	0xd6
 4000 085f 08       		.uleb128 0x8
 4001 0860 3A000000 		.4byte	.LVL190
 4002 0864 D6000000 		.4byte	0xd6
 4003 0868 14       		.uleb128 0x14
 4004 0869 DE000000 		.4byte	.LVL220
 4005 086d D7060000 		.4byte	0x6d7
 4006 0871 7C080000 		.4byte	0x87c
 4007 0875 10       		.uleb128 0x10
 4008 0876 01       		.uleb128 0x1
 4009 0877 50       		.byte	0x50
ARM GAS  C:\Users\HENRYA~1\AppData\Local\Temp\ccNfq1WN.s 			page 86


 4010 0878 02       		.uleb128 0x2
 4011 0879 79       		.byte	0x79
 4012 087a 00       		.sleb128 0
 4013 087b 00       		.byte	0
 4014 087c 0F       		.uleb128 0xf
 4015 087d E4000000 		.4byte	.LVL221
 4016 0881 D7060000 		.4byte	0x6d7
 4017 0885 10       		.uleb128 0x10
 4018 0886 01       		.uleb128 0x1
 4019 0887 50       		.byte	0x50
 4020 0888 02       		.uleb128 0x2
 4021 0889 78       		.byte	0x78
 4022 088a 00       		.sleb128 0
 4023 088b 00       		.byte	0
 4024 088c 00       		.byte	0
 4025 088d 1C       		.uleb128 0x1c
 4026 088e 95010000 		.4byte	.LASF64
 4027 0892 01       		.byte	0x1
 4028 0893 6801     		.2byte	0x168
 4029 0895 00000000 		.4byte	.LFB57
 4030 0899 68010000 		.4byte	.LFE57-.LFB57
 4031 089d 01       		.uleb128 0x1
 4032 089e 9C       		.byte	0x9c
 4033 089f 13090000 		.4byte	0x913
 4034 08a3 1F       		.uleb128 0x1f
 4035 08a4 4A040000 		.4byte	.LASF65
 4036 08a8 01       		.byte	0x1
 4037 08a9 6901     		.2byte	0x169
 4038 08ab 64000000 		.4byte	0x64
 4039 08af 7A070000 		.4byte	.LLST47
 4040 08b3 1F       		.uleb128 0x1f
 4041 08b4 53000000 		.4byte	.LASF66
 4042 08b8 01       		.byte	0x1
 4043 08b9 6A01     		.2byte	0x16a
 4044 08bb 64000000 		.4byte	0x64
 4045 08bf 98070000 		.4byte	.LLST48
 4046 08c3 08       		.uleb128 0x8
 4047 08c4 18000000 		.4byte	.LVL226
 4048 08c8 D6000000 		.4byte	0xd6
 4049 08cc 08       		.uleb128 0x8
 4050 08cd 2E000000 		.4byte	.LVL230
 4051 08d1 D6000000 		.4byte	0xd6
 4052 08d5 08       		.uleb128 0x8
 4053 08d6 4A000000 		.4byte	.LVL233
 4054 08da F9000000 		.4byte	0xf9
 4055 08de 08       		.uleb128 0x8
 4056 08df 84000000 		.4byte	.LVL239
 4057 08e3 F9000000 		.4byte	0xf9
 4058 08e7 08       		.uleb128 0x8
 4059 08e8 BE000000 		.4byte	.LVL245
 4060 08ec F9000000 		.4byte	0xf9
 4061 08f0 08       		.uleb128 0x8
 4062 08f1 F8000000 		.4byte	.LVL251
 4063 08f5 F9000000 		.4byte	0xf9
 4064 08f9 08       		.uleb128 0x8
 4065 08fa 32010000 		.4byte	.LVL257
 4066 08fe F9000000 		.4byte	0xf9
ARM GAS  C:\Users\HENRYA~1\AppData\Local\Temp\ccNfq1WN.s 			page 87


 4067 0902 0F       		.uleb128 0xf
 4068 0903 58010000 		.4byte	.LVL262
 4069 0907 D7060000 		.4byte	0x6d7
 4070 090b 10       		.uleb128 0x10
 4071 090c 01       		.uleb128 0x1
 4072 090d 50       		.byte	0x50
 4073 090e 02       		.uleb128 0x2
 4074 090f 74       		.byte	0x74
 4075 0910 00       		.sleb128 0
 4076 0911 00       		.byte	0
 4077 0912 00       		.byte	0
 4078 0913 1C       		.uleb128 0x1c
 4079 0914 E0040000 		.4byte	.LASF67
 4080 0918 01       		.byte	0x1
 4081 0919 7301     		.2byte	0x173
 4082 091b 00000000 		.4byte	.LFB58
 4083 091f 6C000000 		.4byte	.LFE58-.LFB58
 4084 0923 01       		.uleb128 0x1
 4085 0924 9C       		.byte	0x9c
 4086 0925 38090000 		.4byte	0x938
 4087 0929 1A       		.uleb128 0x1a
 4088 092a 6900     		.ascii	"i\000"
 4089 092c 01       		.byte	0x1
 4090 092d 7401     		.2byte	0x174
 4091 092f 64000000 		.4byte	0x64
 4092 0933 D7070000 		.4byte	.LLST49
 4093 0937 00       		.byte	0
 4094 0938 21       		.uleb128 0x21
 4095 0939 415F4700 		.ascii	"A_G\000"
 4096 093d 01       		.byte	0x1
 4097 093e 8001     		.2byte	0x180
 4098 0940 00000000 		.4byte	.LFB59
 4099 0944 08010000 		.4byte	.LFE59-.LFB59
 4100 0948 01       		.uleb128 0x1
 4101 0949 9C       		.byte	0x9c
 4102 094a D2090000 		.4byte	0x9d2
 4103 094e 1F       		.uleb128 0x1f
 4104 094f 65030000 		.4byte	.LASF68
 4105 0953 01       		.byte	0x1
 4106 0954 8101     		.2byte	0x181
 4107 0956 25000000 		.4byte	0x25
 4108 095a F6070000 		.4byte	.LLST50
 4109 095e 1F       		.uleb128 0x1f
 4110 095f 74030000 		.4byte	.LASF69
 4111 0963 01       		.byte	0x1
 4112 0964 8201     		.2byte	0x182
 4113 0966 25000000 		.4byte	0x25
 4114 096a 29080000 		.4byte	.LLST51
 4115 096e 08       		.uleb128 0x8
 4116 096f 24000000 		.4byte	.LVL270
 4117 0973 98040000 		.4byte	0x498
 4118 0977 08       		.uleb128 0x8
 4119 0978 28000000 		.4byte	.LVL271
 4120 097c 13090000 		.4byte	0x913
 4121 0980 08       		.uleb128 0x8
 4122 0981 3C000000 		.4byte	.LVL272
 4123 0985 BD050000 		.4byte	0x5bd
ARM GAS  C:\Users\HENRYA~1\AppData\Local\Temp\ccNfq1WN.s 			page 88


 4124 0989 08       		.uleb128 0x8
 4125 098a 40000000 		.4byte	.LVL273
 4126 098e 50060000 		.4byte	0x650
 4127 0992 08       		.uleb128 0x8
 4128 0993 52000000 		.4byte	.LVL274
 4129 0997 D6000000 		.4byte	0xd6
 4130 099b 08       		.uleb128 0x8
 4131 099c 66000000 		.4byte	.LVL277
 4132 09a0 8A070000 		.4byte	0x78a
 4133 09a4 08       		.uleb128 0x8
 4134 09a5 6A000000 		.4byte	.LVL278
 4135 09a9 D6000000 		.4byte	0xd6
 4136 09ad 08       		.uleb128 0x8
 4137 09ae 7E000000 		.4byte	.LVL281
 4138 09b2 8D080000 		.4byte	0x88d
 4139 09b6 08       		.uleb128 0x8
 4140 09b7 A2000000 		.4byte	.LVL283
 4141 09bb 1C050000 		.4byte	0x51c
 4142 09bf 08       		.uleb128 0x8
 4143 09c0 B4000000 		.4byte	.LVL284
 4144 09c4 BD050000 		.4byte	0x5bd
 4145 09c8 08       		.uleb128 0x8
 4146 09c9 DC000000 		.4byte	.LVL286
 4147 09cd 510F0000 		.4byte	0xf51
 4148 09d1 00       		.byte	0
 4149 09d2 1B       		.uleb128 0x1b
 4150 09d3 80010000 		.4byte	.LASF70
 4151 09d7 01       		.byte	0x1
 4152 09d8 B901     		.2byte	0x1b9
 4153 09da 00000000 		.4byte	.LFB60
 4154 09de 38000000 		.4byte	.LFE60-.LFB60
 4155 09e2 01       		.uleb128 0x1
 4156 09e3 9C       		.byte	0x9c
 4157 09e4 140A0000 		.4byte	0xa14
 4158 09e8 14       		.uleb128 0x14
 4159 09e9 1A000000 		.4byte	.LVL288
 4160 09ed 5D0F0000 		.4byte	0xf5d
 4161 09f1 FB090000 		.4byte	0x9fb
 4162 09f5 10       		.uleb128 0x10
 4163 09f6 01       		.uleb128 0x1
 4164 09f7 50       		.byte	0x50
 4165 09f8 01       		.uleb128 0x1
 4166 09f9 31       		.byte	0x31
 4167 09fa 00       		.byte	0
 4168 09fb 08       		.uleb128 0x8
 4169 09fc 1E000000 		.4byte	.LVL289
 4170 0a00 38090000 		.4byte	0x938
 4171 0a04 0F       		.uleb128 0xf
 4172 0a05 2C000000 		.4byte	.LVL290
 4173 0a09 5D0F0000 		.4byte	0xf5d
 4174 0a0d 10       		.uleb128 0x10
 4175 0a0e 01       		.uleb128 0x1
 4176 0a0f 50       		.byte	0x50
 4177 0a10 01       		.uleb128 0x1
 4178 0a11 30       		.byte	0x30
 4179 0a12 00       		.byte	0
 4180 0a13 00       		.byte	0
ARM GAS  C:\Users\HENRYA~1\AppData\Local\Temp\ccNfq1WN.s 			page 89


 4181 0a14 18       		.uleb128 0x18
 4182 0a15 D3000000 		.4byte	.LASF71
 4183 0a19 01       		.byte	0x1
 4184 0a1a C501     		.2byte	0x1c5
 4185 0a1c 00000000 		.4byte	.LFB61
 4186 0a20 08000000 		.4byte	.LFE61-.LFB61
 4187 0a24 01       		.uleb128 0x1
 4188 0a25 9C       		.byte	0x9c
 4189 0a26 340A0000 		.4byte	0xa34
 4190 0a2a 08       		.uleb128 0x8
 4191 0a2b 06000000 		.4byte	.LVL291
 4192 0a2f D2090000 		.4byte	0x9d2
 4193 0a33 00       		.byte	0
 4194 0a34 22       		.uleb128 0x22
 4195 0a35 8D060000 		.4byte	.LASF72
 4196 0a39 01       		.byte	0x1
 4197 0a3a CE01     		.2byte	0x1ce
 4198 0a3c 64000000 		.4byte	0x64
 4199 0a40 00000000 		.4byte	.LFB63
 4200 0a44 D8010000 		.4byte	.LFE63-.LFB63
 4201 0a48 01       		.uleb128 0x1
 4202 0a49 9C       		.byte	0x9c
 4203 0a4a 7F0B0000 		.4byte	0xb7f
 4204 0a4e 1A       		.uleb128 0x1a
 4205 0a4f 6900     		.ascii	"i\000"
 4206 0a51 01       		.byte	0x1
 4207 0a52 D001     		.2byte	0x1d0
 4208 0a54 64000000 		.4byte	0x64
 4209 0a58 5C080000 		.4byte	.LLST52
 4210 0a5c 08       		.uleb128 0x8
 4211 0a5d 0A000000 		.4byte	.LVL294
 4212 0a61 D6000000 		.4byte	0xd6
 4213 0a65 08       		.uleb128 0x8
 4214 0a66 18000000 		.4byte	.LVL296
 4215 0a6a D6000000 		.4byte	0xd6
 4216 0a6e 08       		.uleb128 0x8
 4217 0a6f 28000000 		.4byte	.LVL298
 4218 0a73 1C010000 		.4byte	0x11c
 4219 0a77 08       		.uleb128 0x8
 4220 0a78 36000000 		.4byte	.LVL300
 4221 0a7c 4C010000 		.4byte	0x14c
 4222 0a80 08       		.uleb128 0x8
 4223 0a81 46000000 		.4byte	.LVL302
 4224 0a85 7C010000 		.4byte	0x17c
 4225 0a89 08       		.uleb128 0x8
 4226 0a8a 56000000 		.4byte	.LVL304
 4227 0a8e AC010000 		.4byte	0x1ac
 4228 0a92 08       		.uleb128 0x8
 4229 0a93 66000000 		.4byte	.LVL306
 4230 0a97 AC010000 		.4byte	0x1ac
 4231 0a9b 08       		.uleb128 0x8
 4232 0a9c 78000000 		.4byte	.LVL308
 4233 0aa0 1C010000 		.4byte	0x11c
 4234 0aa4 08       		.uleb128 0x8
 4235 0aa5 90000000 		.4byte	.LVL310
 4236 0aa9 7C010000 		.4byte	0x17c
 4237 0aad 08       		.uleb128 0x8
ARM GAS  C:\Users\HENRYA~1\AppData\Local\Temp\ccNfq1WN.s 			page 90


 4238 0aae AA000000 		.4byte	.LVL312
 4239 0ab2 AC010000 		.4byte	0x1ac
 4240 0ab6 08       		.uleb128 0x8
 4241 0ab7 C8000000 		.4byte	.LVL317
 4242 0abb D6000000 		.4byte	0xd6
 4243 0abf 08       		.uleb128 0x8
 4244 0ac0 D6000000 		.4byte	.LVL319
 4245 0ac4 D6000000 		.4byte	0xd6
 4246 0ac8 08       		.uleb128 0x8
 4247 0ac9 E6000000 		.4byte	.LVL321
 4248 0acd 1C010000 		.4byte	0x11c
 4249 0ad1 08       		.uleb128 0x8
 4250 0ad2 F4000000 		.4byte	.LVL323
 4251 0ad6 4C010000 		.4byte	0x14c
 4252 0ada 08       		.uleb128 0x8
 4253 0adb 04010000 		.4byte	.LVL325
 4254 0adf 7C010000 		.4byte	0x17c
 4255 0ae3 08       		.uleb128 0x8
 4256 0ae4 14010000 		.4byte	.LVL327
 4257 0ae8 AC010000 		.4byte	0x1ac
 4258 0aec 08       		.uleb128 0x8
 4259 0aed 24010000 		.4byte	.LVL329
 4260 0af1 AC010000 		.4byte	0x1ac
 4261 0af5 08       		.uleb128 0x8
 4262 0af6 36010000 		.4byte	.LVL331
 4263 0afa 1C010000 		.4byte	0x11c
 4264 0afe 08       		.uleb128 0x8
 4265 0aff 4E010000 		.4byte	.LVL333
 4266 0b03 7C010000 		.4byte	0x17c
 4267 0b07 08       		.uleb128 0x8
 4268 0b08 68010000 		.4byte	.LVL335
 4269 0b0c AC010000 		.4byte	0x1ac
 4270 0b10 08       		.uleb128 0x8
 4271 0b11 88010000 		.4byte	.LVL338
 4272 0b15 680F0000 		.4byte	0xf68
 4273 0b19 08       		.uleb128 0x8
 4274 0b1a 8C010000 		.4byte	.LVL339
 4275 0b1e 730F0000 		.4byte	0xf73
 4276 0b22 08       		.uleb128 0x8
 4277 0b23 90010000 		.4byte	.LVL340
 4278 0b27 7E0F0000 		.4byte	0xf7e
 4279 0b2b 08       		.uleb128 0x8
 4280 0b2c 94010000 		.4byte	.LVL341
 4281 0b30 890F0000 		.4byte	0xf89
 4282 0b34 14       		.uleb128 0x14
 4283 0b35 9A010000 		.4byte	.LVL342
 4284 0b39 940F0000 		.4byte	0xf94
 4285 0b3d 4B0B0000 		.4byte	0xb4b
 4286 0b41 10       		.uleb128 0x10
 4287 0b42 01       		.uleb128 0x1
 4288 0b43 50       		.byte	0x50
 4289 0b44 05       		.uleb128 0x5
 4290 0b45 03       		.byte	0x3
 4291 0b46 00000000 		.4byte	interrutcan
 4292 0b4a 00       		.byte	0
 4293 0b4b 08       		.uleb128 0x8
 4294 0b4c 9E010000 		.4byte	.LVL343
ARM GAS  C:\Users\HENRYA~1\AppData\Local\Temp\ccNfq1WN.s 			page 91


 4295 0b50 460F0000 		.4byte	0xf46
 4296 0b54 14       		.uleb128 0x14
 4297 0b55 A4010000 		.4byte	.LVL344
 4298 0b59 9F0F0000 		.4byte	0xf9f
 4299 0b5d 6B0B0000 		.4byte	0xb6b
 4300 0b61 10       		.uleb128 0x10
 4301 0b62 01       		.uleb128 0x1
 4302 0b63 50       		.byte	0x50
 4303 0b64 05       		.uleb128 0x5
 4304 0b65 03       		.byte	0x3
 4305 0b66 00000000 		.4byte	Serial_Interrupt
 4306 0b6a 00       		.byte	0
 4307 0b6b 0F       		.uleb128 0xf
 4308 0b6c AA010000 		.4byte	.LVL345
 4309 0b70 AA0F0000 		.4byte	0xfaa
 4310 0b74 10       		.uleb128 0x10
 4311 0b75 01       		.uleb128 0x1
 4312 0b76 50       		.byte	0x50
 4313 0b77 05       		.uleb128 0x5
 4314 0b78 03       		.byte	0x3
 4315 0b79 00000000 		.4byte	Temporizador
 4316 0b7d 00       		.byte	0
 4317 0b7e 00       		.byte	0
 4318 0b7f 23       		.uleb128 0x23
 4319 0b80 08050000 		.4byte	.LASF73
 4320 0b84 01       		.byte	0x1
 4321 0b85 08       		.byte	0x8
 4322 0b86 A6000000 		.4byte	0xa6
 4323 0b8a 05       		.uleb128 0x5
 4324 0b8b 03       		.byte	0x3
 4325 0b8c 00000000 		.4byte	mailbox0
 4326 0b90 23       		.uleb128 0x23
 4327 0b91 53040000 		.4byte	.LASF74
 4328 0b95 01       		.byte	0x1
 4329 0b96 09       		.byte	0x9
 4330 0b97 A6000000 		.4byte	0xa6
 4331 0b9b 05       		.uleb128 0x5
 4332 0b9c 03       		.byte	0x3
 4333 0b9d 00000000 		.4byte	mailbox1
 4334 0ba1 23       		.uleb128 0x23
 4335 0ba2 5C040000 		.4byte	.LASF75
 4336 0ba6 01       		.byte	0x1
 4337 0ba7 0A       		.byte	0xa
 4338 0ba8 A6000000 		.4byte	0xa6
 4339 0bac 05       		.uleb128 0x5
 4340 0bad 03       		.byte	0x3
 4341 0bae 00000000 		.4byte	mailbox2
 4342 0bb2 23       		.uleb128 0x23
 4343 0bb3 90050000 		.4byte	.LASF76
 4344 0bb7 01       		.byte	0x1
 4345 0bb8 0B       		.byte	0xb
 4346 0bb9 A6000000 		.4byte	0xa6
 4347 0bbd 05       		.uleb128 0x5
 4348 0bbe 03       		.byte	0x3
 4349 0bbf 00000000 		.4byte	dato_enviado
 4350 0bc3 23       		.uleb128 0x23
 4351 0bc4 0B000000 		.4byte	.LASF77
ARM GAS  C:\Users\HENRYA~1\AppData\Local\Temp\ccNfq1WN.s 			page 92


 4352 0bc8 01       		.byte	0x1
 4353 0bc9 0C       		.byte	0xc
 4354 0bca A6000000 		.4byte	0xa6
 4355 0bce 05       		.uleb128 0x5
 4356 0bcf 03       		.byte	0x3
 4357 0bd0 00000000 		.4byte	dato_enviado_1
 4358 0bd4 23       		.uleb128 0x23
 4359 0bd5 1A000000 		.4byte	.LASF78
 4360 0bd9 01       		.byte	0x1
 4361 0bda 0D       		.byte	0xd
 4362 0bdb A6000000 		.4byte	0xa6
 4363 0bdf 05       		.uleb128 0x5
 4364 0be0 03       		.byte	0x3
 4365 0be1 00000000 		.4byte	dato_enviado_2
 4366 0be5 23       		.uleb128 0x23
 4367 0be6 8A050000 		.4byte	.LASF79
 4368 0bea 01       		.byte	0x1
 4369 0beb 0E       		.byte	0xe
 4370 0bec 7E000000 		.4byte	0x7e
 4371 0bf0 05       		.uleb128 0x5
 4372 0bf1 03       		.byte	0x3
 4373 0bf2 00000000 		.4byte	conta
 4374 0bf6 23       		.uleb128 0x23
 4375 0bf7 AE030000 		.4byte	.LASF80
 4376 0bfb 01       		.byte	0x1
 4377 0bfc 0F       		.byte	0xf
 4378 0bfd 64000000 		.4byte	0x64
 4379 0c01 05       		.uleb128 0x5
 4380 0c02 03       		.byte	0x3
 4381 0c03 00000000 		.4byte	cantidadM
 4382 0c07 23       		.uleb128 0x23
 4383 0c08 F9000000 		.4byte	.LASF81
 4384 0c0c 01       		.byte	0x1
 4385 0c0d 10       		.byte	0x10
 4386 0c0e 64000000 		.4byte	0x64
 4387 0c12 05       		.uleb128 0x5
 4388 0c13 03       		.byte	0x3
 4389 0c14 00000000 		.4byte	Cantidad_Sensores
 4390 0c18 23       		.uleb128 0x23
 4391 0c19 BE050000 		.4byte	.LASF82
 4392 0c1d 01       		.byte	0x1
 4393 0c1e 12       		.byte	0x12
 4394 0c1f 64000000 		.4byte	0x64
 4395 0c23 05       		.uleb128 0x5
 4396 0c24 03       		.byte	0x3
 4397 0c25 00000000 		.4byte	Max_Conta
 4398 0c29 23       		.uleb128 0x23
 4399 0c2a C8050000 		.4byte	.LASF83
 4400 0c2e 01       		.byte	0x1
 4401 0c2f 13       		.byte	0x13
 4402 0c30 25000000 		.4byte	0x25
 4403 0c34 05       		.uleb128 0x5
 4404 0c35 03       		.byte	0x3
 4405 0c36 00000000 		.4byte	Amplitud_H
 4406 0c3a 23       		.uleb128 0x23
 4407 0c3b 52030000 		.4byte	.LASF84
 4408 0c3f 01       		.byte	0x1
ARM GAS  C:\Users\HENRYA~1\AppData\Local\Temp\ccNfq1WN.s 			page 93


 4409 0c40 14       		.byte	0x14
 4410 0c41 25000000 		.4byte	0x25
 4411 0c45 05       		.uleb128 0x5
 4412 0c46 03       		.byte	0x3
 4413 0c47 00000000 		.4byte	Amplitud_V
 4414 0c4b 23       		.uleb128 0x23
 4415 0c4c B9020000 		.4byte	.LASF85
 4416 0c50 01       		.byte	0x1
 4417 0c51 15       		.byte	0x15
 4418 0c52 25000000 		.4byte	0x25
 4419 0c56 05       		.uleb128 0x5
 4420 0c57 03       		.byte	0x3
 4421 0c58 00000000 		.4byte	Offset_H
 4422 0c5c 23       		.uleb128 0x23
 4423 0c5d CD020000 		.4byte	.LASF86
 4424 0c61 01       		.byte	0x1
 4425 0c62 16       		.byte	0x16
 4426 0c63 25000000 		.4byte	0x25
 4427 0c67 05       		.uleb128 0x5
 4428 0c68 03       		.byte	0x3
 4429 0c69 00000000 		.4byte	Offset_V
 4430 0c6d 23       		.uleb128 0x23
 4431 0c6e 9E000000 		.4byte	.LASF87
 4432 0c72 01       		.byte	0x1
 4433 0c73 17       		.byte	0x17
 4434 0c74 25000000 		.4byte	0x25
 4435 0c78 05       		.uleb128 0x5
 4436 0c79 03       		.byte	0x3
 4437 0c7a 00000000 		.4byte	Fase
 4438 0c7e 23       		.uleb128 0x23
 4439 0c7f 33060000 		.4byte	.LASF88
 4440 0c83 01       		.byte	0x1
 4441 0c84 18       		.byte	0x18
 4442 0c85 25000000 		.4byte	0x25
 4443 0c89 05       		.uleb128 0x5
 4444 0c8a 03       		.byte	0x3
 4445 0c8b 00000000 		.4byte	ampli_aux_V
 4446 0c8f 23       		.uleb128 0x23
 4447 0c90 08060000 		.4byte	.LASF89
 4448 0c94 01       		.byte	0x1
 4449 0c95 19       		.byte	0x19
 4450 0c96 25000000 		.4byte	0x25
 4451 0c9a 05       		.uleb128 0x5
 4452 0c9b 03       		.byte	0x3
 4453 0c9c 00000000 		.4byte	ampli_aux_H
 4454 0ca0 23       		.uleb128 0x23
 4455 0ca1 29060000 		.4byte	.LASF90
 4456 0ca5 01       		.byte	0x1
 4457 0ca6 1A       		.byte	0x1a
 4458 0ca7 25000000 		.4byte	0x25
 4459 0cab 05       		.uleb128 0x5
 4460 0cac 03       		.byte	0x3
 4461 0cad 00000000 		.4byte	off_aux_V
 4462 0cb1 23       		.uleb128 0x23
 4463 0cb2 FE050000 		.4byte	.LASF91
 4464 0cb6 01       		.byte	0x1
 4465 0cb7 1B       		.byte	0x1b
ARM GAS  C:\Users\HENRYA~1\AppData\Local\Temp\ccNfq1WN.s 			page 94


 4466 0cb8 25000000 		.4byte	0x25
 4467 0cbc 05       		.uleb128 0x5
 4468 0cbd 03       		.byte	0x3
 4469 0cbe 00000000 		.4byte	off_aux_H
 4470 0cc2 23       		.uleb128 0x23
 4471 0cc3 F1000000 		.4byte	.LASF92
 4472 0cc7 01       		.byte	0x1
 4473 0cc8 1C       		.byte	0x1c
 4474 0cc9 25000000 		.4byte	0x25
 4475 0ccd 05       		.uleb128 0x5
 4476 0cce 03       		.byte	0x3
 4477 0ccf 00000000 		.4byte	pha_aux
 4478 0cd3 23       		.uleb128 0x23
 4479 0cd4 93040000 		.4byte	.LASF93
 4480 0cd8 01       		.byte	0x1
 4481 0cd9 1D       		.byte	0x1d
 4482 0cda 25000000 		.4byte	0x25
 4483 0cde 05       		.uleb128 0x5
 4484 0cdf 03       		.byte	0x3
 4485 0ce0 00000000 		.4byte	ampli_aux_V_2
 4486 0ce4 23       		.uleb128 0x23
 4487 0ce5 AB050000 		.4byte	.LASF94
 4488 0ce9 01       		.byte	0x1
 4489 0cea 1E       		.byte	0x1e
 4490 0ceb 25000000 		.4byte	0x25
 4491 0cef 05       		.uleb128 0x5
 4492 0cf0 03       		.byte	0x3
 4493 0cf1 00000000 		.4byte	off_aux_V_2
 4494 0cf5 23       		.uleb128 0x23
 4495 0cf6 B0000000 		.4byte	.LASF95
 4496 0cfa 01       		.byte	0x1
 4497 0cfb 1F       		.byte	0x1f
 4498 0cfc 25000000 		.4byte	0x25
 4499 0d00 05       		.uleb128 0x5
 4500 0d01 03       		.byte	0x3
 4501 0d02 00000000 		.4byte	pha_aux_2
 4502 0d06 23       		.uleb128 0x23
 4503 0d07 C0000000 		.4byte	.LASF96
 4504 0d0b 01       		.byte	0x1
 4505 0d0c 20       		.byte	0x20
 4506 0d0d 25000000 		.4byte	0x25
 4507 0d11 05       		.uleb128 0x5
 4508 0d12 03       		.byte	0x3
 4509 0d13 00000000 		.4byte	ampli_aux_H_2
 4510 0d17 23       		.uleb128 0x23
 4511 0d18 89010000 		.4byte	.LASF97
 4512 0d1c 01       		.byte	0x1
 4513 0d1d 21       		.byte	0x21
 4514 0d1e 25000000 		.4byte	0x25
 4515 0d22 05       		.uleb128 0x5
 4516 0d23 03       		.byte	0x3
 4517 0d24 00000000 		.4byte	off_aux_H_2
 4518 0d28 23       		.uleb128 0x23
 4519 0d29 4A050000 		.4byte	.LASF98
 4520 0d2d 01       		.byte	0x1
 4521 0d2e 22       		.byte	0x22
 4522 0d2f 25000000 		.4byte	0x25
ARM GAS  C:\Users\HENRYA~1\AppData\Local\Temp\ccNfq1WN.s 			page 95


 4523 0d33 05       		.uleb128 0x5
 4524 0d34 03       		.byte	0x3
 4525 0d35 00000000 		.4byte	Peso_Sensor
 4526 0d39 23       		.uleb128 0x23
 4527 0d3a F7040000 		.4byte	.LASF99
 4528 0d3e 01       		.byte	0x1
 4529 0d3f 23       		.byte	0x23
 4530 0d40 64000000 		.4byte	0x64
 4531 0d44 05       		.uleb128 0x5
 4532 0d45 03       		.byte	0x3
 4533 0d46 00000000 		.4byte	flag
 4534 0d4a 23       		.uleb128 0x23
 4535 0d4b 45040000 		.4byte	.LASF100
 4536 0d4f 01       		.byte	0x1
 4537 0d50 24       		.byte	0x24
 4538 0d51 25000000 		.4byte	0x25
 4539 0d55 05       		.uleb128 0x5
 4540 0d56 03       		.byte	0x3
 4541 0d57 00000000 		.4byte	dist
 4542 0d5b 23       		.uleb128 0x23
 4543 0d5c 95000000 		.4byte	.LASF101
 4544 0d60 01       		.byte	0x1
 4545 0d61 25       		.byte	0x25
 4546 0d62 25000000 		.4byte	0x25
 4547 0d66 05       		.uleb128 0x5
 4548 0d67 03       		.byte	0x3
 4549 0d68 00000000 		.4byte	L_actual
 4550 0d6c 23       		.uleb128 0x23
 4551 0d6d 00000000 		.4byte	.LASF102
 4552 0d71 01       		.byte	0x1
 4553 0d72 26       		.byte	0x26
 4554 0d73 25000000 		.4byte	0x25
 4555 0d77 05       		.uleb128 0x5
 4556 0d78 03       		.byte	0x3
 4557 0d79 00000000 		.4byte	L_anterior
 4558 0d7d 23       		.uleb128 0x23
 4559 0d7e A9040000 		.4byte	.LASF103
 4560 0d82 01       		.byte	0x1
 4561 0d83 27       		.byte	0x27
 4562 0d84 64000000 		.4byte	0x64
 4563 0d88 05       		.uleb128 0x5
 4564 0d89 03       		.byte	0x3
 4565 0d8a 00000000 		.4byte	punto_a
 4566 0d8e 23       		.uleb128 0x23
 4567 0d8f B1040000 		.4byte	.LASF104
 4568 0d93 01       		.byte	0x1
 4569 0d94 28       		.byte	0x28
 4570 0d95 64000000 		.4byte	0x64
 4571 0d99 05       		.uleb128 0x5
 4572 0d9a 03       		.byte	0x3
 4573 0d9b 00000000 		.4byte	punto_b
 4574 0d9f 23       		.uleb128 0x23
 4575 0da0 0F020000 		.4byte	.LASF105
 4576 0da4 01       		.byte	0x1
 4577 0da5 29       		.byte	0x29
 4578 0da6 64000000 		.4byte	0x64
 4579 0daa 05       		.uleb128 0x5
ARM GAS  C:\Users\HENRYA~1\AppData\Local\Temp\ccNfq1WN.s 			page 96


 4580 0dab 03       		.byte	0x3
 4581 0dac 00000000 		.4byte	move_s
 4582 0db0 23       		.uleb128 0x23
 4583 0db1 AF020000 		.4byte	.LASF106
 4584 0db5 01       		.byte	0x1
 4585 0db6 2A       		.byte	0x2a
 4586 0db7 64000000 		.4byte	0x64
 4587 0dbb 05       		.uleb128 0x5
 4588 0dbc 03       		.byte	0x3
 4589 0dbd 00000000 		.4byte	individuo
 4590 0dc1 23       		.uleb128 0x23
 4591 0dc2 01030000 		.4byte	.LASF107
 4592 0dc6 01       		.byte	0x1
 4593 0dc7 2D       		.byte	0x2d
 4594 0dc8 64000000 		.4byte	0x64
 4595 0dcc 05       		.uleb128 0x5
 4596 0dcd 03       		.byte	0x3
 4597 0dce 00000000 		.4byte	Individuos
 4598 0dd2 05       		.uleb128 0x5
 4599 0dd3 25000000 		.4byte	0x25
 4600 0dd7 E80D0000 		.4byte	0xde8
 4601 0ddb 06       		.uleb128 0x6
 4602 0ddc 9F000000 		.4byte	0x9f
 4603 0de0 04       		.byte	0x4
 4604 0de1 06       		.uleb128 0x6
 4605 0de2 9F000000 		.4byte	0x9f
 4606 0de6 09       		.byte	0x9
 4607 0de7 00       		.byte	0
 4608 0de8 23       		.uleb128 0x23
 4609 0de9 71040000 		.4byte	.LASF108
 4610 0ded 01       		.byte	0x1
 4611 0dee 2E       		.byte	0x2e
 4612 0def D20D0000 		.4byte	0xdd2
 4613 0df3 05       		.uleb128 0x5
 4614 0df4 03       		.byte	0x3
 4615 0df5 00000000 		.4byte	Poblacion
 4616 0df9 23       		.uleb128 0x23
 4617 0dfa 89000000 		.4byte	.LASF109
 4618 0dfe 01       		.byte	0x1
 4619 0dff 2F       		.byte	0x2f
 4620 0e00 D20D0000 		.4byte	0xdd2
 4621 0e04 05       		.uleb128 0x5
 4622 0e05 03       		.byte	0x3
 4623 0e06 00000000 		.4byte	Poblacion_1
 4624 0e0a 05       		.uleb128 0x5
 4625 0e0b 25000000 		.4byte	0x25
 4626 0e0f 1A0E0000 		.4byte	0xe1a
 4627 0e13 06       		.uleb128 0x6
 4628 0e14 9F000000 		.4byte	0x9f
 4629 0e18 09       		.byte	0x9
 4630 0e19 00       		.byte	0
 4631 0e1a 23       		.uleb128 0x23
 4632 0e1b D3050000 		.4byte	.LASF110
 4633 0e1f 01       		.byte	0x1
 4634 0e20 30       		.byte	0x30
 4635 0e21 0A0E0000 		.4byte	0xe0a
 4636 0e25 05       		.uleb128 0x5
ARM GAS  C:\Users\HENRYA~1\AppData\Local\Temp\ccNfq1WN.s 			page 97


 4637 0e26 03       		.byte	0x3
 4638 0e27 00000000 		.4byte	Fitness
 4639 0e2b 23       		.uleb128 0x23
 4640 0e2c 1B040000 		.4byte	.LASF111
 4641 0e30 01       		.byte	0x1
 4642 0e31 31       		.byte	0x31
 4643 0e32 0A0E0000 		.4byte	0xe0a
 4644 0e36 05       		.uleb128 0x5
 4645 0e37 03       		.byte	0x3
 4646 0e38 00000000 		.4byte	Fitness_1
 4647 0e3c 23       		.uleb128 0x23
 4648 0e3d 9A030000 		.4byte	.LASF112
 4649 0e41 01       		.byte	0x1
 4650 0e42 32       		.byte	0x32
 4651 0e43 0A0E0000 		.4byte	0xe0a
 4652 0e47 05       		.uleb128 0x5
 4653 0e48 03       		.byte	0x3
 4654 0e49 00000000 		.4byte	Fitness_Normalizado
 4655 0e4d 23       		.uleb128 0x23
 4656 0e4e 56050000 		.4byte	.LASF113
 4657 0e52 01       		.byte	0x1
 4658 0e53 33       		.byte	0x33
 4659 0e54 64000000 		.4byte	0x64
 4660 0e58 05       		.uleb128 0x5
 4661 0e59 03       		.byte	0x3
 4662 0e5a 00000000 		.4byte	Fila
 4663 0e5e 23       		.uleb128 0x23
 4664 0e5f 6C030000 		.4byte	.LASF114
 4665 0e63 01       		.byte	0x1
 4666 0e64 34       		.byte	0x34
 4667 0e65 64000000 		.4byte	0x64
 4668 0e69 05       		.uleb128 0x5
 4669 0e6a 03       		.byte	0x3
 4670 0e6b 00000000 		.4byte	Columna
 4671 0e6f 23       		.uleb128 0x23
 4672 0e70 FC030000 		.4byte	.LASF115
 4673 0e74 01       		.byte	0x1
 4674 0e75 35       		.byte	0x35
 4675 0e76 25000000 		.4byte	0x25
 4676 0e7a 05       		.uleb128 0x5
 4677 0e7b 03       		.byte	0x3
 4678 0e7c 00000000 		.4byte	Umbral_Cruce
 4679 0e80 23       		.uleb128 0x23
 4680 0e81 35040000 		.4byte	.LASF116
 4681 0e85 01       		.byte	0x1
 4682 0e86 36       		.byte	0x36
 4683 0e87 25000000 		.4byte	0x25
 4684 0e8b 05       		.uleb128 0x5
 4685 0e8c 03       		.byte	0x3
 4686 0e8d 00000000 		.4byte	Umbral_Mutacion
 4687 0e91 23       		.uleb128 0x23
 4688 0e92 22050000 		.4byte	.LASF117
 4689 0e96 01       		.byte	0x1
 4690 0e97 37       		.byte	0x37
 4691 0e98 64000000 		.4byte	0x64
 4692 0e9c 05       		.uleb128 0x5
 4693 0e9d 03       		.byte	0x3
ARM GAS  C:\Users\HENRYA~1\AppData\Local\Temp\ccNfq1WN.s 			page 98


 4694 0e9e 00000000 		.4byte	conmutador
 4695 0ea2 23       		.uleb128 0x23
 4696 0ea3 BF060000 		.4byte	.LASF118
 4697 0ea7 01       		.byte	0x1
 4698 0ea8 38       		.byte	0x38
 4699 0ea9 64000000 		.4byte	0x64
 4700 0ead 05       		.uleb128 0x5
 4701 0eae 03       		.byte	0x3
 4702 0eaf 00000000 		.4byte	puntero
 4703 0eb3 05       		.uleb128 0x5
 4704 0eb4 64000000 		.4byte	0x64
 4705 0eb8 C30E0000 		.4byte	0xec3
 4706 0ebc 06       		.uleb128 0x6
 4707 0ebd 9F000000 		.4byte	0x9f
 4708 0ec1 09       		.byte	0x9
 4709 0ec2 00       		.byte	0
 4710 0ec3 23       		.uleb128 0x23
 4711 0ec4 8C040000 		.4byte	.LASF119
 4712 0ec8 01       		.byte	0x1
 4713 0ec9 39       		.byte	0x39
 4714 0eca B30E0000 		.4byte	0xeb3
 4715 0ece 05       		.uleb128 0x5
 4716 0ecf 03       		.byte	0x3
 4717 0ed0 00000000 		.4byte	indice
 4718 0ed4 24       		.uleb128 0x24
 4719 0ed5 41637500 		.ascii	"Acu\000"
 4720 0ed9 01       		.byte	0x1
 4721 0eda 3A       		.byte	0x3a
 4722 0edb 25000000 		.4byte	0x25
 4723 0edf 05       		.uleb128 0x5
 4724 0ee0 03       		.byte	0x3
 4725 0ee1 00000000 		.4byte	Acu
 4726 0ee5 23       		.uleb128 0x23
 4727 0ee6 34050000 		.4byte	.LASF120
 4728 0eea 01       		.byte	0x1
 4729 0eeb 3B       		.byte	0x3b
 4730 0eec 25000000 		.4byte	0x25
 4731 0ef0 05       		.uleb128 0x5
 4732 0ef1 03       		.byte	0x3
 4733 0ef2 00000000 		.4byte	bolita
 4734 0ef6 25       		.uleb128 0x25
 4735 0ef7 11050000 		.4byte	.LASF121
 4736 0efb 11050000 		.4byte	.LASF121
 4737 0eff 03       		.byte	0x3
 4738 0f00 71       		.byte	0x71
 4739 0f01 25       		.uleb128 0x25
 4740 0f02 C0030000 		.4byte	.LASF122
 4741 0f06 C0030000 		.4byte	.LASF122
 4742 0f0a 04       		.byte	0x4
 4743 0f0b 88       		.byte	0x88
 4744 0f0c 26       		.uleb128 0x26
 4745 0f0d 59010000 		.4byte	.LASF123
 4746 0f11 59010000 		.4byte	.LASF123
 4747 0f15 05       		.byte	0x5
 4748 0f16 1D01     		.2byte	0x11d
 4749 0f18 25       		.uleb128 0x25
 4750 0f19 5D030000 		.4byte	.LASF124
ARM GAS  C:\Users\HENRYA~1\AppData\Local\Temp\ccNfq1WN.s 			page 99


 4751 0f1d 5D030000 		.4byte	.LASF124
 4752 0f21 06       		.byte	0x6
 4753 0f22 D7       		.byte	0xd7
 4754 0f23 26       		.uleb128 0x26
 4755 0f24 66010000 		.4byte	.LASF125
 4756 0f28 66010000 		.4byte	.LASF125
 4757 0f2c 05       		.byte	0x5
 4758 0f2d 2001     		.2byte	0x120
 4759 0f2f 25       		.uleb128 0x25
 4760 0f30 14060000 		.4byte	.LASF126
 4761 0f34 14060000 		.4byte	.LASF126
 4762 0f38 05       		.byte	0x5
 4763 0f39 C9       		.byte	0xc9
 4764 0f3a 26       		.uleb128 0x26
 4765 0f3b C7060000 		.4byte	.LASF127
 4766 0f3f C7060000 		.4byte	.LASF127
 4767 0f43 05       		.byte	0x5
 4768 0f44 0401     		.2byte	0x104
 4769 0f46 25       		.uleb128 0x25
 4770 0f47 CC040000 		.4byte	.LASF128
 4771 0f4b CC040000 		.4byte	.LASF128
 4772 0f4f 05       		.byte	0x5
 4773 0f50 C8       		.byte	0xc8
 4774 0f51 26       		.uleb128 0x26
 4775 0f52 73010000 		.4byte	.LASF129
 4776 0f56 73010000 		.4byte	.LASF129
 4777 0f5a 05       		.byte	0x5
 4778 0f5b 2601     		.2byte	0x126
 4779 0f5d 25       		.uleb128 0x25
 4780 0f5e FC040000 		.4byte	.LASF130
 4781 0f62 FC040000 		.4byte	.LASF130
 4782 0f66 07       		.byte	0x7
 4783 0f67 33       		.byte	0x33
 4784 0f68 25       		.uleb128 0x25
 4785 0f69 AE060000 		.4byte	.LASF131
 4786 0f6d AE060000 		.4byte	.LASF131
 4787 0f71 05       		.byte	0x5
 4788 0f72 C5       		.byte	0xc5
 4789 0f73 25       		.uleb128 0x25
 4790 0f74 3F060000 		.4byte	.LASF132
 4791 0f78 3F060000 		.4byte	.LASF132
 4792 0f7c 08       		.byte	0x8
 4793 0f7d 5A       		.byte	0x5a
 4794 0f7e 25       		.uleb128 0x25
 4795 0f7f 03020000 		.4byte	.LASF133
 4796 0f83 03020000 		.4byte	.LASF133
 4797 0f87 09       		.byte	0x9
 4798 0f88 17       		.byte	0x17
 4799 0f89 25       		.uleb128 0x25
 4800 0f8a 3B050000 		.4byte	.LASF134
 4801 0f8e 3B050000 		.4byte	.LASF134
 4802 0f92 03       		.byte	0x3
 4803 0f93 54       		.byte	0x54
 4804 0f94 25       		.uleb128 0x25
 4805 0f95 34000000 		.4byte	.LASF135
 4806 0f99 34000000 		.4byte	.LASF135
 4807 0f9d 0A       		.byte	0xa
ARM GAS  C:\Users\HENRYA~1\AppData\Local\Temp\ccNfq1WN.s 			page 100


 4808 0f9e 18       		.byte	0x18
 4809 0f9f 25       		.uleb128 0x25
 4810 0fa0 5E000000 		.4byte	.LASF136
 4811 0fa4 5E000000 		.4byte	.LASF136
 4812 0fa8 0B       		.byte	0xb
 4813 0fa9 18       		.byte	0x18
 4814 0faa 25       		.uleb128 0x25
 4815 0fab 7B000000 		.4byte	.LASF137
 4816 0faf 7B000000 		.4byte	.LASF137
 4817 0fb3 09       		.byte	0x9
 4818 0fb4 18       		.byte	0x18
 4819 0fb5 00       		.byte	0
 4820              		.section	.debug_abbrev,"",%progbits
 4821              	.Ldebug_abbrev0:
 4822 0000 01       		.uleb128 0x1
 4823 0001 11       		.uleb128 0x11
 4824 0002 01       		.byte	0x1
 4825 0003 25       		.uleb128 0x25
 4826 0004 0E       		.uleb128 0xe
 4827 0005 13       		.uleb128 0x13
 4828 0006 0B       		.uleb128 0xb
 4829 0007 03       		.uleb128 0x3
 4830 0008 0E       		.uleb128 0xe
 4831 0009 1B       		.uleb128 0x1b
 4832 000a 0E       		.uleb128 0xe
 4833 000b 55       		.uleb128 0x55
 4834 000c 17       		.uleb128 0x17
 4835 000d 11       		.uleb128 0x11
 4836 000e 01       		.uleb128 0x1
 4837 000f 10       		.uleb128 0x10
 4838 0010 17       		.uleb128 0x17
 4839 0011 00       		.byte	0
 4840 0012 00       		.byte	0
 4841 0013 02       		.uleb128 0x2
 4842 0014 24       		.uleb128 0x24
 4843 0015 00       		.byte	0
 4844 0016 0B       		.uleb128 0xb
 4845 0017 0B       		.uleb128 0xb
 4846 0018 3E       		.uleb128 0x3e
 4847 0019 0B       		.uleb128 0xb
 4848 001a 03       		.uleb128 0x3
 4849 001b 0E       		.uleb128 0xe
 4850 001c 00       		.byte	0
 4851 001d 00       		.byte	0
 4852 001e 03       		.uleb128 0x3
 4853 001f 24       		.uleb128 0x24
 4854 0020 00       		.byte	0
 4855 0021 0B       		.uleb128 0xb
 4856 0022 0B       		.uleb128 0xb
 4857 0023 3E       		.uleb128 0x3e
 4858 0024 0B       		.uleb128 0xb
 4859 0025 03       		.uleb128 0x3
 4860 0026 08       		.uleb128 0x8
 4861 0027 00       		.byte	0
 4862 0028 00       		.byte	0
 4863 0029 04       		.uleb128 0x4
 4864 002a 16       		.uleb128 0x16
ARM GAS  C:\Users\HENRYA~1\AppData\Local\Temp\ccNfq1WN.s 			page 101


 4865 002b 00       		.byte	0
 4866 002c 03       		.uleb128 0x3
 4867 002d 0E       		.uleb128 0xe
 4868 002e 3A       		.uleb128 0x3a
 4869 002f 0B       		.uleb128 0xb
 4870 0030 3B       		.uleb128 0x3b
 4871 0031 05       		.uleb128 0x5
 4872 0032 49       		.uleb128 0x49
 4873 0033 13       		.uleb128 0x13
 4874 0034 00       		.byte	0
 4875 0035 00       		.byte	0
 4876 0036 05       		.uleb128 0x5
 4877 0037 01       		.uleb128 0x1
 4878 0038 01       		.byte	0x1
 4879 0039 49       		.uleb128 0x49
 4880 003a 13       		.uleb128 0x13
 4881 003b 01       		.uleb128 0x1
 4882 003c 13       		.uleb128 0x13
 4883 003d 00       		.byte	0
 4884 003e 00       		.byte	0
 4885 003f 06       		.uleb128 0x6
 4886 0040 21       		.uleb128 0x21
 4887 0041 00       		.byte	0
 4888 0042 49       		.uleb128 0x49
 4889 0043 13       		.uleb128 0x13
 4890 0044 2F       		.uleb128 0x2f
 4891 0045 0B       		.uleb128 0xb
 4892 0046 00       		.byte	0
 4893 0047 00       		.byte	0
 4894 0048 07       		.uleb128 0x7
 4895 0049 2E       		.uleb128 0x2e
 4896 004a 01       		.byte	0x1
 4897 004b 3F       		.uleb128 0x3f
 4898 004c 19       		.uleb128 0x19
 4899 004d 03       		.uleb128 0x3
 4900 004e 0E       		.uleb128 0xe
 4901 004f 3A       		.uleb128 0x3a
 4902 0050 0B       		.uleb128 0xb
 4903 0051 3B       		.uleb128 0x3b
 4904 0052 05       		.uleb128 0x5
 4905 0053 27       		.uleb128 0x27
 4906 0054 19       		.uleb128 0x19
 4907 0055 11       		.uleb128 0x11
 4908 0056 01       		.uleb128 0x1
 4909 0057 12       		.uleb128 0x12
 4910 0058 06       		.uleb128 0x6
 4911 0059 40       		.uleb128 0x40
 4912 005a 18       		.uleb128 0x18
 4913 005b 9642     		.uleb128 0x2116
 4914 005d 19       		.uleb128 0x19
 4915 005e 01       		.uleb128 0x1
 4916 005f 13       		.uleb128 0x13
 4917 0060 00       		.byte	0
 4918 0061 00       		.byte	0
 4919 0062 08       		.uleb128 0x8
 4920 0063 898201   		.uleb128 0x4109
 4921 0066 00       		.byte	0
ARM GAS  C:\Users\HENRYA~1\AppData\Local\Temp\ccNfq1WN.s 			page 102


 4922 0067 11       		.uleb128 0x11
 4923 0068 01       		.uleb128 0x1
 4924 0069 31       		.uleb128 0x31
 4925 006a 13       		.uleb128 0x13
 4926 006b 00       		.byte	0
 4927 006c 00       		.byte	0
 4928 006d 09       		.uleb128 0x9
 4929 006e 2E       		.uleb128 0x2e
 4930 006f 01       		.byte	0x1
 4931 0070 3F       		.uleb128 0x3f
 4932 0071 19       		.uleb128 0x19
 4933 0072 03       		.uleb128 0x3
 4934 0073 0E       		.uleb128 0xe
 4935 0074 3A       		.uleb128 0x3a
 4936 0075 0B       		.uleb128 0xb
 4937 0076 3B       		.uleb128 0x3b
 4938 0077 0B       		.uleb128 0xb
 4939 0078 49       		.uleb128 0x49
 4940 0079 13       		.uleb128 0x13
 4941 007a 11       		.uleb128 0x11
 4942 007b 01       		.uleb128 0x1
 4943 007c 12       		.uleb128 0x12
 4944 007d 06       		.uleb128 0x6
 4945 007e 40       		.uleb128 0x40
 4946 007f 18       		.uleb128 0x18
 4947 0080 9642     		.uleb128 0x2116
 4948 0082 19       		.uleb128 0x19
 4949 0083 01       		.uleb128 0x1
 4950 0084 13       		.uleb128 0x13
 4951 0085 00       		.byte	0
 4952 0086 00       		.byte	0
 4953 0087 0A       		.uleb128 0xa
 4954 0088 34       		.uleb128 0x34
 4955 0089 00       		.byte	0
 4956 008a 03       		.uleb128 0x3
 4957 008b 08       		.uleb128 0x8
 4958 008c 3A       		.uleb128 0x3a
 4959 008d 0B       		.uleb128 0xb
 4960 008e 3B       		.uleb128 0x3b
 4961 008f 0B       		.uleb128 0xb
 4962 0090 49       		.uleb128 0x49
 4963 0091 13       		.uleb128 0x13
 4964 0092 02       		.uleb128 0x2
 4965 0093 17       		.uleb128 0x17
 4966 0094 00       		.byte	0
 4967 0095 00       		.byte	0
 4968 0096 0B       		.uleb128 0xb
 4969 0097 2E       		.uleb128 0x2e
 4970 0098 01       		.byte	0x1
 4971 0099 3F       		.uleb128 0x3f
 4972 009a 19       		.uleb128 0x19
 4973 009b 03       		.uleb128 0x3
 4974 009c 0E       		.uleb128 0xe
 4975 009d 3A       		.uleb128 0x3a
 4976 009e 0B       		.uleb128 0xb
 4977 009f 3B       		.uleb128 0x3b
 4978 00a0 0B       		.uleb128 0xb
ARM GAS  C:\Users\HENRYA~1\AppData\Local\Temp\ccNfq1WN.s 			page 103


 4979 00a1 27       		.uleb128 0x27
 4980 00a2 19       		.uleb128 0x19
 4981 00a3 11       		.uleb128 0x11
 4982 00a4 01       		.uleb128 0x1
 4983 00a5 12       		.uleb128 0x12
 4984 00a6 06       		.uleb128 0x6
 4985 00a7 40       		.uleb128 0x40
 4986 00a8 18       		.uleb128 0x18
 4987 00a9 9742     		.uleb128 0x2117
 4988 00ab 19       		.uleb128 0x19
 4989 00ac 01       		.uleb128 0x1
 4990 00ad 13       		.uleb128 0x13
 4991 00ae 00       		.byte	0
 4992 00af 00       		.byte	0
 4993 00b0 0C       		.uleb128 0xc
 4994 00b1 05       		.uleb128 0x5
 4995 00b2 00       		.byte	0
 4996 00b3 03       		.uleb128 0x3
 4997 00b4 0E       		.uleb128 0xe
 4998 00b5 3A       		.uleb128 0x3a
 4999 00b6 0B       		.uleb128 0xb
 5000 00b7 3B       		.uleb128 0x3b
 5001 00b8 0B       		.uleb128 0xb
 5002 00b9 49       		.uleb128 0x49
 5003 00ba 13       		.uleb128 0x13
 5004 00bb 02       		.uleb128 0x2
 5005 00bc 17       		.uleb128 0x17
 5006 00bd 00       		.byte	0
 5007 00be 00       		.byte	0
 5008 00bf 0D       		.uleb128 0xd
 5009 00c0 05       		.uleb128 0x5
 5010 00c1 00       		.byte	0
 5011 00c2 03       		.uleb128 0x3
 5012 00c3 08       		.uleb128 0x8
 5013 00c4 3A       		.uleb128 0x3a
 5014 00c5 0B       		.uleb128 0xb
 5015 00c6 3B       		.uleb128 0x3b
 5016 00c7 0B       		.uleb128 0xb
 5017 00c8 49       		.uleb128 0x49
 5018 00c9 13       		.uleb128 0x13
 5019 00ca 02       		.uleb128 0x2
 5020 00cb 17       		.uleb128 0x17
 5021 00cc 00       		.byte	0
 5022 00cd 00       		.byte	0
 5023 00ce 0E       		.uleb128 0xe
 5024 00cf 34       		.uleb128 0x34
 5025 00d0 00       		.byte	0
 5026 00d1 03       		.uleb128 0x3
 5027 00d2 0E       		.uleb128 0xe
 5028 00d3 3A       		.uleb128 0x3a
 5029 00d4 0B       		.uleb128 0xb
 5030 00d5 3B       		.uleb128 0x3b
 5031 00d6 0B       		.uleb128 0xb
 5032 00d7 49       		.uleb128 0x49
 5033 00d8 13       		.uleb128 0x13
 5034 00d9 02       		.uleb128 0x2
 5035 00da 17       		.uleb128 0x17
ARM GAS  C:\Users\HENRYA~1\AppData\Local\Temp\ccNfq1WN.s 			page 104


 5036 00db 00       		.byte	0
 5037 00dc 00       		.byte	0
 5038 00dd 0F       		.uleb128 0xf
 5039 00de 898201   		.uleb128 0x4109
 5040 00e1 01       		.byte	0x1
 5041 00e2 11       		.uleb128 0x11
 5042 00e3 01       		.uleb128 0x1
 5043 00e4 31       		.uleb128 0x31
 5044 00e5 13       		.uleb128 0x13
 5045 00e6 00       		.byte	0
 5046 00e7 00       		.byte	0
 5047 00e8 10       		.uleb128 0x10
 5048 00e9 8A8201   		.uleb128 0x410a
 5049 00ec 00       		.byte	0
 5050 00ed 02       		.uleb128 0x2
 5051 00ee 18       		.uleb128 0x18
 5052 00ef 9142     		.uleb128 0x2111
 5053 00f1 18       		.uleb128 0x18
 5054 00f2 00       		.byte	0
 5055 00f3 00       		.byte	0
 5056 00f4 11       		.uleb128 0x11
 5057 00f5 2E       		.uleb128 0x2e
 5058 00f6 01       		.byte	0x1
 5059 00f7 3F       		.uleb128 0x3f
 5060 00f8 19       		.uleb128 0x19
 5061 00f9 03       		.uleb128 0x3
 5062 00fa 0E       		.uleb128 0xe
 5063 00fb 3A       		.uleb128 0x3a
 5064 00fc 0B       		.uleb128 0xb
 5065 00fd 3B       		.uleb128 0x3b
 5066 00fe 0B       		.uleb128 0xb
 5067 00ff 27       		.uleb128 0x27
 5068 0100 19       		.uleb128 0x19
 5069 0101 11       		.uleb128 0x11
 5070 0102 01       		.uleb128 0x1
 5071 0103 12       		.uleb128 0x12
 5072 0104 06       		.uleb128 0x6
 5073 0105 40       		.uleb128 0x40
 5074 0106 18       		.uleb128 0x18
 5075 0107 9642     		.uleb128 0x2116
 5076 0109 19       		.uleb128 0x19
 5077 010a 01       		.uleb128 0x1
 5078 010b 13       		.uleb128 0x13
 5079 010c 00       		.byte	0
 5080 010d 00       		.byte	0
 5081 010e 12       		.uleb128 0x12
 5082 010f 2E       		.uleb128 0x2e
 5083 0110 01       		.byte	0x1
 5084 0111 3F       		.uleb128 0x3f
 5085 0112 19       		.uleb128 0x19
 5086 0113 03       		.uleb128 0x3
 5087 0114 0E       		.uleb128 0xe
 5088 0115 3A       		.uleb128 0x3a
 5089 0116 0B       		.uleb128 0xb
 5090 0117 3B       		.uleb128 0x3b
 5091 0118 0B       		.uleb128 0xb
 5092 0119 11       		.uleb128 0x11
ARM GAS  C:\Users\HENRYA~1\AppData\Local\Temp\ccNfq1WN.s 			page 105


 5093 011a 01       		.uleb128 0x1
 5094 011b 12       		.uleb128 0x12
 5095 011c 06       		.uleb128 0x6
 5096 011d 40       		.uleb128 0x40
 5097 011e 18       		.uleb128 0x18
 5098 011f 9742     		.uleb128 0x2117
 5099 0121 19       		.uleb128 0x19
 5100 0122 01       		.uleb128 0x1
 5101 0123 13       		.uleb128 0x13
 5102 0124 00       		.byte	0
 5103 0125 00       		.byte	0
 5104 0126 13       		.uleb128 0x13
 5105 0127 0B       		.uleb128 0xb
 5106 0128 01       		.byte	0x1
 5107 0129 11       		.uleb128 0x11
 5108 012a 01       		.uleb128 0x1
 5109 012b 12       		.uleb128 0x12
 5110 012c 06       		.uleb128 0x6
 5111 012d 00       		.byte	0
 5112 012e 00       		.byte	0
 5113 012f 14       		.uleb128 0x14
 5114 0130 898201   		.uleb128 0x4109
 5115 0133 01       		.byte	0x1
 5116 0134 11       		.uleb128 0x11
 5117 0135 01       		.uleb128 0x1
 5118 0136 31       		.uleb128 0x31
 5119 0137 13       		.uleb128 0x13
 5120 0138 01       		.uleb128 0x1
 5121 0139 13       		.uleb128 0x13
 5122 013a 00       		.byte	0
 5123 013b 00       		.byte	0
 5124 013c 15       		.uleb128 0x15
 5125 013d 2E       		.uleb128 0x2e
 5126 013e 00       		.byte	0
 5127 013f 3F       		.uleb128 0x3f
 5128 0140 19       		.uleb128 0x19
 5129 0141 03       		.uleb128 0x3
 5130 0142 0E       		.uleb128 0xe
 5131 0143 3A       		.uleb128 0x3a
 5132 0144 0B       		.uleb128 0xb
 5133 0145 3B       		.uleb128 0x3b
 5134 0146 0B       		.uleb128 0xb
 5135 0147 11       		.uleb128 0x11
 5136 0148 01       		.uleb128 0x1
 5137 0149 12       		.uleb128 0x12
 5138 014a 06       		.uleb128 0x6
 5139 014b 40       		.uleb128 0x40
 5140 014c 18       		.uleb128 0x18
 5141 014d 9742     		.uleb128 0x2117
 5142 014f 19       		.uleb128 0x19
 5143 0150 00       		.byte	0
 5144 0151 00       		.byte	0
 5145 0152 16       		.uleb128 0x16
 5146 0153 2E       		.uleb128 0x2e
 5147 0154 01       		.byte	0x1
 5148 0155 3F       		.uleb128 0x3f
 5149 0156 19       		.uleb128 0x19
ARM GAS  C:\Users\HENRYA~1\AppData\Local\Temp\ccNfq1WN.s 			page 106


 5150 0157 03       		.uleb128 0x3
 5151 0158 0E       		.uleb128 0xe
 5152 0159 3A       		.uleb128 0x3a
 5153 015a 0B       		.uleb128 0xb
 5154 015b 3B       		.uleb128 0x3b
 5155 015c 0B       		.uleb128 0xb
 5156 015d 27       		.uleb128 0x27
 5157 015e 19       		.uleb128 0x19
 5158 015f 49       		.uleb128 0x49
 5159 0160 13       		.uleb128 0x13
 5160 0161 11       		.uleb128 0x11
 5161 0162 01       		.uleb128 0x1
 5162 0163 12       		.uleb128 0x12
 5163 0164 06       		.uleb128 0x6
 5164 0165 40       		.uleb128 0x40
 5165 0166 18       		.uleb128 0x18
 5166 0167 9642     		.uleb128 0x2116
 5167 0169 19       		.uleb128 0x19
 5168 016a 01       		.uleb128 0x1
 5169 016b 13       		.uleb128 0x13
 5170 016c 00       		.byte	0
 5171 016d 00       		.byte	0
 5172 016e 17       		.uleb128 0x17
 5173 016f 0F       		.uleb128 0xf
 5174 0170 00       		.byte	0
 5175 0171 0B       		.uleb128 0xb
 5176 0172 0B       		.uleb128 0xb
 5177 0173 49       		.uleb128 0x49
 5178 0174 13       		.uleb128 0x13
 5179 0175 00       		.byte	0
 5180 0176 00       		.byte	0
 5181 0177 18       		.uleb128 0x18
 5182 0178 2E       		.uleb128 0x2e
 5183 0179 01       		.byte	0x1
 5184 017a 3F       		.uleb128 0x3f
 5185 017b 19       		.uleb128 0x19
 5186 017c 03       		.uleb128 0x3
 5187 017d 0E       		.uleb128 0xe
 5188 017e 3A       		.uleb128 0x3a
 5189 017f 0B       		.uleb128 0xb
 5190 0180 3B       		.uleb128 0x3b
 5191 0181 05       		.uleb128 0x5
 5192 0182 27       		.uleb128 0x27
 5193 0183 19       		.uleb128 0x19
 5194 0184 11       		.uleb128 0x11
 5195 0185 01       		.uleb128 0x1
 5196 0186 12       		.uleb128 0x12
 5197 0187 06       		.uleb128 0x6
 5198 0188 40       		.uleb128 0x40
 5199 0189 18       		.uleb128 0x18
 5200 018a 9742     		.uleb128 0x2117
 5201 018c 19       		.uleb128 0x19
 5202 018d 01       		.uleb128 0x1
 5203 018e 13       		.uleb128 0x13
 5204 018f 00       		.byte	0
 5205 0190 00       		.byte	0
 5206 0191 19       		.uleb128 0x19
ARM GAS  C:\Users\HENRYA~1\AppData\Local\Temp\ccNfq1WN.s 			page 107


 5207 0192 05       		.uleb128 0x5
 5208 0193 00       		.byte	0
 5209 0194 03       		.uleb128 0x3
 5210 0195 08       		.uleb128 0x8
 5211 0196 3A       		.uleb128 0x3a
 5212 0197 0B       		.uleb128 0xb
 5213 0198 3B       		.uleb128 0x3b
 5214 0199 05       		.uleb128 0x5
 5215 019a 49       		.uleb128 0x49
 5216 019b 13       		.uleb128 0x13
 5217 019c 02       		.uleb128 0x2
 5218 019d 17       		.uleb128 0x17
 5219 019e 00       		.byte	0
 5220 019f 00       		.byte	0
 5221 01a0 1A       		.uleb128 0x1a
 5222 01a1 34       		.uleb128 0x34
 5223 01a2 00       		.byte	0
 5224 01a3 03       		.uleb128 0x3
 5225 01a4 08       		.uleb128 0x8
 5226 01a5 3A       		.uleb128 0x3a
 5227 01a6 0B       		.uleb128 0xb
 5228 01a7 3B       		.uleb128 0x3b
 5229 01a8 05       		.uleb128 0x5
 5230 01a9 49       		.uleb128 0x49
 5231 01aa 13       		.uleb128 0x13
 5232 01ab 02       		.uleb128 0x2
 5233 01ac 17       		.uleb128 0x17
 5234 01ad 00       		.byte	0
 5235 01ae 00       		.byte	0
 5236 01af 1B       		.uleb128 0x1b
 5237 01b0 2E       		.uleb128 0x2e
 5238 01b1 01       		.byte	0x1
 5239 01b2 3F       		.uleb128 0x3f
 5240 01b3 19       		.uleb128 0x19
 5241 01b4 03       		.uleb128 0x3
 5242 01b5 0E       		.uleb128 0xe
 5243 01b6 3A       		.uleb128 0x3a
 5244 01b7 0B       		.uleb128 0xb
 5245 01b8 3B       		.uleb128 0x3b
 5246 01b9 05       		.uleb128 0x5
 5247 01ba 11       		.uleb128 0x11
 5248 01bb 01       		.uleb128 0x1
 5249 01bc 12       		.uleb128 0x12
 5250 01bd 06       		.uleb128 0x6
 5251 01be 40       		.uleb128 0x40
 5252 01bf 18       		.uleb128 0x18
 5253 01c0 9742     		.uleb128 0x2117
 5254 01c2 19       		.uleb128 0x19
 5255 01c3 01       		.uleb128 0x1
 5256 01c4 13       		.uleb128 0x13
 5257 01c5 00       		.byte	0
 5258 01c6 00       		.byte	0
 5259 01c7 1C       		.uleb128 0x1c
 5260 01c8 2E       		.uleb128 0x2e
 5261 01c9 01       		.byte	0x1
 5262 01ca 3F       		.uleb128 0x3f
 5263 01cb 19       		.uleb128 0x19
ARM GAS  C:\Users\HENRYA~1\AppData\Local\Temp\ccNfq1WN.s 			page 108


 5264 01cc 03       		.uleb128 0x3
 5265 01cd 0E       		.uleb128 0xe
 5266 01ce 3A       		.uleb128 0x3a
 5267 01cf 0B       		.uleb128 0xb
 5268 01d0 3B       		.uleb128 0x3b
 5269 01d1 05       		.uleb128 0x5
 5270 01d2 11       		.uleb128 0x11
 5271 01d3 01       		.uleb128 0x1
 5272 01d4 12       		.uleb128 0x12
 5273 01d5 06       		.uleb128 0x6
 5274 01d6 40       		.uleb128 0x40
 5275 01d7 18       		.uleb128 0x18
 5276 01d8 9642     		.uleb128 0x2116
 5277 01da 19       		.uleb128 0x19
 5278 01db 01       		.uleb128 0x1
 5279 01dc 13       		.uleb128 0x13
 5280 01dd 00       		.byte	0
 5281 01de 00       		.byte	0
 5282 01df 1D       		.uleb128 0x1d
 5283 01e0 2E       		.uleb128 0x2e
 5284 01e1 01       		.byte	0x1
 5285 01e2 3F       		.uleb128 0x3f
 5286 01e3 19       		.uleb128 0x19
 5287 01e4 03       		.uleb128 0x3
 5288 01e5 0E       		.uleb128 0xe
 5289 01e6 3A       		.uleb128 0x3a
 5290 01e7 0B       		.uleb128 0xb
 5291 01e8 3B       		.uleb128 0x3b
 5292 01e9 05       		.uleb128 0x5
 5293 01ea 27       		.uleb128 0x27
 5294 01eb 19       		.uleb128 0x19
 5295 01ec 49       		.uleb128 0x49
 5296 01ed 13       		.uleb128 0x13
 5297 01ee 11       		.uleb128 0x11
 5298 01ef 01       		.uleb128 0x1
 5299 01f0 12       		.uleb128 0x12
 5300 01f1 06       		.uleb128 0x6
 5301 01f2 40       		.uleb128 0x40
 5302 01f3 18       		.uleb128 0x18
 5303 01f4 9642     		.uleb128 0x2116
 5304 01f6 19       		.uleb128 0x19
 5305 01f7 01       		.uleb128 0x1
 5306 01f8 13       		.uleb128 0x13
 5307 01f9 00       		.byte	0
 5308 01fa 00       		.byte	0
 5309 01fb 1E       		.uleb128 0x1e
 5310 01fc 05       		.uleb128 0x5
 5311 01fd 00       		.byte	0
 5312 01fe 03       		.uleb128 0x3
 5313 01ff 0E       		.uleb128 0xe
 5314 0200 3A       		.uleb128 0x3a
 5315 0201 0B       		.uleb128 0xb
 5316 0202 3B       		.uleb128 0x3b
 5317 0203 05       		.uleb128 0x5
 5318 0204 49       		.uleb128 0x49
 5319 0205 13       		.uleb128 0x13
 5320 0206 02       		.uleb128 0x2
ARM GAS  C:\Users\HENRYA~1\AppData\Local\Temp\ccNfq1WN.s 			page 109


 5321 0207 17       		.uleb128 0x17
 5322 0208 00       		.byte	0
 5323 0209 00       		.byte	0
 5324 020a 1F       		.uleb128 0x1f
 5325 020b 34       		.uleb128 0x34
 5326 020c 00       		.byte	0
 5327 020d 03       		.uleb128 0x3
 5328 020e 0E       		.uleb128 0xe
 5329 020f 3A       		.uleb128 0x3a
 5330 0210 0B       		.uleb128 0xb
 5331 0211 3B       		.uleb128 0x3b
 5332 0212 05       		.uleb128 0x5
 5333 0213 49       		.uleb128 0x49
 5334 0214 13       		.uleb128 0x13
 5335 0215 02       		.uleb128 0x2
 5336 0216 17       		.uleb128 0x17
 5337 0217 00       		.byte	0
 5338 0218 00       		.byte	0
 5339 0219 20       		.uleb128 0x20
 5340 021a 0B       		.uleb128 0xb
 5341 021b 01       		.byte	0x1
 5342 021c 11       		.uleb128 0x11
 5343 021d 01       		.uleb128 0x1
 5344 021e 12       		.uleb128 0x12
 5345 021f 06       		.uleb128 0x6
 5346 0220 01       		.uleb128 0x1
 5347 0221 13       		.uleb128 0x13
 5348 0222 00       		.byte	0
 5349 0223 00       		.byte	0
 5350 0224 21       		.uleb128 0x21
 5351 0225 2E       		.uleb128 0x2e
 5352 0226 01       		.byte	0x1
 5353 0227 3F       		.uleb128 0x3f
 5354 0228 19       		.uleb128 0x19
 5355 0229 03       		.uleb128 0x3
 5356 022a 08       		.uleb128 0x8
 5357 022b 3A       		.uleb128 0x3a
 5358 022c 0B       		.uleb128 0xb
 5359 022d 3B       		.uleb128 0x3b
 5360 022e 05       		.uleb128 0x5
 5361 022f 11       		.uleb128 0x11
 5362 0230 01       		.uleb128 0x1
 5363 0231 12       		.uleb128 0x12
 5364 0232 06       		.uleb128 0x6
 5365 0233 40       		.uleb128 0x40
 5366 0234 18       		.uleb128 0x18
 5367 0235 9642     		.uleb128 0x2116
 5368 0237 19       		.uleb128 0x19
 5369 0238 01       		.uleb128 0x1
 5370 0239 13       		.uleb128 0x13
 5371 023a 00       		.byte	0
 5372 023b 00       		.byte	0
 5373 023c 22       		.uleb128 0x22
 5374 023d 2E       		.uleb128 0x2e
 5375 023e 01       		.byte	0x1
 5376 023f 3F       		.uleb128 0x3f
 5377 0240 19       		.uleb128 0x19
ARM GAS  C:\Users\HENRYA~1\AppData\Local\Temp\ccNfq1WN.s 			page 110


 5378 0241 03       		.uleb128 0x3
 5379 0242 0E       		.uleb128 0xe
 5380 0243 3A       		.uleb128 0x3a
 5381 0244 0B       		.uleb128 0xb
 5382 0245 3B       		.uleb128 0x3b
 5383 0246 05       		.uleb128 0x5
 5384 0247 49       		.uleb128 0x49
 5385 0248 13       		.uleb128 0x13
 5386 0249 8701     		.uleb128 0x87
 5387 024b 19       		.uleb128 0x19
 5388 024c 11       		.uleb128 0x11
 5389 024d 01       		.uleb128 0x1
 5390 024e 12       		.uleb128 0x12
 5391 024f 06       		.uleb128 0x6
 5392 0250 40       		.uleb128 0x40
 5393 0251 18       		.uleb128 0x18
 5394 0252 9642     		.uleb128 0x2116
 5395 0254 19       		.uleb128 0x19
 5396 0255 01       		.uleb128 0x1
 5397 0256 13       		.uleb128 0x13
 5398 0257 00       		.byte	0
 5399 0258 00       		.byte	0
 5400 0259 23       		.uleb128 0x23
 5401 025a 34       		.uleb128 0x34
 5402 025b 00       		.byte	0
 5403 025c 03       		.uleb128 0x3
 5404 025d 0E       		.uleb128 0xe
 5405 025e 3A       		.uleb128 0x3a
 5406 025f 0B       		.uleb128 0xb
 5407 0260 3B       		.uleb128 0x3b
 5408 0261 0B       		.uleb128 0xb
 5409 0262 49       		.uleb128 0x49
 5410 0263 13       		.uleb128 0x13
 5411 0264 3F       		.uleb128 0x3f
 5412 0265 19       		.uleb128 0x19
 5413 0266 02       		.uleb128 0x2
 5414 0267 18       		.uleb128 0x18
 5415 0268 00       		.byte	0
 5416 0269 00       		.byte	0
 5417 026a 24       		.uleb128 0x24
 5418 026b 34       		.uleb128 0x34
 5419 026c 00       		.byte	0
 5420 026d 03       		.uleb128 0x3
 5421 026e 08       		.uleb128 0x8
 5422 026f 3A       		.uleb128 0x3a
 5423 0270 0B       		.uleb128 0xb
 5424 0271 3B       		.uleb128 0x3b
 5425 0272 0B       		.uleb128 0xb
 5426 0273 49       		.uleb128 0x49
 5427 0274 13       		.uleb128 0x13
 5428 0275 3F       		.uleb128 0x3f
 5429 0276 19       		.uleb128 0x19
 5430 0277 02       		.uleb128 0x2
 5431 0278 18       		.uleb128 0x18
 5432 0279 00       		.byte	0
 5433 027a 00       		.byte	0
 5434 027b 25       		.uleb128 0x25
ARM GAS  C:\Users\HENRYA~1\AppData\Local\Temp\ccNfq1WN.s 			page 111


 5435 027c 2E       		.uleb128 0x2e
 5436 027d 00       		.byte	0
 5437 027e 3F       		.uleb128 0x3f
 5438 027f 19       		.uleb128 0x19
 5439 0280 3C       		.uleb128 0x3c
 5440 0281 19       		.uleb128 0x19
 5441 0282 6E       		.uleb128 0x6e
 5442 0283 0E       		.uleb128 0xe
 5443 0284 03       		.uleb128 0x3
 5444 0285 0E       		.uleb128 0xe
 5445 0286 3A       		.uleb128 0x3a
 5446 0287 0B       		.uleb128 0xb
 5447 0288 3B       		.uleb128 0x3b
 5448 0289 0B       		.uleb128 0xb
 5449 028a 00       		.byte	0
 5450 028b 00       		.byte	0
 5451 028c 26       		.uleb128 0x26
 5452 028d 2E       		.uleb128 0x2e
 5453 028e 00       		.byte	0
 5454 028f 3F       		.uleb128 0x3f
 5455 0290 19       		.uleb128 0x19
 5456 0291 3C       		.uleb128 0x3c
 5457 0292 19       		.uleb128 0x19
 5458 0293 6E       		.uleb128 0x6e
 5459 0294 0E       		.uleb128 0xe
 5460 0295 03       		.uleb128 0x3
 5461 0296 0E       		.uleb128 0xe
 5462 0297 3A       		.uleb128 0x3a
 5463 0298 0B       		.uleb128 0xb
 5464 0299 3B       		.uleb128 0x3b
 5465 029a 05       		.uleb128 0x5
 5466 029b 00       		.byte	0
 5467 029c 00       		.byte	0
 5468 029d 00       		.byte	0
 5469              		.section	.debug_loc,"",%progbits
 5470              	.Ldebug_loc0:
 5471              	.LLST0:
 5472 0000 02000000 		.4byte	.LVL10
 5473 0004 0A000000 		.4byte	.LVL12
 5474 0008 0600     		.2byte	0x6
 5475 000a 9E       		.byte	0x9e
 5476 000b 04       		.uleb128 0x4
 5477 000c 00000000 		.4byte	0
 5478 0010 0A000000 		.4byte	.LVL12
 5479 0014 0D000000 		.4byte	.LVL13-1
 5480 0018 0100     		.2byte	0x1
 5481 001a 50       		.byte	0x50
 5482 001b 00000000 		.4byte	0
 5483 001f 00000000 		.4byte	0
 5484              	.LLST1:
 5485 0023 02000000 		.4byte	.LVL14
 5486 0027 0A000000 		.4byte	.LVL16
 5487 002b 0600     		.2byte	0x6
 5488 002d 9E       		.byte	0x9e
 5489 002e 04       		.uleb128 0x4
 5490 002f 00000000 		.4byte	0
 5491 0033 0A000000 		.4byte	.LVL16
ARM GAS  C:\Users\HENRYA~1\AppData\Local\Temp\ccNfq1WN.s 			page 112


 5492 0037 0D000000 		.4byte	.LVL17-1
 5493 003b 0100     		.2byte	0x1
 5494 003d 50       		.byte	0x50
 5495 003e 1A000000 		.4byte	.LVL19
 5496 0042 1D000000 		.4byte	.LVL20-1
 5497 0046 0100     		.2byte	0x1
 5498 0048 50       		.byte	0x50
 5499 0049 00000000 		.4byte	0
 5500 004d 00000000 		.4byte	0
 5501              	.LLST2:
 5502 0051 02000000 		.4byte	.LVL21
 5503 0055 14000000 		.4byte	.LVL24
 5504 0059 0600     		.2byte	0x6
 5505 005b 9E       		.byte	0x9e
 5506 005c 04       		.uleb128 0x4
 5507 005d 00000000 		.4byte	0
 5508 0061 14000000 		.4byte	.LVL24
 5509 0065 1B000000 		.4byte	.LVL25-1
 5510 0069 0100     		.2byte	0x1
 5511 006b 50       		.byte	0x50
 5512 006c 1C000000 		.4byte	.LVL25
 5513 0070 1F000000 		.4byte	.LVL26-1
 5514 0074 0100     		.2byte	0x1
 5515 0076 50       		.byte	0x50
 5516 0077 00000000 		.4byte	0
 5517 007b 00000000 		.4byte	0
 5518              	.LLST3:
 5519 007f 02000000 		.4byte	.LVL27
 5520 0083 0A000000 		.4byte	.LVL29
 5521 0087 0600     		.2byte	0x6
 5522 0089 9E       		.byte	0x9e
 5523 008a 04       		.uleb128 0x4
 5524 008b 00000000 		.4byte	0
 5525 008f 0A000000 		.4byte	.LVL29
 5526 0093 0D000000 		.4byte	.LVL30-1
 5527 0097 0100     		.2byte	0x1
 5528 0099 50       		.byte	0x50
 5529 009a 1A000000 		.4byte	.LVL32
 5530 009e 1D000000 		.4byte	.LVL33-1
 5531 00a2 0100     		.2byte	0x1
 5532 00a4 50       		.byte	0x50
 5533 00a5 2A000000 		.4byte	.LVL35
 5534 00a9 2D000000 		.4byte	.LVL36-1
 5535 00ad 0100     		.2byte	0x1
 5536 00af 50       		.byte	0x50
 5537 00b0 3A000000 		.4byte	.LVL38
 5538 00b4 3D000000 		.4byte	.LVL39-1
 5539 00b8 0100     		.2byte	0x1
 5540 00ba 50       		.byte	0x50
 5541 00bb 00000000 		.4byte	0
 5542 00bf 00000000 		.4byte	0
 5543              	.LLST4:
 5544 00c3 00000000 		.4byte	.LVL40
 5545 00c7 0E000000 		.4byte	.LVL42
 5546 00cb 0100     		.2byte	0x1
 5547 00cd 50       		.byte	0x50
 5548 00ce 0E000000 		.4byte	.LVL42
ARM GAS  C:\Users\HENRYA~1\AppData\Local\Temp\ccNfq1WN.s 			page 113


 5549 00d2 28000000 		.4byte	.LFE43
 5550 00d6 0400     		.2byte	0x4
 5551 00d8 F3       		.byte	0xf3
 5552 00d9 01       		.uleb128 0x1
 5553 00da 50       		.byte	0x50
 5554 00db 9F       		.byte	0x9f
 5555 00dc 00000000 		.4byte	0
 5556 00e0 00000000 		.4byte	0
 5557              	.LLST5:
 5558 00e4 00000000 		.4byte	.LVL40
 5559 00e8 1B000000 		.4byte	.LVL43-1
 5560 00ec 0100     		.2byte	0x1
 5561 00ee 51       		.byte	0x51
 5562 00ef 1B000000 		.4byte	.LVL43-1
 5563 00f3 28000000 		.4byte	.LFE43
 5564 00f7 0400     		.2byte	0x4
 5565 00f9 F3       		.byte	0xf3
 5566 00fa 01       		.uleb128 0x1
 5567 00fb 51       		.byte	0x51
 5568 00fc 9F       		.byte	0x9f
 5569 00fd 00000000 		.4byte	0
 5570 0101 00000000 		.4byte	0
 5571              	.LLST6:
 5572 0105 04000000 		.4byte	.LVL41
 5573 0109 1B000000 		.4byte	.LVL43-1
 5574 010d 0100     		.2byte	0x1
 5575 010f 52       		.byte	0x52
 5576 0110 1B000000 		.4byte	.LVL43-1
 5577 0114 28000000 		.4byte	.LFE43
 5578 0118 0600     		.2byte	0x6
 5579 011a F3       		.byte	0xf3
 5580 011b 01       		.uleb128 0x1
 5581 011c 51       		.byte	0x51
 5582 011d 38       		.byte	0x38
 5583 011e 26       		.byte	0x26
 5584 011f 9F       		.byte	0x9f
 5585 0120 00000000 		.4byte	0
 5586 0124 00000000 		.4byte	0
 5587              	.LLST7:
 5588 0128 04000000 		.4byte	.LVL41
 5589 012c 1B000000 		.4byte	.LVL43-1
 5590 0130 0100     		.2byte	0x1
 5591 0132 51       		.byte	0x51
 5592 0133 1B000000 		.4byte	.LVL43-1
 5593 0137 28000000 		.4byte	.LFE43
 5594 013b 0400     		.2byte	0x4
 5595 013d F3       		.byte	0xf3
 5596 013e 01       		.uleb128 0x1
 5597 013f 51       		.byte	0x51
 5598 0140 9F       		.byte	0x9f
 5599 0141 00000000 		.4byte	0
 5600 0145 00000000 		.4byte	0
 5601              	.LLST8:
 5602 0149 00000000 		.4byte	.LVL45
 5603 014d 1F000000 		.4byte	.LVL47-1
 5604 0151 0100     		.2byte	0x1
 5605 0153 50       		.byte	0x50
ARM GAS  C:\Users\HENRYA~1\AppData\Local\Temp\ccNfq1WN.s 			page 114


 5606 0154 1F000000 		.4byte	.LVL47-1
 5607 0158 2C000000 		.4byte	.LFE44
 5608 015c 0400     		.2byte	0x4
 5609 015e F3       		.byte	0xf3
 5610 015f 01       		.uleb128 0x1
 5611 0160 50       		.byte	0x50
 5612 0161 9F       		.byte	0x9f
 5613 0162 00000000 		.4byte	0
 5614 0166 00000000 		.4byte	0
 5615              	.LLST9:
 5616 016a 00000000 		.4byte	.LVL45
 5617 016e 0A000000 		.4byte	.LVL46
 5618 0172 0100     		.2byte	0x1
 5619 0174 51       		.byte	0x51
 5620 0175 0A000000 		.4byte	.LVL46
 5621 0179 2C000000 		.4byte	.LFE44
 5622 017d 0400     		.2byte	0x4
 5623 017f F3       		.byte	0xf3
 5624 0180 01       		.uleb128 0x1
 5625 0181 51       		.byte	0x51
 5626 0182 9F       		.byte	0x9f
 5627 0183 00000000 		.4byte	0
 5628 0187 00000000 		.4byte	0
 5629              	.LLST10:
 5630 018b 00000000 		.4byte	.LVL49
 5631 018f 11000000 		.4byte	.LVL51-1
 5632 0193 0100     		.2byte	0x1
 5633 0195 50       		.byte	0x50
 5634 0196 11000000 		.4byte	.LVL51-1
 5635 019a B4000000 		.4byte	.LFE45
 5636 019e 0200     		.2byte	0x2
 5637 01a0 91       		.byte	0x91
 5638 01a1 5C       		.sleb128 -36
 5639 01a2 00000000 		.4byte	0
 5640 01a6 00000000 		.4byte	0
 5641              	.LLST11:
 5642 01aa 00000000 		.4byte	.LVL49
 5643 01ae 0E000000 		.4byte	.LVL50
 5644 01b2 0100     		.2byte	0x1
 5645 01b4 51       		.byte	0x51
 5646 01b5 0E000000 		.4byte	.LVL50
 5647 01b9 B4000000 		.4byte	.LFE45
 5648 01bd 0200     		.2byte	0x2
 5649 01bf 91       		.byte	0x91
 5650 01c0 60       		.sleb128 -32
 5651 01c1 00000000 		.4byte	0
 5652 01c5 00000000 		.4byte	0
 5653              	.LLST12:
 5654 01c9 00000000 		.4byte	.LVL49
 5655 01cd 11000000 		.4byte	.LVL51-1
 5656 01d1 0100     		.2byte	0x1
 5657 01d3 52       		.byte	0x52
 5658 01d4 11000000 		.4byte	.LVL51-1
 5659 01d8 B4000000 		.4byte	.LFE45
 5660 01dc 0200     		.2byte	0x2
 5661 01de 91       		.byte	0x91
 5662 01df 64       		.sleb128 -28
ARM GAS  C:\Users\HENRYA~1\AppData\Local\Temp\ccNfq1WN.s 			page 115


 5663 01e0 00000000 		.4byte	0
 5664 01e4 00000000 		.4byte	0
 5665              	.LLST13:
 5666 01e8 00000000 		.4byte	.LVL49
 5667 01ec 11000000 		.4byte	.LVL51-1
 5668 01f0 0100     		.2byte	0x1
 5669 01f2 53       		.byte	0x53
 5670 01f3 11000000 		.4byte	.LVL51-1
 5671 01f7 4A000000 		.4byte	.LVL62
 5672 01fb 0100     		.2byte	0x1
 5673 01fd 57       		.byte	0x57
 5674 01fe 4A000000 		.4byte	.LVL62
 5675 0202 B4000000 		.4byte	.LFE45
 5676 0206 0400     		.2byte	0x4
 5677 0208 F3       		.byte	0xf3
 5678 0209 01       		.uleb128 0x1
 5679 020a 53       		.byte	0x53
 5680 020b 9F       		.byte	0x9f
 5681 020c 00000000 		.4byte	0
 5682 0210 00000000 		.4byte	0
 5683              	.LLST14:
 5684 0214 1C000000 		.4byte	.LVL53
 5685 0218 20000000 		.4byte	.LVL54
 5686 021c 0100     		.2byte	0x1
 5687 021e 50       		.byte	0x50
 5688 021f 20000000 		.4byte	.LVL54
 5689 0223 4C000000 		.4byte	.LVL63
 5690 0227 0100     		.2byte	0x1
 5691 0229 56       		.byte	0x56
 5692 022a 00000000 		.4byte	0
 5693 022e 00000000 		.4byte	0
 5694              	.LLST15:
 5695 0232 2E000000 		.4byte	.LVL57
 5696 0236 32000000 		.4byte	.LVL58
 5697 023a 0100     		.2byte	0x1
 5698 023c 50       		.byte	0x50
 5699 023d 32000000 		.4byte	.LVL58
 5700 0241 68000000 		.4byte	.LVL71
 5701 0245 0100     		.2byte	0x1
 5702 0247 55       		.byte	0x55
 5703 0248 00000000 		.4byte	0
 5704 024c 00000000 		.4byte	0
 5705              	.LLST16:
 5706 0250 40000000 		.4byte	.LVL61
 5707 0254 52000000 		.4byte	.LVL65
 5708 0258 0100     		.2byte	0x1
 5709 025a 50       		.byte	0x50
 5710 025b 52000000 		.4byte	.LVL65
 5711 025f 84000000 		.4byte	.LVL78
 5712 0263 0100     		.2byte	0x1
 5713 0265 54       		.byte	0x54
 5714 0266 00000000 		.4byte	0
 5715 026a 00000000 		.4byte	0
 5716              	.LLST17:
 5717 026e 4A000000 		.4byte	.LVL62
 5718 0272 66000000 		.4byte	.LVL70
 5719 0276 0100     		.2byte	0x1
ARM GAS  C:\Users\HENRYA~1\AppData\Local\Temp\ccNfq1WN.s 			page 116


 5720 0278 57       		.byte	0x57
 5721 0279 66000000 		.4byte	.LVL70
 5722 027d 82000000 		.4byte	.LVL77
 5723 0281 0100     		.2byte	0x1
 5724 0283 56       		.byte	0x56
 5725 0284 82000000 		.4byte	.LVL77
 5726 0288 A8000000 		.4byte	.LVL87
 5727 028c 0100     		.2byte	0x1
 5728 028e 55       		.byte	0x55
 5729 028f 00000000 		.4byte	0
 5730 0293 00000000 		.4byte	0
 5731              	.LLST18:
 5732 0297 4E000000 		.4byte	.LVL64
 5733 029b 5C000000 		.4byte	.LVL68
 5734 029f 0100     		.2byte	0x1
 5735 02a1 56       		.byte	0x56
 5736 02a2 5C000000 		.4byte	.LVL68
 5737 02a6 5E000000 		.4byte	.LVL69
 5738 02aa 0400     		.2byte	0x4
 5739 02ac 76       		.byte	0x76
 5740 02ad 8001     		.sleb128 128
 5741 02af 9F       		.byte	0x9f
 5742 02b0 5E000000 		.4byte	.LVL69
 5743 02b4 66000000 		.4byte	.LVL70
 5744 02b8 0100     		.2byte	0x1
 5745 02ba 56       		.byte	0x56
 5746 02bb 66000000 		.4byte	.LVL70
 5747 02bf 6A000000 		.4byte	.LVL72
 5748 02c3 0500     		.2byte	0x5
 5749 02c5 03       		.byte	0x3
 5750 02c6 03000000 		.4byte	dato_enviado_1+3
 5751 02ca 6A000000 		.4byte	.LVL72
 5752 02ce 78000000 		.4byte	.LVL75
 5753 02d2 0100     		.2byte	0x1
 5754 02d4 55       		.byte	0x55
 5755 02d5 78000000 		.4byte	.LVL75
 5756 02d9 7A000000 		.4byte	.LVL76
 5757 02dd 0400     		.2byte	0x4
 5758 02df 75       		.byte	0x75
 5759 02e0 8001     		.sleb128 128
 5760 02e2 9F       		.byte	0x9f
 5761 02e3 7A000000 		.4byte	.LVL76
 5762 02e7 82000000 		.4byte	.LVL77
 5763 02eb 0100     		.2byte	0x1
 5764 02ed 55       		.byte	0x55
 5765 02ee 82000000 		.4byte	.LVL77
 5766 02f2 86000000 		.4byte	.LVL79
 5767 02f6 0500     		.2byte	0x5
 5768 02f8 03       		.byte	0x3
 5769 02f9 05000000 		.4byte	dato_enviado_1+5
 5770 02fd 86000000 		.4byte	.LVL79
 5771 0301 94000000 		.4byte	.LVL82
 5772 0305 0100     		.2byte	0x1
 5773 0307 54       		.byte	0x54
 5774 0308 94000000 		.4byte	.LVL82
 5775 030c 96000000 		.4byte	.LVL83
 5776 0310 0400     		.2byte	0x4
ARM GAS  C:\Users\HENRYA~1\AppData\Local\Temp\ccNfq1WN.s 			page 117


 5777 0312 74       		.byte	0x74
 5778 0313 8001     		.sleb128 128
 5779 0315 9F       		.byte	0x9f
 5780 0316 96000000 		.4byte	.LVL83
 5781 031a A8000000 		.4byte	.LVL86
 5782 031e 0100     		.2byte	0x1
 5783 0320 54       		.byte	0x54
 5784 0321 00000000 		.4byte	0
 5785 0325 00000000 		.4byte	0
 5786              	.LLST19:
 5787 0329 4E000000 		.4byte	.LVL64
 5788 032d 5A000000 		.4byte	.LVL67
 5789 0331 0200     		.2byte	0x2
 5790 0333 30       		.byte	0x30
 5791 0334 9F       		.byte	0x9f
 5792 0335 5A000000 		.4byte	.LVL67
 5793 0339 5E000000 		.4byte	.LVL69
 5794 033d 0300     		.2byte	0x3
 5795 033f 09       		.byte	0x9
 5796 0340 80       		.byte	0x80
 5797 0341 9F       		.byte	0x9f
 5798 0342 76000000 		.4byte	.LVL74
 5799 0346 7A000000 		.4byte	.LVL76
 5800 034a 0300     		.2byte	0x3
 5801 034c 09       		.byte	0x9
 5802 034d 80       		.byte	0x80
 5803 034e 9F       		.byte	0x9f
 5804 034f 92000000 		.4byte	.LVL81
 5805 0353 96000000 		.4byte	.LVL83
 5806 0357 0300     		.2byte	0x3
 5807 0359 09       		.byte	0x9
 5808 035a 80       		.byte	0x80
 5809 035b 9F       		.byte	0x9f
 5810 035c 00000000 		.4byte	0
 5811 0360 00000000 		.4byte	0
 5812              	.LLST20:
 5813 0364 32000000 		.4byte	.LVL88
 5814 0368 42000000 		.4byte	.LVL89
 5815 036c 0100     		.2byte	0x1
 5816 036e 52       		.byte	0x52
 5817 036f 42000000 		.4byte	.LVL89
 5818 0373 49000000 		.4byte	.LVL90-1
 5819 0377 0B00     		.2byte	0xb
 5820 0379 03       		.byte	0x3
 5821 037a 07000000 		.4byte	mailbox0+7
 5822 037e 94       		.byte	0x94
 5823 037f 01       		.byte	0x1
 5824 0380 08       		.byte	0x8
 5825 0381 FF       		.byte	0xff
 5826 0382 1A       		.byte	0x1a
 5827 0383 9F       		.byte	0x9f
 5828 0384 00000000 		.4byte	0
 5829 0388 00000000 		.4byte	0
 5830              	.LLST21:
 5831 038c 00000000 		.4byte	.LVL100
 5832 0390 10000000 		.4byte	.LVL102
 5833 0394 0100     		.2byte	0x1
ARM GAS  C:\Users\HENRYA~1\AppData\Local\Temp\ccNfq1WN.s 			page 118


 5834 0396 50       		.byte	0x50
 5835 0397 10000000 		.4byte	.LVL102
 5836 039b 2C000000 		.4byte	.LVL108
 5837 039f 0100     		.2byte	0x1
 5838 03a1 57       		.byte	0x57
 5839 03a2 2C000000 		.4byte	.LVL108
 5840 03a6 2E000000 		.4byte	.LFE49
 5841 03aa 0400     		.2byte	0x4
 5842 03ac F3       		.byte	0xf3
 5843 03ad 01       		.uleb128 0x1
 5844 03ae 50       		.byte	0x50
 5845 03af 9F       		.byte	0x9f
 5846 03b0 00000000 		.4byte	0
 5847 03b4 00000000 		.4byte	0
 5848              	.LLST22:
 5849 03b8 00000000 		.4byte	.LVL100
 5850 03bc 10000000 		.4byte	.LVL102
 5851 03c0 0100     		.2byte	0x1
 5852 03c2 51       		.byte	0x51
 5853 03c3 10000000 		.4byte	.LVL102
 5854 03c7 2C000000 		.4byte	.LVL107
 5855 03cb 0100     		.2byte	0x1
 5856 03cd 56       		.byte	0x56
 5857 03ce 2C000000 		.4byte	.LVL107
 5858 03d2 2E000000 		.4byte	.LFE49
 5859 03d6 0400     		.2byte	0x4
 5860 03d8 F3       		.byte	0xf3
 5861 03d9 01       		.uleb128 0x1
 5862 03da 51       		.byte	0x51
 5863 03db 9F       		.byte	0x9f
 5864 03dc 00000000 		.4byte	0
 5865 03e0 00000000 		.4byte	0
 5866              	.LLST23:
 5867 03e4 0C000000 		.4byte	.LVL101
 5868 03e8 10000000 		.4byte	.LVL102
 5869 03ec 0200     		.2byte	0x2
 5870 03ee 31       		.byte	0x31
 5871 03ef 9F       		.byte	0x9f
 5872 03f0 10000000 		.4byte	.LVL102
 5873 03f4 2C000000 		.4byte	.LVL106
 5874 03f8 0100     		.2byte	0x1
 5875 03fa 54       		.byte	0x54
 5876 03fb 00000000 		.4byte	0
 5877 03ff 00000000 		.4byte	0
 5878              	.LLST24:
 5879 0403 0C000000 		.4byte	.LVL101
 5880 0407 10000000 		.4byte	.LVL102
 5881 040b 0100     		.2byte	0x1
 5882 040d 53       		.byte	0x53
 5883 040e 10000000 		.4byte	.LVL102
 5884 0412 2E000000 		.4byte	.LFE49
 5885 0416 0200     		.2byte	0x2
 5886 0418 91       		.byte	0x91
 5887 0419 64       		.sleb128 -28
 5888 041a 00000000 		.4byte	0
 5889 041e 00000000 		.4byte	0
 5890              	.LLST25:
ARM GAS  C:\Users\HENRYA~1\AppData\Local\Temp\ccNfq1WN.s 			page 119


 5891 0422 00000000 		.4byte	.LVL109
 5892 0426 0A000000 		.4byte	.LVL110
 5893 042a 0100     		.2byte	0x1
 5894 042c 50       		.byte	0x50
 5895 042d 0A000000 		.4byte	.LVL110
 5896 0431 0D000000 		.4byte	.LVL111-1
 5897 0435 0100     		.2byte	0x1
 5898 0437 51       		.byte	0x51
 5899 0438 0D000000 		.4byte	.LVL111-1
 5900 043c 1E000000 		.4byte	.LVL116
 5901 0440 0100     		.2byte	0x1
 5902 0442 54       		.byte	0x54
 5903 0443 1E000000 		.4byte	.LVL116
 5904 0447 6C000000 		.4byte	.LFE50
 5905 044b 0400     		.2byte	0x4
 5906 044d F3       		.byte	0xf3
 5907 044e 01       		.uleb128 0x1
 5908 044f 50       		.byte	0x50
 5909 0450 9F       		.byte	0x9f
 5910 0451 00000000 		.4byte	0
 5911 0455 00000000 		.4byte	0
 5912              	.LLST26:
 5913 0459 10000000 		.4byte	.LVL112
 5914 045d 14000000 		.4byte	.LVL113
 5915 0461 0100     		.2byte	0x1
 5916 0463 50       		.byte	0x50
 5917 0464 14000000 		.4byte	.LVL113
 5918 0468 5C000000 		.4byte	.LVL123
 5919 046c 0100     		.2byte	0x1
 5920 046e 57       		.byte	0x57
 5921 046f 00000000 		.4byte	0
 5922 0473 00000000 		.4byte	0
 5923              	.LLST27:
 5924 0477 1A000000 		.4byte	.LVL115
 5925 047b 1E000000 		.4byte	.LVL116
 5926 047f 0100     		.2byte	0x1
 5927 0481 50       		.byte	0x50
 5928 0482 1E000000 		.4byte	.LVL116
 5929 0486 6C000000 		.4byte	.LFE50
 5930 048a 0200     		.2byte	0x2
 5931 048c 91       		.byte	0x91
 5932 048d 64       		.sleb128 -28
 5933 048e 00000000 		.4byte	0
 5934 0492 00000000 		.4byte	0
 5935              	.LLST28:
 5936 0496 1A000000 		.4byte	.LVL115
 5937 049a 1E000000 		.4byte	.LVL116
 5938 049e 0200     		.2byte	0x2
 5939 04a0 30       		.byte	0x30
 5940 04a1 9F       		.byte	0x9f
 5941 04a2 1E000000 		.4byte	.LVL116
 5942 04a6 5C000000 		.4byte	.LVL122
 5943 04aa 0100     		.2byte	0x1
 5944 04ac 55       		.byte	0x55
 5945 04ad 00000000 		.4byte	0
 5946 04b1 00000000 		.4byte	0
 5947              	.LLST29:
ARM GAS  C:\Users\HENRYA~1\AppData\Local\Temp\ccNfq1WN.s 			page 120


 5948 04b5 00000000 		.4byte	.LVL124
 5949 04b9 2E000000 		.4byte	.LVL125
 5950 04bd 0100     		.2byte	0x1
 5951 04bf 50       		.byte	0x50
 5952 04c0 2E000000 		.4byte	.LVL125
 5953 04c4 30000000 		.4byte	.LVL126
 5954 04c8 0300     		.2byte	0x3
 5955 04ca 70       		.byte	0x70
 5956 04cb 58       		.sleb128 -40
 5957 04cc 9F       		.byte	0x9f
 5958 04cd 30000000 		.4byte	.LVL126
 5959 04d1 7C000000 		.4byte	.LFE51
 5960 04d5 0400     		.2byte	0x4
 5961 04d7 F3       		.byte	0xf3
 5962 04d8 01       		.uleb128 0x1
 5963 04d9 50       		.byte	0x50
 5964 04da 9F       		.byte	0x9f
 5965 04db 00000000 		.4byte	0
 5966 04df 00000000 		.4byte	0
 5967              	.LLST30:
 5968 04e3 34000000 		.4byte	.LVL127
 5969 04e7 38000000 		.4byte	.LVL128
 5970 04eb 0200     		.2byte	0x2
 5971 04ed 30       		.byte	0x30
 5972 04ee 9F       		.byte	0x9f
 5973 04ef 38000000 		.4byte	.LVL128
 5974 04f3 6E000000 		.4byte	.LVL135
 5975 04f7 0100     		.2byte	0x1
 5976 04f9 55       		.byte	0x55
 5977 04fa 00000000 		.4byte	0
 5978 04fe 00000000 		.4byte	0
 5979              	.LLST31:
 5980 0502 14000000 		.4byte	.LVL136
 5981 0506 18000000 		.4byte	.LVL137
 5982 050a 0200     		.2byte	0x2
 5983 050c 30       		.byte	0x30
 5984 050d 9F       		.byte	0x9f
 5985 050e 18000000 		.4byte	.LVL137
 5986 0512 4E000000 		.4byte	.LVL144
 5987 0516 0100     		.2byte	0x1
 5988 0518 55       		.byte	0x55
 5989 0519 00000000 		.4byte	0
 5990 051d 00000000 		.4byte	0
 5991              	.LLST32:
 5992 0521 06000000 		.4byte	.LVL145
 5993 0525 12000000 		.4byte	.LVL146
 5994 0529 0200     		.2byte	0x2
 5995 052b 30       		.byte	0x30
 5996 052c 9F       		.byte	0x9f
 5997 052d 12000000 		.4byte	.LVL146
 5998 0531 2E000000 		.4byte	.LVL149
 5999 0535 0100     		.2byte	0x1
 6000 0537 54       		.byte	0x54
 6001 0538 30000000 		.4byte	.LVL150
 6002 053c 4C000000 		.4byte	.LVL153
 6003 0540 0100     		.2byte	0x1
 6004 0542 54       		.byte	0x54
ARM GAS  C:\Users\HENRYA~1\AppData\Local\Temp\ccNfq1WN.s 			page 121


 6005 0543 4C000000 		.4byte	.LVL153
 6006 0547 98000000 		.4byte	.LVL162
 6007 054b 0100     		.2byte	0x1
 6008 054d 57       		.byte	0x57
 6009 054e 98000000 		.4byte	.LVL162
 6010 0552 2C010000 		.4byte	.LFE53
 6011 0556 0100     		.2byte	0x1
 6012 0558 52       		.byte	0x52
 6013 0559 00000000 		.4byte	0
 6014 055d 00000000 		.4byte	0
 6015              	.LLST33:
 6016 0561 06000000 		.4byte	.LVL145
 6017 0565 4C000000 		.4byte	.LVL153
 6018 0569 0200     		.2byte	0x2
 6019 056b 30       		.byte	0x30
 6020 056c 9F       		.byte	0x9f
 6021 056d 5E000000 		.4byte	.LVL156
 6022 0571 62000000 		.4byte	.LVL157
 6023 0575 0200     		.2byte	0x2
 6024 0577 30       		.byte	0x30
 6025 0578 9F       		.byte	0x9f
 6026 0579 62000000 		.4byte	.LVL157
 6027 057d 8C000000 		.4byte	.LVL161
 6028 0581 0100     		.2byte	0x1
 6029 0583 54       		.byte	0x54
 6030 0584 00000000 		.4byte	0
 6031 0588 00000000 		.4byte	0
 6032              	.LLST34:
 6033 058c 00000000 		.4byte	.LVL164
 6034 0590 0D000000 		.4byte	.LVL166-1
 6035 0594 0100     		.2byte	0x1
 6036 0596 50       		.byte	0x50
 6037 0597 0D000000 		.4byte	.LVL166-1
 6038 059b 28000000 		.4byte	.LVL169
 6039 059f 0100     		.2byte	0x1
 6040 05a1 55       		.byte	0x55
 6041 05a2 28000000 		.4byte	.LVL169
 6042 05a6 2A000000 		.4byte	.LFE54
 6043 05aa 0600     		.2byte	0x6
 6044 05ac F3       		.byte	0xf3
 6045 05ad 03       		.uleb128 0x3
 6046 05ae F5       		.byte	0xf5
 6047 05af 00       		.uleb128 0
 6048 05b0 25       		.uleb128 0x25
 6049 05b1 9F       		.byte	0x9f
 6050 05b2 00000000 		.4byte	0
 6051 05b6 00000000 		.4byte	0
 6052              	.LLST35:
 6053 05ba 00000000 		.4byte	.LVL164
 6054 05be 0A000000 		.4byte	.LVL165
 6055 05c2 0100     		.2byte	0x1
 6056 05c4 51       		.byte	0x51
 6057 05c5 0A000000 		.4byte	.LVL165
 6058 05c9 28000000 		.4byte	.LVL170
 6059 05cd 0100     		.2byte	0x1
 6060 05cf 56       		.byte	0x56
 6061 05d0 28000000 		.4byte	.LVL170
ARM GAS  C:\Users\HENRYA~1\AppData\Local\Temp\ccNfq1WN.s 			page 122


 6062 05d4 2A000000 		.4byte	.LFE54
 6063 05d8 0600     		.2byte	0x6
 6064 05da F3       		.byte	0xf3
 6065 05db 03       		.uleb128 0x3
 6066 05dc F5       		.byte	0xf5
 6067 05dd 01       		.uleb128 0x1
 6068 05de 25       		.uleb128 0x25
 6069 05df 9F       		.byte	0x9f
 6070 05e0 00000000 		.4byte	0
 6071 05e4 00000000 		.4byte	0
 6072              	.LLST36:
 6073 05e8 00000000 		.4byte	.LVL164
 6074 05ec 0D000000 		.4byte	.LVL166-1
 6075 05f0 0100     		.2byte	0x1
 6076 05f2 52       		.byte	0x52
 6077 05f3 0D000000 		.4byte	.LVL166-1
 6078 05f7 28000000 		.4byte	.LVL168
 6079 05fb 0100     		.2byte	0x1
 6080 05fd 54       		.byte	0x54
 6081 05fe 28000000 		.4byte	.LVL168
 6082 0602 2A000000 		.4byte	.LFE54
 6083 0606 0600     		.2byte	0x6
 6084 0608 F3       		.byte	0xf3
 6085 0609 03       		.uleb128 0x3
 6086 060a F5       		.byte	0xf5
 6087 060b 02       		.uleb128 0x2
 6088 060c 25       		.uleb128 0x25
 6089 060d 9F       		.byte	0x9f
 6090 060e 00000000 		.4byte	0
 6091 0612 00000000 		.4byte	0
 6092              	.LLST37:
 6093 0616 00000000 		.4byte	.LVL171
 6094 061a 07000000 		.4byte	.LVL172-1
 6095 061e 0100     		.2byte	0x1
 6096 0620 50       		.byte	0x50
 6097 0621 07000000 		.4byte	.LVL172-1
 6098 0625 8A000000 		.4byte	.LVL180
 6099 0629 0100     		.2byte	0x1
 6100 062b 54       		.byte	0x54
 6101 062c 8A000000 		.4byte	.LVL180
 6102 0630 8C000000 		.4byte	.LVL181
 6103 0634 0300     		.2byte	0x3
 6104 0636 74       		.byte	0x74
 6105 0637 58       		.sleb128 -40
 6106 0638 9F       		.byte	0x9f
 6107 0639 8C000000 		.4byte	.LVL181
 6108 063d B8000000 		.4byte	.LFE55
 6109 0641 0400     		.2byte	0x4
 6110 0643 F3       		.byte	0xf3
 6111 0644 01       		.uleb128 0x1
 6112 0645 50       		.byte	0x50
 6113 0646 9F       		.byte	0x9f
 6114 0647 00000000 		.4byte	0
 6115 064b 00000000 		.4byte	0
 6116              	.LLST38:
 6117 064f 2C000000 		.4byte	.LVL187
 6118 0653 2E000000 		.4byte	.LVL188
ARM GAS  C:\Users\HENRYA~1\AppData\Local\Temp\ccNfq1WN.s 			page 123


 6119 0657 0100     		.2byte	0x1
 6120 0659 50       		.byte	0x50
 6121 065a 2E000000 		.4byte	.LVL188
 6122 065e E6000000 		.4byte	.LVL224
 6123 0662 0100     		.2byte	0x1
 6124 0664 59       		.byte	0x59
 6125 0665 00000000 		.4byte	0
 6126 0669 00000000 		.4byte	0
 6127              	.LLST39:
 6128 066d 4C000000 		.4byte	.LVL193
 6129 0671 50000000 		.4byte	.LVL194
 6130 0675 0100     		.2byte	0x1
 6131 0677 50       		.byte	0x50
 6132 0678 50000000 		.4byte	.LVL194
 6133 067c E6000000 		.4byte	.LVL223
 6134 0680 0100     		.2byte	0x1
 6135 0682 58       		.byte	0x58
 6136 0683 00000000 		.4byte	0
 6137 0687 00000000 		.4byte	0
 6138              	.LLST40:
 6139 068b 4C000000 		.4byte	.LVL193
 6140 068f 50000000 		.4byte	.LVL194
 6141 0693 0200     		.2byte	0x2
 6142 0695 30       		.byte	0x30
 6143 0696 9F       		.byte	0x9f
 6144 0697 50000000 		.4byte	.LVL194
 6145 069b E6000000 		.4byte	.LVL222
 6146 069f 0100     		.2byte	0x1
 6147 06a1 55       		.byte	0x55
 6148 06a2 00000000 		.4byte	0
 6149 06a6 00000000 		.4byte	0
 6150              	.LLST41:
 6151 06aa 5A000000 		.4byte	.LVL197
 6152 06ae 5D000000 		.4byte	.LVL198-1
 6153 06b2 0100     		.2byte	0x1
 6154 06b4 50       		.byte	0x50
 6155 06b5 5D000000 		.4byte	.LVL198-1
 6156 06b9 8C000000 		.4byte	.LVL207
 6157 06bd 0100     		.2byte	0x1
 6158 06bf 56       		.byte	0x56
 6159 06c0 8C000000 		.4byte	.LVL207
 6160 06c4 A4000000 		.4byte	.LVL213
 6161 06c8 0200     		.2byte	0x2
 6162 06ca 91       		.byte	0x91
 6163 06cb 50       		.sleb128 -48
 6164 06cc 00000000 		.4byte	0
 6165 06d0 00000000 		.4byte	0
 6166              	.LLST42:
 6167 06d4 64000000 		.4byte	.LVL200
 6168 06d8 6A000000 		.4byte	.LVL201
 6169 06dc 0100     		.2byte	0x1
 6170 06de 50       		.byte	0x50
 6171 06df 6A000000 		.4byte	.LVL201
 6172 06e3 90000000 		.4byte	.LVL209
 6173 06e7 0100     		.2byte	0x1
 6174 06e9 54       		.byte	0x54
 6175 06ea 90000000 		.4byte	.LVL209
ARM GAS  C:\Users\HENRYA~1\AppData\Local\Temp\ccNfq1WN.s 			page 124


 6176 06ee D4000000 		.4byte	.LVL219
 6177 06f2 0200     		.2byte	0x2
 6178 06f4 91       		.byte	0x91
 6179 06f5 54       		.sleb128 -44
 6180 06f6 00000000 		.4byte	0
 6181 06fa 00000000 		.4byte	0
 6182              	.LLST43:
 6183 06fe 72000000 		.4byte	.LVL203
 6184 0702 78000000 		.4byte	.LVL204
 6185 0706 0100     		.2byte	0x1
 6186 0708 50       		.byte	0x50
 6187 0709 78000000 		.4byte	.LVL204
 6188 070d D4000000 		.4byte	.LVL219
 6189 0711 0200     		.2byte	0x2
 6190 0713 91       		.byte	0x91
 6191 0714 58       		.sleb128 -40
 6192 0715 00000000 		.4byte	0
 6193 0719 00000000 		.4byte	0
 6194              	.LLST44:
 6195 071d 80000000 		.4byte	.LVL206
 6196 0721 9E000000 		.4byte	.LVL211
 6197 0725 0100     		.2byte	0x1
 6198 0727 50       		.byte	0x50
 6199 0728 9E000000 		.4byte	.LVL211
 6200 072c D4000000 		.4byte	.LVL219
 6201 0730 0200     		.2byte	0x2
 6202 0732 91       		.byte	0x91
 6203 0733 5C       		.sleb128 -36
 6204 0734 00000000 		.4byte	0
 6205 0738 00000000 		.4byte	0
 6206              	.LLST45:
 6207 073c 8E000000 		.4byte	.LVL208
 6208 0740 A1000000 		.4byte	.LVL212-1
 6209 0744 0100     		.2byte	0x1
 6210 0746 52       		.byte	0x52
 6211 0747 A1000000 		.4byte	.LVL212-1
 6212 074b D4000000 		.4byte	.LVL219
 6213 074f 0200     		.2byte	0x2
 6214 0751 91       		.byte	0x91
 6215 0752 4C       		.sleb128 -52
 6216 0753 00000000 		.4byte	0
 6217 0757 00000000 		.4byte	0
 6218              	.LLST46:
 6219 075b 98000000 		.4byte	.LVL210
 6220 075f A1000000 		.4byte	.LVL212-1
 6221 0763 0100     		.2byte	0x1
 6222 0765 53       		.byte	0x53
 6223 0766 A1000000 		.4byte	.LVL212-1
 6224 076a D4000000 		.4byte	.LVL219
 6225 076e 0200     		.2byte	0x2
 6226 0770 7D       		.byte	0x7d
 6227 0771 00       		.sleb128 0
 6228 0772 00000000 		.4byte	0
 6229 0776 00000000 		.4byte	0
 6230              	.LLST47:
 6231 077a 2A000000 		.4byte	.LVL229
 6232 077e 2D000000 		.4byte	.LVL230-1
ARM GAS  C:\Users\HENRYA~1\AppData\Local\Temp\ccNfq1WN.s 			page 125


 6233 0782 0100     		.2byte	0x1
 6234 0784 50       		.byte	0x50
 6235 0785 2D000000 		.4byte	.LVL230-1
 6236 0789 5A010000 		.4byte	.LVL263
 6237 078d 0100     		.2byte	0x1
 6238 078f 54       		.byte	0x54
 6239 0790 00000000 		.4byte	0
 6240 0794 00000000 		.4byte	0
 6241              	.LLST48:
 6242 0798 34000000 		.4byte	.LVL232
 6243 079c 5E000000 		.4byte	.LVL236
 6244 07a0 0100     		.2byte	0x1
 6245 07a2 55       		.byte	0x55
 6246 07a3 6C000000 		.4byte	.LVL238
 6247 07a7 98000000 		.4byte	.LVL242
 6248 07ab 0100     		.2byte	0x1
 6249 07ad 55       		.byte	0x55
 6250 07ae A6000000 		.4byte	.LVL244
 6251 07b2 D2000000 		.4byte	.LVL248
 6252 07b6 0100     		.2byte	0x1
 6253 07b8 55       		.byte	0x55
 6254 07b9 E0000000 		.4byte	.LVL250
 6255 07bd 0C010000 		.4byte	.LVL254
 6256 07c1 0100     		.2byte	0x1
 6257 07c3 55       		.byte	0x55
 6258 07c4 1A010000 		.4byte	.LVL256
 6259 07c8 46010000 		.4byte	.LVL260
 6260 07cc 0100     		.2byte	0x1
 6261 07ce 55       		.byte	0x55
 6262 07cf 00000000 		.4byte	0
 6263 07d3 00000000 		.4byte	0
 6264              	.LLST49:
 6265 07d7 02000000 		.4byte	.LVL264
 6266 07db 06000000 		.4byte	.LVL265
 6267 07df 0200     		.2byte	0x2
 6268 07e1 30       		.byte	0x30
 6269 07e2 9F       		.byte	0x9f
 6270 07e3 06000000 		.4byte	.LVL265
 6271 07e7 54000000 		.4byte	.LVL268
 6272 07eb 0100     		.2byte	0x1
 6273 07ed 54       		.byte	0x54
 6274 07ee 00000000 		.4byte	0
 6275 07f2 00000000 		.4byte	0
 6276              	.LLST50:
 6277 07f6 02000000 		.4byte	.LVL269
 6278 07fa 56000000 		.4byte	.LVL275
 6279 07fe 0600     		.2byte	0x6
 6280 0800 9E       		.byte	0x9e
 6281 0801 04       		.uleb128 0x4
 6282 0802 0000003F 		.4byte	0x3f000000
 6283 0806 56000000 		.4byte	.LVL275
 6284 080a 5D000000 		.4byte	.LVL276-1
 6285 080e 0100     		.2byte	0x1
 6286 0810 50       		.byte	0x50
 6287 0811 86000000 		.4byte	.LVL282
 6288 0815 F4000000 		.4byte	.LVL287
 6289 0819 0600     		.2byte	0x6
ARM GAS  C:\Users\HENRYA~1\AppData\Local\Temp\ccNfq1WN.s 			page 126


 6290 081b 9E       		.byte	0x9e
 6291 081c 04       		.uleb128 0x4
 6292 081d 0000003F 		.4byte	0x3f000000
 6293 0821 00000000 		.4byte	0
 6294 0825 00000000 		.4byte	0
 6295              	.LLST51:
 6296 0829 02000000 		.4byte	.LVL269
 6297 082d 6E000000 		.4byte	.LVL279
 6298 0831 0600     		.2byte	0x6
 6299 0833 9E       		.byte	0x9e
 6300 0834 04       		.uleb128 0x4
 6301 0835 CDCC4C3E 		.4byte	0x3e4ccccd
 6302 0839 6E000000 		.4byte	.LVL279
 6303 083d 75000000 		.4byte	.LVL280-1
 6304 0841 0100     		.2byte	0x1
 6305 0843 50       		.byte	0x50
 6306 0844 86000000 		.4byte	.LVL282
 6307 0848 F4000000 		.4byte	.LVL287
 6308 084c 0600     		.2byte	0x6
 6309 084e 9E       		.byte	0x9e
 6310 084f 04       		.uleb128 0x4
 6311 0850 CDCC4C3E 		.4byte	0x3e4ccccd
 6312 0854 00000000 		.4byte	0
 6313 0858 00000000 		.4byte	0
 6314              	.LLST52:
 6315 085c 02000000 		.4byte	.LVL292
 6316 0860 06000000 		.4byte	.LVL293
 6317 0864 0200     		.2byte	0x2
 6318 0866 30       		.byte	0x30
 6319 0867 9F       		.byte	0x9f
 6320 0868 06000000 		.4byte	.LVL293
 6321 086c C2000000 		.4byte	.LVL315
 6322 0870 0100     		.2byte	0x1
 6323 0872 54       		.byte	0x54
 6324 0873 C4000000 		.4byte	.LVL316
 6325 0877 D8010000 		.4byte	.LFE63
 6326 087b 0100     		.2byte	0x1
 6327 087d 54       		.byte	0x54
 6328 087e 00000000 		.4byte	0
 6329 0882 00000000 		.4byte	0
 6330              		.section	.debug_aranges,"",%progbits
 6331 0000 EC000000 		.4byte	0xec
 6332 0004 0200     		.2byte	0x2
 6333 0006 00000000 		.4byte	.Ldebug_info0
 6334 000a 04       		.byte	0x4
 6335 000b 00       		.byte	0
 6336 000c 0000     		.2byte	0
 6337 000e 0000     		.2byte	0
 6338 0010 00000000 		.4byte	.LFB62
 6339 0014 2C000000 		.4byte	.LFE62-.LFB62
 6340 0018 00000000 		.4byte	.LFB37
 6341 001c 16000000 		.4byte	.LFE37-.LFB37
 6342 0020 00000000 		.4byte	.LFB38
 6343 0024 18000000 		.4byte	.LFE38-.LFB38
 6344 0028 00000000 		.4byte	.LFB39
 6345 002c 10000000 		.4byte	.LFE39-.LFB39
 6346 0030 00000000 		.4byte	.LFB40
ARM GAS  C:\Users\HENRYA~1\AppData\Local\Temp\ccNfq1WN.s 			page 127


 6347 0034 28000000 		.4byte	.LFE40-.LFB40
 6348 0038 00000000 		.4byte	.LFB41
 6349 003c 22000000 		.4byte	.LFE41-.LFB41
 6350 0040 00000000 		.4byte	.LFB42
 6351 0044 54000000 		.4byte	.LFE42-.LFB42
 6352 0048 00000000 		.4byte	.LFB43
 6353 004c 28000000 		.4byte	.LFE43-.LFB43
 6354 0050 00000000 		.4byte	.LFB44
 6355 0054 2C000000 		.4byte	.LFE44-.LFB44
 6356 0058 00000000 		.4byte	.LFB45
 6357 005c B4000000 		.4byte	.LFE45-.LFB45
 6358 0060 00000000 		.4byte	.LFB46
 6359 0064 78000000 		.4byte	.LFE46-.LFB46
 6360 0068 00000000 		.4byte	.LFB47
 6361 006c 10010000 		.4byte	.LFE47-.LFB47
 6362 0070 00000000 		.4byte	.LFB48
 6363 0074 18000000 		.4byte	.LFE48-.LFB48
 6364 0078 00000000 		.4byte	.LFB49
 6365 007c 2E000000 		.4byte	.LFE49-.LFB49
 6366 0080 00000000 		.4byte	.LFB50
 6367 0084 6C000000 		.4byte	.LFE50-.LFB50
 6368 0088 00000000 		.4byte	.LFB51
 6369 008c 7C000000 		.4byte	.LFE51-.LFB51
 6370 0090 00000000 		.4byte	.LFB52
 6371 0094 5C000000 		.4byte	.LFE52-.LFB52
 6372 0098 00000000 		.4byte	.LFB53
 6373 009c 2C010000 		.4byte	.LFE53-.LFB53
 6374 00a0 00000000 		.4byte	.LFB54
 6375 00a4 2A000000 		.4byte	.LFE54-.LFB54
 6376 00a8 00000000 		.4byte	.LFB55
 6377 00ac B8000000 		.4byte	.LFE55-.LFB55
 6378 00b0 00000000 		.4byte	.LFB56
 6379 00b4 F8000000 		.4byte	.LFE56-.LFB56
 6380 00b8 00000000 		.4byte	.LFB57
 6381 00bc 68010000 		.4byte	.LFE57-.LFB57
 6382 00c0 00000000 		.4byte	.LFB58
 6383 00c4 6C000000 		.4byte	.LFE58-.LFB58
 6384 00c8 00000000 		.4byte	.LFB59
 6385 00cc 08010000 		.4byte	.LFE59-.LFB59
 6386 00d0 00000000 		.4byte	.LFB60
 6387 00d4 38000000 		.4byte	.LFE60-.LFB60
 6388 00d8 00000000 		.4byte	.LFB61
 6389 00dc 08000000 		.4byte	.LFE61-.LFB61
 6390 00e0 00000000 		.4byte	.LFB63
 6391 00e4 D8010000 		.4byte	.LFE63-.LFB63
 6392 00e8 00000000 		.4byte	0
 6393 00ec 00000000 		.4byte	0
 6394              		.section	.debug_ranges,"",%progbits
 6395              	.Ldebug_ranges0:
 6396 0000 00000000 		.4byte	.LFB62
 6397 0004 2C000000 		.4byte	.LFE62
 6398 0008 00000000 		.4byte	.LFB37
 6399 000c 16000000 		.4byte	.LFE37
 6400 0010 00000000 		.4byte	.LFB38
 6401 0014 18000000 		.4byte	.LFE38
 6402 0018 00000000 		.4byte	.LFB39
 6403 001c 10000000 		.4byte	.LFE39
ARM GAS  C:\Users\HENRYA~1\AppData\Local\Temp\ccNfq1WN.s 			page 128


 6404 0020 00000000 		.4byte	.LFB40
 6405 0024 28000000 		.4byte	.LFE40
 6406 0028 00000000 		.4byte	.LFB41
 6407 002c 22000000 		.4byte	.LFE41
 6408 0030 00000000 		.4byte	.LFB42
 6409 0034 54000000 		.4byte	.LFE42
 6410 0038 00000000 		.4byte	.LFB43
 6411 003c 28000000 		.4byte	.LFE43
 6412 0040 00000000 		.4byte	.LFB44
 6413 0044 2C000000 		.4byte	.LFE44
 6414 0048 00000000 		.4byte	.LFB45
 6415 004c B4000000 		.4byte	.LFE45
 6416 0050 00000000 		.4byte	.LFB46
 6417 0054 78000000 		.4byte	.LFE46
 6418 0058 00000000 		.4byte	.LFB47
 6419 005c 10010000 		.4byte	.LFE47
 6420 0060 00000000 		.4byte	.LFB48
 6421 0064 18000000 		.4byte	.LFE48
 6422 0068 00000000 		.4byte	.LFB49
 6423 006c 2E000000 		.4byte	.LFE49
 6424 0070 00000000 		.4byte	.LFB50
 6425 0074 6C000000 		.4byte	.LFE50
 6426 0078 00000000 		.4byte	.LFB51
 6427 007c 7C000000 		.4byte	.LFE51
 6428 0080 00000000 		.4byte	.LFB52
 6429 0084 5C000000 		.4byte	.LFE52
 6430 0088 00000000 		.4byte	.LFB53
 6431 008c 2C010000 		.4byte	.LFE53
 6432 0090 00000000 		.4byte	.LFB54
 6433 0094 2A000000 		.4byte	.LFE54
 6434 0098 00000000 		.4byte	.LFB55
 6435 009c B8000000 		.4byte	.LFE55
 6436 00a0 00000000 		.4byte	.LFB56
 6437 00a4 F8000000 		.4byte	.LFE56
 6438 00a8 00000000 		.4byte	.LFB57
 6439 00ac 68010000 		.4byte	.LFE57
 6440 00b0 00000000 		.4byte	.LFB58
 6441 00b4 6C000000 		.4byte	.LFE58
 6442 00b8 00000000 		.4byte	.LFB59
 6443 00bc 08010000 		.4byte	.LFE59
 6444 00c0 00000000 		.4byte	.LFB60
 6445 00c4 38000000 		.4byte	.LFE60
 6446 00c8 00000000 		.4byte	.LFB61
 6447 00cc 08000000 		.4byte	.LFE61
 6448 00d0 00000000 		.4byte	.LFB63
 6449 00d4 D8010000 		.4byte	.LFE63
 6450 00d8 00000000 		.4byte	0
 6451 00dc 00000000 		.4byte	0
 6452              		.section	.debug_line,"",%progbits
 6453              	.Ldebug_line0:
 6454 0000 C1050000 		.section	.debug_str,"MS",%progbits,1
 6454      02001701 
 6454      00000201 
 6454      FB0E0D00 
 6454      01010101 
 6455              	.LASF102:
 6456 0000 4C5F616E 		.ascii	"L_anterior\000"
ARM GAS  C:\Users\HENRYA~1\AppData\Local\Temp\ccNfq1WN.s 			page 129


 6456      74657269 
 6456      6F7200
 6457              	.LASF77:
 6458 000b 6461746F 		.ascii	"dato_enviado_1\000"
 6458      5F656E76 
 6458      6961646F 
 6458      5F3100
 6459              	.LASF78:
 6460 001a 6461746F 		.ascii	"dato_enviado_2\000"
 6460      5F656E76 
 6460      6961646F 
 6460      5F3200
 6461              	.LASF27:
 6462 0029 53656E64 		.ascii	"Send_Angle\000"
 6462      5F416E67 
 6462      6C6500
 6463              	.LASF135:
 6464 0034 43414E5F 		.ascii	"CAN_isr_StartEx\000"
 6464      6973725F 
 6464      53746172 
 6464      74457800 
 6465              	.LASF53:
 6466 0044 6C696D5F 		.ascii	"lim_inf\000"
 6466      696E6600 
 6467              	.LASF139:
 6468 004c 6D61696E 		.ascii	"main.c\000"
 6468      2E6300
 6469              	.LASF66:
 6470 0053 636F6D70 		.ascii	"componente\000"
 6470      6F6E656E 
 6470      746500
 6471              	.LASF136:
 6472 005e 496E745F 		.ascii	"Int_Serial_StartEx\000"
 6472      53657269 
 6472      616C5F53 
 6472      74617274 
 6472      457800
 6473              	.LASF62:
 6474 0071 6E65675F 		.ascii	"neg_alpha\000"
 6474      616C7068 
 6474      6100
 6475              	.LASF137:
 6476 007b 54696D65 		.ascii	"Timer_StartEx\000"
 6476      725F5374 
 6476      61727445 
 6476      7800
 6477              	.LASF109:
 6478 0089 506F626C 		.ascii	"Poblacion_1\000"
 6478      6163696F 
 6478      6E5F3100 
 6479              	.LASF101:
 6480 0095 4C5F6163 		.ascii	"L_actual\000"
 6480      7475616C 
 6480      00
 6481              	.LASF87:
 6482 009e 46617365 		.ascii	"Fase\000"
 6482      00
ARM GAS  C:\Users\HENRYA~1\AppData\Local\Temp\ccNfq1WN.s 			page 130


 6483              	.LASF9:
 6484 00a3 756E7369 		.ascii	"unsigned int\000"
 6484      676E6564 
 6484      20696E74 
 6484      00
 6485              	.LASF95:
 6486 00b0 7068615F 		.ascii	"pha_aux_2\000"
 6486      6175785F 
 6486      3200
 6487              	.LASF11:
 6488 00ba 696E7431 		.ascii	"int16\000"
 6488      3600
 6489              	.LASF96:
 6490 00c0 616D706C 		.ascii	"ampli_aux_H_2\000"
 6490      695F6175 
 6490      785F485F 
 6490      3200
 6491              	.LASF58:
 6492 00ce 70617061 		.ascii	"papa\000"
 6492      00
 6493              	.LASF71:
 6494 00d3 54656D70 		.ascii	"Temporizador\000"
 6494      6F72697A 
 6494      61646F72 
 6494      00
 6495              	.LASF16:
 6496 00e0 53657269 		.ascii	"Serial_Interrupt\000"
 6496      616C5F49 
 6496      6E746572 
 6496      72757074 
 6496      00
 6497              	.LASF92:
 6498 00f1 7068615F 		.ascii	"pha_aux\000"
 6498      61757800 
 6499              	.LASF81:
 6500 00f9 43616E74 		.ascii	"Cantidad_Sensores\000"
 6500      69646164 
 6500      5F53656E 
 6500      736F7265 
 6500      7300
 6501              	.LASF41:
 6502 010b 696E7465 		.ascii	"interrutcan\000"
 6502      72727574 
 6502      63616E00 
 6503              	.LASF59:
 6504 0117 6D616D61 		.ascii	"mama\000"
 6504      00
 6505              	.LASF32:
 6506 011c 50686173 		.ascii	"Phase\000"
 6506      6500
 6507              	.LASF0:
 6508 0122 666C6F61 		.ascii	"float\000"
 6508      7400
 6509              	.LASF22:
 6510 0128 72616E64 		.ascii	"random_Offset\000"
 6510      6F6D5F4F 
 6510      66667365 
ARM GAS  C:\Users\HENRYA~1\AppData\Local\Temp\ccNfq1WN.s 			page 131


 6510      7400
 6511              	.LASF8:
 6512 0136 6C6F6E67 		.ascii	"long long unsigned int\000"
 6512      206C6F6E 
 6512      6720756E 
 6512      7369676E 
 6512      65642069 
 6513              	.LASF21:
 6514 014d 72616E64 		.ascii	"random_Fase\000"
 6514      6F6D5F46 
 6514      61736500 
 6515              	.LASF123:
 6516 0159 43414E5F 		.ascii	"CAN_SendMsg0\000"
 6516      53656E64 
 6516      4D736730 
 6516      00
 6517              	.LASF125:
 6518 0166 43414E5F 		.ascii	"CAN_SendMsg1\000"
 6518      53656E64 
 6518      4D736731 
 6518      00
 6519              	.LASF129:
 6520 0173 43414E5F 		.ascii	"CAN_SendMsg3\000"
 6520      53656E64 
 6520      4D736733 
 6520      00
 6521              	.LASF70:
 6522 0180 456A6563 		.ascii	"Ejecutar\000"
 6522      75746172 
 6522      00
 6523              	.LASF97:
 6524 0189 6F66665F 		.ascii	"off_aux_H_2\000"
 6524      6175785F 
 6524      485F3200 
 6525              	.LASF64:
 6526 0195 4D757461 		.ascii	"Mutacion\000"
 6526      63696F6E 
 6526      00
 6527              	.LASF140:
 6528 019e 433A5C55 		.ascii	"C:\\Users\\Henry Alberto\\Documents\\GitHub\\Psoc_M"
 6528      73657273 
 6528      5C48656E 
 6528      72792041 
 6528      6C626572 
 6529 01cc 6F64756C 		.ascii	"odular\\Optimization_Algorithms\\Genetic_Algorithm."
 6529      61725C4F 
 6529      7074696D 
 6529      697A6174 
 6529      696F6E5F 
 6530 01fd 63796473 		.ascii	"cydsn\000"
 6530      6E00
 6531              	.LASF133:
 6532 0203 54696D65 		.ascii	"Timer_Start\000"
 6532      725F5374 
 6532      61727400 
 6533              	.LASF105:
 6534 020f 6D6F7665 		.ascii	"move_s\000"
ARM GAS  C:\Users\HENRYA~1\AppData\Local\Temp\ccNfq1WN.s 			page 132


 6534      5F7300
 6535              	.LASF138:
 6536 0216 474E5520 		.ascii	"GNU C11 5.4.1 20160609 (release) [ARM/embedded-5-br"
 6536      43313120 
 6536      352E342E 
 6536      31203230 
 6536      31363036 
 6537 0249 616E6368 		.ascii	"anch revision 237715] -mcpu=cortex-m0 -mthumb -g -O"
 6537      20726576 
 6537      6973696F 
 6537      6E203233 
 6537      37373135 
 6538 027c 67202D66 		.ascii	"g -ffunction-sections -ffat-lto-objects\000"
 6538      66756E63 
 6538      74696F6E 
 6538      2D736563 
 6538      74696F6E 
 6539              	.LASF23:
 6540 02a4 6D6F7669 		.ascii	"movimiento\000"
 6540      6D69656E 
 6540      746F00
 6541              	.LASF106:
 6542 02af 696E6469 		.ascii	"individuo\000"
 6542      76696475 
 6542      6F00
 6543              	.LASF85:
 6544 02b9 4F666673 		.ascii	"Offset_H\000"
 6544      65745F48 
 6544      00
 6545              	.LASF55:
 6546 02c2 72657061 		.ascii	"reparacion\000"
 6546      72616369 
 6546      6F6E00
 6547              	.LASF86:
 6548 02cd 4F666673 		.ascii	"Offset_V\000"
 6548      65745F56 
 6548      00
 6549              	.LASF42:
 6550 02d6 76616C6F 		.ascii	"valores\000"
 6550      72657300 
 6551              	.LASF43:
 6552 02de 4E6F726D 		.ascii	"Normalizar\000"
 6552      616C697A 
 6552      617200
 6553              	.LASF25:
 6554 02e9 62797465 		.ascii	"byteh\000"
 6554      6800
 6555              	.LASF26:
 6556 02ef 62797465 		.ascii	"bytel\000"
 6556      6C00
 6557              	.LASF17:
 6558 02f5 72616E64 		.ascii	"randd\000"
 6558      6400
 6559              	.LASF57:
 6560 02fb 43727563 		.ascii	"Cruce\000"
 6560      6500
 6561              	.LASF107:
ARM GAS  C:\Users\HENRYA~1\AppData\Local\Temp\ccNfq1WN.s 			page 133


 6562 0301 496E6469 		.ascii	"Individuos\000"
 6562      76696475 
 6562      6F7300
 6563              	.LASF37:
 6564 030c 4F666673 		.ascii	"Offset_env\000"
 6564      65745F65 
 6564      6E7600
 6565              	.LASF48:
 6566 0317 45737065 		.ascii	"Espere\000"
 6566      726500
 6567              	.LASF31:
 6568 031e 416D706C 		.ascii	"Amplitud\000"
 6568      69747564 
 6568      00
 6569              	.LASF13:
 6570 0327 63686172 		.ascii	"char\000"
 6570      00
 6571              	.LASF63:
 6572 032c 6E65675F 		.ascii	"neg_alpha_1\000"
 6572      616C7068 
 6572      615F3100 
 6573              	.LASF141:
 6574 0338 52656369 		.ascii	"Recibe_Mail_2\000"
 6574      62655F4D 
 6574      61696C5F 
 6574      3200
 6575              	.LASF39:
 6576 0346 6461746F 		.ascii	"datoH\000"
 6576      4800
 6577              	.LASF38:
 6578 034c 6461746F 		.ascii	"datoL\000"
 6578      4C00
 6579              	.LASF84:
 6580 0352 416D706C 		.ascii	"Amplitud_V\000"
 6580      69747564 
 6580      5F5600
 6581              	.LASF124:
 6582 035d 43794465 		.ascii	"CyDelay\000"
 6582      6C617900 
 6583              	.LASF68:
 6584 0365 50726F62 		.ascii	"Prob_c\000"
 6584      5F6300
 6585              	.LASF114:
 6586 036c 436F6C75 		.ascii	"Columna\000"
 6586      6D6E6100 
 6587              	.LASF69:
 6588 0374 50726F62 		.ascii	"Prob_m\000"
 6588      5F6D00
 6589              	.LASF54:
 6590 037b 6C696D5F 		.ascii	"lim_sup\000"
 6590      73757000 
 6591              	.LASF44:
 6592 0383 56616C6F 		.ascii	"Valor_Maximo\000"
 6592      725F4D61 
 6592      78696D6F 
 6592      00
 6593              	.LASF36:
ARM GAS  C:\Users\HENRYA~1\AppData\Local\Temp\ccNfq1WN.s 			page 134


 6594 0390 50686173 		.ascii	"Phase_env\000"
 6594      655F656E 
 6594      7600
 6595              	.LASF112:
 6596 039a 4669746E 		.ascii	"Fitness_Normalizado\000"
 6596      6573735F 
 6596      4E6F726D 
 6596      616C697A 
 6596      61646F00 
 6597              	.LASF80:
 6598 03ae 63616E74 		.ascii	"cantidadM\000"
 6598      69646164 
 6598      4D00
 6599              	.LASF56:
 6600 03b8 4175785F 		.ascii	"Aux_ind\000"
 6600      696E6400 
 6601              	.LASF122:
 6602 03c0 72616E64 		.ascii	"rand\000"
 6602      00
 6603              	.LASF7:
 6604 03c5 6C6F6E67 		.ascii	"long long int\000"
 6604      206C6F6E 
 6604      6720696E 
 6604      7400
 6605              	.LASF19:
 6606 03d3 72616E64 		.ascii	"random_amplitud_1\000"
 6606      6F6D5F61 
 6606      6D706C69 
 6606      7475645F 
 6606      3100
 6607              	.LASF20:
 6608 03e5 72616E64 		.ascii	"random_amplitud_2\000"
 6608      6F6D5F61 
 6608      6D706C69 
 6608      7475645F 
 6608      3200
 6609              	.LASF24:
 6610 03f7 64697272 		.ascii	"dirr\000"
 6610      00
 6611              	.LASF115:
 6612 03fc 556D6272 		.ascii	"Umbral_Cruce\000"
 6612      616C5F43 
 6612      72756365 
 6612      00
 6613              	.LASF30:
 6614 0409 456E7669 		.ascii	"Enviar_Parametros\000"
 6614      61725F50 
 6614      6172616D 
 6614      6574726F 
 6614      7300
 6615              	.LASF111:
 6616 041b 4669746E 		.ascii	"Fitness_1\000"
 6616      6573735F 
 6616      3100
 6617              	.LASF49:
 6618 0425 53656C65 		.ascii	"Seleccion\000"
 6618      6363696F 
ARM GAS  C:\Users\HENRYA~1\AppData\Local\Temp\ccNfq1WN.s 			page 135


 6618      6E00
 6619              	.LASF28:
 6620 042f 64617461 		.ascii	"datas\000"
 6620      7300
 6621              	.LASF116:
 6622 0435 556D6272 		.ascii	"Umbral_Mutacion\000"
 6622      616C5F4D 
 6622      75746163 
 6622      696F6E00 
 6623              	.LASF100:
 6624 0445 64697374 		.ascii	"dist\000"
 6624      00
 6625              	.LASF65:
 6626 044a 53656C65 		.ascii	"Selector\000"
 6626      63746F72 
 6626      00
 6627              	.LASF74:
 6628 0453 6D61696C 		.ascii	"mailbox1\000"
 6628      626F7831 
 6628      00
 6629              	.LASF75:
 6630 045c 6D61696C 		.ascii	"mailbox2\000"
 6630      626F7832 
 6630      00
 6631              	.LASF14:
 6632 0465 6C6F6E67 		.ascii	"long double\000"
 6632      20646F75 
 6632      626C6500 
 6633              	.LASF108:
 6634 0471 506F626C 		.ascii	"Poblacion\000"
 6634      6163696F 
 6634      6E00
 6635              	.LASF52:
 6636 047b 6E756D65 		.ascii	"numero_comprobar\000"
 6636      726F5F63 
 6636      6F6D7072 
 6636      6F626172 
 6636      00
 6637              	.LASF119:
 6638 048c 696E6469 		.ascii	"indice\000"
 6638      636500
 6639              	.LASF93:
 6640 0493 616D706C 		.ascii	"ampli_aux_V_2\000"
 6640      695F6175 
 6640      785F565F 
 6640      3200
 6641              	.LASF61:
 6642 04a1 616C7068 		.ascii	"alpha_1\000"
 6642      615F3100 
 6643              	.LASF103:
 6644 04a9 70756E74 		.ascii	"punto_a\000"
 6644      6F5F6100 
 6645              	.LASF104:
 6646 04b1 70756E74 		.ascii	"punto_b\000"
 6646      6F5F6200 
 6647              	.LASF3:
 6648 04b9 73686F72 		.ascii	"short int\000"
ARM GAS  C:\Users\HENRYA~1\AppData\Local\Temp\ccNfq1WN.s 			page 136


 6648      7420696E 
 6648      7400
 6649              	.LASF5:
 6650 04c3 6C6F6E67 		.ascii	"long int\000"
 6650      20696E74 
 6650      00
 6651              	.LASF128:
 6652 04cc 43414E5F 		.ascii	"CAN_GlobalIntEnable\000"
 6652      476C6F62 
 6652      616C496E 
 6652      74456E61 
 6652      626C6500 
 6653              	.LASF67:
 6654 04e0 5265656D 		.ascii	"Reemplazo_Generacional\000"
 6654      706C617A 
 6654      6F5F4765 
 6654      6E657261 
 6654      63696F6E 
 6655              	.LASF99:
 6656 04f7 666C6167 		.ascii	"flag\000"
 6656      00
 6657              	.LASF130:
 6658 04fc 4C45445F 		.ascii	"LED_1_Write\000"
 6658      315F5772 
 6658      69746500 
 6659              	.LASF73:
 6660 0508 6D61696C 		.ascii	"mailbox0\000"
 6660      626F7830 
 6660      00
 6661              	.LASF121:
 6662 0511 53454E53 		.ascii	"SENSOR_U_GetChar\000"
 6662      4F525F55 
 6662      5F476574 
 6662      43686172 
 6662      00
 6663              	.LASF117:
 6664 0522 636F6E6D 		.ascii	"conmutador\000"
 6664      75746164 
 6664      6F7200
 6665              	.LASF29:
 6666 052d 436F6E74 		.ascii	"Conta3\000"
 6666      613300
 6667              	.LASF120:
 6668 0534 626F6C69 		.ascii	"bolita\000"
 6668      746100
 6669              	.LASF134:
 6670 053b 53454E53 		.ascii	"SENSOR_U_Start\000"
 6670      4F525F55 
 6670      5F537461 
 6670      727400
 6671              	.LASF98:
 6672 054a 5065736F 		.ascii	"Peso_Sensor\000"
 6672      5F53656E 
 6672      736F7200 
 6673              	.LASF113:
 6674 0556 46696C61 		.ascii	"Fila\000"
 6674      00
ARM GAS  C:\Users\HENRYA~1\AppData\Local\Temp\ccNfq1WN.s 			page 137


 6675              	.LASF15:
 6676 055b 73697A65 		.ascii	"sizetype\000"
 6676      74797065 
 6676      00
 6677              	.LASF6:
 6678 0564 6C6F6E67 		.ascii	"long unsigned int\000"
 6678      20756E73 
 6678      69676E65 
 6678      6420696E 
 6678      7400
 6679              	.LASF60:
 6680 0576 616C7068 		.ascii	"alpha\000"
 6680      6100
 6681              	.LASF47:
 6682 057c 52656369 		.ascii	"Recibe_mail_0\000"
 6682      62655F6D 
 6682      61696C5F 
 6682      3000
 6683              	.LASF79:
 6684 058a 636F6E74 		.ascii	"conta\000"
 6684      6100
 6685              	.LASF76:
 6686 0590 6461746F 		.ascii	"dato_enviado\000"
 6686      5F656E76 
 6686      6961646F 
 6686      00
 6687              	.LASF2:
 6688 059d 756E7369 		.ascii	"unsigned char\000"
 6688      676E6564 
 6688      20636861 
 6688      7200
 6689              	.LASF94:
 6690 05ab 6F66665F 		.ascii	"off_aux_V_2\000"
 6690      6175785F 
 6690      565F3200 
 6691              	.LASF50:
 6692 05b7 6D617869 		.ascii	"maximo\000"
 6692      6D6F00
 6693              	.LASF82:
 6694 05be 4D61785F 		.ascii	"Max_Conta\000"
 6694      436F6E74 
 6694      6100
 6695              	.LASF83:
 6696 05c8 416D706C 		.ascii	"Amplitud_H\000"
 6696      69747564 
 6696      5F4800
 6697              	.LASF110:
 6698 05d3 4669746E 		.ascii	"Fitness\000"
 6698      65737300 
 6699              	.LASF51:
 6700 05db 53617475 		.ascii	"Saturador\000"
 6700      7261646F 
 6700      7200
 6701              	.LASF40:
 6702 05e5 436F6E74 		.ascii	"Contador\000"
 6702      61646F72 
 6702      00
ARM GAS  C:\Users\HENRYA~1\AppData\Local\Temp\ccNfq1WN.s 			page 138


 6703              	.LASF46:
 6704 05ee 4576616C 		.ascii	"Evaluar_Fitness\000"
 6704      7561725F 
 6704      4669746E 
 6704      65737300 
 6705              	.LASF91:
 6706 05fe 6F66665F 		.ascii	"off_aux_H\000"
 6706      6175785F 
 6706      4800
 6707              	.LASF89:
 6708 0608 616D706C 		.ascii	"ampli_aux_H\000"
 6708      695F6175 
 6708      785F4800 
 6709              	.LASF126:
 6710 0614 43414E5F 		.ascii	"CAN_GlobalIntDisable\000"
 6710      476C6F62 
 6710      616C496E 
 6710      74446973 
 6710      61626C65 
 6711              	.LASF90:
 6712 0629 6F66665F 		.ascii	"off_aux_V\000"
 6712      6175785F 
 6712      5600
 6713              	.LASF88:
 6714 0633 616D706C 		.ascii	"ampli_aux_V\000"
 6714      695F6175 
 6714      785F5600 
 6715              	.LASF132:
 6716 063f 54696D65 		.ascii	"Timer_1_Start\000"
 6716      725F315F 
 6716      53746172 
 6716      7400
 6717              	.LASF35:
 6718 064d 416D705F 		.ascii	"Amp_env\000"
 6718      656E7600 
 6719              	.LASF1:
 6720 0655 7369676E 		.ascii	"signed char\000"
 6720      65642063 
 6720      68617200 
 6721              	.LASF34:
 6722 0661 4F726965 		.ascii	"Orientacion\000"
 6722      6E746163 
 6722      696F6E00 
 6723              	.LASF4:
 6724 066d 73686F72 		.ascii	"short unsigned int\000"
 6724      7420756E 
 6724      7369676E 
 6724      65642069 
 6724      6E7400
 6725              	.LASF18:
 6726 0680 72616E64 		.ascii	"random_gauss\000"
 6726      6F6D5F67 
 6726      61757373 
 6726      00
 6727              	.LASF72:
 6728 068d 6D61696E 		.ascii	"main\000"
 6728      00
ARM GAS  C:\Users\HENRYA~1\AppData\Local\Temp\ccNfq1WN.s 			page 139


 6729              	.LASF45:
 6730 0692 56616C6F 		.ascii	"Valor_Maximo_1\000"
 6730      725F4D61 
 6730      78696D6F 
 6730      5F3100
 6731              	.LASF10:
 6732 06a1 75696E74 		.ascii	"uint8\000"
 6732      3800
 6733              	.LASF12:
 6734 06a7 646F7562 		.ascii	"double\000"
 6734      6C6500
 6735              	.LASF131:
 6736 06ae 43414E5F 		.ascii	"CAN_Start\000"
 6736      53746172 
 6736      7400
 6737              	.LASF33:
 6738 06b8 4F666673 		.ascii	"Offset\000"
 6738      657400
 6739              	.LASF118:
 6740 06bf 70756E74 		.ascii	"puntero\000"
 6740      65726F00 
 6741              	.LASF127:
 6742 06c7 43414E5F 		.ascii	"CAN_MsgRXIsr\000"
 6742      4D736752 
 6742      58497372 
 6742      00
 6743              		.ident	"GCC: (GNU Tools for ARM Embedded Processors) 5.4.1 20160609 (release) [ARM/embedded-5-bran
