ARM GAS  C:\Users\HENRYA~1\AppData\Local\Temp\cclE7HzI.s 			page 1


   1              		.cpu cortex-m0
   2              		.fpu softvfp
   3              		.eabi_attribute 20, 1
   4              		.eabi_attribute 21, 1
   5              		.eabi_attribute 23, 3
   6              		.eabi_attribute 24, 1
   7              		.eabi_attribute 25, 1
   8              		.eabi_attribute 26, 1
   9              		.eabi_attribute 30, 1
  10              		.eabi_attribute 34, 0
  11              		.eabi_attribute 18, 4
  12              		.code	16
  13              		.file	"main.c"
  14              		.text
  15              	.Ltext0:
  16              		.cfi_sections	.debug_frame
  17              		.section	.text.LED,"ax",%progbits
  18              		.align	2
  19              		.global	LED
  20              		.code	16
  21              		.thumb_func
  22              		.type	LED, %function
  23              	LED:
  24              	.LFB36:
  25              		.file 1 "./AX12.h"
   1:./AX12.h      **** #include <DynamixelSerial1.h>
   2:./AX12.h      **** #include <project.h>
   3:./AX12.h      **** int8 Checksum;
   4:./AX12.h      **** //The functions are based on the arduino library
   5:./AX12.h      **** int LED(unsigned char ID, int Status){    
  26              		.loc 1 5 0
  27              		.cfi_startproc
  28              	.LVL0:
  29 0000 70B5     		push	{r4, r5, r6, lr}
  30              		.cfi_def_cfa_offset 16
  31              		.cfi_offset 4, -16
  32              		.cfi_offset 5, -12
  33              		.cfi_offset 6, -8
  34              		.cfi_offset 14, -4
  35 0002 041C     		mov	r4, r0
   6:./AX12.h      ****     //Checksum for verification data to send
   7:./AX12.h      ****     Checksum = (~(ID + AX_LED_LENGTH + AX_WRITE_DATA + AX_LED + Status))&0xFF;
  36              		.loc 1 7 0
  37 0004 CDB2     		uxtb	r5, r1
  38 0006 114E     		ldr	r6, .L2
  39 0008 2B18     		add	r3, r5, r0
  40 000a 2033     		add	r3, r3, #32
  41 000c DB43     		mvn	r3, r3
  42 000e 3370     		strb	r3, [r6]
   8:./AX12.h      ****     // Send Instructions over Serial
   9:./AX12.h      ****     MOTOR_PutChar(AX_START);              
  43              		.loc 1 9 0
  44 0010 FF20     		mov	r0, #255
  45              	.LVL1:
  46 0012 FFF7FEFF 		bl	MOTOR_PutChar
  47              	.LVL2:
  10:./AX12.h      ****     MOTOR_PutChar(AX_START);
ARM GAS  C:\Users\HENRYA~1\AppData\Local\Temp\cclE7HzI.s 			page 2


  48              		.loc 1 10 0
  49 0016 FF20     		mov	r0, #255
  50 0018 FFF7FEFF 		bl	MOTOR_PutChar
  51              	.LVL3:
  11:./AX12.h      ****     MOTOR_PutChar(ID);
  52              		.loc 1 11 0
  53 001c 201C     		mov	r0, r4
  54 001e FFF7FEFF 		bl	MOTOR_PutChar
  55              	.LVL4:
  12:./AX12.h      ****     MOTOR_PutChar(AX_LED_LENGTH);
  56              		.loc 1 12 0
  57 0022 0420     		mov	r0, #4
  58 0024 FFF7FEFF 		bl	MOTOR_PutChar
  59              	.LVL5:
  13:./AX12.h      ****     MOTOR_PutChar(AX_WRITE_DATA);
  60              		.loc 1 13 0
  61 0028 0320     		mov	r0, #3
  62 002a FFF7FEFF 		bl	MOTOR_PutChar
  63              	.LVL6:
  14:./AX12.h      ****     MOTOR_PutChar(AX_LED);
  64              		.loc 1 14 0
  65 002e 1920     		mov	r0, #25
  66 0030 FFF7FEFF 		bl	MOTOR_PutChar
  67              	.LVL7:
  15:./AX12.h      ****     MOTOR_PutChar(Status);
  68              		.loc 1 15 0
  69 0034 281C     		mov	r0, r5
  70 0036 FFF7FEFF 		bl	MOTOR_PutChar
  71              	.LVL8:
  16:./AX12.h      ****     MOTOR_PutChar(Checksum);
  72              		.loc 1 16 0
  73 003a 3078     		ldrb	r0, [r6]
  74 003c FFF7FEFF 		bl	MOTOR_PutChar
  75              	.LVL9:
  17:./AX12.h      ****     CyDelayUs(TX_DELAY_TIME);
  76              		.loc 1 17 0
  77 0040 C820     		mov	r0, #200
  78 0042 4000     		lsl	r0, r0, #1
  79 0044 FFF7FEFF 		bl	CyDelayUs
  80              	.LVL10:
  18:./AX12.h      ****     //Finish Function
  19:./AX12.h      ****     return 1;
  20:./AX12.h      **** }
  81              		.loc 1 20 0
  82 0048 0120     		mov	r0, #1
  83              		@ sp needed
  84 004a 70BD     		pop	{r4, r5, r6, pc}
  85              	.L3:
  86              		.align	2
  87              	.L2:
  88 004c 00000000 		.word	Checksum
  89              		.cfi_endproc
  90              	.LFE36:
  91              		.size	LED, .-LED
  92              		.section	.text.Move,"ax",%progbits
  93              		.align	2
  94              		.global	Move
ARM GAS  C:\Users\HENRYA~1\AppData\Local\Temp\cclE7HzI.s 			page 3


  95              		.code	16
  96              		.thumb_func
  97              		.type	Move, %function
  98              	Move:
  99              	.LFB37:
  21:./AX12.h      **** 
  22:./AX12.h      **** int Move(unsigned char ID, int Position){
 100              		.loc 1 22 0
 101              		.cfi_startproc
 102              	.LVL11:
 103 0000 F8B5     		push	{r3, r4, r5, r6, r7, lr}
 104              		.cfi_def_cfa_offset 24
 105              		.cfi_offset 3, -24
 106              		.cfi_offset 4, -20
 107              		.cfi_offset 5, -16
 108              		.cfi_offset 6, -12
 109              		.cfi_offset 7, -8
 110              		.cfi_offset 14, -4
 111 0002 041C     		mov	r4, r0
  23:./AX12.h      ****     char Position_H,Position_L;
  24:./AX12.h      ****     //Shift register 16 bits
  25:./AX12.h      ****     Position_H = Position >> 8;           
 112              		.loc 1 25 0
 113 0004 0E12     		asr	r6, r1, #8
 114 0006 F6B2     		uxtb	r6, r6
 115              	.LVL12:
  26:./AX12.h      ****     Position_L = Position;
 116              		.loc 1 26 0
 117 0008 CDB2     		uxtb	r5, r1
 118              	.LVL13:
  27:./AX12.h      **** 	Checksum = (~(ID + AX_GOAL_LENGTH + AX_WRITE_DATA + AX_GOAL_POSITION_L + Position_L + Position_H))
 119              		.loc 1 27 0
 120 000a 144F     		ldr	r7, .L5
 121 000c 4319     		add	r3, r0, r5
 122 000e F318     		add	r3, r6, r3
 123 0010 2633     		add	r3, r3, #38
 124 0012 DB43     		mvn	r3, r3
 125 0014 3B70     		strb	r3, [r7]
  28:./AX12.h      ****     // Send Instructions over Serial
  29:./AX12.h      ****     MOTOR_PutChar(AX_START);                 
 126              		.loc 1 29 0
 127 0016 FF20     		mov	r0, #255
 128              	.LVL14:
 129 0018 FFF7FEFF 		bl	MOTOR_PutChar
 130              	.LVL15:
  30:./AX12.h      ****     MOTOR_PutChar(AX_START);
 131              		.loc 1 30 0
 132 001c FF20     		mov	r0, #255
 133 001e FFF7FEFF 		bl	MOTOR_PutChar
 134              	.LVL16:
  31:./AX12.h      ****     MOTOR_PutChar(ID);
 135              		.loc 1 31 0
 136 0022 201C     		mov	r0, r4
 137 0024 FFF7FEFF 		bl	MOTOR_PutChar
 138              	.LVL17:
  32:./AX12.h      ****     MOTOR_PutChar(AX_GOAL_LENGTH);
 139              		.loc 1 32 0
ARM GAS  C:\Users\HENRYA~1\AppData\Local\Temp\cclE7HzI.s 			page 4


 140 0028 0520     		mov	r0, #5
 141 002a FFF7FEFF 		bl	MOTOR_PutChar
 142              	.LVL18:
  33:./AX12.h      ****     MOTOR_PutChar(AX_WRITE_DATA);
 143              		.loc 1 33 0
 144 002e 0320     		mov	r0, #3
 145 0030 FFF7FEFF 		bl	MOTOR_PutChar
 146              	.LVL19:
  34:./AX12.h      ****     MOTOR_PutChar(AX_GOAL_POSITION_L);
 147              		.loc 1 34 0
 148 0034 1E20     		mov	r0, #30
 149 0036 FFF7FEFF 		bl	MOTOR_PutChar
 150              	.LVL20:
  35:./AX12.h      ****     MOTOR_PutChar(Position_L);
 151              		.loc 1 35 0
 152 003a 281C     		mov	r0, r5
 153 003c FFF7FEFF 		bl	MOTOR_PutChar
 154              	.LVL21:
  36:./AX12.h      ****     MOTOR_PutChar(Position_H);
 155              		.loc 1 36 0
 156 0040 301C     		mov	r0, r6
 157 0042 FFF7FEFF 		bl	MOTOR_PutChar
 158              	.LVL22:
  37:./AX12.h      ****     MOTOR_PutChar(Checksum);
 159              		.loc 1 37 0
 160 0046 3878     		ldrb	r0, [r7]
 161 0048 FFF7FEFF 		bl	MOTOR_PutChar
 162              	.LVL23:
  38:./AX12.h      **** 	CyDelayUs(TX_DELAY_TIME);
 163              		.loc 1 38 0
 164 004c C820     		mov	r0, #200
 165 004e 4000     		lsl	r0, r0, #1
 166 0050 FFF7FEFF 		bl	CyDelayUs
 167              	.LVL24:
  39:./AX12.h      ****     // Return the read error
  40:./AX12.h      ****     return MOTOR_ReadRxData();                 
 168              		.loc 1 40 0
 169 0054 FFF7FEFF 		bl	MOTOR_ReadRxData
 170              	.LVL25:
  41:./AX12.h      **** }
 171              		.loc 1 41 0
 172              		@ sp needed
 173              	.LVL26:
 174              	.LVL27:
 175 0058 F8BD     		pop	{r3, r4, r5, r6, r7, pc}
 176              	.L6:
 177 005a C046     		.align	2
 178              	.L5:
 179 005c 00000000 		.word	Checksum
 180              		.cfi_endproc
 181              	.LFE37:
 182              		.size	Move, .-Move
 183              		.section	.text.setEndless,"ax",%progbits
 184              		.align	2
 185              		.global	setEndless
 186              		.code	16
 187              		.thumb_func
ARM GAS  C:\Users\HENRYA~1\AppData\Local\Temp\cclE7HzI.s 			page 5


 188              		.type	setEndless, %function
 189              	setEndless:
 190              	.LFB38:
  42:./AX12.h      **** 
  43:./AX12.h      **** int setEndless(unsigned char ID, int Status){
 191              		.loc 1 43 0
 192              		.cfi_startproc
 193              	.LVL28:
 194 0000 38B5     		push	{r3, r4, r5, lr}
 195              		.cfi_def_cfa_offset 16
 196              		.cfi_offset 3, -16
 197              		.cfi_offset 4, -12
 198              		.cfi_offset 5, -8
 199              		.cfi_offset 14, -4
 200 0002 041C     		mov	r4, r0
  44:./AX12.h      ****     if (Status){	
 201              		.loc 1 44 0
 202 0004 0029     		cmp	r1, #0
 203 0006 26D0     		beq	.L8
 204              	.LVL29:
 205              	.LBB2:
  45:./AX12.h      ****     char AX_CCW_AL_LT = 0;     
  46:./AX12.h      ****     // Changing the CCW Angle Limits for Full Rotation.
  47:./AX12.h      **** 	Checksum = (~(ID + AX_GOAL_LENGTH + AX_WRITE_DATA + AX_CCW_ANGLE_LIMIT_L))&0xFF;
 206              		.loc 1 47 0
 207 0008 264D     		ldr	r5, .L10
 208 000a 031C     		mov	r3, r0
 209 000c 1033     		add	r3, r3, #16
 210 000e DB43     		mvn	r3, r3
 211 0010 2B70     		strb	r3, [r5]
  48:./AX12.h      ****     // Send Instructions over Serial
  49:./AX12.h      ****     //Checksum for verification data to send
  50:./AX12.h      ****     MOTOR_PutChar(AX_START);                
 212              		.loc 1 50 0
 213 0012 FF20     		mov	r0, #255
 214              	.LVL30:
 215 0014 FFF7FEFF 		bl	MOTOR_PutChar
 216              	.LVL31:
  51:./AX12.h      ****     MOTOR_PutChar(AX_START);
 217              		.loc 1 51 0
 218 0018 FF20     		mov	r0, #255
 219 001a FFF7FEFF 		bl	MOTOR_PutChar
 220              	.LVL32:
  52:./AX12.h      ****     MOTOR_PutChar(ID);
 221              		.loc 1 52 0
 222 001e 201C     		mov	r0, r4
 223 0020 FFF7FEFF 		bl	MOTOR_PutChar
 224              	.LVL33:
  53:./AX12.h      ****     MOTOR_PutChar(AX_GOAL_LENGTH);
 225              		.loc 1 53 0
 226 0024 0520     		mov	r0, #5
 227 0026 FFF7FEFF 		bl	MOTOR_PutChar
 228              	.LVL34:
  54:./AX12.h      ****     MOTOR_PutChar(AX_WRITE_DATA);
 229              		.loc 1 54 0
 230 002a 0320     		mov	r0, #3
 231 002c FFF7FEFF 		bl	MOTOR_PutChar
ARM GAS  C:\Users\HENRYA~1\AppData\Local\Temp\cclE7HzI.s 			page 6


 232              	.LVL35:
  55:./AX12.h      ****     MOTOR_PutChar(AX_CCW_ANGLE_LIMIT_L );
 233              		.loc 1 55 0
 234 0030 0820     		mov	r0, #8
 235 0032 FFF7FEFF 		bl	MOTOR_PutChar
 236              	.LVL36:
  56:./AX12.h      ****     MOTOR_PutChar(AX_CCW_AL_LT);
 237              		.loc 1 56 0
 238 0036 0020     		mov	r0, #0
 239 0038 FFF7FEFF 		bl	MOTOR_PutChar
 240              	.LVL37:
  57:./AX12.h      ****     MOTOR_PutChar(AX_CCW_AL_LT);
 241              		.loc 1 57 0
 242 003c 0020     		mov	r0, #0
 243 003e FFF7FEFF 		bl	MOTOR_PutChar
 244              	.LVL38:
  58:./AX12.h      ****     MOTOR_PutChar(Checksum);
 245              		.loc 1 58 0
 246 0042 2878     		ldrb	r0, [r5]
 247 0044 FFF7FEFF 		bl	MOTOR_PutChar
 248              	.LVL39:
  59:./AX12.h      ****     CyDelayUs(TX_DELAY_TIME);
 249              		.loc 1 59 0
 250 0048 C820     		mov	r0, #200
 251 004a 4000     		lsl	r0, r0, #1
 252 004c FFF7FEFF 		bl	CyDelayUs
 253              	.LVL40:
  60:./AX12.h      **** 	return MOTOR_ReadRxData(); 
 254              		.loc 1 60 0
 255 0050 FFF7FEFF 		bl	MOTOR_ReadRxData
 256              	.LVL41:
 257 0054 25E0     		b	.L9
 258              	.LVL42:
 259              	.L8:
 260              	.LBE2:
  61:./AX12.h      ****  }
  62:./AX12.h      ****  else{
  63:./AX12.h      **** 	Checksum = (~(ID + AX_GOAL_LENGTH + AX_WRITE_DATA + AX_CCW_ANGLE_LIMIT_L + AX_CCW_AL_L + AX_CCW_AL
 261              		.loc 1 63 0
 262 0056 134D     		ldr	r5, .L10
 263 0058 031C     		mov	r3, r0
 264 005a 1233     		add	r3, r3, #18
 265 005c DB43     		mvn	r3, r3
 266 005e 2B70     		strb	r3, [r5]
  64:./AX12.h      ****     // Send Instructions over Serial
  65:./AX12.h      ****     //Checksum for verification data to send
  66:./AX12.h      **** 	MOTOR_PutChar(AX_START);                 
 267              		.loc 1 66 0
 268 0060 FF20     		mov	r0, #255
 269              	.LVL43:
 270 0062 FFF7FEFF 		bl	MOTOR_PutChar
 271              	.LVL44:
  67:./AX12.h      **** 	MOTOR_PutChar(AX_START);
 272              		.loc 1 67 0
 273 0066 FF20     		mov	r0, #255
 274 0068 FFF7FEFF 		bl	MOTOR_PutChar
 275              	.LVL45:
ARM GAS  C:\Users\HENRYA~1\AppData\Local\Temp\cclE7HzI.s 			page 7


  68:./AX12.h      **** 	MOTOR_PutChar(ID);
 276              		.loc 1 68 0
 277 006c 201C     		mov	r0, r4
 278 006e FFF7FEFF 		bl	MOTOR_PutChar
 279              	.LVL46:
  69:./AX12.h      **** 	MOTOR_PutChar(AX_GOAL_LENGTH);
 280              		.loc 1 69 0
 281 0072 0520     		mov	r0, #5
 282 0074 FFF7FEFF 		bl	MOTOR_PutChar
 283              	.LVL47:
  70:./AX12.h      **** 	MOTOR_PutChar(AX_WRITE_DATA);
 284              		.loc 1 70 0
 285 0078 0320     		mov	r0, #3
 286 007a FFF7FEFF 		bl	MOTOR_PutChar
 287              	.LVL48:
  71:./AX12.h      **** 	MOTOR_PutChar(AX_CCW_ANGLE_LIMIT_L);
 288              		.loc 1 71 0
 289 007e 0820     		mov	r0, #8
 290 0080 FFF7FEFF 		bl	MOTOR_PutChar
 291              	.LVL49:
  72:./AX12.h      **** 	MOTOR_PutChar(AX_CCW_AL_L);
 292              		.loc 1 72 0
 293 0084 FF20     		mov	r0, #255
 294 0086 FFF7FEFF 		bl	MOTOR_PutChar
 295              	.LVL50:
  73:./AX12.h      **** 	MOTOR_PutChar(AX_CCW_AL_H);
 296              		.loc 1 73 0
 297 008a 0320     		mov	r0, #3
 298 008c FFF7FEFF 		bl	MOTOR_PutChar
 299              	.LVL51:
  74:./AX12.h      **** 	MOTOR_PutChar(Checksum);
 300              		.loc 1 74 0
 301 0090 2878     		ldrb	r0, [r5]
 302 0092 FFF7FEFF 		bl	MOTOR_PutChar
 303              	.LVL52:
  75:./AX12.h      **** 	CyDelayUs(TX_DELAY_TIME);
 304              		.loc 1 75 0
 305 0096 C820     		mov	r0, #200
 306 0098 4000     		lsl	r0, r0, #1
 307 009a FFF7FEFF 		bl	CyDelayUs
 308              	.LVL53:
  76:./AX12.h      ****     // Return the read error
  77:./AX12.h      **** 	return MOTOR_ReadRxData();                 
 309              		.loc 1 77 0
 310 009e FFF7FEFF 		bl	MOTOR_ReadRxData
 311              	.LVL54:
 312              	.L9:
  78:./AX12.h      ****   }
  79:./AX12.h      ****  } 
 313              		.loc 1 79 0
 314              		@ sp needed
 315 00a2 38BD     		pop	{r3, r4, r5, pc}
 316              	.L11:
 317              		.align	2
 318              	.L10:
 319 00a4 00000000 		.word	Checksum
 320              		.cfi_endproc
ARM GAS  C:\Users\HENRYA~1\AppData\Local\Temp\cclE7HzI.s 			page 8


 321              	.LFE38:
 322              		.size	setEndless, .-setEndless
 323              		.section	.text.torqueStatus,"ax",%progbits
 324              		.align	2
 325              		.global	torqueStatus
 326              		.code	16
 327              		.thumb_func
 328              		.type	torqueStatus, %function
 329              	torqueStatus:
 330              	.LFB39:
  80:./AX12.h      **** 
  81:./AX12.h      **** int torqueStatus( unsigned char ID, int Status){
 331              		.loc 1 81 0
 332              		.cfi_startproc
 333              	.LVL55:
 334 0000 70B5     		push	{r4, r5, r6, lr}
 335              		.cfi_def_cfa_offset 16
 336              		.cfi_offset 4, -16
 337              		.cfi_offset 5, -12
 338              		.cfi_offset 6, -8
 339              		.cfi_offset 14, -4
 340 0002 041C     		mov	r4, r0
  82:./AX12.h      ****     Checksum = (~(ID + AX_TORQUE_LENGTH + AX_WRITE_DATA + AX_TORQUE_ENABLE + Status))&0xFF;
 341              		.loc 1 82 0
 342 0004 CDB2     		uxtb	r5, r1
 343 0006 124E     		ldr	r6, .L13
 344 0008 2B18     		add	r3, r5, r0
 345 000a 1F33     		add	r3, r3, #31
 346 000c DB43     		mvn	r3, r3
 347 000e 3370     		strb	r3, [r6]
  83:./AX12.h      ****     // Send Instructions over Serial
  84:./AX12.h      ****     //Checksum for verification data to send
  85:./AX12.h      ****     MOTOR_PutChar(AX_START); 
 348              		.loc 1 85 0
 349 0010 FF20     		mov	r0, #255
 350              	.LVL56:
 351 0012 FFF7FEFF 		bl	MOTOR_PutChar
 352              	.LVL57:
  86:./AX12.h      ****     MOTOR_PutChar(AX_START);
 353              		.loc 1 86 0
 354 0016 FF20     		mov	r0, #255
 355 0018 FFF7FEFF 		bl	MOTOR_PutChar
 356              	.LVL58:
  87:./AX12.h      ****     MOTOR_PutChar(ID);
 357              		.loc 1 87 0
 358 001c 201C     		mov	r0, r4
 359 001e FFF7FEFF 		bl	MOTOR_PutChar
 360              	.LVL59:
  88:./AX12.h      ****     MOTOR_PutChar(AX_TORQUE_LENGTH);
 361              		.loc 1 88 0
 362 0022 0420     		mov	r0, #4
 363 0024 FFF7FEFF 		bl	MOTOR_PutChar
 364              	.LVL60:
  89:./AX12.h      ****     MOTOR_PutChar(AX_WRITE_DATA);
 365              		.loc 1 89 0
 366 0028 0320     		mov	r0, #3
 367 002a FFF7FEFF 		bl	MOTOR_PutChar
ARM GAS  C:\Users\HENRYA~1\AppData\Local\Temp\cclE7HzI.s 			page 9


 368              	.LVL61:
  90:./AX12.h      ****     MOTOR_PutChar(AX_TORQUE_ENABLE);
 369              		.loc 1 90 0
 370 002e 1820     		mov	r0, #24
 371 0030 FFF7FEFF 		bl	MOTOR_PutChar
 372              	.LVL62:
  91:./AX12.h      ****     MOTOR_PutChar(Status);
 373              		.loc 1 91 0
 374 0034 281C     		mov	r0, r5
 375 0036 FFF7FEFF 		bl	MOTOR_PutChar
 376              	.LVL63:
  92:./AX12.h      ****     MOTOR_PutChar(Checksum);
 377              		.loc 1 92 0
 378 003a 3078     		ldrb	r0, [r6]
 379 003c FFF7FEFF 		bl	MOTOR_PutChar
 380              	.LVL64:
  93:./AX12.h      ****     CyDelayUs(TX_DELAY_TIME);
 381              		.loc 1 93 0
 382 0040 C820     		mov	r0, #200
 383 0042 4000     		lsl	r0, r0, #1
 384 0044 FFF7FEFF 		bl	CyDelayUs
 385              	.LVL65:
  94:./AX12.h      ****     // Return the read error
  95:./AX12.h      ****     return MOTOR_ReadRxData();               
 386              		.loc 1 95 0
 387 0048 FFF7FEFF 		bl	MOTOR_ReadRxData
 388              	.LVL66:
  96:./AX12.h      **** }
 389              		.loc 1 96 0
 390              		@ sp needed
 391 004c 70BD     		pop	{r4, r5, r6, pc}
 392              	.L14:
 393 004e C046     		.align	2
 394              	.L13:
 395 0050 00000000 		.word	Checksum
 396              		.cfi_endproc
 397              	.LFE39:
 398              		.size	torqueStatus, .-torqueStatus
 399              		.section	.text.MoveSpeed,"ax",%progbits
 400              		.align	2
 401              		.global	MoveSpeed
 402              		.code	16
 403              		.thumb_func
 404              		.type	MoveSpeed, %function
 405              	MoveSpeed:
 406              	.LFB40:
  97:./AX12.h      **** 
  98:./AX12.h      **** int MoveSpeed(unsigned char ID, int Position, int Speed){
 407              		.loc 1 98 0
 408              		.cfi_startproc
 409              	.LVL67:
 410 0000 F0B5     		push	{r4, r5, r6, r7, lr}
 411              		.cfi_def_cfa_offset 20
 412              		.cfi_offset 4, -20
 413              		.cfi_offset 5, -16
 414              		.cfi_offset 6, -12
 415              		.cfi_offset 7, -8
ARM GAS  C:\Users\HENRYA~1\AppData\Local\Temp\cclE7HzI.s 			page 10


 416              		.cfi_offset 14, -4
 417 0002 4746     		mov	r7, r8
 418 0004 80B4     		push	{r7}
 419              		.cfi_def_cfa_offset 24
 420              		.cfi_offset 8, -24
 421 0006 82B0     		sub	sp, sp, #8
 422              		.cfi_def_cfa_offset 32
  99:./AX12.h      ****     char Position_H,Position_L,Speed_H,Speed_L;
 100:./AX12.h      ****     //Shift register 16 bits
 101:./AX12.h      ****     Position_H = Position >> 8;    
 423              		.loc 1 101 0
 424 0008 0B12     		asr	r3, r1, #8
 425 000a DBB2     		uxtb	r3, r3
 426 000c 9846     		mov	r8, r3
 427              	.LVL68:
 102:./AX12.h      ****     Position_L = Position;                
 428              		.loc 1 102 0
 429 000e CEB2     		uxtb	r6, r1
 430              	.LVL69:
 103:./AX12.h      ****     //Shift register 16 bits
 104:./AX12.h      ****     Speed_H = Speed >> 8;
 431              		.loc 1 104 0
 432 0010 1712     		asr	r7, r2, #8
 433 0012 FFB2     		uxtb	r7, r7
 434              	.LVL70:
 105:./AX12.h      ****     Speed_L = Speed;        
 435              		.loc 1 105 0
 436 0014 D4B2     		uxtb	r4, r2
 437              	.LVL71:
 106:./AX12.h      ****     //Checksum for verification data to send
 107:./AX12.h      **** 	Checksum = (~(ID + AX_GOAL_SP_LENGTH + AX_WRITE_DATA + AX_GOAL_POSITION_L + Position_L + Position_
 438              		.loc 1 107 0
 439 0016 1A4D     		ldr	r5, .L16
 440 0018 0190     		str	r0, [sp, #4]
 441 001a 8319     		add	r3, r0, r6
 442 001c 4344     		add	r3, r3, r8
 443 001e E318     		add	r3, r4, r3
 444 0020 FB18     		add	r3, r7, r3
 445 0022 2833     		add	r3, r3, #40
 446 0024 DB43     		mvn	r3, r3
 447 0026 2B70     		strb	r3, [r5]
 108:./AX12.h      ****     // Send Instructions over Serial
 109:./AX12.h      ****     MOTOR_PutChar(AX_START);
 448              		.loc 1 109 0
 449 0028 FF20     		mov	r0, #255
 450              	.LVL72:
 451 002a FFF7FEFF 		bl	MOTOR_PutChar
 452              	.LVL73:
 110:./AX12.h      ****     MOTOR_PutChar(AX_START);
 453              		.loc 1 110 0
 454 002e FF20     		mov	r0, #255
 455 0030 FFF7FEFF 		bl	MOTOR_PutChar
 456              	.LVL74:
 111:./AX12.h      ****     MOTOR_PutChar(ID);
 457              		.loc 1 111 0
 458 0034 0198     		ldr	r0, [sp, #4]
 459 0036 FFF7FEFF 		bl	MOTOR_PutChar
ARM GAS  C:\Users\HENRYA~1\AppData\Local\Temp\cclE7HzI.s 			page 11


 460              	.LVL75:
 112:./AX12.h      ****     MOTOR_PutChar(AX_GOAL_SP_LENGTH);
 461              		.loc 1 112 0
 462 003a 0720     		mov	r0, #7
 463 003c FFF7FEFF 		bl	MOTOR_PutChar
 464              	.LVL76:
 113:./AX12.h      ****     MOTOR_PutChar(AX_WRITE_DATA);
 465              		.loc 1 113 0
 466 0040 0320     		mov	r0, #3
 467 0042 FFF7FEFF 		bl	MOTOR_PutChar
 468              	.LVL77:
 114:./AX12.h      ****     MOTOR_PutChar(AX_GOAL_POSITION_L);
 469              		.loc 1 114 0
 470 0046 1E20     		mov	r0, #30
 471 0048 FFF7FEFF 		bl	MOTOR_PutChar
 472              	.LVL78:
 115:./AX12.h      ****     MOTOR_PutChar(Position_L);
 473              		.loc 1 115 0
 474 004c 301C     		mov	r0, r6
 475 004e FFF7FEFF 		bl	MOTOR_PutChar
 476              	.LVL79:
 116:./AX12.h      ****     MOTOR_PutChar(Position_H);
 477              		.loc 1 116 0
 478 0052 4046     		mov	r0, r8
 479 0054 FFF7FEFF 		bl	MOTOR_PutChar
 480              	.LVL80:
 117:./AX12.h      ****     MOTOR_PutChar(Speed_L);
 481              		.loc 1 117 0
 482 0058 201C     		mov	r0, r4
 483 005a FFF7FEFF 		bl	MOTOR_PutChar
 484              	.LVL81:
 118:./AX12.h      ****     MOTOR_PutChar(Speed_H);
 485              		.loc 1 118 0
 486 005e 381C     		mov	r0, r7
 487 0060 FFF7FEFF 		bl	MOTOR_PutChar
 488              	.LVL82:
 119:./AX12.h      ****     MOTOR_PutChar(Checksum);
 489              		.loc 1 119 0
 490 0064 2878     		ldrb	r0, [r5]
 491 0066 FFF7FEFF 		bl	MOTOR_PutChar
 492              	.LVL83:
 120:./AX12.h      ****     CyDelayUs(TX_DELAY_TIME);
 493              		.loc 1 120 0
 494 006a C820     		mov	r0, #200
 495 006c 4000     		lsl	r0, r0, #1
 496 006e FFF7FEFF 		bl	CyDelayUs
 497              	.LVL84:
 121:./AX12.h      ****     // Return the read error
 122:./AX12.h      ****     return MOTOR_ReadRxData();                
 498              		.loc 1 122 0
 499 0072 FFF7FEFF 		bl	MOTOR_ReadRxData
 500              	.LVL85:
 123:./AX12.h      **** }
 501              		.loc 1 123 0
 502 0076 02B0     		add	sp, sp, #8
 503              		@ sp needed
 504              	.LVL86:
ARM GAS  C:\Users\HENRYA~1\AppData\Local\Temp\cclE7HzI.s 			page 12


 505              	.LVL87:
 506              	.LVL88:
 507              	.LVL89:
 508 0078 04BC     		pop	{r2}
 509 007a 9046     		mov	r8, r2
 510 007c F0BD     		pop	{r4, r5, r6, r7, pc}
 511              	.L17:
 512 007e C046     		.align	2
 513              	.L16:
 514 0080 00000000 		.word	Checksum
 515              		.cfi_endproc
 516              	.LFE40:
 517              		.size	MoveSpeed, .-MoveSpeed
 518              		.section	.text.moveRW,"ax",%progbits
 519              		.align	2
 520              		.global	moveRW
 521              		.code	16
 522              		.thumb_func
 523              		.type	moveRW, %function
 524              	moveRW:
 525              	.LFB41:
 124:./AX12.h      **** 
 125:./AX12.h      **** int moveRW(unsigned char ID, int Position){
 526              		.loc 1 125 0
 527              		.cfi_startproc
 528              	.LVL90:
 529 0000 F8B5     		push	{r3, r4, r5, r6, r7, lr}
 530              		.cfi_def_cfa_offset 24
 531              		.cfi_offset 3, -24
 532              		.cfi_offset 4, -20
 533              		.cfi_offset 5, -16
 534              		.cfi_offset 6, -12
 535              		.cfi_offset 7, -8
 536              		.cfi_offset 14, -4
 537 0002 041C     		mov	r4, r0
 126:./AX12.h      ****     char Position_H,Position_L;
 127:./AX12.h      ****     //Shift register 16 bits
 128:./AX12.h      ****     Position_H = Position >> 8;           
 538              		.loc 1 128 0
 539 0004 0E12     		asr	r6, r1, #8
 540 0006 F6B2     		uxtb	r6, r6
 541              	.LVL91:
 129:./AX12.h      ****     Position_L = Position;
 542              		.loc 1 129 0
 543 0008 CDB2     		uxtb	r5, r1
 544              	.LVL92:
 130:./AX12.h      ****     //Checksum for verification data to send
 131:./AX12.h      ****     Checksum = (~(ID + AX_GOAL_LENGTH + AX_REG_WRITE + AX_GOAL_POSITION_L + Position_L + Position_H
 545              		.loc 1 131 0
 546 000a 144F     		ldr	r7, .L19
 547 000c 4319     		add	r3, r0, r5
 548 000e F318     		add	r3, r6, r3
 549 0010 2733     		add	r3, r3, #39
 550 0012 DB43     		mvn	r3, r3
 551 0014 3B70     		strb	r3, [r7]
 132:./AX12.h      ****     // Send Instructions over Serial
 133:./AX12.h      ****     MOTOR_PutChar(AX_START); 
ARM GAS  C:\Users\HENRYA~1\AppData\Local\Temp\cclE7HzI.s 			page 13


 552              		.loc 1 133 0
 553 0016 FF20     		mov	r0, #255
 554              	.LVL93:
 555 0018 FFF7FEFF 		bl	MOTOR_PutChar
 556              	.LVL94:
 134:./AX12.h      ****     MOTOR_PutChar(AX_START);
 557              		.loc 1 134 0
 558 001c FF20     		mov	r0, #255
 559 001e FFF7FEFF 		bl	MOTOR_PutChar
 560              	.LVL95:
 135:./AX12.h      ****     MOTOR_PutChar(ID);
 561              		.loc 1 135 0
 562 0022 201C     		mov	r0, r4
 563 0024 FFF7FEFF 		bl	MOTOR_PutChar
 564              	.LVL96:
 136:./AX12.h      ****     MOTOR_PutChar(AX_GOAL_LENGTH);
 565              		.loc 1 136 0
 566 0028 0520     		mov	r0, #5
 567 002a FFF7FEFF 		bl	MOTOR_PutChar
 568              	.LVL97:
 137:./AX12.h      ****     MOTOR_PutChar(AX_REG_WRITE);
 569              		.loc 1 137 0
 570 002e 0420     		mov	r0, #4
 571 0030 FFF7FEFF 		bl	MOTOR_PutChar
 572              	.LVL98:
 138:./AX12.h      ****     MOTOR_PutChar(AX_GOAL_POSITION_L);
 573              		.loc 1 138 0
 574 0034 1E20     		mov	r0, #30
 575 0036 FFF7FEFF 		bl	MOTOR_PutChar
 576              	.LVL99:
 139:./AX12.h      ****     MOTOR_PutChar(Position_L);
 577              		.loc 1 139 0
 578 003a 281C     		mov	r0, r5
 579 003c FFF7FEFF 		bl	MOTOR_PutChar
 580              	.LVL100:
 140:./AX12.h      ****     MOTOR_PutChar(Position_H);
 581              		.loc 1 140 0
 582 0040 301C     		mov	r0, r6
 583 0042 FFF7FEFF 		bl	MOTOR_PutChar
 584              	.LVL101:
 141:./AX12.h      ****     MOTOR_PutChar(Checksum);
 585              		.loc 1 141 0
 586 0046 3878     		ldrb	r0, [r7]
 587 0048 FFF7FEFF 		bl	MOTOR_PutChar
 588              	.LVL102:
 142:./AX12.h      **** 	CyDelayUs(TX_DELAY_TIME);
 589              		.loc 1 142 0
 590 004c C820     		mov	r0, #200
 591 004e 4000     		lsl	r0, r0, #1
 592 0050 FFF7FEFF 		bl	CyDelayUs
 593              	.LVL103:
 143:./AX12.h      ****     // Return the read error
 144:./AX12.h      ****     return MOTOR_ReadRxData();                  
 594              		.loc 1 144 0
 595 0054 FFF7FEFF 		bl	MOTOR_ReadRxData
 596              	.LVL104:
 145:./AX12.h      **** }
ARM GAS  C:\Users\HENRYA~1\AppData\Local\Temp\cclE7HzI.s 			page 14


 597              		.loc 1 145 0
 598              		@ sp needed
 599              	.LVL105:
 600              	.LVL106:
 601 0058 F8BD     		pop	{r3, r4, r5, r6, r7, pc}
 602              	.L20:
 603 005a C046     		.align	2
 604              	.L19:
 605 005c 00000000 		.word	Checksum
 606              		.cfi_endproc
 607              	.LFE41:
 608              		.size	moveRW, .-moveRW
 609              		.section	.text.action,"ax",%progbits
 610              		.align	2
 611              		.global	action
 612              		.code	16
 613              		.thumb_func
 614              		.type	action, %function
 615              	action:
 616              	.LFB42:
 146:./AX12.h      **** 
 147:./AX12.h      **** void action(){
 617              		.loc 1 147 0
 618              		.cfi_startproc
 619 0000 08B5     		push	{r3, lr}
 620              		.cfi_def_cfa_offset 8
 621              		.cfi_offset 3, -8
 622              		.cfi_offset 14, -4
 148:./AX12.h      **** 	// Send Instructions over Serial
 149:./AX12.h      ****     MOTOR_PutChar(AX_START);                
 623              		.loc 1 149 0
 624 0002 FF20     		mov	r0, #255
 625 0004 FFF7FEFF 		bl	MOTOR_PutChar
 626              	.LVL107:
 150:./AX12.h      ****     MOTOR_PutChar(AX_START);
 627              		.loc 1 150 0
 628 0008 FF20     		mov	r0, #255
 629 000a FFF7FEFF 		bl	MOTOR_PutChar
 630              	.LVL108:
 151:./AX12.h      ****     MOTOR_PutChar(BROADCAST_ID);
 631              		.loc 1 151 0
 632 000e FE20     		mov	r0, #254
 633 0010 FFF7FEFF 		bl	MOTOR_PutChar
 634              	.LVL109:
 152:./AX12.h      ****     MOTOR_PutChar(AX_ACTION_LENGTH);
 635              		.loc 1 152 0
 636 0014 0220     		mov	r0, #2
 637 0016 FFF7FEFF 		bl	MOTOR_PutChar
 638              	.LVL110:
 153:./AX12.h      ****     MOTOR_PutChar(AX_ACTION);
 639              		.loc 1 153 0
 640 001a 0520     		mov	r0, #5
 641 001c FFF7FEFF 		bl	MOTOR_PutChar
 642              	.LVL111:
 154:./AX12.h      ****     MOTOR_PutChar(AX_ACTION_CHECKSUM);
 643              		.loc 1 154 0
 644 0020 FA20     		mov	r0, #250
ARM GAS  C:\Users\HENRYA~1\AppData\Local\Temp\cclE7HzI.s 			page 15


 645 0022 FFF7FEFF 		bl	MOTOR_PutChar
 646              	.LVL112:
 155:./AX12.h      **** 	CyDelayUs(TX_DELAY_TIME);
 647              		.loc 1 155 0
 648 0026 C820     		mov	r0, #200
 649 0028 4000     		lsl	r0, r0, #1
 650 002a FFF7FEFF 		bl	CyDelayUs
 651              	.LVL113:
 156:./AX12.h      **** }
 652              		.loc 1 156 0
 653              		@ sp needed
 654 002e 08BD     		pop	{r3, pc}
 655              		.cfi_endproc
 656              	.LFE42:
 657              		.size	action, .-action
 658              		.section	.text.turn,"ax",%progbits
 659              		.align	2
 660              		.global	turn
 661              		.code	16
 662              		.thumb_func
 663              		.type	turn, %function
 664              	turn:
 665              	.LFB43:
 157:./AX12.h      **** 
 158:./AX12.h      **** int turn(unsigned char ID, int SIDE, int Speed){		
 666              		.loc 1 158 0
 667              		.cfi_startproc
 668              	.LVL114:
 669 0000 F8B5     		push	{r3, r4, r5, r6, r7, lr}
 670              		.cfi_def_cfa_offset 24
 671              		.cfi_offset 3, -24
 672              		.cfi_offset 4, -20
 673              		.cfi_offset 5, -16
 674              		.cfi_offset 6, -12
 675              		.cfi_offset 7, -8
 676              		.cfi_offset 14, -4
 677 0002 051C     		mov	r5, r0
 159:./AX12.h      **** 		if (SIDE == 0){                          
 678              		.loc 1 159 0
 679 0004 0029     		cmp	r1, #0
 680 0006 2AD1     		bne	.L23
 681              	.LBB3:
 160:./AX12.h      **** 			//Left Move
 161:./AX12.h      **** 			char Speed_H,Speed_L;
 162:./AX12.h      ****             //Shift register 16 bits
 163:./AX12.h      **** 			Speed_H = Speed >> 8;
 682              		.loc 1 163 0
 683 0008 1612     		asr	r6, r2, #8
 684 000a F6B2     		uxtb	r6, r6
 685              	.LVL115:
 164:./AX12.h      **** 			Speed_L = Speed;        
 686              		.loc 1 164 0
 687 000c D4B2     		uxtb	r4, r2
 688              	.LVL116:
 165:./AX12.h      ****             //Checksum for verification data to send
 166:./AX12.h      **** 			Checksum = (~(ID + AX_SPEED_LENGTH + AX_WRITE_DATA + AX_GOAL_SPEED_L + Speed_L + Speed_H))&0xFF;
 689              		.loc 1 166 0
ARM GAS  C:\Users\HENRYA~1\AppData\Local\Temp\cclE7HzI.s 			page 16


 690 000e 2A4F     		ldr	r7, .L25
 691 0010 0319     		add	r3, r0, r4
 692 0012 F318     		add	r3, r6, r3
 693 0014 2833     		add	r3, r3, #40
 694 0016 DB43     		mvn	r3, r3
 695 0018 3B70     		strb	r3, [r7]
 167:./AX12.h      **** 		    // Send Instructions over Serial
 168:./AX12.h      **** 			MOTOR_PutChar(AX_START);                
 696              		.loc 1 168 0
 697 001a FF20     		mov	r0, #255
 698              	.LVL117:
 699 001c FFF7FEFF 		bl	MOTOR_PutChar
 700              	.LVL118:
 169:./AX12.h      **** 			MOTOR_PutChar(AX_START);
 701              		.loc 1 169 0
 702 0020 FF20     		mov	r0, #255
 703 0022 FFF7FEFF 		bl	MOTOR_PutChar
 704              	.LVL119:
 170:./AX12.h      **** 			MOTOR_PutChar(ID);
 705              		.loc 1 170 0
 706 0026 281C     		mov	r0, r5
 707 0028 FFF7FEFF 		bl	MOTOR_PutChar
 708              	.LVL120:
 171:./AX12.h      **** 			MOTOR_PutChar(AX_SPEED_LENGTH);
 709              		.loc 1 171 0
 710 002c 0520     		mov	r0, #5
 711 002e FFF7FEFF 		bl	MOTOR_PutChar
 712              	.LVL121:
 172:./AX12.h      **** 			MOTOR_PutChar(AX_WRITE_DATA);
 713              		.loc 1 172 0
 714 0032 0320     		mov	r0, #3
 715 0034 FFF7FEFF 		bl	MOTOR_PutChar
 716              	.LVL122:
 173:./AX12.h      **** 			MOTOR_PutChar(AX_GOAL_SPEED_L);
 717              		.loc 1 173 0
 718 0038 2020     		mov	r0, #32
 719 003a FFF7FEFF 		bl	MOTOR_PutChar
 720              	.LVL123:
 174:./AX12.h      **** 			MOTOR_PutChar(Speed_L);
 721              		.loc 1 174 0
 722 003e 201C     		mov	r0, r4
 723 0040 FFF7FEFF 		bl	MOTOR_PutChar
 724              	.LVL124:
 175:./AX12.h      **** 			MOTOR_PutChar(Speed_H);
 725              		.loc 1 175 0
 726 0044 301C     		mov	r0, r6
 727 0046 FFF7FEFF 		bl	MOTOR_PutChar
 728              	.LVL125:
 176:./AX12.h      **** 			MOTOR_PutChar(Checksum);
 729              		.loc 1 176 0
 730 004a 3878     		ldrb	r0, [r7]
 731 004c FFF7FEFF 		bl	MOTOR_PutChar
 732              	.LVL126:
 177:./AX12.h      **** 			CyDelayUs(TX_DELAY_TIME);
 733              		.loc 1 177 0
 734 0050 C820     		mov	r0, #200
 735 0052 4000     		lsl	r0, r0, #1
ARM GAS  C:\Users\HENRYA~1\AppData\Local\Temp\cclE7HzI.s 			page 17


 736 0054 FFF7FEFF 		bl	CyDelayUs
 737              	.LVL127:
 178:./AX12.h      **** 			// Return the read error	
 179:./AX12.h      **** 			return MOTOR_ReadRxData();                	
 738              		.loc 1 179 0
 739 0058 FFF7FEFF 		bl	MOTOR_ReadRxData
 740              	.LVL128:
 741 005c 2AE0     		b	.L24
 742              	.LVL129:
 743              	.L23:
 744              	.LBE3:
 745              	.LBB4:
 180:./AX12.h      **** 		}
 181:./AX12.h      **** 		else
 182:./AX12.h      **** 		{                                            
 183:./AX12.h      ****             // Rigth Move
 184:./AX12.h      **** 			char Speed_H,Speed_L;
 185:./AX12.h      ****             //Shift register 16 bits
 186:./AX12.h      **** 			Speed_H = (Speed >> 8) + 4;
 746              		.loc 1 186 0
 747 005e 1612     		asr	r6, r2, #8
 748 0060 0436     		add	r6, r6, #4
 749 0062 F6B2     		uxtb	r6, r6
 750              	.LVL130:
 187:./AX12.h      **** 			Speed_L = Speed;              
 751              		.loc 1 187 0
 752 0064 D4B2     		uxtb	r4, r2
 753              	.LVL131:
 188:./AX12.h      ****             //Checksum for verification data to send
 189:./AX12.h      **** 			Checksum = (~(ID + AX_SPEED_LENGTH + AX_WRITE_DATA + AX_GOAL_SPEED_L + Speed_L + Speed_H))&0xFF;
 754              		.loc 1 189 0
 755 0066 144F     		ldr	r7, .L25
 756 0068 0319     		add	r3, r0, r4
 757 006a F318     		add	r3, r6, r3
 758 006c 2833     		add	r3, r3, #40
 759 006e DB43     		mvn	r3, r3
 760 0070 3B70     		strb	r3, [r7]
 190:./AX12.h      **** 			// Send Instructions over Serial
 191:./AX12.h      **** 			MOTOR_PutChar(AX_START);                
 761              		.loc 1 191 0
 762 0072 FF20     		mov	r0, #255
 763              	.LVL132:
 764 0074 FFF7FEFF 		bl	MOTOR_PutChar
 765              	.LVL133:
 192:./AX12.h      **** 			MOTOR_PutChar(AX_START);
 766              		.loc 1 192 0
 767 0078 FF20     		mov	r0, #255
 768 007a FFF7FEFF 		bl	MOTOR_PutChar
 769              	.LVL134:
 193:./AX12.h      **** 			MOTOR_PutChar(ID);
 770              		.loc 1 193 0
 771 007e 281C     		mov	r0, r5
 772 0080 FFF7FEFF 		bl	MOTOR_PutChar
 773              	.LVL135:
 194:./AX12.h      **** 			MOTOR_PutChar(AX_SPEED_LENGTH);
 774              		.loc 1 194 0
 775 0084 0520     		mov	r0, #5
ARM GAS  C:\Users\HENRYA~1\AppData\Local\Temp\cclE7HzI.s 			page 18


 776 0086 FFF7FEFF 		bl	MOTOR_PutChar
 777              	.LVL136:
 195:./AX12.h      **** 			MOTOR_PutChar(AX_WRITE_DATA);
 778              		.loc 1 195 0
 779 008a 0320     		mov	r0, #3
 780 008c FFF7FEFF 		bl	MOTOR_PutChar
 781              	.LVL137:
 196:./AX12.h      **** 			MOTOR_PutChar(AX_GOAL_SPEED_L);
 782              		.loc 1 196 0
 783 0090 2020     		mov	r0, #32
 784 0092 FFF7FEFF 		bl	MOTOR_PutChar
 785              	.LVL138:
 197:./AX12.h      **** 			MOTOR_PutChar(Speed_L);
 786              		.loc 1 197 0
 787 0096 201C     		mov	r0, r4
 788 0098 FFF7FEFF 		bl	MOTOR_PutChar
 789              	.LVL139:
 198:./AX12.h      **** 			MOTOR_PutChar(Speed_H);
 790              		.loc 1 198 0
 791 009c 301C     		mov	r0, r6
 792 009e FFF7FEFF 		bl	MOTOR_PutChar
 793              	.LVL140:
 199:./AX12.h      **** 			MOTOR_PutChar(Checksum);
 794              		.loc 1 199 0
 795 00a2 3878     		ldrb	r0, [r7]
 796 00a4 FFF7FEFF 		bl	MOTOR_PutChar
 797              	.LVL141:
 200:./AX12.h      **** 			CyDelayUs(TX_DELAY_TIME);
 798              		.loc 1 200 0
 799 00a8 C820     		mov	r0, #200
 800 00aa 4000     		lsl	r0, r0, #1
 801 00ac FFF7FEFF 		bl	CyDelayUs
 802              	.LVL142:
 201:./AX12.h      **** 			// Return the read error			
 202:./AX12.h      **** 			return MOTOR_ReadRxData();                	
 803              		.loc 1 202 0
 804 00b0 FFF7FEFF 		bl	MOTOR_ReadRxData
 805              	.LVL143:
 806              	.L24:
 807              	.LBE4:
 203:./AX12.h      **** 		}
 204:./AX12.h      **** }
 808              		.loc 1 204 0
 809              		@ sp needed
 810 00b4 F8BD     		pop	{r3, r4, r5, r6, r7, pc}
 811              	.L26:
 812 00b6 C046     		.align	2
 813              	.L25:
 814 00b8 00000000 		.word	Checksum
 815              		.cfi_endproc
 816              	.LFE43:
 817              		.size	turn, .-turn
 818              		.section	.text.writeVCNL_1,"ax",%progbits
 819              		.align	2
 820              		.global	writeVCNL_1
 821              		.code	16
 822              		.thumb_func
ARM GAS  C:\Users\HENRYA~1\AppData\Local\Temp\cclE7HzI.s 			page 19


 823              		.type	writeVCNL_1, %function
 824              	writeVCNL_1:
 825              	.LFB44:
 826              		.file 2 "./VCNL4010_1.h"
   1:./VCNL4010_1.h **** #include <project.h>
   2:./VCNL4010_1.h **** #define VCNL4010_ADDRESS 0x13
   3:./VCNL4010_1.h **** int i=0;
   4:./VCNL4010_1.h **** //Send Data
   5:./VCNL4010_1.h **** void writeVCNL_1(int address, int data){
 827              		.loc 2 5 0
 828              		.cfi_startproc
 829              	.LVL144:
 830 0000 00B5     		push	{lr}
 831              		.cfi_def_cfa_offset 4
 832              		.cfi_offset 14, -4
 833 0002 83B0     		sub	sp, sp, #12
 834              		.cfi_def_cfa_offset 16
   6:./VCNL4010_1.h ****     uint8 Write_buf[2]={0};
 835              		.loc 2 6 0
 836 0004 01AB     		add	r3, sp, #4
   7:./VCNL4010_1.h ****     Write_buf[0]=address;
 837              		.loc 2 7 0
 838 0006 1870     		strb	r0, [r3]
   8:./VCNL4010_1.h ****     Write_buf[1]=data;
 839              		.loc 2 8 0
 840 0008 5970     		strb	r1, [r3, #1]
   9:./VCNL4010_1.h ****     SENSOR_1_I2CMasterWriteBuf(VCNL4010_ADDRESS,(uint8 *)Write_buf,2,SENSOR_1_I2C_MODE_COMPLETE_XFE
 841              		.loc 2 9 0
 842 000a 1320     		mov	r0, #19
 843              	.LVL145:
 844 000c 191C     		mov	r1, r3
 845              	.LVL146:
 846 000e 0222     		mov	r2, #2
 847 0010 0023     		mov	r3, #0
 848 0012 FFF7FEFF 		bl	SENSOR_1_I2CMasterWriteBuf
 849              	.LVL147:
 850              	.L28:
  10:./VCNL4010_1.h ****     while((SENSOR_1_I2CMasterStatus()&SENSOR_1_I2C_MSTAT_WR_CMPLT)==0){}
 851              		.loc 2 10 0 discriminator 1
 852 0016 FFF7FEFF 		bl	SENSOR_1_I2CMasterStatus
 853              	.LVL148:
 854 001a 8307     		lsl	r3, r0, #30
 855 001c FBD5     		bpl	.L28
  11:./VCNL4010_1.h ****     return;
  12:./VCNL4010_1.h **** }
 856              		.loc 2 12 0
 857 001e 03B0     		add	sp, sp, #12
 858              		@ sp needed
 859 0020 00BD     		pop	{pc}
 860              		.cfi_endproc
 861              	.LFE44:
 862              		.size	writeVCNL_1, .-writeVCNL_1
 863 0022 C046     		.section	.text.readVCNL_1,"ax",%progbits
 864              		.align	2
 865              		.global	readVCNL_1
 866              		.code	16
 867              		.thumb_func
ARM GAS  C:\Users\HENRYA~1\AppData\Local\Temp\cclE7HzI.s 			page 20


 868              		.type	readVCNL_1, %function
 869              	readVCNL_1:
 870              	.LFB45:
  13:./VCNL4010_1.h **** //Read Data
  14:./VCNL4010_1.h **** int readVCNL_1(int address){
 871              		.loc 2 14 0
 872              		.cfi_startproc
 873              	.LVL149:
 874 0000 00B5     		push	{lr}
 875              		.cfi_def_cfa_offset 4
 876              		.cfi_offset 14, -4
 877 0002 83B0     		sub	sp, sp, #12
 878              		.cfi_def_cfa_offset 16
  15:./VCNL4010_1.h ****     uint8 Write_buf[1]={0};
 879              		.loc 2 15 0
 880 0004 01A9     		add	r1, sp, #4
  16:./VCNL4010_1.h ****     Write_buf[0]=address;
 881              		.loc 2 16 0
 882 0006 0870     		strb	r0, [r1]
  17:./VCNL4010_1.h ****     uint8 read_Buf[1]={0};
 883              		.loc 2 17 0
 884 0008 0023     		mov	r3, #0
 885 000a 6A46     		mov	r2, sp
 886 000c 1370     		strb	r3, [r2]
  18:./VCNL4010_1.h ****     SENSOR_1_I2CMasterWriteBuf(VCNL4010_ADDRESS,(uint8 *)Write_buf,1,SENSOR_1_I2C_MODE_NO_STOP);
 887              		.loc 2 18 0
 888 000e 1320     		mov	r0, #19
 889              	.LVL150:
 890 0010 0122     		mov	r2, #1
 891 0012 0233     		add	r3, r3, #2
 892 0014 FFF7FEFF 		bl	SENSOR_1_I2CMasterWriteBuf
 893              	.LVL151:
 894              	.L30:
  19:./VCNL4010_1.h ****     while((SENSOR_1_I2CMasterStatus()&SENSOR_1_I2C_MSTAT_WR_CMPLT)==0){}
 895              		.loc 2 19 0 discriminator 1
 896 0018 FFF7FEFF 		bl	SENSOR_1_I2CMasterStatus
 897              	.LVL152:
 898 001c 8307     		lsl	r3, r0, #30
 899 001e FBD5     		bpl	.L30
  20:./VCNL4010_1.h ****     SENSOR_1_I2CMasterReadBuf(VCNL4010_ADDRESS,(uint8 *)read_Buf,1,SENSOR_1_I2C_MODE_REPEAT_START);
 900              		.loc 2 20 0
 901 0020 1320     		mov	r0, #19
 902 0022 6946     		mov	r1, sp
 903 0024 0122     		mov	r2, #1
 904 0026 0123     		mov	r3, #1
 905 0028 FFF7FEFF 		bl	SENSOR_1_I2CMasterReadBuf
 906              	.LVL153:
 907              	.L31:
  21:./VCNL4010_1.h ****     while((SENSOR_1_I2CMasterStatus()&SENSOR_1_I2C_MSTAT_RD_CMPLT)==0){}
 908              		.loc 2 21 0 discriminator 1
 909 002c FFF7FEFF 		bl	SENSOR_1_I2CMasterStatus
 910              	.LVL154:
 911 0030 C307     		lsl	r3, r0, #31
 912 0032 FBD5     		bpl	.L31
  22:./VCNL4010_1.h ****     return read_Buf[0];
 913              		.loc 2 22 0
 914 0034 6B46     		mov	r3, sp
ARM GAS  C:\Users\HENRYA~1\AppData\Local\Temp\cclE7HzI.s 			page 21


 915 0036 1878     		ldrb	r0, [r3]
  23:./VCNL4010_1.h **** }
 916              		.loc 2 23 0
 917 0038 03B0     		add	sp, sp, #12
 918              		@ sp needed
 919 003a 00BD     		pop	{pc}
 920              		.cfi_endproc
 921              	.LFE45:
 922              		.size	readVCNL_1, .-readVCNL_1
 923              		.section	.text.initVCNL_1,"ax",%progbits
 924              		.align	2
 925              		.global	initVCNL_1
 926              		.code	16
 927              		.thumb_func
 928              		.type	initVCNL_1, %function
 929              	initVCNL_1:
 930              	.LFB46:
  24:./VCNL4010_1.h **** //Init Sensor
  25:./VCNL4010_1.h **** void initVCNL_1(){
 931              		.loc 2 25 0
 932              		.cfi_startproc
 933 0000 10B5     		push	{r4, lr}
 934              		.cfi_def_cfa_offset 8
 935              		.cfi_offset 4, -8
 936              		.cfi_offset 14, -4
  26:./VCNL4010_1.h ****   int temp = readVCNL_1(0x81);
 937              		.loc 2 26 0
 938 0002 8120     		mov	r0, #129
 939 0004 FFF7FEFF 		bl	readVCNL_1
 940              	.LVL155:
  27:./VCNL4010_1.h ****   if (temp != 0x21){  
 941              		.loc 2 27 0
 942 0008 2128     		cmp	r0, #33
 943 000a 0ED0     		beq	.L33
  28:./VCNL4010_1.h ****     //Led Sequence Fail
  29:./VCNL4010_1.h ****     LED_1_Write(1);
 944              		.loc 2 29 0
 945 000c 0120     		mov	r0, #1
 946              	.LVL156:
 947 000e FFF7FEFF 		bl	LED_1_Write
 948              	.LVL157:
  30:./VCNL4010_1.h ****     CyDelay(500);
 949              		.loc 2 30 0
 950 0012 FA24     		mov	r4, #250
 951 0014 6400     		lsl	r4, r4, #1
 952 0016 201C     		mov	r0, r4
 953 0018 FFF7FEFF 		bl	CyDelay
 954              	.LVL158:
  31:./VCNL4010_1.h ****     LED_1_Write(0);
 955              		.loc 2 31 0
 956 001c 0020     		mov	r0, #0
 957 001e FFF7FEFF 		bl	LED_1_Write
 958              	.LVL159:
  32:./VCNL4010_1.h ****     CyDelay(500);    
 959              		.loc 2 32 0
 960 0022 201C     		mov	r0, r4
 961 0024 FFF7FEFF 		bl	CyDelay
ARM GAS  C:\Users\HENRYA~1\AppData\Local\Temp\cclE7HzI.s 			page 22


 962              	.LVL160:
 963 0028 1DE0     		b	.L34
 964              	.LVL161:
 965              	.L33:
  33:./VCNL4010_1.h ****   }
  34:./VCNL4010_1.h ****    else{
  35:./VCNL4010_1.h ****     //Led Sequence Sucess
  36:./VCNL4010_1.h ****     LED_1_Write(0);
 966              		.loc 2 36 0
 967 002a 0020     		mov	r0, #0
 968              	.LVL162:
 969 002c FFF7FEFF 		bl	LED_1_Write
 970              	.LVL163:
  37:./VCNL4010_1.h ****     for(i=1;i<5;i++){
 971              		.loc 2 37 0
 972 0030 0122     		mov	r2, #1
 973 0032 154B     		ldr	r3, .L37
 974 0034 1A60     		str	r2, [r3]
 975 0036 0FE0     		b	.L35
 976              	.L36:
  38:./VCNL4010_1.h ****         LED_1_Write(1);
 977              		.loc 2 38 0 discriminator 3
 978 0038 0120     		mov	r0, #1
 979 003a FFF7FEFF 		bl	LED_1_Write
 980              	.LVL164:
  39:./VCNL4010_1.h ****         CyDelay(200);
 981              		.loc 2 39 0 discriminator 3
 982 003e C820     		mov	r0, #200
 983 0040 FFF7FEFF 		bl	CyDelay
 984              	.LVL165:
  40:./VCNL4010_1.h ****         LED_1_Write(0);
 985              		.loc 2 40 0 discriminator 3
 986 0044 0020     		mov	r0, #0
 987 0046 FFF7FEFF 		bl	LED_1_Write
 988              	.LVL166:
  41:./VCNL4010_1.h ****         CyDelay(200); 
 989              		.loc 2 41 0 discriminator 3
 990 004a C820     		mov	r0, #200
 991 004c FFF7FEFF 		bl	CyDelay
 992              	.LVL167:
  37:./VCNL4010_1.h ****         LED_1_Write(1);
 993              		.loc 2 37 0 discriminator 3
 994 0050 0D4A     		ldr	r2, .L37
 995 0052 1368     		ldr	r3, [r2]
 996 0054 0133     		add	r3, r3, #1
 997 0056 1360     		str	r3, [r2]
 998              	.L35:
  37:./VCNL4010_1.h ****         LED_1_Write(1);
 999              		.loc 2 37 0 is_stmt 0 discriminator 1
 1000 0058 0B4B     		ldr	r3, .L37
 1001 005a 1B68     		ldr	r3, [r3]
 1002 005c 042B     		cmp	r3, #4
 1003 005e EBDD     		ble	.L36
  42:./VCNL4010_1.h ****         }
  43:./VCNL4010_1.h ****     LED_1_Write(0);
 1004              		.loc 2 43 0 is_stmt 1
 1005 0060 0020     		mov	r0, #0
ARM GAS  C:\Users\HENRYA~1\AppData\Local\Temp\cclE7HzI.s 			page 23


 1006 0062 FFF7FEFF 		bl	LED_1_Write
 1007              	.LVL168:
 1008              	.L34:
  44:./VCNL4010_1.h ****   } 
  45:./VCNL4010_1.h ****   //VCNL Init Params
  46:./VCNL4010_1.h ****   writeVCNL_1(0x84, 0x0F); // Configures ambient light measures - Single conversion mode, 128 avera
 1009              		.loc 2 46 0
 1010 0066 8420     		mov	r0, #132
 1011 0068 0F21     		mov	r1, #15
 1012 006a FFF7FEFF 		bl	writeVCNL_1
 1013              	.LVL169:
  47:./VCNL4010_1.h ****   writeVCNL_1(0x83, 20);   // sets IR current in steps of 10mA 0-200mA --> 200mA
 1014              		.loc 2 47 0
 1015 006e 8320     		mov	r0, #131
 1016 0070 1421     		mov	r1, #20
 1017 0072 FFF7FEFF 		bl	writeVCNL_1
 1018              	.LVL170:
  48:./VCNL4010_1.h ****   writeVCNL_1(0x89, 0);    // Proximity IR test signal freq, 0-3 - 781.25 kHz
 1019              		.loc 2 48 0
 1020 0076 8920     		mov	r0, #137
 1021 0078 0021     		mov	r1, #0
 1022 007a FFF7FEFF 		bl	writeVCNL_1
 1023              	.LVL171:
  49:./VCNL4010_1.h ****   writeVCNL_1(0x8A, 0x81); // proximity modulator timing - 129, recommended by Vishay 
 1024              		.loc 2 49 0
 1025 007e 8A20     		mov	r0, #138
 1026 0080 8121     		mov	r1, #129
 1027 0082 FFF7FEFF 		bl	writeVCNL_1
 1028              	.LVL172:
  50:./VCNL4010_1.h **** }
 1029              		.loc 2 50 0
 1030              		@ sp needed
 1031 0086 10BD     		pop	{r4, pc}
 1032              	.L38:
 1033              		.align	2
 1034              	.L37:
 1035 0088 00000000 		.word	.LANCHOR0
 1036              		.cfi_endproc
 1037              	.LFE46:
 1038              		.size	initVCNL_1, .-initVCNL_1
 1039              		.section	.text.readProximity_1,"ax",%progbits
 1040              		.align	2
 1041              		.global	readProximity_1
 1042              		.code	16
 1043              		.thumb_func
 1044              		.type	readProximity_1, %function
 1045              	readProximity_1:
 1046              	.LFB47:
  51:./VCNL4010_1.h **** //Read Distance Signal
  52:./VCNL4010_1.h **** unsigned int readProximity_1(){
 1047              		.loc 2 52 0
 1048              		.cfi_startproc
 1049 0000 10B5     		push	{r4, lr}
 1050              		.cfi_def_cfa_offset 8
 1051              		.cfi_offset 4, -8
 1052              		.cfi_offset 14, -4
  53:./VCNL4010_1.h ****   int temp = readVCNL_1(0x80);
ARM GAS  C:\Users\HENRYA~1\AppData\Local\Temp\cclE7HzI.s 			page 24


 1053              		.loc 2 53 0
 1054 0002 8020     		mov	r0, #128
 1055 0004 FFF7FEFF 		bl	readVCNL_1
 1056              	.LVL173:
  54:./VCNL4010_1.h ****   writeVCNL_1(0x80, temp | 0x08);             // command the sensor to perform a proximity measure
 1057              		.loc 2 54 0
 1058 0008 0823     		mov	r3, #8
 1059 000a 011C     		mov	r1, r0
 1060 000c 1943     		orr	r1, r3
 1061 000e 8020     		mov	r0, #128
 1062              	.LVL174:
 1063 0010 FFF7FEFF 		bl	writeVCNL_1
 1064              	.LVL175:
 1065              	.L40:
  55:./VCNL4010_1.h ****   while(!(readVCNL_1(0x80)&0x20));            // Wait for the proximity data ready bit to be set
 1066              		.loc 2 55 0 discriminator 1
 1067 0014 8020     		mov	r0, #128
 1068 0016 FFF7FEFF 		bl	readVCNL_1
 1069              	.LVL176:
 1070 001a 8306     		lsl	r3, r0, #26
 1071 001c FAD5     		bpl	.L40
  56:./VCNL4010_1.h ****   unsigned int data = readVCNL_1(0x87) << 8;
 1072              		.loc 2 56 0
 1073 001e 8720     		mov	r0, #135
 1074 0020 FFF7FEFF 		bl	readVCNL_1
 1075              	.LVL177:
 1076 0024 0402     		lsl	r4, r0, #8
 1077              	.LVL178:
  57:./VCNL4010_1.h ****   data |= readVCNL_1(0x88);
 1078              		.loc 2 57 0
 1079 0026 8820     		mov	r0, #136
 1080 0028 FFF7FEFF 		bl	readVCNL_1
 1081              	.LVL179:
 1082 002c 2043     		orr	r0, r4
 1083              	.LVL180:
  58:./VCNL4010_1.h ****   return data;
  59:./VCNL4010_1.h **** }
 1084              		.loc 2 59 0
 1085              		@ sp needed
 1086 002e 10BD     		pop	{r4, pc}
 1087              		.cfi_endproc
 1088              	.LFE47:
 1089              		.size	readProximity_1, .-readProximity_1
 1090              		.section	.text.readAmbient_1,"ax",%progbits
 1091              		.align	2
 1092              		.global	readAmbient_1
 1093              		.code	16
 1094              		.thumb_func
 1095              		.type	readAmbient_1, %function
 1096              	readAmbient_1:
 1097              	.LFB48:
  60:./VCNL4010_1.h **** //Read Ambient Signal
  61:./VCNL4010_1.h **** unsigned int readAmbient_1(){
 1098              		.loc 2 61 0
 1099              		.cfi_startproc
 1100 0000 10B5     		push	{r4, lr}
 1101              		.cfi_def_cfa_offset 8
ARM GAS  C:\Users\HENRYA~1\AppData\Local\Temp\cclE7HzI.s 			page 25


 1102              		.cfi_offset 4, -8
 1103              		.cfi_offset 14, -4
  62:./VCNL4010_1.h ****   int temp = readVCNL_1(0x80);
 1104              		.loc 2 62 0
 1105 0002 8020     		mov	r0, #128
 1106 0004 FFF7FEFF 		bl	readVCNL_1
 1107              	.LVL181:
  63:./VCNL4010_1.h ****   writeVCNL_1(0x80, temp | 0x10);             // command the sensor to perform ambient measure
 1108              		.loc 2 63 0
 1109 0008 1023     		mov	r3, #16
 1110 000a 011C     		mov	r1, r0
 1111 000c 1943     		orr	r1, r3
 1112 000e 8020     		mov	r0, #128
 1113              	.LVL182:
 1114 0010 FFF7FEFF 		bl	writeVCNL_1
 1115              	.LVL183:
 1116              	.L42:
  64:./VCNL4010_1.h ****   while(!(readVCNL_1(0x80)&0x40));            // wait for the proximity data ready bit to be set
 1117              		.loc 2 64 0 discriminator 1
 1118 0014 8020     		mov	r0, #128
 1119 0016 FFF7FEFF 		bl	readVCNL_1
 1120              	.LVL184:
 1121 001a 4306     		lsl	r3, r0, #25
 1122 001c FAD5     		bpl	.L42
  65:./VCNL4010_1.h ****   unsigned int data = readVCNL_1(0x85) << 8;  
 1123              		.loc 2 65 0
 1124 001e 8520     		mov	r0, #133
 1125 0020 FFF7FEFF 		bl	readVCNL_1
 1126              	.LVL185:
 1127 0024 0402     		lsl	r4, r0, #8
 1128              	.LVL186:
  66:./VCNL4010_1.h ****   data |= readVCNL_1(0x86);
 1129              		.loc 2 66 0
 1130 0026 8620     		mov	r0, #134
 1131 0028 FFF7FEFF 		bl	readVCNL_1
 1132              	.LVL187:
 1133 002c 2043     		orr	r0, r4
 1134              	.LVL188:
  67:./VCNL4010_1.h ****   return data;
  68:./VCNL4010_1.h **** }
 1135              		.loc 2 68 0
 1136              		@ sp needed
 1137 002e 10BD     		pop	{r4, pc}
 1138              		.cfi_endproc
 1139              	.LFE48:
 1140              		.size	readAmbient_1, .-readAmbient_1
 1141              		.section	.text.writeVCNL_2,"ax",%progbits
 1142              		.align	2
 1143              		.global	writeVCNL_2
 1144              		.code	16
 1145              		.thumb_func
 1146              		.type	writeVCNL_2, %function
 1147              	writeVCNL_2:
 1148              	.LFB49:
 1149              		.file 3 "./VCNL4010_2.h"
   1:./VCNL4010_2.h **** #include <project.h>
   2:./VCNL4010_2.h **** #define VCNL4010_ADDRESS 0x13
ARM GAS  C:\Users\HENRYA~1\AppData\Local\Temp\cclE7HzI.s 			page 26


   3:./VCNL4010_2.h **** 
   4:./VCNL4010_2.h **** int ii=0;
   5:./VCNL4010_2.h **** //Send Data
   6:./VCNL4010_2.h **** void writeVCNL_2(int address, int data){
 1150              		.loc 3 6 0
 1151              		.cfi_startproc
 1152              	.LVL189:
 1153 0000 00B5     		push	{lr}
 1154              		.cfi_def_cfa_offset 4
 1155              		.cfi_offset 14, -4
 1156 0002 83B0     		sub	sp, sp, #12
 1157              		.cfi_def_cfa_offset 16
   7:./VCNL4010_2.h ****     uint8 Write_buf[2]={0};
 1158              		.loc 3 7 0
 1159 0004 01AB     		add	r3, sp, #4
   8:./VCNL4010_2.h ****     Write_buf[0]=address;
 1160              		.loc 3 8 0
 1161 0006 1870     		strb	r0, [r3]
   9:./VCNL4010_2.h ****     Write_buf[1]=data;
 1162              		.loc 3 9 0
 1163 0008 5970     		strb	r1, [r3, #1]
  10:./VCNL4010_2.h ****     SENSOR_2_I2CMasterWriteBuf(VCNL4010_ADDRESS,(uint8 *)Write_buf,2,SENSOR_2_I2C_MODE_COMPLETE_XFE
 1164              		.loc 3 10 0
 1165 000a 1320     		mov	r0, #19
 1166              	.LVL190:
 1167 000c 191C     		mov	r1, r3
 1168              	.LVL191:
 1169 000e 0222     		mov	r2, #2
 1170 0010 0023     		mov	r3, #0
 1171 0012 FFF7FEFF 		bl	SENSOR_2_I2CMasterWriteBuf
 1172              	.LVL192:
 1173              	.L44:
  11:./VCNL4010_2.h ****     while((SENSOR_2_I2CMasterStatus()&SENSOR_2_I2C_MSTAT_WR_CMPLT)==0){}
 1174              		.loc 3 11 0 discriminator 1
 1175 0016 FFF7FEFF 		bl	SENSOR_2_I2CMasterStatus
 1176              	.LVL193:
 1177 001a 8307     		lsl	r3, r0, #30
 1178 001c FBD5     		bpl	.L44
  12:./VCNL4010_2.h ****     return;
  13:./VCNL4010_2.h **** }
 1179              		.loc 3 13 0
 1180 001e 03B0     		add	sp, sp, #12
 1181              		@ sp needed
 1182 0020 00BD     		pop	{pc}
 1183              		.cfi_endproc
 1184              	.LFE49:
 1185              		.size	writeVCNL_2, .-writeVCNL_2
 1186 0022 C046     		.section	.text.readVCNL_2,"ax",%progbits
 1187              		.align	2
 1188              		.global	readVCNL_2
 1189              		.code	16
 1190              		.thumb_func
 1191              		.type	readVCNL_2, %function
 1192              	readVCNL_2:
 1193              	.LFB50:
  14:./VCNL4010_2.h **** //Read Data
  15:./VCNL4010_2.h **** int readVCNL_2(int address){
ARM GAS  C:\Users\HENRYA~1\AppData\Local\Temp\cclE7HzI.s 			page 27


 1194              		.loc 3 15 0
 1195              		.cfi_startproc
 1196              	.LVL194:
 1197 0000 00B5     		push	{lr}
 1198              		.cfi_def_cfa_offset 4
 1199              		.cfi_offset 14, -4
 1200 0002 83B0     		sub	sp, sp, #12
 1201              		.cfi_def_cfa_offset 16
  16:./VCNL4010_2.h ****     uint8 Write_buf[1]={0};
 1202              		.loc 3 16 0
 1203 0004 01A9     		add	r1, sp, #4
  17:./VCNL4010_2.h ****     Write_buf[0]=address;
 1204              		.loc 3 17 0
 1205 0006 0870     		strb	r0, [r1]
  18:./VCNL4010_2.h ****     uint8 read_Buf[1]={0};
 1206              		.loc 3 18 0
 1207 0008 0023     		mov	r3, #0
 1208 000a 6A46     		mov	r2, sp
 1209 000c 1370     		strb	r3, [r2]
  19:./VCNL4010_2.h ****     SENSOR_2_I2CMasterWriteBuf(VCNL4010_ADDRESS,(uint8 *)Write_buf,1,SENSOR_2_I2C_MODE_NO_STOP);
 1210              		.loc 3 19 0
 1211 000e 1320     		mov	r0, #19
 1212              	.LVL195:
 1213 0010 0122     		mov	r2, #1
 1214 0012 0233     		add	r3, r3, #2
 1215 0014 FFF7FEFF 		bl	SENSOR_2_I2CMasterWriteBuf
 1216              	.LVL196:
 1217              	.L46:
  20:./VCNL4010_2.h ****     while((SENSOR_2_I2CMasterStatus()&SENSOR_2_I2C_MSTAT_WR_CMPLT)==0){}
 1218              		.loc 3 20 0 discriminator 1
 1219 0018 FFF7FEFF 		bl	SENSOR_2_I2CMasterStatus
 1220              	.LVL197:
 1221 001c 8307     		lsl	r3, r0, #30
 1222 001e FBD5     		bpl	.L46
  21:./VCNL4010_2.h ****     SENSOR_2_I2CMasterReadBuf(VCNL4010_ADDRESS,(uint8 *)read_Buf,1,SENSOR_2_I2C_MODE_REPEAT_START);
 1223              		.loc 3 21 0
 1224 0020 1320     		mov	r0, #19
 1225 0022 6946     		mov	r1, sp
 1226 0024 0122     		mov	r2, #1
 1227 0026 0123     		mov	r3, #1
 1228 0028 FFF7FEFF 		bl	SENSOR_2_I2CMasterReadBuf
 1229              	.LVL198:
 1230              	.L47:
  22:./VCNL4010_2.h ****     while((SENSOR_2_I2CMasterStatus()&SENSOR_2_I2C_MSTAT_RD_CMPLT)==0){}
 1231              		.loc 3 22 0 discriminator 1
 1232 002c FFF7FEFF 		bl	SENSOR_2_I2CMasterStatus
 1233              	.LVL199:
 1234 0030 C307     		lsl	r3, r0, #31
 1235 0032 FBD5     		bpl	.L47
  23:./VCNL4010_2.h ****     return read_Buf[0];
 1236              		.loc 3 23 0
 1237 0034 6B46     		mov	r3, sp
 1238 0036 1878     		ldrb	r0, [r3]
  24:./VCNL4010_2.h **** }
 1239              		.loc 3 24 0
 1240 0038 03B0     		add	sp, sp, #12
 1241              		@ sp needed
ARM GAS  C:\Users\HENRYA~1\AppData\Local\Temp\cclE7HzI.s 			page 28


 1242 003a 00BD     		pop	{pc}
 1243              		.cfi_endproc
 1244              	.LFE50:
 1245              		.size	readVCNL_2, .-readVCNL_2
 1246              		.section	.text.initVCNL_2,"ax",%progbits
 1247              		.align	2
 1248              		.global	initVCNL_2
 1249              		.code	16
 1250              		.thumb_func
 1251              		.type	initVCNL_2, %function
 1252              	initVCNL_2:
 1253              	.LFB51:
  25:./VCNL4010_2.h **** //Init Sensor
  26:./VCNL4010_2.h **** void initVCNL_2(){
 1254              		.loc 3 26 0
 1255              		.cfi_startproc
 1256 0000 10B5     		push	{r4, lr}
 1257              		.cfi_def_cfa_offset 8
 1258              		.cfi_offset 4, -8
 1259              		.cfi_offset 14, -4
  27:./VCNL4010_2.h ****   int temp = readVCNL_2(0x81);
 1260              		.loc 3 27 0
 1261 0002 8120     		mov	r0, #129
 1262 0004 FFF7FEFF 		bl	readVCNL_2
 1263              	.LVL200:
  28:./VCNL4010_2.h ****   if (temp != 0x21){  
 1264              		.loc 3 28 0
 1265 0008 2128     		cmp	r0, #33
 1266 000a 0ED0     		beq	.L49
  29:./VCNL4010_2.h ****     //Led Sequence Fail
  30:./VCNL4010_2.h ****     LED_2_Write(1);
 1267              		.loc 3 30 0
 1268 000c 0120     		mov	r0, #1
 1269              	.LVL201:
 1270 000e FFF7FEFF 		bl	LED_2_Write
 1271              	.LVL202:
  31:./VCNL4010_2.h ****     CyDelay(500);
 1272              		.loc 3 31 0
 1273 0012 FA24     		mov	r4, #250
 1274 0014 6400     		lsl	r4, r4, #1
 1275 0016 201C     		mov	r0, r4
 1276 0018 FFF7FEFF 		bl	CyDelay
 1277              	.LVL203:
  32:./VCNL4010_2.h ****     LED_2_Write(0);
 1278              		.loc 3 32 0
 1279 001c 0020     		mov	r0, #0
 1280 001e FFF7FEFF 		bl	LED_2_Write
 1281              	.LVL204:
  33:./VCNL4010_2.h ****     CyDelay(500);    
 1282              		.loc 3 33 0
 1283 0022 201C     		mov	r0, r4
 1284 0024 FFF7FEFF 		bl	CyDelay
 1285              	.LVL205:
 1286 0028 1DE0     		b	.L50
 1287              	.LVL206:
 1288              	.L49:
  34:./VCNL4010_2.h ****   }
ARM GAS  C:\Users\HENRYA~1\AppData\Local\Temp\cclE7HzI.s 			page 29


  35:./VCNL4010_2.h ****    else{
  36:./VCNL4010_2.h ****     //Led Sequence Sucess
  37:./VCNL4010_2.h ****     LED_2_Write(0);
 1289              		.loc 3 37 0
 1290 002a 0020     		mov	r0, #0
 1291              	.LVL207:
 1292 002c FFF7FEFF 		bl	LED_2_Write
 1293              	.LVL208:
  38:./VCNL4010_2.h ****     for(ii=1;ii<5;ii++){
 1294              		.loc 3 38 0
 1295 0030 0122     		mov	r2, #1
 1296 0032 154B     		ldr	r3, .L53
 1297 0034 5A60     		str	r2, [r3, #4]
 1298 0036 0FE0     		b	.L51
 1299              	.L52:
  39:./VCNL4010_2.h ****         LED_2_Write(1);
 1300              		.loc 3 39 0 discriminator 3
 1301 0038 0120     		mov	r0, #1
 1302 003a FFF7FEFF 		bl	LED_2_Write
 1303              	.LVL209:
  40:./VCNL4010_2.h ****         CyDelay(200);
 1304              		.loc 3 40 0 discriminator 3
 1305 003e C820     		mov	r0, #200
 1306 0040 FFF7FEFF 		bl	CyDelay
 1307              	.LVL210:
  41:./VCNL4010_2.h ****         LED_2_Write(0);
 1308              		.loc 3 41 0 discriminator 3
 1309 0044 0020     		mov	r0, #0
 1310 0046 FFF7FEFF 		bl	LED_2_Write
 1311              	.LVL211:
  42:./VCNL4010_2.h ****         CyDelay(200); 
 1312              		.loc 3 42 0 discriminator 3
 1313 004a C820     		mov	r0, #200
 1314 004c FFF7FEFF 		bl	CyDelay
 1315              	.LVL212:
  38:./VCNL4010_2.h ****         LED_2_Write(1);
 1316              		.loc 3 38 0 discriminator 3
 1317 0050 0D4A     		ldr	r2, .L53
 1318 0052 5368     		ldr	r3, [r2, #4]
 1319 0054 0133     		add	r3, r3, #1
 1320 0056 5360     		str	r3, [r2, #4]
 1321              	.L51:
  38:./VCNL4010_2.h ****         LED_2_Write(1);
 1322              		.loc 3 38 0 is_stmt 0 discriminator 1
 1323 0058 0B4B     		ldr	r3, .L53
 1324 005a 5B68     		ldr	r3, [r3, #4]
 1325 005c 042B     		cmp	r3, #4
 1326 005e EBDD     		ble	.L52
  43:./VCNL4010_2.h ****         }
  44:./VCNL4010_2.h ****     LED_2_Write(0);
 1327              		.loc 3 44 0 is_stmt 1
 1328 0060 0020     		mov	r0, #0
 1329 0062 FFF7FEFF 		bl	LED_2_Write
 1330              	.LVL213:
 1331              	.L50:
  45:./VCNL4010_2.h ****   } 
  46:./VCNL4010_2.h ****   //VCNL Init Params
ARM GAS  C:\Users\HENRYA~1\AppData\Local\Temp\cclE7HzI.s 			page 30


  47:./VCNL4010_2.h ****   writeVCNL_2(0x84, 0x0F); // Configures ambient light measures - Single conversion mode, 128 avera
 1332              		.loc 3 47 0
 1333 0066 8420     		mov	r0, #132
 1334 0068 0F21     		mov	r1, #15
 1335 006a FFF7FEFF 		bl	writeVCNL_2
 1336              	.LVL214:
  48:./VCNL4010_2.h ****   writeVCNL_2(0x83, 20);   // sets IR current in steps of 10mA 0-200mA --> 200mA
 1337              		.loc 3 48 0
 1338 006e 8320     		mov	r0, #131
 1339 0070 1421     		mov	r1, #20
 1340 0072 FFF7FEFF 		bl	writeVCNL_2
 1341              	.LVL215:
  49:./VCNL4010_2.h ****   writeVCNL_2(0x89, 0);    // Proximity IR test signal freq, 0-3 - 781.25 kHz
 1342              		.loc 3 49 0
 1343 0076 8920     		mov	r0, #137
 1344 0078 0021     		mov	r1, #0
 1345 007a FFF7FEFF 		bl	writeVCNL_2
 1346              	.LVL216:
  50:./VCNL4010_2.h ****   writeVCNL_2(0x8A, 0x81); // proximity modulator timing - 129, recommended by Vishay 
 1347              		.loc 3 50 0
 1348 007e 8A20     		mov	r0, #138
 1349 0080 8121     		mov	r1, #129
 1350 0082 FFF7FEFF 		bl	writeVCNL_2
 1351              	.LVL217:
  51:./VCNL4010_2.h **** }
 1352              		.loc 3 51 0
 1353              		@ sp needed
 1354 0086 10BD     		pop	{r4, pc}
 1355              	.L54:
 1356              		.align	2
 1357              	.L53:
 1358 0088 00000000 		.word	.LANCHOR0
 1359              		.cfi_endproc
 1360              	.LFE51:
 1361              		.size	initVCNL_2, .-initVCNL_2
 1362              		.section	.text.readProximity_2,"ax",%progbits
 1363              		.align	2
 1364              		.global	readProximity_2
 1365              		.code	16
 1366              		.thumb_func
 1367              		.type	readProximity_2, %function
 1368              	readProximity_2:
 1369              	.LFB52:
  52:./VCNL4010_2.h **** //Read Distance Signal
  53:./VCNL4010_2.h **** unsigned int readProximity_2(){
 1370              		.loc 3 53 0
 1371              		.cfi_startproc
 1372 0000 10B5     		push	{r4, lr}
 1373              		.cfi_def_cfa_offset 8
 1374              		.cfi_offset 4, -8
 1375              		.cfi_offset 14, -4
  54:./VCNL4010_2.h ****   int temp = readVCNL_2(0x80);
 1376              		.loc 3 54 0
 1377 0002 8020     		mov	r0, #128
 1378 0004 FFF7FEFF 		bl	readVCNL_2
 1379              	.LVL218:
  55:./VCNL4010_2.h ****   writeVCNL_2(0x80, temp | 0x08);             // command the sensor to perform a proximity measure
ARM GAS  C:\Users\HENRYA~1\AppData\Local\Temp\cclE7HzI.s 			page 31


 1380              		.loc 3 55 0
 1381 0008 0823     		mov	r3, #8
 1382 000a 011C     		mov	r1, r0
 1383 000c 1943     		orr	r1, r3
 1384 000e 8020     		mov	r0, #128
 1385              	.LVL219:
 1386 0010 FFF7FEFF 		bl	writeVCNL_2
 1387              	.LVL220:
 1388              	.L56:
  56:./VCNL4010_2.h ****   while(!(readVCNL_2(0x80)&0x20));            // Wait for the proximity data ready bit to be set
 1389              		.loc 3 56 0 discriminator 1
 1390 0014 8020     		mov	r0, #128
 1391 0016 FFF7FEFF 		bl	readVCNL_2
 1392              	.LVL221:
 1393 001a 8306     		lsl	r3, r0, #26
 1394 001c FAD5     		bpl	.L56
  57:./VCNL4010_2.h ****   unsigned int data = readVCNL_2(0x87) << 8;
 1395              		.loc 3 57 0
 1396 001e 8720     		mov	r0, #135
 1397 0020 FFF7FEFF 		bl	readVCNL_2
 1398              	.LVL222:
 1399 0024 0402     		lsl	r4, r0, #8
 1400              	.LVL223:
  58:./VCNL4010_2.h ****   data |= readVCNL_2(0x88);
 1401              		.loc 3 58 0
 1402 0026 8820     		mov	r0, #136
 1403 0028 FFF7FEFF 		bl	readVCNL_2
 1404              	.LVL224:
 1405 002c 2043     		orr	r0, r4
 1406              	.LVL225:
  59:./VCNL4010_2.h ****   return data;
  60:./VCNL4010_2.h **** }
 1407              		.loc 3 60 0
 1408              		@ sp needed
 1409 002e 10BD     		pop	{r4, pc}
 1410              		.cfi_endproc
 1411              	.LFE52:
 1412              		.size	readProximity_2, .-readProximity_2
 1413              		.section	.text.readAmbient_2,"ax",%progbits
 1414              		.align	2
 1415              		.global	readAmbient_2
 1416              		.code	16
 1417              		.thumb_func
 1418              		.type	readAmbient_2, %function
 1419              	readAmbient_2:
 1420              	.LFB53:
  61:./VCNL4010_2.h **** //Read Ambient Signal
  62:./VCNL4010_2.h **** unsigned int readAmbient_2(){
 1421              		.loc 3 62 0
 1422              		.cfi_startproc
 1423 0000 10B5     		push	{r4, lr}
 1424              		.cfi_def_cfa_offset 8
 1425              		.cfi_offset 4, -8
 1426              		.cfi_offset 14, -4
  63:./VCNL4010_2.h ****   int temp = readVCNL_2(0x80);
 1427              		.loc 3 63 0
 1428 0002 8020     		mov	r0, #128
ARM GAS  C:\Users\HENRYA~1\AppData\Local\Temp\cclE7HzI.s 			page 32


 1429 0004 FFF7FEFF 		bl	readVCNL_2
 1430              	.LVL226:
  64:./VCNL4010_2.h ****   writeVCNL_2(0x80, temp | 0x10);             // command the sensor to perform ambient measure
 1431              		.loc 3 64 0
 1432 0008 1023     		mov	r3, #16
 1433 000a 011C     		mov	r1, r0
 1434 000c 1943     		orr	r1, r3
 1435 000e 8020     		mov	r0, #128
 1436              	.LVL227:
 1437 0010 FFF7FEFF 		bl	writeVCNL_2
 1438              	.LVL228:
 1439              	.L58:
  65:./VCNL4010_2.h ****   while(!(readVCNL_2(0x80)&0x40));            // wait for the proximity data ready bit to be set
 1440              		.loc 3 65 0 discriminator 1
 1441 0014 8020     		mov	r0, #128
 1442 0016 FFF7FEFF 		bl	readVCNL_2
 1443              	.LVL229:
 1444 001a 4306     		lsl	r3, r0, #25
 1445 001c FAD5     		bpl	.L58
  66:./VCNL4010_2.h ****   unsigned int data = readVCNL_2(0x85) << 8;  
 1446              		.loc 3 66 0
 1447 001e 8520     		mov	r0, #133
 1448 0020 FFF7FEFF 		bl	readVCNL_2
 1449              	.LVL230:
 1450 0024 0402     		lsl	r4, r0, #8
 1451              	.LVL231:
  67:./VCNL4010_2.h ****   data |= readVCNL_2(0x86);
 1452              		.loc 3 67 0
 1453 0026 8620     		mov	r0, #134
 1454 0028 FFF7FEFF 		bl	readVCNL_2
 1455              	.LVL232:
 1456 002c 2043     		orr	r0, r4
 1457              	.LVL233:
  68:./VCNL4010_2.h ****   return data;
  69:./VCNL4010_2.h **** }
 1458              		.loc 3 69 0
 1459              		@ sp needed
 1460 002e 10BD     		pop	{r4, pc}
 1461              		.cfi_endproc
 1462              	.LFE53:
 1463              		.size	readAmbient_2, .-readAmbient_2
 1464              		.section	.text.writeVCNL_3,"ax",%progbits
 1465              		.align	2
 1466              		.global	writeVCNL_3
 1467              		.code	16
 1468              		.thumb_func
 1469              		.type	writeVCNL_3, %function
 1470              	writeVCNL_3:
 1471              	.LFB54:
 1472              		.file 4 "./VCNL4010_3.h"
   1:./VCNL4010_3.h **** #include <project.h>
   2:./VCNL4010_3.h **** #define VCNL4010_ADDRESS 0x13
   3:./VCNL4010_3.h **** 
   4:./VCNL4010_3.h **** int iii=0;
   5:./VCNL4010_3.h **** //Send Data
   6:./VCNL4010_3.h **** void writeVCNL_3(int address, int data){
 1473              		.loc 4 6 0
ARM GAS  C:\Users\HENRYA~1\AppData\Local\Temp\cclE7HzI.s 			page 33


 1474              		.cfi_startproc
 1475              	.LVL234:
 1476 0000 00B5     		push	{lr}
 1477              		.cfi_def_cfa_offset 4
 1478              		.cfi_offset 14, -4
 1479 0002 83B0     		sub	sp, sp, #12
 1480              		.cfi_def_cfa_offset 16
   7:./VCNL4010_3.h ****     uint8 Write_buf[2]={0};
 1481              		.loc 4 7 0
 1482 0004 01AB     		add	r3, sp, #4
   8:./VCNL4010_3.h ****     Write_buf[0]=address;
 1483              		.loc 4 8 0
 1484 0006 1870     		strb	r0, [r3]
   9:./VCNL4010_3.h ****     Write_buf[1]=data;
 1485              		.loc 4 9 0
 1486 0008 5970     		strb	r1, [r3, #1]
  10:./VCNL4010_3.h ****     SENSOR_3_I2CMasterWriteBuf(VCNL4010_ADDRESS,(uint8 *)Write_buf,2,SENSOR_3_I2C_MODE_COMPLETE_XFE
 1487              		.loc 4 10 0
 1488 000a 1320     		mov	r0, #19
 1489              	.LVL235:
 1490 000c 191C     		mov	r1, r3
 1491              	.LVL236:
 1492 000e 0222     		mov	r2, #2
 1493 0010 0023     		mov	r3, #0
 1494 0012 FFF7FEFF 		bl	SENSOR_3_I2CMasterWriteBuf
 1495              	.LVL237:
 1496              	.L60:
  11:./VCNL4010_3.h ****     while((SENSOR_3_I2CMasterStatus()&SENSOR_3_I2C_MSTAT_WR_CMPLT)==0){}
 1497              		.loc 4 11 0 discriminator 1
 1498 0016 FFF7FEFF 		bl	SENSOR_3_I2CMasterStatus
 1499              	.LVL238:
 1500 001a 8307     		lsl	r3, r0, #30
 1501 001c FBD5     		bpl	.L60
  12:./VCNL4010_3.h ****     return;
  13:./VCNL4010_3.h **** }
 1502              		.loc 4 13 0
 1503 001e 03B0     		add	sp, sp, #12
 1504              		@ sp needed
 1505 0020 00BD     		pop	{pc}
 1506              		.cfi_endproc
 1507              	.LFE54:
 1508              		.size	writeVCNL_3, .-writeVCNL_3
 1509 0022 C046     		.section	.text.readVCNL_3,"ax",%progbits
 1510              		.align	2
 1511              		.global	readVCNL_3
 1512              		.code	16
 1513              		.thumb_func
 1514              		.type	readVCNL_3, %function
 1515              	readVCNL_3:
 1516              	.LFB55:
  14:./VCNL4010_3.h **** //Read Data
  15:./VCNL4010_3.h **** int readVCNL_3(int address){
 1517              		.loc 4 15 0
 1518              		.cfi_startproc
 1519              	.LVL239:
 1520 0000 00B5     		push	{lr}
 1521              		.cfi_def_cfa_offset 4
ARM GAS  C:\Users\HENRYA~1\AppData\Local\Temp\cclE7HzI.s 			page 34


 1522              		.cfi_offset 14, -4
 1523 0002 83B0     		sub	sp, sp, #12
 1524              		.cfi_def_cfa_offset 16
  16:./VCNL4010_3.h ****     uint8 Write_buf[1]={0};
 1525              		.loc 4 16 0
 1526 0004 01A9     		add	r1, sp, #4
  17:./VCNL4010_3.h ****     Write_buf[0]=address;
 1527              		.loc 4 17 0
 1528 0006 0870     		strb	r0, [r1]
  18:./VCNL4010_3.h ****     uint8 read_Buf[1]={0};
 1529              		.loc 4 18 0
 1530 0008 0023     		mov	r3, #0
 1531 000a 6A46     		mov	r2, sp
 1532 000c 1370     		strb	r3, [r2]
  19:./VCNL4010_3.h ****     SENSOR_3_I2CMasterWriteBuf(VCNL4010_ADDRESS,(uint8 *)Write_buf,1,SENSOR_3_I2C_MODE_NO_STOP);
 1533              		.loc 4 19 0
 1534 000e 1320     		mov	r0, #19
 1535              	.LVL240:
 1536 0010 0122     		mov	r2, #1
 1537 0012 0233     		add	r3, r3, #2
 1538 0014 FFF7FEFF 		bl	SENSOR_3_I2CMasterWriteBuf
 1539              	.LVL241:
 1540              	.L62:
  20:./VCNL4010_3.h ****     while((SENSOR_3_I2CMasterStatus()&SENSOR_3_I2C_MSTAT_WR_CMPLT)==0){}
 1541              		.loc 4 20 0 discriminator 1
 1542 0018 FFF7FEFF 		bl	SENSOR_3_I2CMasterStatus
 1543              	.LVL242:
 1544 001c 8307     		lsl	r3, r0, #30
 1545 001e FBD5     		bpl	.L62
  21:./VCNL4010_3.h ****     SENSOR_3_I2CMasterReadBuf(VCNL4010_ADDRESS,(uint8 *)read_Buf,1,SENSOR_3_I2C_MODE_REPEAT_START);
 1546              		.loc 4 21 0
 1547 0020 1320     		mov	r0, #19
 1548 0022 6946     		mov	r1, sp
 1549 0024 0122     		mov	r2, #1
 1550 0026 0123     		mov	r3, #1
 1551 0028 FFF7FEFF 		bl	SENSOR_3_I2CMasterReadBuf
 1552              	.LVL243:
 1553              	.L63:
  22:./VCNL4010_3.h ****     while((SENSOR_3_I2CMasterStatus()&SENSOR_3_I2C_MSTAT_RD_CMPLT)==0){}
 1554              		.loc 4 22 0 discriminator 1
 1555 002c FFF7FEFF 		bl	SENSOR_3_I2CMasterStatus
 1556              	.LVL244:
 1557 0030 C307     		lsl	r3, r0, #31
 1558 0032 FBD5     		bpl	.L63
  23:./VCNL4010_3.h ****     return read_Buf[0];
 1559              		.loc 4 23 0
 1560 0034 6B46     		mov	r3, sp
 1561 0036 1878     		ldrb	r0, [r3]
  24:./VCNL4010_3.h **** }
 1562              		.loc 4 24 0
 1563 0038 03B0     		add	sp, sp, #12
 1564              		@ sp needed
 1565 003a 00BD     		pop	{pc}
 1566              		.cfi_endproc
 1567              	.LFE55:
 1568              		.size	readVCNL_3, .-readVCNL_3
 1569              		.section	.text.initVCNL_3,"ax",%progbits
ARM GAS  C:\Users\HENRYA~1\AppData\Local\Temp\cclE7HzI.s 			page 35


 1570              		.align	2
 1571              		.global	initVCNL_3
 1572              		.code	16
 1573              		.thumb_func
 1574              		.type	initVCNL_3, %function
 1575              	initVCNL_3:
 1576              	.LFB56:
  25:./VCNL4010_3.h **** //Init Sensor
  26:./VCNL4010_3.h **** void initVCNL_3(){
 1577              		.loc 4 26 0
 1578              		.cfi_startproc
 1579 0000 10B5     		push	{r4, lr}
 1580              		.cfi_def_cfa_offset 8
 1581              		.cfi_offset 4, -8
 1582              		.cfi_offset 14, -4
  27:./VCNL4010_3.h ****   int temp = readVCNL_3(0x81);
 1583              		.loc 4 27 0
 1584 0002 8120     		mov	r0, #129
 1585 0004 FFF7FEFF 		bl	readVCNL_3
 1586              	.LVL245:
  28:./VCNL4010_3.h ****   if (temp != 0x21){  
 1587              		.loc 4 28 0
 1588 0008 2128     		cmp	r0, #33
 1589 000a 0ED0     		beq	.L65
  29:./VCNL4010_3.h ****     //Led Sequence Fail
  30:./VCNL4010_3.h ****     LED_3_Write(1);
 1590              		.loc 4 30 0
 1591 000c 0120     		mov	r0, #1
 1592              	.LVL246:
 1593 000e FFF7FEFF 		bl	LED_3_Write
 1594              	.LVL247:
  31:./VCNL4010_3.h ****     CyDelay(500);
 1595              		.loc 4 31 0
 1596 0012 FA24     		mov	r4, #250
 1597 0014 6400     		lsl	r4, r4, #1
 1598 0016 201C     		mov	r0, r4
 1599 0018 FFF7FEFF 		bl	CyDelay
 1600              	.LVL248:
  32:./VCNL4010_3.h ****     LED_3_Write(0);
 1601              		.loc 4 32 0
 1602 001c 0020     		mov	r0, #0
 1603 001e FFF7FEFF 		bl	LED_3_Write
 1604              	.LVL249:
  33:./VCNL4010_3.h ****     CyDelay(500);    
 1605              		.loc 4 33 0
 1606 0022 201C     		mov	r0, r4
 1607 0024 FFF7FEFF 		bl	CyDelay
 1608              	.LVL250:
 1609 0028 1DE0     		b	.L66
 1610              	.LVL251:
 1611              	.L65:
  34:./VCNL4010_3.h ****   }
  35:./VCNL4010_3.h ****    else{
  36:./VCNL4010_3.h ****     //Led Sequence Sucess
  37:./VCNL4010_3.h ****     LED_3_Write(0);
 1612              		.loc 4 37 0
 1613 002a 0020     		mov	r0, #0
ARM GAS  C:\Users\HENRYA~1\AppData\Local\Temp\cclE7HzI.s 			page 36


 1614              	.LVL252:
 1615 002c FFF7FEFF 		bl	LED_3_Write
 1616              	.LVL253:
  38:./VCNL4010_3.h ****     for(iii=1;iii<5;iii++){
 1617              		.loc 4 38 0
 1618 0030 0122     		mov	r2, #1
 1619 0032 154B     		ldr	r3, .L69
 1620 0034 9A60     		str	r2, [r3, #8]
 1621 0036 0FE0     		b	.L67
 1622              	.L68:
  39:./VCNL4010_3.h ****         LED_3_Write(1);
 1623              		.loc 4 39 0 discriminator 3
 1624 0038 0120     		mov	r0, #1
 1625 003a FFF7FEFF 		bl	LED_3_Write
 1626              	.LVL254:
  40:./VCNL4010_3.h ****         CyDelay(200);
 1627              		.loc 4 40 0 discriminator 3
 1628 003e C820     		mov	r0, #200
 1629 0040 FFF7FEFF 		bl	CyDelay
 1630              	.LVL255:
  41:./VCNL4010_3.h ****         LED_3_Write(0);
 1631              		.loc 4 41 0 discriminator 3
 1632 0044 0020     		mov	r0, #0
 1633 0046 FFF7FEFF 		bl	LED_3_Write
 1634              	.LVL256:
  42:./VCNL4010_3.h ****         CyDelay(200); 
 1635              		.loc 4 42 0 discriminator 3
 1636 004a C820     		mov	r0, #200
 1637 004c FFF7FEFF 		bl	CyDelay
 1638              	.LVL257:
  38:./VCNL4010_3.h ****         LED_3_Write(1);
 1639              		.loc 4 38 0 discriminator 3
 1640 0050 0D4A     		ldr	r2, .L69
 1641 0052 9368     		ldr	r3, [r2, #8]
 1642 0054 0133     		add	r3, r3, #1
 1643 0056 9360     		str	r3, [r2, #8]
 1644              	.L67:
  38:./VCNL4010_3.h ****         LED_3_Write(1);
 1645              		.loc 4 38 0 is_stmt 0 discriminator 1
 1646 0058 0B4B     		ldr	r3, .L69
 1647 005a 9B68     		ldr	r3, [r3, #8]
 1648 005c 042B     		cmp	r3, #4
 1649 005e EBDD     		ble	.L68
  43:./VCNL4010_3.h ****         }
  44:./VCNL4010_3.h ****     LED_2_Write(0);
 1650              		.loc 4 44 0 is_stmt 1
 1651 0060 0020     		mov	r0, #0
 1652 0062 FFF7FEFF 		bl	LED_2_Write
 1653              	.LVL258:
 1654              	.L66:
  45:./VCNL4010_3.h ****   } 
  46:./VCNL4010_3.h ****   //VCNL Init Params
  47:./VCNL4010_3.h ****   writeVCNL_3(0x84, 0x0F); // Configures ambient light measures - Single conversion mode, 128 avera
 1655              		.loc 4 47 0
 1656 0066 8420     		mov	r0, #132
 1657 0068 0F21     		mov	r1, #15
 1658 006a FFF7FEFF 		bl	writeVCNL_3
ARM GAS  C:\Users\HENRYA~1\AppData\Local\Temp\cclE7HzI.s 			page 37


 1659              	.LVL259:
  48:./VCNL4010_3.h ****   writeVCNL_3(0x83, 20);   // sets IR current in steps of 10mA 0-200mA --> 200mA
 1660              		.loc 4 48 0
 1661 006e 8320     		mov	r0, #131
 1662 0070 1421     		mov	r1, #20
 1663 0072 FFF7FEFF 		bl	writeVCNL_3
 1664              	.LVL260:
  49:./VCNL4010_3.h ****   writeVCNL_3(0x89, 0);    // Proximity IR test signal freq, 0-3 - 781.25 kHz
 1665              		.loc 4 49 0
 1666 0076 8920     		mov	r0, #137
 1667 0078 0021     		mov	r1, #0
 1668 007a FFF7FEFF 		bl	writeVCNL_3
 1669              	.LVL261:
  50:./VCNL4010_3.h ****   writeVCNL_3(0x8A, 0x81); // proximity modulator timing - 129, recommended by Vishay 
 1670              		.loc 4 50 0
 1671 007e 8A20     		mov	r0, #138
 1672 0080 8121     		mov	r1, #129
 1673 0082 FFF7FEFF 		bl	writeVCNL_3
 1674              	.LVL262:
  51:./VCNL4010_3.h **** }
 1675              		.loc 4 51 0
 1676              		@ sp needed
 1677 0086 10BD     		pop	{r4, pc}
 1678              	.L70:
 1679              		.align	2
 1680              	.L69:
 1681 0088 00000000 		.word	.LANCHOR0
 1682              		.cfi_endproc
 1683              	.LFE56:
 1684              		.size	initVCNL_3, .-initVCNL_3
 1685              		.section	.text.readProximity_3,"ax",%progbits
 1686              		.align	2
 1687              		.global	readProximity_3
 1688              		.code	16
 1689              		.thumb_func
 1690              		.type	readProximity_3, %function
 1691              	readProximity_3:
 1692              	.LFB57:
  52:./VCNL4010_3.h **** //Read Distance Signal
  53:./VCNL4010_3.h **** unsigned int readProximity_3(){
 1693              		.loc 4 53 0
 1694              		.cfi_startproc
 1695 0000 10B5     		push	{r4, lr}
 1696              		.cfi_def_cfa_offset 8
 1697              		.cfi_offset 4, -8
 1698              		.cfi_offset 14, -4
  54:./VCNL4010_3.h ****   int temp = readVCNL_3(0x80);
 1699              		.loc 4 54 0
 1700 0002 8020     		mov	r0, #128
 1701 0004 FFF7FEFF 		bl	readVCNL_3
 1702              	.LVL263:
  55:./VCNL4010_3.h ****   writeVCNL_3(0x80, temp | 0x08);             // command the sensor to perform a proximity measure
 1703              		.loc 4 55 0
 1704 0008 0823     		mov	r3, #8
 1705 000a 011C     		mov	r1, r0
 1706 000c 1943     		orr	r1, r3
 1707 000e 8020     		mov	r0, #128
ARM GAS  C:\Users\HENRYA~1\AppData\Local\Temp\cclE7HzI.s 			page 38


 1708              	.LVL264:
 1709 0010 FFF7FEFF 		bl	writeVCNL_3
 1710              	.LVL265:
 1711              	.L72:
  56:./VCNL4010_3.h ****   while(!(readVCNL_3(0x80)&0x20));            // Wait for the proximity data ready bit to be set
 1712              		.loc 4 56 0 discriminator 1
 1713 0014 8020     		mov	r0, #128
 1714 0016 FFF7FEFF 		bl	readVCNL_3
 1715              	.LVL266:
 1716 001a 8306     		lsl	r3, r0, #26
 1717 001c FAD5     		bpl	.L72
  57:./VCNL4010_3.h ****   unsigned int data = readVCNL_3(0x87) << 8;
 1718              		.loc 4 57 0
 1719 001e 8720     		mov	r0, #135
 1720 0020 FFF7FEFF 		bl	readVCNL_3
 1721              	.LVL267:
 1722 0024 0402     		lsl	r4, r0, #8
 1723              	.LVL268:
  58:./VCNL4010_3.h ****   data |= readVCNL_3(0x88);
 1724              		.loc 4 58 0
 1725 0026 8820     		mov	r0, #136
 1726 0028 FFF7FEFF 		bl	readVCNL_3
 1727              	.LVL269:
 1728 002c 2043     		orr	r0, r4
 1729              	.LVL270:
  59:./VCNL4010_3.h ****   return data;
  60:./VCNL4010_3.h **** }
 1730              		.loc 4 60 0
 1731              		@ sp needed
 1732 002e 10BD     		pop	{r4, pc}
 1733              		.cfi_endproc
 1734              	.LFE57:
 1735              		.size	readProximity_3, .-readProximity_3
 1736              		.section	.text.readAmbient_3,"ax",%progbits
 1737              		.align	2
 1738              		.global	readAmbient_3
 1739              		.code	16
 1740              		.thumb_func
 1741              		.type	readAmbient_3, %function
 1742              	readAmbient_3:
 1743              	.LFB58:
  61:./VCNL4010_3.h **** //Read Ambient Signal
  62:./VCNL4010_3.h **** unsigned int readAmbient_3(){
 1744              		.loc 4 62 0
 1745              		.cfi_startproc
 1746 0000 10B5     		push	{r4, lr}
 1747              		.cfi_def_cfa_offset 8
 1748              		.cfi_offset 4, -8
 1749              		.cfi_offset 14, -4
  63:./VCNL4010_3.h ****   int temp = readVCNL_3(0x80);
 1750              		.loc 4 63 0
 1751 0002 8020     		mov	r0, #128
 1752 0004 FFF7FEFF 		bl	readVCNL_3
 1753              	.LVL271:
  64:./VCNL4010_3.h ****   writeVCNL_3(0x80, temp | 0x10);             // command the sensor to perform ambient measure
 1754              		.loc 4 64 0
 1755 0008 1023     		mov	r3, #16
ARM GAS  C:\Users\HENRYA~1\AppData\Local\Temp\cclE7HzI.s 			page 39


 1756 000a 011C     		mov	r1, r0
 1757 000c 1943     		orr	r1, r3
 1758 000e 8020     		mov	r0, #128
 1759              	.LVL272:
 1760 0010 FFF7FEFF 		bl	writeVCNL_3
 1761              	.LVL273:
 1762              	.L74:
  65:./VCNL4010_3.h ****   while(!(readVCNL_3(0x80)&0x40));            // wait for the proximity data ready bit to be set
 1763              		.loc 4 65 0 discriminator 1
 1764 0014 8020     		mov	r0, #128
 1765 0016 FFF7FEFF 		bl	readVCNL_3
 1766              	.LVL274:
 1767 001a 4306     		lsl	r3, r0, #25
 1768 001c FAD5     		bpl	.L74
  66:./VCNL4010_3.h ****   unsigned int data = readVCNL_3(0x85) << 8;  
 1769              		.loc 4 66 0
 1770 001e 8520     		mov	r0, #133
 1771 0020 FFF7FEFF 		bl	readVCNL_3
 1772              	.LVL275:
 1773 0024 0402     		lsl	r4, r0, #8
 1774              	.LVL276:
  67:./VCNL4010_3.h ****   data |= readVCNL_3(0x86);
 1775              		.loc 4 67 0
 1776 0026 8620     		mov	r0, #134
 1777 0028 FFF7FEFF 		bl	readVCNL_3
 1778              	.LVL277:
 1779 002c 2043     		orr	r0, r4
 1780              	.LVL278:
  68:./VCNL4010_3.h ****   return data;
  69:./VCNL4010_3.h **** }
 1781              		.loc 4 69 0
 1782              		@ sp needed
 1783 002e 10BD     		pop	{r4, pc}
 1784              		.cfi_endproc
 1785              	.LFE58:
 1786              		.size	readAmbient_3, .-readAmbient_3
 1787              		.section	.text.writeVCNL_4,"ax",%progbits
 1788              		.align	2
 1789              		.global	writeVCNL_4
 1790              		.code	16
 1791              		.thumb_func
 1792              		.type	writeVCNL_4, %function
 1793              	writeVCNL_4:
 1794              	.LFB59:
 1795              		.file 5 "./VCNL4010_4.h"
   1:./VCNL4010_4.h **** #include <project.h>
   2:./VCNL4010_4.h **** #define VCNL4010_ADDRESS 0x13
   3:./VCNL4010_4.h **** 
   4:./VCNL4010_4.h **** int iiii=0;
   5:./VCNL4010_4.h **** //Send Data
   6:./VCNL4010_4.h **** void writeVCNL_4(int address, int data){
 1796              		.loc 5 6 0
 1797              		.cfi_startproc
 1798              	.LVL279:
 1799 0000 00B5     		push	{lr}
 1800              		.cfi_def_cfa_offset 4
 1801              		.cfi_offset 14, -4
ARM GAS  C:\Users\HENRYA~1\AppData\Local\Temp\cclE7HzI.s 			page 40


 1802 0002 83B0     		sub	sp, sp, #12
 1803              		.cfi_def_cfa_offset 16
   7:./VCNL4010_4.h ****     uint8 Write_buf[2]={0};
 1804              		.loc 5 7 0
 1805 0004 01AB     		add	r3, sp, #4
   8:./VCNL4010_4.h ****     Write_buf[0]=address;
 1806              		.loc 5 8 0
 1807 0006 1870     		strb	r0, [r3]
   9:./VCNL4010_4.h ****     Write_buf[1]=data;
 1808              		.loc 5 9 0
 1809 0008 5970     		strb	r1, [r3, #1]
  10:./VCNL4010_4.h ****     SENSOR_4_I2CMasterWriteBuf(VCNL4010_ADDRESS,(uint8 *)Write_buf,2,SENSOR_4_I2C_MODE_COMPLETE_XFE
 1810              		.loc 5 10 0
 1811 000a 1320     		mov	r0, #19
 1812              	.LVL280:
 1813 000c 191C     		mov	r1, r3
 1814              	.LVL281:
 1815 000e 0222     		mov	r2, #2
 1816 0010 0023     		mov	r3, #0
 1817 0012 FFF7FEFF 		bl	SENSOR_4_I2CMasterWriteBuf
 1818              	.LVL282:
 1819              	.L76:
  11:./VCNL4010_4.h ****     while((SENSOR_4_I2CMasterStatus()&SENSOR_4_I2C_MSTAT_WR_CMPLT)==0){}
 1820              		.loc 5 11 0 discriminator 1
 1821 0016 FFF7FEFF 		bl	SENSOR_4_I2CMasterStatus
 1822              	.LVL283:
 1823 001a 8307     		lsl	r3, r0, #30
 1824 001c FBD5     		bpl	.L76
  12:./VCNL4010_4.h ****     return;
  13:./VCNL4010_4.h **** }
 1825              		.loc 5 13 0
 1826 001e 03B0     		add	sp, sp, #12
 1827              		@ sp needed
 1828 0020 00BD     		pop	{pc}
 1829              		.cfi_endproc
 1830              	.LFE59:
 1831              		.size	writeVCNL_4, .-writeVCNL_4
 1832 0022 C046     		.section	.text.readVCNL_4,"ax",%progbits
 1833              		.align	2
 1834              		.global	readVCNL_4
 1835              		.code	16
 1836              		.thumb_func
 1837              		.type	readVCNL_4, %function
 1838              	readVCNL_4:
 1839              	.LFB60:
  14:./VCNL4010_4.h **** //Read Data
  15:./VCNL4010_4.h **** int readVCNL_4(int address){
 1840              		.loc 5 15 0
 1841              		.cfi_startproc
 1842              	.LVL284:
 1843 0000 00B5     		push	{lr}
 1844              		.cfi_def_cfa_offset 4
 1845              		.cfi_offset 14, -4
 1846 0002 83B0     		sub	sp, sp, #12
 1847              		.cfi_def_cfa_offset 16
  16:./VCNL4010_4.h ****     uint8 Write_buf[1]={0};
 1848              		.loc 5 16 0
ARM GAS  C:\Users\HENRYA~1\AppData\Local\Temp\cclE7HzI.s 			page 41


 1849 0004 01A9     		add	r1, sp, #4
  17:./VCNL4010_4.h ****     Write_buf[0]=address;
 1850              		.loc 5 17 0
 1851 0006 0870     		strb	r0, [r1]
  18:./VCNL4010_4.h ****     uint8 read_Buf[1]={0};
 1852              		.loc 5 18 0
 1853 0008 0023     		mov	r3, #0
 1854 000a 6A46     		mov	r2, sp
 1855 000c 1370     		strb	r3, [r2]
  19:./VCNL4010_4.h ****     SENSOR_4_I2CMasterWriteBuf(VCNL4010_ADDRESS,(uint8 *)Write_buf,1,SENSOR_4_I2C_MODE_NO_STOP);
 1856              		.loc 5 19 0
 1857 000e 1320     		mov	r0, #19
 1858              	.LVL285:
 1859 0010 0122     		mov	r2, #1
 1860 0012 0233     		add	r3, r3, #2
 1861 0014 FFF7FEFF 		bl	SENSOR_4_I2CMasterWriteBuf
 1862              	.LVL286:
 1863              	.L78:
  20:./VCNL4010_4.h ****     while((SENSOR_4_I2CMasterStatus()&SENSOR_4_I2C_MSTAT_WR_CMPLT)==0){}
 1864              		.loc 5 20 0 discriminator 1
 1865 0018 FFF7FEFF 		bl	SENSOR_4_I2CMasterStatus
 1866              	.LVL287:
 1867 001c 8307     		lsl	r3, r0, #30
 1868 001e FBD5     		bpl	.L78
  21:./VCNL4010_4.h ****     SENSOR_4_I2CMasterReadBuf(VCNL4010_ADDRESS,(uint8 *)read_Buf,1,SENSOR_4_I2C_MODE_REPEAT_START);
 1869              		.loc 5 21 0
 1870 0020 1320     		mov	r0, #19
 1871 0022 6946     		mov	r1, sp
 1872 0024 0122     		mov	r2, #1
 1873 0026 0123     		mov	r3, #1
 1874 0028 FFF7FEFF 		bl	SENSOR_4_I2CMasterReadBuf
 1875              	.LVL288:
 1876              	.L79:
  22:./VCNL4010_4.h ****     while((SENSOR_4_I2CMasterStatus()&SENSOR_4_I2C_MSTAT_RD_CMPLT)==0){}
 1877              		.loc 5 22 0 discriminator 1
 1878 002c FFF7FEFF 		bl	SENSOR_4_I2CMasterStatus
 1879              	.LVL289:
 1880 0030 C307     		lsl	r3, r0, #31
 1881 0032 FBD5     		bpl	.L79
  23:./VCNL4010_4.h ****     return read_Buf[0];
 1882              		.loc 5 23 0
 1883 0034 6B46     		mov	r3, sp
 1884 0036 1878     		ldrb	r0, [r3]
  24:./VCNL4010_4.h **** }
 1885              		.loc 5 24 0
 1886 0038 03B0     		add	sp, sp, #12
 1887              		@ sp needed
 1888 003a 00BD     		pop	{pc}
 1889              		.cfi_endproc
 1890              	.LFE60:
 1891              		.size	readVCNL_4, .-readVCNL_4
 1892              		.section	.text.initVCNL_4,"ax",%progbits
 1893              		.align	2
 1894              		.global	initVCNL_4
 1895              		.code	16
 1896              		.thumb_func
 1897              		.type	initVCNL_4, %function
ARM GAS  C:\Users\HENRYA~1\AppData\Local\Temp\cclE7HzI.s 			page 42


 1898              	initVCNL_4:
 1899              	.LFB61:
  25:./VCNL4010_4.h **** //Init Sensor
  26:./VCNL4010_4.h **** void initVCNL_4(){
 1900              		.loc 5 26 0
 1901              		.cfi_startproc
 1902 0000 10B5     		push	{r4, lr}
 1903              		.cfi_def_cfa_offset 8
 1904              		.cfi_offset 4, -8
 1905              		.cfi_offset 14, -4
  27:./VCNL4010_4.h ****   int temp = readVCNL_4(0x81);
 1906              		.loc 5 27 0
 1907 0002 8120     		mov	r0, #129
 1908 0004 FFF7FEFF 		bl	readVCNL_4
 1909              	.LVL290:
  28:./VCNL4010_4.h ****   if (temp != 0x21){  
 1910              		.loc 5 28 0
 1911 0008 2128     		cmp	r0, #33
 1912 000a 0ED0     		beq	.L81
  29:./VCNL4010_4.h ****     //Led Sequence Fail
  30:./VCNL4010_4.h ****     LED_4_Write(1);
 1913              		.loc 5 30 0
 1914 000c 0120     		mov	r0, #1
 1915              	.LVL291:
 1916 000e FFF7FEFF 		bl	LED_4_Write
 1917              	.LVL292:
  31:./VCNL4010_4.h ****     CyDelay(500);
 1918              		.loc 5 31 0
 1919 0012 FA24     		mov	r4, #250
 1920 0014 6400     		lsl	r4, r4, #1
 1921 0016 201C     		mov	r0, r4
 1922 0018 FFF7FEFF 		bl	CyDelay
 1923              	.LVL293:
  32:./VCNL4010_4.h ****     LED_4_Write(0);
 1924              		.loc 5 32 0
 1925 001c 0020     		mov	r0, #0
 1926 001e FFF7FEFF 		bl	LED_4_Write
 1927              	.LVL294:
  33:./VCNL4010_4.h ****     CyDelay(500);    
 1928              		.loc 5 33 0
 1929 0022 201C     		mov	r0, r4
 1930 0024 FFF7FEFF 		bl	CyDelay
 1931              	.LVL295:
 1932 0028 1DE0     		b	.L82
 1933              	.LVL296:
 1934              	.L81:
  34:./VCNL4010_4.h ****   }
  35:./VCNL4010_4.h ****    else{
  36:./VCNL4010_4.h ****     //Led Sequence Sucess
  37:./VCNL4010_4.h ****     LED_4_Write(0);
 1935              		.loc 5 37 0
 1936 002a 0020     		mov	r0, #0
 1937              	.LVL297:
 1938 002c FFF7FEFF 		bl	LED_4_Write
 1939              	.LVL298:
  38:./VCNL4010_4.h ****     for(iiii=1;iiii<5;iiii++){
 1940              		.loc 5 38 0
ARM GAS  C:\Users\HENRYA~1\AppData\Local\Temp\cclE7HzI.s 			page 43


 1941 0030 0122     		mov	r2, #1
 1942 0032 154B     		ldr	r3, .L85
 1943 0034 DA60     		str	r2, [r3, #12]
 1944 0036 0FE0     		b	.L83
 1945              	.L84:
  39:./VCNL4010_4.h ****         LED_4_Write(1);
 1946              		.loc 5 39 0 discriminator 3
 1947 0038 0120     		mov	r0, #1
 1948 003a FFF7FEFF 		bl	LED_4_Write
 1949              	.LVL299:
  40:./VCNL4010_4.h ****         CyDelay(200);
 1950              		.loc 5 40 0 discriminator 3
 1951 003e C820     		mov	r0, #200
 1952 0040 FFF7FEFF 		bl	CyDelay
 1953              	.LVL300:
  41:./VCNL4010_4.h ****         LED_4_Write(0);
 1954              		.loc 5 41 0 discriminator 3
 1955 0044 0020     		mov	r0, #0
 1956 0046 FFF7FEFF 		bl	LED_4_Write
 1957              	.LVL301:
  42:./VCNL4010_4.h ****         CyDelay(200); 
 1958              		.loc 5 42 0 discriminator 3
 1959 004a C820     		mov	r0, #200
 1960 004c FFF7FEFF 		bl	CyDelay
 1961              	.LVL302:
  38:./VCNL4010_4.h ****         LED_4_Write(1);
 1962              		.loc 5 38 0 discriminator 3
 1963 0050 0D4A     		ldr	r2, .L85
 1964 0052 D368     		ldr	r3, [r2, #12]
 1965 0054 0133     		add	r3, r3, #1
 1966 0056 D360     		str	r3, [r2, #12]
 1967              	.L83:
  38:./VCNL4010_4.h ****         LED_4_Write(1);
 1968              		.loc 5 38 0 is_stmt 0 discriminator 1
 1969 0058 0B4B     		ldr	r3, .L85
 1970 005a DB68     		ldr	r3, [r3, #12]
 1971 005c 042B     		cmp	r3, #4
 1972 005e EBDD     		ble	.L84
  43:./VCNL4010_4.h ****         }
  44:./VCNL4010_4.h ****     LED_4_Write(0);
 1973              		.loc 5 44 0 is_stmt 1
 1974 0060 0020     		mov	r0, #0
 1975 0062 FFF7FEFF 		bl	LED_4_Write
 1976              	.LVL303:
 1977              	.L82:
  45:./VCNL4010_4.h ****   } 
  46:./VCNL4010_4.h ****   //VCNL Init Params
  47:./VCNL4010_4.h ****   writeVCNL_4(0x84, 0x0F); // Configures ambient light measures - Single conversion mode, 128 avera
 1978              		.loc 5 47 0
 1979 0066 8420     		mov	r0, #132
 1980 0068 0F21     		mov	r1, #15
 1981 006a FFF7FEFF 		bl	writeVCNL_4
 1982              	.LVL304:
  48:./VCNL4010_4.h ****   writeVCNL_4(0x83, 20);   // sets IR current in steps of 10mA 0-200mA --> 200mA
 1983              		.loc 5 48 0
 1984 006e 8320     		mov	r0, #131
 1985 0070 1421     		mov	r1, #20
ARM GAS  C:\Users\HENRYA~1\AppData\Local\Temp\cclE7HzI.s 			page 44


 1986 0072 FFF7FEFF 		bl	writeVCNL_4
 1987              	.LVL305:
  49:./VCNL4010_4.h ****   writeVCNL_4(0x89, 0);    // Proximity IR test signal freq, 0-3 - 781.25 kHz
 1988              		.loc 5 49 0
 1989 0076 8920     		mov	r0, #137
 1990 0078 0021     		mov	r1, #0
 1991 007a FFF7FEFF 		bl	writeVCNL_4
 1992              	.LVL306:
  50:./VCNL4010_4.h ****   writeVCNL_4(0x8A, 0x81); // proximity modulator timing - 129, recommended by Vishay 
 1993              		.loc 5 50 0
 1994 007e 8A20     		mov	r0, #138
 1995 0080 8121     		mov	r1, #129
 1996 0082 FFF7FEFF 		bl	writeVCNL_4
 1997              	.LVL307:
  51:./VCNL4010_4.h **** }
 1998              		.loc 5 51 0
 1999              		@ sp needed
 2000 0086 10BD     		pop	{r4, pc}
 2001              	.L86:
 2002              		.align	2
 2003              	.L85:
 2004 0088 00000000 		.word	.LANCHOR0
 2005              		.cfi_endproc
 2006              	.LFE61:
 2007              		.size	initVCNL_4, .-initVCNL_4
 2008              		.section	.text.readProximity_4,"ax",%progbits
 2009              		.align	2
 2010              		.global	readProximity_4
 2011              		.code	16
 2012              		.thumb_func
 2013              		.type	readProximity_4, %function
 2014              	readProximity_4:
 2015              	.LFB62:
  52:./VCNL4010_4.h **** //Read Distance Signal
  53:./VCNL4010_4.h **** unsigned int readProximity_4(){
 2016              		.loc 5 53 0
 2017              		.cfi_startproc
 2018 0000 10B5     		push	{r4, lr}
 2019              		.cfi_def_cfa_offset 8
 2020              		.cfi_offset 4, -8
 2021              		.cfi_offset 14, -4
  54:./VCNL4010_4.h ****   int temp = readVCNL_4(0x80);
 2022              		.loc 5 54 0
 2023 0002 8020     		mov	r0, #128
 2024 0004 FFF7FEFF 		bl	readVCNL_4
 2025              	.LVL308:
  55:./VCNL4010_4.h ****   writeVCNL_4(0x80, temp | 0x08);             // command the sensor to perform a proximity measure
 2026              		.loc 5 55 0
 2027 0008 0823     		mov	r3, #8
 2028 000a 011C     		mov	r1, r0
 2029 000c 1943     		orr	r1, r3
 2030 000e 8020     		mov	r0, #128
 2031              	.LVL309:
 2032 0010 FFF7FEFF 		bl	writeVCNL_4
 2033              	.LVL310:
 2034              	.L88:
  56:./VCNL4010_4.h ****   while(!(readVCNL_4(0x80)&0x20));            // Wait for the proximity data ready bit to be set
ARM GAS  C:\Users\HENRYA~1\AppData\Local\Temp\cclE7HzI.s 			page 45


 2035              		.loc 5 56 0 discriminator 1
 2036 0014 8020     		mov	r0, #128
 2037 0016 FFF7FEFF 		bl	readVCNL_4
 2038              	.LVL311:
 2039 001a 8306     		lsl	r3, r0, #26
 2040 001c FAD5     		bpl	.L88
  57:./VCNL4010_4.h ****   unsigned int data = readVCNL_4(0x87) << 8;
 2041              		.loc 5 57 0
 2042 001e 8720     		mov	r0, #135
 2043 0020 FFF7FEFF 		bl	readVCNL_4
 2044              	.LVL312:
 2045 0024 0402     		lsl	r4, r0, #8
 2046              	.LVL313:
  58:./VCNL4010_4.h ****   data |= readVCNL_4(0x88);
 2047              		.loc 5 58 0
 2048 0026 8820     		mov	r0, #136
 2049 0028 FFF7FEFF 		bl	readVCNL_4
 2050              	.LVL314:
 2051 002c 2043     		orr	r0, r4
 2052              	.LVL315:
  59:./VCNL4010_4.h ****   return data;
  60:./VCNL4010_4.h **** }
 2053              		.loc 5 60 0
 2054              		@ sp needed
 2055 002e 10BD     		pop	{r4, pc}
 2056              		.cfi_endproc
 2057              	.LFE62:
 2058              		.size	readProximity_4, .-readProximity_4
 2059              		.section	.text.readAmbient_4,"ax",%progbits
 2060              		.align	2
 2061              		.global	readAmbient_4
 2062              		.code	16
 2063              		.thumb_func
 2064              		.type	readAmbient_4, %function
 2065              	readAmbient_4:
 2066              	.LFB63:
  61:./VCNL4010_4.h **** //Read Ambient Signal
  62:./VCNL4010_4.h **** unsigned int readAmbient_4(){
 2067              		.loc 5 62 0
 2068              		.cfi_startproc
 2069 0000 10B5     		push	{r4, lr}
 2070              		.cfi_def_cfa_offset 8
 2071              		.cfi_offset 4, -8
 2072              		.cfi_offset 14, -4
  63:./VCNL4010_4.h ****   int temp = readVCNL_4(0x80);
 2073              		.loc 5 63 0
 2074 0002 8020     		mov	r0, #128
 2075 0004 FFF7FEFF 		bl	readVCNL_4
 2076              	.LVL316:
  64:./VCNL4010_4.h ****   writeVCNL_4(0x80, temp | 0x10);             // command the sensor to perform ambient measure
 2077              		.loc 5 64 0
 2078 0008 1023     		mov	r3, #16
 2079 000a 011C     		mov	r1, r0
 2080 000c 1943     		orr	r1, r3
 2081 000e 8020     		mov	r0, #128
 2082              	.LVL317:
 2083 0010 FFF7FEFF 		bl	writeVCNL_4
ARM GAS  C:\Users\HENRYA~1\AppData\Local\Temp\cclE7HzI.s 			page 46


 2084              	.LVL318:
 2085              	.L90:
  65:./VCNL4010_4.h ****   while(!(readVCNL_4(0x80)&0x40));            // wait for the proximity data ready bit to be set
 2086              		.loc 5 65 0 discriminator 1
 2087 0014 8020     		mov	r0, #128
 2088 0016 FFF7FEFF 		bl	readVCNL_4
 2089              	.LVL319:
 2090 001a 4306     		lsl	r3, r0, #25
 2091 001c FAD5     		bpl	.L90
  66:./VCNL4010_4.h ****   unsigned int data = readVCNL_4(0x85) << 8;  
 2092              		.loc 5 66 0
 2093 001e 8520     		mov	r0, #133
 2094 0020 FFF7FEFF 		bl	readVCNL_4
 2095              	.LVL320:
 2096 0024 0402     		lsl	r4, r0, #8
 2097              	.LVL321:
  67:./VCNL4010_4.h ****   data |= readVCNL_4(0x86);
 2098              		.loc 5 67 0
 2099 0026 8620     		mov	r0, #134
 2100 0028 FFF7FEFF 		bl	readVCNL_4
 2101              	.LVL322:
 2102 002c 2043     		orr	r0, r4
 2103              	.LVL323:
  68:./VCNL4010_4.h ****   return data;
  69:./VCNL4010_4.h **** }
 2104              		.loc 5 69 0
 2105              		@ sp needed
 2106 002e 10BD     		pop	{r4, pc}
 2107              		.cfi_endproc
 2108              	.LFE63:
 2109              		.size	readAmbient_4, .-readAmbient_4
 2110              		.section	.text.test_M,"ax",%progbits
 2111              		.align	2
 2112              		.global	test_M
 2113              		.code	16
 2114              		.thumb_func
 2115              		.type	test_M, %function
 2116              	test_M:
 2117              	.LFB64:
 2118              		.file 6 ".\\main.c"
   1:.\main.c      **** #include <project.h>
   2:.\main.c      **** #include <AX12.h>
   3:.\main.c      **** #include <VCNL4010_1.h>
   4:.\main.c      **** #include <VCNL4010_2.h>
   5:.\main.c      **** #include <VCNL4010_3.h>
   6:.\main.c      **** #include <VCNL4010_4.h>
   7:.\main.c      **** // If any sensor does not work the program will not start
   8:.\main.c      **** int16 S1=0,S2=0,S3=0,S4=0;
   9:.\main.c      **** uint8 dato_enviado;
  10:.\main.c      **** uint8 dato_recibido;
  11:.\main.c      **** 
  12:.\main.c      **** void test_M(){
 2119              		.loc 6 12 0
 2120              		.cfi_startproc
 2121 0000 70B5     		push	{r4, r5, r6, lr}
 2122              		.cfi_def_cfa_offset 16
 2123              		.cfi_offset 4, -16
ARM GAS  C:\Users\HENRYA~1\AppData\Local\Temp\cclE7HzI.s 			page 47


 2124              		.cfi_offset 5, -12
 2125              		.cfi_offset 6, -8
 2126              		.cfi_offset 14, -4
  13:.\main.c      ****         //Move Motor to Left
  14:.\main.c      ****         LED_2_Write(1);
 2127              		.loc 6 14 0
 2128 0002 0120     		mov	r0, #1
 2129 0004 FFF7FEFF 		bl	LED_2_Write
 2130              	.LVL324:
  15:.\main.c      ****         LED(1,1);
 2131              		.loc 6 15 0
 2132 0008 0120     		mov	r0, #1
 2133 000a 0121     		mov	r1, #1
 2134 000c FFF7FEFF 		bl	LED
 2135              	.LVL325:
  16:.\main.c      ****         action();
 2136              		.loc 6 16 0
 2137 0010 FFF7FEFF 		bl	action
 2138              	.LVL326:
  17:.\main.c      ****         turn(1,0,300);
 2139              		.loc 6 17 0
 2140 0014 9626     		mov	r6, #150
 2141 0016 7600     		lsl	r6, r6, #1
 2142 0018 0120     		mov	r0, #1
 2143 001a 0021     		mov	r1, #0
 2144 001c 321C     		mov	r2, r6
 2145 001e FFF7FEFF 		bl	turn
 2146              	.LVL327:
  18:.\main.c      ****         Move(1,200);
 2147              		.loc 6 18 0
 2148 0022 0120     		mov	r0, #1
 2149 0024 C821     		mov	r1, #200
 2150 0026 FFF7FEFF 		bl	Move
 2151              	.LVL328:
  19:.\main.c      ****         CyDelay(1000);
 2152              		.loc 6 19 0
 2153 002a FA25     		mov	r5, #250
 2154 002c AD00     		lsl	r5, r5, #2
 2155 002e 281C     		mov	r0, r5
 2156 0030 FFF7FEFF 		bl	CyDelay
 2157              	.LVL329:
  20:.\main.c      ****         //Shutdown Motor
  21:.\main.c      ****         LED_2_Write(0);
 2158              		.loc 6 21 0
 2159 0034 0020     		mov	r0, #0
 2160 0036 FFF7FEFF 		bl	LED_2_Write
 2161              	.LVL330:
  22:.\main.c      ****         LED(1,0);
 2162              		.loc 6 22 0
 2163 003a 0120     		mov	r0, #1
 2164 003c 0021     		mov	r1, #0
 2165 003e FFF7FEFF 		bl	LED
 2166              	.LVL331:
  23:.\main.c      ****         action();
 2167              		.loc 6 23 0
 2168 0042 FFF7FEFF 		bl	action
 2169              	.LVL332:
ARM GAS  C:\Users\HENRYA~1\AppData\Local\Temp\cclE7HzI.s 			page 48


  24:.\main.c      ****         MoveSpeed(1,0,0);
 2170              		.loc 6 24 0
 2171 0046 0120     		mov	r0, #1
 2172 0048 0021     		mov	r1, #0
 2173 004a 0022     		mov	r2, #0
 2174 004c FFF7FEFF 		bl	MoveSpeed
 2175              	.LVL333:
  25:.\main.c      ****         CyDelay(2000);
 2176              		.loc 6 25 0
 2177 0050 FA24     		mov	r4, #250
 2178 0052 E400     		lsl	r4, r4, #3
 2179 0054 201C     		mov	r0, r4
 2180 0056 FFF7FEFF 		bl	CyDelay
 2181              	.LVL334:
  26:.\main.c      ****         //Move Motor to Rigth
  27:.\main.c      ****         LED_2_Write(1);
 2182              		.loc 6 27 0
 2183 005a 0120     		mov	r0, #1
 2184 005c FFF7FEFF 		bl	LED_2_Write
 2185              	.LVL335:
  28:.\main.c      ****         LED(1,1);
 2186              		.loc 6 28 0
 2187 0060 0120     		mov	r0, #1
 2188 0062 0121     		mov	r1, #1
 2189 0064 FFF7FEFF 		bl	LED
 2190              	.LVL336:
  29:.\main.c      ****         action();
 2191              		.loc 6 29 0
 2192 0068 FFF7FEFF 		bl	action
 2193              	.LVL337:
  30:.\main.c      ****         turn(1,1,300);
 2194              		.loc 6 30 0
 2195 006c 0120     		mov	r0, #1
 2196 006e 0121     		mov	r1, #1
 2197 0070 321C     		mov	r2, r6
 2198 0072 FFF7FEFF 		bl	turn
 2199              	.LVL338:
  31:.\main.c      ****         Move(1,200);
 2200              		.loc 6 31 0
 2201 0076 0120     		mov	r0, #1
 2202 0078 C821     		mov	r1, #200
 2203 007a FFF7FEFF 		bl	Move
 2204              	.LVL339:
  32:.\main.c      ****         CyDelay(1000); 
 2205              		.loc 6 32 0
 2206 007e 281C     		mov	r0, r5
 2207 0080 FFF7FEFF 		bl	CyDelay
 2208              	.LVL340:
  33:.\main.c      ****         //Shutdown Motor
  34:.\main.c      ****         LED_2_Write(0);
 2209              		.loc 6 34 0
 2210 0084 0020     		mov	r0, #0
 2211 0086 FFF7FEFF 		bl	LED_2_Write
 2212              	.LVL341:
  35:.\main.c      ****         LED(1,0);
 2213              		.loc 6 35 0
 2214 008a 0120     		mov	r0, #1
ARM GAS  C:\Users\HENRYA~1\AppData\Local\Temp\cclE7HzI.s 			page 49


 2215 008c 0021     		mov	r1, #0
 2216 008e FFF7FEFF 		bl	LED
 2217              	.LVL342:
  36:.\main.c      ****         action();
 2218              		.loc 6 36 0
 2219 0092 FFF7FEFF 		bl	action
 2220              	.LVL343:
  37:.\main.c      ****         MoveSpeed(1,0,0);
 2221              		.loc 6 37 0
 2222 0096 0120     		mov	r0, #1
 2223 0098 0021     		mov	r1, #0
 2224 009a 0022     		mov	r2, #0
 2225 009c FFF7FEFF 		bl	MoveSpeed
 2226              	.LVL344:
  38:.\main.c      ****         CyDelay(2000);
 2227              		.loc 6 38 0
 2228 00a0 201C     		mov	r0, r4
 2229 00a2 FFF7FEFF 		bl	CyDelay
 2230              	.LVL345:
  39:.\main.c      **** }
 2231              		.loc 6 39 0
 2232              		@ sp needed
 2233 00a6 70BD     		pop	{r4, r5, r6, pc}
 2234              		.cfi_endproc
 2235              	.LFE64:
 2236              		.size	test_M, .-test_M
 2237              		.section	.text.main,"ax",%progbits
 2238              		.align	2
 2239              		.global	main
 2240              		.code	16
 2241              		.thumb_func
 2242              		.type	main, %function
 2243              	main:
 2244              	.LFB65:
  40:.\main.c      **** 
  41:.\main.c      **** int main()
  42:.\main.c      **** {
 2245              		.loc 6 42 0
 2246              		.cfi_startproc
 2247 0000 10B5     		push	{r4, lr}
 2248              		.cfi_def_cfa_offset 8
 2249              		.cfi_offset 4, -8
 2250              		.cfi_offset 14, -4
  43:.\main.c      ****     CyGlobalIntEnable; 
 2251              		.loc 6 43 0
 2252              	@ 43 ".\main.c" 1
 2253 0002 62B6     		CPSIE   i
 2254              	@ 0 "" 2
  44:.\main.c      ****     //Init LED's
  45:.\main.c      ****     LED_1_Write(0);
 2255              		.loc 6 45 0
 2256              		.code	16
 2257 0004 0020     		mov	r0, #0
 2258 0006 FFF7FEFF 		bl	LED_1_Write
 2259              	.LVL346:
  46:.\main.c      ****     LED_2_Write(0);
 2260              		.loc 6 46 0
ARM GAS  C:\Users\HENRYA~1\AppData\Local\Temp\cclE7HzI.s 			page 50


 2261 000a 0020     		mov	r0, #0
 2262 000c FFF7FEFF 		bl	LED_2_Write
 2263              	.LVL347:
  47:.\main.c      ****     LED_3_Write(0);
 2264              		.loc 6 47 0
 2265 0010 0020     		mov	r0, #0
 2266 0012 FFF7FEFF 		bl	LED_3_Write
 2267              	.LVL348:
  48:.\main.c      ****     LED_4_Write(0);
 2268              		.loc 6 48 0
 2269 0016 0020     		mov	r0, #0
 2270 0018 FFF7FEFF 		bl	LED_4_Write
 2271              	.LVL349:
  49:.\main.c      ****     //Init CAN
  50:.\main.c      ****     CAN_Start();
 2272              		.loc 6 50 0
 2273 001c FFF7FEFF 		bl	CAN_Start
 2274              	.LVL350:
  51:.\main.c      ****     //Init Serial
  52:.\main.c      ****     MOTOR_Start();
 2275              		.loc 6 52 0
 2276 0020 FFF7FEFF 		bl	MOTOR_Start
 2277              	.LVL351:
  53:.\main.c      ****     //Init Sensor's
  54:.\main.c      ****     SENSOR_1_Start();
 2278              		.loc 6 54 0
 2279 0024 FFF7FEFF 		bl	SENSOR_1_Start
 2280              	.LVL352:
  55:.\main.c      ****     SENSOR_1_Enable();
 2281              		.loc 6 55 0
 2282 0028 FFF7FEFF 		bl	SENSOR_1_Enable
 2283              	.LVL353:
  56:.\main.c      ****     SENSOR_2_Start();
 2284              		.loc 6 56 0
 2285 002c FFF7FEFF 		bl	SENSOR_2_Start
 2286              	.LVL354:
  57:.\main.c      ****     SENSOR_2_Enable();
 2287              		.loc 6 57 0
 2288 0030 FFF7FEFF 		bl	SENSOR_2_Enable
 2289              	.LVL355:
  58:.\main.c      ****     SENSOR_3_Start();
 2290              		.loc 6 58 0
 2291 0034 FFF7FEFF 		bl	SENSOR_3_Start
 2292              	.LVL356:
  59:.\main.c      ****     SENSOR_3_Enable();
 2293              		.loc 6 59 0
 2294 0038 FFF7FEFF 		bl	SENSOR_3_Enable
 2295              	.LVL357:
  60:.\main.c      ****     SENSOR_4_Start();
 2296              		.loc 6 60 0
 2297 003c FFF7FEFF 		bl	SENSOR_4_Start
 2298              	.LVL358:
  61:.\main.c      ****     SENSOR_4_Enable();    
 2299              		.loc 6 61 0
 2300 0040 FFF7FEFF 		bl	SENSOR_4_Enable
 2301              	.LVL359:
  62:.\main.c      ****     CyDelay(100);
ARM GAS  C:\Users\HENRYA~1\AppData\Local\Temp\cclE7HzI.s 			page 51


 2302              		.loc 6 62 0
 2303 0044 6420     		mov	r0, #100
 2304 0046 FFF7FEFF 		bl	CyDelay
 2305              	.LVL360:
  63:.\main.c      ****     initVCNL_1();
 2306              		.loc 6 63 0
 2307 004a FFF7FEFF 		bl	initVCNL_1
 2308              	.LVL361:
  64:.\main.c      ****     initVCNL_2();
 2309              		.loc 6 64 0
 2310 004e FFF7FEFF 		bl	initVCNL_2
 2311              	.LVL362:
  65:.\main.c      ****     initVCNL_3();
 2312              		.loc 6 65 0
 2313 0052 FFF7FEFF 		bl	initVCNL_3
 2314              	.LVL363:
  66:.\main.c      ****     initVCNL_4();
 2315              		.loc 6 66 0
 2316 0056 FFF7FEFF 		bl	initVCNL_4
 2317              	.LVL364:
 2318              	.L93:
  67:.\main.c      ****     for(;;)
  68:.\main.c      ****     {
  69:.\main.c      ****         //S1=readProximity_1();
  70:.\main.c      ****         S2=readProximity_2();
 2319              		.loc 6 70 0
 2320 005a FFF7FEFF 		bl	readProximity_2
 2321              	.LVL365:
 2322 005e 1F4C     		ldr	r4, .L99
 2323 0060 2082     		strh	r0, [r4, #16]
  71:.\main.c      ****         S3=readProximity_3();
 2324              		.loc 6 71 0
 2325 0062 FFF7FEFF 		bl	readProximity_3
 2326              	.LVL366:
 2327 0066 6082     		strh	r0, [r4, #18]
  72:.\main.c      ****         S4=readProximity_4();
 2328              		.loc 6 72 0
 2329 0068 FFF7FEFF 		bl	readProximity_4
 2330              	.LVL367:
 2331 006c 80B2     		uxth	r0, r0
 2332 006e A082     		strh	r0, [r4, #20]
  73:.\main.c      ****         if(S1<3000||S2<3000||S3<3000||S4<3000){LED_1_Write(1);}
 2333              		.loc 6 73 0
 2334 0070 1623     		mov	r3, #22
 2335 0072 E25E     		ldrsh	r2, [r4, r3]
 2336 0074 1A4B     		ldr	r3, .L99+4
 2337 0076 9A42     		cmp	r2, r3
 2338 0078 0EDD     		ble	.L94
 2339              		.loc 6 73 0 is_stmt 0 discriminator 2
 2340 007a 184B     		ldr	r3, .L99
 2341 007c 1022     		mov	r2, #16
 2342 007e 9A5E     		ldrsh	r2, [r3, r2]
 2343 0080 174B     		ldr	r3, .L99+4
 2344 0082 9A42     		cmp	r2, r3
 2345 0084 08DD     		ble	.L94
 2346              		.loc 6 73 0 discriminator 4
 2347 0086 154B     		ldr	r3, .L99
ARM GAS  C:\Users\HENRYA~1\AppData\Local\Temp\cclE7HzI.s 			page 52


 2348 0088 1222     		mov	r2, #18
 2349 008a 9A5E     		ldrsh	r2, [r3, r2]
 2350 008c 144B     		ldr	r3, .L99+4
 2351 008e 9A42     		cmp	r2, r3
 2352 0090 02DD     		ble	.L94
 2353              		.loc 6 73 0 discriminator 6
 2354 0092 00B2     		sxth	r0, r0
 2355 0094 9842     		cmp	r0, r3
 2356 0096 03DC     		bgt	.L95
 2357              	.L94:
 2358              		.loc 6 73 0 discriminator 7
 2359 0098 0120     		mov	r0, #1
 2360 009a FFF7FEFF 		bl	LED_1_Write
 2361              	.LVL368:
 2362 009e 02E0     		b	.L96
 2363              	.L95:
  74:.\main.c      ****         else{LED_1_Write(0);} 
 2364              		.loc 6 74 0 is_stmt 1
 2365 00a0 0020     		mov	r0, #0
 2366 00a2 FFF7FEFF 		bl	LED_1_Write
 2367              	.LVL369:
 2368              	.L96:
  75:.\main.c      ****         test_M();
 2369              		.loc 6 75 0
 2370 00a6 FFF7FEFF 		bl	test_M
 2371              	.LVL370:
  76:.\main.c      ****         CAN_SendMsg0();
 2372              		.loc 6 76 0
 2373 00aa FFF7FEFF 		bl	CAN_SendMsg0
 2374              	.LVL371:
  77:.\main.c      ****         CyDelay(500);
 2375              		.loc 6 77 0
 2376 00ae FA20     		mov	r0, #250
 2377 00b0 4000     		lsl	r0, r0, #1
 2378 00b2 FFF7FEFF 		bl	CyDelay
 2379              	.LVL372:
  78:.\main.c      ****         dato_enviado++;
 2380              		.loc 6 78 0
 2381 00b6 0B4A     		ldr	r2, .L99+8
 2382 00b8 1378     		ldrb	r3, [r2]
 2383 00ba 0133     		add	r3, r3, #1
 2384 00bc 1370     		strb	r3, [r2]
  79:.\main.c      ****         CAN_ReceiveMsg0();
 2385              		.loc 6 79 0
 2386 00be FFF7FEFF 		bl	CAN_ReceiveMsg0
 2387              	.LVL373:
  80:.\main.c      ****         if(dato_recibido==0){LED_3_Write(0);}
 2388              		.loc 6 80 0
 2389 00c2 094B     		ldr	r3, .L99+12
 2390 00c4 1B78     		ldrb	r3, [r3]
 2391 00c6 002B     		cmp	r3, #0
 2392 00c8 03D1     		bne	.L97
 2393              		.loc 6 80 0 is_stmt 0 discriminator 1
 2394 00ca 0020     		mov	r0, #0
 2395 00cc FFF7FEFF 		bl	LED_3_Write
 2396              	.LVL374:
 2397 00d0 C3E7     		b	.L93
ARM GAS  C:\Users\HENRYA~1\AppData\Local\Temp\cclE7HzI.s 			page 53


 2398              	.L97:
  81:.\main.c      ****         else{LED_3_Write(1);}
 2399              		.loc 6 81 0 is_stmt 1
 2400 00d2 0120     		mov	r0, #1
 2401 00d4 FFF7FEFF 		bl	LED_3_Write
 2402              	.LVL375:
 2403 00d8 BFE7     		b	.L93
 2404              	.L100:
 2405 00da C046     		.align	2
 2406              	.L99:
 2407 00dc 00000000 		.word	.LANCHOR0
 2408 00e0 B70B0000 		.word	2999
 2409 00e4 00000000 		.word	dato_enviado
 2410 00e8 00000000 		.word	dato_recibido
 2411              		.cfi_endproc
 2412              	.LFE65:
 2413              		.size	main, .-main
 2414              		.comm	dato_recibido,1,1
 2415              		.comm	dato_enviado,1,1
 2416              		.global	S4
 2417              		.global	S3
 2418              		.global	S2
 2419              		.global	S1
 2420              		.global	iiii
 2421              		.global	iii
 2422              		.global	ii
 2423              		.global	i
 2424              		.comm	Checksum,1,1
 2425              		.bss
 2426              		.align	2
 2427              		.set	.LANCHOR0,. + 0
 2428              		.type	i, %object
 2429              		.size	i, 4
 2430              	i:
 2431 0000 00000000 		.space	4
 2432              		.type	ii, %object
 2433              		.size	ii, 4
 2434              	ii:
 2435 0004 00000000 		.space	4
 2436              		.type	iii, %object
 2437              		.size	iii, 4
 2438              	iii:
 2439 0008 00000000 		.space	4
 2440              		.type	iiii, %object
 2441              		.size	iiii, 4
 2442              	iiii:
 2443 000c 00000000 		.space	4
 2444              		.type	S2, %object
 2445              		.size	S2, 2
 2446              	S2:
 2447 0010 0000     		.space	2
 2448              		.type	S3, %object
 2449              		.size	S3, 2
 2450              	S3:
 2451 0012 0000     		.space	2
 2452              		.type	S4, %object
 2453              		.size	S4, 2
ARM GAS  C:\Users\HENRYA~1\AppData\Local\Temp\cclE7HzI.s 			page 54


 2454              	S4:
 2455 0014 0000     		.space	2
 2456              		.type	S1, %object
 2457              		.size	S1, 2
 2458              	S1:
 2459 0016 0000     		.space	2
 2460              		.text
 2461              	.Letext0:
 2462              		.file 7 "Generated_Source\\PSoC4/cytypes.h"
 2463              		.file 8 "Generated_Source\\PSoC4/MOTOR.h"
 2464              		.file 9 "Generated_Source\\PSoC4/CyLib.h"
 2465              		.file 10 "Generated_Source\\PSoC4/SENSOR_1_I2C.h"
 2466              		.file 11 "Generated_Source\\PSoC4/LED_1.h"
 2467              		.file 12 "Generated_Source\\PSoC4/SENSOR_2_I2C.h"
 2468              		.file 13 "Generated_Source\\PSoC4/LED_2.h"
 2469              		.file 14 "Generated_Source\\PSoC4/SENSOR_3_I2C.h"
 2470              		.file 15 "Generated_Source\\PSoC4/LED_3.h"
 2471              		.file 16 "Generated_Source\\PSoC4/SENSOR_4_I2C.h"
 2472              		.file 17 "Generated_Source\\PSoC4/LED_4.h"
 2473              		.file 18 "Generated_Source\\PSoC4/CAN.h"
 2474              		.file 19 "Generated_Source\\PSoC4/SENSOR_1.h"
 2475              		.file 20 "Generated_Source\\PSoC4/SENSOR_2.h"
 2476              		.file 21 "Generated_Source\\PSoC4/SENSOR_3.h"
 2477              		.file 22 "Generated_Source\\PSoC4/SENSOR_4.h"