ARM GAS  C:\Users\HENRYA~1\AppData\Local\Temp\ccdZaXTJ.s 			page 1


   1              		.syntax unified
   2              		.cpu cortex-m3
   3              		.fpu softvfp
   4              		.eabi_attribute 20, 1
   5              		.eabi_attribute 21, 1
   6              		.eabi_attribute 23, 3
   7              		.eabi_attribute 24, 1
   8              		.eabi_attribute 25, 1
   9              		.eabi_attribute 26, 1
  10              		.eabi_attribute 30, 1
  11              		.eabi_attribute 34, 1
  12              		.eabi_attribute 18, 4
  13              		.thumb
  14              		.file	"main.c"
  15              		.text
  16              	.Ltext0:
  17              		.cfi_sections	.debug_frame
  18              		.section	.text.writeVCNL,"ax",%progbits
  19              		.align	2
  20              		.global	writeVCNL
  21              		.thumb
  22              		.thumb_func
  23              		.type	writeVCNL, %function
  24              	writeVCNL:
  25              	.LFB63:
  26              		.file 1 ".\\main.c"
   1:.\main.c      **** #include <project.h>
   2:.\main.c      **** #define VCNL4010_ADDRESS 0x13
   3:.\main.c      **** 
   4:.\main.c      **** //Send Data
   5:.\main.c      **** void writeVCNL(int address, int data){
  27              		.loc 1 5 0
  28              		.cfi_startproc
  29              		@ args = 0, pretend = 0, frame = 8
  30              		@ frame_needed = 0, uses_anonymous_args = 0
  31              	.LVL0:
  32 0000 00B5     		push	{lr}
  33              		.cfi_def_cfa_offset 4
  34              		.cfi_offset 14, -4
  35 0002 83B0     		sub	sp, sp, #12
  36              		.cfi_def_cfa_offset 16
   6:.\main.c      ****     uint8 Write_buf[2]={0};
   7:.\main.c      ****     Write_buf[0]=address;
  37              		.loc 1 7 0
  38 0004 8DF80400 		strb	r0, [sp, #4]
   8:.\main.c      ****     Write_buf[1]=data;
  39              		.loc 1 8 0
  40 0008 8DF80510 		strb	r1, [sp, #5]
   9:.\main.c      ****     I2C_1_MasterWriteBuf(VCNL4010_ADDRESS,(uint8 *)Write_buf,2,I2C_1_MODE_COMPLETE_XFER);
  41              		.loc 1 9 0
  42 000c 1320     		movs	r0, #19
  43              	.LVL1:
  44 000e 01A9     		add	r1, sp, #4
  45              	.LVL2:
  46 0010 0222     		movs	r2, #2
  47 0012 0023     		movs	r3, #0
  48 0014 FFF7FEFF 		bl	I2C_1_MasterWriteBuf
ARM GAS  C:\Users\HENRYA~1\AppData\Local\Temp\ccdZaXTJ.s 			page 2


  49              	.LVL3:
  50              	.L2:
  10:.\main.c      ****     while((I2C_1_MasterStatus()&I2C_1_MSTAT_WR_CMPLT)==0){}
  51              		.loc 1 10 0 discriminator 1
  52 0018 FFF7FEFF 		bl	I2C_1_MasterStatus
  53              	.LVL4:
  54 001c 10F0020F 		tst	r0, #2
  55 0020 FAD0     		beq	.L2
  11:.\main.c      ****     return;
  12:.\main.c      **** }
  56              		.loc 1 12 0
  57 0022 03B0     		add	sp, sp, #12
  58              		.cfi_def_cfa_offset 4
  59              		@ sp needed
  60 0024 5DF804FB 		ldr	pc, [sp], #4
  61              		.cfi_endproc
  62              	.LFE63:
  63              		.size	writeVCNL, .-writeVCNL
  64              		.section	.text.readVCNL,"ax",%progbits
  65              		.align	2
  66              		.global	readVCNL
  67              		.thumb
  68              		.thumb_func
  69              		.type	readVCNL, %function
  70              	readVCNL:
  71              	.LFB64:
  13:.\main.c      **** //Read Data
  14:.\main.c      **** int readVCNL(int address){
  72              		.loc 1 14 0
  73              		.cfi_startproc
  74              		@ args = 0, pretend = 0, frame = 8
  75              		@ frame_needed = 0, uses_anonymous_args = 0
  76              	.LVL5:
  77 0000 00B5     		push	{lr}
  78              		.cfi_def_cfa_offset 4
  79              		.cfi_offset 14, -4
  80 0002 83B0     		sub	sp, sp, #12
  81              		.cfi_def_cfa_offset 16
  15:.\main.c      ****     uint8 Write_buf[1]={0};
  16:.\main.c      ****     Write_buf[0]=address;
  82              		.loc 1 16 0
  83 0004 8DF80400 		strb	r0, [sp, #4]
  17:.\main.c      ****     uint8 read_Buf[1]={0};
  84              		.loc 1 17 0
  85 0008 0023     		movs	r3, #0
  86 000a 8DF80030 		strb	r3, [sp]
  18:.\main.c      ****     I2C_1_MasterWriteBuf(VCNL4010_ADDRESS,(uint8 *)Write_buf,1,I2C_1_MODE_NO_STOP);
  87              		.loc 1 18 0
  88 000e 1320     		movs	r0, #19
  89              	.LVL6:
  90 0010 01A9     		add	r1, sp, #4
  91 0012 0122     		movs	r2, #1
  92 0014 0223     		movs	r3, #2
  93 0016 FFF7FEFF 		bl	I2C_1_MasterWriteBuf
  94              	.LVL7:
  95              	.L5:
  19:.\main.c      ****     while((I2C_1_MasterStatus()&I2C_1_MSTAT_WR_CMPLT)==0){}
ARM GAS  C:\Users\HENRYA~1\AppData\Local\Temp\ccdZaXTJ.s 			page 3


  96              		.loc 1 19 0 discriminator 1
  97 001a FFF7FEFF 		bl	I2C_1_MasterStatus
  98              	.LVL8:
  99 001e 10F0020F 		tst	r0, #2
 100 0022 FAD0     		beq	.L5
  20:.\main.c      ****     I2C_1_MasterReadBuf(VCNL4010_ADDRESS,(uint8 *)read_Buf,1,I2C_1_MODE_REPEAT_START);
 101              		.loc 1 20 0
 102 0024 1320     		movs	r0, #19
 103 0026 6946     		mov	r1, sp
 104 0028 0122     		movs	r2, #1
 105 002a 1346     		mov	r3, r2
 106 002c FFF7FEFF 		bl	I2C_1_MasterReadBuf
 107              	.LVL9:
 108              	.L6:
  21:.\main.c      ****     while((I2C_1_MasterStatus()&I2C_1_MSTAT_RD_CMPLT)==0){}
 109              		.loc 1 21 0 discriminator 1
 110 0030 FFF7FEFF 		bl	I2C_1_MasterStatus
 111              	.LVL10:
 112 0034 10F0010F 		tst	r0, #1
 113 0038 FAD0     		beq	.L6
  22:.\main.c      ****     return read_Buf[0];
  23:.\main.c      **** }
 114              		.loc 1 23 0
 115 003a 9DF80000 		ldrb	r0, [sp]	@ zero_extendqisi2
 116 003e 03B0     		add	sp, sp, #12
 117              		.cfi_def_cfa_offset 4
 118              		@ sp needed
 119 0040 5DF804FB 		ldr	pc, [sp], #4
 120              		.cfi_endproc
 121              	.LFE64:
 122              		.size	readVCNL, .-readVCNL
 123              		.section	.text.initVCNL,"ax",%progbits
 124              		.align	2
 125              		.global	initVCNL
 126              		.thumb
 127              		.thumb_func
 128              		.type	initVCNL, %function
 129              	initVCNL:
 130              	.LFB65:
  24:.\main.c      **** //Init Sensor
  25:.\main.c      **** void initVCNL(){
 131              		.loc 1 25 0
 132              		.cfi_startproc
 133              		@ args = 0, pretend = 0, frame = 0
 134              		@ frame_needed = 0, uses_anonymous_args = 0
 135 0000 08B5     		push	{r3, lr}
 136              		.cfi_def_cfa_offset 8
 137              		.cfi_offset 3, -8
 138              		.cfi_offset 14, -4
  26:.\main.c      ****   int temp = readVCNL(0x81);
 139              		.loc 1 26 0
 140 0002 8120     		movs	r0, #129
 141 0004 FFF7FEFF 		bl	readVCNL
 142              	.LVL11:
  27:.\main.c      ****   if (temp != 0x21){  
 143              		.loc 1 27 0
 144 0008 2128     		cmp	r0, #33
ARM GAS  C:\Users\HENRYA~1\AppData\Local\Temp\ccdZaXTJ.s 			page 4


 145 000a 07D0     		beq	.L9
  28:.\main.c      ****     //If LCD provided
  29:.\main.c      ****     LCD_Char_1_Position(1,0);
 146              		.loc 1 29 0
 147 000c 0120     		movs	r0, #1
 148              	.LVL12:
 149 000e 0021     		movs	r1, #0
 150 0010 FFF7FEFF 		bl	LCD_Char_1_Position
 151              	.LVL13:
  30:.\main.c      ****     LCD_Char_1_PrintString("Fail...");
 152              		.loc 1 30 0
 153 0014 0D48     		ldr	r0, .L12
 154 0016 FFF7FEFF 		bl	LCD_Char_1_PrintString
 155              	.LVL14:
 156 001a 06E0     		b	.L10
 157              	.LVL15:
 158              	.L9:
  31:.\main.c      ****     
  32:.\main.c      ****   }
  33:.\main.c      ****    else{
  34:.\main.c      ****     LCD_Char_1_Position(1,0);
 159              		.loc 1 34 0
 160 001c 0120     		movs	r0, #1
 161              	.LVL16:
 162 001e 0021     		movs	r1, #0
 163 0020 FFF7FEFF 		bl	LCD_Char_1_Position
 164              	.LVL17:
  35:.\main.c      ****     LCD_Char_1_PrintString("Ok...");
 165              		.loc 1 35 0
 166 0024 0A48     		ldr	r0, .L12+4
 167 0026 FFF7FEFF 		bl	LCD_Char_1_PrintString
 168              	.LVL18:
 169              	.L10:
  36:.\main.c      ****   } 
  37:.\main.c      ****   //VCNL Init Params
  38:.\main.c      ****   writeVCNL(0x84, 0x0F); // Configures ambient light measures - Single conversion mode, 128 average
 170              		.loc 1 38 0
 171 002a 8420     		movs	r0, #132
 172 002c 0F21     		movs	r1, #15
 173 002e FFF7FEFF 		bl	writeVCNL
 174              	.LVL19:
  39:.\main.c      ****   writeVCNL(0x83, 20);   // sets IR current in steps of 10mA 0-200mA --> 200mA
 175              		.loc 1 39 0
 176 0032 8320     		movs	r0, #131
 177 0034 1421     		movs	r1, #20
 178 0036 FFF7FEFF 		bl	writeVCNL
 179              	.LVL20:
  40:.\main.c      ****   writeVCNL(0x89, 0);    // Proximity IR test signal freq, 0-3 - 781.25 kHz
 180              		.loc 1 40 0
 181 003a 8920     		movs	r0, #137
 182 003c 0021     		movs	r1, #0
 183 003e FFF7FEFF 		bl	writeVCNL
 184              	.LVL21:
  41:.\main.c      ****   writeVCNL(0x8A, 0x81); // proximity modulator timing - 129, recommended by Vishay 
 185              		.loc 1 41 0
 186 0042 8A20     		movs	r0, #138
 187 0044 8121     		movs	r1, #129
ARM GAS  C:\Users\HENRYA~1\AppData\Local\Temp\ccdZaXTJ.s 			page 5


 188 0046 FFF7FEFF 		bl	writeVCNL
 189              	.LVL22:
 190 004a 08BD     		pop	{r3, pc}
 191              	.L13:
 192              		.align	2
 193              	.L12:
 194 004c 00000000 		.word	.LC0
 195 0050 08000000 		.word	.LC1
 196              		.cfi_endproc
 197              	.LFE65:
 198              		.size	initVCNL, .-initVCNL
 199              		.section	.text.readProximity,"ax",%progbits
 200              		.align	2
 201              		.global	readProximity
 202              		.thumb
 203              		.thumb_func
 204              		.type	readProximity, %function
 205              	readProximity:
 206              	.LFB66:
  42:.\main.c      **** }
  43:.\main.c      **** //Read Distance Signal
  44:.\main.c      **** unsigned int readProximity(){
 207              		.loc 1 44 0
 208              		.cfi_startproc
 209              		@ args = 0, pretend = 0, frame = 0
 210              		@ frame_needed = 0, uses_anonymous_args = 0
 211 0000 10B5     		push	{r4, lr}
 212              		.cfi_def_cfa_offset 8
 213              		.cfi_offset 4, -8
 214              		.cfi_offset 14, -4
  45:.\main.c      ****   int temp = readVCNL(0x80);
 215              		.loc 1 45 0
 216 0002 8020     		movs	r0, #128
 217 0004 FFF7FEFF 		bl	readVCNL
 218              	.LVL23:
  46:.\main.c      ****   writeVCNL(0x80, temp | 0x08);             // command the sensor to perform a proximity measure
 219              		.loc 1 46 0
 220 0008 40F00801 		orr	r1, r0, #8
 221 000c 8020     		movs	r0, #128
 222              	.LVL24:
 223 000e FFF7FEFF 		bl	writeVCNL
 224              	.LVL25:
 225              	.L15:
  47:.\main.c      ****   while(!(readVCNL(0x80)&0x20));            // Wait for the proximity data ready bit to be set
 226              		.loc 1 47 0 discriminator 1
 227 0012 8020     		movs	r0, #128
 228 0014 FFF7FEFF 		bl	readVCNL
 229              	.LVL26:
 230 0018 10F0200F 		tst	r0, #32
 231 001c F9D0     		beq	.L15
  48:.\main.c      ****   unsigned int data = readVCNL(0x87) << 8;
 232              		.loc 1 48 0
 233 001e 8720     		movs	r0, #135
 234 0020 FFF7FEFF 		bl	readVCNL
 235              	.LVL27:
 236 0024 0402     		lsls	r4, r0, #8
 237              	.LVL28:
ARM GAS  C:\Users\HENRYA~1\AppData\Local\Temp\ccdZaXTJ.s 			page 6


  49:.\main.c      ****   data |= readVCNL(0x88);
 238              		.loc 1 49 0
 239 0026 8820     		movs	r0, #136
 240 0028 FFF7FEFF 		bl	readVCNL
 241              	.LVL29:
  50:.\main.c      ****   return data;
  51:.\main.c      **** }
 242              		.loc 1 51 0
 243 002c 2043     		orrs	r0, r0, r4
 244              	.LVL30:
 245 002e 10BD     		pop	{r4, pc}
 246              		.cfi_endproc
 247              	.LFE66:
 248              		.size	readProximity, .-readProximity
 249              		.section	.text.readAmbient,"ax",%progbits
 250              		.align	2
 251              		.global	readAmbient
 252              		.thumb
 253              		.thumb_func
 254              		.type	readAmbient, %function
 255              	readAmbient:
 256              	.LFB67:
  52:.\main.c      **** //Read Ambient Signal
  53:.\main.c      **** unsigned int readAmbient(){
 257              		.loc 1 53 0
 258              		.cfi_startproc
 259              		@ args = 0, pretend = 0, frame = 0
 260              		@ frame_needed = 0, uses_anonymous_args = 0
 261 0000 10B5     		push	{r4, lr}
 262              		.cfi_def_cfa_offset 8
 263              		.cfi_offset 4, -8
 264              		.cfi_offset 14, -4
  54:.\main.c      ****   int temp = readVCNL(0x80);
 265              		.loc 1 54 0
 266 0002 8020     		movs	r0, #128
 267 0004 FFF7FEFF 		bl	readVCNL
 268              	.LVL31:
  55:.\main.c      ****   writeVCNL(0x80, temp | 0x10);             // command the sensor to perform ambient measure
 269              		.loc 1 55 0
 270 0008 40F01001 		orr	r1, r0, #16
 271 000c 8020     		movs	r0, #128
 272              	.LVL32:
 273 000e FFF7FEFF 		bl	writeVCNL
 274              	.LVL33:
 275              	.L18:
  56:.\main.c      ****   while(!(readVCNL(0x80)&0x40));            // wait for the proximity data ready bit to be set
 276              		.loc 1 56 0 discriminator 1
 277 0012 8020     		movs	r0, #128
 278 0014 FFF7FEFF 		bl	readVCNL
 279              	.LVL34:
 280 0018 10F0400F 		tst	r0, #64
 281 001c F9D0     		beq	.L18
  57:.\main.c      ****   unsigned int data = readVCNL(0x85) << 8;  
 282              		.loc 1 57 0
 283 001e 8520     		movs	r0, #133
 284 0020 FFF7FEFF 		bl	readVCNL
 285              	.LVL35:
ARM GAS  C:\Users\HENRYA~1\AppData\Local\Temp\ccdZaXTJ.s 			page 7


 286 0024 0402     		lsls	r4, r0, #8
 287              	.LVL36:
  58:.\main.c      ****   data |= readVCNL(0x86);
 288              		.loc 1 58 0
 289 0026 8620     		movs	r0, #134
 290 0028 FFF7FEFF 		bl	readVCNL
 291              	.LVL37:
  59:.\main.c      ****   return data;
  60:.\main.c      **** }
 292              		.loc 1 60 0
 293 002c 2043     		orrs	r0, r0, r4
 294              	.LVL38:
 295 002e 10BD     		pop	{r4, pc}
 296              		.cfi_endproc
 297              	.LFE67:
 298              		.size	readAmbient, .-readAmbient
 299              		.section	.text.main,"ax",%progbits
 300              		.align	2
 301              		.global	main
 302              		.thumb
 303              		.thumb_func
 304              		.type	main, %function
 305              	main:
 306              	.LFB68:
  61:.\main.c      **** 
  62:.\main.c      **** int main()
  63:.\main.c      **** {
 307              		.loc 1 63 0
 308              		.cfi_startproc
 309              		@ Volatile: function does not return.
 310              		@ args = 0, pretend = 0, frame = 0
 311              		@ frame_needed = 0, uses_anonymous_args = 0
 312 0000 08B5     		push	{r3, lr}
 313              		.cfi_def_cfa_offset 8
 314              		.cfi_offset 3, -8
 315              		.cfi_offset 14, -4
  64:.\main.c      ****     CyGlobalIntEnable; 
 316              		.loc 1 64 0
 317              	@ 64 ".\main.c" 1
 318 0002 62B6     		CPSIE   i
 319              	@ 0 "" 2
  65:.\main.c      ****     LCD_Char_1_Start();
 320              		.loc 1 65 0
 321              		.thumb
 322 0004 FFF7FEFF 		bl	LCD_Char_1_Start
 323              	.LVL39:
  66:.\main.c      ****     I2C_1_Start();
 324              		.loc 1 66 0
 325 0008 FFF7FEFF 		bl	I2C_1_Start
 326              	.LVL40:
  67:.\main.c      ****     I2C_1_Enable();
 327              		.loc 1 67 0
 328 000c FFF7FEFF 		bl	I2C_1_Enable
 329              	.LVL41:
  68:.\main.c      ****     LCD_Char_1_Position(0,0);
 330              		.loc 1 68 0
 331 0010 0020     		movs	r0, #0
ARM GAS  C:\Users\HENRYA~1\AppData\Local\Temp\ccdZaXTJ.s 			page 8


 332 0012 0146     		mov	r1, r0
 333 0014 FFF7FEFF 		bl	LCD_Char_1_Position
 334              	.LVL42:
  69:.\main.c      ****     LCD_Char_1_PrintString("Sensor");
 335              		.loc 1 69 0
 336 0018 1448     		ldr	r0, .L23
 337 001a FFF7FEFF 		bl	LCD_Char_1_PrintString
 338              	.LVL43:
  70:.\main.c      ****     CyDelay(100);
 339              		.loc 1 70 0
 340 001e 6420     		movs	r0, #100
 341 0020 FFF7FEFF 		bl	CyDelay
 342              	.LVL44:
  71:.\main.c      ****     initVCNL();
 343              		.loc 1 71 0
 344 0024 FFF7FEFF 		bl	initVCNL
 345              	.LVL45:
 346              	.L21:
  72:.\main.c      ****     for(;;)
  73:.\main.c      ****     {
  74:.\main.c      ****         LCD_Char_1_Position(0,0);
 347              		.loc 1 74 0 discriminator 1
 348 0028 0020     		movs	r0, #0
 349 002a 0146     		mov	r1, r0
 350 002c FFF7FEFF 		bl	LCD_Char_1_Position
 351              	.LVL46:
  75:.\main.c      ****         LCD_Char_1_PrintString("Amb=    ");
 352              		.loc 1 75 0 discriminator 1
 353 0030 0F48     		ldr	r0, .L23+4
 354 0032 FFF7FEFF 		bl	LCD_Char_1_PrintString
 355              	.LVL47:
  76:.\main.c      ****         LCD_Char_1_Position(0,8);
 356              		.loc 1 76 0 discriminator 1
 357 0036 0020     		movs	r0, #0
 358 0038 0821     		movs	r1, #8
 359 003a FFF7FEFF 		bl	LCD_Char_1_Position
 360              	.LVL48:
  77:.\main.c      ****         LCD_Char_1_PrintDecUint16(readAmbient());
 361              		.loc 1 77 0 discriminator 1
 362 003e FFF7FEFF 		bl	readAmbient
 363              	.LVL49:
 364 0042 80B2     		uxth	r0, r0
 365 0044 FFF7FEFF 		bl	LCD_Char_1_PrintU32Number
 366              	.LVL50:
  78:.\main.c      ****         LCD_Char_1_Position(1,0);
 367              		.loc 1 78 0 discriminator 1
 368 0048 0120     		movs	r0, #1
 369 004a 0021     		movs	r1, #0
 370 004c FFF7FEFF 		bl	LCD_Char_1_Position
 371              	.LVL51:
  79:.\main.c      ****         LCD_Char_1_PrintString("Prox=   ");
 372              		.loc 1 79 0 discriminator 1
 373 0050 0848     		ldr	r0, .L23+8
 374 0052 FFF7FEFF 		bl	LCD_Char_1_PrintString
 375              	.LVL52:
  80:.\main.c      ****         LCD_Char_1_Position(1,8);
 376              		.loc 1 80 0 discriminator 1
ARM GAS  C:\Users\HENRYA~1\AppData\Local\Temp\ccdZaXTJ.s 			page 9


 377 0056 0120     		movs	r0, #1
 378 0058 0821     		movs	r1, #8
 379 005a FFF7FEFF 		bl	LCD_Char_1_Position
 380              	.LVL53:
  81:.\main.c      ****         LCD_Char_1_PrintDecUint16(readProximity());
 381              		.loc 1 81 0 discriminator 1
 382 005e FFF7FEFF 		bl	readProximity
 383              	.LVL54:
 384 0062 80B2     		uxth	r0, r0
 385 0064 FFF7FEFF 		bl	LCD_Char_1_PrintU32Number
 386              	.LVL55:
  82:.\main.c      ****         }
 387              		.loc 1 82 0 discriminator 1
 388 0068 DEE7     		b	.L21
 389              	.L24:
 390 006a 00BF     		.align	2
 391              	.L23:
 392 006c 10000000 		.word	.LC2
 393 0070 18000000 		.word	.LC3
 394 0074 24000000 		.word	.LC4
 395              		.cfi_endproc
 396              	.LFE68:
 397              		.size	main, .-main
 398              		.section	.rodata.str1.4,"aMS",%progbits,1
 399              		.align	2
 400              	.LC0:
 401 0000 4661696C 		.ascii	"Fail...\000"
 401      2E2E2E00 
 402              	.LC1:
 403 0008 4F6B2E2E 		.ascii	"Ok...\000"
 403      2E00
 404 000e 0000     		.space	2
 405              	.LC2:
 406 0010 53656E73 		.ascii	"Sensor\000"
 406      6F7200
 407 0017 00       		.space	1
 408              	.LC3:
 409 0018 416D623D 		.ascii	"Amb=    \000"
 409      20202020 
 409      00
 410 0021 000000   		.space	3
 411              	.LC4:
 412 0024 50726F78 		.ascii	"Prox=   \000"
 412      3D202020 
 412      00
 413 002d 000000   		.text
 414              	.Letext0:
 415              		.file 2 "c:\\program files (x86)\\cypress\\psoc creator\\3.3\\psoc creator\\import\\gnu\\arm\\4.9.
 416              		.file 3 "c:\\program files (x86)\\cypress\\psoc creator\\3.3\\psoc creator\\import\\gnu\\arm\\4.9.
 417              		.file 4 "Generated_Source\\PSoC5/cytypes.h"
 418              		.file 5 "Generated_Source\\PSoC5/I2C_1.h"
 419              		.file 6 "Generated_Source\\PSoC5/LCD_Char_1.h"
 420              		.file 7 "Generated_Source\\PSoC5/CyLib.h"
 421              		.file 8 "Generated_Source\\PSoC5/core_cm3.h"