ARM GAS  C:\Users\HENRYA~1\AppData\Local\Temp\ccCjgxWq.s 			page 1


   1              		.syntax unified
   2              		.cpu cortex-m3
   3              		.fpu softvfp
   4              		.eabi_attribute 20, 1
   5              		.eabi_attribute 21, 1
   6              		.eabi_attribute 23, 3
   7              		.eabi_attribute 24, 1
   8              		.eabi_attribute 25, 1
   9              		.eabi_attribute 26, 1
  10              		.eabi_attribute 30, 1
  11              		.eabi_attribute 34, 1
  12              		.eabi_attribute 18, 4
  13              		.thumb
  14              		.file	"RX_CAN_TX_RX_func.c"
  15              		.text
  16              	.Ltext0:
  17              		.cfi_sections	.debug_frame
  18              		.section	.text.RX_CAN_SendMsg,"ax",%progbits
  19              		.align	2
  20              		.global	RX_CAN_SendMsg
  21              		.thumb
  22              		.thumb_func
  23              		.type	RX_CAN_SendMsg, %function
  24              	RX_CAN_SendMsg:
  25              	.LFB0:
  26              		.file 1 ".\\Generated_Source\\PSoC5\\RX_CAN_TX_RX_func.c"
   1:.\Generated_Source\PSoC5/RX_CAN_TX_RX_func.c **** /*******************************************************************************
   2:.\Generated_Source\PSoC5/RX_CAN_TX_RX_func.c **** * File Name: RX_CAN_TX_RX_func.c
   3:.\Generated_Source\PSoC5/RX_CAN_TX_RX_func.c **** * Version 3.0
   4:.\Generated_Source\PSoC5/RX_CAN_TX_RX_func.c **** *
   5:.\Generated_Source\PSoC5/RX_CAN_TX_RX_func.c **** * Description:
   6:.\Generated_Source\PSoC5/RX_CAN_TX_RX_func.c **** *  There are functions process "Full" Receive and Transmit mailboxes:
   7:.\Generated_Source\PSoC5/RX_CAN_TX_RX_func.c **** *     - RX_CAN_SendMsg0-7();
   8:.\Generated_Source\PSoC5/RX_CAN_TX_RX_func.c **** *     - RX_CAN_ReceiveMsg0-15();
   9:.\Generated_Source\PSoC5/RX_CAN_TX_RX_func.c **** *  Transmission of message, and receive routine for "Basic" mailboxes:
  10:.\Generated_Source\PSoC5/RX_CAN_TX_RX_func.c **** *     - RX_CAN_SendMsg();
  11:.\Generated_Source\PSoC5/RX_CAN_TX_RX_func.c **** *     - RX_CAN_TxCancel();
  12:.\Generated_Source\PSoC5/RX_CAN_TX_RX_func.c **** *     - RX_CAN_ReceiveMsg();
  13:.\Generated_Source\PSoC5/RX_CAN_TX_RX_func.c **** *
  14:.\Generated_Source\PSoC5/RX_CAN_TX_RX_func.c **** *  Note:
  15:.\Generated_Source\PSoC5/RX_CAN_TX_RX_func.c **** *   None
  16:.\Generated_Source\PSoC5/RX_CAN_TX_RX_func.c **** *
  17:.\Generated_Source\PSoC5/RX_CAN_TX_RX_func.c **** ********************************************************************************
  18:.\Generated_Source\PSoC5/RX_CAN_TX_RX_func.c **** * Copyright 2008-2015, Cypress Semiconductor Corporation.  All rights reserved.
  19:.\Generated_Source\PSoC5/RX_CAN_TX_RX_func.c **** * You may use this file only in accordance with the license, terms, conditions,
  20:.\Generated_Source\PSoC5/RX_CAN_TX_RX_func.c **** * disclaimers, and limitations in the end user license agreement accompanying
  21:.\Generated_Source\PSoC5/RX_CAN_TX_RX_func.c **** * the software package with which this file was provided.
  22:.\Generated_Source\PSoC5/RX_CAN_TX_RX_func.c **** *******************************************************************************/
  23:.\Generated_Source\PSoC5/RX_CAN_TX_RX_func.c **** 
  24:.\Generated_Source\PSoC5/RX_CAN_TX_RX_func.c **** #include "RX_CAN.h"
  25:.\Generated_Source\PSoC5/RX_CAN_TX_RX_func.c **** #include "cyapicallbacks.h"
  26:.\Generated_Source\PSoC5/RX_CAN_TX_RX_func.c **** 
  27:.\Generated_Source\PSoC5/RX_CAN_TX_RX_func.c **** /* `#START TX_RX_FUNCTION` */
  28:.\Generated_Source\PSoC5/RX_CAN_TX_RX_func.c **** 
  29:.\Generated_Source\PSoC5/RX_CAN_TX_RX_func.c **** /* `#END` */
  30:.\Generated_Source\PSoC5/RX_CAN_TX_RX_func.c **** 
  31:.\Generated_Source\PSoC5/RX_CAN_TX_RX_func.c **** 
ARM GAS  C:\Users\HENRYA~1\AppData\Local\Temp\ccCjgxWq.s 			page 2


  32:.\Generated_Source\PSoC5/RX_CAN_TX_RX_func.c **** /*******************************************************************************
  33:.\Generated_Source\PSoC5/RX_CAN_TX_RX_func.c **** * FUNCTION NAME:   RX_CAN_SendMsg
  34:.\Generated_Source\PSoC5/RX_CAN_TX_RX_func.c **** ********************************************************************************
  35:.\Generated_Source\PSoC5/RX_CAN_TX_RX_func.c **** *
  36:.\Generated_Source\PSoC5/RX_CAN_TX_RX_func.c **** * Summary:
  37:.\Generated_Source\PSoC5/RX_CAN_TX_RX_func.c **** *  This function is Send Message from one of Basic mailboxes. The function loops
  38:.\Generated_Source\PSoC5/RX_CAN_TX_RX_func.c **** *  through the transmit message buffer designed as Basic CAN mailboxes for the
  39:.\Generated_Source\PSoC5/RX_CAN_TX_RX_func.c **** *  first free available and sends from it. The number of retries is limited.
  40:.\Generated_Source\PSoC5/RX_CAN_TX_RX_func.c **** *
  41:.\Generated_Source\PSoC5/RX_CAN_TX_RX_func.c **** * Parameters:
  42:.\Generated_Source\PSoC5/RX_CAN_TX_RX_func.c **** *  message: The pointer to a structure that contains all required data to send
  43:.\Generated_Source\PSoC5/RX_CAN_TX_RX_func.c **** *           messages.
  44:.\Generated_Source\PSoC5/RX_CAN_TX_RX_func.c **** *
  45:.\Generated_Source\PSoC5/RX_CAN_TX_RX_func.c **** * Return:
  46:.\Generated_Source\PSoC5/RX_CAN_TX_RX_func.c **** *  Indication if message has been sent.
  47:.\Generated_Source\PSoC5/RX_CAN_TX_RX_func.c **** *   Define                             Description
  48:.\Generated_Source\PSoC5/RX_CAN_TX_RX_func.c **** *    CYRET_SUCCESS                      The function passed successfully
  49:.\Generated_Source\PSoC5/RX_CAN_TX_RX_func.c **** *    RX_CAN_FAIL              The function failed
  50:.\Generated_Source\PSoC5/RX_CAN_TX_RX_func.c **** *
  51:.\Generated_Source\PSoC5/RX_CAN_TX_RX_func.c **** *******************************************************************************/
  52:.\Generated_Source\PSoC5/RX_CAN_TX_RX_func.c **** uint8 RX_CAN_SendMsg(const RX_CAN_TX_MSG *message) 
  53:.\Generated_Source\PSoC5/RX_CAN_TX_RX_func.c **** {
  27              		.loc 1 53 0
  28              		.cfi_startproc
  29              		@ args = 0, pretend = 0, frame = 0
  30              		@ frame_needed = 0, uses_anonymous_args = 0
  31              	.LVL0:
  32 0000 F0B5     		push	{r4, r5, r6, r7, lr}
  33              		.cfi_def_cfa_offset 20
  34              		.cfi_offset 4, -20
  35              		.cfi_offset 5, -16
  36              		.cfi_offset 6, -12
  37              		.cfi_offset 7, -8
  38              		.cfi_offset 14, -4
  39              	.LVL1:
  54:.\Generated_Source\PSoC5/RX_CAN_TX_RX_func.c ****     uint8 i, j, shift;
  55:.\Generated_Source\PSoC5/RX_CAN_TX_RX_func.c ****     uint8 retry = 0u;
  56:.\Generated_Source\PSoC5/RX_CAN_TX_RX_func.c ****     uint8 result = RX_CAN_FAIL;
  40              		.loc 1 56 0
  41 0002 0121     		movs	r1, #1
  55:.\Generated_Source\PSoC5/RX_CAN_TX_RX_func.c ****     uint8 result = RX_CAN_FAIL;
  42              		.loc 1 55 0
  43 0004 0026     		movs	r6, #0
  57:.\Generated_Source\PSoC5/RX_CAN_TX_RX_func.c ****     uint32 regTemp;
  58:.\Generated_Source\PSoC5/RX_CAN_TX_RX_func.c **** 
  59:.\Generated_Source\PSoC5/RX_CAN_TX_RX_func.c ****     while (retry < RX_CAN_RETRY_NUMBER)
  44              		.loc 1 59 0
  45 0006 5DE0     		b	.L2
  46              	.LVL2:
  47              	.L16:
  60:.\Generated_Source\PSoC5/RX_CAN_TX_RX_func.c ****     {
  61:.\Generated_Source\PSoC5/RX_CAN_TX_RX_func.c ****         shift = 1u;    /* Start from first mailbox */
  62:.\Generated_Source\PSoC5/RX_CAN_TX_RX_func.c ****         for (i = 0u; i < RX_CAN_NUMBER_OF_TX_MAILBOXES; i++)
  63:.\Generated_Source\PSoC5/RX_CAN_TX_RX_func.c ****         {
  64:.\Generated_Source\PSoC5/RX_CAN_TX_RX_func.c ****             /* Find Basic TX mailboxes */
  65:.\Generated_Source\PSoC5/RX_CAN_TX_RX_func.c ****             if ((RX_CAN_TX_MAILBOX_TYPE & shift) == 0u)
  48              		.loc 1 65 0
ARM GAS  C:\Users\HENRYA~1\AppData\Local\Temp\ccCjgxWq.s 			page 3


  49 0008 17F00F0F 		tst	r7, #15
  50 000c 4DD1     		bne	.L3
  66:.\Generated_Source\PSoC5/RX_CAN_TX_RX_func.c ****             {
  67:.\Generated_Source\PSoC5/RX_CAN_TX_RX_func.c ****                 /* Find free mailbox */
  68:.\Generated_Source\PSoC5/RX_CAN_TX_RX_func.c ****                 #if (CY_PSOC3 || CY_PSOC5)
  69:.\Generated_Source\PSoC5/RX_CAN_TX_RX_func.c ****                     if ((RX_CAN_BUF_SR_REG.byte[2] & shift) == 0u)
  51              		.loc 1 69 0
  52 000e 2F4B     		ldr	r3, .L22
  53 0010 9B78     		ldrb	r3, [r3, #2]	@ zero_extendqisi2
  54 0012 3B42     		tst	r3, r7
  55 0014 49D1     		bne	.L3
  56              	.LVL3:
  70:.\Generated_Source\PSoC5/RX_CAN_TX_RX_func.c ****                 #else  /* CY_PSOC4 */
  71:.\Generated_Source\PSoC5/RX_CAN_TX_RX_func.c ****                     if ((RX_CAN_BUF_SR_REG &
  72:.\Generated_Source\PSoC5/RX_CAN_TX_RX_func.c ****                         (uint32) ((uint32) shift << RX_CAN_TWO_BYTE_OFFSET)) == 0u)
  73:.\Generated_Source\PSoC5/RX_CAN_TX_RX_func.c ****                 #endif /* CY_PSOC3 || CY_PSOC5 */
  74:.\Generated_Source\PSoC5/RX_CAN_TX_RX_func.c ****                     {
  75:.\Generated_Source\PSoC5/RX_CAN_TX_RX_func.c ****                         regTemp = 0u;
  76:.\Generated_Source\PSoC5/RX_CAN_TX_RX_func.c **** 
  77:.\Generated_Source\PSoC5/RX_CAN_TX_RX_func.c ****                         /* Set message parameters */
  78:.\Generated_Source\PSoC5/RX_CAN_TX_RX_func.c ****                         if (message->rtr != RX_CAN_STANDARD_MESSAGE)
  57              		.loc 1 78 0
  58 0016 0379     		ldrb	r3, [r0, #4]	@ zero_extendqisi2
  59 0018 0BB1     		cbz	r3, .L4
  79:.\Generated_Source\PSoC5/RX_CAN_TX_RX_func.c ****                         {
  80:.\Generated_Source\PSoC5/RX_CAN_TX_RX_func.c ****                             regTemp = RX_CAN_TX_RTR_MASK;    /* RTR message Enable */
  60              		.loc 1 80 0
  61 001a 4FF40013 		mov	r3, #2097152
  62              	.L4:
  63              	.LVL4:
  81:.\Generated_Source\PSoC5/RX_CAN_TX_RX_func.c ****                         }
  82:.\Generated_Source\PSoC5/RX_CAN_TX_RX_func.c **** 
  83:.\Generated_Source\PSoC5/RX_CAN_TX_RX_func.c ****                         if (message->ide == RX_CAN_STANDARD_MESSAGE)
  64              		.loc 1 83 0
  65 001e 4179     		ldrb	r1, [r0, #5]	@ zero_extendqisi2
  66              	.LVL5:
  67 0020 31B9     		cbnz	r1, .L5
  84:.\Generated_Source\PSoC5/RX_CAN_TX_RX_func.c ****                         {
  85:.\Generated_Source\PSoC5/RX_CAN_TX_RX_func.c ****                             RX_CAN_SET_TX_ID_STANDARD_MSG(i, message->id);
  68              		.loc 1 85 0
  69 0022 2B49     		ldr	r1, .L22+4
  70 0024 01EB0211 		add	r1, r1, r2, lsl #4
  71 0028 0468     		ldr	r4, [r0]
  72 002a 6405     		lsls	r4, r4, #21
  73 002c 4C60     		str	r4, [r1, #4]
  74 002e 07E0     		b	.L6
  75              	.L5:
  86:.\Generated_Source\PSoC5/RX_CAN_TX_RX_func.c ****                         }
  87:.\Generated_Source\PSoC5/RX_CAN_TX_RX_func.c ****                         else
  88:.\Generated_Source\PSoC5/RX_CAN_TX_RX_func.c ****                         {
  89:.\Generated_Source\PSoC5/RX_CAN_TX_RX_func.c ****                             regTemp |= RX_CAN_TX_IDE_MASK;
  76              		.loc 1 89 0
  77 0030 43F48013 		orr	r3, r3, #1048576
  78              	.LVL6:
  90:.\Generated_Source\PSoC5/RX_CAN_TX_RX_func.c ****                             RX_CAN_SET_TX_ID_EXTENDED_MSG(i, message->id);
  79              		.loc 1 90 0
  80 0034 2649     		ldr	r1, .L22+4
ARM GAS  C:\Users\HENRYA~1\AppData\Local\Temp\ccCjgxWq.s 			page 4


  81 0036 01EB0211 		add	r1, r1, r2, lsl #4
  82 003a 0468     		ldr	r4, [r0]
  83 003c E400     		lsls	r4, r4, #3
  84 003e 4C60     		str	r4, [r1, #4]
  85              	.L6:
  91:.\Generated_Source\PSoC5/RX_CAN_TX_RX_func.c ****                         }
  92:.\Generated_Source\PSoC5/RX_CAN_TX_RX_func.c **** 
  93:.\Generated_Source\PSoC5/RX_CAN_TX_RX_func.c ****                         if (message->dlc < RX_CAN_TX_DLC_MAX_VALUE)
  86              		.loc 1 93 0
  87 0040 90F806E0 		ldrb	lr, [r0, #6]	@ zero_extendqisi2
  88 0044 BEF1070F 		cmp	lr, #7
  89 0048 02D8     		bhi	.L7
  94:.\Generated_Source\PSoC5/RX_CAN_TX_RX_func.c ****                         {
  95:.\Generated_Source\PSoC5/RX_CAN_TX_RX_func.c ****                             regTemp |= ((uint32) message->dlc) << RX_CAN_TWO_BYTE_OFFSET;
  90              		.loc 1 95 0
  91 004a 43EA0E4E 		orr	lr, r3, lr, lsl #16
  92              	.LVL7:
  93 004e 01E0     		b	.L8
  94              	.LVL8:
  95              	.L7:
  96:.\Generated_Source\PSoC5/RX_CAN_TX_RX_func.c ****                         }
  97:.\Generated_Source\PSoC5/RX_CAN_TX_RX_func.c ****                         else
  98:.\Generated_Source\PSoC5/RX_CAN_TX_RX_func.c ****                         {
  99:.\Generated_Source\PSoC5/RX_CAN_TX_RX_func.c ****                             regTemp |= RX_CAN_TX_DLC_UPPER_VALUE;
  96              		.loc 1 99 0
  97 0050 43F4002E 		orr	lr, r3, #524288
  98              	.LVL9:
  99              	.L8:
 100:.\Generated_Source\PSoC5/RX_CAN_TX_RX_func.c ****                         }
 101:.\Generated_Source\PSoC5/RX_CAN_TX_RX_func.c **** 
 102:.\Generated_Source\PSoC5/RX_CAN_TX_RX_func.c ****                         if (message->irq != RX_CAN_TRANSMIT_INT_DISABLE)
 100              		.loc 1 102 0
 101 0054 C379     		ldrb	r3, [r0, #7]	@ zero_extendqisi2
 102 0056 0BB1     		cbz	r3, .L9
 103:.\Generated_Source\PSoC5/RX_CAN_TX_RX_func.c ****                         {
 104:.\Generated_Source\PSoC5/RX_CAN_TX_RX_func.c ****                             regTemp |= RX_CAN_TX_INT_ENABLE_MASK;    /* Transmit Interrupt Enable *
 103              		.loc 1 104 0
 104 0058 4EF0040E 		orr	lr, lr, #4
 105              	.LVL10:
 106              	.L9:
 105:.\Generated_Source\PSoC5/RX_CAN_TX_RX_func.c ****                         }
 106:.\Generated_Source\PSoC5/RX_CAN_TX_RX_func.c **** 
 107:.\Generated_Source\PSoC5/RX_CAN_TX_RX_func.c ****                         for (j = 0u; (j < message->dlc) && (j < RX_CAN_TX_DLC_MAX_VALUE); j++)
 107              		.loc 1 107 0
 108 005c 0023     		movs	r3, #0
 109 005e 0FE0     		b	.L10
 110              	.LVL11:
 111              	.L14:
 108:.\Generated_Source\PSoC5/RX_CAN_TX_RX_func.c ****                         {
 109:.\Generated_Source\PSoC5/RX_CAN_TX_RX_func.c ****                             #if (CY_PSOC3 || CY_PSOC5)
 110:.\Generated_Source\PSoC5/RX_CAN_TX_RX_func.c ****                                 RX_CAN_TX_DATA_BYTE(i, j) = message->msg->byte[j];
 112              		.loc 1 110 0
 113 0060 1B49     		ldr	r1, .L22+4
 114 0062 01EB0214 		add	r4, r1, r2, lsl #4
 115 0066 032B     		cmp	r3, #3
 116 0068 02D9     		bls	.L11
 117              		.loc 1 110 0 is_stmt 0 discriminator 1
ARM GAS  C:\Users\HENRYA~1\AppData\Local\Temp\ccCjgxWq.s 			page 5


 118 006a C3F10B01 		rsb	r1, r3, #11
 119 006e 01E0     		b	.L12
 120              	.L11:
 121              		.loc 1 110 0 discriminator 2
 122 0070 C3F10301 		rsb	r1, r3, #3
 123              	.L12:
 124              		.loc 1 110 0 discriminator 4
 125 0074 8568     		ldr	r5, [r0, #8]
 126 0076 ED5C     		ldrb	r5, [r5, r3]	@ zero_extendqisi2
 127 0078 2144     		add	r1, r1, r4
 128 007a 0D72     		strb	r5, [r1, #8]
 107:.\Generated_Source\PSoC5/RX_CAN_TX_RX_func.c ****                         {
 129              		.loc 1 107 0 is_stmt 1 discriminator 4
 130 007c 0133     		adds	r3, r3, #1
 131              	.LVL12:
 132 007e DBB2     		uxtb	r3, r3
 133              	.LVL13:
 134              	.L10:
 107:.\Generated_Source\PSoC5/RX_CAN_TX_RX_func.c ****                         {
 135              		.loc 1 107 0 is_stmt 0 discriminator 2
 136 0080 8179     		ldrb	r1, [r0, #6]	@ zero_extendqisi2
 137 0082 9942     		cmp	r1, r3
 138 0084 01D9     		bls	.L13
 107:.\Generated_Source\PSoC5/RX_CAN_TX_RX_func.c ****                         {
 139              		.loc 1 107 0 discriminator 3
 140 0086 072B     		cmp	r3, #7
 141 0088 EAD9     		bls	.L14
 142              	.L13:
 111:.\Generated_Source\PSoC5/RX_CAN_TX_RX_func.c ****                             #else /* CY_PSOC4 */
 112:.\Generated_Source\PSoC5/RX_CAN_TX_RX_func.c ****                                 RX_CAN_TX_DATA_BYTE(i, j, message->msg->byte[j]);
 113:.\Generated_Source\PSoC5/RX_CAN_TX_RX_func.c ****                             #endif /* CY_PSOC3 || CY_PSOC5 */
 114:.\Generated_Source\PSoC5/RX_CAN_TX_RX_func.c ****                         }
 115:.\Generated_Source\PSoC5/RX_CAN_TX_RX_func.c **** 
 116:.\Generated_Source\PSoC5/RX_CAN_TX_RX_func.c ****                         /* Disable isr */
 117:.\Generated_Source\PSoC5/RX_CAN_TX_RX_func.c ****     CyIntDisable(RX_CAN_ISR_NUMBER);
 143              		.loc 1 117 0 is_stmt 1
 144 008a 4FF48034 		mov	r4, #65536
 145 008e 114B     		ldr	r3, .L22+8
 146              	.LVL14:
 147 0090 1C60     		str	r4, [r3]
 118:.\Generated_Source\PSoC5/RX_CAN_TX_RX_func.c **** 
 119:.\Generated_Source\PSoC5/RX_CAN_TX_RX_func.c ****                         /* WPN[23] and WPN[3] set to 1 for write to CAN Control reg */
 120:.\Generated_Source\PSoC5/RX_CAN_TX_RX_func.c ****                         CY_SET_REG32(RX_CAN_TX_CMD_PTR(i), (regTemp | RX_CAN_TX_WPN_SET));
 148              		.loc 1 120 0
 149 0092 1101     		lsls	r1, r2, #4
 150 0094 0E4D     		ldr	r5, .L22+4
 151 0096 4EF40003 		orr	r3, lr, #8388608
 152 009a 43F00803 		orr	r3, r3, #8
 153 009e 4B51     		str	r3, [r1, r5]
 121:.\Generated_Source\PSoC5/RX_CAN_TX_RX_func.c **** 
 122:.\Generated_Source\PSoC5/RX_CAN_TX_RX_func.c ****                         #if (CY_PSOC3 || CY_PSOC5)
 123:.\Generated_Source\PSoC5/RX_CAN_TX_RX_func.c ****                             CY_SET_REG32(RX_CAN_TX_CMD_PTR(i), RX_CAN_SEND_MESSAGE);
 154              		.loc 1 123 0
 155 00a0 0123     		movs	r3, #1
 156 00a2 4B51     		str	r3, [r1, r5]
 124:.\Generated_Source\PSoC5/RX_CAN_TX_RX_func.c ****                         #else /* CY_PSOC4 */
 125:.\Generated_Source\PSoC5/RX_CAN_TX_RX_func.c ****                             if (message->sst != RX_CAN_STANDARD_MESSAGE)
ARM GAS  C:\Users\HENRYA~1\AppData\Local\Temp\ccCjgxWq.s 			page 6


 126:.\Generated_Source\PSoC5/RX_CAN_TX_RX_func.c ****                             {
 127:.\Generated_Source\PSoC5/RX_CAN_TX_RX_func.c ****                                 /* Single Shot Transmission */
 128:.\Generated_Source\PSoC5/RX_CAN_TX_RX_func.c ****                                 RX_CAN_TX_CMD_REG(i) |= RX_CAN_SEND_MESSAGE |
 129:.\Generated_Source\PSoC5/RX_CAN_TX_RX_func.c ****                                 RX_CAN_TX_ABORT_MASK;
 130:.\Generated_Source\PSoC5/RX_CAN_TX_RX_func.c ****                             }
 131:.\Generated_Source\PSoC5/RX_CAN_TX_RX_func.c ****                             else
 132:.\Generated_Source\PSoC5/RX_CAN_TX_RX_func.c ****                             {
 133:.\Generated_Source\PSoC5/RX_CAN_TX_RX_func.c ****                                 RX_CAN_TX_CMD_REG(i) |= RX_CAN_SEND_MESSAGE;
 134:.\Generated_Source\PSoC5/RX_CAN_TX_RX_func.c ****                             }
 135:.\Generated_Source\PSoC5/RX_CAN_TX_RX_func.c ****                         #endif /* CY_PSOC3 || CY_PSOC5 */
 136:.\Generated_Source\PSoC5/RX_CAN_TX_RX_func.c **** 
 137:.\Generated_Source\PSoC5/RX_CAN_TX_RX_func.c ****                         /* Enable isr */
 138:.\Generated_Source\PSoC5/RX_CAN_TX_RX_func.c ****     CyIntEnable(RX_CAN_ISR_NUMBER);
 157              		.loc 1 138 0
 158 00a4 0C4B     		ldr	r3, .L22+12
 159 00a6 1C60     		str	r4, [r3]
 160              	.LVL15:
 139:.\Generated_Source\PSoC5/RX_CAN_TX_RX_func.c **** 
 140:.\Generated_Source\PSoC5/RX_CAN_TX_RX_func.c ****                         result = CYRET_SUCCESS;
 161              		.loc 1 140 0
 162 00a8 0021     		movs	r1, #0
 163              	.LVL16:
 164              	.L3:
 141:.\Generated_Source\PSoC5/RX_CAN_TX_RX_func.c ****                     }
 142:.\Generated_Source\PSoC5/RX_CAN_TX_RX_func.c ****             }
 143:.\Generated_Source\PSoC5/RX_CAN_TX_RX_func.c ****             shift <<= 1u;
 165              		.loc 1 143 0
 166 00aa 7B00     		lsls	r3, r7, #1
 167 00ac DFB2     		uxtb	r7, r3
 168              	.LVL17:
 144:.\Generated_Source\PSoC5/RX_CAN_TX_RX_func.c ****             if (result == CYRET_SUCCESS)
 169              		.loc 1 144 0
 170 00ae 31B1     		cbz	r1, .L15
  62:.\Generated_Source\PSoC5/RX_CAN_TX_RX_func.c ****         {
 171              		.loc 1 62 0 discriminator 2
 172 00b0 0132     		adds	r2, r2, #1
 173              	.LVL18:
 174 00b2 D2B2     		uxtb	r2, r2
 175              	.LVL19:
 176 00b4 01E0     		b	.L18
 177              	.LVL20:
 178              	.L20:
 179 00b6 0127     		movs	r7, #1
 180 00b8 0022     		movs	r2, #0
 181              	.L18:
 182              	.LVL21:
  62:.\Generated_Source\PSoC5/RX_CAN_TX_RX_func.c ****         {
 183              		.loc 1 62 0 is_stmt 0 discriminator 1
 184 00ba 072A     		cmp	r2, #7
 185 00bc A4D9     		bls	.L16
 186              	.L15:
 145:.\Generated_Source\PSoC5/RX_CAN_TX_RX_func.c ****             {
 146:.\Generated_Source\PSoC5/RX_CAN_TX_RX_func.c ****                 break;
 147:.\Generated_Source\PSoC5/RX_CAN_TX_RX_func.c ****             }
 148:.\Generated_Source\PSoC5/RX_CAN_TX_RX_func.c ****         }
 149:.\Generated_Source\PSoC5/RX_CAN_TX_RX_func.c ****         if (result == CYRET_SUCCESS)
 187              		.loc 1 149 0 is_stmt 1
ARM GAS  C:\Users\HENRYA~1\AppData\Local\Temp\ccCjgxWq.s 			page 7


 188 00be 19B1     		cbz	r1, .L17
 150:.\Generated_Source\PSoC5/RX_CAN_TX_RX_func.c ****         {
 151:.\Generated_Source\PSoC5/RX_CAN_TX_RX_func.c ****             break;
 152:.\Generated_Source\PSoC5/RX_CAN_TX_RX_func.c ****         }
 153:.\Generated_Source\PSoC5/RX_CAN_TX_RX_func.c ****         else
 154:.\Generated_Source\PSoC5/RX_CAN_TX_RX_func.c ****         {
 155:.\Generated_Source\PSoC5/RX_CAN_TX_RX_func.c ****             retry++;
 189              		.loc 1 155 0
 190 00c0 0136     		adds	r6, r6, #1
 191              	.LVL22:
 192 00c2 F6B2     		uxtb	r6, r6
 193              	.LVL23:
 194              	.L2:
  59:.\Generated_Source\PSoC5/RX_CAN_TX_RX_func.c ****     {
 195              		.loc 1 59 0
 196 00c4 022E     		cmp	r6, #2
 197 00c6 F6D9     		bls	.L20
 198              	.L17:
 156:.\Generated_Source\PSoC5/RX_CAN_TX_RX_func.c ****         }
 157:.\Generated_Source\PSoC5/RX_CAN_TX_RX_func.c ****     }
 158:.\Generated_Source\PSoC5/RX_CAN_TX_RX_func.c **** 
 159:.\Generated_Source\PSoC5/RX_CAN_TX_RX_func.c ****     return (result);
 160:.\Generated_Source\PSoC5/RX_CAN_TX_RX_func.c **** }
 199              		.loc 1 160 0
 200 00c8 0846     		mov	r0, r1
 201              	.LVL24:
 202 00ca F0BD     		pop	{r4, r5, r6, r7, pc}
 203              	.LVL25:
 204              	.L23:
 205              		.align	2
 206              	.L22:
 207 00cc 08A00040 		.word	1073782792
 208 00d0 20A00040 		.word	1073782816
 209 00d4 80E100E0 		.word	-536813184
 210 00d8 00E100E0 		.word	-536813312
 211              		.cfi_endproc
 212              	.LFE0:
 213              		.size	RX_CAN_SendMsg, .-RX_CAN_SendMsg
 214              		.section	.text.RX_CAN_TxCancel,"ax",%progbits
 215              		.align	2
 216              		.global	RX_CAN_TxCancel
 217              		.thumb
 218              		.thumb_func
 219              		.type	RX_CAN_TxCancel, %function
 220              	RX_CAN_TxCancel:
 221              	.LFB1:
 161:.\Generated_Source\PSoC5/RX_CAN_TX_RX_func.c **** 
 162:.\Generated_Source\PSoC5/RX_CAN_TX_RX_func.c **** 
 163:.\Generated_Source\PSoC5/RX_CAN_TX_RX_func.c **** /*******************************************************************************
 164:.\Generated_Source\PSoC5/RX_CAN_TX_RX_func.c **** * FUNCTION NAME:   RX_CAN_TxCancel
 165:.\Generated_Source\PSoC5/RX_CAN_TX_RX_func.c **** ********************************************************************************
 166:.\Generated_Source\PSoC5/RX_CAN_TX_RX_func.c **** *
 167:.\Generated_Source\PSoC5/RX_CAN_TX_RX_func.c **** * Summary:
 168:.\Generated_Source\PSoC5/RX_CAN_TX_RX_func.c **** *  This function cancels transmission of a message that has been queued to be
 169:.\Generated_Source\PSoC5/RX_CAN_TX_RX_func.c **** *  transmitted. Values between 0 and 7 are valid.
 170:.\Generated_Source\PSoC5/RX_CAN_TX_RX_func.c **** *
 171:.\Generated_Source\PSoC5/RX_CAN_TX_RX_func.c **** * Parameters:
ARM GAS  C:\Users\HENRYA~1\AppData\Local\Temp\ccCjgxWq.s 			page 8


 172:.\Generated_Source\PSoC5/RX_CAN_TX_RX_func.c **** *  bufferId: The mailbox number.
 173:.\Generated_Source\PSoC5/RX_CAN_TX_RX_func.c **** *
 174:.\Generated_Source\PSoC5/RX_CAN_TX_RX_func.c **** * Return:
 175:.\Generated_Source\PSoC5/RX_CAN_TX_RX_func.c **** *  None.
 176:.\Generated_Source\PSoC5/RX_CAN_TX_RX_func.c **** *
 177:.\Generated_Source\PSoC5/RX_CAN_TX_RX_func.c **** *******************************************************************************/
 178:.\Generated_Source\PSoC5/RX_CAN_TX_RX_func.c **** void RX_CAN_TxCancel(uint8 bufferId) 
 179:.\Generated_Source\PSoC5/RX_CAN_TX_RX_func.c **** {
 222              		.loc 1 179 0
 223              		.cfi_startproc
 224              		@ args = 0, pretend = 0, frame = 0
 225              		@ frame_needed = 0, uses_anonymous_args = 0
 226              		@ link register save eliminated.
 227              	.LVL26:
 180:.\Generated_Source\PSoC5/RX_CAN_TX_RX_func.c ****     if (bufferId < RX_CAN_NUMBER_OF_TX_MAILBOXES)
 228              		.loc 1 180 0
 229 0000 0728     		cmp	r0, #7
 230 0002 07D8     		bhi	.L24
 181:.\Generated_Source\PSoC5/RX_CAN_TX_RX_func.c ****     {
 182:.\Generated_Source\PSoC5/RX_CAN_TX_RX_func.c ****         RX_CAN_TX_ABORT_MESSAGE(bufferId);
 231              		.loc 1 182 0
 232 0004 0001     		lsls	r0, r0, #4
 233              	.LVL27:
 234 0006 044A     		ldr	r2, .L26
 235 0008 835C     		ldrb	r3, [r0, r2]	@ zero_extendqisi2
 236 000a 03F0FC03 		and	r3, r3, #252
 237 000e 43F00203 		orr	r3, r3, #2
 238 0012 8354     		strb	r3, [r0, r2]
 239              	.L24:
 240 0014 7047     		bx	lr
 241              	.L27:
 242 0016 00BF     		.align	2
 243              	.L26:
 244 0018 20A00040 		.word	1073782816
 245              		.cfi_endproc
 246              	.LFE1:
 247              		.size	RX_CAN_TxCancel, .-RX_CAN_TxCancel
 248              		.section	.text.RX_CAN_SendMsg0,"ax",%progbits
 249              		.align	2
 250              		.global	RX_CAN_SendMsg0
 251              		.thumb
 252              		.thumb_func
 253              		.type	RX_CAN_SendMsg0, %function
 254              	RX_CAN_SendMsg0:
 255              	.LFB2:
 183:.\Generated_Source\PSoC5/RX_CAN_TX_RX_func.c ****     }
 184:.\Generated_Source\PSoC5/RX_CAN_TX_RX_func.c **** }
 185:.\Generated_Source\PSoC5/RX_CAN_TX_RX_func.c **** 
 186:.\Generated_Source\PSoC5/RX_CAN_TX_RX_func.c **** 
 187:.\Generated_Source\PSoC5/RX_CAN_TX_RX_func.c **** #if (RX_CAN_TX0_FUNC_ENABLE)
 188:.\Generated_Source\PSoC5/RX_CAN_TX_RX_func.c ****     /*******************************************************************************
 189:.\Generated_Source\PSoC5/RX_CAN_TX_RX_func.c ****     * FUNCTION NAME:   RX_CAN_SendMsg0
 190:.\Generated_Source\PSoC5/RX_CAN_TX_RX_func.c ****     ********************************************************************************
 191:.\Generated_Source\PSoC5/RX_CAN_TX_RX_func.c ****     *
 192:.\Generated_Source\PSoC5/RX_CAN_TX_RX_func.c ****     * Summary:
 193:.\Generated_Source\PSoC5/RX_CAN_TX_RX_func.c ****     *  This function is the entry point to Transmit Message 0. The function checks
 194:.\Generated_Source\PSoC5/RX_CAN_TX_RX_func.c ****     *  if mailbox 0 doesn't already have un-transmitted messages waiting for
ARM GAS  C:\Users\HENRYA~1\AppData\Local\Temp\ccCjgxWq.s 			page 9


 195:.\Generated_Source\PSoC5/RX_CAN_TX_RX_func.c ****     *  arbitration. If not initiate transmission of the message.
 196:.\Generated_Source\PSoC5/RX_CAN_TX_RX_func.c ****     *  Generated only for the Transmit mailbox designed as Full.
 197:.\Generated_Source\PSoC5/RX_CAN_TX_RX_func.c ****     *
 198:.\Generated_Source\PSoC5/RX_CAN_TX_RX_func.c ****     * Parameters:
 199:.\Generated_Source\PSoC5/RX_CAN_TX_RX_func.c ****     *  None.
 200:.\Generated_Source\PSoC5/RX_CAN_TX_RX_func.c ****     *
 201:.\Generated_Source\PSoC5/RX_CAN_TX_RX_func.c ****     * Return:
 202:.\Generated_Source\PSoC5/RX_CAN_TX_RX_func.c ****     *  Indication if Message has been sent.
 203:.\Generated_Source\PSoC5/RX_CAN_TX_RX_func.c ****     *   Define                             Description
 204:.\Generated_Source\PSoC5/RX_CAN_TX_RX_func.c ****     *    CYRET_SUCCESS                      The function passed successfully
 205:.\Generated_Source\PSoC5/RX_CAN_TX_RX_func.c ****     *    RX_CAN_FAIL              The function failed
 206:.\Generated_Source\PSoC5/RX_CAN_TX_RX_func.c ****     *
 207:.\Generated_Source\PSoC5/RX_CAN_TX_RX_func.c ****     *******************************************************************************/
 208:.\Generated_Source\PSoC5/RX_CAN_TX_RX_func.c ****     uint8 RX_CAN_SendMsg0(void) 
 209:.\Generated_Source\PSoC5/RX_CAN_TX_RX_func.c ****     {
 256              		.loc 1 209 0
 257              		.cfi_startproc
 258              		@ args = 0, pretend = 0, frame = 0
 259              		@ frame_needed = 0, uses_anonymous_args = 0
 260              		@ link register save eliminated.
 261              	.LVL28:
 210:.\Generated_Source\PSoC5/RX_CAN_TX_RX_func.c ****         uint8 result = CYRET_SUCCESS;
 211:.\Generated_Source\PSoC5/RX_CAN_TX_RX_func.c **** 
 212:.\Generated_Source\PSoC5/RX_CAN_TX_RX_func.c ****         #if (CY_PSOC3 || CY_PSOC5)
 213:.\Generated_Source\PSoC5/RX_CAN_TX_RX_func.c ****             if ((RX_CAN_TX[0u].txcmd.byte[0u] & RX_CAN_TX_REQUEST_PENDING) != 0u)
 262              		.loc 1 213 0
 263 0000 064B     		ldr	r3, .L31
 264 0002 1B78     		ldrb	r3, [r3]	@ zero_extendqisi2
 265 0004 13F0010F 		tst	r3, #1
 266 0008 06D1     		bne	.L30
 214:.\Generated_Source\PSoC5/RX_CAN_TX_RX_func.c ****         #else  /* CY_PSOC4 */
 215:.\Generated_Source\PSoC5/RX_CAN_TX_RX_func.c ****             if ((RX_CAN_TX_CMD_REG(0u) & RX_CAN_TX_REQUEST_PENDING) != 0u)
 216:.\Generated_Source\PSoC5/RX_CAN_TX_RX_func.c ****         #endif /* CY_PSOC3 || CY_PSOC5 */
 217:.\Generated_Source\PSoC5/RX_CAN_TX_RX_func.c ****             {
 218:.\Generated_Source\PSoC5/RX_CAN_TX_RX_func.c ****                 result = RX_CAN_FAIL;
 219:.\Generated_Source\PSoC5/RX_CAN_TX_RX_func.c ****             }
 220:.\Generated_Source\PSoC5/RX_CAN_TX_RX_func.c ****             else
 221:.\Generated_Source\PSoC5/RX_CAN_TX_RX_func.c ****             {
 222:.\Generated_Source\PSoC5/RX_CAN_TX_RX_func.c ****                 /* `#START MESSAGE_0_TRASMITTED` */
 223:.\Generated_Source\PSoC5/RX_CAN_TX_RX_func.c **** 
 224:.\Generated_Source\PSoC5/RX_CAN_TX_RX_func.c ****                 /* `#END` */
 225:.\Generated_Source\PSoC5/RX_CAN_TX_RX_func.c **** 
 226:.\Generated_Source\PSoC5/RX_CAN_TX_RX_func.c ****                 #ifdef RX_CAN_SEND_MSG_0_CALLBACK
 227:.\Generated_Source\PSoC5/RX_CAN_TX_RX_func.c ****                     RX_CAN_SendMsg_0_Callback();
 228:.\Generated_Source\PSoC5/RX_CAN_TX_RX_func.c ****                 #endif /* RX_CAN_SEND_MSG_0_CALLBACK */
 229:.\Generated_Source\PSoC5/RX_CAN_TX_RX_func.c **** 
 230:.\Generated_Source\PSoC5/RX_CAN_TX_RX_func.c ****                 CY_SET_REG32(RX_CAN_TX_CMD_PTR(0u),
 267              		.loc 1 230 0
 268 000a 044A     		ldr	r2, .L31
 269 000c 1368     		ldr	r3, [r2]
 270 000e 43F00103 		orr	r3, r3, #1
 271 0012 1360     		str	r3, [r2]
 210:.\Generated_Source\PSoC5/RX_CAN_TX_RX_func.c ****         uint8 result = CYRET_SUCCESS;
 272              		.loc 1 210 0
 273 0014 0020     		movs	r0, #0
 274 0016 7047     		bx	lr
 275              	.L30:
ARM GAS  C:\Users\HENRYA~1\AppData\Local\Temp\ccCjgxWq.s 			page 10


 218:.\Generated_Source\PSoC5/RX_CAN_TX_RX_func.c ****             }
 276              		.loc 1 218 0
 277 0018 0120     		movs	r0, #1
 278              	.LVL29:
 231:.\Generated_Source\PSoC5/RX_CAN_TX_RX_func.c ****                 CY_GET_REG32(RX_CAN_TX_CMD_PTR(0u)) | RX_CAN_SEND_MESSAGE);
 232:.\Generated_Source\PSoC5/RX_CAN_TX_RX_func.c ****             }
 233:.\Generated_Source\PSoC5/RX_CAN_TX_RX_func.c **** 
 234:.\Generated_Source\PSoC5/RX_CAN_TX_RX_func.c ****         return (result);
 235:.\Generated_Source\PSoC5/RX_CAN_TX_RX_func.c ****     }
 279              		.loc 1 235 0
 280 001a 7047     		bx	lr
 281              	.L32:
 282              		.align	2
 283              	.L31:
 284 001c 20A00040 		.word	1073782816
 285              		.cfi_endproc
 286              	.LFE2:
 287              		.size	RX_CAN_SendMsg0, .-RX_CAN_SendMsg0
 288              		.section	.text.RX_CAN_SendMsg1,"ax",%progbits
 289              		.align	2
 290              		.global	RX_CAN_SendMsg1
 291              		.thumb
 292              		.thumb_func
 293              		.type	RX_CAN_SendMsg1, %function
 294              	RX_CAN_SendMsg1:
 295              	.LFB3:
 236:.\Generated_Source\PSoC5/RX_CAN_TX_RX_func.c **** #endif /* RX_CAN_TX0_FUNC_ENABLE */
 237:.\Generated_Source\PSoC5/RX_CAN_TX_RX_func.c **** 
 238:.\Generated_Source\PSoC5/RX_CAN_TX_RX_func.c **** 
 239:.\Generated_Source\PSoC5/RX_CAN_TX_RX_func.c **** #if (RX_CAN_TX1_FUNC_ENABLE)
 240:.\Generated_Source\PSoC5/RX_CAN_TX_RX_func.c ****     /*******************************************************************************
 241:.\Generated_Source\PSoC5/RX_CAN_TX_RX_func.c ****     * FUNCTION NAME:   RX_CAN_SendMsg1
 242:.\Generated_Source\PSoC5/RX_CAN_TX_RX_func.c ****     ********************************************************************************
 243:.\Generated_Source\PSoC5/RX_CAN_TX_RX_func.c ****     *
 244:.\Generated_Source\PSoC5/RX_CAN_TX_RX_func.c ****     * Summary:
 245:.\Generated_Source\PSoC5/RX_CAN_TX_RX_func.c ****     *  This function is the entry point to Transmit Message 1. The function checks
 246:.\Generated_Source\PSoC5/RX_CAN_TX_RX_func.c ****     *  if mailbox 1 doesn't already have un-transmitted messages waiting for
 247:.\Generated_Source\PSoC5/RX_CAN_TX_RX_func.c ****     *  arbitration. If not initiate transmission of the message.
 248:.\Generated_Source\PSoC5/RX_CAN_TX_RX_func.c ****     *  Generated only for the Transmit mailbox designed as Full.
 249:.\Generated_Source\PSoC5/RX_CAN_TX_RX_func.c ****     *
 250:.\Generated_Source\PSoC5/RX_CAN_TX_RX_func.c ****     * Parameters:
 251:.\Generated_Source\PSoC5/RX_CAN_TX_RX_func.c ****     *  None.
 252:.\Generated_Source\PSoC5/RX_CAN_TX_RX_func.c ****     *
 253:.\Generated_Source\PSoC5/RX_CAN_TX_RX_func.c ****     * Return:
 254:.\Generated_Source\PSoC5/RX_CAN_TX_RX_func.c ****     *  Indication if Message has been sent.
 255:.\Generated_Source\PSoC5/RX_CAN_TX_RX_func.c ****     *   Define                             Description
 256:.\Generated_Source\PSoC5/RX_CAN_TX_RX_func.c ****     *    CYRET_SUCCESS                      The function passed successfully
 257:.\Generated_Source\PSoC5/RX_CAN_TX_RX_func.c ****     *    RX_CAN_FAIL              The function failed
 258:.\Generated_Source\PSoC5/RX_CAN_TX_RX_func.c ****     *
 259:.\Generated_Source\PSoC5/RX_CAN_TX_RX_func.c ****     *******************************************************************************/
 260:.\Generated_Source\PSoC5/RX_CAN_TX_RX_func.c ****     uint8 RX_CAN_SendMsg1(void) 
 261:.\Generated_Source\PSoC5/RX_CAN_TX_RX_func.c ****     {
 296              		.loc 1 261 0
 297              		.cfi_startproc
 298              		@ args = 0, pretend = 0, frame = 0
 299              		@ frame_needed = 0, uses_anonymous_args = 0
 300              		@ link register save eliminated.
ARM GAS  C:\Users\HENRYA~1\AppData\Local\Temp\ccCjgxWq.s 			page 11


 301              	.LVL30:
 262:.\Generated_Source\PSoC5/RX_CAN_TX_RX_func.c ****         uint8 result = CYRET_SUCCESS;
 263:.\Generated_Source\PSoC5/RX_CAN_TX_RX_func.c **** 
 264:.\Generated_Source\PSoC5/RX_CAN_TX_RX_func.c ****         #if (CY_PSOC3 || CY_PSOC5)
 265:.\Generated_Source\PSoC5/RX_CAN_TX_RX_func.c ****             if ((RX_CAN_TX[1u].txcmd.byte[0u] & RX_CAN_TX_REQUEST_PENDING) != 0u)
 302              		.loc 1 265 0
 303 0000 064B     		ldr	r3, .L36
 304 0002 1B78     		ldrb	r3, [r3]	@ zero_extendqisi2
 305 0004 13F0010F 		tst	r3, #1
 306 0008 06D1     		bne	.L35
 266:.\Generated_Source\PSoC5/RX_CAN_TX_RX_func.c ****         #else  /* CY_PSOC4 */
 267:.\Generated_Source\PSoC5/RX_CAN_TX_RX_func.c ****             if ((RX_CAN_TX_CMD_REG(1u) & RX_CAN_TX_REQUEST_PENDING) != 0u)
 268:.\Generated_Source\PSoC5/RX_CAN_TX_RX_func.c ****         #endif /* CY_PSOC3 || CY_PSOC5 */
 269:.\Generated_Source\PSoC5/RX_CAN_TX_RX_func.c ****             {
 270:.\Generated_Source\PSoC5/RX_CAN_TX_RX_func.c ****                 result = RX_CAN_FAIL;
 271:.\Generated_Source\PSoC5/RX_CAN_TX_RX_func.c ****             }
 272:.\Generated_Source\PSoC5/RX_CAN_TX_RX_func.c ****             else
 273:.\Generated_Source\PSoC5/RX_CAN_TX_RX_func.c ****             {
 274:.\Generated_Source\PSoC5/RX_CAN_TX_RX_func.c ****                 /* `#START MESSAGE_1_TRASMITTED` */
 275:.\Generated_Source\PSoC5/RX_CAN_TX_RX_func.c **** 
 276:.\Generated_Source\PSoC5/RX_CAN_TX_RX_func.c ****                 /* `#END` */
 277:.\Generated_Source\PSoC5/RX_CAN_TX_RX_func.c **** 
 278:.\Generated_Source\PSoC5/RX_CAN_TX_RX_func.c ****                 #ifdef RX_CAN_SEND_MSG_1_CALLBACK
 279:.\Generated_Source\PSoC5/RX_CAN_TX_RX_func.c ****                     RX_CAN_SendMsg_1_Callback();
 280:.\Generated_Source\PSoC5/RX_CAN_TX_RX_func.c ****                 #endif /* RX_CAN_SEND_MSG_1_CALLBACK */
 281:.\Generated_Source\PSoC5/RX_CAN_TX_RX_func.c **** 
 282:.\Generated_Source\PSoC5/RX_CAN_TX_RX_func.c ****                 CY_SET_REG32(RX_CAN_TX_CMD_PTR(1u),
 307              		.loc 1 282 0
 308 000a 044A     		ldr	r2, .L36
 309 000c 1368     		ldr	r3, [r2]
 310 000e 43F00103 		orr	r3, r3, #1
 311 0012 1360     		str	r3, [r2]
 262:.\Generated_Source\PSoC5/RX_CAN_TX_RX_func.c ****         uint8 result = CYRET_SUCCESS;
 312              		.loc 1 262 0
 313 0014 0020     		movs	r0, #0
 314 0016 7047     		bx	lr
 315              	.L35:
 270:.\Generated_Source\PSoC5/RX_CAN_TX_RX_func.c ****             }
 316              		.loc 1 270 0
 317 0018 0120     		movs	r0, #1
 318              	.LVL31:
 283:.\Generated_Source\PSoC5/RX_CAN_TX_RX_func.c ****                 CY_GET_REG32(RX_CAN_TX_CMD_PTR(1u)) | RX_CAN_SEND_MESSAGE);
 284:.\Generated_Source\PSoC5/RX_CAN_TX_RX_func.c ****             }
 285:.\Generated_Source\PSoC5/RX_CAN_TX_RX_func.c **** 
 286:.\Generated_Source\PSoC5/RX_CAN_TX_RX_func.c ****         return (result);
 287:.\Generated_Source\PSoC5/RX_CAN_TX_RX_func.c ****     }
 319              		.loc 1 287 0
 320 001a 7047     		bx	lr
 321              	.L37:
 322              		.align	2
 323              	.L36:
 324 001c 30A00040 		.word	1073782832
 325              		.cfi_endproc
 326              	.LFE3:
 327              		.size	RX_CAN_SendMsg1, .-RX_CAN_SendMsg1
 328              		.section	.text.RX_CAN_SendMsg2,"ax",%progbits
 329              		.align	2
ARM GAS  C:\Users\HENRYA~1\AppData\Local\Temp\ccCjgxWq.s 			page 12


 330              		.global	RX_CAN_SendMsg2
 331              		.thumb
 332              		.thumb_func
 333              		.type	RX_CAN_SendMsg2, %function
 334              	RX_CAN_SendMsg2:
 335              	.LFB4:
 288:.\Generated_Source\PSoC5/RX_CAN_TX_RX_func.c **** #endif /* RX_CAN_TX1_FUNC_ENABLE */
 289:.\Generated_Source\PSoC5/RX_CAN_TX_RX_func.c **** 
 290:.\Generated_Source\PSoC5/RX_CAN_TX_RX_func.c **** 
 291:.\Generated_Source\PSoC5/RX_CAN_TX_RX_func.c **** #if (RX_CAN_TX2_FUNC_ENABLE)
 292:.\Generated_Source\PSoC5/RX_CAN_TX_RX_func.c ****     /*******************************************************************************
 293:.\Generated_Source\PSoC5/RX_CAN_TX_RX_func.c ****     * FUNCTION NAME:   RX_CAN_SendMsg2
 294:.\Generated_Source\PSoC5/RX_CAN_TX_RX_func.c ****     ********************************************************************************
 295:.\Generated_Source\PSoC5/RX_CAN_TX_RX_func.c ****     *
 296:.\Generated_Source\PSoC5/RX_CAN_TX_RX_func.c ****     * Summary:
 297:.\Generated_Source\PSoC5/RX_CAN_TX_RX_func.c ****     *  This function is the entry point to Transmit Message 2. The function checks
 298:.\Generated_Source\PSoC5/RX_CAN_TX_RX_func.c ****     *  if mailbox 2 doesn't already have un-transmitted messages waiting for
 299:.\Generated_Source\PSoC5/RX_CAN_TX_RX_func.c ****     *  arbitration. If not initiate transmission of the message.
 300:.\Generated_Source\PSoC5/RX_CAN_TX_RX_func.c ****     *  Generated only for the Transmit mailbox designed as Full.
 301:.\Generated_Source\PSoC5/RX_CAN_TX_RX_func.c ****     *
 302:.\Generated_Source\PSoC5/RX_CAN_TX_RX_func.c ****     * Parameters:
 303:.\Generated_Source\PSoC5/RX_CAN_TX_RX_func.c ****     *  None.
 304:.\Generated_Source\PSoC5/RX_CAN_TX_RX_func.c ****     *
 305:.\Generated_Source\PSoC5/RX_CAN_TX_RX_func.c ****     * Return:
 306:.\Generated_Source\PSoC5/RX_CAN_TX_RX_func.c ****     *  Indication if Message has been sent.
 307:.\Generated_Source\PSoC5/RX_CAN_TX_RX_func.c ****     *   Define                             Description
 308:.\Generated_Source\PSoC5/RX_CAN_TX_RX_func.c ****     *    CYRET_SUCCESS                      The function passed successfully
 309:.\Generated_Source\PSoC5/RX_CAN_TX_RX_func.c ****     *    RX_CAN_FAIL              The function failed
 310:.\Generated_Source\PSoC5/RX_CAN_TX_RX_func.c ****     *
 311:.\Generated_Source\PSoC5/RX_CAN_TX_RX_func.c ****     *******************************************************************************/
 312:.\Generated_Source\PSoC5/RX_CAN_TX_RX_func.c ****     uint8 RX_CAN_SendMsg2(void) 
 313:.\Generated_Source\PSoC5/RX_CAN_TX_RX_func.c ****     {
 336              		.loc 1 313 0
 337              		.cfi_startproc
 338              		@ args = 0, pretend = 0, frame = 0
 339              		@ frame_needed = 0, uses_anonymous_args = 0
 340              		@ link register save eliminated.
 341              	.LVL32:
 314:.\Generated_Source\PSoC5/RX_CAN_TX_RX_func.c ****         uint8 result = CYRET_SUCCESS;
 315:.\Generated_Source\PSoC5/RX_CAN_TX_RX_func.c **** 
 316:.\Generated_Source\PSoC5/RX_CAN_TX_RX_func.c ****         #if (CY_PSOC3 || CY_PSOC5)
 317:.\Generated_Source\PSoC5/RX_CAN_TX_RX_func.c ****             if ((RX_CAN_TX[2u].txcmd.byte[0u] & RX_CAN_TX_REQUEST_PENDING) != 0u)
 342              		.loc 1 317 0
 343 0000 064B     		ldr	r3, .L41
 344 0002 1B78     		ldrb	r3, [r3]	@ zero_extendqisi2
 345 0004 13F0010F 		tst	r3, #1
 346 0008 06D1     		bne	.L40
 318:.\Generated_Source\PSoC5/RX_CAN_TX_RX_func.c ****         #else  /* CY_PSOC4 */
 319:.\Generated_Source\PSoC5/RX_CAN_TX_RX_func.c ****             if ((RX_CAN_TX_CMD_REG(2u) & RX_CAN_TX_REQUEST_PENDING) != 0u)
 320:.\Generated_Source\PSoC5/RX_CAN_TX_RX_func.c ****         #endif /* CY_PSOC3 || CY_PSOC5 */
 321:.\Generated_Source\PSoC5/RX_CAN_TX_RX_func.c ****             {
 322:.\Generated_Source\PSoC5/RX_CAN_TX_RX_func.c ****                 result = RX_CAN_FAIL;
 323:.\Generated_Source\PSoC5/RX_CAN_TX_RX_func.c ****             }
 324:.\Generated_Source\PSoC5/RX_CAN_TX_RX_func.c ****             else
 325:.\Generated_Source\PSoC5/RX_CAN_TX_RX_func.c ****             {
 326:.\Generated_Source\PSoC5/RX_CAN_TX_RX_func.c ****                 /* `#START MESSAGE_2_TRASMITTED` */
 327:.\Generated_Source\PSoC5/RX_CAN_TX_RX_func.c **** 
ARM GAS  C:\Users\HENRYA~1\AppData\Local\Temp\ccCjgxWq.s 			page 13


 328:.\Generated_Source\PSoC5/RX_CAN_TX_RX_func.c ****                 /* `#END` */
 329:.\Generated_Source\PSoC5/RX_CAN_TX_RX_func.c **** 
 330:.\Generated_Source\PSoC5/RX_CAN_TX_RX_func.c ****                 #ifdef RX_CAN_SEND_MSG_2_CALLBACK
 331:.\Generated_Source\PSoC5/RX_CAN_TX_RX_func.c ****                     RX_CAN_SendMsg_2_Callback();
 332:.\Generated_Source\PSoC5/RX_CAN_TX_RX_func.c ****                 #endif /* RX_CAN_SEND_MSG_2_CALLBACK */
 333:.\Generated_Source\PSoC5/RX_CAN_TX_RX_func.c **** 
 334:.\Generated_Source\PSoC5/RX_CAN_TX_RX_func.c ****                 CY_SET_REG32(RX_CAN_TX_CMD_PTR(2u),
 347              		.loc 1 334 0
 348 000a 044A     		ldr	r2, .L41
 349 000c 1368     		ldr	r3, [r2]
 350 000e 43F00103 		orr	r3, r3, #1
 351 0012 1360     		str	r3, [r2]
 314:.\Generated_Source\PSoC5/RX_CAN_TX_RX_func.c ****         uint8 result = CYRET_SUCCESS;
 352              		.loc 1 314 0
 353 0014 0020     		movs	r0, #0
 354 0016 7047     		bx	lr
 355              	.L40:
 322:.\Generated_Source\PSoC5/RX_CAN_TX_RX_func.c ****             }
 356              		.loc 1 322 0
 357 0018 0120     		movs	r0, #1
 358              	.LVL33:
 335:.\Generated_Source\PSoC5/RX_CAN_TX_RX_func.c ****                 CY_GET_REG32(RX_CAN_TX_CMD_PTR(2u)) | RX_CAN_SEND_MESSAGE);
 336:.\Generated_Source\PSoC5/RX_CAN_TX_RX_func.c ****             }
 337:.\Generated_Source\PSoC5/RX_CAN_TX_RX_func.c **** 
 338:.\Generated_Source\PSoC5/RX_CAN_TX_RX_func.c ****         return (result);
 339:.\Generated_Source\PSoC5/RX_CAN_TX_RX_func.c ****     }
 359              		.loc 1 339 0
 360 001a 7047     		bx	lr
 361              	.L42:
 362              		.align	2
 363              	.L41:
 364 001c 40A00040 		.word	1073782848
 365              		.cfi_endproc
 366              	.LFE4:
 367              		.size	RX_CAN_SendMsg2, .-RX_CAN_SendMsg2
 368              		.section	.text.RX_CAN_SendMsg3,"ax",%progbits
 369              		.align	2
 370              		.global	RX_CAN_SendMsg3
 371              		.thumb
 372              		.thumb_func
 373              		.type	RX_CAN_SendMsg3, %function
 374              	RX_CAN_SendMsg3:
 375              	.LFB5:
 340:.\Generated_Source\PSoC5/RX_CAN_TX_RX_func.c **** #endif /* RX_CAN_TX2_FUNC_ENABLE */
 341:.\Generated_Source\PSoC5/RX_CAN_TX_RX_func.c **** 
 342:.\Generated_Source\PSoC5/RX_CAN_TX_RX_func.c **** 
 343:.\Generated_Source\PSoC5/RX_CAN_TX_RX_func.c **** #if (RX_CAN_TX3_FUNC_ENABLE)
 344:.\Generated_Source\PSoC5/RX_CAN_TX_RX_func.c ****     /*******************************************************************************
 345:.\Generated_Source\PSoC5/RX_CAN_TX_RX_func.c ****     * FUNCTION NAME:   RX_CAN_SendMsg3
 346:.\Generated_Source\PSoC5/RX_CAN_TX_RX_func.c ****     ********************************************************************************
 347:.\Generated_Source\PSoC5/RX_CAN_TX_RX_func.c ****     *
 348:.\Generated_Source\PSoC5/RX_CAN_TX_RX_func.c ****     * Summary:
 349:.\Generated_Source\PSoC5/RX_CAN_TX_RX_func.c ****     *  This function is the entry point to Transmit Message 3. The function checks
 350:.\Generated_Source\PSoC5/RX_CAN_TX_RX_func.c ****     *  if mailbox 3 doesn't already have un-transmitted messages waiting for
 351:.\Generated_Source\PSoC5/RX_CAN_TX_RX_func.c ****     *  arbitration. If not initiate transmission of the message.
 352:.\Generated_Source\PSoC5/RX_CAN_TX_RX_func.c ****     *  Generated only for the Transmit mailbox designed as Full.
 353:.\Generated_Source\PSoC5/RX_CAN_TX_RX_func.c ****     *
ARM GAS  C:\Users\HENRYA~1\AppData\Local\Temp\ccCjgxWq.s 			page 14


 354:.\Generated_Source\PSoC5/RX_CAN_TX_RX_func.c ****     * Parameters:
 355:.\Generated_Source\PSoC5/RX_CAN_TX_RX_func.c ****     *  None.
 356:.\Generated_Source\PSoC5/RX_CAN_TX_RX_func.c ****     *
 357:.\Generated_Source\PSoC5/RX_CAN_TX_RX_func.c ****     * Return:
 358:.\Generated_Source\PSoC5/RX_CAN_TX_RX_func.c ****     *  Indication if Message has been sent.
 359:.\Generated_Source\PSoC5/RX_CAN_TX_RX_func.c ****     *   Define                             Description
 360:.\Generated_Source\PSoC5/RX_CAN_TX_RX_func.c ****     *    CYRET_SUCCESS                      The function passed successfully
 361:.\Generated_Source\PSoC5/RX_CAN_TX_RX_func.c ****     *    RX_CAN_FAIL              The function failed
 362:.\Generated_Source\PSoC5/RX_CAN_TX_RX_func.c ****     *
 363:.\Generated_Source\PSoC5/RX_CAN_TX_RX_func.c ****     *******************************************************************************/
 364:.\Generated_Source\PSoC5/RX_CAN_TX_RX_func.c ****     uint8 RX_CAN_SendMsg3(void) 
 365:.\Generated_Source\PSoC5/RX_CAN_TX_RX_func.c ****     {
 376              		.loc 1 365 0
 377              		.cfi_startproc
 378              		@ args = 0, pretend = 0, frame = 0
 379              		@ frame_needed = 0, uses_anonymous_args = 0
 380              		@ link register save eliminated.
 381              	.LVL34:
 366:.\Generated_Source\PSoC5/RX_CAN_TX_RX_func.c ****         uint8 result = CYRET_SUCCESS;
 367:.\Generated_Source\PSoC5/RX_CAN_TX_RX_func.c **** 
 368:.\Generated_Source\PSoC5/RX_CAN_TX_RX_func.c ****         #if (CY_PSOC3 || CY_PSOC5)
 369:.\Generated_Source\PSoC5/RX_CAN_TX_RX_func.c ****             if ((RX_CAN_TX[3u].txcmd.byte[0u] & RX_CAN_TX_REQUEST_PENDING) != 0u)
 382              		.loc 1 369 0
 383 0000 064B     		ldr	r3, .L46
 384 0002 1B78     		ldrb	r3, [r3]	@ zero_extendqisi2
 385 0004 13F0010F 		tst	r3, #1
 386 0008 06D1     		bne	.L45
 370:.\Generated_Source\PSoC5/RX_CAN_TX_RX_func.c ****         #else  /* CY_PSOC4 */
 371:.\Generated_Source\PSoC5/RX_CAN_TX_RX_func.c ****             if ((RX_CAN_TX_CMD_REG(3u) & RX_CAN_TX_REQUEST_PENDING) != 0u)
 372:.\Generated_Source\PSoC5/RX_CAN_TX_RX_func.c ****         #endif /* CY_PSOC3 || CY_PSOC5 */
 373:.\Generated_Source\PSoC5/RX_CAN_TX_RX_func.c ****             {
 374:.\Generated_Source\PSoC5/RX_CAN_TX_RX_func.c ****                 result = RX_CAN_FAIL;
 375:.\Generated_Source\PSoC5/RX_CAN_TX_RX_func.c ****             }
 376:.\Generated_Source\PSoC5/RX_CAN_TX_RX_func.c ****             else
 377:.\Generated_Source\PSoC5/RX_CAN_TX_RX_func.c ****             {
 378:.\Generated_Source\PSoC5/RX_CAN_TX_RX_func.c ****                 /* `#START MESSAGE_3_TRASMITTED` */
 379:.\Generated_Source\PSoC5/RX_CAN_TX_RX_func.c **** 
 380:.\Generated_Source\PSoC5/RX_CAN_TX_RX_func.c ****                 /* `#END` */
 381:.\Generated_Source\PSoC5/RX_CAN_TX_RX_func.c **** 
 382:.\Generated_Source\PSoC5/RX_CAN_TX_RX_func.c ****                 #ifdef RX_CAN_SEND_MSG_3_CALLBACK
 383:.\Generated_Source\PSoC5/RX_CAN_TX_RX_func.c ****                     RX_CAN_SendMsg_3_Callback();
 384:.\Generated_Source\PSoC5/RX_CAN_TX_RX_func.c ****                 #endif /* RX_CAN_SEND_MSG_3_CALLBACK */
 385:.\Generated_Source\PSoC5/RX_CAN_TX_RX_func.c **** 
 386:.\Generated_Source\PSoC5/RX_CAN_TX_RX_func.c ****                 CY_SET_REG32(RX_CAN_TX_CMD_PTR(3u),
 387              		.loc 1 386 0
 388 000a 044A     		ldr	r2, .L46
 389 000c 1368     		ldr	r3, [r2]
 390 000e 43F00103 		orr	r3, r3, #1
 391 0012 1360     		str	r3, [r2]
 366:.\Generated_Source\PSoC5/RX_CAN_TX_RX_func.c ****         uint8 result = CYRET_SUCCESS;
 392              		.loc 1 366 0
 393 0014 0020     		movs	r0, #0
 394 0016 7047     		bx	lr
 395              	.L45:
 374:.\Generated_Source\PSoC5/RX_CAN_TX_RX_func.c ****             }
 396              		.loc 1 374 0
 397 0018 0120     		movs	r0, #1
ARM GAS  C:\Users\HENRYA~1\AppData\Local\Temp\ccCjgxWq.s 			page 15


 398              	.LVL35:
 387:.\Generated_Source\PSoC5/RX_CAN_TX_RX_func.c ****                 CY_GET_REG32(RX_CAN_TX_CMD_PTR(3u)) | RX_CAN_SEND_MESSAGE);
 388:.\Generated_Source\PSoC5/RX_CAN_TX_RX_func.c ****             }
 389:.\Generated_Source\PSoC5/RX_CAN_TX_RX_func.c **** 
 390:.\Generated_Source\PSoC5/RX_CAN_TX_RX_func.c ****         return (result);
 391:.\Generated_Source\PSoC5/RX_CAN_TX_RX_func.c ****     }
 399              		.loc 1 391 0
 400 001a 7047     		bx	lr
 401              	.L47:
 402              		.align	2
 403              	.L46:
 404 001c 50A00040 		.word	1073782864
 405              		.cfi_endproc
 406              	.LFE5:
 407              		.size	RX_CAN_SendMsg3, .-RX_CAN_SendMsg3
 408              		.section	.text.RX_CAN_ReceiveMsg,"ax",%progbits
 409              		.align	2
 410              		.global	RX_CAN_ReceiveMsg
 411              		.thumb
 412              		.thumb_func
 413              		.type	RX_CAN_ReceiveMsg, %function
 414              	RX_CAN_ReceiveMsg:
 415              	.LFB6:
 392:.\Generated_Source\PSoC5/RX_CAN_TX_RX_func.c **** #endif /* RX_CAN_TX3_FUNC_ENABLE */
 393:.\Generated_Source\PSoC5/RX_CAN_TX_RX_func.c **** 
 394:.\Generated_Source\PSoC5/RX_CAN_TX_RX_func.c **** 
 395:.\Generated_Source\PSoC5/RX_CAN_TX_RX_func.c **** #if (RX_CAN_TX4_FUNC_ENABLE)
 396:.\Generated_Source\PSoC5/RX_CAN_TX_RX_func.c ****     /*******************************************************************************
 397:.\Generated_Source\PSoC5/RX_CAN_TX_RX_func.c ****     * FUNCTION NAME:   RX_CAN_SendMsg4
 398:.\Generated_Source\PSoC5/RX_CAN_TX_RX_func.c ****     ********************************************************************************
 399:.\Generated_Source\PSoC5/RX_CAN_TX_RX_func.c ****     *
 400:.\Generated_Source\PSoC5/RX_CAN_TX_RX_func.c ****     * Summary:
 401:.\Generated_Source\PSoC5/RX_CAN_TX_RX_func.c ****     *  This function is the entry point to Transmit Message 4. The function checks
 402:.\Generated_Source\PSoC5/RX_CAN_TX_RX_func.c ****     *  if mailbox 4 doesn't already have un-transmitted messages waiting for
 403:.\Generated_Source\PSoC5/RX_CAN_TX_RX_func.c ****     *  arbitration. If not initiate transmission of the message.
 404:.\Generated_Source\PSoC5/RX_CAN_TX_RX_func.c ****     *  Generated only for the Transmit mailbox designed as Full.
 405:.\Generated_Source\PSoC5/RX_CAN_TX_RX_func.c ****     *
 406:.\Generated_Source\PSoC5/RX_CAN_TX_RX_func.c ****     * Parameters:
 407:.\Generated_Source\PSoC5/RX_CAN_TX_RX_func.c ****     *  None.
 408:.\Generated_Source\PSoC5/RX_CAN_TX_RX_func.c ****     *
 409:.\Generated_Source\PSoC5/RX_CAN_TX_RX_func.c ****     * Return:
 410:.\Generated_Source\PSoC5/RX_CAN_TX_RX_func.c ****     *  Indication if Message has been sent.
 411:.\Generated_Source\PSoC5/RX_CAN_TX_RX_func.c ****     *   Define                             Description
 412:.\Generated_Source\PSoC5/RX_CAN_TX_RX_func.c ****     *    CYRET_SUCCESS                      The function passed successfully
 413:.\Generated_Source\PSoC5/RX_CAN_TX_RX_func.c ****     *    RX_CAN_FAIL              The function failed
 414:.\Generated_Source\PSoC5/RX_CAN_TX_RX_func.c ****     *
 415:.\Generated_Source\PSoC5/RX_CAN_TX_RX_func.c ****     *******************************************************************************/
 416:.\Generated_Source\PSoC5/RX_CAN_TX_RX_func.c ****     uint8 RX_CAN_SendMsg4(void) 
 417:.\Generated_Source\PSoC5/RX_CAN_TX_RX_func.c ****     {
 418:.\Generated_Source\PSoC5/RX_CAN_TX_RX_func.c ****         uint8 result = CYRET_SUCCESS;
 419:.\Generated_Source\PSoC5/RX_CAN_TX_RX_func.c **** 
 420:.\Generated_Source\PSoC5/RX_CAN_TX_RX_func.c ****         #if (CY_PSOC3 || CY_PSOC5)
 421:.\Generated_Source\PSoC5/RX_CAN_TX_RX_func.c ****             if ((RX_CAN_TX[4u].txcmd.byte[0u] & RX_CAN_TX_REQUEST_PENDING) != 0u)
 422:.\Generated_Source\PSoC5/RX_CAN_TX_RX_func.c ****         #else  /* CY_PSOC4 */
 423:.\Generated_Source\PSoC5/RX_CAN_TX_RX_func.c ****             if ((RX_CAN_TX_CMD_REG(4u) & RX_CAN_TX_REQUEST_PENDING) != 0u)
 424:.\Generated_Source\PSoC5/RX_CAN_TX_RX_func.c ****         #endif /* CY_PSOC3 || CY_PSOC5 */
 425:.\Generated_Source\PSoC5/RX_CAN_TX_RX_func.c ****             {
ARM GAS  C:\Users\HENRYA~1\AppData\Local\Temp\ccCjgxWq.s 			page 16


 426:.\Generated_Source\PSoC5/RX_CAN_TX_RX_func.c ****                 result = RX_CAN_FAIL;
 427:.\Generated_Source\PSoC5/RX_CAN_TX_RX_func.c ****             }
 428:.\Generated_Source\PSoC5/RX_CAN_TX_RX_func.c ****             else
 429:.\Generated_Source\PSoC5/RX_CAN_TX_RX_func.c ****             {
 430:.\Generated_Source\PSoC5/RX_CAN_TX_RX_func.c ****                 /* `#START MESSAGE_4_TRASMITTED` */
 431:.\Generated_Source\PSoC5/RX_CAN_TX_RX_func.c **** 
 432:.\Generated_Source\PSoC5/RX_CAN_TX_RX_func.c ****                 /* `#END` */
 433:.\Generated_Source\PSoC5/RX_CAN_TX_RX_func.c **** 
 434:.\Generated_Source\PSoC5/RX_CAN_TX_RX_func.c ****                 #ifdef RX_CAN_SEND_MSG_4_CALLBACK
 435:.\Generated_Source\PSoC5/RX_CAN_TX_RX_func.c ****                     RX_CAN_SendMsg_4_Callback();
 436:.\Generated_Source\PSoC5/RX_CAN_TX_RX_func.c ****                 #endif /* RX_CAN_SEND_MSG_4_CALLBACK */
 437:.\Generated_Source\PSoC5/RX_CAN_TX_RX_func.c **** 
 438:.\Generated_Source\PSoC5/RX_CAN_TX_RX_func.c ****                 CY_SET_REG32(RX_CAN_TX_CMD_PTR(4u),
 439:.\Generated_Source\PSoC5/RX_CAN_TX_RX_func.c ****                 CY_GET_REG32(RX_CAN_TX_CMD_PTR(4u)) | RX_CAN_SEND_MESSAGE);
 440:.\Generated_Source\PSoC5/RX_CAN_TX_RX_func.c ****             }
 441:.\Generated_Source\PSoC5/RX_CAN_TX_RX_func.c **** 
 442:.\Generated_Source\PSoC5/RX_CAN_TX_RX_func.c ****         return (result);
 443:.\Generated_Source\PSoC5/RX_CAN_TX_RX_func.c ****     }
 444:.\Generated_Source\PSoC5/RX_CAN_TX_RX_func.c **** #endif /* RX_CAN_TX4_FUNC_ENABLE */
 445:.\Generated_Source\PSoC5/RX_CAN_TX_RX_func.c **** 
 446:.\Generated_Source\PSoC5/RX_CAN_TX_RX_func.c **** 
 447:.\Generated_Source\PSoC5/RX_CAN_TX_RX_func.c **** #if (RX_CAN_TX5_FUNC_ENABLE)
 448:.\Generated_Source\PSoC5/RX_CAN_TX_RX_func.c ****     /*******************************************************************************
 449:.\Generated_Source\PSoC5/RX_CAN_TX_RX_func.c ****     * FUNCTION NAME:   RX_CAN_SendMsg5
 450:.\Generated_Source\PSoC5/RX_CAN_TX_RX_func.c ****     ********************************************************************************
 451:.\Generated_Source\PSoC5/RX_CAN_TX_RX_func.c ****     *
 452:.\Generated_Source\PSoC5/RX_CAN_TX_RX_func.c ****     * Summary:
 453:.\Generated_Source\PSoC5/RX_CAN_TX_RX_func.c ****     *  This function is the entry point to Transmit Message 5. The function checks
 454:.\Generated_Source\PSoC5/RX_CAN_TX_RX_func.c ****     *  if mailbox 5 doesn't already have un-transmitted messages waiting for
 455:.\Generated_Source\PSoC5/RX_CAN_TX_RX_func.c ****     *  arbitration. If not initiate transmission of the message.
 456:.\Generated_Source\PSoC5/RX_CAN_TX_RX_func.c ****     *  Generated only for the Transmit mailbox designed as Full.
 457:.\Generated_Source\PSoC5/RX_CAN_TX_RX_func.c ****     *
 458:.\Generated_Source\PSoC5/RX_CAN_TX_RX_func.c ****     * Parameters:
 459:.\Generated_Source\PSoC5/RX_CAN_TX_RX_func.c ****     *  None.
 460:.\Generated_Source\PSoC5/RX_CAN_TX_RX_func.c ****     *
 461:.\Generated_Source\PSoC5/RX_CAN_TX_RX_func.c ****     * Return:
 462:.\Generated_Source\PSoC5/RX_CAN_TX_RX_func.c ****     *  Indication if Message has been sent.
 463:.\Generated_Source\PSoC5/RX_CAN_TX_RX_func.c ****     *   Define                             Description
 464:.\Generated_Source\PSoC5/RX_CAN_TX_RX_func.c ****     *    CYRET_SUCCESS                      The function passed successfully
 465:.\Generated_Source\PSoC5/RX_CAN_TX_RX_func.c ****     *    RX_CAN_FAIL              The function failed
 466:.\Generated_Source\PSoC5/RX_CAN_TX_RX_func.c ****     *
 467:.\Generated_Source\PSoC5/RX_CAN_TX_RX_func.c ****     *******************************************************************************/
 468:.\Generated_Source\PSoC5/RX_CAN_TX_RX_func.c ****     uint8 RX_CAN_SendMsg5(void) 
 469:.\Generated_Source\PSoC5/RX_CAN_TX_RX_func.c ****     {
 470:.\Generated_Source\PSoC5/RX_CAN_TX_RX_func.c ****         uint8 result = CYRET_SUCCESS;
 471:.\Generated_Source\PSoC5/RX_CAN_TX_RX_func.c **** 
 472:.\Generated_Source\PSoC5/RX_CAN_TX_RX_func.c ****         #if (CY_PSOC3 || CY_PSOC5)
 473:.\Generated_Source\PSoC5/RX_CAN_TX_RX_func.c ****             if ((RX_CAN_TX[5u].txcmd.byte[0u] & RX_CAN_TX_REQUEST_PENDING) != 0u)
 474:.\Generated_Source\PSoC5/RX_CAN_TX_RX_func.c ****         #else  /* CY_PSOC4 */
 475:.\Generated_Source\PSoC5/RX_CAN_TX_RX_func.c ****             if ((RX_CAN_TX_CMD_REG(5u) & RX_CAN_TX_REQUEST_PENDING) != 0u)
 476:.\Generated_Source\PSoC5/RX_CAN_TX_RX_func.c ****         #endif /* CY_PSOC3 || CY_PSOC5 */
 477:.\Generated_Source\PSoC5/RX_CAN_TX_RX_func.c ****             {
 478:.\Generated_Source\PSoC5/RX_CAN_TX_RX_func.c ****                 result = RX_CAN_FAIL;
 479:.\Generated_Source\PSoC5/RX_CAN_TX_RX_func.c ****             }
 480:.\Generated_Source\PSoC5/RX_CAN_TX_RX_func.c ****             else
 481:.\Generated_Source\PSoC5/RX_CAN_TX_RX_func.c ****             {
 482:.\Generated_Source\PSoC5/RX_CAN_TX_RX_func.c ****                 /* `#START MESSAGE_5_TRASMITTED` */
ARM GAS  C:\Users\HENRYA~1\AppData\Local\Temp\ccCjgxWq.s 			page 17


 483:.\Generated_Source\PSoC5/RX_CAN_TX_RX_func.c **** 
 484:.\Generated_Source\PSoC5/RX_CAN_TX_RX_func.c ****                 /* `#END` */
 485:.\Generated_Source\PSoC5/RX_CAN_TX_RX_func.c **** 
 486:.\Generated_Source\PSoC5/RX_CAN_TX_RX_func.c ****                 #ifdef RX_CAN_SEND_MSG_5_CALLBACK
 487:.\Generated_Source\PSoC5/RX_CAN_TX_RX_func.c ****                     RX_CAN_SendMsg_5_Callback();
 488:.\Generated_Source\PSoC5/RX_CAN_TX_RX_func.c ****                 #endif /* RX_CAN_SEND_MSG_5_CALLBACK */
 489:.\Generated_Source\PSoC5/RX_CAN_TX_RX_func.c **** 
 490:.\Generated_Source\PSoC5/RX_CAN_TX_RX_func.c ****                 CY_SET_REG32(RX_CAN_TX_CMD_PTR(5u),
 491:.\Generated_Source\PSoC5/RX_CAN_TX_RX_func.c ****                 CY_GET_REG32(RX_CAN_TX_CMD_PTR(5u)) | RX_CAN_SEND_MESSAGE);
 492:.\Generated_Source\PSoC5/RX_CAN_TX_RX_func.c ****             }
 493:.\Generated_Source\PSoC5/RX_CAN_TX_RX_func.c **** 
 494:.\Generated_Source\PSoC5/RX_CAN_TX_RX_func.c ****         return (result);
 495:.\Generated_Source\PSoC5/RX_CAN_TX_RX_func.c ****     }
 496:.\Generated_Source\PSoC5/RX_CAN_TX_RX_func.c **** #endif /* RX_CAN_TX5_FUNC_ENABLE */
 497:.\Generated_Source\PSoC5/RX_CAN_TX_RX_func.c **** 
 498:.\Generated_Source\PSoC5/RX_CAN_TX_RX_func.c **** 
 499:.\Generated_Source\PSoC5/RX_CAN_TX_RX_func.c **** #if (RX_CAN_TX6_FUNC_ENABLE)
 500:.\Generated_Source\PSoC5/RX_CAN_TX_RX_func.c ****     /*******************************************************************************
 501:.\Generated_Source\PSoC5/RX_CAN_TX_RX_func.c ****     * FUNCTION NAME:   RX_CAN_SendMsg6
 502:.\Generated_Source\PSoC5/RX_CAN_TX_RX_func.c ****     ********************************************************************************
 503:.\Generated_Source\PSoC5/RX_CAN_TX_RX_func.c ****     *
 504:.\Generated_Source\PSoC5/RX_CAN_TX_RX_func.c ****     * Summary:
 505:.\Generated_Source\PSoC5/RX_CAN_TX_RX_func.c ****     *  This function is the entry point to Transmit Message 6. The function checks
 506:.\Generated_Source\PSoC5/RX_CAN_TX_RX_func.c ****     *  if mailbox 6 doesn't already have un-transmitted messages waiting for
 507:.\Generated_Source\PSoC5/RX_CAN_TX_RX_func.c ****     *  arbitration. If not initiate transmission of the message.
 508:.\Generated_Source\PSoC5/RX_CAN_TX_RX_func.c ****     *  Generated only for the Transmit mailbox designed as Full.
 509:.\Generated_Source\PSoC5/RX_CAN_TX_RX_func.c ****     *
 510:.\Generated_Source\PSoC5/RX_CAN_TX_RX_func.c ****     * Parameters:
 511:.\Generated_Source\PSoC5/RX_CAN_TX_RX_func.c ****     *  None.
 512:.\Generated_Source\PSoC5/RX_CAN_TX_RX_func.c ****     *
 513:.\Generated_Source\PSoC5/RX_CAN_TX_RX_func.c ****     * Return:
 514:.\Generated_Source\PSoC5/RX_CAN_TX_RX_func.c ****     *  Indication if Message has been sent.
 515:.\Generated_Source\PSoC5/RX_CAN_TX_RX_func.c ****     *   Define                             Description
 516:.\Generated_Source\PSoC5/RX_CAN_TX_RX_func.c ****     *    CYRET_SUCCESS                      The function passed successfully
 517:.\Generated_Source\PSoC5/RX_CAN_TX_RX_func.c ****     *    RX_CAN_FAIL              The function failed
 518:.\Generated_Source\PSoC5/RX_CAN_TX_RX_func.c ****     *
 519:.\Generated_Source\PSoC5/RX_CAN_TX_RX_func.c ****     *******************************************************************************/
 520:.\Generated_Source\PSoC5/RX_CAN_TX_RX_func.c ****     uint8 RX_CAN_SendMsg6(void) 
 521:.\Generated_Source\PSoC5/RX_CAN_TX_RX_func.c ****     {
 522:.\Generated_Source\PSoC5/RX_CAN_TX_RX_func.c ****         uint8 result = CYRET_SUCCESS;
 523:.\Generated_Source\PSoC5/RX_CAN_TX_RX_func.c **** 
 524:.\Generated_Source\PSoC5/RX_CAN_TX_RX_func.c ****         #if (CY_PSOC3 || CY_PSOC5)
 525:.\Generated_Source\PSoC5/RX_CAN_TX_RX_func.c ****             if ((RX_CAN_TX[6u].txcmd.byte[0u] & RX_CAN_TX_REQUEST_PENDING) != 0u)
 526:.\Generated_Source\PSoC5/RX_CAN_TX_RX_func.c ****         #else  /* CY_PSOC4 */
 527:.\Generated_Source\PSoC5/RX_CAN_TX_RX_func.c ****             if ((RX_CAN_TX_CMD_REG(6u) & RX_CAN_TX_REQUEST_PENDING) != 0u)
 528:.\Generated_Source\PSoC5/RX_CAN_TX_RX_func.c ****         #endif /* CY_PSOC3 || CY_PSOC5 */
 529:.\Generated_Source\PSoC5/RX_CAN_TX_RX_func.c ****             {
 530:.\Generated_Source\PSoC5/RX_CAN_TX_RX_func.c ****                 result = RX_CAN_FAIL;
 531:.\Generated_Source\PSoC5/RX_CAN_TX_RX_func.c ****             }
 532:.\Generated_Source\PSoC5/RX_CAN_TX_RX_func.c ****             else
 533:.\Generated_Source\PSoC5/RX_CAN_TX_RX_func.c ****             {
 534:.\Generated_Source\PSoC5/RX_CAN_TX_RX_func.c ****                 /* `#START MESSAGE_6_TRASMITTED` */
 535:.\Generated_Source\PSoC5/RX_CAN_TX_RX_func.c **** 
 536:.\Generated_Source\PSoC5/RX_CAN_TX_RX_func.c ****                 /* `#END` */
 537:.\Generated_Source\PSoC5/RX_CAN_TX_RX_func.c **** 
 538:.\Generated_Source\PSoC5/RX_CAN_TX_RX_func.c ****                 #ifdef RX_CAN_SEND_MSG_6_CALLBACK
 539:.\Generated_Source\PSoC5/RX_CAN_TX_RX_func.c ****                     RX_CAN_SendMsg_6_Callback();
ARM GAS  C:\Users\HENRYA~1\AppData\Local\Temp\ccCjgxWq.s 			page 18


 540:.\Generated_Source\PSoC5/RX_CAN_TX_RX_func.c ****                 #endif /* RX_CAN_SEND_MSG_6_CALLBACK */
 541:.\Generated_Source\PSoC5/RX_CAN_TX_RX_func.c **** 
 542:.\Generated_Source\PSoC5/RX_CAN_TX_RX_func.c ****                 CY_SET_REG32(RX_CAN_TX_CMD_PTR(6u),
 543:.\Generated_Source\PSoC5/RX_CAN_TX_RX_func.c ****                 CY_GET_REG32(RX_CAN_TX_CMD_PTR(6u)) | RX_CAN_SEND_MESSAGE);
 544:.\Generated_Source\PSoC5/RX_CAN_TX_RX_func.c ****             }
 545:.\Generated_Source\PSoC5/RX_CAN_TX_RX_func.c **** 
 546:.\Generated_Source\PSoC5/RX_CAN_TX_RX_func.c ****         return (result);
 547:.\Generated_Source\PSoC5/RX_CAN_TX_RX_func.c ****     }
 548:.\Generated_Source\PSoC5/RX_CAN_TX_RX_func.c **** #endif /* RX_CAN_TX6_FUNC_ENABLE */
 549:.\Generated_Source\PSoC5/RX_CAN_TX_RX_func.c **** 
 550:.\Generated_Source\PSoC5/RX_CAN_TX_RX_func.c **** 
 551:.\Generated_Source\PSoC5/RX_CAN_TX_RX_func.c **** #if (RX_CAN_TX7_FUNC_ENABLE)
 552:.\Generated_Source\PSoC5/RX_CAN_TX_RX_func.c ****     /*******************************************************************************
 553:.\Generated_Source\PSoC5/RX_CAN_TX_RX_func.c ****     * FUNCTION NAME:   RX_CAN_SendMsg7)
 554:.\Generated_Source\PSoC5/RX_CAN_TX_RX_func.c ****     ********************************************************************************
 555:.\Generated_Source\PSoC5/RX_CAN_TX_RX_func.c ****     *
 556:.\Generated_Source\PSoC5/RX_CAN_TX_RX_func.c ****     * Summary:
 557:.\Generated_Source\PSoC5/RX_CAN_TX_RX_func.c ****     *  This function is the entry point to Transmit Message 7. The function checks
 558:.\Generated_Source\PSoC5/RX_CAN_TX_RX_func.c ****     *  if mailbox 7 doesn't already have un-transmitted messages waiting for
 559:.\Generated_Source\PSoC5/RX_CAN_TX_RX_func.c ****     *  arbitration. If not initiate transmission of the message.
 560:.\Generated_Source\PSoC5/RX_CAN_TX_RX_func.c ****     *  Generated only for the Transmit mailbox designed as Full.
 561:.\Generated_Source\PSoC5/RX_CAN_TX_RX_func.c ****     *
 562:.\Generated_Source\PSoC5/RX_CAN_TX_RX_func.c ****     * Parameters:
 563:.\Generated_Source\PSoC5/RX_CAN_TX_RX_func.c ****     *  None.
 564:.\Generated_Source\PSoC5/RX_CAN_TX_RX_func.c ****     *
 565:.\Generated_Source\PSoC5/RX_CAN_TX_RX_func.c ****     * Return:
 566:.\Generated_Source\PSoC5/RX_CAN_TX_RX_func.c ****     *  Indication if Message has been sent.
 567:.\Generated_Source\PSoC5/RX_CAN_TX_RX_func.c ****     *   Define                             Description
 568:.\Generated_Source\PSoC5/RX_CAN_TX_RX_func.c ****     *    CYRET_SUCCESS                      The function passed successfully
 569:.\Generated_Source\PSoC5/RX_CAN_TX_RX_func.c ****     *    RX_CAN_FAIL              The function failed
 570:.\Generated_Source\PSoC5/RX_CAN_TX_RX_func.c ****     *
 571:.\Generated_Source\PSoC5/RX_CAN_TX_RX_func.c ****     *******************************************************************************/
 572:.\Generated_Source\PSoC5/RX_CAN_TX_RX_func.c ****     uint8 RX_CAN_SendMsg7(void) 
 573:.\Generated_Source\PSoC5/RX_CAN_TX_RX_func.c ****     {
 574:.\Generated_Source\PSoC5/RX_CAN_TX_RX_func.c ****         uint8 result = CYRET_SUCCESS;
 575:.\Generated_Source\PSoC5/RX_CAN_TX_RX_func.c **** 
 576:.\Generated_Source\PSoC5/RX_CAN_TX_RX_func.c ****         #if (CY_PSOC3 || CY_PSOC5)
 577:.\Generated_Source\PSoC5/RX_CAN_TX_RX_func.c ****             if ((RX_CAN_TX[7u].txcmd.byte[0u] & RX_CAN_TX_REQUEST_PENDING) != 0u)
 578:.\Generated_Source\PSoC5/RX_CAN_TX_RX_func.c ****         #else  /* CY_PSOC4 */
 579:.\Generated_Source\PSoC5/RX_CAN_TX_RX_func.c ****             if ((RX_CAN_TX_CMD_REG(7u) & RX_CAN_TX_REQUEST_PENDING) != 0u)
 580:.\Generated_Source\PSoC5/RX_CAN_TX_RX_func.c ****         #endif /* CY_PSOC3 || CY_PSOC5 */
 581:.\Generated_Source\PSoC5/RX_CAN_TX_RX_func.c ****             {
 582:.\Generated_Source\PSoC5/RX_CAN_TX_RX_func.c ****                 result = RX_CAN_FAIL;
 583:.\Generated_Source\PSoC5/RX_CAN_TX_RX_func.c ****             }
 584:.\Generated_Source\PSoC5/RX_CAN_TX_RX_func.c ****             else
 585:.\Generated_Source\PSoC5/RX_CAN_TX_RX_func.c ****             {
 586:.\Generated_Source\PSoC5/RX_CAN_TX_RX_func.c ****                 /* `#START MESSAGE_7_TRASMITTED` */
 587:.\Generated_Source\PSoC5/RX_CAN_TX_RX_func.c **** 
 588:.\Generated_Source\PSoC5/RX_CAN_TX_RX_func.c ****                 /* `#END` */
 589:.\Generated_Source\PSoC5/RX_CAN_TX_RX_func.c **** 
 590:.\Generated_Source\PSoC5/RX_CAN_TX_RX_func.c ****                 #ifdef RX_CAN_SEND_MSG_7_CALLBACK
 591:.\Generated_Source\PSoC5/RX_CAN_TX_RX_func.c ****                     RX_CAN_SendMsg_7_Callback();
 592:.\Generated_Source\PSoC5/RX_CAN_TX_RX_func.c ****                 #endif /* RX_CAN_SEND_MSG_7_CALLBACK */
 593:.\Generated_Source\PSoC5/RX_CAN_TX_RX_func.c **** 
 594:.\Generated_Source\PSoC5/RX_CAN_TX_RX_func.c ****                 CY_SET_REG32(RX_CAN_TX_CMD_PTR(7u),
 595:.\Generated_Source\PSoC5/RX_CAN_TX_RX_func.c ****                 CY_GET_REG32(RX_CAN_TX_CMD_PTR(7u)) | RX_CAN_SEND_MESSAGE);
 596:.\Generated_Source\PSoC5/RX_CAN_TX_RX_func.c ****             }
ARM GAS  C:\Users\HENRYA~1\AppData\Local\Temp\ccCjgxWq.s 			page 19


 597:.\Generated_Source\PSoC5/RX_CAN_TX_RX_func.c **** 
 598:.\Generated_Source\PSoC5/RX_CAN_TX_RX_func.c ****         return (result);
 599:.\Generated_Source\PSoC5/RX_CAN_TX_RX_func.c ****     }
 600:.\Generated_Source\PSoC5/RX_CAN_TX_RX_func.c **** #endif /* RX_CAN_TX7_FUNC_ENABLE */
 601:.\Generated_Source\PSoC5/RX_CAN_TX_RX_func.c **** 
 602:.\Generated_Source\PSoC5/RX_CAN_TX_RX_func.c **** 
 603:.\Generated_Source\PSoC5/RX_CAN_TX_RX_func.c **** /*******************************************************************************
 604:.\Generated_Source\PSoC5/RX_CAN_TX_RX_func.c **** * FUNCTION NAME:   RX_CAN_ReceiveMsg
 605:.\Generated_Source\PSoC5/RX_CAN_TX_RX_func.c **** ********************************************************************************
 606:.\Generated_Source\PSoC5/RX_CAN_TX_RX_func.c **** *
 607:.\Generated_Source\PSoC5/RX_CAN_TX_RX_func.c **** * Summary:
 608:.\Generated_Source\PSoC5/RX_CAN_TX_RX_func.c **** *  This function is the entry point to Receive Message Interrupt for Basic
 609:.\Generated_Source\PSoC5/RX_CAN_TX_RX_func.c **** *  mailboxes. Clears the Receive particular Message interrupt flag. Generated
 610:.\Generated_Source\PSoC5/RX_CAN_TX_RX_func.c **** *  only if one of the Receive mailboxes is designed as Basic.
 611:.\Generated_Source\PSoC5/RX_CAN_TX_RX_func.c **** *
 612:.\Generated_Source\PSoC5/RX_CAN_TX_RX_func.c **** * Parameters:
 613:.\Generated_Source\PSoC5/RX_CAN_TX_RX_func.c **** *  rxMailbox: The mailbox number that trig Receive Message Interrupt.
 614:.\Generated_Source\PSoC5/RX_CAN_TX_RX_func.c **** *
 615:.\Generated_Source\PSoC5/RX_CAN_TX_RX_func.c **** * Return:
 616:.\Generated_Source\PSoC5/RX_CAN_TX_RX_func.c **** *  None.
 617:.\Generated_Source\PSoC5/RX_CAN_TX_RX_func.c **** *
 618:.\Generated_Source\PSoC5/RX_CAN_TX_RX_func.c **** * Reentrant:
 619:.\Generated_Source\PSoC5/RX_CAN_TX_RX_func.c **** *  Depends on the Customer code.
 620:.\Generated_Source\PSoC5/RX_CAN_TX_RX_func.c **** *
 621:.\Generated_Source\PSoC5/RX_CAN_TX_RX_func.c **** *******************************************************************************/
 622:.\Generated_Source\PSoC5/RX_CAN_TX_RX_func.c **** void RX_CAN_ReceiveMsg(uint8 rxMailbox) 
 623:.\Generated_Source\PSoC5/RX_CAN_TX_RX_func.c **** {
 416              		.loc 1 623 0
 417              		.cfi_startproc
 418              		@ args = 0, pretend = 0, frame = 0
 419              		@ frame_needed = 0, uses_anonymous_args = 0
 420              		@ link register save eliminated.
 421              	.LVL36:
 624:.\Generated_Source\PSoC5/RX_CAN_TX_RX_func.c ****     #if (CY_PSOC3 || CY_PSOC5)
 625:.\Generated_Source\PSoC5/RX_CAN_TX_RX_func.c ****         if ((RX_CAN_RX[rxMailbox].rxcmd.byte[0u] & RX_CAN_RX_ACK_MSG) != 0u)
 422              		.loc 1 625 0
 423 0000 4001     		lsls	r0, r0, #5
 424              	.LVL37:
 425 0002 054B     		ldr	r3, .L50
 426 0004 C25C     		ldrb	r2, [r0, r3]	@ zero_extendqisi2
 427 0006 12F0010F 		tst	r2, #1
 428 000a 03D0     		beq	.L48
 626:.\Generated_Source\PSoC5/RX_CAN_TX_RX_func.c ****     #else  /* CY_PSOC4 */
 627:.\Generated_Source\PSoC5/RX_CAN_TX_RX_func.c ****         if ((RX_CAN_RX_CMD_REG(rxMailbox) & RX_CAN_RX_ACK_MSG) != 0u)
 628:.\Generated_Source\PSoC5/RX_CAN_TX_RX_func.c ****     #endif /* CY_PSOC3 || CY_PSOC5 */
 629:.\Generated_Source\PSoC5/RX_CAN_TX_RX_func.c ****         {
 630:.\Generated_Source\PSoC5/RX_CAN_TX_RX_func.c ****             /* `#START MESSAGE_BASIC_RECEIVED` */
 631:.\Generated_Source\PSoC5/RX_CAN_TX_RX_func.c **** 
 632:.\Generated_Source\PSoC5/RX_CAN_TX_RX_func.c ****             /* `#END` */
 633:.\Generated_Source\PSoC5/RX_CAN_TX_RX_func.c **** 
 634:.\Generated_Source\PSoC5/RX_CAN_TX_RX_func.c ****             #ifdef RX_CAN_RECEIVE_MSG_CALLBACK
 635:.\Generated_Source\PSoC5/RX_CAN_TX_RX_func.c ****                 RX_CAN_ReceiveMsg_Callback();
 636:.\Generated_Source\PSoC5/RX_CAN_TX_RX_func.c ****             #endif /* RX_CAN_RECEIVE_MSG_CALLBACK */
 637:.\Generated_Source\PSoC5/RX_CAN_TX_RX_func.c **** 
 638:.\Generated_Source\PSoC5/RX_CAN_TX_RX_func.c ****             #if (CY_PSOC3 || CY_PSOC5)
 639:.\Generated_Source\PSoC5/RX_CAN_TX_RX_func.c ****                 RX_CAN_RX[rxMailbox].rxcmd.byte[0u] |= RX_CAN_RX_ACK_MSG;
 429              		.loc 1 639 0
ARM GAS  C:\Users\HENRYA~1\AppData\Local\Temp\ccCjgxWq.s 			page 20


 430 000c C25C     		ldrb	r2, [r0, r3]	@ zero_extendqisi2
 431 000e 42F00102 		orr	r2, r2, #1
 432 0012 C254     		strb	r2, [r0, r3]
 433              	.L48:
 434 0014 7047     		bx	lr
 435              	.L51:
 436 0016 00BF     		.align	2
 437              	.L50:
 438 0018 A0A00040 		.word	1073782944
 439              		.cfi_endproc
 440              	.LFE6:
 441              		.size	RX_CAN_ReceiveMsg, .-RX_CAN_ReceiveMsg
 442              		.text
 443              	.Letext0:
 444              		.file 2 ".\\Generated_Source\\PSoC5\\cytypes.h"
 445              		.file 3 ".\\Generated_Source\\PSoC5\\RX_CAN.h"