ARM GAS  C:\Users\HENRYA~1\AppData\Local\Temp\cchXA1T4.s 			page 1


   1              		.syntax unified
   2              		.cpu cortex-m0
   3              		.fpu softvfp
   4              		.eabi_attribute 20, 1
   5              		.eabi_attribute 21, 1
   6              		.eabi_attribute 23, 3
   7              		.eabi_attribute 24, 1
   8              		.eabi_attribute 25, 1
   9              		.eabi_attribute 26, 1
  10              		.eabi_attribute 30, 1
  11              		.eabi_attribute 34, 0
  12              		.eabi_attribute 18, 4
  13              		.thumb
  14              		.syntax unified
  15              		.file	"main.c"
  16              		.text
  17              	.Ltext0:
  18              		.cfi_sections	.debug_frame
  19              		.section	.text.Serial_Interrupt,"ax",%progbits
  20              		.align	2
  21              		.global	Serial_Interrupt
  22              		.code	16
  23              		.thumb_func
  24              		.type	Serial_Interrupt, %function
  25              	Serial_Interrupt:
  26              	.LFB65:
  27              		.file 1 "main.c"
   1:main.c        **** #include <project.h>
   2:main.c        **** #include <stdio.h>
   3:main.c        **** #include <stdlib.h>
   4:main.c        **** #include <math.h>
   5:main.c        **** #include <protocolo can.h>
   6:main.c        **** //Import Libraries
   7:main.c        **** //Global Variables
   8:main.c        **** uint8 mailbox0[8];
   9:main.c        **** uint8 mailbox1[8];
  10:main.c        **** uint8 mailbox2[8];
  11:main.c        **** uint8 dato_enviado[8];
  12:main.c        **** uint8 dato_enviado_1[8];
  13:main.c        **** char dist=0;
  14:main.c        **** int16 conta=0;
  15:main.c        **** int cantidadM=0;
  16:main.c        **** int Cantidad_Sensores=0;
  17:main.c        **** //Variables AE
  18:main.c        **** int Max_Conta=0;
  19:main.c        **** float amplitud=0.0;
  20:main.c        **** float offset=0.833;
  21:main.c        **** float fase=0.0;
  22:main.c        **** int flag=1;
  23:main.c        **** int punto_a=0;
  24:main.c        **** int punto_b=0;
  25:main.c        **** int move_s=0;
  26:main.c        **** //Crear Array con tamaño de la población 
  27:main.c        **** int Individuos=10;
  28:main.c        **** float Poblacion[3][10];
  29:main.c        **** float Poblacion_1[3][10];
  30:main.c        **** float Fitness[10];
ARM GAS  C:\Users\HENRYA~1\AppData\Local\Temp\cchXA1T4.s 			page 2


  31:main.c        **** float Fitness_1[10];
  32:main.c        **** float Fitness_Normalizado[10];
  33:main.c        **** int Fila=0;
  34:main.c        **** int Columna=0;
  35:main.c        **** float Umbral_Cruce=0.5;
  36:main.c        **** float Umbral_Mutacion=0.4;
  37:main.c        **** int conmutador=0;
  38:main.c        **** int puntero=0;
  39:main.c        **** int indice[10];
  40:main.c        **** float Acu=0.0;
  41:main.c        **** float bolita=0.0;
  42:main.c        ****     
  43:main.c        **** double randd() {
  44:main.c        ****   return (double)rand()/((double)RAND_MAX + 1);
  45:main.c        **** }
  46:main.c        **** 
  47:main.c        **** double random_gauss(){
  48:main.c        ****     return randd()*0.2;
  49:main.c        **** }
  50:main.c        **** 
  51:main.c        **** double random_amplitud(){
  52:main.c        ****     return randd();
  53:main.c        **** }
  54:main.c        **** 
  55:main.c        **** double random_Fase(){
  56:main.c        ****     float r=0.0;
  57:main.c        ****     r=randd();
  58:main.c        ****     r=r*2;
  59:main.c        ****     r=r-1;
  60:main.c        ****     return r;
  61:main.c        **** }
  62:main.c        **** 
  63:main.c        **** double random_Offset(){
  64:main.c        ****     float r=0.0;
  65:main.c        ****     r=randd();
  66:main.c        ****     r=r*0.35;
  67:main.c        ****     r=r+0.65;
  68:main.c        ****     return r;
  69:main.c        **** }
  70:main.c        **** 
  71:main.c        **** void movimiento(unsigned int dirr,int mov){
  72:main.c        ****     char byteh,bytel;
  73:main.c        ****     byteh= mov >> 8;
  74:main.c        ****     bytel=mov;
  75:main.c        ****     dato_enviado[0]=VER ;//verificacion
  76:main.c        ****     dato_enviado[1]=dirr ;//dir
  77:main.c        ****     dato_enviado[2]=ESCRITURA ;//operacion
  78:main.c        ****     dato_enviado[3]=MOTOR;//lugar
  79:main.c        ****     dato_enviado[4]= byteh ;  //dato
  80:main.c        ****     dato_enviado[5]= bytel ;  //dato
  81:main.c        ****     CAN_SendMsg0(); 
  82:main.c        ****     CyDelay(25);    
  83:main.c        **** }
  84:main.c        **** 
  85:main.c        **** void Send_Angle(int Conta3){ 
  86:main.c        ****     dato_enviado[0]=VER2;//verificacion
  87:main.c        ****     dato_enviado[1]=Conta3;//dir
ARM GAS  C:\Users\HENRYA~1\AppData\Local\Temp\cchXA1T4.s 			page 3


  88:main.c        ****     dato_enviado[2]=Conta3;//dir
  89:main.c        ****     dato_enviado[3]=ANGLE;
  90:main.c        ****     dato_enviado[4]=0;//lugar
  91:main.c        ****     dato_enviado[5]=0;  //dato... en este caso direcion para asignar
  92:main.c        ****     dato_enviado[6]=0;
  93:main.c        ****     dato_enviado[7]=Conta3;
  94:main.c        ****     CAN_SendMsg0(); 
  95:main.c        ****     CyDelay(50);
  96:main.c        **** }
  97:main.c        **** 
  98:main.c        **** void Enviar_Parametros(float Amplitud,float Phase,float Offset,int Orientacion){
  99:main.c        ****     //Convertir el Valor a entero para ser enviado
 100:main.c        ****     int Amp_env=(int)fabs(Amplitud*10000);
 101:main.c        ****     int Phase_env=(int)fabs(Phase*10000);
 102:main.c        ****     int Offset_env=(int)fabs(Offset*10000);
 103:main.c        ****     //Enviar datos
 104:main.c        ****     dato_enviado_1[0]=VER_M1;
 105:main.c        ****     dato_enviado_1[1]=Orientacion;
 106:main.c        ****     //Convertir Amplitud
 107:main.c        ****     uint8 datoL=Amp_env;
 108:main.c        ****     uint8 datoH=Amp_env>>8;
 109:main.c        ****     uint8 Aux=0;
 110:main.c        ****     if(Amplitud<0.0){
 111:main.c        ****         Aux=(1<<7);
 112:main.c        ****         datoH=datoH+Aux;
 113:main.c        ****     }
 114:main.c        ****     else{
 115:main.c        ****         Aux=(0<<7);
 116:main.c        ****         datoH=datoH+Aux;    
 117:main.c        ****     }
 118:main.c        ****     dato_enviado_1[2]=datoL;
 119:main.c        ****     dato_enviado_1[3]=datoH;
 120:main.c        ****     //Convertir Fase
 121:main.c        ****     datoL=Phase_env;
 122:main.c        ****     datoH=Phase_env>>8;
 123:main.c        ****     if(Phase<0.0){
 124:main.c        ****         Aux=(1<<7);
 125:main.c        ****         datoH=datoH+Aux;
 126:main.c        ****     }
 127:main.c        ****     else{
 128:main.c        ****         Aux=(0<<7);
 129:main.c        ****         datoH=datoH+Aux;    
 130:main.c        ****     }
 131:main.c        ****     dato_enviado_1[4]=datoL;
 132:main.c        ****     dato_enviado_1[5]=datoH;
 133:main.c        ****     //Convertir Offset
 134:main.c        ****     datoL=Offset_env;
 135:main.c        ****     datoH=Offset_env>>8;
 136:main.c        ****     if(Offset<0.0){
 137:main.c        ****         Aux=(1<<7);
 138:main.c        ****         datoH=datoH+Aux;
 139:main.c        ****     }
 140:main.c        ****     else{
 141:main.c        ****         Aux=(0<<7);
 142:main.c        ****         datoH=datoH+Aux;    
 143:main.c        ****     }
 144:main.c        ****     dato_enviado_1[6]=datoL;
ARM GAS  C:\Users\HENRYA~1\AppData\Local\Temp\cchXA1T4.s 			page 4


 145:main.c        ****     dato_enviado_1[7]=datoH;    
 146:main.c        ****     CAN_SendMsg1();
 147:main.c        ****     CyDelay(25);
 148:main.c        **** }
 149:main.c        **** 
 150:main.c        **** void Recibe_mail_0(){
 151:main.c        **** if(mailbox0[0]==VER){
 152:main.c        ****             switch(mailbox0[2]){
 153:main.c        ****             ///////////////////////////////////////////////////////
 154:main.c        ****             case ESCRITURA:{ 
 155:main.c        ****                 switch(mailbox0[3]){//////////+6+++++++++++++
 156:main.c        ****                     case CANTIDAD_MOD: 
 157:main.c        ****                             cantidadM=mailbox0[4];
 158:main.c        ****                     break;
 159:main.c        ****                     case START:
 160:main.c        ****                         
 161:main.c        ****                     break;
 162:main.c        ****                 }
 163:main.c        ****             }                                            
 164:main.c        ****         }    
 165:main.c        **** }
 166:main.c        **** if(mailbox0[0]==VER2){
 167:main.c        ****                 switch(mailbox0[3]){
 168:main.c        ****                 ///////////////////////////////////////////////////////
 169:main.c        ****                 case ANGLE:{
 170:main.c        ****                     int Contador=mailbox0[7];
 171:main.c        ****                     if(Contador>=cantidadM){
 172:main.c        ****                         Enviar_Parametros(amplitud,fase,offset,V);
 173:main.c        ****                         CyDelay(10);
 174:main.c        ****                         Enviar_Parametros(0.0,fase,0.833,H);  
 175:main.c        ****                     } 
 176:main.c        ****                 }
 177:main.c        ****                 break;}
 178:main.c        ****             } 
 179:main.c        **** }
 180:main.c        **** 
 181:main.c        **** void Recibe_Mail_2(){
 182:main.c        ****     if(mailbox2[0]==SENSORES){
 183:main.c        ****         //Mailbox2[1] Derecha
 184:main.c        ****         //Mailbox2[2] Frente
 185:main.c        ****         //Mailbox2[3] Izquierda
 186:main.c        ****         if(mailbox2[1]==0&&mailbox2[2]==0&&mailbox2[3]==0)      {Cantidad_Sensores=0;}   //Normal
 187:main.c        ****         else if(mailbox2[1]==0&&mailbox2[2]==0&&mailbox2[3]==1) {Cantidad_Sensores=1;}   //Izquierd
 188:main.c        ****         else if(mailbox2[1]==0&&mailbox2[2]==1&&mailbox2[3]==0) {Cantidad_Sensores=2;}   //Frontal
 189:main.c        ****         else if(mailbox2[1]==0&&mailbox2[2]==1&&mailbox2[3]==1) {Cantidad_Sensores=3;}   //Frontal 
 190:main.c        ****         else if(mailbox2[1]==1&&mailbox2[2]==0&&mailbox2[3]==0) {Cantidad_Sensores=4;}   //Derecha
 191:main.c        ****         else if(mailbox2[1]==1&&mailbox2[2]==0&&mailbox2[3]==1) {Cantidad_Sensores=5;}   //Derecha 
 192:main.c        ****         else if(mailbox2[1]==1&&mailbox2[2]==1&&mailbox2[3]==0) {Cantidad_Sensores=6;}   //Frontal 
 193:main.c        ****         else if(mailbox2[1]==1&&mailbox2[2]==1&&mailbox2[3]==1) {Cantidad_Sensores=7;}   //Todos
 194:main.c        ****         else                                                    {Cantidad_Sensores=0;}   //Normal
 195:main.c        ****     }
 196:main.c        **** }
 197:main.c        **** 
 198:main.c        **** CY_ISR(interrutcan){
 199:main.c        ****     CAN_GlobalIntDisable();
 200:main.c        ****     CAN_MsgRXIsr();  
 201:main.c        ****     Recibe_mail_0();
ARM GAS  C:\Users\HENRYA~1\AppData\Local\Temp\cchXA1T4.s 			page 5


 202:main.c        ****     Recibe_Mail_2();
 203:main.c        ****     CAN_GlobalIntEnable();
 204:main.c        **** }
 205:main.c        **** 
 206:main.c        **** float maximo(float *valores, int num){ 
 207:main.c        ****   int i; 
 208:main.c        ****   float max; 
 209:main.c        ****   max = valores[0]; 
 210:main.c        ****   for (i = 1; i < num; i++) 
 211:main.c        ****     if (valores[i] > max) 
 212:main.c        **** 	  max = valores[i]; 
 213:main.c        ****   return (max); 
 214:main.c        **** } 
 215:main.c        **** 
 216:main.c        **** void Normalizar(int I){
 217:main.c        ****     float Valor_Maximo=maximo(Fitness,I);
 218:main.c        ****     int i=0;
 219:main.c        ****     for (i=0;i<Individuos;i++){
 220:main.c        ****         Fitness_Normalizado[i]=Fitness[i]/Valor_Maximo;
 221:main.c        ****     }
 222:main.c        **** }
 223:main.c        **** 
 224:main.c        **** void Normalizar2(int I){
 225:main.c        ****     float Valor_Maximo=maximo(Fitness,I);
 226:main.c        ****     int i=0;
 227:main.c        ****     for (i=0;i<Individuos;i++){
 228:main.c        ****         Fitness[i]=Fitness[i]/Valor_Maximo;
 229:main.c        ****     }
 230:main.c        **** }
 231:main.c        **** 
 232:main.c        **** void Evaluar_Fitness(int i){
 233:main.c        ****     amplitud=Poblacion_1[0][i];
 234:main.c        ****     fase=Poblacion_1[1][i];
 235:main.c        ****     offset=Poblacion_1[2][i];
 236:main.c        ****     Enviar_Parametros(amplitud,fase,offset,V);
 237:main.c        ****     CyDelay(1000);
 238:main.c        ****     Enviar_Parametros(0.0,fase,0.833,H);  
 239:main.c        **** }
 240:main.c        **** 
 241:main.c        **** void Espere(){
 242:main.c        ****     amplitud=0.0;
 243:main.c        ****     fase=0.0;
 244:main.c        ****     offset=0.833;
 245:main.c        ****     Enviar_Parametros(amplitud,fase,offset,V);
 246:main.c        ****     CyDelay(1000);
 247:main.c        ****     Enviar_Parametros(0.0,fase,0.833,H);  
 248:main.c        **** }
 249:main.c        **** 
 250:main.c        **** void Seleccion(){
 251:main.c        ****     Normalizar(Individuos);
 252:main.c        ****     int i=0,j=0;
 253:main.c        ****     Acu=0.0;
 254:main.c        ****     bolita=0.0;
 255:main.c        ****     //Normalizar
 256:main.c        ****     for(i=0;i<Individuos;i++){
 257:main.c        ****         Acu=Acu+Fitness_Normalizado[i];            
 258:main.c        ****     }
ARM GAS  C:\Users\HENRYA~1\AppData\Local\Temp\cchXA1T4.s 			page 6


 259:main.c        ****     for(i=0;i<Individuos;i++){
 260:main.c        ****         Fitness_Normalizado[i]=Fitness_Normalizado[i]/Acu;            
 261:main.c        ****     }    
 262:main.c        ****     Acu=0.0;
 263:main.c        ****     //Ruleta
 264:main.c        ****     for(i=0;i<Individuos;i++){
 265:main.c        ****         bolita=randd();
 266:main.c        ****         Acu=0.0;
 267:main.c        ****         j=0;
 268:main.c        ****         while (Acu<bolita){
 269:main.c        ****             Acu=Fitness_Normalizado[j]+Acu;
 270:main.c        ****             indice[i]=j;
 271:main.c        ****             j++;
 272:main.c        ****         }
 273:main.c        ****     } 
 274:main.c        ****     //Llenar Matriz de población_1
 275:main.c        ****     for(i=0;i<Individuos;i++){
 276:main.c        ****         Poblacion_1[0][i]=Poblacion[0][indice[i]];
 277:main.c        ****         Poblacion_1[1][i]=Poblacion[1][indice[i]];
 278:main.c        ****         Poblacion_1[2][i]=Poblacion[2][indice[i]];
 279:main.c        ****         Fitness_1[i]=Fitness_Normalizado[indice[i]];
 280:main.c        ****         Fitness[i]=Fitness_Normalizado[i];
 281:main.c        ****     }     
 282:main.c        **** }
 283:main.c        **** 
 284:main.c        **** void Cruce(){
 285:main.c        ****     int papa=(int)Individuos*randd();
 286:main.c        ****     int mama=(int)Individuos*randd();
 287:main.c        ****     Poblacion_1[0][papa]=Poblacion_1[0][papa]+Poblacion_1[0][mama];
 288:main.c        ****     Poblacion_1[0][papa]=Poblacion_1[0][papa]/2;
 289:main.c        ****     Poblacion_1[1][papa]=Poblacion_1[1][papa]+Poblacion_1[1][mama];
 290:main.c        ****     Poblacion_1[1][papa]=Poblacion_1[1][papa]/2;
 291:main.c        ****     Poblacion_1[2][papa]=Poblacion_1[2][papa]+Poblacion_1[2][mama];
 292:main.c        ****     Poblacion_1[2][papa]=Poblacion_1[2][papa]/2;
 293:main.c        **** }
 294:main.c        **** 
 295:main.c        **** void Mutacion(){
 296:main.c        ****     int Selector=(int)Individuos*randd();
 297:main.c        ****     int componente=(int)randd()*2;
 298:main.c        ****     if(componente==0){Poblacion_1[componente][Selector]=Poblacion_1[componente][Selector]+random_ga
 299:main.c        ****     else if(componente==1){Poblacion_1[componente][Selector]=Poblacion_1[componente][Selector]+rand
 300:main.c        ****     else if(componente==2){Poblacion_1[componente][Selector]=Poblacion_1[componente][Selector]+rand
 301:main.c        **** }
 302:main.c        **** 
 303:main.c        **** void Reemplazo_Generacional(){
 304:main.c        ****     int i=0;
 305:main.c        ****     for(i=0;i<Individuos;i++){
 306:main.c        ****         if(Fitness_1[i]<Fitness[i]){
 307:main.c        ****             Poblacion[0][i]=Poblacion_1[0][i];
 308:main.c        ****             Poblacion[1][i]=Poblacion_1[1][i];
 309:main.c        ****             Poblacion[2][i]=Poblacion_1[2][i];
 310:main.c        ****         }
 311:main.c        ****     }
 312:main.c        **** }
 313:main.c        **** 
 314:main.c        **** void A_G(){
 315:main.c        ****     float Prob_c=0.5;
ARM GAS  C:\Users\HENRYA~1\AppData\Local\Temp\cchXA1T4.s 			page 7


 316:main.c        ****     float Prob_m=0.2;
 317:main.c        ****     //Ingrese su Algoritmo Aqui
 318:main.c        ****     switch (flag){
 319:main.c        ****         case 0:
 320:main.c        ****             Normalizar2(Individuos);
 321:main.c        ****             Reemplazo_Generacional();
 322:main.c        ****             puntero=0;
 323:main.c        ****             flag=1;        
 324:main.c        ****             break;
 325:main.c        ****         case 1:
 326:main.c        ****             Espere();
 327:main.c        ****             Seleccion();
 328:main.c        ****             Max_Conta=5;
 329:main.c        ****             flag=2;
 330:main.c        ****             break;
 331:main.c        ****         case 2:
 332:main.c        ****             Prob_c=randd();
 333:main.c        ****             if(Prob_c<Umbral_Cruce){
 334:main.c        ****                 Cruce();
 335:main.c        ****             }
 336:main.c        ****             Prob_m=randd();
 337:main.c        ****             if(Prob_m<Umbral_Mutacion){
 338:main.c        ****                 Mutacion();
 339:main.c        ****             }
 340:main.c        ****             flag=3;
 341:main.c        ****             break;
 342:main.c        ****         case 3:
 343:main.c        ****             switch (conmutador){
 344:main.c        ****                 case 0:
 345:main.c        ****                     conmutador=1;
 346:main.c        ****                     Evaluar_Fitness(puntero);
 347:main.c        ****                     Max_Conta=100;
 348:main.c        ****                 break;
 349:main.c        ****                 case 1:
 350:main.c        ****                     conmutador=2;
 351:main.c        ****                     Espere();
 352:main.c        ****                     Max_Conta=20;
 353:main.c        ****                 break;
 354:main.c        ****                 case 2:
 355:main.c        ****                     conmutador=0;
 356:main.c        ****                     Fitness_1[puntero]=(float)dist;
 357:main.c        ****                     puntero++;
 358:main.c        ****                     Max_Conta=5;
 359:main.c        ****                     if(puntero==Individuos){flag=0;}
 360:main.c        ****                 break;
 361:main.c        ****             }
 362:main.c        ****             break;
 363:main.c        ****     }
 364:main.c        **** }
 365:main.c        **** 
 366:main.c        **** void Left_Move(){
 367:main.c        ****     Send_Angle(200);
 368:main.c        ****     int  i=0;
 369:main.c        ****     int j=0;
 370:main.c        ****     for(i=0;i<cantidadM;i++){ //Alineación
 371:main.c        ****         movimiento(i,512);
 372:main.c        ****         }
ARM GAS  C:\Users\HENRYA~1\AppData\Local\Temp\cchXA1T4.s 			page 8


 373:main.c        ****     CyDelay(2000);
 374:main.c        ****     movimiento(cantidadM,675);//Ancla Trasera
 375:main.c        ****     CyDelay(2000);
 376:main.c        ****     //Giro
 377:main.c        ****     for(j=0;j<1;j++){
 378:main.c        ****         for(i=2;i<cantidadM;i=i+4){ 
 379:main.c        ****             movimiento(i,650);
 380:main.c        ****             movimiento(i+1,750);
 381:main.c        ****             }
 382:main.c        ****         movimiento(cantidadM,512);//Ancla Trasera
 383:main.c        ****         CyDelay(2000);
 384:main.c        ****         movimiento(0,350);//Ancla Delantera
 385:main.c        ****         CyDelay(2000);
 386:main.c        ****         for(i=2;i<cantidadM;i=i+4){ //Alineación
 387:main.c        ****             movimiento(i,512);
 388:main.c        ****             movimiento(i+1,512);
 389:main.c        ****         }    
 390:main.c        ****         CyDelay(2000);
 391:main.c        ****     }         
 392:main.c        ****     for(i=0;i<cantidadM;i++){ //Alineación
 393:main.c        ****         movimiento(i,512);
 394:main.c        ****         }
 395:main.c        ****     CyDelay(2000); 
 396:main.c        ****     Send_Angle(0);
 397:main.c        **** }
 398:main.c        **** 
 399:main.c        **** void Right_Move(){
 400:main.c        ****     Send_Angle(200);
 401:main.c        ****     int  i=0;
 402:main.c        ****     int j=0;
 403:main.c        ****     for(i=0;i<cantidadM;i++){ //Alineación
 404:main.c        ****         movimiento(i,512);
 405:main.c        ****         }
 406:main.c        ****     CyDelay(2000);
 407:main.c        ****     movimiento(cantidadM,675);//Ancla Trasera
 408:main.c        ****     CyDelay(2000);
 409:main.c        ****     //Giro
 410:main.c        ****     for(j=0;j<1;j++){
 411:main.c        ****         for(i=2;i<cantidadM;i=i+4){ 
 412:main.c        ****             movimiento(i,374);
 413:main.c        ****             movimiento(i+1,274);
 414:main.c        ****             }
 415:main.c        ****         movimiento(cantidadM,512);//Ancla Trasera
 416:main.c        ****         CyDelay(2000);
 417:main.c        ****         movimiento(0,350);//Ancla Delantera
 418:main.c        ****         CyDelay(2000);
 419:main.c        ****         for(i=2;i<cantidadM;i=i+4){ //Alineación
 420:main.c        ****             movimiento(i,512);
 421:main.c        ****             movimiento(i+1,512);
 422:main.c        ****         }    
 423:main.c        ****         CyDelay(2000);
 424:main.c        ****     }         
 425:main.c        ****     for(i=0;i<cantidadM;i++){ //Alineación
 426:main.c        ****         movimiento(i,512);
 427:main.c        ****         }
 428:main.c        ****     CyDelay(2000); 
 429:main.c        ****     Send_Angle(0);
ARM GAS  C:\Users\HENRYA~1\AppData\Local\Temp\cchXA1T4.s 			page 9


 430:main.c        **** }
 431:main.c        **** 
 432:main.c        **** void Select_Move(){
 433:main.c        ****     Send_Angle(200);
 434:main.c        ****     int  i=0;
 435:main.c        ****     for(i=0;i<6;i++){ //Alineación
 436:main.c        ****         movimiento(i,512);
 437:main.c        ****         }
 438:main.c        ****     CyDelay(2000);
 439:main.c        ****     movimiento(2,750);
 440:main.c        ****     CyDelay(5000);
 441:main.c        ****     move_s=1;
 442:main.c        **** }
 443:main.c        **** 
 444:main.c        **** void Select_Move_2(){
 445:main.c        ****     punto_a=dist;  
 446:main.c        ****     move_s=2;
 447:main.c        **** }
 448:main.c        **** 
 449:main.c        **** void Select_Move_3(){
 450:main.c        ****     movimiento(2,274);
 451:main.c        ****     CyDelay(5000);
 452:main.c        ****     move_s=3;
 453:main.c        **** }
 454:main.c        **** 
 455:main.c        **** void Select_Move_4(){
 456:main.c        ****     punto_b=dist;
 457:main.c        ****     move_s=0;       
 458:main.c        ****     if(punto_a>=punto_b){
 459:main.c        ****         Left_Move();    
 460:main.c        ****     }
 461:main.c        ****     else{
 462:main.c        ****         Right_Move();
 463:main.c        ****     } 
 464:main.c        **** }
 465:main.c        **** 
 466:main.c        **** //Interrupt's
 467:main.c        **** CY_ISR(Temporizador){
 468:main.c        ****     conta++;
 469:main.c        ****     if(conta>=Max_Conta){     
 470:main.c        ****         LED_1_Write(1);
 471:main.c        ****         if(move_s==0){
 472:main.c        ****             if(Cantidad_Sensores==2){
 473:main.c        ****                 Select_Move();   
 474:main.c        ****                 Max_Conta=10;
 475:main.c        ****             }
 476:main.c        ****             else if(Cantidad_Sensores==3){//Izquierda
 477:main.c        ****                 Left_Move();
 478:main.c        ****                 Max_Conta=10;
 479:main.c        ****             }
 480:main.c        ****             else if(Cantidad_Sensores==6){//Derecha
 481:main.c        ****                 Right_Move();    
 482:main.c        ****                 Max_Conta=10;
 483:main.c        ****             }
 484:main.c        ****             else if(Cantidad_Sensores==7){//Reversa
 485:main.c        ****                 amplitud=0.8;offset=0.833;fase=-0.5;
 486:main.c        ****                 Enviar_Parametros(amplitud,fase,offset,V); 
ARM GAS  C:\Users\HENRYA~1\AppData\Local\Temp\cchXA1T4.s 			page 10


 487:main.c        ****                 CyDelay(1000);
 488:main.c        ****                 Enviar_Parametros(0.0,fase,offset,H);
 489:main.c        ****                 CyDelay(15000);
 490:main.c        ****                 Max_Conta=10;
 491:main.c        ****             }
 492:main.c        ****             else{   //Adelante      
 493:main.c        ****                 A_G();          
 494:main.c        ****             }
 495:main.c        ****         }
 496:main.c        ****         else if (move_s==1){Select_Move_2();}
 497:main.c        ****         else if (move_s==2){Select_Move_3();}
 498:main.c        ****         else{Select_Move_4();}
 499:main.c        ****         conta=0;
 500:main.c        ****     }
 501:main.c        ****     else{
 502:main.c        ****         LED_1_Write(0);
 503:main.c        ****     }  
 504:main.c        **** }
 505:main.c        **** 
 506:main.c        **** CY_ISR(Serial_Interrupt){
  28              		.loc 1 506 0
  29              		.cfi_startproc
  30              		@ args = 0, pretend = 0, frame = 0
  31              		@ frame_needed = 0, uses_anonymous_args = 0
  32 0000 10B5     		push	{r4, lr}
  33              		.cfi_def_cfa_offset 8
  34              		.cfi_offset 4, -8
  35              		.cfi_offset 14, -4
 507:main.c        ****     dist=SENSOR_U_GetChar();
  36              		.loc 1 507 0
  37 0002 FFF7FEFF 		bl	SENSOR_U_GetChar
  38              	.LVL0:
  39 0006 014B     		ldr	r3, .L2
  40 0008 1870     		strb	r0, [r3]
 508:main.c        **** }
  41              		.loc 1 508 0
  42              		@ sp needed
  43 000a 10BD     		pop	{r4, pc}
  44              	.L3:
  45              		.align	2
  46              	.L2:
  47 000c 00000000 		.word	.LANCHOR0
  48              		.cfi_endproc
  49              	.LFE65:
  50              		.size	Serial_Interrupt, .-Serial_Interrupt
  51              		.global	__aeabi_i2d
  52              		.global	__aeabi_dmul
  53              		.section	.text.randd,"ax",%progbits
  54              		.align	2
  55              		.global	randd
  56              		.code	16
  57              		.thumb_func
  58              		.type	randd, %function
  59              	randd:
  60              	.LFB37:
  43:main.c        ****   return (double)rand()/((double)RAND_MAX + 1);
  61              		.loc 1 43 0
ARM GAS  C:\Users\HENRYA~1\AppData\Local\Temp\cchXA1T4.s 			page 11


  62              		.cfi_startproc
  63              		@ args = 0, pretend = 0, frame = 0
  64              		@ frame_needed = 0, uses_anonymous_args = 0
  65 0000 10B5     		push	{r4, lr}
  66              		.cfi_def_cfa_offset 8
  67              		.cfi_offset 4, -8
  68              		.cfi_offset 14, -4
  44:main.c        **** }
  69              		.loc 1 44 0
  70 0002 FFF7FEFF 		bl	rand
  71              	.LVL1:
  72 0006 FFF7FEFF 		bl	__aeabi_i2d
  73              	.LVL2:
  74 000a 0022     		movs	r2, #0
  75 000c F823     		movs	r3, #248
  76 000e 9B05     		lsls	r3, r3, #22
  77 0010 FFF7FEFF 		bl	__aeabi_dmul
  78              	.LVL3:
  45:main.c        **** 
  79              		.loc 1 45 0
  80              		@ sp needed
  81 0014 10BD     		pop	{r4, pc}
  82              		.cfi_endproc
  83              	.LFE37:
  84              		.size	randd, .-randd
  85 0016 C046     		.section	.text.random_gauss,"ax",%progbits
  86              		.align	2
  87              		.global	random_gauss
  88              		.code	16
  89              		.thumb_func
  90              		.type	random_gauss, %function
  91              	random_gauss:
  92              	.LFB38:
  47:main.c        ****     return randd()*0.2;
  93              		.loc 1 47 0
  94              		.cfi_startproc
  95              		@ args = 0, pretend = 0, frame = 0
  96              		@ frame_needed = 0, uses_anonymous_args = 0
  97 0000 10B5     		push	{r4, lr}
  98              		.cfi_def_cfa_offset 8
  99              		.cfi_offset 4, -8
 100              		.cfi_offset 14, -4
  48:main.c        **** }
 101              		.loc 1 48 0
 102 0002 FFF7FEFF 		bl	randd
 103              	.LVL4:
 104 0006 024A     		ldr	r2, .L6
 105 0008 024B     		ldr	r3, .L6+4
 106 000a FFF7FEFF 		bl	__aeabi_dmul
 107              	.LVL5:
  49:main.c        **** 
 108              		.loc 1 49 0
 109              		@ sp needed
 110 000e 10BD     		pop	{r4, pc}
 111              	.L7:
 112              		.align	2
 113              	.L6:
ARM GAS  C:\Users\HENRYA~1\AppData\Local\Temp\cchXA1T4.s 			page 12


 114 0010 9A999999 		.word	-1717986918
 115 0014 9999C93F 		.word	1070176665
 116              		.cfi_endproc
 117              	.LFE38:
 118              		.size	random_gauss, .-random_gauss
 119              		.section	.text.random_amplitud,"ax",%progbits
 120              		.align	2
 121              		.global	random_amplitud
 122              		.code	16
 123              		.thumb_func
 124              		.type	random_amplitud, %function
 125              	random_amplitud:
 126              	.LFB39:
  51:main.c        ****     return randd();
 127              		.loc 1 51 0
 128              		.cfi_startproc
 129              		@ args = 0, pretend = 0, frame = 0
 130              		@ frame_needed = 0, uses_anonymous_args = 0
 131 0000 10B5     		push	{r4, lr}
 132              		.cfi_def_cfa_offset 8
 133              		.cfi_offset 4, -8
 134              		.cfi_offset 14, -4
  52:main.c        **** }
 135              		.loc 1 52 0
 136 0002 FFF7FEFF 		bl	randd
 137              	.LVL6:
  53:main.c        **** 
 138              		.loc 1 53 0
 139              		@ sp needed
 140 0006 10BD     		pop	{r4, pc}
 141              		.cfi_endproc
 142              	.LFE39:
 143              		.size	random_amplitud, .-random_amplitud
 144              		.global	__aeabi_d2f
 145              		.global	__aeabi_fadd
 146              		.global	__aeabi_fsub
 147              		.global	__aeabi_f2d
 148              		.section	.text.random_Fase,"ax",%progbits
 149              		.align	2
 150              		.global	random_Fase
 151              		.code	16
 152              		.thumb_func
 153              		.type	random_Fase, %function
 154              	random_Fase:
 155              	.LFB40:
  55:main.c        ****     float r=0.0;
 156              		.loc 1 55 0
 157              		.cfi_startproc
 158              		@ args = 0, pretend = 0, frame = 0
 159              		@ frame_needed = 0, uses_anonymous_args = 0
 160 0000 10B5     		push	{r4, lr}
 161              		.cfi_def_cfa_offset 8
 162              		.cfi_offset 4, -8
 163              		.cfi_offset 14, -4
 164              	.LVL7:
  57:main.c        ****     r=r*2;
 165              		.loc 1 57 0
ARM GAS  C:\Users\HENRYA~1\AppData\Local\Temp\cchXA1T4.s 			page 13


 166 0002 FFF7FEFF 		bl	randd
 167              	.LVL8:
 168 0006 FFF7FEFF 		bl	__aeabi_d2f
 169              	.LVL9:
  58:main.c        ****     r=r-1;
 170              		.loc 1 58 0
 171 000a 011C     		adds	r1, r0, #0
 172 000c FFF7FEFF 		bl	__aeabi_fadd
 173              	.LVL10:
  59:main.c        ****     return r;
 174              		.loc 1 59 0
 175 0010 FE21     		movs	r1, #254
 176 0012 8905     		lsls	r1, r1, #22
 177 0014 FFF7FEFF 		bl	__aeabi_fsub
 178              	.LVL11:
  60:main.c        **** }
 179              		.loc 1 60 0
 180 0018 FFF7FEFF 		bl	__aeabi_f2d
 181              	.LVL12:
  61:main.c        **** 
 182              		.loc 1 61 0
 183              		@ sp needed
 184 001c 10BD     		pop	{r4, pc}
 185              		.cfi_endproc
 186              	.LFE40:
 187              		.size	random_Fase, .-random_Fase
 188              		.global	__aeabi_dadd
 189 001e C046     		.section	.text.random_Offset,"ax",%progbits
 190              		.align	2
 191              		.global	random_Offset
 192              		.code	16
 193              		.thumb_func
 194              		.type	random_Offset, %function
 195              	random_Offset:
 196              	.LFB41:
  63:main.c        ****     float r=0.0;
 197              		.loc 1 63 0
 198              		.cfi_startproc
 199              		@ args = 0, pretend = 0, frame = 0
 200              		@ frame_needed = 0, uses_anonymous_args = 0
 201 0000 10B5     		push	{r4, lr}
 202              		.cfi_def_cfa_offset 8
 203              		.cfi_offset 4, -8
 204              		.cfi_offset 14, -4
 205              	.LVL13:
  65:main.c        ****     r=r*0.35;
 206              		.loc 1 65 0
 207 0002 FFF7FEFF 		bl	randd
 208              	.LVL14:
 209 0006 FFF7FEFF 		bl	__aeabi_d2f
 210              	.LVL15:
  66:main.c        ****     r=r+0.65;
 211              		.loc 1 66 0
 212 000a FFF7FEFF 		bl	__aeabi_f2d
 213              	.LVL16:
 214 000e 084A     		ldr	r2, .L11
 215 0010 084B     		ldr	r3, .L11+4
ARM GAS  C:\Users\HENRYA~1\AppData\Local\Temp\cchXA1T4.s 			page 14


 216 0012 FFF7FEFF 		bl	__aeabi_dmul
 217              	.LVL17:
 218 0016 FFF7FEFF 		bl	__aeabi_d2f
 219              	.LVL18:
  67:main.c        ****     return r;
 220              		.loc 1 67 0
 221 001a FFF7FEFF 		bl	__aeabi_f2d
 222              	.LVL19:
 223 001e 064A     		ldr	r2, .L11+8
 224 0020 064B     		ldr	r3, .L11+12
 225 0022 FFF7FEFF 		bl	__aeabi_dadd
 226              	.LVL20:
 227 0026 FFF7FEFF 		bl	__aeabi_d2f
 228              	.LVL21:
  68:main.c        **** }
 229              		.loc 1 68 0
 230 002a FFF7FEFF 		bl	__aeabi_f2d
 231              	.LVL22:
  69:main.c        **** 
 232              		.loc 1 69 0
 233              		@ sp needed
 234 002e 10BD     		pop	{r4, pc}
 235              	.L12:
 236              		.align	2
 237              	.L11:
 238 0030 66666666 		.word	1717986918
 239 0034 6666D63F 		.word	1071015526
 240 0038 CDCCCCCC 		.word	-858993459
 241 003c CCCCE43F 		.word	1071959244
 242              		.cfi_endproc
 243              	.LFE41:
 244              		.size	random_Offset, .-random_Offset
 245              		.section	.text.movimiento,"ax",%progbits
 246              		.align	2
 247              		.global	movimiento
 248              		.code	16
 249              		.thumb_func
 250              		.type	movimiento, %function
 251              	movimiento:
 252              	.LFB42:
  71:main.c        ****     char byteh,bytel;
 253              		.loc 1 71 0
 254              		.cfi_startproc
 255              		@ args = 0, pretend = 0, frame = 0
 256              		@ frame_needed = 0, uses_anonymous_args = 0
 257              	.LVL23:
 258 0000 10B5     		push	{r4, lr}
 259              		.cfi_def_cfa_offset 8
 260              		.cfi_offset 4, -8
 261              		.cfi_offset 14, -4
  73:main.c        ****     bytel=mov;
 262              		.loc 1 73 0
 263 0002 0A12     		asrs	r2, r1, #8
 264              	.LVL24:
  75:main.c        ****     dato_enviado[1]=dirr ;//dir
 265              		.loc 1 75 0
 266 0004 074B     		ldr	r3, .L14
ARM GAS  C:\Users\HENRYA~1\AppData\Local\Temp\cchXA1T4.s 			page 15


 267 0006 7F24     		movs	r4, #127
 268 0008 1C70     		strb	r4, [r3]
  76:main.c        ****     dato_enviado[2]=ESCRITURA ;//operacion
 269              		.loc 1 76 0
 270 000a 5870     		strb	r0, [r3, #1]
  77:main.c        ****     dato_enviado[3]=MOTOR;//lugar
 271              		.loc 1 77 0
 272 000c 0220     		movs	r0, #2
 273              	.LVL25:
 274 000e 9870     		strb	r0, [r3, #2]
  78:main.c        ****     dato_enviado[4]= byteh ;  //dato
 275              		.loc 1 78 0
 276 0010 0130     		adds	r0, r0, #1
 277 0012 D870     		strb	r0, [r3, #3]
  79:main.c        ****     dato_enviado[5]= bytel ;  //dato
 278              		.loc 1 79 0
 279 0014 1A71     		strb	r2, [r3, #4]
  80:main.c        ****     CAN_SendMsg0(); 
 280              		.loc 1 80 0
 281 0016 5971     		strb	r1, [r3, #5]
  81:main.c        ****     CyDelay(25);    
 282              		.loc 1 81 0
 283 0018 FFF7FEFF 		bl	CAN_SendMsg0
 284              	.LVL26:
  82:main.c        **** }
 285              		.loc 1 82 0
 286 001c 1920     		movs	r0, #25
 287 001e FFF7FEFF 		bl	CyDelay
 288              	.LVL27:
  83:main.c        **** 
 289              		.loc 1 83 0
 290              		@ sp needed
 291 0022 10BD     		pop	{r4, pc}
 292              	.L15:
 293              		.align	2
 294              	.L14:
 295 0024 00000000 		.word	dato_enviado
 296              		.cfi_endproc
 297              	.LFE42:
 298              		.size	movimiento, .-movimiento
 299              		.section	.text.Send_Angle,"ax",%progbits
 300              		.align	2
 301              		.global	Send_Angle
 302              		.code	16
 303              		.thumb_func
 304              		.type	Send_Angle, %function
 305              	Send_Angle:
 306              	.LFB43:
  85:main.c        ****     dato_enviado[0]=VER2;//verificacion
 307              		.loc 1 85 0
 308              		.cfi_startproc
 309              		@ args = 0, pretend = 0, frame = 0
 310              		@ frame_needed = 0, uses_anonymous_args = 0
 311              	.LVL28:
 312 0000 10B5     		push	{r4, lr}
 313              		.cfi_def_cfa_offset 8
 314              		.cfi_offset 4, -8
ARM GAS  C:\Users\HENRYA~1\AppData\Local\Temp\cchXA1T4.s 			page 16


 315              		.cfi_offset 14, -4
  86:main.c        ****     dato_enviado[1]=Conta3;//dir
 316              		.loc 1 86 0
 317 0002 094B     		ldr	r3, .L17
 318 0004 8022     		movs	r2, #128
 319 0006 1A70     		strb	r2, [r3]
  87:main.c        ****     dato_enviado[2]=Conta3;//dir
 320              		.loc 1 87 0
 321 0008 C0B2     		uxtb	r0, r0
 322              	.LVL29:
 323 000a 5870     		strb	r0, [r3, #1]
  88:main.c        ****     dato_enviado[3]=ANGLE;
 324              		.loc 1 88 0
 325 000c 9870     		strb	r0, [r3, #2]
  89:main.c        ****     dato_enviado[4]=0;//lugar
 326              		.loc 1 89 0
 327 000e 653A     		subs	r2, r2, #101
 328 0010 DA70     		strb	r2, [r3, #3]
  90:main.c        ****     dato_enviado[5]=0;  //dato... en este caso direcion para asignar
 329              		.loc 1 90 0
 330 0012 0022     		movs	r2, #0
 331 0014 1A71     		strb	r2, [r3, #4]
  91:main.c        ****     dato_enviado[6]=0;
 332              		.loc 1 91 0
 333 0016 5A71     		strb	r2, [r3, #5]
  92:main.c        ****     dato_enviado[7]=Conta3;
 334              		.loc 1 92 0
 335 0018 9A71     		strb	r2, [r3, #6]
  93:main.c        ****     CAN_SendMsg0(); 
 336              		.loc 1 93 0
 337 001a D871     		strb	r0, [r3, #7]
  94:main.c        ****     CyDelay(50);
 338              		.loc 1 94 0
 339 001c FFF7FEFF 		bl	CAN_SendMsg0
 340              	.LVL30:
  95:main.c        **** }
 341              		.loc 1 95 0
 342 0020 3220     		movs	r0, #50
 343 0022 FFF7FEFF 		bl	CyDelay
 344              	.LVL31:
  96:main.c        **** 
 345              		.loc 1 96 0
 346              		@ sp needed
 347 0026 10BD     		pop	{r4, pc}
 348              	.L18:
 349              		.align	2
 350              	.L17:
 351 0028 00000000 		.word	dato_enviado
 352              		.cfi_endproc
 353              	.LFE43:
 354              		.size	Send_Angle, .-Send_Angle
 355              		.global	__aeabi_fmul
 356              		.global	__aeabi_f2iz
 357              		.global	__aeabi_fcmplt
 358              		.section	.text.Enviar_Parametros,"ax",%progbits
 359              		.align	2
 360              		.global	Enviar_Parametros
ARM GAS  C:\Users\HENRYA~1\AppData\Local\Temp\cchXA1T4.s 			page 17


 361              		.code	16
 362              		.thumb_func
 363              		.type	Enviar_Parametros, %function
 364              	Enviar_Parametros:
 365              	.LFB44:
  98:main.c        ****     //Convertir el Valor a entero para ser enviado
 366              		.loc 1 98 0
 367              		.cfi_startproc
 368              		@ args = 0, pretend = 0, frame = 16
 369              		@ frame_needed = 0, uses_anonymous_args = 0
 370              	.LVL32:
 371 0000 F0B5     		push	{r4, r5, r6, r7, lr}
 372              		.cfi_def_cfa_offset 20
 373              		.cfi_offset 4, -20
 374              		.cfi_offset 5, -16
 375              		.cfi_offset 6, -12
 376              		.cfi_offset 7, -8
 377              		.cfi_offset 14, -4
 378 0002 85B0     		sub	sp, sp, #20
 379              		.cfi_def_cfa_offset 40
 380 0004 0190     		str	r0, [sp, #4]
 381 0006 0291     		str	r1, [sp, #8]
 382 0008 0392     		str	r2, [sp, #12]
 383 000a 1F00     		movs	r7, r3
 100:main.c        ****     int Phase_env=(int)fabs(Phase*10000);
 384              		.loc 1 100 0
 385 000c 2749     		ldr	r1, .L29
 386              	.LVL33:
 387 000e FFF7FEFF 		bl	__aeabi_fmul
 388              	.LVL34:
 389 0012 4000     		lsls	r0, r0, #1
 390 0014 4008     		lsrs	r0, r0, #1
 391 0016 FFF7FEFF 		bl	__aeabi_f2iz
 392              	.LVL35:
 393 001a 0600     		movs	r6, r0
 394              	.LVL36:
 101:main.c        ****     int Offset_env=(int)fabs(Offset*10000);
 395              		.loc 1 101 0
 396 001c 2349     		ldr	r1, .L29
 397 001e 0298     		ldr	r0, [sp, #8]
 398              	.LVL37:
 399 0020 FFF7FEFF 		bl	__aeabi_fmul
 400              	.LVL38:
 401 0024 4000     		lsls	r0, r0, #1
 402 0026 4008     		lsrs	r0, r0, #1
 403 0028 FFF7FEFF 		bl	__aeabi_f2iz
 404              	.LVL39:
 405 002c 0500     		movs	r5, r0
 406              	.LVL40:
 102:main.c        ****     //Enviar datos
 407              		.loc 1 102 0
 408 002e 1F49     		ldr	r1, .L29
 409 0030 0398     		ldr	r0, [sp, #12]
 410              	.LVL41:
 411 0032 FFF7FEFF 		bl	__aeabi_fmul
 412              	.LVL42:
 413 0036 4000     		lsls	r0, r0, #1
ARM GAS  C:\Users\HENRYA~1\AppData\Local\Temp\cchXA1T4.s 			page 18


 414 0038 4008     		lsrs	r0, r0, #1
 415 003a FFF7FEFF 		bl	__aeabi_f2iz
 416              	.LVL43:
 417 003e 0400     		movs	r4, r0
 418              	.LVL44:
 104:main.c        ****     dato_enviado_1[1]=Orientacion;
 419              		.loc 1 104 0
 420 0040 1B4B     		ldr	r3, .L29+4
 421 0042 8122     		movs	r2, #129
 422 0044 1A70     		strb	r2, [r3]
 105:main.c        ****     //Convertir Amplitud
 423              		.loc 1 105 0
 424 0046 5F70     		strb	r7, [r3, #1]
 107:main.c        ****     uint8 datoH=Amp_env>>8;
 425              		.loc 1 107 0
 426 0048 F7B2     		uxtb	r7, r6
 427              	.LVL45:
 108:main.c        ****     uint8 Aux=0;
 428              		.loc 1 108 0
 429 004a 3612     		asrs	r6, r6, #8
 430              	.LVL46:
 431 004c F6B2     		uxtb	r6, r6
 432              	.LVL47:
 110:main.c        ****         Aux=(1<<7);
 433              		.loc 1 110 0
 434 004e 0021     		movs	r1, #0
 435 0050 0198     		ldr	r0, [sp, #4]
 436              	.LVL48:
 437 0052 FFF7FEFF 		bl	__aeabi_fcmplt
 438              	.LVL49:
 439 0056 0028     		cmp	r0, #0
 440 0058 01D0     		beq	.L20
 441              	.LVL50:
 112:main.c        ****     }
 442              		.loc 1 112 0
 443 005a 803E     		subs	r6, r6, #128
 444              	.LVL51:
 445 005c F6B2     		uxtb	r6, r6
 446              	.LVL52:
 447              	.L20:
 118:main.c        ****     dato_enviado_1[3]=datoH;
 448              		.loc 1 118 0
 449 005e 144B     		ldr	r3, .L29+4
 450 0060 9F70     		strb	r7, [r3, #2]
 119:main.c        ****     //Convertir Fase
 451              		.loc 1 119 0
 452 0062 DE70     		strb	r6, [r3, #3]
 121:main.c        ****     datoH=Phase_env>>8;
 453              		.loc 1 121 0
 454 0064 EEB2     		uxtb	r6, r5
 455              	.LVL53:
 122:main.c        ****     if(Phase<0.0){
 456              		.loc 1 122 0
 457 0066 2D12     		asrs	r5, r5, #8
 458              	.LVL54:
 459 0068 EDB2     		uxtb	r5, r5
 460              	.LVL55:
ARM GAS  C:\Users\HENRYA~1\AppData\Local\Temp\cchXA1T4.s 			page 19


 123:main.c        ****         Aux=(1<<7);
 461              		.loc 1 123 0
 462 006a 0021     		movs	r1, #0
 463 006c 0298     		ldr	r0, [sp, #8]
 464 006e FFF7FEFF 		bl	__aeabi_fcmplt
 465              	.LVL56:
 466 0072 0028     		cmp	r0, #0
 467 0074 01D0     		beq	.L22
 468              	.LVL57:
 125:main.c        ****     }
 469              		.loc 1 125 0
 470 0076 803D     		subs	r5, r5, #128
 471              	.LVL58:
 472 0078 EDB2     		uxtb	r5, r5
 473              	.LVL59:
 474              	.L22:
 131:main.c        ****     dato_enviado_1[5]=datoH;
 475              		.loc 1 131 0
 476 007a 0D4B     		ldr	r3, .L29+4
 477 007c 1E71     		strb	r6, [r3, #4]
 132:main.c        ****     //Convertir Offset
 478              		.loc 1 132 0
 479 007e 5D71     		strb	r5, [r3, #5]
 134:main.c        ****     datoH=Offset_env>>8;
 480              		.loc 1 134 0
 481 0080 E5B2     		uxtb	r5, r4
 482              	.LVL60:
 135:main.c        ****     if(Offset<0.0){
 483              		.loc 1 135 0
 484 0082 2412     		asrs	r4, r4, #8
 485              	.LVL61:
 486 0084 E4B2     		uxtb	r4, r4
 487              	.LVL62:
 136:main.c        ****         Aux=(1<<7);
 488              		.loc 1 136 0
 489 0086 0021     		movs	r1, #0
 490 0088 0398     		ldr	r0, [sp, #12]
 491 008a FFF7FEFF 		bl	__aeabi_fcmplt
 492              	.LVL63:
 493 008e 0028     		cmp	r0, #0
 494 0090 01D0     		beq	.L24
 495              	.LVL64:
 138:main.c        ****     }
 496              		.loc 1 138 0
 497 0092 803C     		subs	r4, r4, #128
 498              	.LVL65:
 499 0094 E4B2     		uxtb	r4, r4
 500              	.LVL66:
 501              	.L24:
 144:main.c        ****     dato_enviado_1[7]=datoH;    
 502              		.loc 1 144 0
 503 0096 064B     		ldr	r3, .L29+4
 504 0098 9D71     		strb	r5, [r3, #6]
 145:main.c        ****     CAN_SendMsg1();
 505              		.loc 1 145 0
 506 009a DC71     		strb	r4, [r3, #7]
 146:main.c        ****     CyDelay(25);
ARM GAS  C:\Users\HENRYA~1\AppData\Local\Temp\cchXA1T4.s 			page 20


 507              		.loc 1 146 0
 508 009c FFF7FEFF 		bl	CAN_SendMsg1
 509              	.LVL67:
 147:main.c        **** }
 510              		.loc 1 147 0
 511 00a0 1920     		movs	r0, #25
 512 00a2 FFF7FEFF 		bl	CyDelay
 513              	.LVL68:
 148:main.c        **** 
 514              		.loc 1 148 0
 515 00a6 05B0     		add	sp, sp, #20
 516              		@ sp needed
 517              	.LVL69:
 518              	.LVL70:
 519 00a8 F0BD     		pop	{r4, r5, r6, r7, pc}
 520              	.L30:
 521 00aa C046     		.align	2
 522              	.L29:
 523 00ac 00401C46 		.word	1176256512
 524 00b0 00000000 		.word	dato_enviado_1
 525              		.cfi_endproc
 526              	.LFE44:
 527              		.size	Enviar_Parametros, .-Enviar_Parametros
 528              		.section	.text.Recibe_mail_0,"ax",%progbits
 529              		.align	2
 530              		.global	Recibe_mail_0
 531              		.code	16
 532              		.thumb_func
 533              		.type	Recibe_mail_0, %function
 534              	Recibe_mail_0:
 535              	.LFB45:
 150:main.c        **** if(mailbox0[0]==VER){
 536              		.loc 1 150 0
 537              		.cfi_startproc
 538              		@ args = 0, pretend = 0, frame = 0
 539              		@ frame_needed = 0, uses_anonymous_args = 0
 540 0000 10B5     		push	{r4, lr}
 541              		.cfi_def_cfa_offset 8
 542              		.cfi_offset 4, -8
 543              		.cfi_offset 14, -4
 151:main.c        ****             switch(mailbox0[2]){
 544              		.loc 1 151 0
 545 0002 174B     		ldr	r3, .L37
 546 0004 1B78     		ldrb	r3, [r3]
 547 0006 7F2B     		cmp	r3, #127
 548 0008 0BD1     		bne	.L32
 152:main.c        ****             ///////////////////////////////////////////////////////
 549              		.loc 1 152 0
 550 000a 154A     		ldr	r2, .L37
 551 000c 9278     		ldrb	r2, [r2, #2]
 552 000e 022A     		cmp	r2, #2
 553 0010 07D1     		bne	.L32
 155:main.c        ****                     case CANTIDAD_MOD: 
 554              		.loc 1 155 0
 555 0012 134A     		ldr	r2, .L37
 556 0014 D278     		ldrb	r2, [r2, #3]
 557 0016 2B2A     		cmp	r2, #43
ARM GAS  C:\Users\HENRYA~1\AppData\Local\Temp\cchXA1T4.s 			page 21


 558 0018 03D1     		bne	.L32
 157:main.c        ****                     break;
 559              		.loc 1 157 0
 560 001a 114A     		ldr	r2, .L37
 561 001c 1179     		ldrb	r1, [r2, #4]
 562 001e 114A     		ldr	r2, .L37+4
 563 0020 5160     		str	r1, [r2, #4]
 564              	.L32:
 166:main.c        ****                 switch(mailbox0[3]){
 565              		.loc 1 166 0
 566 0022 802B     		cmp	r3, #128
 567 0024 1AD1     		bne	.L31
 167:main.c        ****                 ///////////////////////////////////////////////////////
 568              		.loc 1 167 0
 569 0026 0E4B     		ldr	r3, .L37
 570 0028 DB78     		ldrb	r3, [r3, #3]
 571 002a 1B2B     		cmp	r3, #27
 572 002c 16D1     		bne	.L31
 573              	.LBB2:
 170:main.c        ****                     if(Contador>=cantidadM){
 574              		.loc 1 170 0
 575 002e 0C4B     		ldr	r3, .L37
 576 0030 DA79     		ldrb	r2, [r3, #7]
 577              	.LVL71:
 171:main.c        ****                         Enviar_Parametros(amplitud,fase,offset,V);
 578              		.loc 1 171 0
 579 0032 0C4B     		ldr	r3, .L37+4
 580 0034 5B68     		ldr	r3, [r3, #4]
 581 0036 9A42     		cmp	r2, r3
 582 0038 10DB     		blt	.L31
 172:main.c        ****                         CyDelay(10);
 583              		.loc 1 172 0
 584 003a 0B4B     		ldr	r3, .L37+8
 585 003c 1A68     		ldr	r2, [r3]
 586              	.LVL72:
 587 003e 094C     		ldr	r4, .L37+4
 588 0040 2123     		movs	r3, #33
 589 0042 A168     		ldr	r1, [r4, #8]
 590 0044 E068     		ldr	r0, [r4, #12]
 591 0046 FFF7FEFF 		bl	Enviar_Parametros
 592              	.LVL73:
 173:main.c        ****                         Enviar_Parametros(0.0,fase,0.833,H);  
 593              		.loc 1 173 0
 594 004a 0A20     		movs	r0, #10
 595 004c FFF7FEFF 		bl	CyDelay
 596              	.LVL74:
 174:main.c        ****                     } 
 597              		.loc 1 174 0
 598 0050 A168     		ldr	r1, [r4, #8]
 599 0052 2023     		movs	r3, #32
 600 0054 054A     		ldr	r2, .L37+12
 601 0056 0020     		movs	r0, #0
 602 0058 FFF7FEFF 		bl	Enviar_Parametros
 603              	.LVL75:
 604              	.L31:
 605              	.LBE2:
 179:main.c        **** 
ARM GAS  C:\Users\HENRYA~1\AppData\Local\Temp\cchXA1T4.s 			page 22


 606              		.loc 1 179 0
 607              		@ sp needed
 608 005c 10BD     		pop	{r4, pc}
 609              	.L38:
 610 005e C046     		.align	2
 611              	.L37:
 612 0060 00000000 		.word	mailbox0
 613 0064 00000000 		.word	.LANCHOR0
 614 0068 00000000 		.word	.LANCHOR1
 615 006c 7D3F553F 		.word	1062551421
 616              		.cfi_endproc
 617              	.LFE45:
 618              		.size	Recibe_mail_0, .-Recibe_mail_0
 619              		.section	.text.Recibe_Mail_2,"ax",%progbits
 620              		.align	2
 621              		.global	Recibe_Mail_2
 622              		.code	16
 623              		.thumb_func
 624              		.type	Recibe_Mail_2, %function
 625              	Recibe_Mail_2:
 626              	.LFB46:
 181:main.c        ****     if(mailbox2[0]==SENSORES){
 627              		.loc 1 181 0
 628              		.cfi_startproc
 629              		@ args = 0, pretend = 0, frame = 0
 630              		@ frame_needed = 0, uses_anonymous_args = 0
 631              		@ link register save eliminated.
 182:main.c        ****         //Mailbox2[1] Derecha
 632              		.loc 1 182 0
 633 0000 3B4B     		ldr	r3, .L49
 634 0002 1B78     		ldrb	r3, [r3]
 635 0004 822B     		cmp	r3, #130
 636 0006 72D1     		bne	.L39
 186:main.c        ****         else if(mailbox2[1]==0&&mailbox2[2]==0&&mailbox2[3]==1) {Cantidad_Sensores=1;}   //Izquierd
 637              		.loc 1 186 0
 638 0008 394B     		ldr	r3, .L49
 639 000a 5B78     		ldrb	r3, [r3, #1]
 640 000c 002B     		cmp	r3, #0
 641 000e 0AD1     		bne	.L41
 186:main.c        ****         else if(mailbox2[1]==0&&mailbox2[2]==0&&mailbox2[3]==1) {Cantidad_Sensores=1;}   //Izquierd
 642              		.loc 1 186 0 is_stmt 0 discriminator 1
 643 0010 374A     		ldr	r2, .L49
 644 0012 9278     		ldrb	r2, [r2, #2]
 645 0014 002A     		cmp	r2, #0
 646 0016 06D1     		bne	.L41
 186:main.c        ****         else if(mailbox2[1]==0&&mailbox2[2]==0&&mailbox2[3]==1) {Cantidad_Sensores=1;}   //Izquierd
 647              		.loc 1 186 0 discriminator 2
 648 0018 354A     		ldr	r2, .L49
 649 001a D278     		ldrb	r2, [r2, #3]
 650 001c 002A     		cmp	r2, #0
 651 001e 02D1     		bne	.L41
 186:main.c        ****         else if(mailbox2[1]==0&&mailbox2[2]==0&&mailbox2[3]==1) {Cantidad_Sensores=1;}   //Izquierd
 652              		.loc 1 186 0 discriminator 3
 653 0020 344B     		ldr	r3, .L49+4
 654 0022 1A61     		str	r2, [r3, #16]
 655 0024 63E0     		b	.L39
 656              	.L41:
ARM GAS  C:\Users\HENRYA~1\AppData\Local\Temp\cchXA1T4.s 			page 23


 187:main.c        ****         else if(mailbox2[1]==0&&mailbox2[2]==1&&mailbox2[3]==0) {Cantidad_Sensores=2;}   //Frontal
 657              		.loc 1 187 0 is_stmt 1
 658 0026 002B     		cmp	r3, #0
 659 0028 0AD1     		bne	.L42
 187:main.c        ****         else if(mailbox2[1]==0&&mailbox2[2]==1&&mailbox2[3]==0) {Cantidad_Sensores=2;}   //Frontal
 660              		.loc 1 187 0 is_stmt 0 discriminator 1
 661 002a 314A     		ldr	r2, .L49
 662 002c 9278     		ldrb	r2, [r2, #2]
 663 002e 002A     		cmp	r2, #0
 664 0030 06D1     		bne	.L42
 187:main.c        ****         else if(mailbox2[1]==0&&mailbox2[2]==1&&mailbox2[3]==0) {Cantidad_Sensores=2;}   //Frontal
 665              		.loc 1 187 0 discriminator 2
 666 0032 2F4A     		ldr	r2, .L49
 667 0034 D278     		ldrb	r2, [r2, #3]
 668 0036 012A     		cmp	r2, #1
 669 0038 02D1     		bne	.L42
 187:main.c        ****         else if(mailbox2[1]==0&&mailbox2[2]==1&&mailbox2[3]==0) {Cantidad_Sensores=2;}   //Frontal
 670              		.loc 1 187 0 discriminator 3
 671 003a 2E4B     		ldr	r3, .L49+4
 672 003c 1A61     		str	r2, [r3, #16]
 673 003e 56E0     		b	.L39
 674              	.L42:
 188:main.c        ****         else if(mailbox2[1]==0&&mailbox2[2]==1&&mailbox2[3]==1) {Cantidad_Sensores=3;}   //Frontal 
 675              		.loc 1 188 0 is_stmt 1
 676 0040 002B     		cmp	r3, #0
 677 0042 0BD1     		bne	.L43
 188:main.c        ****         else if(mailbox2[1]==0&&mailbox2[2]==1&&mailbox2[3]==1) {Cantidad_Sensores=3;}   //Frontal 
 678              		.loc 1 188 0 is_stmt 0 discriminator 1
 679 0044 2A4A     		ldr	r2, .L49
 680 0046 9278     		ldrb	r2, [r2, #2]
 681 0048 012A     		cmp	r2, #1
 682 004a 07D1     		bne	.L43
 188:main.c        ****         else if(mailbox2[1]==0&&mailbox2[2]==1&&mailbox2[3]==1) {Cantidad_Sensores=3;}   //Frontal 
 683              		.loc 1 188 0 discriminator 2
 684 004c 284A     		ldr	r2, .L49
 685 004e D278     		ldrb	r2, [r2, #3]
 686 0050 002A     		cmp	r2, #0
 687 0052 03D1     		bne	.L43
 188:main.c        ****         else if(mailbox2[1]==0&&mailbox2[2]==1&&mailbox2[3]==1) {Cantidad_Sensores=3;}   //Frontal 
 688              		.loc 1 188 0 discriminator 3
 689 0054 0232     		adds	r2, r2, #2
 690 0056 274B     		ldr	r3, .L49+4
 691 0058 1A61     		str	r2, [r3, #16]
 692 005a 48E0     		b	.L39
 693              	.L43:
 189:main.c        ****         else if(mailbox2[1]==1&&mailbox2[2]==0&&mailbox2[3]==0) {Cantidad_Sensores=4;}   //Derecha
 694              		.loc 1 189 0 is_stmt 1
 695 005c 002B     		cmp	r3, #0
 696 005e 0BD1     		bne	.L44
 189:main.c        ****         else if(mailbox2[1]==1&&mailbox2[2]==0&&mailbox2[3]==0) {Cantidad_Sensores=4;}   //Derecha
 697              		.loc 1 189 0 is_stmt 0 discriminator 1
 698 0060 234A     		ldr	r2, .L49
 699 0062 9278     		ldrb	r2, [r2, #2]
 700 0064 012A     		cmp	r2, #1
 701 0066 07D1     		bne	.L44
 189:main.c        ****         else if(mailbox2[1]==1&&mailbox2[2]==0&&mailbox2[3]==0) {Cantidad_Sensores=4;}   //Derecha
 702              		.loc 1 189 0 discriminator 2
ARM GAS  C:\Users\HENRYA~1\AppData\Local\Temp\cchXA1T4.s 			page 24


 703 0068 214A     		ldr	r2, .L49
 704 006a D278     		ldrb	r2, [r2, #3]
 705 006c 012A     		cmp	r2, #1
 706 006e 03D1     		bne	.L44
 189:main.c        ****         else if(mailbox2[1]==1&&mailbox2[2]==0&&mailbox2[3]==0) {Cantidad_Sensores=4;}   //Derecha
 707              		.loc 1 189 0 discriminator 3
 708 0070 0232     		adds	r2, r2, #2
 709 0072 204B     		ldr	r3, .L49+4
 710 0074 1A61     		str	r2, [r3, #16]
 711 0076 3AE0     		b	.L39
 712              	.L44:
 190:main.c        ****         else if(mailbox2[1]==1&&mailbox2[2]==0&&mailbox2[3]==1) {Cantidad_Sensores=5;}   //Derecha 
 713              		.loc 1 190 0 is_stmt 1
 714 0078 012B     		cmp	r3, #1
 715 007a 0BD1     		bne	.L45
 190:main.c        ****         else if(mailbox2[1]==1&&mailbox2[2]==0&&mailbox2[3]==1) {Cantidad_Sensores=5;}   //Derecha 
 716              		.loc 1 190 0 is_stmt 0 discriminator 1
 717 007c 1C4A     		ldr	r2, .L49
 718 007e 9278     		ldrb	r2, [r2, #2]
 719 0080 002A     		cmp	r2, #0
 720 0082 07D1     		bne	.L45
 190:main.c        ****         else if(mailbox2[1]==1&&mailbox2[2]==0&&mailbox2[3]==1) {Cantidad_Sensores=5;}   //Derecha 
 721              		.loc 1 190 0 discriminator 2
 722 0084 1A4A     		ldr	r2, .L49
 723 0086 D278     		ldrb	r2, [r2, #3]
 724 0088 002A     		cmp	r2, #0
 725 008a 03D1     		bne	.L45
 190:main.c        ****         else if(mailbox2[1]==1&&mailbox2[2]==0&&mailbox2[3]==1) {Cantidad_Sensores=5;}   //Derecha 
 726              		.loc 1 190 0 discriminator 3
 727 008c 0432     		adds	r2, r2, #4
 728 008e 194B     		ldr	r3, .L49+4
 729 0090 1A61     		str	r2, [r3, #16]
 730 0092 2CE0     		b	.L39
 731              	.L45:
 191:main.c        ****         else if(mailbox2[1]==1&&mailbox2[2]==1&&mailbox2[3]==0) {Cantidad_Sensores=6;}   //Frontal 
 732              		.loc 1 191 0 is_stmt 1
 733 0094 012B     		cmp	r3, #1
 734 0096 0BD1     		bne	.L46
 191:main.c        ****         else if(mailbox2[1]==1&&mailbox2[2]==1&&mailbox2[3]==0) {Cantidad_Sensores=6;}   //Frontal 
 735              		.loc 1 191 0 is_stmt 0 discriminator 1
 736 0098 154A     		ldr	r2, .L49
 737 009a 9278     		ldrb	r2, [r2, #2]
 738 009c 002A     		cmp	r2, #0
 739 009e 07D1     		bne	.L46
 191:main.c        ****         else if(mailbox2[1]==1&&mailbox2[2]==1&&mailbox2[3]==0) {Cantidad_Sensores=6;}   //Frontal 
 740              		.loc 1 191 0 discriminator 2
 741 00a0 134A     		ldr	r2, .L49
 742 00a2 D278     		ldrb	r2, [r2, #3]
 743 00a4 012A     		cmp	r2, #1
 744 00a6 03D1     		bne	.L46
 191:main.c        ****         else if(mailbox2[1]==1&&mailbox2[2]==1&&mailbox2[3]==0) {Cantidad_Sensores=6;}   //Frontal 
 745              		.loc 1 191 0 discriminator 3
 746 00a8 0432     		adds	r2, r2, #4
 747 00aa 124B     		ldr	r3, .L49+4
 748 00ac 1A61     		str	r2, [r3, #16]
 749 00ae 1EE0     		b	.L39
 750              	.L46:
ARM GAS  C:\Users\HENRYA~1\AppData\Local\Temp\cchXA1T4.s 			page 25


 192:main.c        ****         else if(mailbox2[1]==1&&mailbox2[2]==1&&mailbox2[3]==1) {Cantidad_Sensores=7;}   //Todos
 751              		.loc 1 192 0 is_stmt 1
 752 00b0 012B     		cmp	r3, #1
 753 00b2 0BD1     		bne	.L47
 192:main.c        ****         else if(mailbox2[1]==1&&mailbox2[2]==1&&mailbox2[3]==1) {Cantidad_Sensores=7;}   //Todos
 754              		.loc 1 192 0 is_stmt 0 discriminator 1
 755 00b4 0E4A     		ldr	r2, .L49
 756 00b6 9278     		ldrb	r2, [r2, #2]
 757 00b8 012A     		cmp	r2, #1
 758 00ba 07D1     		bne	.L47
 192:main.c        ****         else if(mailbox2[1]==1&&mailbox2[2]==1&&mailbox2[3]==1) {Cantidad_Sensores=7;}   //Todos
 759              		.loc 1 192 0 discriminator 2
 760 00bc 0C4A     		ldr	r2, .L49
 761 00be D278     		ldrb	r2, [r2, #3]
 762 00c0 002A     		cmp	r2, #0
 763 00c2 03D1     		bne	.L47
 192:main.c        ****         else if(mailbox2[1]==1&&mailbox2[2]==1&&mailbox2[3]==1) {Cantidad_Sensores=7;}   //Todos
 764              		.loc 1 192 0 discriminator 3
 765 00c4 0632     		adds	r2, r2, #6
 766 00c6 0B4B     		ldr	r3, .L49+4
 767 00c8 1A61     		str	r2, [r3, #16]
 768 00ca 10E0     		b	.L39
 769              	.L47:
 193:main.c        ****         else                                                    {Cantidad_Sensores=0;}   //Normal
 770              		.loc 1 193 0 is_stmt 1
 771 00cc 012B     		cmp	r3, #1
 772 00ce 0BD1     		bne	.L48
 193:main.c        ****         else                                                    {Cantidad_Sensores=0;}   //Normal
 773              		.loc 1 193 0 is_stmt 0 discriminator 1
 774 00d0 074B     		ldr	r3, .L49
 775 00d2 9B78     		ldrb	r3, [r3, #2]
 776 00d4 012B     		cmp	r3, #1
 777 00d6 07D1     		bne	.L48
 193:main.c        ****         else                                                    {Cantidad_Sensores=0;}   //Normal
 778              		.loc 1 193 0 discriminator 2
 779 00d8 054B     		ldr	r3, .L49
 780 00da DB78     		ldrb	r3, [r3, #3]
 781 00dc 012B     		cmp	r3, #1
 782 00de 03D1     		bne	.L48
 193:main.c        ****         else                                                    {Cantidad_Sensores=0;}   //Normal
 783              		.loc 1 193 0 discriminator 3
 784 00e0 0722     		movs	r2, #7
 785 00e2 044B     		ldr	r3, .L49+4
 786 00e4 1A61     		str	r2, [r3, #16]
 787 00e6 02E0     		b	.L39
 788              	.L48:
 194:main.c        ****     }
 789              		.loc 1 194 0 is_stmt 1
 790 00e8 0022     		movs	r2, #0
 791 00ea 024B     		ldr	r3, .L49+4
 792 00ec 1A61     		str	r2, [r3, #16]
 793              	.L39:
 196:main.c        **** 
 794              		.loc 1 196 0
 795              		@ sp needed
 796 00ee 7047     		bx	lr
 797              	.L50:
ARM GAS  C:\Users\HENRYA~1\AppData\Local\Temp\cchXA1T4.s 			page 26


 798              		.align	2
 799              	.L49:
 800 00f0 00000000 		.word	mailbox2
 801 00f4 00000000 		.word	.LANCHOR0
 802              		.cfi_endproc
 803              	.LFE46:
 804              		.size	Recibe_Mail_2, .-Recibe_Mail_2
 805              		.section	.text.interrutcan,"ax",%progbits
 806              		.align	2
 807              		.global	interrutcan
 808              		.code	16
 809              		.thumb_func
 810              		.type	interrutcan, %function
 811              	interrutcan:
 812              	.LFB47:
 198:main.c        ****     CAN_GlobalIntDisable();
 813              		.loc 1 198 0
 814              		.cfi_startproc
 815              		@ args = 0, pretend = 0, frame = 0
 816              		@ frame_needed = 0, uses_anonymous_args = 0
 817 0000 10B5     		push	{r4, lr}
 818              		.cfi_def_cfa_offset 8
 819              		.cfi_offset 4, -8
 820              		.cfi_offset 14, -4
 199:main.c        ****     CAN_MsgRXIsr();  
 821              		.loc 1 199 0
 822 0002 FFF7FEFF 		bl	CAN_GlobalIntDisable
 823              	.LVL76:
 200:main.c        ****     Recibe_mail_0();
 824              		.loc 1 200 0
 825 0006 FFF7FEFF 		bl	CAN_MsgRXIsr
 826              	.LVL77:
 201:main.c        ****     Recibe_Mail_2();
 827              		.loc 1 201 0
 828 000a FFF7FEFF 		bl	Recibe_mail_0
 829              	.LVL78:
 202:main.c        ****     CAN_GlobalIntEnable();
 830              		.loc 1 202 0
 831 000e FFF7FEFF 		bl	Recibe_Mail_2
 832              	.LVL79:
 203:main.c        **** }
 833              		.loc 1 203 0
 834 0012 FFF7FEFF 		bl	CAN_GlobalIntEnable
 835              	.LVL80:
 204:main.c        **** 
 836              		.loc 1 204 0
 837              		@ sp needed
 838 0016 10BD     		pop	{r4, pc}
 839              		.cfi_endproc
 840              	.LFE47:
 841              		.size	interrutcan, .-interrutcan
 842              		.section	.text.maximo,"ax",%progbits
 843              		.align	2
 844              		.global	maximo
 845              		.code	16
 846              		.thumb_func
 847              		.type	maximo, %function
ARM GAS  C:\Users\HENRYA~1\AppData\Local\Temp\cchXA1T4.s 			page 27


 848              	maximo:
 849              	.LFB48:
 206:main.c        ****   int i; 
 850              		.loc 1 206 0
 851              		.cfi_startproc
 852              		@ args = 0, pretend = 0, frame = 8
 853              		@ frame_needed = 0, uses_anonymous_args = 0
 854              	.LVL81:
 855 0000 F0B5     		push	{r4, r5, r6, r7, lr}
 856              		.cfi_def_cfa_offset 20
 857              		.cfi_offset 4, -20
 858              		.cfi_offset 5, -16
 859              		.cfi_offset 6, -12
 860              		.cfi_offset 7, -8
 861              		.cfi_offset 14, -4
 862 0002 83B0     		sub	sp, sp, #12
 863              		.cfi_def_cfa_offset 32
 864 0004 0700     		movs	r7, r0
 865 0006 0E00     		movs	r6, r1
 209:main.c        ****   for (i = 1; i < num; i++) 
 866              		.loc 1 209 0
 867 0008 0368     		ldr	r3, [r0]
 868 000a 0193     		str	r3, [sp, #4]
 869              	.LVL82:
 210:main.c        ****     if (valores[i] > max) 
 870              		.loc 1 210 0
 871 000c 0124     		movs	r4, #1
 872 000e 09E0     		b	.L53
 873              	.LVL83:
 874              	.L55:
 211:main.c        **** 	  max = valores[i]; 
 875              		.loc 1 211 0
 876 0010 A300     		lsls	r3, r4, #2
 877 0012 DD59     		ldr	r5, [r3, r7]
 878 0014 291C     		adds	r1, r5, #0
 879 0016 0198     		ldr	r0, [sp, #4]
 880 0018 FFF7FEFF 		bl	__aeabi_fcmplt
 881              	.LVL84:
 882 001c 0028     		cmp	r0, #0
 883 001e 00D0     		beq	.L54
 212:main.c        ****   return (max); 
 884              		.loc 1 212 0
 885 0020 0195     		str	r5, [sp, #4]
 886              	.LVL85:
 887              	.L54:
 210:main.c        ****     if (valores[i] > max) 
 888              		.loc 1 210 0 discriminator 2
 889 0022 0134     		adds	r4, r4, #1
 890              	.LVL86:
 891              	.L53:
 210:main.c        ****     if (valores[i] > max) 
 892              		.loc 1 210 0 is_stmt 0 discriminator 1
 893 0024 B442     		cmp	r4, r6
 894 0026 F3DB     		blt	.L55
 214:main.c        **** 
 895              		.loc 1 214 0 is_stmt 1
 896 0028 0198     		ldr	r0, [sp, #4]
ARM GAS  C:\Users\HENRYA~1\AppData\Local\Temp\cchXA1T4.s 			page 28


 897 002a 03B0     		add	sp, sp, #12
 898              		@ sp needed
 899              	.LVL87:
 900              	.LVL88:
 901              	.LVL89:
 902 002c F0BD     		pop	{r4, r5, r6, r7, pc}
 903              		.cfi_endproc
 904              	.LFE48:
 905              		.size	maximo, .-maximo
 906              		.global	__aeabi_fdiv
 907 002e C046     		.section	.text.Normalizar,"ax",%progbits
 908              		.align	2
 909              		.global	Normalizar
 910              		.code	16
 911              		.thumb_func
 912              		.type	Normalizar, %function
 913              	Normalizar:
 914              	.LFB49:
 216:main.c        ****     float Valor_Maximo=maximo(Fitness,I);
 915              		.loc 1 216 0
 916              		.cfi_startproc
 917              		@ args = 0, pretend = 0, frame = 0
 918              		@ frame_needed = 0, uses_anonymous_args = 0
 919              	.LVL90:
 920 0000 70B5     		push	{r4, r5, r6, lr}
 921              		.cfi_def_cfa_offset 16
 922              		.cfi_offset 4, -16
 923              		.cfi_offset 5, -12
 924              		.cfi_offset 6, -8
 925              		.cfi_offset 14, -4
 926 0002 0100     		movs	r1, r0
 217:main.c        ****     int i=0;
 927              		.loc 1 217 0
 928 0004 0948     		ldr	r0, .L60
 929              	.LVL91:
 930 0006 FFF7FEFF 		bl	maximo
 931              	.LVL92:
 932 000a 061C     		adds	r6, r0, #0
 933              	.LVL93:
 219:main.c        ****         Fitness_Normalizado[i]=Fitness[i]/Valor_Maximo;
 934              		.loc 1 219 0
 935 000c 0024     		movs	r4, #0
 936 000e 08E0     		b	.L58
 937              	.LVL94:
 938              	.L59:
 220:main.c        ****     }
 939              		.loc 1 220 0 discriminator 3
 940 0010 A500     		lsls	r5, r4, #2
 941 0012 064B     		ldr	r3, .L60
 942 0014 E858     		ldr	r0, [r5, r3]
 943 0016 311C     		adds	r1, r6, #0
 944 0018 FFF7FEFF 		bl	__aeabi_fdiv
 945              	.LVL95:
 946 001c 044B     		ldr	r3, .L60+4
 947 001e E850     		str	r0, [r5, r3]
 219:main.c        ****         Fitness_Normalizado[i]=Fitness[i]/Valor_Maximo;
 948              		.loc 1 219 0 discriminator 3
ARM GAS  C:\Users\HENRYA~1\AppData\Local\Temp\cchXA1T4.s 			page 29


 949 0020 0134     		adds	r4, r4, #1
 950              	.LVL96:
 951              	.L58:
 219:main.c        ****         Fitness_Normalizado[i]=Fitness[i]/Valor_Maximo;
 952              		.loc 1 219 0 is_stmt 0 discriminator 1
 953 0022 044B     		ldr	r3, .L60+8
 954 0024 5B68     		ldr	r3, [r3, #4]
 955 0026 9C42     		cmp	r4, r3
 956 0028 F2DB     		blt	.L59
 222:main.c        **** 
 957              		.loc 1 222 0 is_stmt 1
 958              		@ sp needed
 959              	.LVL97:
 960              	.LVL98:
 961 002a 70BD     		pop	{r4, r5, r6, pc}
 962              	.L61:
 963              		.align	2
 964              	.L60:
 965 002c 00000000 		.word	Fitness
 966 0030 00000000 		.word	Fitness_Normalizado
 967 0034 00000000 		.word	.LANCHOR1
 968              		.cfi_endproc
 969              	.LFE49:
 970              		.size	Normalizar, .-Normalizar
 971              		.section	.text.Normalizar2,"ax",%progbits
 972              		.align	2
 973              		.global	Normalizar2
 974              		.code	16
 975              		.thumb_func
 976              		.type	Normalizar2, %function
 977              	Normalizar2:
 978              	.LFB50:
 224:main.c        ****     float Valor_Maximo=maximo(Fitness,I);
 979              		.loc 1 224 0
 980              		.cfi_startproc
 981              		@ args = 0, pretend = 0, frame = 0
 982              		@ frame_needed = 0, uses_anonymous_args = 0
 983              	.LVL99:
 984 0000 F8B5     		push	{r3, r4, r5, r6, r7, lr}
 985              		.cfi_def_cfa_offset 24
 986              		.cfi_offset 3, -24
 987              		.cfi_offset 4, -20
 988              		.cfi_offset 5, -16
 989              		.cfi_offset 6, -12
 990              		.cfi_offset 7, -8
 991              		.cfi_offset 14, -4
 992 0002 0100     		movs	r1, r0
 225:main.c        ****     int i=0;
 993              		.loc 1 225 0
 994 0004 0948     		ldr	r0, .L65
 995              	.LVL100:
 996 0006 FFF7FEFF 		bl	maximo
 997              	.LVL101:
 998 000a 071C     		adds	r7, r0, #0
 999              	.LVL102:
 227:main.c        ****         Fitness[i]=Fitness[i]/Valor_Maximo;
 1000              		.loc 1 227 0
ARM GAS  C:\Users\HENRYA~1\AppData\Local\Temp\cchXA1T4.s 			page 30


 1001 000c 0024     		movs	r4, #0
 1002 000e 07E0     		b	.L63
 1003              	.LVL103:
 1004              	.L64:
 228:main.c        ****     }
 1005              		.loc 1 228 0 discriminator 3
 1006 0010 064D     		ldr	r5, .L65
 1007 0012 A600     		lsls	r6, r4, #2
 1008 0014 391C     		adds	r1, r7, #0
 1009 0016 7059     		ldr	r0, [r6, r5]
 1010 0018 FFF7FEFF 		bl	__aeabi_fdiv
 1011              	.LVL104:
 1012 001c 7051     		str	r0, [r6, r5]
 227:main.c        ****         Fitness[i]=Fitness[i]/Valor_Maximo;
 1013              		.loc 1 227 0 discriminator 3
 1014 001e 0134     		adds	r4, r4, #1
 1015              	.LVL105:
 1016              	.L63:
 227:main.c        ****         Fitness[i]=Fitness[i]/Valor_Maximo;
 1017              		.loc 1 227 0 is_stmt 0 discriminator 1
 1018 0020 034B     		ldr	r3, .L65+4
 1019 0022 5B68     		ldr	r3, [r3, #4]
 1020 0024 9C42     		cmp	r4, r3
 1021 0026 F3DB     		blt	.L64
 230:main.c        **** 
 1022              		.loc 1 230 0 is_stmt 1
 1023              		@ sp needed
 1024              	.LVL106:
 1025              	.LVL107:
 1026 0028 F8BD     		pop	{r3, r4, r5, r6, r7, pc}
 1027              	.L66:
 1028 002a C046     		.align	2
 1029              	.L65:
 1030 002c 00000000 		.word	Fitness
 1031 0030 00000000 		.word	.LANCHOR1
 1032              		.cfi_endproc
 1033              	.LFE50:
 1034              		.size	Normalizar2, .-Normalizar2
 1035              		.section	.text.Evaluar_Fitness,"ax",%progbits
 1036              		.align	2
 1037              		.global	Evaluar_Fitness
 1038              		.code	16
 1039              		.thumb_func
 1040              		.type	Evaluar_Fitness, %function
 1041              	Evaluar_Fitness:
 1042              	.LFB51:
 232:main.c        ****     amplitud=Poblacion_1[0][i];
 1043              		.loc 1 232 0
 1044              		.cfi_startproc
 1045              		@ args = 0, pretend = 0, frame = 0
 1046              		@ frame_needed = 0, uses_anonymous_args = 0
 1047              	.LVL108:
 1048 0000 70B5     		push	{r4, r5, r6, lr}
 1049              		.cfi_def_cfa_offset 16
 1050              		.cfi_offset 4, -16
 1051              		.cfi_offset 5, -12
 1052              		.cfi_offset 6, -8
ARM GAS  C:\Users\HENRYA~1\AppData\Local\Temp\cchXA1T4.s 			page 31


 1053              		.cfi_offset 14, -4
 233:main.c        ****     fase=Poblacion_1[1][i];
 1054              		.loc 1 233 0
 1055 0002 0F4A     		ldr	r2, .L68
 1056 0004 8300     		lsls	r3, r0, #2
 1057 0006 9D58     		ldr	r5, [r3, r2]
 1058 0008 0E4C     		ldr	r4, .L68+4
 1059 000a E560     		str	r5, [r4, #12]
 234:main.c        ****     offset=Poblacion_1[2][i];
 1060              		.loc 1 234 0
 1061 000c 0300     		movs	r3, r0
 1062 000e 0A33     		adds	r3, r3, #10
 1063 0010 9B00     		lsls	r3, r3, #2
 1064 0012 9958     		ldr	r1, [r3, r2]
 1065 0014 A160     		str	r1, [r4, #8]
 235:main.c        ****     Enviar_Parametros(amplitud,fase,offset,V);
 1066              		.loc 1 235 0
 1067 0016 0300     		movs	r3, r0
 1068 0018 1433     		adds	r3, r3, #20
 1069 001a 9B00     		lsls	r3, r3, #2
 1070 001c 9A58     		ldr	r2, [r3, r2]
 1071 001e 0A4B     		ldr	r3, .L68+8
 1072 0020 1A60     		str	r2, [r3]
 236:main.c        ****     CyDelay(1000);
 1073              		.loc 1 236 0
 1074 0022 2123     		movs	r3, #33
 1075 0024 281C     		adds	r0, r5, #0
 1076              	.LVL109:
 1077 0026 FFF7FEFF 		bl	Enviar_Parametros
 1078              	.LVL110:
 237:main.c        ****     Enviar_Parametros(0.0,fase,0.833,H);  
 1079              		.loc 1 237 0
 1080 002a FA20     		movs	r0, #250
 1081 002c 8000     		lsls	r0, r0, #2
 1082 002e FFF7FEFF 		bl	CyDelay
 1083              	.LVL111:
 238:main.c        **** }
 1084              		.loc 1 238 0
 1085 0032 A168     		ldr	r1, [r4, #8]
 1086 0034 2023     		movs	r3, #32
 1087 0036 054A     		ldr	r2, .L68+12
 1088 0038 0020     		movs	r0, #0
 1089 003a FFF7FEFF 		bl	Enviar_Parametros
 1090              	.LVL112:
 239:main.c        **** 
 1091              		.loc 1 239 0
 1092              		@ sp needed
 1093 003e 70BD     		pop	{r4, r5, r6, pc}
 1094              	.L69:
 1095              		.align	2
 1096              	.L68:
 1097 0040 00000000 		.word	Poblacion_1
 1098 0044 00000000 		.word	.LANCHOR0
 1099 0048 00000000 		.word	.LANCHOR1
 1100 004c 7D3F553F 		.word	1062551421
 1101              		.cfi_endproc
 1102              	.LFE51:
ARM GAS  C:\Users\HENRYA~1\AppData\Local\Temp\cchXA1T4.s 			page 32


 1103              		.size	Evaluar_Fitness, .-Evaluar_Fitness
 1104              		.section	.text.Espere,"ax",%progbits
 1105              		.align	2
 1106              		.global	Espere
 1107              		.code	16
 1108              		.thumb_func
 1109              		.type	Espere, %function
 1110              	Espere:
 1111              	.LFB52:
 241:main.c        ****     amplitud=0.0;
 1112              		.loc 1 241 0
 1113              		.cfi_startproc
 1114              		@ args = 0, pretend = 0, frame = 0
 1115              		@ frame_needed = 0, uses_anonymous_args = 0
 1116 0000 70B5     		push	{r4, r5, r6, lr}
 1117              		.cfi_def_cfa_offset 16
 1118              		.cfi_offset 4, -16
 1119              		.cfi_offset 5, -12
 1120              		.cfi_offset 6, -8
 1121              		.cfi_offset 14, -4
 242:main.c        ****     fase=0.0;
 1122              		.loc 1 242 0
 1123 0002 0C4E     		ldr	r6, .L71
 1124 0004 0024     		movs	r4, #0
 1125 0006 F460     		str	r4, [r6, #12]
 243:main.c        ****     offset=0.833;
 1126              		.loc 1 243 0
 1127 0008 B460     		str	r4, [r6, #8]
 244:main.c        ****     Enviar_Parametros(amplitud,fase,offset,V);
 1128              		.loc 1 244 0
 1129 000a 0B4D     		ldr	r5, .L71+4
 1130 000c 0B4B     		ldr	r3, .L71+8
 1131 000e 1D60     		str	r5, [r3]
 245:main.c        ****     CyDelay(1000);
 1132              		.loc 1 245 0
 1133 0010 2123     		movs	r3, #33
 1134 0012 2A1C     		adds	r2, r5, #0
 1135 0014 211C     		adds	r1, r4, #0
 1136 0016 201C     		adds	r0, r4, #0
 1137 0018 FFF7FEFF 		bl	Enviar_Parametros
 1138              	.LVL113:
 246:main.c        ****     Enviar_Parametros(0.0,fase,0.833,H);  
 1139              		.loc 1 246 0
 1140 001c FA20     		movs	r0, #250
 1141 001e 8000     		lsls	r0, r0, #2
 1142 0020 FFF7FEFF 		bl	CyDelay
 1143              	.LVL114:
 247:main.c        **** }
 1144              		.loc 1 247 0
 1145 0024 B168     		ldr	r1, [r6, #8]
 1146 0026 2023     		movs	r3, #32
 1147 0028 2A1C     		adds	r2, r5, #0
 1148 002a 201C     		adds	r0, r4, #0
 1149 002c FFF7FEFF 		bl	Enviar_Parametros
 1150              	.LVL115:
 248:main.c        **** 
 1151              		.loc 1 248 0
ARM GAS  C:\Users\HENRYA~1\AppData\Local\Temp\cchXA1T4.s 			page 33


 1152              		@ sp needed
 1153 0030 70BD     		pop	{r4, r5, r6, pc}
 1154              	.L72:
 1155 0032 C046     		.align	2
 1156              	.L71:
 1157 0034 00000000 		.word	.LANCHOR0
 1158 0038 7D3F553F 		.word	1062551421
 1159 003c 00000000 		.word	.LANCHOR1
 1160              		.cfi_endproc
 1161              	.LFE52:
 1162              		.size	Espere, .-Espere
 1163              		.global	__aeabi_fcmpgt
 1164              		.section	.text.Seleccion,"ax",%progbits
 1165              		.align	2
 1166              		.global	Seleccion
 1167              		.code	16
 1168              		.thumb_func
 1169              		.type	Seleccion, %function
 1170              	Seleccion:
 1171              	.LFB53:
 250:main.c        ****     Normalizar(Individuos);
 1172              		.loc 1 250 0
 1173              		.cfi_startproc
 1174              		@ args = 0, pretend = 0, frame = 0
 1175              		@ frame_needed = 0, uses_anonymous_args = 0
 1176 0000 F0B5     		push	{r4, r5, r6, r7, lr}
 1177              		.cfi_def_cfa_offset 20
 1178              		.cfi_offset 4, -20
 1179              		.cfi_offset 5, -16
 1180              		.cfi_offset 6, -12
 1181              		.cfi_offset 7, -8
 1182              		.cfi_offset 14, -4
 1183 0002 4746     		mov	r7, r8
 1184 0004 80B4     		push	{r7}
 1185              		.cfi_def_cfa_offset 24
 1186              		.cfi_offset 8, -24
 251:main.c        ****     int i=0,j=0;
 1187              		.loc 1 251 0
 1188 0006 3C4B     		ldr	r3, .L84
 1189 0008 5868     		ldr	r0, [r3, #4]
 1190 000a FFF7FEFF 		bl	Normalizar
 1191              	.LVL116:
 253:main.c        ****     bolita=0.0;
 1192              		.loc 1 253 0
 1193 000e 3B4B     		ldr	r3, .L84+4
 1194 0010 0022     		movs	r2, #0
 1195 0012 5A61     		str	r2, [r3, #20]
 254:main.c        ****     //Normalizar
 1196              		.loc 1 254 0
 1197 0014 9A61     		str	r2, [r3, #24]
 256:main.c        ****         Acu=Acu+Fitness_Normalizado[i];            
 1198              		.loc 1 256 0
 1199 0016 0024     		movs	r4, #0
 1200 0018 08E0     		b	.L74
 1201              	.LVL117:
 1202              	.L75:
 257:main.c        ****     }
ARM GAS  C:\Users\HENRYA~1\AppData\Local\Temp\cchXA1T4.s 			page 34


 1203              		.loc 1 257 0 discriminator 3
 1204 001a A200     		lsls	r2, r4, #2
 1205 001c 384B     		ldr	r3, .L84+8
 1206 001e D058     		ldr	r0, [r2, r3]
 1207 0020 364D     		ldr	r5, .L84+4
 1208 0022 6969     		ldr	r1, [r5, #20]
 1209 0024 FFF7FEFF 		bl	__aeabi_fadd
 1210              	.LVL118:
 1211 0028 6861     		str	r0, [r5, #20]
 256:main.c        ****         Acu=Acu+Fitness_Normalizado[i];            
 1212              		.loc 1 256 0 discriminator 3
 1213 002a 0134     		adds	r4, r4, #1
 1214              	.LVL119:
 1215              	.L74:
 256:main.c        ****         Acu=Acu+Fitness_Normalizado[i];            
 1216              		.loc 1 256 0 is_stmt 0 discriminator 1
 1217 002c 324B     		ldr	r3, .L84
 1218 002e 5D68     		ldr	r5, [r3, #4]
 1219 0030 AC42     		cmp	r4, r5
 1220 0032 F2DB     		blt	.L75
 1221 0034 0024     		movs	r4, #0
 1222              	.LVL120:
 1223 0036 08E0     		b	.L76
 1224              	.LVL121:
 1225              	.L77:
 260:main.c        ****     }    
 1226              		.loc 1 260 0 is_stmt 1 discriminator 3
 1227 0038 314E     		ldr	r6, .L84+8
 1228 003a A700     		lsls	r7, r4, #2
 1229 003c 2F4B     		ldr	r3, .L84+4
 1230 003e 5969     		ldr	r1, [r3, #20]
 1231 0040 B859     		ldr	r0, [r7, r6]
 1232 0042 FFF7FEFF 		bl	__aeabi_fdiv
 1233              	.LVL122:
 1234 0046 B851     		str	r0, [r7, r6]
 259:main.c        ****         Fitness_Normalizado[i]=Fitness_Normalizado[i]/Acu;            
 1235              		.loc 1 259 0 discriminator 3
 1236 0048 0134     		adds	r4, r4, #1
 1237              	.LVL123:
 1238              	.L76:
 259:main.c        ****         Fitness_Normalizado[i]=Fitness_Normalizado[i]/Acu;            
 1239              		.loc 1 259 0 is_stmt 0 discriminator 1
 1240 004a AC42     		cmp	r4, r5
 1241 004c F4DB     		blt	.L77
 262:main.c        ****     //Ruleta
 1242              		.loc 1 262 0 is_stmt 1
 1243 004e 0022     		movs	r2, #0
 1244 0050 2A4B     		ldr	r3, .L84+4
 1245 0052 5A61     		str	r2, [r3, #20]
 1246              	.LVL124:
 264:main.c        ****         bolita=randd();
 1247              		.loc 1 264 0
 1248 0054 0027     		movs	r7, #0
 1249 0056 1FE0     		b	.L78
 1250              	.LVL125:
 1251              	.L81:
 265:main.c        ****         Acu=0.0;
ARM GAS  C:\Users\HENRYA~1\AppData\Local\Temp\cchXA1T4.s 			page 35


 1252              		.loc 1 265 0
 1253 0058 FFF7FEFF 		bl	randd
 1254              	.LVL126:
 1255 005c FFF7FEFF 		bl	__aeabi_d2f
 1256              	.LVL127:
 1257 0060 051C     		adds	r5, r0, #0
 1258 0062 264B     		ldr	r3, .L84+4
 1259 0064 9861     		str	r0, [r3, #24]
 266:main.c        ****         j=0;
 1260              		.loc 1 266 0
 1261 0066 0022     		movs	r2, #0
 1262 0068 5A61     		str	r2, [r3, #20]
 1263              	.LVL128:
 267:main.c        ****         while (Acu<bolita){
 1264              		.loc 1 267 0
 1265 006a 0024     		movs	r4, #0
 268:main.c        ****             Acu=Fitness_Normalizado[j]+Acu;
 1266              		.loc 1 268 0
 1267 006c 0BE0     		b	.L79
 1268              	.LVL129:
 1269              	.L80:
 269:main.c        ****             indice[i]=j;
 1270              		.loc 1 269 0
 1271 006e A200     		lsls	r2, r4, #2
 1272 0070 234B     		ldr	r3, .L84+8
 1273 0072 D158     		ldr	r1, [r2, r3]
 1274 0074 301C     		adds	r0, r6, #0
 1275 0076 FFF7FEFF 		bl	__aeabi_fadd
 1276              	.LVL130:
 1277 007a 204B     		ldr	r3, .L84+4
 1278 007c 5861     		str	r0, [r3, #20]
 270:main.c        ****             j++;
 1279              		.loc 1 270 0
 1280 007e BB00     		lsls	r3, r7, #2
 1281 0080 204A     		ldr	r2, .L84+12
 1282 0082 9C50     		str	r4, [r3, r2]
 271:main.c        ****         }
 1283              		.loc 1 271 0
 1284 0084 0134     		adds	r4, r4, #1
 1285              	.LVL131:
 1286              	.L79:
 268:main.c        ****             Acu=Fitness_Normalizado[j]+Acu;
 1287              		.loc 1 268 0
 1288 0086 1D4B     		ldr	r3, .L84+4
 1289 0088 5E69     		ldr	r6, [r3, #20]
 1290 008a 311C     		adds	r1, r6, #0
 1291 008c 281C     		adds	r0, r5, #0
 1292 008e FFF7FEFF 		bl	__aeabi_fcmpgt
 1293              	.LVL132:
 1294 0092 0028     		cmp	r0, #0
 1295 0094 EBD1     		bne	.L80
 264:main.c        ****         bolita=randd();
 1296              		.loc 1 264 0 discriminator 2
 1297 0096 0137     		adds	r7, r7, #1
 1298              	.LVL133:
 1299              	.L78:
 264:main.c        ****         bolita=randd();
ARM GAS  C:\Users\HENRYA~1\AppData\Local\Temp\cchXA1T4.s 			page 36


 1300              		.loc 1 264 0 is_stmt 0 discriminator 1
 1301 0098 174B     		ldr	r3, .L84
 1302 009a 5E68     		ldr	r6, [r3, #4]
 1303 009c B742     		cmp	r7, r6
 1304 009e DBDB     		blt	.L81
 1305 00a0 0022     		movs	r2, #0
 1306 00a2 23E0     		b	.L82
 1307              	.LVL134:
 1308              	.L83:
 276:main.c        ****         Poblacion_1[1][i]=Poblacion[1][indice[i]];
 1309              		.loc 1 276 0 is_stmt 1 discriminator 3
 1310 00a4 9100     		lsls	r1, r2, #2
 1311 00a6 174B     		ldr	r3, .L84+12
 1312 00a8 CB58     		ldr	r3, [r1, r3]
 1313 00aa 1748     		ldr	r0, .L84+16
 1314 00ac 8046     		mov	r8, r0
 1315 00ae 9F00     		lsls	r7, r3, #2
 1316 00b0 1648     		ldr	r0, .L84+20
 1317 00b2 4446     		mov	r4, r8
 1318 00b4 3D59     		ldr	r5, [r7, r4]
 1319 00b6 0D50     		str	r5, [r1, r0]
 277:main.c        ****         Poblacion_1[2][i]=Poblacion[2][indice[i]];
 1320              		.loc 1 277 0 discriminator 3
 1321 00b8 1D00     		movs	r5, r3
 1322 00ba 0A35     		adds	r5, r5, #10
 1323 00bc AD00     		lsls	r5, r5, #2
 1324 00be 2D59     		ldr	r5, [r5, r4]
 1325 00c0 AC46     		mov	ip, r5
 1326 00c2 1500     		movs	r5, r2
 1327 00c4 0A35     		adds	r5, r5, #10
 1328 00c6 AD00     		lsls	r5, r5, #2
 1329 00c8 6446     		mov	r4, ip
 1330 00ca 2C50     		str	r4, [r5, r0]
 278:main.c        ****         Fitness_1[i]=Fitness_Normalizado[indice[i]];
 1331              		.loc 1 278 0 discriminator 3
 1332 00cc 1433     		adds	r3, r3, #20
 1333 00ce 9B00     		lsls	r3, r3, #2
 1334 00d0 4446     		mov	r4, r8
 1335 00d2 1C59     		ldr	r4, [r3, r4]
 1336 00d4 1300     		movs	r3, r2
 1337 00d6 1433     		adds	r3, r3, #20
 1338 00d8 9B00     		lsls	r3, r3, #2
 1339 00da 1C50     		str	r4, [r3, r0]
 279:main.c        ****         Fitness[i]=Fitness_Normalizado[i];
 1340              		.loc 1 279 0 discriminator 3
 1341 00dc 084B     		ldr	r3, .L84+8
 1342 00de FC58     		ldr	r4, [r7, r3]
 1343 00e0 0B48     		ldr	r0, .L84+24
 1344 00e2 0C50     		str	r4, [r1, r0]
 280:main.c        ****     }     
 1345              		.loc 1 280 0 discriminator 3
 1346 00e4 C858     		ldr	r0, [r1, r3]
 1347 00e6 0B4B     		ldr	r3, .L84+28
 1348 00e8 C850     		str	r0, [r1, r3]
 275:main.c        ****         Poblacion_1[0][i]=Poblacion[0][indice[i]];
 1349              		.loc 1 275 0 discriminator 3
 1350 00ea 0132     		adds	r2, r2, #1
ARM GAS  C:\Users\HENRYA~1\AppData\Local\Temp\cchXA1T4.s 			page 37


 1351              	.LVL135:
 1352              	.L82:
 275:main.c        ****         Poblacion_1[0][i]=Poblacion[0][indice[i]];
 1353              		.loc 1 275 0 is_stmt 0 discriminator 1
 1354 00ec B242     		cmp	r2, r6
 1355 00ee D9DB     		blt	.L83
 282:main.c        **** 
 1356              		.loc 1 282 0 is_stmt 1
 1357              		@ sp needed
 1358 00f0 04BC     		pop	{r2}
 1359 00f2 9046     		mov	r8, r2
 1360 00f4 F0BD     		pop	{r4, r5, r6, r7, pc}
 1361              	.L85:
 1362 00f6 C046     		.align	2
 1363              	.L84:
 1364 00f8 00000000 		.word	.LANCHOR1
 1365 00fc 00000000 		.word	.LANCHOR0
 1366 0100 00000000 		.word	Fitness_Normalizado
 1367 0104 00000000 		.word	indice
 1368 0108 00000000 		.word	Poblacion
 1369 010c 00000000 		.word	Poblacion_1
 1370 0110 00000000 		.word	Fitness_1
 1371 0114 00000000 		.word	Fitness
 1372              		.cfi_endproc
 1373              	.LFE53:
 1374              		.size	Seleccion, .-Seleccion
 1375              		.global	__aeabi_d2iz
 1376              		.section	.text.Cruce,"ax",%progbits
 1377              		.align	2
 1378              		.global	Cruce
 1379              		.code	16
 1380              		.thumb_func
 1381              		.type	Cruce, %function
 1382              	Cruce:
 1383              	.LFB54:
 284:main.c        ****     int papa=(int)Individuos*randd();
 1384              		.loc 1 284 0
 1385              		.cfi_startproc
 1386              		@ args = 0, pretend = 0, frame = 0
 1387              		@ frame_needed = 0, uses_anonymous_args = 0
 1388 0000 F8B5     		push	{r3, r4, r5, r6, r7, lr}
 1389              		.cfi_def_cfa_offset 24
 1390              		.cfi_offset 3, -24
 1391              		.cfi_offset 4, -20
 1392              		.cfi_offset 5, -16
 1393              		.cfi_offset 6, -12
 1394              		.cfi_offset 7, -8
 1395              		.cfi_offset 14, -4
 285:main.c        ****     int mama=(int)Individuos*randd();
 1396              		.loc 1 285 0
 1397 0002 264C     		ldr	r4, .L87
 1398 0004 6068     		ldr	r0, [r4, #4]
 1399 0006 FFF7FEFF 		bl	__aeabi_i2d
 1400              	.LVL136:
 1401 000a 0600     		movs	r6, r0
 1402 000c 0F00     		movs	r7, r1
 1403 000e FFF7FEFF 		bl	randd
ARM GAS  C:\Users\HENRYA~1\AppData\Local\Temp\cchXA1T4.s 			page 38


 1404              	.LVL137:
 1405 0012 0200     		movs	r2, r0
 1406 0014 0B00     		movs	r3, r1
 1407 0016 3000     		movs	r0, r6
 1408 0018 3900     		movs	r1, r7
 1409 001a FFF7FEFF 		bl	__aeabi_dmul
 1410              	.LVL138:
 1411 001e FFF7FEFF 		bl	__aeabi_d2iz
 1412              	.LVL139:
 1413 0022 0500     		movs	r5, r0
 1414              	.LVL140:
 286:main.c        ****     Poblacion_1[0][papa]=Poblacion_1[0][papa]+Poblacion_1[0][mama];
 1415              		.loc 1 286 0
 1416 0024 6068     		ldr	r0, [r4, #4]
 1417              	.LVL141:
 1418 0026 FFF7FEFF 		bl	__aeabi_i2d
 1419              	.LVL142:
 1420 002a 0600     		movs	r6, r0
 1421 002c 0F00     		movs	r7, r1
 1422 002e FFF7FEFF 		bl	randd
 1423              	.LVL143:
 1424 0032 0200     		movs	r2, r0
 1425 0034 0B00     		movs	r3, r1
 1426 0036 3000     		movs	r0, r6
 1427 0038 3900     		movs	r1, r7
 1428 003a FFF7FEFF 		bl	__aeabi_dmul
 1429              	.LVL144:
 1430 003e FFF7FEFF 		bl	__aeabi_d2iz
 1431              	.LVL145:
 1432 0042 0600     		movs	r6, r0
 1433              	.LVL146:
 287:main.c        ****     Poblacion_1[0][papa]=Poblacion_1[0][papa]/2;
 1434              		.loc 1 287 0
 1435 0044 164C     		ldr	r4, .L87+4
 1436 0046 AF00     		lsls	r7, r5, #2
 1437 0048 8300     		lsls	r3, r0, #2
 1438 004a 1959     		ldr	r1, [r3, r4]
 1439 004c 3859     		ldr	r0, [r7, r4]
 1440              	.LVL147:
 1441 004e FFF7FEFF 		bl	__aeabi_fadd
 1442              	.LVL148:
 1443 0052 3851     		str	r0, [r7, r4]
 288:main.c        ****     Poblacion_1[1][papa]=Poblacion_1[1][papa]+Poblacion_1[1][mama];
 1444              		.loc 1 288 0
 1445 0054 FC21     		movs	r1, #252
 1446 0056 8905     		lsls	r1, r1, #22
 1447 0058 FFF7FEFF 		bl	__aeabi_fmul
 1448              	.LVL149:
 1449 005c 3851     		str	r0, [r7, r4]
 289:main.c        ****     Poblacion_1[1][papa]=Poblacion_1[1][papa]/2;
 1450              		.loc 1 289 0
 1451 005e 2F00     		movs	r7, r5
 1452 0060 0A37     		adds	r7, r7, #10
 1453 0062 BF00     		lsls	r7, r7, #2
 1454 0064 3300     		movs	r3, r6
 1455 0066 0A33     		adds	r3, r3, #10
 1456 0068 9B00     		lsls	r3, r3, #2
ARM GAS  C:\Users\HENRYA~1\AppData\Local\Temp\cchXA1T4.s 			page 39


 1457 006a 1959     		ldr	r1, [r3, r4]
 1458 006c 3859     		ldr	r0, [r7, r4]
 1459 006e FFF7FEFF 		bl	__aeabi_fadd
 1460              	.LVL150:
 1461 0072 3851     		str	r0, [r7, r4]
 290:main.c        ****     Poblacion_1[2][papa]=Poblacion_1[2][papa]+Poblacion_1[2][mama];
 1462              		.loc 1 290 0
 1463 0074 FC21     		movs	r1, #252
 1464 0076 8905     		lsls	r1, r1, #22
 1465 0078 FFF7FEFF 		bl	__aeabi_fmul
 1466              	.LVL151:
 1467 007c 3851     		str	r0, [r7, r4]
 291:main.c        ****     Poblacion_1[2][papa]=Poblacion_1[2][papa]/2;
 1468              		.loc 1 291 0
 1469 007e 1435     		adds	r5, r5, #20
 1470              	.LVL152:
 1471 0080 AD00     		lsls	r5, r5, #2
 1472              	.LVL153:
 1473 0082 1436     		adds	r6, r6, #20
 1474              	.LVL154:
 1475 0084 B600     		lsls	r6, r6, #2
 1476              	.LVL155:
 1477 0086 3159     		ldr	r1, [r6, r4]
 1478 0088 2859     		ldr	r0, [r5, r4]
 1479 008a FFF7FEFF 		bl	__aeabi_fadd
 1480              	.LVL156:
 1481 008e 2851     		str	r0, [r5, r4]
 292:main.c        **** }
 1482              		.loc 1 292 0
 1483 0090 FC21     		movs	r1, #252
 1484 0092 8905     		lsls	r1, r1, #22
 1485 0094 FFF7FEFF 		bl	__aeabi_fmul
 1486              	.LVL157:
 1487 0098 2851     		str	r0, [r5, r4]
 293:main.c        **** 
 1488              		.loc 1 293 0
 1489              		@ sp needed
 1490 009a F8BD     		pop	{r3, r4, r5, r6, r7, pc}
 1491              	.L88:
 1492              		.align	2
 1493              	.L87:
 1494 009c 00000000 		.word	.LANCHOR1
 1495 00a0 00000000 		.word	Poblacion_1
 1496              		.cfi_endproc
 1497              	.LFE54:
 1498              		.size	Cruce, .-Cruce
 1499              		.section	.text.Mutacion,"ax",%progbits
 1500              		.align	2
 1501              		.global	Mutacion
 1502              		.code	16
 1503              		.thumb_func
 1504              		.type	Mutacion, %function
 1505              	Mutacion:
 1506              	.LFB55:
 295:main.c        ****     int Selector=(int)Individuos*randd();
 1507              		.loc 1 295 0
 1508              		.cfi_startproc
ARM GAS  C:\Users\HENRYA~1\AppData\Local\Temp\cchXA1T4.s 			page 40


 1509              		@ args = 0, pretend = 0, frame = 8
 1510              		@ frame_needed = 0, uses_anonymous_args = 0
 1511 0000 F0B5     		push	{r4, r5, r6, r7, lr}
 1512              		.cfi_def_cfa_offset 20
 1513              		.cfi_offset 4, -20
 1514              		.cfi_offset 5, -16
 1515              		.cfi_offset 6, -12
 1516              		.cfi_offset 7, -8
 1517              		.cfi_offset 14, -4
 1518 0002 5746     		mov	r7, r10
 1519 0004 80B4     		push	{r7}
 1520              		.cfi_def_cfa_offset 24
 1521              		.cfi_offset 10, -24
 1522 0006 82B0     		sub	sp, sp, #8
 1523              		.cfi_def_cfa_offset 32
 296:main.c        ****     int componente=(int)randd()*2;
 1524              		.loc 1 296 0
 1525 0008 374B     		ldr	r3, .L93
 1526 000a 5868     		ldr	r0, [r3, #4]
 1527 000c FFF7FEFF 		bl	__aeabi_i2d
 1528              	.LVL158:
 1529 0010 0400     		movs	r4, r0
 1530 0012 0D00     		movs	r5, r1
 1531 0014 FFF7FEFF 		bl	randd
 1532              	.LVL159:
 1533 0018 0200     		movs	r2, r0
 1534 001a 0B00     		movs	r3, r1
 1535 001c 2000     		movs	r0, r4
 1536 001e 2900     		movs	r1, r5
 1537 0020 FFF7FEFF 		bl	__aeabi_dmul
 1538              	.LVL160:
 1539 0024 FFF7FEFF 		bl	__aeabi_d2iz
 1540              	.LVL161:
 1541 0028 0500     		movs	r5, r0
 1542              	.LVL162:
 297:main.c        ****     if(componente==0){Poblacion_1[componente][Selector]=Poblacion_1[componente][Selector]+random_ga
 1543              		.loc 1 297 0
 1544 002a FFF7FEFF 		bl	randd
 1545              	.LVL163:
 1546 002e FFF7FEFF 		bl	__aeabi_d2iz
 1547              	.LVL164:
 1548 0032 4400     		lsls	r4, r0, #1
 1549              	.LVL165:
 298:main.c        ****     else if(componente==1){Poblacion_1[componente][Selector]=Poblacion_1[componente][Selector]+rand
 1550              		.loc 1 298 0
 1551 0034 1AD1     		bne	.L90
 298:main.c        ****     else if(componente==1){Poblacion_1[componente][Selector]=Poblacion_1[componente][Selector]+rand
 1552              		.loc 1 298 0 is_stmt 0 discriminator 1
 1553 0036 2D4E     		ldr	r6, .L93+4
 1554 0038 A700     		lsls	r7, r4, #2
 1555 003a 3A19     		adds	r2, r7, r4
 1556 003c 5300     		lsls	r3, r2, #1
 1557 003e 5B19     		adds	r3, r3, r5
 1558 0040 9B00     		lsls	r3, r3, #2
 1559 0042 9B59     		ldr	r3, [r3, r6]
 1560 0044 9A46     		mov	r10, r3
 1561 0046 FFF7FEFF 		bl	random_gauss
ARM GAS  C:\Users\HENRYA~1\AppData\Local\Temp\cchXA1T4.s 			page 41


 1562              	.LVL166:
 1563 004a 0090     		str	r0, [sp]
 1564 004c 0191     		str	r1, [sp, #4]
 1565 004e 5046     		mov	r0, r10
 1566 0050 FFF7FEFF 		bl	__aeabi_f2d
 1567              	.LVL167:
 1568 0054 009A     		ldr	r2, [sp]
 1569 0056 019B     		ldr	r3, [sp, #4]
 1570 0058 FFF7FEFF 		bl	__aeabi_dadd
 1571              	.LVL168:
 1572 005c 3C19     		adds	r4, r7, r4
 1573              	.LVL169:
 1574 005e 6300     		lsls	r3, r4, #1
 1575 0060 5D19     		adds	r5, r3, r5
 1576              	.LVL170:
 1577 0062 AD00     		lsls	r5, r5, #2
 1578 0064 FFF7FEFF 		bl	__aeabi_d2f
 1579              	.LVL171:
 1580 0068 A851     		str	r0, [r5, r6]
 1581 006a 38E0     		b	.L89
 1582              	.LVL172:
 1583              	.L90:
 299:main.c        ****     else if(componente==2){Poblacion_1[componente][Selector]=Poblacion_1[componente][Selector]+rand
 1584              		.loc 1 299 0 is_stmt 1
 1585 006c 012C     		cmp	r4, #1
 1586 006e 1AD1     		bne	.L92
 299:main.c        ****     else if(componente==2){Poblacion_1[componente][Selector]=Poblacion_1[componente][Selector]+rand
 1587              		.loc 1 299 0 is_stmt 0 discriminator 1
 1588 0070 1E4E     		ldr	r6, .L93+4
 1589 0072 A700     		lsls	r7, r4, #2
 1590 0074 3A19     		adds	r2, r7, r4
 1591 0076 5300     		lsls	r3, r2, #1
 1592 0078 5B19     		adds	r3, r3, r5
 1593 007a 9B00     		lsls	r3, r3, #2
 1594 007c 9B59     		ldr	r3, [r3, r6]
 1595 007e 9A46     		mov	r10, r3
 1596 0080 FFF7FEFF 		bl	random_gauss
 1597              	.LVL173:
 1598 0084 0090     		str	r0, [sp]
 1599 0086 0191     		str	r1, [sp, #4]
 1600 0088 5046     		mov	r0, r10
 1601 008a FFF7FEFF 		bl	__aeabi_f2d
 1602              	.LVL174:
 1603 008e 009A     		ldr	r2, [sp]
 1604 0090 019B     		ldr	r3, [sp, #4]
 1605 0092 FFF7FEFF 		bl	__aeabi_dadd
 1606              	.LVL175:
 1607 0096 3C19     		adds	r4, r7, r4
 1608              	.LVL176:
 1609 0098 6300     		lsls	r3, r4, #1
 1610 009a 5D19     		adds	r5, r3, r5
 1611              	.LVL177:
 1612 009c AD00     		lsls	r5, r5, #2
 1613 009e FFF7FEFF 		bl	__aeabi_d2f
 1614              	.LVL178:
 1615 00a2 A851     		str	r0, [r5, r6]
 1616 00a4 1BE0     		b	.L89
ARM GAS  C:\Users\HENRYA~1\AppData\Local\Temp\cchXA1T4.s 			page 42


 1617              	.LVL179:
 1618              	.L92:
 300:main.c        **** }
 1619              		.loc 1 300 0 is_stmt 1
 1620 00a6 022C     		cmp	r4, #2
 1621 00a8 19D1     		bne	.L89
 300:main.c        **** }
 1622              		.loc 1 300 0 is_stmt 0 discriminator 1
 1623 00aa 104E     		ldr	r6, .L93+4
 1624 00ac A700     		lsls	r7, r4, #2
 1625 00ae 3A19     		adds	r2, r7, r4
 1626 00b0 5300     		lsls	r3, r2, #1
 1627 00b2 5B19     		adds	r3, r3, r5
 1628 00b4 9B00     		lsls	r3, r3, #2
 1629 00b6 9B59     		ldr	r3, [r3, r6]
 1630 00b8 9A46     		mov	r10, r3
 1631 00ba FFF7FEFF 		bl	random_gauss
 1632              	.LVL180:
 1633 00be 0090     		str	r0, [sp]
 1634 00c0 0191     		str	r1, [sp, #4]
 1635 00c2 5046     		mov	r0, r10
 1636 00c4 FFF7FEFF 		bl	__aeabi_f2d
 1637              	.LVL181:
 1638 00c8 009A     		ldr	r2, [sp]
 1639 00ca 019B     		ldr	r3, [sp, #4]
 1640 00cc FFF7FEFF 		bl	__aeabi_dadd
 1641              	.LVL182:
 1642 00d0 3C19     		adds	r4, r7, r4
 1643              	.LVL183:
 1644 00d2 6300     		lsls	r3, r4, #1
 1645 00d4 5D19     		adds	r5, r3, r5
 1646              	.LVL184:
 1647 00d6 AD00     		lsls	r5, r5, #2
 1648 00d8 FFF7FEFF 		bl	__aeabi_d2f
 1649              	.LVL185:
 1650 00dc A851     		str	r0, [r5, r6]
 1651              	.L89:
 301:main.c        **** 
 1652              		.loc 1 301 0 is_stmt 1
 1653 00de 02B0     		add	sp, sp, #8
 1654              		@ sp needed
 1655 00e0 04BC     		pop	{r2}
 1656 00e2 9246     		mov	r10, r2
 1657 00e4 F0BD     		pop	{r4, r5, r6, r7, pc}
 1658              	.L94:
 1659 00e6 C046     		.align	2
 1660              	.L93:
 1661 00e8 00000000 		.word	.LANCHOR1
 1662 00ec 00000000 		.word	Poblacion_1
 1663              		.cfi_endproc
 1664              	.LFE55:
 1665              		.size	Mutacion, .-Mutacion
 1666              		.section	.text.Reemplazo_Generacional,"ax",%progbits
 1667              		.align	2
 1668              		.global	Reemplazo_Generacional
 1669              		.code	16
 1670              		.thumb_func
ARM GAS  C:\Users\HENRYA~1\AppData\Local\Temp\cchXA1T4.s 			page 43


 1671              		.type	Reemplazo_Generacional, %function
 1672              	Reemplazo_Generacional:
 1673              	.LFB56:
 303:main.c        ****     int i=0;
 1674              		.loc 1 303 0
 1675              		.cfi_startproc
 1676              		@ args = 0, pretend = 0, frame = 0
 1677              		@ frame_needed = 0, uses_anonymous_args = 0
 1678 0000 10B5     		push	{r4, lr}
 1679              		.cfi_def_cfa_offset 8
 1680              		.cfi_offset 4, -8
 1681              		.cfi_offset 14, -4
 1682              	.LVL186:
 305:main.c        ****         if(Fitness_1[i]<Fitness[i]){
 1683              		.loc 1 305 0
 1684 0002 0024     		movs	r4, #0
 1685 0004 18E0     		b	.L96
 1686              	.LVL187:
 1687              	.L99:
 306:main.c        ****             Poblacion[0][i]=Poblacion_1[0][i];
 1688              		.loc 1 306 0
 1689 0006 A300     		lsls	r3, r4, #2
 1690 0008 0E4A     		ldr	r2, .L101
 1691 000a 9858     		ldr	r0, [r3, r2]
 1692 000c 0E4A     		ldr	r2, .L101+4
 1693 000e 9958     		ldr	r1, [r3, r2]
 1694 0010 FFF7FEFF 		bl	__aeabi_fcmplt
 1695              	.LVL188:
 1696 0014 0028     		cmp	r0, #0
 1697 0016 0ED0     		beq	.L97
 307:main.c        ****             Poblacion[1][i]=Poblacion_1[1][i];
 1698              		.loc 1 307 0
 1699 0018 0C49     		ldr	r1, .L101+8
 1700 001a A300     		lsls	r3, r4, #2
 1701 001c 0C4A     		ldr	r2, .L101+12
 1702 001e 5858     		ldr	r0, [r3, r1]
 1703 0020 9850     		str	r0, [r3, r2]
 308:main.c        ****             Poblacion[2][i]=Poblacion_1[2][i];
 1704              		.loc 1 308 0
 1705 0022 2300     		movs	r3, r4
 1706 0024 0A33     		adds	r3, r3, #10
 1707 0026 9B00     		lsls	r3, r3, #2
 1708 0028 5858     		ldr	r0, [r3, r1]
 1709 002a 9850     		str	r0, [r3, r2]
 309:main.c        ****         }
 1710              		.loc 1 309 0
 1711 002c 2300     		movs	r3, r4
 1712 002e 1433     		adds	r3, r3, #20
 1713 0030 9B00     		lsls	r3, r3, #2
 1714 0032 5958     		ldr	r1, [r3, r1]
 1715 0034 9950     		str	r1, [r3, r2]
 1716              	.L97:
 305:main.c        ****         if(Fitness_1[i]<Fitness[i]){
 1717              		.loc 1 305 0 discriminator 2
 1718 0036 0134     		adds	r4, r4, #1
 1719              	.LVL189:
 1720              	.L96:
ARM GAS  C:\Users\HENRYA~1\AppData\Local\Temp\cchXA1T4.s 			page 44


 305:main.c        ****         if(Fitness_1[i]<Fitness[i]){
 1721              		.loc 1 305 0 is_stmt 0 discriminator 1
 1722 0038 064B     		ldr	r3, .L101+16
 1723 003a 5B68     		ldr	r3, [r3, #4]
 1724 003c 9C42     		cmp	r4, r3
 1725 003e E2DB     		blt	.L99
 312:main.c        **** 
 1726              		.loc 1 312 0 is_stmt 1
 1727              		@ sp needed
 1728              	.LVL190:
 1729 0040 10BD     		pop	{r4, pc}
 1730              	.L102:
 1731 0042 C046     		.align	2
 1732              	.L101:
 1733 0044 00000000 		.word	Fitness_1
 1734 0048 00000000 		.word	Fitness
 1735 004c 00000000 		.word	Poblacion_1
 1736 0050 00000000 		.word	Poblacion
 1737 0054 00000000 		.word	.LANCHOR1
 1738              		.cfi_endproc
 1739              	.LFE56:
 1740              		.size	Reemplazo_Generacional, .-Reemplazo_Generacional
 1741              		.global	__aeabi_ui2f
 1742              		.section	.text.A_G,"ax",%progbits
 1743              		.align	2
 1744              		.global	A_G
 1745              		.code	16
 1746              		.thumb_func
 1747              		.type	A_G, %function
 1748              	A_G:
 1749              	.LFB57:
 314:main.c        ****     float Prob_c=0.5;
 1750              		.loc 1 314 0
 1751              		.cfi_startproc
 1752              		@ args = 0, pretend = 0, frame = 0
 1753              		@ frame_needed = 0, uses_anonymous_args = 0
 1754 0000 70B5     		push	{r4, r5, r6, lr}
 1755              		.cfi_def_cfa_offset 16
 1756              		.cfi_offset 4, -16
 1757              		.cfi_offset 5, -12
 1758              		.cfi_offset 6, -8
 1759              		.cfi_offset 14, -4
 1760              	.LVL191:
 318:main.c        ****         case 0:
 1761              		.loc 1 318 0
 1762 0002 374B     		ldr	r3, .L119
 1763 0004 9B68     		ldr	r3, [r3, #8]
 1764 0006 012B     		cmp	r3, #1
 1765 0008 14D0     		beq	.L105
 1766 000a 02DC     		bgt	.L106
 1767 000c 002B     		cmp	r3, #0
 1768 000e 05D0     		beq	.L107
 1769 0010 65E0     		b	.L103
 1770              	.L106:
 1771 0012 022B     		cmp	r3, #2
 1772 0014 19D0     		beq	.L108
 1773 0016 032B     		cmp	r3, #3
ARM GAS  C:\Users\HENRYA~1\AppData\Local\Temp\cchXA1T4.s 			page 45


 1774 0018 33D0     		beq	.L109
 1775 001a 60E0     		b	.L103
 1776              	.L107:
 320:main.c        ****             Reemplazo_Generacional();
 1777              		.loc 1 320 0
 1778 001c 304C     		ldr	r4, .L119
 1779 001e 6068     		ldr	r0, [r4, #4]
 1780 0020 FFF7FEFF 		bl	Normalizar2
 1781              	.LVL192:
 321:main.c        ****             puntero=0;
 1782              		.loc 1 321 0
 1783 0024 FFF7FEFF 		bl	Reemplazo_Generacional
 1784              	.LVL193:
 322:main.c        ****             flag=1;        
 1785              		.loc 1 322 0
 1786 0028 0022     		movs	r2, #0
 1787 002a 2E4B     		ldr	r3, .L119+4
 1788 002c DA61     		str	r2, [r3, #28]
 323:main.c        ****             break;
 1789              		.loc 1 323 0
 1790 002e 0123     		movs	r3, #1
 1791 0030 A360     		str	r3, [r4, #8]
 324:main.c        ****         case 1:
 1792              		.loc 1 324 0
 1793 0032 54E0     		b	.L103
 1794              	.L105:
 326:main.c        ****             Seleccion();
 1795              		.loc 1 326 0
 1796 0034 FFF7FEFF 		bl	Espere
 1797              	.LVL194:
 327:main.c        ****             Max_Conta=5;
 1798              		.loc 1 327 0
 1799 0038 FFF7FEFF 		bl	Seleccion
 1800              	.LVL195:
 328:main.c        ****             flag=2;
 1801              		.loc 1 328 0
 1802 003c 0522     		movs	r2, #5
 1803 003e 294B     		ldr	r3, .L119+4
 1804 0040 1A62     		str	r2, [r3, #32]
 329:main.c        ****             break;
 1805              		.loc 1 329 0
 1806 0042 033A     		subs	r2, r2, #3
 1807 0044 264B     		ldr	r3, .L119
 1808 0046 9A60     		str	r2, [r3, #8]
 330:main.c        ****         case 2:
 1809              		.loc 1 330 0
 1810 0048 49E0     		b	.L103
 1811              	.L108:
 332:main.c        ****             if(Prob_c<Umbral_Cruce){
 1812              		.loc 1 332 0
 1813 004a FFF7FEFF 		bl	randd
 1814              	.LVL196:
 1815 004e FFF7FEFF 		bl	__aeabi_d2f
 1816              	.LVL197:
 333:main.c        ****                 Cruce();
 1817              		.loc 1 333 0
 1818 0052 234B     		ldr	r3, .L119
ARM GAS  C:\Users\HENRYA~1\AppData\Local\Temp\cchXA1T4.s 			page 46


 1819 0054 D968     		ldr	r1, [r3, #12]
 1820 0056 FFF7FEFF 		bl	__aeabi_fcmplt
 1821              	.LVL198:
 1822 005a 0028     		cmp	r0, #0
 1823 005c 01D0     		beq	.L110
 334:main.c        ****             }
 1824              		.loc 1 334 0
 1825 005e FFF7FEFF 		bl	Cruce
 1826              	.LVL199:
 1827              	.L110:
 336:main.c        ****             if(Prob_m<Umbral_Mutacion){
 1828              		.loc 1 336 0
 1829 0062 FFF7FEFF 		bl	randd
 1830              	.LVL200:
 1831 0066 FFF7FEFF 		bl	__aeabi_d2f
 1832              	.LVL201:
 337:main.c        ****                 Mutacion();
 1833              		.loc 1 337 0
 1834 006a 1D4B     		ldr	r3, .L119
 1835 006c 1969     		ldr	r1, [r3, #16]
 1836 006e FFF7FEFF 		bl	__aeabi_fcmplt
 1837              	.LVL202:
 1838 0072 0028     		cmp	r0, #0
 1839 0074 01D0     		beq	.L112
 338:main.c        ****             }
 1840              		.loc 1 338 0
 1841 0076 FFF7FEFF 		bl	Mutacion
 1842              	.LVL203:
 1843              	.L112:
 340:main.c        ****             break;
 1844              		.loc 1 340 0
 1845 007a 0322     		movs	r2, #3
 1846 007c 184B     		ldr	r3, .L119
 1847 007e 9A60     		str	r2, [r3, #8]
 341:main.c        ****         case 3:
 1848              		.loc 1 341 0
 1849 0080 2DE0     		b	.L103
 1850              	.LVL204:
 1851              	.L109:
 343:main.c        ****                 case 0:
 1852              		.loc 1 343 0
 1853 0082 184B     		ldr	r3, .L119+4
 1854 0084 5B6A     		ldr	r3, [r3, #36]
 1855 0086 012B     		cmp	r3, #1
 1856 0088 0CD0     		beq	.L114
 1857 008a 022B     		cmp	r3, #2
 1858 008c 12D0     		beq	.L115
 1859 008e 002B     		cmp	r3, #0
 1860 0090 25D1     		bne	.L103
 345:main.c        ****                     Evaluar_Fitness(puntero);
 1861              		.loc 1 345 0
 1862 0092 144C     		ldr	r4, .L119+4
 1863 0094 0133     		adds	r3, r3, #1
 1864 0096 6362     		str	r3, [r4, #36]
 346:main.c        ****                     Max_Conta=100;
 1865              		.loc 1 346 0
 1866 0098 E069     		ldr	r0, [r4, #28]
ARM GAS  C:\Users\HENRYA~1\AppData\Local\Temp\cchXA1T4.s 			page 47


 1867 009a FFF7FEFF 		bl	Evaluar_Fitness
 1868              	.LVL205:
 347:main.c        ****                 break;
 1869              		.loc 1 347 0
 1870 009e 6423     		movs	r3, #100
 1871 00a0 2362     		str	r3, [r4, #32]
 348:main.c        ****                 case 1:
 1872              		.loc 1 348 0
 1873 00a2 1CE0     		b	.L103
 1874              	.L114:
 350:main.c        ****                     Espere();
 1875              		.loc 1 350 0
 1876 00a4 0F4C     		ldr	r4, .L119+4
 1877 00a6 0223     		movs	r3, #2
 1878 00a8 6362     		str	r3, [r4, #36]
 351:main.c        ****                     Max_Conta=20;
 1879              		.loc 1 351 0
 1880 00aa FFF7FEFF 		bl	Espere
 1881              	.LVL206:
 352:main.c        ****                 break;
 1882              		.loc 1 352 0
 1883 00ae 1423     		movs	r3, #20
 1884 00b0 2362     		str	r3, [r4, #32]
 353:main.c        ****                 case 2:
 1885              		.loc 1 353 0
 1886 00b2 14E0     		b	.L103
 1887              	.L115:
 355:main.c        ****                     Fitness_1[puntero]=(float)dist;
 1888              		.loc 1 355 0
 1889 00b4 0B4D     		ldr	r5, .L119+4
 1890 00b6 0023     		movs	r3, #0
 1891 00b8 6B62     		str	r3, [r5, #36]
 356:main.c        ****                     puntero++;
 1892              		.loc 1 356 0
 1893 00ba EC69     		ldr	r4, [r5, #28]
 1894 00bc 2878     		ldrb	r0, [r5]
 1895 00be FFF7FEFF 		bl	__aeabi_ui2f
 1896              	.LVL207:
 1897 00c2 A200     		lsls	r2, r4, #2
 1898 00c4 084B     		ldr	r3, .L119+8
 1899 00c6 D050     		str	r0, [r2, r3]
 357:main.c        ****                     Max_Conta=5;
 1900              		.loc 1 357 0
 1901 00c8 0134     		adds	r4, r4, #1
 1902 00ca EC61     		str	r4, [r5, #28]
 358:main.c        ****                     if(puntero==Individuos){flag=0;}
 1903              		.loc 1 358 0
 1904 00cc 0523     		movs	r3, #5
 1905 00ce 2B62     		str	r3, [r5, #32]
 359:main.c        ****                 break;
 1906              		.loc 1 359 0
 1907 00d0 034B     		ldr	r3, .L119
 1908 00d2 5B68     		ldr	r3, [r3, #4]
 1909 00d4 9C42     		cmp	r4, r3
 1910 00d6 02D1     		bne	.L103
 359:main.c        ****                 break;
 1911              		.loc 1 359 0 is_stmt 0 discriminator 1
ARM GAS  C:\Users\HENRYA~1\AppData\Local\Temp\cchXA1T4.s 			page 48


 1912 00d8 0022     		movs	r2, #0
 1913 00da 014B     		ldr	r3, .L119
 1914 00dc 9A60     		str	r2, [r3, #8]
 1915              	.LVL208:
 1916              	.L103:
 364:main.c        **** 
 1917              		.loc 1 364 0 is_stmt 1
 1918              		@ sp needed
 1919 00de 70BD     		pop	{r4, r5, r6, pc}
 1920              	.L120:
 1921              		.align	2
 1922              	.L119:
 1923 00e0 00000000 		.word	.LANCHOR1
 1924 00e4 00000000 		.word	.LANCHOR0
 1925 00e8 00000000 		.word	Fitness_1
 1926              		.cfi_endproc
 1927              	.LFE57:
 1928              		.size	A_G, .-A_G
 1929              		.section	.text.Left_Move,"ax",%progbits
 1930              		.align	2
 1931              		.global	Left_Move
 1932              		.code	16
 1933              		.thumb_func
 1934              		.type	Left_Move, %function
 1935              	Left_Move:
 1936              	.LFB58:
 366:main.c        ****     Send_Angle(200);
 1937              		.loc 1 366 0
 1938              		.cfi_startproc
 1939              		@ args = 0, pretend = 0, frame = 0
 1940              		@ frame_needed = 0, uses_anonymous_args = 0
 1941 0000 70B5     		push	{r4, r5, r6, lr}
 1942              		.cfi_def_cfa_offset 16
 1943              		.cfi_offset 4, -16
 1944              		.cfi_offset 5, -12
 1945              		.cfi_offset 6, -8
 1946              		.cfi_offset 14, -4
 367:main.c        ****     int  i=0;
 1947              		.loc 1 367 0
 1948 0002 C820     		movs	r0, #200
 1949 0004 FFF7FEFF 		bl	Send_Angle
 1950              	.LVL209:
 370:main.c        ****         movimiento(i,512);
 1951              		.loc 1 370 0
 1952 0008 0024     		movs	r4, #0
 1953 000a 05E0     		b	.L122
 1954              	.LVL210:
 1955              	.L123:
 371:main.c        ****         }
 1956              		.loc 1 371 0 discriminator 3
 1957 000c 8021     		movs	r1, #128
 1958 000e 8900     		lsls	r1, r1, #2
 1959 0010 2000     		movs	r0, r4
 1960 0012 FFF7FEFF 		bl	movimiento
 1961              	.LVL211:
 370:main.c        ****         movimiento(i,512);
 1962              		.loc 1 370 0 discriminator 3
ARM GAS  C:\Users\HENRYA~1\AppData\Local\Temp\cchXA1T4.s 			page 49


 1963 0016 0134     		adds	r4, r4, #1
 1964              	.LVL212:
 1965              	.L122:
 370:main.c        ****         movimiento(i,512);
 1966              		.loc 1 370 0 is_stmt 0 discriminator 1
 1967 0018 2F4B     		ldr	r3, .L132
 1968 001a 5B68     		ldr	r3, [r3, #4]
 1969 001c 9C42     		cmp	r4, r3
 1970 001e F5DB     		blt	.L123
 373:main.c        ****     movimiento(cantidadM,675);//Ancla Trasera
 1971              		.loc 1 373 0 is_stmt 1
 1972 0020 FA24     		movs	r4, #250
 1973              	.LVL213:
 1974 0022 E400     		lsls	r4, r4, #3
 1975 0024 2000     		movs	r0, r4
 1976 0026 FFF7FEFF 		bl	CyDelay
 1977              	.LVL214:
 374:main.c        ****     CyDelay(2000);
 1978              		.loc 1 374 0
 1979 002a 2B4B     		ldr	r3, .L132
 1980 002c 5868     		ldr	r0, [r3, #4]
 1981 002e 2B49     		ldr	r1, .L132+4
 1982 0030 FFF7FEFF 		bl	movimiento
 1983              	.LVL215:
 375:main.c        ****     //Giro
 1984              		.loc 1 375 0
 1985 0034 2000     		movs	r0, r4
 1986 0036 FFF7FEFF 		bl	CyDelay
 1987              	.LVL216:
 377:main.c        ****         for(i=2;i<cantidadM;i=i+4){ 
 1988              		.loc 1 377 0
 1989 003a 0026     		movs	r6, #0
 1990 003c 35E0     		b	.L124
 1991              	.LVL217:
 1992              	.L125:
 379:main.c        ****             movimiento(i+1,750);
 1993              		.loc 1 379 0 discriminator 3
 1994 003e 2849     		ldr	r1, .L132+8
 1995 0040 2000     		movs	r0, r4
 1996 0042 FFF7FEFF 		bl	movimiento
 1997              	.LVL218:
 380:main.c        ****             }
 1998              		.loc 1 380 0 discriminator 3
 1999 0046 601C     		adds	r0, r4, #1
 2000 0048 2649     		ldr	r1, .L132+12
 2001 004a FFF7FEFF 		bl	movimiento
 2002              	.LVL219:
 378:main.c        ****             movimiento(i,650);
 2003              		.loc 1 378 0 discriminator 3
 2004 004e 0434     		adds	r4, r4, #4
 2005              	.LVL220:
 2006 0050 00E0     		b	.L128
 2007              	.LVL221:
 2008              	.L131:
 2009 0052 0224     		movs	r4, #2
 2010              	.L128:
 2011              	.LVL222:
ARM GAS  C:\Users\HENRYA~1\AppData\Local\Temp\cchXA1T4.s 			page 50


 378:main.c        ****             movimiento(i,650);
 2012              		.loc 1 378 0 is_stmt 0 discriminator 1
 2013 0054 204B     		ldr	r3, .L132
 2014 0056 5868     		ldr	r0, [r3, #4]
 2015 0058 8442     		cmp	r4, r0
 2016 005a F0DB     		blt	.L125
 382:main.c        ****         CyDelay(2000);
 2017              		.loc 1 382 0 is_stmt 1
 2018 005c 8021     		movs	r1, #128
 2019 005e 8900     		lsls	r1, r1, #2
 2020 0060 FFF7FEFF 		bl	movimiento
 2021              	.LVL223:
 383:main.c        ****         movimiento(0,350);//Ancla Delantera
 2022              		.loc 1 383 0
 2023 0064 FA24     		movs	r4, #250
 2024              	.LVL224:
 2025 0066 E400     		lsls	r4, r4, #3
 2026 0068 2000     		movs	r0, r4
 2027 006a FFF7FEFF 		bl	CyDelay
 2028              	.LVL225:
 384:main.c        ****         CyDelay(2000);
 2029              		.loc 1 384 0
 2030 006e AF21     		movs	r1, #175
 2031 0070 4900     		lsls	r1, r1, #1
 2032 0072 0020     		movs	r0, #0
 2033 0074 FFF7FEFF 		bl	movimiento
 2034              	.LVL226:
 385:main.c        ****         for(i=2;i<cantidadM;i=i+4){ //Alineación
 2035              		.loc 1 385 0
 2036 0078 2000     		movs	r0, r4
 2037 007a FFF7FEFF 		bl	CyDelay
 2038              	.LVL227:
 386:main.c        ****             movimiento(i,512);
 2039              		.loc 1 386 0
 2040 007e 0224     		movs	r4, #2
 2041 0080 0AE0     		b	.L126
 2042              	.LVL228:
 2043              	.L127:
 387:main.c        ****             movimiento(i+1,512);
 2044              		.loc 1 387 0 discriminator 3
 2045 0082 8025     		movs	r5, #128
 2046 0084 AD00     		lsls	r5, r5, #2
 2047 0086 2900     		movs	r1, r5
 2048 0088 2000     		movs	r0, r4
 2049 008a FFF7FEFF 		bl	movimiento
 2050              	.LVL229:
 388:main.c        ****         }    
 2051              		.loc 1 388 0 discriminator 3
 2052 008e 601C     		adds	r0, r4, #1
 2053 0090 2900     		movs	r1, r5
 2054 0092 FFF7FEFF 		bl	movimiento
 2055              	.LVL230:
 386:main.c        ****             movimiento(i,512);
 2056              		.loc 1 386 0 discriminator 3
 2057 0096 0434     		adds	r4, r4, #4
 2058              	.LVL231:
 2059              	.L126:
ARM GAS  C:\Users\HENRYA~1\AppData\Local\Temp\cchXA1T4.s 			page 51


 386:main.c        ****             movimiento(i,512);
 2060              		.loc 1 386 0 is_stmt 0 discriminator 1
 2061 0098 0F4B     		ldr	r3, .L132
 2062 009a 5B68     		ldr	r3, [r3, #4]
 2063 009c 9C42     		cmp	r4, r3
 2064 009e F0DB     		blt	.L127
 390:main.c        ****     }         
 2065              		.loc 1 390 0 is_stmt 1 discriminator 2
 2066 00a0 FA20     		movs	r0, #250
 2067 00a2 C000     		lsls	r0, r0, #3
 2068 00a4 FFF7FEFF 		bl	CyDelay
 2069              	.LVL232:
 377:main.c        ****         for(i=2;i<cantidadM;i=i+4){ 
 2070              		.loc 1 377 0 discriminator 2
 2071 00a8 0136     		adds	r6, r6, #1
 2072              	.LVL233:
 2073              	.L124:
 377:main.c        ****         for(i=2;i<cantidadM;i=i+4){ 
 2074              		.loc 1 377 0 is_stmt 0 discriminator 1
 2075 00aa 002E     		cmp	r6, #0
 2076 00ac D1DD     		ble	.L131
 2077 00ae 0024     		movs	r4, #0
 2078 00b0 05E0     		b	.L129
 2079              	.LVL234:
 2080              	.L130:
 393:main.c        ****         }
 2081              		.loc 1 393 0 is_stmt 1 discriminator 3
 2082 00b2 8021     		movs	r1, #128
 2083 00b4 8900     		lsls	r1, r1, #2
 2084 00b6 2000     		movs	r0, r4
 2085 00b8 FFF7FEFF 		bl	movimiento
 2086              	.LVL235:
 392:main.c        ****         movimiento(i,512);
 2087              		.loc 1 392 0 discriminator 3
 2088 00bc 0134     		adds	r4, r4, #1
 2089              	.LVL236:
 2090              	.L129:
 392:main.c        ****         movimiento(i,512);
 2091              		.loc 1 392 0 is_stmt 0 discriminator 1
 2092 00be 064B     		ldr	r3, .L132
 2093 00c0 5B68     		ldr	r3, [r3, #4]
 2094 00c2 9C42     		cmp	r4, r3
 2095 00c4 F5DB     		blt	.L130
 395:main.c        ****     Send_Angle(0);
 2096              		.loc 1 395 0 is_stmt 1
 2097 00c6 FA20     		movs	r0, #250
 2098 00c8 C000     		lsls	r0, r0, #3
 2099 00ca FFF7FEFF 		bl	CyDelay
 2100              	.LVL237:
 396:main.c        **** }
 2101              		.loc 1 396 0
 2102 00ce 0020     		movs	r0, #0
 2103 00d0 FFF7FEFF 		bl	Send_Angle
 2104              	.LVL238:
 397:main.c        **** 
 2105              		.loc 1 397 0
 2106              		@ sp needed
ARM GAS  C:\Users\HENRYA~1\AppData\Local\Temp\cchXA1T4.s 			page 52


 2107              	.LVL239:
 2108              	.LVL240:
 2109 00d4 70BD     		pop	{r4, r5, r6, pc}
 2110              	.L133:
 2111 00d6 C046     		.align	2
 2112              	.L132:
 2113 00d8 00000000 		.word	.LANCHOR0
 2114 00dc A3020000 		.word	675
 2115 00e0 8A020000 		.word	650
 2116 00e4 EE020000 		.word	750
 2117              		.cfi_endproc
 2118              	.LFE58:
 2119              		.size	Left_Move, .-Left_Move
 2120              		.section	.text.Right_Move,"ax",%progbits
 2121              		.align	2
 2122              		.global	Right_Move
 2123              		.code	16
 2124              		.thumb_func
 2125              		.type	Right_Move, %function
 2126              	Right_Move:
 2127              	.LFB59:
 399:main.c        ****     Send_Angle(200);
 2128              		.loc 1 399 0
 2129              		.cfi_startproc
 2130              		@ args = 0, pretend = 0, frame = 0
 2131              		@ frame_needed = 0, uses_anonymous_args = 0
 2132 0000 70B5     		push	{r4, r5, r6, lr}
 2133              		.cfi_def_cfa_offset 16
 2134              		.cfi_offset 4, -16
 2135              		.cfi_offset 5, -12
 2136              		.cfi_offset 6, -8
 2137              		.cfi_offset 14, -4
 400:main.c        ****     int  i=0;
 2138              		.loc 1 400 0
 2139 0002 C820     		movs	r0, #200
 2140 0004 FFF7FEFF 		bl	Send_Angle
 2141              	.LVL241:
 403:main.c        ****         movimiento(i,512);
 2142              		.loc 1 403 0
 2143 0008 0024     		movs	r4, #0
 2144 000a 05E0     		b	.L135
 2145              	.LVL242:
 2146              	.L136:
 404:main.c        ****         }
 2147              		.loc 1 404 0 discriminator 3
 2148 000c 8021     		movs	r1, #128
 2149 000e 8900     		lsls	r1, r1, #2
 2150 0010 2000     		movs	r0, r4
 2151 0012 FFF7FEFF 		bl	movimiento
 2152              	.LVL243:
 403:main.c        ****         movimiento(i,512);
 2153              		.loc 1 403 0 discriminator 3
 2154 0016 0134     		adds	r4, r4, #1
 2155              	.LVL244:
 2156              	.L135:
 403:main.c        ****         movimiento(i,512);
 2157              		.loc 1 403 0 is_stmt 0 discriminator 1
ARM GAS  C:\Users\HENRYA~1\AppData\Local\Temp\cchXA1T4.s 			page 53


 2158 0018 304B     		ldr	r3, .L145
 2159 001a 5B68     		ldr	r3, [r3, #4]
 2160 001c 9C42     		cmp	r4, r3
 2161 001e F5DB     		blt	.L136
 406:main.c        ****     movimiento(cantidadM,675);//Ancla Trasera
 2162              		.loc 1 406 0 is_stmt 1
 2163 0020 FA24     		movs	r4, #250
 2164              	.LVL245:
 2165 0022 E400     		lsls	r4, r4, #3
 2166 0024 2000     		movs	r0, r4
 2167 0026 FFF7FEFF 		bl	CyDelay
 2168              	.LVL246:
 407:main.c        ****     CyDelay(2000);
 2169              		.loc 1 407 0
 2170 002a 2C4B     		ldr	r3, .L145
 2171 002c 5868     		ldr	r0, [r3, #4]
 2172 002e 2C49     		ldr	r1, .L145+4
 2173 0030 FFF7FEFF 		bl	movimiento
 2174              	.LVL247:
 408:main.c        ****     //Giro
 2175              		.loc 1 408 0
 2176 0034 2000     		movs	r0, r4
 2177 0036 FFF7FEFF 		bl	CyDelay
 2178              	.LVL248:
 410:main.c        ****         for(i=2;i<cantidadM;i=i+4){ 
 2179              		.loc 1 410 0
 2180 003a 0026     		movs	r6, #0
 2181 003c 37E0     		b	.L137
 2182              	.LVL249:
 2183              	.L138:
 412:main.c        ****             movimiento(i+1,274);
 2184              		.loc 1 412 0 discriminator 3
 2185 003e BB21     		movs	r1, #187
 2186 0040 4900     		lsls	r1, r1, #1
 2187 0042 2000     		movs	r0, r4
 2188 0044 FFF7FEFF 		bl	movimiento
 2189              	.LVL250:
 413:main.c        ****             }
 2190              		.loc 1 413 0 discriminator 3
 2191 0048 601C     		adds	r0, r4, #1
 2192 004a 8921     		movs	r1, #137
 2193 004c 4900     		lsls	r1, r1, #1
 2194 004e FFF7FEFF 		bl	movimiento
 2195              	.LVL251:
 411:main.c        ****             movimiento(i,374);
 2196              		.loc 1 411 0 discriminator 3
 2197 0052 0434     		adds	r4, r4, #4
 2198              	.LVL252:
 2199 0054 00E0     		b	.L141
 2200              	.LVL253:
 2201              	.L144:
 2202 0056 0224     		movs	r4, #2
 2203              	.L141:
 2204              	.LVL254:
 411:main.c        ****             movimiento(i,374);
 2205              		.loc 1 411 0 is_stmt 0 discriminator 1
 2206 0058 204B     		ldr	r3, .L145
ARM GAS  C:\Users\HENRYA~1\AppData\Local\Temp\cchXA1T4.s 			page 54


 2207 005a 5868     		ldr	r0, [r3, #4]
 2208 005c 8442     		cmp	r4, r0
 2209 005e EEDB     		blt	.L138
 415:main.c        ****         CyDelay(2000);
 2210              		.loc 1 415 0 is_stmt 1
 2211 0060 8021     		movs	r1, #128
 2212 0062 8900     		lsls	r1, r1, #2
 2213 0064 FFF7FEFF 		bl	movimiento
 2214              	.LVL255:
 416:main.c        ****         movimiento(0,350);//Ancla Delantera
 2215              		.loc 1 416 0
 2216 0068 FA24     		movs	r4, #250
 2217              	.LVL256:
 2218 006a E400     		lsls	r4, r4, #3
 2219 006c 2000     		movs	r0, r4
 2220 006e FFF7FEFF 		bl	CyDelay
 2221              	.LVL257:
 417:main.c        ****         CyDelay(2000);
 2222              		.loc 1 417 0
 2223 0072 AF21     		movs	r1, #175
 2224 0074 4900     		lsls	r1, r1, #1
 2225 0076 0020     		movs	r0, #0
 2226 0078 FFF7FEFF 		bl	movimiento
 2227              	.LVL258:
 418:main.c        ****         for(i=2;i<cantidadM;i=i+4){ //Alineación
 2228              		.loc 1 418 0
 2229 007c 2000     		movs	r0, r4
 2230 007e FFF7FEFF 		bl	CyDelay
 2231              	.LVL259:
 419:main.c        ****             movimiento(i,512);
 2232              		.loc 1 419 0
 2233 0082 0224     		movs	r4, #2
 2234 0084 0AE0     		b	.L139
 2235              	.LVL260:
 2236              	.L140:
 420:main.c        ****             movimiento(i+1,512);
 2237              		.loc 1 420 0 discriminator 3
 2238 0086 8025     		movs	r5, #128
 2239 0088 AD00     		lsls	r5, r5, #2
 2240 008a 2900     		movs	r1, r5
 2241 008c 2000     		movs	r0, r4
 2242 008e FFF7FEFF 		bl	movimiento
 2243              	.LVL261:
 421:main.c        ****         }    
 2244              		.loc 1 421 0 discriminator 3
 2245 0092 601C     		adds	r0, r4, #1
 2246 0094 2900     		movs	r1, r5
 2247 0096 FFF7FEFF 		bl	movimiento
 2248              	.LVL262:
 419:main.c        ****             movimiento(i,512);
 2249              		.loc 1 419 0 discriminator 3
 2250 009a 0434     		adds	r4, r4, #4
 2251              	.LVL263:
 2252              	.L139:
 419:main.c        ****             movimiento(i,512);
 2253              		.loc 1 419 0 is_stmt 0 discriminator 1
 2254 009c 0F4B     		ldr	r3, .L145
ARM GAS  C:\Users\HENRYA~1\AppData\Local\Temp\cchXA1T4.s 			page 55


 2255 009e 5B68     		ldr	r3, [r3, #4]
 2256 00a0 9C42     		cmp	r4, r3
 2257 00a2 F0DB     		blt	.L140
 423:main.c        ****     }         
 2258              		.loc 1 423 0 is_stmt 1 discriminator 2
 2259 00a4 FA20     		movs	r0, #250
 2260 00a6 C000     		lsls	r0, r0, #3
 2261 00a8 FFF7FEFF 		bl	CyDelay
 2262              	.LVL264:
 410:main.c        ****         for(i=2;i<cantidadM;i=i+4){ 
 2263              		.loc 1 410 0 discriminator 2
 2264 00ac 0136     		adds	r6, r6, #1
 2265              	.LVL265:
 2266              	.L137:
 410:main.c        ****         for(i=2;i<cantidadM;i=i+4){ 
 2267              		.loc 1 410 0 is_stmt 0 discriminator 1
 2268 00ae 002E     		cmp	r6, #0
 2269 00b0 D1DD     		ble	.L144
 2270 00b2 0024     		movs	r4, #0
 2271 00b4 05E0     		b	.L142
 2272              	.LVL266:
 2273              	.L143:
 426:main.c        ****         }
 2274              		.loc 1 426 0 is_stmt 1 discriminator 3
 2275 00b6 8021     		movs	r1, #128
 2276 00b8 8900     		lsls	r1, r1, #2
 2277 00ba 2000     		movs	r0, r4
 2278 00bc FFF7FEFF 		bl	movimiento
 2279              	.LVL267:
 425:main.c        ****         movimiento(i,512);
 2280              		.loc 1 425 0 discriminator 3
 2281 00c0 0134     		adds	r4, r4, #1
 2282              	.LVL268:
 2283              	.L142:
 425:main.c        ****         movimiento(i,512);
 2284              		.loc 1 425 0 is_stmt 0 discriminator 1
 2285 00c2 064B     		ldr	r3, .L145
 2286 00c4 5B68     		ldr	r3, [r3, #4]
 2287 00c6 9C42     		cmp	r4, r3
 2288 00c8 F5DB     		blt	.L143
 428:main.c        ****     Send_Angle(0);
 2289              		.loc 1 428 0 is_stmt 1
 2290 00ca FA20     		movs	r0, #250
 2291 00cc C000     		lsls	r0, r0, #3
 2292 00ce FFF7FEFF 		bl	CyDelay
 2293              	.LVL269:
 429:main.c        **** }
 2294              		.loc 1 429 0
 2295 00d2 0020     		movs	r0, #0
 2296 00d4 FFF7FEFF 		bl	Send_Angle
 2297              	.LVL270:
 430:main.c        **** 
 2298              		.loc 1 430 0
 2299              		@ sp needed
 2300              	.LVL271:
 2301              	.LVL272:
 2302 00d8 70BD     		pop	{r4, r5, r6, pc}
ARM GAS  C:\Users\HENRYA~1\AppData\Local\Temp\cchXA1T4.s 			page 56


 2303              	.L146:
 2304 00da C046     		.align	2
 2305              	.L145:
 2306 00dc 00000000 		.word	.LANCHOR0
 2307 00e0 A3020000 		.word	675
 2308              		.cfi_endproc
 2309              	.LFE59:
 2310              		.size	Right_Move, .-Right_Move
 2311              		.section	.text.Select_Move,"ax",%progbits
 2312              		.align	2
 2313              		.global	Select_Move
 2314              		.code	16
 2315              		.thumb_func
 2316              		.type	Select_Move, %function
 2317              	Select_Move:
 2318              	.LFB60:
 432:main.c        ****     Send_Angle(200);
 2319              		.loc 1 432 0
 2320              		.cfi_startproc
 2321              		@ args = 0, pretend = 0, frame = 0
 2322              		@ frame_needed = 0, uses_anonymous_args = 0
 2323 0000 10B5     		push	{r4, lr}
 2324              		.cfi_def_cfa_offset 8
 2325              		.cfi_offset 4, -8
 2326              		.cfi_offset 14, -4
 433:main.c        ****     int  i=0;
 2327              		.loc 1 433 0
 2328 0002 C820     		movs	r0, #200
 2329 0004 FFF7FEFF 		bl	Send_Angle
 2330              	.LVL273:
 435:main.c        ****         movimiento(i,512);
 2331              		.loc 1 435 0
 2332 0008 0024     		movs	r4, #0
 2333 000a 05E0     		b	.L148
 2334              	.LVL274:
 2335              	.L149:
 436:main.c        ****         }
 2336              		.loc 1 436 0 discriminator 3
 2337 000c 8021     		movs	r1, #128
 2338 000e 8900     		lsls	r1, r1, #2
 2339 0010 2000     		movs	r0, r4
 2340 0012 FFF7FEFF 		bl	movimiento
 2341              	.LVL275:
 435:main.c        ****         movimiento(i,512);
 2342              		.loc 1 435 0 discriminator 3
 2343 0016 0134     		adds	r4, r4, #1
 2344              	.LVL276:
 2345              	.L148:
 435:main.c        ****         movimiento(i,512);
 2346              		.loc 1 435 0 is_stmt 0 discriminator 1
 2347 0018 052C     		cmp	r4, #5
 2348 001a F7DD     		ble	.L149
 438:main.c        ****     movimiento(2,750);
 2349              		.loc 1 438 0 is_stmt 1
 2350 001c FA20     		movs	r0, #250
 2351 001e C000     		lsls	r0, r0, #3
 2352 0020 FFF7FEFF 		bl	CyDelay
ARM GAS  C:\Users\HENRYA~1\AppData\Local\Temp\cchXA1T4.s 			page 57


 2353              	.LVL277:
 439:main.c        ****     CyDelay(5000);
 2354              		.loc 1 439 0
 2355 0024 0549     		ldr	r1, .L150
 2356 0026 0220     		movs	r0, #2
 2357 0028 FFF7FEFF 		bl	movimiento
 2358              	.LVL278:
 440:main.c        ****     move_s=1;
 2359              		.loc 1 440 0
 2360 002c 0448     		ldr	r0, .L150+4
 2361 002e FFF7FEFF 		bl	CyDelay
 2362              	.LVL279:
 441:main.c        **** }
 2363              		.loc 1 441 0
 2364 0032 0122     		movs	r2, #1
 2365 0034 034B     		ldr	r3, .L150+8
 2366 0036 9A62     		str	r2, [r3, #40]
 442:main.c        **** 
 2367              		.loc 1 442 0
 2368              		@ sp needed
 2369              	.LVL280:
 2370 0038 10BD     		pop	{r4, pc}
 2371              	.L151:
 2372 003a C046     		.align	2
 2373              	.L150:
 2374 003c EE020000 		.word	750
 2375 0040 88130000 		.word	5000
 2376 0044 00000000 		.word	.LANCHOR0
 2377              		.cfi_endproc
 2378              	.LFE60:
 2379              		.size	Select_Move, .-Select_Move
 2380              		.section	.text.Select_Move_2,"ax",%progbits
 2381              		.align	2
 2382              		.global	Select_Move_2
 2383              		.code	16
 2384              		.thumb_func
 2385              		.type	Select_Move_2, %function
 2386              	Select_Move_2:
 2387              	.LFB61:
 444:main.c        ****     punto_a=dist;  
 2388              		.loc 1 444 0
 2389              		.cfi_startproc
 2390              		@ args = 0, pretend = 0, frame = 0
 2391              		@ frame_needed = 0, uses_anonymous_args = 0
 2392              		@ link register save eliminated.
 445:main.c        ****     move_s=2;
 2393              		.loc 1 445 0
 2394 0000 024B     		ldr	r3, .L153
 2395 0002 1A78     		ldrb	r2, [r3]
 2396 0004 DA62     		str	r2, [r3, #44]
 446:main.c        **** }
 2397              		.loc 1 446 0
 2398 0006 0222     		movs	r2, #2
 2399 0008 9A62     		str	r2, [r3, #40]
 447:main.c        **** 
 2400              		.loc 1 447 0
 2401              		@ sp needed
ARM GAS  C:\Users\HENRYA~1\AppData\Local\Temp\cchXA1T4.s 			page 58


 2402 000a 7047     		bx	lr
 2403              	.L154:
 2404              		.align	2
 2405              	.L153:
 2406 000c 00000000 		.word	.LANCHOR0
 2407              		.cfi_endproc
 2408              	.LFE61:
 2409              		.size	Select_Move_2, .-Select_Move_2
 2410              		.section	.text.Select_Move_3,"ax",%progbits
 2411              		.align	2
 2412              		.global	Select_Move_3
 2413              		.code	16
 2414              		.thumb_func
 2415              		.type	Select_Move_3, %function
 2416              	Select_Move_3:
 2417              	.LFB62:
 449:main.c        ****     movimiento(2,274);
 2418              		.loc 1 449 0
 2419              		.cfi_startproc
 2420              		@ args = 0, pretend = 0, frame = 0
 2421              		@ frame_needed = 0, uses_anonymous_args = 0
 2422 0000 10B5     		push	{r4, lr}
 2423              		.cfi_def_cfa_offset 8
 2424              		.cfi_offset 4, -8
 2425              		.cfi_offset 14, -4
 450:main.c        ****     CyDelay(5000);
 2426              		.loc 1 450 0
 2427 0002 8921     		movs	r1, #137
 2428 0004 4900     		lsls	r1, r1, #1
 2429 0006 0220     		movs	r0, #2
 2430 0008 FFF7FEFF 		bl	movimiento
 2431              	.LVL281:
 451:main.c        ****     move_s=3;
 2432              		.loc 1 451 0
 2433 000c 0348     		ldr	r0, .L156
 2434 000e FFF7FEFF 		bl	CyDelay
 2435              	.LVL282:
 452:main.c        **** }
 2436              		.loc 1 452 0
 2437 0012 0322     		movs	r2, #3
 2438 0014 024B     		ldr	r3, .L156+4
 2439 0016 9A62     		str	r2, [r3, #40]
 453:main.c        **** 
 2440              		.loc 1 453 0
 2441              		@ sp needed
 2442 0018 10BD     		pop	{r4, pc}
 2443              	.L157:
 2444 001a C046     		.align	2
 2445              	.L156:
 2446 001c 88130000 		.word	5000
 2447 0020 00000000 		.word	.LANCHOR0
 2448              		.cfi_endproc
 2449              	.LFE62:
 2450              		.size	Select_Move_3, .-Select_Move_3
 2451              		.section	.text.Select_Move_4,"ax",%progbits
 2452              		.align	2
 2453              		.global	Select_Move_4
ARM GAS  C:\Users\HENRYA~1\AppData\Local\Temp\cchXA1T4.s 			page 59


 2454              		.code	16
 2455              		.thumb_func
 2456              		.type	Select_Move_4, %function
 2457              	Select_Move_4:
 2458              	.LFB63:
 455:main.c        ****     punto_b=dist;
 2459              		.loc 1 455 0
 2460              		.cfi_startproc
 2461              		@ args = 0, pretend = 0, frame = 0
 2462              		@ frame_needed = 0, uses_anonymous_args = 0
 2463 0000 10B5     		push	{r4, lr}
 2464              		.cfi_def_cfa_offset 8
 2465              		.cfi_offset 4, -8
 2466              		.cfi_offset 14, -4
 456:main.c        ****     move_s=0;       
 2467              		.loc 1 456 0
 2468 0002 074B     		ldr	r3, .L161
 2469 0004 1A78     		ldrb	r2, [r3]
 2470 0006 1A63     		str	r2, [r3, #48]
 457:main.c        ****     if(punto_a>=punto_b){
 2471              		.loc 1 457 0
 2472 0008 0021     		movs	r1, #0
 2473 000a 9962     		str	r1, [r3, #40]
 458:main.c        ****         Left_Move();    
 2474              		.loc 1 458 0
 2475 000c DB6A     		ldr	r3, [r3, #44]
 2476 000e 9A42     		cmp	r2, r3
 2477 0010 02DC     		bgt	.L159
 459:main.c        ****     }
 2478              		.loc 1 459 0
 2479 0012 FFF7FEFF 		bl	Left_Move
 2480              	.LVL283:
 2481 0016 01E0     		b	.L158
 2482              	.L159:
 462:main.c        ****     } 
 2483              		.loc 1 462 0
 2484 0018 FFF7FEFF 		bl	Right_Move
 2485              	.LVL284:
 2486              	.L158:
 464:main.c        **** 
 2487              		.loc 1 464 0
 2488              		@ sp needed
 2489 001c 10BD     		pop	{r4, pc}
 2490              	.L162:
 2491 001e C046     		.align	2
 2492              	.L161:
 2493 0020 00000000 		.word	.LANCHOR0
 2494              		.cfi_endproc
 2495              	.LFE63:
 2496              		.size	Select_Move_4, .-Select_Move_4
 2497              		.section	.text.Temporizador,"ax",%progbits
 2498              		.align	2
 2499              		.global	Temporizador
 2500              		.code	16
 2501              		.thumb_func
 2502              		.type	Temporizador, %function
 2503              	Temporizador:
ARM GAS  C:\Users\HENRYA~1\AppData\Local\Temp\cchXA1T4.s 			page 60


 2504              	.LFB64:
 467:main.c        ****     conta++;
 2505              		.loc 1 467 0
 2506              		.cfi_startproc
 2507              		@ args = 0, pretend = 0, frame = 0
 2508              		@ frame_needed = 0, uses_anonymous_args = 0
 2509 0000 70B5     		push	{r4, r5, r6, lr}
 2510              		.cfi_def_cfa_offset 16
 2511              		.cfi_offset 4, -16
 2512              		.cfi_offset 5, -12
 2513              		.cfi_offset 6, -8
 2514              		.cfi_offset 14, -4
 468:main.c        ****     if(conta>=Max_Conta){     
 2515              		.loc 1 468 0
 2516 0002 2F4A     		ldr	r2, .L174
 2517 0004 938E     		ldrh	r3, [r2, #52]
 2518 0006 0133     		adds	r3, r3, #1
 2519 0008 1BB2     		sxth	r3, r3
 2520 000a 9386     		strh	r3, [r2, #52]
 469:main.c        ****         LED_1_Write(1);
 2521              		.loc 1 469 0
 2522 000c 126A     		ldr	r2, [r2, #32]
 2523 000e 9342     		cmp	r3, r2
 2524 0010 51DB     		blt	.L164
 470:main.c        ****         if(move_s==0){
 2525              		.loc 1 470 0
 2526 0012 0120     		movs	r0, #1
 2527 0014 FFF7FEFF 		bl	LED_1_Write
 2528              	.LVL285:
 471:main.c        ****             if(Cantidad_Sensores==2){
 2529              		.loc 1 471 0
 2530 0018 294B     		ldr	r3, .L174
 2531 001a 9B6A     		ldr	r3, [r3, #40]
 2532 001c 002B     		cmp	r3, #0
 2533 001e 3AD1     		bne	.L165
 472:main.c        ****                 Select_Move();   
 2534              		.loc 1 472 0
 2535 0020 274B     		ldr	r3, .L174
 2536 0022 1B69     		ldr	r3, [r3, #16]
 2537 0024 022B     		cmp	r3, #2
 2538 0026 05D1     		bne	.L166
 473:main.c        ****                 Max_Conta=10;
 2539              		.loc 1 473 0
 2540 0028 FFF7FEFF 		bl	Select_Move
 2541              	.LVL286:
 474:main.c        ****             }
 2542              		.loc 1 474 0
 2543 002c 0A22     		movs	r2, #10
 2544 002e 244B     		ldr	r3, .L174
 2545 0030 1A62     		str	r2, [r3, #32]
 2546 0032 3CE0     		b	.L167
 2547              	.L166:
 476:main.c        ****                 Left_Move();
 2548              		.loc 1 476 0
 2549 0034 032B     		cmp	r3, #3
 2550 0036 05D1     		bne	.L168
 477:main.c        ****                 Max_Conta=10;
ARM GAS  C:\Users\HENRYA~1\AppData\Local\Temp\cchXA1T4.s 			page 61


 2551              		.loc 1 477 0
 2552 0038 FFF7FEFF 		bl	Left_Move
 2553              	.LVL287:
 478:main.c        ****             }
 2554              		.loc 1 478 0
 2555 003c 0A22     		movs	r2, #10
 2556 003e 204B     		ldr	r3, .L174
 2557 0040 1A62     		str	r2, [r3, #32]
 2558 0042 34E0     		b	.L167
 2559              	.L168:
 480:main.c        ****                 Right_Move();    
 2560              		.loc 1 480 0
 2561 0044 062B     		cmp	r3, #6
 2562 0046 05D1     		bne	.L169
 481:main.c        ****                 Max_Conta=10;
 2563              		.loc 1 481 0
 2564 0048 FFF7FEFF 		bl	Right_Move
 2565              	.LVL288:
 482:main.c        ****             }
 2566              		.loc 1 482 0
 2567 004c 0A22     		movs	r2, #10
 2568 004e 1C4B     		ldr	r3, .L174
 2569 0050 1A62     		str	r2, [r3, #32]
 2570 0052 2CE0     		b	.L167
 2571              	.L169:
 484:main.c        ****                 amplitud=0.8;offset=0.833;fase=-0.5;
 2572              		.loc 1 484 0
 2573 0054 072B     		cmp	r3, #7
 2574 0056 1BD1     		bne	.L170
 485:main.c        ****                 Enviar_Parametros(amplitud,fase,offset,V); 
 2575              		.loc 1 485 0
 2576 0058 194C     		ldr	r4, .L174
 2577 005a 1A48     		ldr	r0, .L174+4
 2578 005c E060     		str	r0, [r4, #12]
 2579 005e 1A4D     		ldr	r5, .L174+8
 2580 0060 1A4A     		ldr	r2, .L174+12
 2581 0062 2A60     		str	r2, [r5]
 2582 0064 BF21     		movs	r1, #191
 2583 0066 0906     		lsls	r1, r1, #24
 2584 0068 A160     		str	r1, [r4, #8]
 486:main.c        ****                 CyDelay(1000);
 2585              		.loc 1 486 0
 2586 006a 1A33     		adds	r3, r3, #26
 2587 006c FFF7FEFF 		bl	Enviar_Parametros
 2588              	.LVL289:
 487:main.c        ****                 Enviar_Parametros(0.0,fase,offset,H);
 2589              		.loc 1 487 0
 2590 0070 FA20     		movs	r0, #250
 2591 0072 8000     		lsls	r0, r0, #2
 2592 0074 FFF7FEFF 		bl	CyDelay
 2593              	.LVL290:
 488:main.c        ****                 CyDelay(15000);
 2594              		.loc 1 488 0
 2595 0078 2A68     		ldr	r2, [r5]
 2596 007a 2023     		movs	r3, #32
 2597 007c A168     		ldr	r1, [r4, #8]
 2598 007e 0020     		movs	r0, #0
ARM GAS  C:\Users\HENRYA~1\AppData\Local\Temp\cchXA1T4.s 			page 62


 2599 0080 FFF7FEFF 		bl	Enviar_Parametros
 2600              	.LVL291:
 489:main.c        ****                 Max_Conta=10;
 2601              		.loc 1 489 0
 2602 0084 1248     		ldr	r0, .L174+16
 2603 0086 FFF7FEFF 		bl	CyDelay
 2604              	.LVL292:
 490:main.c        ****             }
 2605              		.loc 1 490 0
 2606 008a 0A23     		movs	r3, #10
 2607 008c 2362     		str	r3, [r4, #32]
 2608 008e 0EE0     		b	.L167
 2609              	.L170:
 493:main.c        ****             }
 2610              		.loc 1 493 0
 2611 0090 FFF7FEFF 		bl	A_G
 2612              	.LVL293:
 2613 0094 0BE0     		b	.L167
 2614              	.L165:
 496:main.c        ****         else if (move_s==2){Select_Move_3();}
 2615              		.loc 1 496 0
 2616 0096 012B     		cmp	r3, #1
 2617 0098 02D1     		bne	.L171
 496:main.c        ****         else if (move_s==2){Select_Move_3();}
 2618              		.loc 1 496 0 is_stmt 0 discriminator 1
 2619 009a FFF7FEFF 		bl	Select_Move_2
 2620              	.LVL294:
 2621 009e 06E0     		b	.L167
 2622              	.L171:
 497:main.c        ****         else{Select_Move_4();}
 2623              		.loc 1 497 0 is_stmt 1
 2624 00a0 022B     		cmp	r3, #2
 2625 00a2 02D1     		bne	.L172
 497:main.c        ****         else{Select_Move_4();}
 2626              		.loc 1 497 0 is_stmt 0 discriminator 1
 2627 00a4 FFF7FEFF 		bl	Select_Move_3
 2628              	.LVL295:
 2629 00a8 01E0     		b	.L167
 2630              	.L172:
 498:main.c        ****         conta=0;
 2631              		.loc 1 498 0 is_stmt 1
 2632 00aa FFF7FEFF 		bl	Select_Move_4
 2633              	.LVL296:
 2634              	.L167:
 499:main.c        ****     }
 2635              		.loc 1 499 0
 2636 00ae 0022     		movs	r2, #0
 2637 00b0 034B     		ldr	r3, .L174
 2638 00b2 9A86     		strh	r2, [r3, #52]
 2639 00b4 02E0     		b	.L163
 2640              	.L164:
 502:main.c        ****     }  
 2641              		.loc 1 502 0
 2642 00b6 0020     		movs	r0, #0
 2643 00b8 FFF7FEFF 		bl	LED_1_Write
 2644              	.LVL297:
 2645              	.L163:
ARM GAS  C:\Users\HENRYA~1\AppData\Local\Temp\cchXA1T4.s 			page 63


 504:main.c        **** 
 2646              		.loc 1 504 0
 2647              		@ sp needed
 2648 00bc 70BD     		pop	{r4, r5, r6, pc}
 2649              	.L175:
 2650 00be C046     		.align	2
 2651              	.L174:
 2652 00c0 00000000 		.word	.LANCHOR0
 2653 00c4 CDCC4C3F 		.word	1061997773
 2654 00c8 00000000 		.word	.LANCHOR1
 2655 00cc 7D3F553F 		.word	1062551421
 2656 00d0 983A0000 		.word	15000
 2657              		.cfi_endproc
 2658              	.LFE64:
 2659              		.size	Temporizador, .-Temporizador
 2660              		.section	.text.main,"ax",%progbits
 2661              		.align	2
 2662              		.global	main
 2663              		.code	16
 2664              		.thumb_func
 2665              		.type	main, %function
 2666              	main:
 2667              	.LFB66:
 509:main.c        **** 
 510:main.c        **** int main()
 511:main.c        **** {
 2668              		.loc 1 511 0
 2669              		.cfi_startproc
 2670              		@ args = 0, pretend = 0, frame = 0
 2671              		@ frame_needed = 0, uses_anonymous_args = 0
 2672 0000 F8B5     		push	{r3, r4, r5, r6, r7, lr}
 2673              		.cfi_def_cfa_offset 24
 2674              		.cfi_offset 3, -24
 2675              		.cfi_offset 4, -20
 2676              		.cfi_offset 5, -16
 2677              		.cfi_offset 6, -12
 2678              		.cfi_offset 7, -8
 2679              		.cfi_offset 14, -4
 2680              	.LVL298:
 512:main.c        ****     //Crear Población Inicial
 513:main.c        ****     int i=0;
 514:main.c        ****     for(i=0;i<Individuos;i++){
 2681              		.loc 1 514 0
 2682 0002 0024     		movs	r4, #0
 2683 0004 1DE0     		b	.L177
 2684              	.LVL299:
 2685              	.L178:
 515:main.c        ****         Poblacion[0][i]=random_amplitud();
 2686              		.loc 1 515 0 discriminator 3
 2687 0006 FFF7FEFF 		bl	random_amplitud
 2688              	.LVL300:
 2689 000a 1D4D     		ldr	r5, .L180
 2690 000c A700     		lsls	r7, r4, #2
 2691 000e FFF7FEFF 		bl	__aeabi_d2f
 2692              	.LVL301:
 2693 0012 7851     		str	r0, [r7, r5]
 516:main.c        ****         Poblacion[1][i]=random_Fase();
ARM GAS  C:\Users\HENRYA~1\AppData\Local\Temp\cchXA1T4.s 			page 64


 2694              		.loc 1 516 0 discriminator 3
 2695 0014 FFF7FEFF 		bl	random_Fase
 2696              	.LVL302:
 2697 0018 2600     		movs	r6, r4
 2698 001a 0A36     		adds	r6, r6, #10
 2699 001c B600     		lsls	r6, r6, #2
 2700 001e FFF7FEFF 		bl	__aeabi_d2f
 2701              	.LVL303:
 2702 0022 7051     		str	r0, [r6, r5]
 517:main.c        ****         Poblacion[2][i]=random_Offset();
 2703              		.loc 1 517 0 discriminator 3
 2704 0024 FFF7FEFF 		bl	random_Offset
 2705              	.LVL304:
 2706 0028 2600     		movs	r6, r4
 2707 002a 1436     		adds	r6, r6, #20
 2708 002c B600     		lsls	r6, r6, #2
 2709 002e FFF7FEFF 		bl	__aeabi_d2f
 2710              	.LVL305:
 2711 0032 7051     		str	r0, [r6, r5]
 518:main.c        ****         Fitness[i]=randd();}
 2712              		.loc 1 518 0 discriminator 3
 2713 0034 FFF7FEFF 		bl	randd
 2714              	.LVL306:
 2715 0038 FFF7FEFF 		bl	__aeabi_d2f
 2716              	.LVL307:
 2717 003c 114B     		ldr	r3, .L180+4
 2718 003e F850     		str	r0, [r7, r3]
 514:main.c        ****         Poblacion[0][i]=random_amplitud();
 2719              		.loc 1 514 0 discriminator 3
 2720 0040 0134     		adds	r4, r4, #1
 2721              	.LVL308:
 2722              	.L177:
 514:main.c        ****         Poblacion[0][i]=random_amplitud();
 2723              		.loc 1 514 0 is_stmt 0 discriminator 1
 2724 0042 114B     		ldr	r3, .L180+8
 2725 0044 5B68     		ldr	r3, [r3, #4]
 2726 0046 9C42     		cmp	r4, r3
 2727 0048 DDDB     		blt	.L178
 519:main.c        ****     Max_Conta=150;
 2728              		.loc 1 519 0 is_stmt 1
 2729 004a 9622     		movs	r2, #150
 2730 004c 0F4B     		ldr	r3, .L180+12
 2731 004e 1A62     		str	r2, [r3, #32]
 520:main.c        ****     //Init LED's
 521:main.c        ****     CAN_Start(); ///  start CAN
 2732              		.loc 1 521 0
 2733 0050 FFF7FEFF 		bl	CAN_Start
 2734              	.LVL309:
 522:main.c        ****     Timer_1_Start();
 2735              		.loc 1 522 0
 2736 0054 FFF7FEFF 		bl	Timer_1_Start
 2737              	.LVL310:
 523:main.c        ****     Timer_Start();
 2738              		.loc 1 523 0
 2739 0058 FFF7FEFF 		bl	Timer_Start
 2740              	.LVL311:
 524:main.c        ****     SENSOR_U_Start();
ARM GAS  C:\Users\HENRYA~1\AppData\Local\Temp\cchXA1T4.s 			page 65


 2741              		.loc 1 524 0
 2742 005c FFF7FEFF 		bl	SENSOR_U_Start
 2743              	.LVL312:
 525:main.c        ****     CAN_isr_StartEx(interrutcan);
 2744              		.loc 1 525 0
 2745 0060 0B48     		ldr	r0, .L180+16
 2746 0062 FFF7FEFF 		bl	CAN_isr_StartEx
 2747              	.LVL313:
 526:main.c        ****     CAN_GlobalIntEnable();
 2748              		.loc 1 526 0
 2749 0066 FFF7FEFF 		bl	CAN_GlobalIntEnable
 2750              	.LVL314:
 527:main.c        ****     Int_Serial_StartEx(Serial_Interrupt);
 2751              		.loc 1 527 0
 2752 006a 0A48     		ldr	r0, .L180+20
 2753 006c FFF7FEFF 		bl	Int_Serial_StartEx
 2754              	.LVL315:
 528:main.c        ****     Timer_StartEx(Temporizador);
 2755              		.loc 1 528 0
 2756 0070 0948     		ldr	r0, .L180+24
 2757 0072 FFF7FEFF 		bl	Timer_StartEx
 2758              	.LVL316:
 529:main.c        ****     LED_1_Write(0);
 2759              		.loc 1 529 0
 2760 0076 0020     		movs	r0, #0
 2761 0078 FFF7FEFF 		bl	LED_1_Write
 2762              	.LVL317:
 530:main.c        ****     CyGlobalIntEnable;
 2763              		.loc 1 530 0
 2764              		.syntax divided
 2765              	@ 530 "main.c" 1
 2766 007c 62B6     		CPSIE   i
 2767              	@ 0 "" 2
 2768              		.thumb
 2769              		.syntax unified
 2770              	.L179:
 2771 007e FEE7     		b	.L179
 2772              	.L181:
 2773              		.align	2
 2774              	.L180:
 2775 0080 00000000 		.word	Poblacion
 2776 0084 00000000 		.word	Fitness
 2777 0088 00000000 		.word	.LANCHOR1
 2778 008c 00000000 		.word	.LANCHOR0
 2779 0090 00000000 		.word	interrutcan
 2780 0094 00000000 		.word	Serial_Interrupt
 2781 0098 00000000 		.word	Temporizador
 2782              		.cfi_endproc
 2783              	.LFE66:
 2784              		.size	main, .-main
 2785              		.global	bolita
 2786              		.global	Acu
 2787              		.comm	indice,40,4
 2788              		.global	puntero
 2789              		.global	conmutador
 2790              		.global	Umbral_Mutacion
 2791              		.global	Umbral_Cruce
ARM GAS  C:\Users\HENRYA~1\AppData\Local\Temp\cchXA1T4.s 			page 66


 2792              		.global	Columna
 2793              		.global	Fila
 2794              		.comm	Fitness_Normalizado,40,4
 2795              		.comm	Fitness_1,40,4
 2796              		.comm	Fitness,40,4
 2797              		.comm	Poblacion_1,120,4
 2798              		.comm	Poblacion,120,4
 2799              		.global	Individuos
 2800              		.global	move_s
 2801              		.global	punto_b
 2802              		.global	punto_a
 2803              		.global	flag
 2804              		.global	fase
 2805              		.global	offset
 2806              		.global	amplitud
 2807              		.global	Max_Conta
 2808              		.global	Cantidad_Sensores
 2809              		.global	cantidadM
 2810              		.global	conta
 2811              		.global	dist
 2812              		.comm	dato_enviado_1,8,4
 2813              		.comm	dato_enviado,8,4
 2814              		.comm	mailbox2,8,4
 2815              		.comm	mailbox1,8,4
 2816              		.comm	mailbox0,8,4
 2817              		.data
 2818              		.align	2
 2819              		.set	.LANCHOR1,. + 0
 2820              		.type	offset, %object
 2821              		.size	offset, 4
 2822              	offset:
 2823 0000 7D3F553F 		.word	1062551421
 2824              		.type	Individuos, %object
 2825              		.size	Individuos, 4
 2826              	Individuos:
 2827 0004 0A000000 		.word	10
 2828              		.type	flag, %object
 2829              		.size	flag, 4
 2830              	flag:
 2831 0008 01000000 		.word	1
 2832              		.type	Umbral_Cruce, %object
 2833              		.size	Umbral_Cruce, 4
 2834              	Umbral_Cruce:
 2835 000c 0000003F 		.word	1056964608
 2836              		.type	Umbral_Mutacion, %object
 2837              		.size	Umbral_Mutacion, 4
 2838              	Umbral_Mutacion:
 2839 0010 CDCCCC3E 		.word	1053609165
 2840              		.bss
 2841              		.align	2
 2842              		.set	.LANCHOR0,. + 0
 2843              		.type	dist, %object
 2844              		.size	dist, 1
 2845              	dist:
 2846 0000 00       		.space	1
 2847 0001 000000   		.space	3
 2848              		.type	cantidadM, %object
ARM GAS  C:\Users\HENRYA~1\AppData\Local\Temp\cchXA1T4.s 			page 67


 2849              		.size	cantidadM, 4
 2850              	cantidadM:
 2851 0004 00000000 		.space	4
 2852              		.type	fase, %object
 2853              		.size	fase, 4
 2854              	fase:
 2855 0008 00000000 		.space	4
 2856              		.type	amplitud, %object
 2857              		.size	amplitud, 4
 2858              	amplitud:
 2859 000c 00000000 		.space	4
 2860              		.type	Cantidad_Sensores, %object
 2861              		.size	Cantidad_Sensores, 4
 2862              	Cantidad_Sensores:
 2863 0010 00000000 		.space	4
 2864              		.type	Acu, %object
 2865              		.size	Acu, 4
 2866              	Acu:
 2867 0014 00000000 		.space	4
 2868              		.type	bolita, %object
 2869              		.size	bolita, 4
 2870              	bolita:
 2871 0018 00000000 		.space	4
 2872              		.type	puntero, %object
 2873              		.size	puntero, 4
 2874              	puntero:
 2875 001c 00000000 		.space	4
 2876              		.type	Max_Conta, %object
 2877              		.size	Max_Conta, 4
 2878              	Max_Conta:
 2879 0020 00000000 		.space	4
 2880              		.type	conmutador, %object
 2881              		.size	conmutador, 4
 2882              	conmutador:
 2883 0024 00000000 		.space	4
 2884              		.type	move_s, %object
 2885              		.size	move_s, 4
 2886              	move_s:
 2887 0028 00000000 		.space	4
 2888              		.type	punto_a, %object
 2889              		.size	punto_a, 4
 2890              	punto_a:
 2891 002c 00000000 		.space	4
 2892              		.type	punto_b, %object
 2893              		.size	punto_b, 4
 2894              	punto_b:
 2895 0030 00000000 		.space	4
 2896              		.type	conta, %object
 2897              		.size	conta, 2
 2898              	conta:
 2899 0034 0000     		.space	2
 2900 0036 0000     		.space	2
 2901              		.type	Columna, %object
 2902              		.size	Columna, 4
 2903              	Columna:
 2904 0038 00000000 		.space	4
 2905              		.type	Fila, %object
ARM GAS  C:\Users\HENRYA~1\AppData\Local\Temp\cchXA1T4.s 			page 68


 2906              		.size	Fila, 4
 2907              	Fila:
 2908 003c 00000000 		.space	4
 2909              		.text
 2910              	.Letext0:
 2911              		.file 2 "Generated_Source\\PSoC4/cytypes.h"
 2912              		.file 3 "Generated_Source\\PSoC4/SENSOR_U.h"
 2913              		.file 4 "c:\\program files (x86)\\cypress\\psoc creator\\4.1\\psoc creator\\import\\gnu\\arm\\5.4.
 2914              		.file 5 "Generated_Source\\PSoC4/CAN.h"
 2915              		.file 6 "Generated_Source\\PSoC4/CyLib.h"
 2916              		.file 7 "Generated_Source\\PSoC4/LED_1.h"
 2917              		.file 8 "Generated_Source\\PSoC4/Timer_1.h"
 2918              		.file 9 "Generated_Source\\PSoC4/Timer.h"
 2919              		.file 10 "Generated_Source\\PSoC4/CAN_isr.h"
 2920              		.file 11 "Generated_Source\\PSoC4/Int_Serial.h"
 2921              		.section	.debug_info,"",%progbits
 2922              	.Ldebug_info0:
 2923 0000 57100000 		.4byte	0x1057
 2924 0004 0400     		.2byte	0x4
 2925 0006 00000000 		.4byte	.Ldebug_abbrev0
 2926 000a 04       		.byte	0x4
 2927 000b 01       		.uleb128 0x1
 2928 000c 54010000 		.4byte	.LASF114
 2929 0010 0C       		.byte	0xc
 2930 0011 32000000 		.4byte	.LASF115
 2931 0015 8B030000 		.4byte	.LASF116
 2932 0019 00000000 		.4byte	.Ldebug_ranges0+0
 2933 001d 00000000 		.4byte	0
 2934 0021 00000000 		.4byte	.Ldebug_line0
 2935 0025 02       		.uleb128 0x2
 2936 0026 04       		.byte	0x4
 2937 0027 04       		.byte	0x4
 2938 0028 DC000000 		.4byte	.LASF0
 2939 002c 02       		.uleb128 0x2
 2940 002d 01       		.byte	0x1
 2941 002e 06       		.byte	0x6
 2942 002f 39050000 		.4byte	.LASF1
 2943 0033 02       		.uleb128 0x2
 2944 0034 01       		.byte	0x1
 2945 0035 08       		.byte	0x8
 2946 0036 9A040000 		.4byte	.LASF2
 2947 003a 02       		.uleb128 0x2
 2948 003b 02       		.byte	0x2
 2949 003c 05       		.byte	0x5
 2950 003d 6C030000 		.4byte	.LASF3
 2951 0041 02       		.uleb128 0x2
 2952 0042 02       		.byte	0x2
 2953 0043 07       		.byte	0x7
 2954 0044 51050000 		.4byte	.LASF4
 2955 0048 02       		.uleb128 0x2
 2956 0049 04       		.byte	0x4
 2957 004a 05       		.byte	0x5
 2958 004b 82030000 		.4byte	.LASF5
 2959 004f 02       		.uleb128 0x2
 2960 0050 04       		.byte	0x4
 2961 0051 07       		.byte	0x7
 2962 0052 67040000 		.4byte	.LASF6
ARM GAS  C:\Users\HENRYA~1\AppData\Local\Temp\cchXA1T4.s 			page 69


 2963 0056 02       		.uleb128 0x2
 2964 0057 08       		.byte	0x8
 2965 0058 05       		.byte	0x5
 2966 0059 C4020000 		.4byte	.LASF7
 2967 005d 02       		.uleb128 0x2
 2968 005e 08       		.byte	0x8
 2969 005f 07       		.byte	0x7
 2970 0060 F0000000 		.4byte	.LASF8
 2971 0064 03       		.uleb128 0x3
 2972 0065 04       		.byte	0x4
 2973 0066 05       		.byte	0x5
 2974 0067 696E7400 		.ascii	"int\000"
 2975 006b 02       		.uleb128 0x2
 2976 006c 04       		.byte	0x4
 2977 006d 07       		.byte	0x7
 2978 006e 63000000 		.4byte	.LASF9
 2979 0072 04       		.uleb128 0x4
 2980 0073 76050000 		.4byte	.LASF10
 2981 0077 02       		.byte	0x2
 2982 0078 9801     		.2byte	0x198
 2983 007a 33000000 		.4byte	0x33
 2984 007e 04       		.uleb128 0x4
 2985 007f 70000000 		.4byte	.LASF11
 2986 0083 02       		.byte	0x2
 2987 0084 9C01     		.2byte	0x19c
 2988 0086 3A000000 		.4byte	0x3a
 2989 008a 02       		.uleb128 0x2
 2990 008b 08       		.byte	0x8
 2991 008c 04       		.byte	0x4
 2992 008d 7C050000 		.4byte	.LASF12
 2993 0091 02       		.uleb128 0x2
 2994 0092 01       		.byte	0x1
 2995 0093 08       		.byte	0x8
 2996 0094 55020000 		.4byte	.LASF13
 2997 0098 02       		.uleb128 0x2
 2998 0099 08       		.byte	0x8
 2999 009a 04       		.byte	0x4
 3000 009b 3F030000 		.4byte	.LASF14
 3001 009f 02       		.uleb128 0x2
 3002 00a0 04       		.byte	0x4
 3003 00a1 07       		.byte	0x7
 3004 00a2 5E040000 		.4byte	.LASF15
 3005 00a6 05       		.uleb128 0x5
 3006 00a7 72000000 		.4byte	0x72
 3007 00ab B6000000 		.4byte	0xb6
 3008 00af 06       		.uleb128 0x6
 3009 00b0 9F000000 		.4byte	0x9f
 3010 00b4 07       		.byte	0x7
 3011 00b5 00       		.byte	0
 3012 00b6 07       		.uleb128 0x7
 3013 00b7 88000000 		.4byte	.LASF16
 3014 00bb 01       		.byte	0x1
 3015 00bc FA01     		.2byte	0x1fa
 3016 00be 00000000 		.4byte	.LFB65
 3017 00c2 10000000 		.4byte	.LFE65-.LFB65
 3018 00c6 01       		.uleb128 0x1
 3019 00c7 9C       		.byte	0x9c
ARM GAS  C:\Users\HENRYA~1\AppData\Local\Temp\cchXA1T4.s 			page 70


 3020 00c8 D6000000 		.4byte	0xd6
 3021 00cc 08       		.uleb128 0x8
 3022 00cd 06000000 		.4byte	.LVL0
 3023 00d1 A70F0000 		.4byte	0xfa7
 3024 00d5 00       		.byte	0
 3025 00d6 09       		.uleb128 0x9
 3026 00d7 13020000 		.4byte	.LASF17
 3027 00db 01       		.byte	0x1
 3028 00dc 2B       		.byte	0x2b
 3029 00dd 8A000000 		.4byte	0x8a
 3030 00e1 00000000 		.4byte	.LFB37
 3031 00e5 16000000 		.4byte	.LFE37-.LFB37
 3032 00e9 01       		.uleb128 0x1
 3033 00ea 9C       		.byte	0x9c
 3034 00eb F9000000 		.4byte	0xf9
 3035 00ef 08       		.uleb128 0x8
 3036 00f0 06000000 		.4byte	.LVL1
 3037 00f4 B20F0000 		.4byte	0xfb2
 3038 00f8 00       		.byte	0
 3039 00f9 09       		.uleb128 0x9
 3040 00fa 64050000 		.4byte	.LASF18
 3041 00fe 01       		.byte	0x1
 3042 00ff 2F       		.byte	0x2f
 3043 0100 8A000000 		.4byte	0x8a
 3044 0104 00000000 		.4byte	.LFB38
 3045 0108 18000000 		.4byte	.LFE38-.LFB38
 3046 010c 01       		.uleb128 0x1
 3047 010d 9C       		.byte	0x9c
 3048 010e 1C010000 		.4byte	0x11c
 3049 0112 08       		.uleb128 0x8
 3050 0113 06000000 		.4byte	.LVL4
 3051 0117 D6000000 		.4byte	0xd6
 3052 011b 00       		.byte	0
 3053 011c 0A       		.uleb128 0xa
 3054 011d 1F020000 		.4byte	.LASF19
 3055 0121 01       		.byte	0x1
 3056 0122 33       		.byte	0x33
 3057 0123 8A000000 		.4byte	0x8a
 3058 0127 00000000 		.4byte	.LFB39
 3059 012b 08000000 		.4byte	.LFE39-.LFB39
 3060 012f 01       		.uleb128 0x1
 3061 0130 9C       		.byte	0x9c
 3062 0131 3F010000 		.4byte	0x13f
 3063 0135 08       		.uleb128 0x8
 3064 0136 06000000 		.4byte	.LVL6
 3065 013a D6000000 		.4byte	0xd6
 3066 013e 00       		.byte	0
 3067 013f 09       		.uleb128 0x9
 3068 0140 07010000 		.4byte	.LASF20
 3069 0144 01       		.byte	0x1
 3070 0145 37       		.byte	0x37
 3071 0146 8A000000 		.4byte	0x8a
 3072 014a 00000000 		.4byte	.LFB40
 3073 014e 1E000000 		.4byte	.LFE40-.LFB40
 3074 0152 01       		.uleb128 0x1
 3075 0153 9C       		.byte	0x9c
 3076 0154 6F010000 		.4byte	0x16f
ARM GAS  C:\Users\HENRYA~1\AppData\Local\Temp\cchXA1T4.s 			page 71


 3077 0158 0B       		.uleb128 0xb
 3078 0159 7200     		.ascii	"r\000"
 3079 015b 01       		.byte	0x1
 3080 015c 38       		.byte	0x38
 3081 015d 25000000 		.4byte	0x25
 3082 0161 00000000 		.4byte	.LLST0
 3083 0165 08       		.uleb128 0x8
 3084 0166 06000000 		.4byte	.LVL8
 3085 016a D6000000 		.4byte	0xd6
 3086 016e 00       		.byte	0
 3087 016f 09       		.uleb128 0x9
 3088 0170 E2000000 		.4byte	.LASF21
 3089 0174 01       		.byte	0x1
 3090 0175 3F       		.byte	0x3f
 3091 0176 8A000000 		.4byte	0x8a
 3092 017a 00000000 		.4byte	.LFB41
 3093 017e 40000000 		.4byte	.LFE41-.LFB41
 3094 0182 01       		.uleb128 0x1
 3095 0183 9C       		.byte	0x9c
 3096 0184 9F010000 		.4byte	0x19f
 3097 0188 0B       		.uleb128 0xb
 3098 0189 7200     		.ascii	"r\000"
 3099 018b 01       		.byte	0x1
 3100 018c 40       		.byte	0x40
 3101 018d 25000000 		.4byte	0x25
 3102 0191 39000000 		.4byte	.LLST1
 3103 0195 08       		.uleb128 0x8
 3104 0196 06000000 		.4byte	.LVL14
 3105 019a D6000000 		.4byte	0xd6
 3106 019e 00       		.byte	0
 3107 019f 0C       		.uleb128 0xc
 3108 01a0 E2010000 		.4byte	.LASF22
 3109 01a4 01       		.byte	0x1
 3110 01a5 47       		.byte	0x47
 3111 01a6 00000000 		.4byte	.LFB42
 3112 01aa 28000000 		.4byte	.LFE42-.LFB42
 3113 01ae 01       		.uleb128 0x1
 3114 01af 9C       		.byte	0x9c
 3115 01b0 09020000 		.4byte	0x209
 3116 01b4 0D       		.uleb128 0xd
 3117 01b5 D2020000 		.4byte	.LASF23
 3118 01b9 01       		.byte	0x1
 3119 01ba 47       		.byte	0x47
 3120 01bb 6B000000 		.4byte	0x6b
 3121 01bf 72000000 		.4byte	.LLST2
 3122 01c3 0E       		.uleb128 0xe
 3123 01c4 6D6F7600 		.ascii	"mov\000"
 3124 01c8 01       		.byte	0x1
 3125 01c9 47       		.byte	0x47
 3126 01ca 64000000 		.4byte	0x64
 3127 01ce 93000000 		.4byte	.LLST3
 3128 01d2 0F       		.uleb128 0xf
 3129 01d3 07020000 		.4byte	.LASF24
 3130 01d7 01       		.byte	0x1
 3131 01d8 48       		.byte	0x48
 3132 01d9 91000000 		.4byte	0x91
 3133 01dd B4000000 		.4byte	.LLST4
ARM GAS  C:\Users\HENRYA~1\AppData\Local\Temp\cchXA1T4.s 			page 72


 3134 01e1 0F       		.uleb128 0xf
 3135 01e2 0D020000 		.4byte	.LASF25
 3136 01e6 01       		.byte	0x1
 3137 01e7 48       		.byte	0x48
 3138 01e8 91000000 		.4byte	0x91
 3139 01ec D7000000 		.4byte	.LLST5
 3140 01f0 08       		.uleb128 0x8
 3141 01f1 1C000000 		.4byte	.LVL26
 3142 01f5 BD0F0000 		.4byte	0xfbd
 3143 01f9 10       		.uleb128 0x10
 3144 01fa 22000000 		.4byte	.LVL27
 3145 01fe C90F0000 		.4byte	0xfc9
 3146 0202 11       		.uleb128 0x11
 3147 0203 01       		.uleb128 0x1
 3148 0204 50       		.byte	0x50
 3149 0205 01       		.uleb128 0x1
 3150 0206 49       		.byte	0x49
 3151 0207 00       		.byte	0
 3152 0208 00       		.byte	0
 3153 0209 0C       		.uleb128 0xc
 3154 020a 17000000 		.4byte	.LASF26
 3155 020e 01       		.byte	0x1
 3156 020f 55       		.byte	0x55
 3157 0210 00000000 		.4byte	.LFB43
 3158 0214 2C000000 		.4byte	.LFE43-.LFB43
 3159 0218 01       		.uleb128 0x1
 3160 0219 9C       		.byte	0x9c
 3161 021a 47020000 		.4byte	0x247
 3162 021e 0D       		.uleb128 0xd
 3163 021f 3C040000 		.4byte	.LASF27
 3164 0223 01       		.byte	0x1
 3165 0224 55       		.byte	0x55
 3166 0225 64000000 		.4byte	0x64
 3167 0229 F8000000 		.4byte	.LLST6
 3168 022d 08       		.uleb128 0x8
 3169 022e 20000000 		.4byte	.LVL30
 3170 0232 BD0F0000 		.4byte	0xfbd
 3171 0236 10       		.uleb128 0x10
 3172 0237 26000000 		.4byte	.LVL31
 3173 023b C90F0000 		.4byte	0xfc9
 3174 023f 11       		.uleb128 0x11
 3175 0240 01       		.uleb128 0x1
 3176 0241 50       		.byte	0x50
 3177 0242 02       		.uleb128 0x2
 3178 0243 08       		.byte	0x8
 3179 0244 32       		.byte	0x32
 3180 0245 00       		.byte	0
 3181 0246 00       		.byte	0
 3182 0247 12       		.uleb128 0x12
 3183 0248 E4020000 		.4byte	.LASF28
 3184 024c 01       		.byte	0x1
 3185 024d 62       		.byte	0x62
 3186 024e 00000000 		.4byte	.LFB44
 3187 0252 B4000000 		.4byte	.LFE44-.LFB44
 3188 0256 01       		.uleb128 0x1
 3189 0257 9C       		.byte	0x9c
 3190 0258 0B030000 		.4byte	0x30b
ARM GAS  C:\Users\HENRYA~1\AppData\Local\Temp\cchXA1T4.s 			page 73


 3191 025c 0D       		.uleb128 0xd
 3192 025d 4C020000 		.4byte	.LASF29
 3193 0261 01       		.byte	0x1
 3194 0262 62       		.byte	0x62
 3195 0263 25000000 		.4byte	0x25
 3196 0267 19010000 		.4byte	.LLST7
 3197 026b 0D       		.uleb128 0xd
 3198 026c C8000000 		.4byte	.LASF30
 3199 0270 01       		.byte	0x1
 3200 0271 62       		.byte	0x62
 3201 0272 25000000 		.4byte	0x25
 3202 0276 38010000 		.4byte	.LLST8
 3203 027a 0D       		.uleb128 0xd
 3204 027b 8D050000 		.4byte	.LASF31
 3205 027f 01       		.byte	0x1
 3206 0280 62       		.byte	0x62
 3207 0281 25000000 		.4byte	0x25
 3208 0285 57010000 		.4byte	.LLST9
 3209 0289 0D       		.uleb128 0xd
 3210 028a 45050000 		.4byte	.LASF32
 3211 028e 01       		.byte	0x1
 3212 028f 62       		.byte	0x62
 3213 0290 64000000 		.4byte	0x64
 3214 0294 76010000 		.4byte	.LLST10
 3215 0298 0F       		.uleb128 0xf
 3216 0299 31050000 		.4byte	.LASF33
 3217 029d 01       		.byte	0x1
 3218 029e 64       		.byte	0x64
 3219 029f 64000000 		.4byte	0x64
 3220 02a3 A2010000 		.4byte	.LLST11
 3221 02a7 0F       		.uleb128 0xf
 3222 02a8 97020000 		.4byte	.LASF34
 3223 02ac 01       		.byte	0x1
 3224 02ad 65       		.byte	0x65
 3225 02ae 64000000 		.4byte	0x64
 3226 02b2 C0010000 		.4byte	.LLST12
 3227 02b6 0F       		.uleb128 0xf
 3228 02b7 3A020000 		.4byte	.LASF35
 3229 02bb 01       		.byte	0x1
 3230 02bc 66       		.byte	0x66
 3231 02bd 64000000 		.4byte	0x64
 3232 02c1 DE010000 		.4byte	.LLST13
 3233 02c5 0F       		.uleb128 0xf
 3234 02c6 6E020000 		.4byte	.LASF36
 3235 02ca 01       		.byte	0x1
 3236 02cb 6B       		.byte	0x6b
 3237 02cc 72000000 		.4byte	0x72
 3238 02d0 FC010000 		.4byte	.LLST14
 3239 02d4 0F       		.uleb128 0xf
 3240 02d5 68020000 		.4byte	.LASF37
 3241 02d9 01       		.byte	0x1
 3242 02da 6C       		.byte	0x6c
 3243 02db 72000000 		.4byte	0x72
 3244 02df 25020000 		.4byte	.LLST15
 3245 02e3 0B       		.uleb128 0xb
 3246 02e4 41757800 		.ascii	"Aux\000"
 3247 02e8 01       		.byte	0x1
ARM GAS  C:\Users\HENRYA~1\AppData\Local\Temp\cchXA1T4.s 			page 74


 3248 02e9 6D       		.byte	0x6d
 3249 02ea 72000000 		.4byte	0x72
 3250 02ee B7020000 		.4byte	.LLST16
 3251 02f2 08       		.uleb128 0x8
 3252 02f3 A0000000 		.4byte	.LVL67
 3253 02f7 D40F0000 		.4byte	0xfd4
 3254 02fb 10       		.uleb128 0x10
 3255 02fc A6000000 		.4byte	.LVL68
 3256 0300 C90F0000 		.4byte	0xfc9
 3257 0304 11       		.uleb128 0x11
 3258 0305 01       		.uleb128 0x1
 3259 0306 50       		.byte	0x50
 3260 0307 01       		.uleb128 0x1
 3261 0308 49       		.byte	0x49
 3262 0309 00       		.byte	0
 3263 030a 00       		.byte	0
 3264 030b 13       		.uleb128 0x13
 3265 030c 79040000 		.4byte	.LASF45
 3266 0310 01       		.byte	0x1
 3267 0311 96       		.byte	0x96
 3268 0312 00000000 		.4byte	.LFB45
 3269 0316 70000000 		.4byte	.LFE45-.LFB45
 3270 031a 01       		.uleb128 0x1
 3271 031b 9C       		.byte	0x9c
 3272 031c 71030000 		.4byte	0x371
 3273 0320 14       		.uleb128 0x14
 3274 0321 2E000000 		.4byte	.LBB2
 3275 0325 2E000000 		.4byte	.LBE2-.LBB2
 3276 0329 0F       		.uleb128 0xf
 3277 032a CB040000 		.4byte	.LASF38
 3278 032e 01       		.byte	0x1
 3279 032f AA       		.byte	0xaa
 3280 0330 64000000 		.4byte	0x64
 3281 0334 F2020000 		.4byte	.LLST17
 3282 0338 15       		.uleb128 0x15
 3283 0339 4A000000 		.4byte	.LVL73
 3284 033d 47020000 		.4byte	0x247
 3285 0341 4C030000 		.4byte	0x34c
 3286 0345 11       		.uleb128 0x11
 3287 0346 01       		.uleb128 0x1
 3288 0347 53       		.byte	0x53
 3289 0348 02       		.uleb128 0x2
 3290 0349 08       		.byte	0x8
 3291 034a 21       		.byte	0x21
 3292 034b 00       		.byte	0
 3293 034c 15       		.uleb128 0x15
 3294 034d 50000000 		.4byte	.LVL74
 3295 0351 C90F0000 		.4byte	0xfc9
 3296 0355 5F030000 		.4byte	0x35f
 3297 0359 11       		.uleb128 0x11
 3298 035a 01       		.uleb128 0x1
 3299 035b 50       		.byte	0x50
 3300 035c 01       		.uleb128 0x1
 3301 035d 3A       		.byte	0x3a
 3302 035e 00       		.byte	0
 3303 035f 10       		.uleb128 0x10
 3304 0360 5C000000 		.4byte	.LVL75
ARM GAS  C:\Users\HENRYA~1\AppData\Local\Temp\cchXA1T4.s 			page 75


 3305 0364 47020000 		.4byte	0x247
 3306 0368 11       		.uleb128 0x11
 3307 0369 01       		.uleb128 0x1
 3308 036a 53       		.byte	0x53
 3309 036b 02       		.uleb128 0x2
 3310 036c 08       		.byte	0x8
 3311 036d 20       		.byte	0x20
 3312 036e 00       		.byte	0
 3313 036f 00       		.byte	0
 3314 0370 00       		.byte	0
 3315 0371 16       		.uleb128 0x16
 3316 0372 5A020000 		.4byte	.LASF60
 3317 0376 01       		.byte	0x1
 3318 0377 B5       		.byte	0xb5
 3319 0378 00000000 		.4byte	.LFB46
 3320 037c F8000000 		.4byte	.LFE46-.LFB46
 3321 0380 01       		.uleb128 0x1
 3322 0381 9C       		.byte	0x9c
 3323 0382 0C       		.uleb128 0xc
 3324 0383 AB000000 		.4byte	.LASF39
 3325 0387 01       		.byte	0x1
 3326 0388 C6       		.byte	0xc6
 3327 0389 00000000 		.4byte	.LFB47
 3328 038d 18000000 		.4byte	.LFE47-.LFB47
 3329 0391 01       		.uleb128 0x1
 3330 0392 9C       		.byte	0x9c
 3331 0393 C5030000 		.4byte	0x3c5
 3332 0397 08       		.uleb128 0x8
 3333 0398 06000000 		.4byte	.LVL76
 3334 039c E00F0000 		.4byte	0xfe0
 3335 03a0 08       		.uleb128 0x8
 3336 03a1 0A000000 		.4byte	.LVL77
 3337 03a5 EB0F0000 		.4byte	0xfeb
 3338 03a9 08       		.uleb128 0x8
 3339 03aa 0E000000 		.4byte	.LVL78
 3340 03ae 0B030000 		.4byte	0x30b
 3341 03b2 08       		.uleb128 0x8
 3342 03b3 12000000 		.4byte	.LVL79
 3343 03b7 71030000 		.4byte	0x371
 3344 03bb 08       		.uleb128 0x8
 3345 03bc 16000000 		.4byte	.LVL80
 3346 03c0 F70F0000 		.4byte	0xff7
 3347 03c4 00       		.byte	0
 3348 03c5 17       		.uleb128 0x17
 3349 03c6 B2040000 		.4byte	.LASF65
 3350 03ca 01       		.byte	0x1
 3351 03cb CE       		.byte	0xce
 3352 03cc 25000000 		.4byte	0x25
 3353 03d0 00000000 		.4byte	.LFB48
 3354 03d4 2E000000 		.4byte	.LFE48-.LFB48
 3355 03d8 01       		.uleb128 0x1
 3356 03d9 9C       		.byte	0x9c
 3357 03da 19040000 		.4byte	0x419
 3358 03de 0D       		.uleb128 0xd
 3359 03df F4010000 		.4byte	.LASF40
 3360 03e3 01       		.byte	0x1
 3361 03e4 CE       		.byte	0xce
ARM GAS  C:\Users\HENRYA~1\AppData\Local\Temp\cchXA1T4.s 			page 76


 3362 03e5 19040000 		.4byte	0x419
 3363 03e9 1A030000 		.4byte	.LLST18
 3364 03ed 0E       		.uleb128 0xe
 3365 03ee 6E756D00 		.ascii	"num\000"
 3366 03f2 01       		.byte	0x1
 3367 03f3 CE       		.byte	0xce
 3368 03f4 64000000 		.4byte	0x64
 3369 03f8 46030000 		.4byte	.LLST19
 3370 03fc 0B       		.uleb128 0xb
 3371 03fd 6900     		.ascii	"i\000"
 3372 03ff 01       		.byte	0x1
 3373 0400 CF       		.byte	0xcf
 3374 0401 64000000 		.4byte	0x64
 3375 0405 72030000 		.4byte	.LLST20
 3376 0409 0B       		.uleb128 0xb
 3377 040a 6D617800 		.ascii	"max\000"
 3378 040e 01       		.byte	0x1
 3379 040f D0       		.byte	0xd0
 3380 0410 25000000 		.4byte	0x25
 3381 0414 91030000 		.4byte	.LLST21
 3382 0418 00       		.byte	0
 3383 0419 18       		.uleb128 0x18
 3384 041a 04       		.byte	0x4
 3385 041b 25000000 		.4byte	0x25
 3386 041f 12       		.uleb128 0x12
 3387 0420 FC010000 		.4byte	.LASF41
 3388 0424 01       		.byte	0x1
 3389 0425 D8       		.byte	0xd8
 3390 0426 00000000 		.4byte	.LFB49
 3391 042a 38000000 		.4byte	.LFE49-.LFB49
 3392 042e 01       		.uleb128 0x1
 3393 042f 9C       		.byte	0x9c
 3394 0430 78040000 		.4byte	0x478
 3395 0434 0E       		.uleb128 0xe
 3396 0435 4900     		.ascii	"I\000"
 3397 0437 01       		.byte	0x1
 3398 0438 D8       		.byte	0xd8
 3399 0439 64000000 		.4byte	0x64
 3400 043d B0030000 		.4byte	.LLST22
 3401 0441 0F       		.uleb128 0xf
 3402 0442 8A020000 		.4byte	.LASF42
 3403 0446 01       		.byte	0x1
 3404 0447 D9       		.byte	0xd9
 3405 0448 25000000 		.4byte	0x25
 3406 044c DC030000 		.4byte	.LLST23
 3407 0450 0B       		.uleb128 0xb
 3408 0451 6900     		.ascii	"i\000"
 3409 0453 01       		.byte	0x1
 3410 0454 DA       		.byte	0xda
 3411 0455 64000000 		.4byte	0x64
 3412 0459 FA030000 		.4byte	.LLST24
 3413 045d 10       		.uleb128 0x10
 3414 045e 0A000000 		.4byte	.LVL92
 3415 0462 C5030000 		.4byte	0x3c5
 3416 0466 11       		.uleb128 0x11
 3417 0467 01       		.uleb128 0x1
 3418 0468 50       		.byte	0x50
ARM GAS  C:\Users\HENRYA~1\AppData\Local\Temp\cchXA1T4.s 			page 77


 3419 0469 05       		.uleb128 0x5
 3420 046a 03       		.byte	0x3
 3421 046b 00000000 		.4byte	Fitness
 3422 046f 11       		.uleb128 0x11
 3423 0470 01       		.uleb128 0x1
 3424 0471 51       		.byte	0x51
 3425 0472 03       		.uleb128 0x3
 3426 0473 F3       		.byte	0xf3
 3427 0474 01       		.uleb128 0x1
 3428 0475 50       		.byte	0x50
 3429 0476 00       		.byte	0
 3430 0477 00       		.byte	0
 3431 0478 12       		.uleb128 0x12
 3432 0479 B7000000 		.4byte	.LASF43
 3433 047d 01       		.byte	0x1
 3434 047e E0       		.byte	0xe0
 3435 047f 00000000 		.4byte	.LFB50
 3436 0483 34000000 		.4byte	.LFE50-.LFB50
 3437 0487 01       		.uleb128 0x1
 3438 0488 9C       		.byte	0x9c
 3439 0489 D1040000 		.4byte	0x4d1
 3440 048d 0E       		.uleb128 0xe
 3441 048e 4900     		.ascii	"I\000"
 3442 0490 01       		.byte	0x1
 3443 0491 E0       		.byte	0xe0
 3444 0492 64000000 		.4byte	0x64
 3445 0496 19040000 		.4byte	.LLST25
 3446 049a 0F       		.uleb128 0xf
 3447 049b 8A020000 		.4byte	.LASF42
 3448 049f 01       		.byte	0x1
 3449 04a0 E1       		.byte	0xe1
 3450 04a1 25000000 		.4byte	0x25
 3451 04a5 45040000 		.4byte	.LLST26
 3452 04a9 0B       		.uleb128 0xb
 3453 04aa 6900     		.ascii	"i\000"
 3454 04ac 01       		.byte	0x1
 3455 04ad E2       		.byte	0xe2
 3456 04ae 64000000 		.4byte	0x64
 3457 04b2 63040000 		.4byte	.LLST27
 3458 04b6 10       		.uleb128 0x10
 3459 04b7 0A000000 		.4byte	.LVL101
 3460 04bb C5030000 		.4byte	0x3c5
 3461 04bf 11       		.uleb128 0x11
 3462 04c0 01       		.uleb128 0x1
 3463 04c1 50       		.byte	0x50
 3464 04c2 05       		.uleb128 0x5
 3465 04c3 03       		.byte	0x3
 3466 04c4 00000000 		.4byte	Fitness
 3467 04c8 11       		.uleb128 0x11
 3468 04c9 01       		.uleb128 0x1
 3469 04ca 51       		.byte	0x51
 3470 04cb 03       		.uleb128 0x3
 3471 04cc F3       		.byte	0xf3
 3472 04cd 01       		.uleb128 0x1
 3473 04ce 50       		.byte	0x50
 3474 04cf 00       		.byte	0
 3475 04d0 00       		.byte	0
ARM GAS  C:\Users\HENRYA~1\AppData\Local\Temp\cchXA1T4.s 			page 78


 3476 04d1 0C       		.uleb128 0xc
 3477 04d2 D4040000 		.4byte	.LASF44
 3478 04d6 01       		.byte	0x1
 3479 04d7 E8       		.byte	0xe8
 3480 04d8 00000000 		.4byte	.LFB51
 3481 04dc 50000000 		.4byte	.LFE51-.LFB51
 3482 04e0 01       		.uleb128 0x1
 3483 04e1 9C       		.byte	0x9c
 3484 04e2 34050000 		.4byte	0x534
 3485 04e6 0E       		.uleb128 0xe
 3486 04e7 6900     		.ascii	"i\000"
 3487 04e9 01       		.byte	0x1
 3488 04ea E8       		.byte	0xe8
 3489 04eb 64000000 		.4byte	0x64
 3490 04ef 82040000 		.4byte	.LLST28
 3491 04f3 15       		.uleb128 0x15
 3492 04f4 2A000000 		.4byte	.LVL110
 3493 04f8 47020000 		.4byte	0x247
 3494 04fc 0E050000 		.4byte	0x50e
 3495 0500 11       		.uleb128 0x11
 3496 0501 01       		.uleb128 0x1
 3497 0502 50       		.byte	0x50
 3498 0503 03       		.uleb128 0x3
 3499 0504 F5       		.byte	0xf5
 3500 0505 05       		.uleb128 0x5
 3501 0506 25       		.uleb128 0x25
 3502 0507 11       		.uleb128 0x11
 3503 0508 01       		.uleb128 0x1
 3504 0509 53       		.byte	0x53
 3505 050a 02       		.uleb128 0x2
 3506 050b 08       		.byte	0x8
 3507 050c 21       		.byte	0x21
 3508 050d 00       		.byte	0
 3509 050e 15       		.uleb128 0x15
 3510 050f 32000000 		.4byte	.LVL111
 3511 0513 C90F0000 		.4byte	0xfc9
 3512 0517 23050000 		.4byte	0x523
 3513 051b 11       		.uleb128 0x11
 3514 051c 01       		.uleb128 0x1
 3515 051d 50       		.byte	0x50
 3516 051e 03       		.uleb128 0x3
 3517 051f 0A       		.byte	0xa
 3518 0520 E803     		.2byte	0x3e8
 3519 0522 00       		.byte	0
 3520 0523 10       		.uleb128 0x10
 3521 0524 3E000000 		.4byte	.LVL112
 3522 0528 47020000 		.4byte	0x247
 3523 052c 11       		.uleb128 0x11
 3524 052d 01       		.uleb128 0x1
 3525 052e 53       		.byte	0x53
 3526 052f 02       		.uleb128 0x2
 3527 0530 08       		.byte	0x8
 3528 0531 20       		.byte	0x20
 3529 0532 00       		.byte	0
 3530 0533 00       		.byte	0
 3531 0534 13       		.uleb128 0x13
 3532 0535 45020000 		.4byte	.LASF46
ARM GAS  C:\Users\HENRYA~1\AppData\Local\Temp\cchXA1T4.s 			page 79


 3533 0539 01       		.byte	0x1
 3534 053a F1       		.byte	0xf1
 3535 053b 00000000 		.4byte	.LFB52
 3536 053f 40000000 		.4byte	.LFE52-.LFB52
 3537 0543 01       		.uleb128 0x1
 3538 0544 9C       		.byte	0x9c
 3539 0545 A6050000 		.4byte	0x5a6
 3540 0549 15       		.uleb128 0x15
 3541 054a 1C000000 		.4byte	.LVL113
 3542 054e 47020000 		.4byte	0x247
 3543 0552 72050000 		.4byte	0x572
 3544 0556 11       		.uleb128 0x11
 3545 0557 01       		.uleb128 0x1
 3546 0558 50       		.byte	0x50
 3547 0559 03       		.uleb128 0x3
 3548 055a F5       		.byte	0xf5
 3549 055b 04       		.uleb128 0x4
 3550 055c 25       		.uleb128 0x25
 3551 055d 11       		.uleb128 0x11
 3552 055e 01       		.uleb128 0x1
 3553 055f 51       		.byte	0x51
 3554 0560 03       		.uleb128 0x3
 3555 0561 F5       		.byte	0xf5
 3556 0562 04       		.uleb128 0x4
 3557 0563 25       		.uleb128 0x25
 3558 0564 11       		.uleb128 0x11
 3559 0565 01       		.uleb128 0x1
 3560 0566 52       		.byte	0x52
 3561 0567 03       		.uleb128 0x3
 3562 0568 F5       		.byte	0xf5
 3563 0569 05       		.uleb128 0x5
 3564 056a 25       		.uleb128 0x25
 3565 056b 11       		.uleb128 0x11
 3566 056c 01       		.uleb128 0x1
 3567 056d 53       		.byte	0x53
 3568 056e 02       		.uleb128 0x2
 3569 056f 08       		.byte	0x8
 3570 0570 21       		.byte	0x21
 3571 0571 00       		.byte	0
 3572 0572 15       		.uleb128 0x15
 3573 0573 24000000 		.4byte	.LVL114
 3574 0577 C90F0000 		.4byte	0xfc9
 3575 057b 87050000 		.4byte	0x587
 3576 057f 11       		.uleb128 0x11
 3577 0580 01       		.uleb128 0x1
 3578 0581 50       		.byte	0x50
 3579 0582 03       		.uleb128 0x3
 3580 0583 0A       		.byte	0xa
 3581 0584 E803     		.2byte	0x3e8
 3582 0586 00       		.byte	0
 3583 0587 10       		.uleb128 0x10
 3584 0588 30000000 		.4byte	.LVL115
 3585 058c 47020000 		.4byte	0x247
 3586 0590 11       		.uleb128 0x11
 3587 0591 01       		.uleb128 0x1
 3588 0592 50       		.byte	0x50
 3589 0593 03       		.uleb128 0x3
ARM GAS  C:\Users\HENRYA~1\AppData\Local\Temp\cchXA1T4.s 			page 80


 3590 0594 F5       		.byte	0xf5
 3591 0595 04       		.uleb128 0x4
 3592 0596 25       		.uleb128 0x25
 3593 0597 11       		.uleb128 0x11
 3594 0598 01       		.uleb128 0x1
 3595 0599 52       		.byte	0x52
 3596 059a 03       		.uleb128 0x3
 3597 059b F5       		.byte	0xf5
 3598 059c 05       		.uleb128 0x5
 3599 059d 25       		.uleb128 0x25
 3600 059e 11       		.uleb128 0x11
 3601 059f 01       		.uleb128 0x1
 3602 05a0 53       		.byte	0x53
 3603 05a1 02       		.uleb128 0x2
 3604 05a2 08       		.byte	0x8
 3605 05a3 20       		.byte	0x20
 3606 05a4 00       		.byte	0
 3607 05a5 00       		.byte	0
 3608 05a6 19       		.uleb128 0x19
 3609 05a7 05030000 		.4byte	.LASF47
 3610 05ab 01       		.byte	0x1
 3611 05ac FA       		.byte	0xfa
 3612 05ad 00000000 		.4byte	.LFB53
 3613 05b1 18010000 		.4byte	.LFE53-.LFB53
 3614 05b5 01       		.uleb128 0x1
 3615 05b6 9C       		.byte	0x9c
 3616 05b7 E8050000 		.4byte	0x5e8
 3617 05bb 0B       		.uleb128 0xb
 3618 05bc 6900     		.ascii	"i\000"
 3619 05be 01       		.byte	0x1
 3620 05bf FC       		.byte	0xfc
 3621 05c0 64000000 		.4byte	0x64
 3622 05c4 A3040000 		.4byte	.LLST29
 3623 05c8 0B       		.uleb128 0xb
 3624 05c9 6A00     		.ascii	"j\000"
 3625 05cb 01       		.byte	0x1
 3626 05cc FC       		.byte	0xfc
 3627 05cd 64000000 		.4byte	0x64
 3628 05d1 EF040000 		.4byte	.LLST30
 3629 05d5 08       		.uleb128 0x8
 3630 05d6 0E000000 		.4byte	.LVL116
 3631 05da 1F040000 		.4byte	0x41f
 3632 05de 08       		.uleb128 0x8
 3633 05df 5C000000 		.4byte	.LVL126
 3634 05e3 D6000000 		.4byte	0xd6
 3635 05e7 00       		.byte	0
 3636 05e8 1A       		.uleb128 0x1a
 3637 05e9 19020000 		.4byte	.LASF48
 3638 05ed 01       		.byte	0x1
 3639 05ee 1C01     		.2byte	0x11c
 3640 05f0 00000000 		.4byte	.LFB54
 3641 05f4 A4000000 		.4byte	.LFE54-.LFB54
 3642 05f8 01       		.uleb128 0x1
 3643 05f9 9C       		.byte	0x9c
 3644 05fa 31060000 		.4byte	0x631
 3645 05fe 1B       		.uleb128 0x1b
 3646 05ff 76000000 		.4byte	.LASF49
ARM GAS  C:\Users\HENRYA~1\AppData\Local\Temp\cchXA1T4.s 			page 81


 3647 0603 01       		.byte	0x1
 3648 0604 1D01     		.2byte	0x11d
 3649 0606 64000000 		.4byte	0x64
 3650 060a 1A050000 		.4byte	.LLST31
 3651 060e 1B       		.uleb128 0x1b
 3652 060f C3000000 		.4byte	.LASF50
 3653 0613 01       		.byte	0x1
 3654 0614 1E01     		.2byte	0x11e
 3655 0616 64000000 		.4byte	0x64
 3656 061a 45050000 		.4byte	.LLST32
 3657 061e 08       		.uleb128 0x8
 3658 061f 12000000 		.4byte	.LVL137
 3659 0623 D6000000 		.4byte	0xd6
 3660 0627 08       		.uleb128 0x8
 3661 0628 32000000 		.4byte	.LVL143
 3662 062c D6000000 		.4byte	0xd6
 3663 0630 00       		.byte	0
 3664 0631 1A       		.uleb128 0x1a
 3665 0632 38010000 		.4byte	.LASF51
 3666 0636 01       		.byte	0x1
 3667 0637 2701     		.2byte	0x127
 3668 0639 00000000 		.4byte	.LFB55
 3669 063d F0000000 		.4byte	.LFE55-.LFB55
 3670 0641 01       		.uleb128 0x1
 3671 0642 9C       		.byte	0x9c
 3672 0643 95060000 		.4byte	0x695
 3673 0647 1B       		.uleb128 0x1b
 3674 0648 24030000 		.4byte	.LASF52
 3675 064c 01       		.byte	0x1
 3676 064d 2801     		.2byte	0x128
 3677 064f 64000000 		.4byte	0x64
 3678 0653 70050000 		.4byte	.LLST33
 3679 0657 1B       		.uleb128 0x1b
 3680 0658 39000000 		.4byte	.LASF53
 3681 065c 01       		.byte	0x1
 3682 065d 2901     		.2byte	0x129
 3683 065f 64000000 		.4byte	0x64
 3684 0663 A4050000 		.4byte	.LLST34
 3685 0667 08       		.uleb128 0x8
 3686 0668 18000000 		.4byte	.LVL159
 3687 066c D6000000 		.4byte	0xd6
 3688 0670 08       		.uleb128 0x8
 3689 0671 2E000000 		.4byte	.LVL163
 3690 0675 D6000000 		.4byte	0xd6
 3691 0679 08       		.uleb128 0x8
 3692 067a 4A000000 		.4byte	.LVL166
 3693 067e F9000000 		.4byte	0xf9
 3694 0682 08       		.uleb128 0x8
 3695 0683 84000000 		.4byte	.LVL173
 3696 0687 F9000000 		.4byte	0xf9
 3697 068b 08       		.uleb128 0x8
 3698 068c BE000000 		.4byte	.LVL180
 3699 0690 F9000000 		.4byte	0xf9
 3700 0694 00       		.byte	0
 3701 0695 1A       		.uleb128 0x1a
 3702 0696 EF030000 		.4byte	.LASF54
 3703 069a 01       		.byte	0x1
ARM GAS  C:\Users\HENRYA~1\AppData\Local\Temp\cchXA1T4.s 			page 82


 3704 069b 2F01     		.2byte	0x12f
 3705 069d 00000000 		.4byte	.LFB56
 3706 06a1 58000000 		.4byte	.LFE56-.LFB56
 3707 06a5 01       		.uleb128 0x1
 3708 06a6 9C       		.byte	0x9c
 3709 06a7 BA060000 		.4byte	0x6ba
 3710 06ab 1C       		.uleb128 0x1c
 3711 06ac 6900     		.ascii	"i\000"
 3712 06ae 01       		.byte	0x1
 3713 06af 3001     		.2byte	0x130
 3714 06b1 64000000 		.4byte	0x64
 3715 06b5 CD050000 		.4byte	.LLST35
 3716 06b9 00       		.byte	0
 3717 06ba 1D       		.uleb128 0x1d
 3718 06bb 415F4700 		.ascii	"A_G\000"
 3719 06bf 01       		.byte	0x1
 3720 06c0 3A01     		.2byte	0x13a
 3721 06c2 00000000 		.4byte	.LFB57
 3722 06c6 EC000000 		.4byte	.LFE57-.LFB57
 3723 06ca 01       		.uleb128 0x1
 3724 06cb 9C       		.byte	0x9c
 3725 06cc 4B070000 		.4byte	0x74b
 3726 06d0 1B       		.uleb128 0x1b
 3727 06d1 74020000 		.4byte	.LASF55
 3728 06d5 01       		.byte	0x1
 3729 06d6 3B01     		.2byte	0x13b
 3730 06d8 25000000 		.4byte	0x25
 3731 06dc EC050000 		.4byte	.LLST36
 3732 06e0 1B       		.uleb128 0x1b
 3733 06e1 83020000 		.4byte	.LASF56
 3734 06e5 01       		.byte	0x1
 3735 06e6 3C01     		.2byte	0x13c
 3736 06e8 25000000 		.4byte	0x25
 3737 06ec 1F060000 		.4byte	.LLST37
 3738 06f0 08       		.uleb128 0x8
 3739 06f1 24000000 		.4byte	.LVL192
 3740 06f5 78040000 		.4byte	0x478
 3741 06f9 08       		.uleb128 0x8
 3742 06fa 28000000 		.4byte	.LVL193
 3743 06fe 95060000 		.4byte	0x695
 3744 0702 08       		.uleb128 0x8
 3745 0703 38000000 		.4byte	.LVL194
 3746 0707 34050000 		.4byte	0x534
 3747 070b 08       		.uleb128 0x8
 3748 070c 3C000000 		.4byte	.LVL195
 3749 0710 A6050000 		.4byte	0x5a6
 3750 0714 08       		.uleb128 0x8
 3751 0715 4E000000 		.4byte	.LVL196
 3752 0719 D6000000 		.4byte	0xd6
 3753 071d 08       		.uleb128 0x8
 3754 071e 62000000 		.4byte	.LVL199
 3755 0722 E8050000 		.4byte	0x5e8
 3756 0726 08       		.uleb128 0x8
 3757 0727 66000000 		.4byte	.LVL200
 3758 072b D6000000 		.4byte	0xd6
 3759 072f 08       		.uleb128 0x8
 3760 0730 7A000000 		.4byte	.LVL203
ARM GAS  C:\Users\HENRYA~1\AppData\Local\Temp\cchXA1T4.s 			page 83


 3761 0734 31060000 		.4byte	0x631
 3762 0738 08       		.uleb128 0x8
 3763 0739 9E000000 		.4byte	.LVL205
 3764 073d D1040000 		.4byte	0x4d1
 3765 0741 08       		.uleb128 0x8
 3766 0742 AE000000 		.4byte	.LVL206
 3767 0746 34050000 		.4byte	0x534
 3768 074a 00       		.byte	0
 3769 074b 1E       		.uleb128 0x1e
 3770 074c A8040000 		.4byte	.LASF57
 3771 0750 01       		.byte	0x1
 3772 0751 6E01     		.2byte	0x16e
 3773 0753 00000000 		.4byte	.LFB58
 3774 0757 E8000000 		.4byte	.LFE58-.LFB58
 3775 075b 01       		.uleb128 0x1
 3776 075c 9C       		.byte	0x9c
 3777 075d FF080000 		.4byte	0x8ff
 3778 0761 1C       		.uleb128 0x1c
 3779 0762 6900     		.ascii	"i\000"
 3780 0764 01       		.byte	0x1
 3781 0765 7001     		.2byte	0x170
 3782 0767 64000000 		.4byte	0x64
 3783 076b 52060000 		.4byte	.LLST38
 3784 076f 1C       		.uleb128 0x1c
 3785 0770 6A00     		.ascii	"j\000"
 3786 0772 01       		.byte	0x1
 3787 0773 7101     		.2byte	0x171
 3788 0775 64000000 		.4byte	0x64
 3789 0779 A9060000 		.4byte	.LLST39
 3790 077d 15       		.uleb128 0x15
 3791 077e 08000000 		.4byte	.LVL209
 3792 0782 09020000 		.4byte	0x209
 3793 0786 91070000 		.4byte	0x791
 3794 078a 11       		.uleb128 0x11
 3795 078b 01       		.uleb128 0x1
 3796 078c 50       		.byte	0x50
 3797 078d 02       		.uleb128 0x2
 3798 078e 08       		.byte	0x8
 3799 078f C8       		.byte	0xc8
 3800 0790 00       		.byte	0
 3801 0791 15       		.uleb128 0x15
 3802 0792 16000000 		.4byte	.LVL211
 3803 0796 9F010000 		.4byte	0x19f
 3804 079a AC070000 		.4byte	0x7ac
 3805 079e 11       		.uleb128 0x11
 3806 079f 01       		.uleb128 0x1
 3807 07a0 50       		.byte	0x50
 3808 07a1 02       		.uleb128 0x2
 3809 07a2 74       		.byte	0x74
 3810 07a3 00       		.sleb128 0
 3811 07a4 11       		.uleb128 0x11
 3812 07a5 01       		.uleb128 0x1
 3813 07a6 51       		.byte	0x51
 3814 07a7 03       		.uleb128 0x3
 3815 07a8 0A       		.byte	0xa
 3816 07a9 0002     		.2byte	0x200
 3817 07ab 00       		.byte	0
ARM GAS  C:\Users\HENRYA~1\AppData\Local\Temp\cchXA1T4.s 			page 84


 3818 07ac 15       		.uleb128 0x15
 3819 07ad 2A000000 		.4byte	.LVL214
 3820 07b1 C90F0000 		.4byte	0xfc9
 3821 07b5 C0070000 		.4byte	0x7c0
 3822 07b9 11       		.uleb128 0x11
 3823 07ba 01       		.uleb128 0x1
 3824 07bb 50       		.byte	0x50
 3825 07bc 02       		.uleb128 0x2
 3826 07bd 74       		.byte	0x74
 3827 07be 00       		.sleb128 0
 3828 07bf 00       		.byte	0
 3829 07c0 15       		.uleb128 0x15
 3830 07c1 34000000 		.4byte	.LVL215
 3831 07c5 9F010000 		.4byte	0x19f
 3832 07c9 D5070000 		.4byte	0x7d5
 3833 07cd 11       		.uleb128 0x11
 3834 07ce 01       		.uleb128 0x1
 3835 07cf 51       		.byte	0x51
 3836 07d0 03       		.uleb128 0x3
 3837 07d1 0A       		.byte	0xa
 3838 07d2 A302     		.2byte	0x2a3
 3839 07d4 00       		.byte	0
 3840 07d5 15       		.uleb128 0x15
 3841 07d6 3A000000 		.4byte	.LVL216
 3842 07da C90F0000 		.4byte	0xfc9
 3843 07de E9070000 		.4byte	0x7e9
 3844 07e2 11       		.uleb128 0x11
 3845 07e3 01       		.uleb128 0x1
 3846 07e4 50       		.byte	0x50
 3847 07e5 02       		.uleb128 0x2
 3848 07e6 74       		.byte	0x74
 3849 07e7 00       		.sleb128 0
 3850 07e8 00       		.byte	0
 3851 07e9 15       		.uleb128 0x15
 3852 07ea 46000000 		.4byte	.LVL218
 3853 07ee 9F010000 		.4byte	0x19f
 3854 07f2 04080000 		.4byte	0x804
 3855 07f6 11       		.uleb128 0x11
 3856 07f7 01       		.uleb128 0x1
 3857 07f8 50       		.byte	0x50
 3858 07f9 02       		.uleb128 0x2
 3859 07fa 74       		.byte	0x74
 3860 07fb 00       		.sleb128 0
 3861 07fc 11       		.uleb128 0x11
 3862 07fd 01       		.uleb128 0x1
 3863 07fe 51       		.byte	0x51
 3864 07ff 03       		.uleb128 0x3
 3865 0800 0A       		.byte	0xa
 3866 0801 8A02     		.2byte	0x28a
 3867 0803 00       		.byte	0
 3868 0804 15       		.uleb128 0x15
 3869 0805 4E000000 		.4byte	.LVL219
 3870 0809 9F010000 		.4byte	0x19f
 3871 080d 1F080000 		.4byte	0x81f
 3872 0811 11       		.uleb128 0x11
 3873 0812 01       		.uleb128 0x1
 3874 0813 50       		.byte	0x50
ARM GAS  C:\Users\HENRYA~1\AppData\Local\Temp\cchXA1T4.s 			page 85


 3875 0814 02       		.uleb128 0x2
 3876 0815 74       		.byte	0x74
 3877 0816 01       		.sleb128 1
 3878 0817 11       		.uleb128 0x11
 3879 0818 01       		.uleb128 0x1
 3880 0819 51       		.byte	0x51
 3881 081a 03       		.uleb128 0x3
 3882 081b 0A       		.byte	0xa
 3883 081c EE02     		.2byte	0x2ee
 3884 081e 00       		.byte	0
 3885 081f 15       		.uleb128 0x15
 3886 0820 64000000 		.4byte	.LVL223
 3887 0824 9F010000 		.4byte	0x19f
 3888 0828 34080000 		.4byte	0x834
 3889 082c 11       		.uleb128 0x11
 3890 082d 01       		.uleb128 0x1
 3891 082e 51       		.byte	0x51
 3892 082f 03       		.uleb128 0x3
 3893 0830 0A       		.byte	0xa
 3894 0831 0002     		.2byte	0x200
 3895 0833 00       		.byte	0
 3896 0834 15       		.uleb128 0x15
 3897 0835 6E000000 		.4byte	.LVL225
 3898 0839 C90F0000 		.4byte	0xfc9
 3899 083d 48080000 		.4byte	0x848
 3900 0841 11       		.uleb128 0x11
 3901 0842 01       		.uleb128 0x1
 3902 0843 50       		.byte	0x50
 3903 0844 02       		.uleb128 0x2
 3904 0845 74       		.byte	0x74
 3905 0846 00       		.sleb128 0
 3906 0847 00       		.byte	0
 3907 0848 15       		.uleb128 0x15
 3908 0849 78000000 		.4byte	.LVL226
 3909 084d 9F010000 		.4byte	0x19f
 3910 0851 62080000 		.4byte	0x862
 3911 0855 11       		.uleb128 0x11
 3912 0856 01       		.uleb128 0x1
 3913 0857 50       		.byte	0x50
 3914 0858 01       		.uleb128 0x1
 3915 0859 30       		.byte	0x30
 3916 085a 11       		.uleb128 0x11
 3917 085b 01       		.uleb128 0x1
 3918 085c 51       		.byte	0x51
 3919 085d 03       		.uleb128 0x3
 3920 085e 0A       		.byte	0xa
 3921 085f 5E01     		.2byte	0x15e
 3922 0861 00       		.byte	0
 3923 0862 15       		.uleb128 0x15
 3924 0863 7E000000 		.4byte	.LVL227
 3925 0867 C90F0000 		.4byte	0xfc9
 3926 086b 76080000 		.4byte	0x876
 3927 086f 11       		.uleb128 0x11
 3928 0870 01       		.uleb128 0x1
 3929 0871 50       		.byte	0x50
 3930 0872 02       		.uleb128 0x2
 3931 0873 74       		.byte	0x74
ARM GAS  C:\Users\HENRYA~1\AppData\Local\Temp\cchXA1T4.s 			page 86


 3932 0874 00       		.sleb128 0
 3933 0875 00       		.byte	0
 3934 0876 15       		.uleb128 0x15
 3935 0877 8E000000 		.4byte	.LVL229
 3936 087b 9F010000 		.4byte	0x19f
 3937 087f 90080000 		.4byte	0x890
 3938 0883 11       		.uleb128 0x11
 3939 0884 01       		.uleb128 0x1
 3940 0885 50       		.byte	0x50
 3941 0886 02       		.uleb128 0x2
 3942 0887 74       		.byte	0x74
 3943 0888 00       		.sleb128 0
 3944 0889 11       		.uleb128 0x11
 3945 088a 01       		.uleb128 0x1
 3946 088b 51       		.byte	0x51
 3947 088c 02       		.uleb128 0x2
 3948 088d 75       		.byte	0x75
 3949 088e 00       		.sleb128 0
 3950 088f 00       		.byte	0
 3951 0890 15       		.uleb128 0x15
 3952 0891 96000000 		.4byte	.LVL230
 3953 0895 9F010000 		.4byte	0x19f
 3954 0899 AA080000 		.4byte	0x8aa
 3955 089d 11       		.uleb128 0x11
 3956 089e 01       		.uleb128 0x1
 3957 089f 50       		.byte	0x50
 3958 08a0 02       		.uleb128 0x2
 3959 08a1 74       		.byte	0x74
 3960 08a2 01       		.sleb128 1
 3961 08a3 11       		.uleb128 0x11
 3962 08a4 01       		.uleb128 0x1
 3963 08a5 51       		.byte	0x51
 3964 08a6 02       		.uleb128 0x2
 3965 08a7 75       		.byte	0x75
 3966 08a8 00       		.sleb128 0
 3967 08a9 00       		.byte	0
 3968 08aa 15       		.uleb128 0x15
 3969 08ab A8000000 		.4byte	.LVL232
 3970 08af C90F0000 		.4byte	0xfc9
 3971 08b3 BF080000 		.4byte	0x8bf
 3972 08b7 11       		.uleb128 0x11
 3973 08b8 01       		.uleb128 0x1
 3974 08b9 50       		.byte	0x50
 3975 08ba 03       		.uleb128 0x3
 3976 08bb 0A       		.byte	0xa
 3977 08bc D007     		.2byte	0x7d0
 3978 08be 00       		.byte	0
 3979 08bf 15       		.uleb128 0x15
 3980 08c0 BC000000 		.4byte	.LVL235
 3981 08c4 9F010000 		.4byte	0x19f
 3982 08c8 DA080000 		.4byte	0x8da
 3983 08cc 11       		.uleb128 0x11
 3984 08cd 01       		.uleb128 0x1
 3985 08ce 50       		.byte	0x50
 3986 08cf 02       		.uleb128 0x2
 3987 08d0 74       		.byte	0x74
 3988 08d1 00       		.sleb128 0
ARM GAS  C:\Users\HENRYA~1\AppData\Local\Temp\cchXA1T4.s 			page 87


 3989 08d2 11       		.uleb128 0x11
 3990 08d3 01       		.uleb128 0x1
 3991 08d4 51       		.byte	0x51
 3992 08d5 03       		.uleb128 0x3
 3993 08d6 0A       		.byte	0xa
 3994 08d7 0002     		.2byte	0x200
 3995 08d9 00       		.byte	0
 3996 08da 15       		.uleb128 0x15
 3997 08db CE000000 		.4byte	.LVL237
 3998 08df C90F0000 		.4byte	0xfc9
 3999 08e3 EF080000 		.4byte	0x8ef
 4000 08e7 11       		.uleb128 0x11
 4001 08e8 01       		.uleb128 0x1
 4002 08e9 50       		.byte	0x50
 4003 08ea 03       		.uleb128 0x3
 4004 08eb 0A       		.byte	0xa
 4005 08ec D007     		.2byte	0x7d0
 4006 08ee 00       		.byte	0
 4007 08ef 10       		.uleb128 0x10
 4008 08f0 D4000000 		.4byte	.LVL238
 4009 08f4 09020000 		.4byte	0x209
 4010 08f8 11       		.uleb128 0x11
 4011 08f9 01       		.uleb128 0x1
 4012 08fa 50       		.byte	0x50
 4013 08fb 01       		.uleb128 0x1
 4014 08fc 30       		.byte	0x30
 4015 08fd 00       		.byte	0
 4016 08fe 00       		.byte	0
 4017 08ff 1E       		.uleb128 0x1e
 4018 0900 2D010000 		.4byte	.LASF58
 4019 0904 01       		.byte	0x1
 4020 0905 8F01     		.2byte	0x18f
 4021 0907 00000000 		.4byte	.LFB59
 4022 090b E4000000 		.4byte	.LFE59-.LFB59
 4023 090f 01       		.uleb128 0x1
 4024 0910 9C       		.byte	0x9c
 4025 0911 B30A0000 		.4byte	0xab3
 4026 0915 1C       		.uleb128 0x1c
 4027 0916 6900     		.ascii	"i\000"
 4028 0918 01       		.byte	0x1
 4029 0919 9101     		.2byte	0x191
 4030 091b 64000000 		.4byte	0x64
 4031 091f C8060000 		.4byte	.LLST40
 4032 0923 1C       		.uleb128 0x1c
 4033 0924 6A00     		.ascii	"j\000"
 4034 0926 01       		.byte	0x1
 4035 0927 9201     		.2byte	0x192
 4036 0929 64000000 		.4byte	0x64
 4037 092d 1F070000 		.4byte	.LLST41
 4038 0931 15       		.uleb128 0x15
 4039 0932 08000000 		.4byte	.LVL241
 4040 0936 09020000 		.4byte	0x209
 4041 093a 45090000 		.4byte	0x945
 4042 093e 11       		.uleb128 0x11
 4043 093f 01       		.uleb128 0x1
 4044 0940 50       		.byte	0x50
 4045 0941 02       		.uleb128 0x2
ARM GAS  C:\Users\HENRYA~1\AppData\Local\Temp\cchXA1T4.s 			page 88


 4046 0942 08       		.byte	0x8
 4047 0943 C8       		.byte	0xc8
 4048 0944 00       		.byte	0
 4049 0945 15       		.uleb128 0x15
 4050 0946 16000000 		.4byte	.LVL243
 4051 094a 9F010000 		.4byte	0x19f
 4052 094e 60090000 		.4byte	0x960
 4053 0952 11       		.uleb128 0x11
 4054 0953 01       		.uleb128 0x1
 4055 0954 50       		.byte	0x50
 4056 0955 02       		.uleb128 0x2
 4057 0956 74       		.byte	0x74
 4058 0957 00       		.sleb128 0
 4059 0958 11       		.uleb128 0x11
 4060 0959 01       		.uleb128 0x1
 4061 095a 51       		.byte	0x51
 4062 095b 03       		.uleb128 0x3
 4063 095c 0A       		.byte	0xa
 4064 095d 0002     		.2byte	0x200
 4065 095f 00       		.byte	0
 4066 0960 15       		.uleb128 0x15
 4067 0961 2A000000 		.4byte	.LVL246
 4068 0965 C90F0000 		.4byte	0xfc9
 4069 0969 74090000 		.4byte	0x974
 4070 096d 11       		.uleb128 0x11
 4071 096e 01       		.uleb128 0x1
 4072 096f 50       		.byte	0x50
 4073 0970 02       		.uleb128 0x2
 4074 0971 74       		.byte	0x74
 4075 0972 00       		.sleb128 0
 4076 0973 00       		.byte	0
 4077 0974 15       		.uleb128 0x15
 4078 0975 34000000 		.4byte	.LVL247
 4079 0979 9F010000 		.4byte	0x19f
 4080 097d 89090000 		.4byte	0x989
 4081 0981 11       		.uleb128 0x11
 4082 0982 01       		.uleb128 0x1
 4083 0983 51       		.byte	0x51
 4084 0984 03       		.uleb128 0x3
 4085 0985 0A       		.byte	0xa
 4086 0986 A302     		.2byte	0x2a3
 4087 0988 00       		.byte	0
 4088 0989 15       		.uleb128 0x15
 4089 098a 3A000000 		.4byte	.LVL248
 4090 098e C90F0000 		.4byte	0xfc9
 4091 0992 9D090000 		.4byte	0x99d
 4092 0996 11       		.uleb128 0x11
 4093 0997 01       		.uleb128 0x1
 4094 0998 50       		.byte	0x50
 4095 0999 02       		.uleb128 0x2
 4096 099a 74       		.byte	0x74
 4097 099b 00       		.sleb128 0
 4098 099c 00       		.byte	0
 4099 099d 15       		.uleb128 0x15
 4100 099e 48000000 		.4byte	.LVL250
 4101 09a2 9F010000 		.4byte	0x19f
 4102 09a6 B8090000 		.4byte	0x9b8
ARM GAS  C:\Users\HENRYA~1\AppData\Local\Temp\cchXA1T4.s 			page 89


 4103 09aa 11       		.uleb128 0x11
 4104 09ab 01       		.uleb128 0x1
 4105 09ac 50       		.byte	0x50
 4106 09ad 02       		.uleb128 0x2
 4107 09ae 74       		.byte	0x74
 4108 09af 00       		.sleb128 0
 4109 09b0 11       		.uleb128 0x11
 4110 09b1 01       		.uleb128 0x1
 4111 09b2 51       		.byte	0x51
 4112 09b3 03       		.uleb128 0x3
 4113 09b4 0A       		.byte	0xa
 4114 09b5 7601     		.2byte	0x176
 4115 09b7 00       		.byte	0
 4116 09b8 15       		.uleb128 0x15
 4117 09b9 52000000 		.4byte	.LVL251
 4118 09bd 9F010000 		.4byte	0x19f
 4119 09c1 D3090000 		.4byte	0x9d3
 4120 09c5 11       		.uleb128 0x11
 4121 09c6 01       		.uleb128 0x1
 4122 09c7 50       		.byte	0x50
 4123 09c8 02       		.uleb128 0x2
 4124 09c9 74       		.byte	0x74
 4125 09ca 01       		.sleb128 1
 4126 09cb 11       		.uleb128 0x11
 4127 09cc 01       		.uleb128 0x1
 4128 09cd 51       		.byte	0x51
 4129 09ce 03       		.uleb128 0x3
 4130 09cf 0A       		.byte	0xa
 4131 09d0 1201     		.2byte	0x112
 4132 09d2 00       		.byte	0
 4133 09d3 15       		.uleb128 0x15
 4134 09d4 68000000 		.4byte	.LVL255
 4135 09d8 9F010000 		.4byte	0x19f
 4136 09dc E8090000 		.4byte	0x9e8
 4137 09e0 11       		.uleb128 0x11
 4138 09e1 01       		.uleb128 0x1
 4139 09e2 51       		.byte	0x51
 4140 09e3 03       		.uleb128 0x3
 4141 09e4 0A       		.byte	0xa
 4142 09e5 0002     		.2byte	0x200
 4143 09e7 00       		.byte	0
 4144 09e8 15       		.uleb128 0x15
 4145 09e9 72000000 		.4byte	.LVL257
 4146 09ed C90F0000 		.4byte	0xfc9
 4147 09f1 FC090000 		.4byte	0x9fc
 4148 09f5 11       		.uleb128 0x11
 4149 09f6 01       		.uleb128 0x1
 4150 09f7 50       		.byte	0x50
 4151 09f8 02       		.uleb128 0x2
 4152 09f9 74       		.byte	0x74
 4153 09fa 00       		.sleb128 0
 4154 09fb 00       		.byte	0
 4155 09fc 15       		.uleb128 0x15
 4156 09fd 7C000000 		.4byte	.LVL258
 4157 0a01 9F010000 		.4byte	0x19f
 4158 0a05 160A0000 		.4byte	0xa16
 4159 0a09 11       		.uleb128 0x11
ARM GAS  C:\Users\HENRYA~1\AppData\Local\Temp\cchXA1T4.s 			page 90


 4160 0a0a 01       		.uleb128 0x1
 4161 0a0b 50       		.byte	0x50
 4162 0a0c 01       		.uleb128 0x1
 4163 0a0d 30       		.byte	0x30
 4164 0a0e 11       		.uleb128 0x11
 4165 0a0f 01       		.uleb128 0x1
 4166 0a10 51       		.byte	0x51
 4167 0a11 03       		.uleb128 0x3
 4168 0a12 0A       		.byte	0xa
 4169 0a13 5E01     		.2byte	0x15e
 4170 0a15 00       		.byte	0
 4171 0a16 15       		.uleb128 0x15
 4172 0a17 82000000 		.4byte	.LVL259
 4173 0a1b C90F0000 		.4byte	0xfc9
 4174 0a1f 2A0A0000 		.4byte	0xa2a
 4175 0a23 11       		.uleb128 0x11
 4176 0a24 01       		.uleb128 0x1
 4177 0a25 50       		.byte	0x50
 4178 0a26 02       		.uleb128 0x2
 4179 0a27 74       		.byte	0x74
 4180 0a28 00       		.sleb128 0
 4181 0a29 00       		.byte	0
 4182 0a2a 15       		.uleb128 0x15
 4183 0a2b 92000000 		.4byte	.LVL261
 4184 0a2f 9F010000 		.4byte	0x19f
 4185 0a33 440A0000 		.4byte	0xa44
 4186 0a37 11       		.uleb128 0x11
 4187 0a38 01       		.uleb128 0x1
 4188 0a39 50       		.byte	0x50
 4189 0a3a 02       		.uleb128 0x2
 4190 0a3b 74       		.byte	0x74
 4191 0a3c 00       		.sleb128 0
 4192 0a3d 11       		.uleb128 0x11
 4193 0a3e 01       		.uleb128 0x1
 4194 0a3f 51       		.byte	0x51
 4195 0a40 02       		.uleb128 0x2
 4196 0a41 75       		.byte	0x75
 4197 0a42 00       		.sleb128 0
 4198 0a43 00       		.byte	0
 4199 0a44 15       		.uleb128 0x15
 4200 0a45 9A000000 		.4byte	.LVL262
 4201 0a49 9F010000 		.4byte	0x19f
 4202 0a4d 5E0A0000 		.4byte	0xa5e
 4203 0a51 11       		.uleb128 0x11
 4204 0a52 01       		.uleb128 0x1
 4205 0a53 50       		.byte	0x50
 4206 0a54 02       		.uleb128 0x2
 4207 0a55 74       		.byte	0x74
 4208 0a56 01       		.sleb128 1
 4209 0a57 11       		.uleb128 0x11
 4210 0a58 01       		.uleb128 0x1
 4211 0a59 51       		.byte	0x51
 4212 0a5a 02       		.uleb128 0x2
 4213 0a5b 75       		.byte	0x75
 4214 0a5c 00       		.sleb128 0
 4215 0a5d 00       		.byte	0
 4216 0a5e 15       		.uleb128 0x15
ARM GAS  C:\Users\HENRYA~1\AppData\Local\Temp\cchXA1T4.s 			page 91


 4217 0a5f AC000000 		.4byte	.LVL264
 4218 0a63 C90F0000 		.4byte	0xfc9
 4219 0a67 730A0000 		.4byte	0xa73
 4220 0a6b 11       		.uleb128 0x11
 4221 0a6c 01       		.uleb128 0x1
 4222 0a6d 50       		.byte	0x50
 4223 0a6e 03       		.uleb128 0x3
 4224 0a6f 0A       		.byte	0xa
 4225 0a70 D007     		.2byte	0x7d0
 4226 0a72 00       		.byte	0
 4227 0a73 15       		.uleb128 0x15
 4228 0a74 C0000000 		.4byte	.LVL267
 4229 0a78 9F010000 		.4byte	0x19f
 4230 0a7c 8E0A0000 		.4byte	0xa8e
 4231 0a80 11       		.uleb128 0x11
 4232 0a81 01       		.uleb128 0x1
 4233 0a82 50       		.byte	0x50
 4234 0a83 02       		.uleb128 0x2
 4235 0a84 74       		.byte	0x74
 4236 0a85 00       		.sleb128 0
 4237 0a86 11       		.uleb128 0x11
 4238 0a87 01       		.uleb128 0x1
 4239 0a88 51       		.byte	0x51
 4240 0a89 03       		.uleb128 0x3
 4241 0a8a 0A       		.byte	0xa
 4242 0a8b 0002     		.2byte	0x200
 4243 0a8d 00       		.byte	0
 4244 0a8e 15       		.uleb128 0x15
 4245 0a8f D2000000 		.4byte	.LVL269
 4246 0a93 C90F0000 		.4byte	0xfc9
 4247 0a97 A30A0000 		.4byte	0xaa3
 4248 0a9b 11       		.uleb128 0x11
 4249 0a9c 01       		.uleb128 0x1
 4250 0a9d 50       		.byte	0x50
 4251 0a9e 03       		.uleb128 0x3
 4252 0a9f 0A       		.byte	0xa
 4253 0aa0 D007     		.2byte	0x7d0
 4254 0aa2 00       		.byte	0
 4255 0aa3 10       		.uleb128 0x10
 4256 0aa4 D8000000 		.4byte	.LVL270
 4257 0aa8 09020000 		.4byte	0x209
 4258 0aac 11       		.uleb128 0x11
 4259 0aad 01       		.uleb128 0x1
 4260 0aae 50       		.byte	0x50
 4261 0aaf 01       		.uleb128 0x1
 4262 0ab0 30       		.byte	0x30
 4263 0ab1 00       		.byte	0
 4264 0ab2 00       		.byte	0
 4265 0ab3 1E       		.uleb128 0x1e
 4266 0ab4 76030000 		.4byte	.LASF59
 4267 0ab8 01       		.byte	0x1
 4268 0ab9 B001     		.2byte	0x1b0
 4269 0abb 00000000 		.4byte	.LFB60
 4270 0abf 48000000 		.4byte	.LFE60-.LFB60
 4271 0ac3 01       		.uleb128 0x1
 4272 0ac4 9C       		.byte	0x9c
 4273 0ac5 470B0000 		.4byte	0xb47
ARM GAS  C:\Users\HENRYA~1\AppData\Local\Temp\cchXA1T4.s 			page 92


 4274 0ac9 1C       		.uleb128 0x1c
 4275 0aca 6900     		.ascii	"i\000"
 4276 0acc 01       		.byte	0x1
 4277 0acd B201     		.2byte	0x1b2
 4278 0acf 64000000 		.4byte	0x64
 4279 0ad3 3E070000 		.4byte	.LLST42
 4280 0ad7 15       		.uleb128 0x15
 4281 0ad8 08000000 		.4byte	.LVL273
 4282 0adc 09020000 		.4byte	0x209
 4283 0ae0 EB0A0000 		.4byte	0xaeb
 4284 0ae4 11       		.uleb128 0x11
 4285 0ae5 01       		.uleb128 0x1
 4286 0ae6 50       		.byte	0x50
 4287 0ae7 02       		.uleb128 0x2
 4288 0ae8 08       		.byte	0x8
 4289 0ae9 C8       		.byte	0xc8
 4290 0aea 00       		.byte	0
 4291 0aeb 15       		.uleb128 0x15
 4292 0aec 16000000 		.4byte	.LVL275
 4293 0af0 9F010000 		.4byte	0x19f
 4294 0af4 060B0000 		.4byte	0xb06
 4295 0af8 11       		.uleb128 0x11
 4296 0af9 01       		.uleb128 0x1
 4297 0afa 50       		.byte	0x50
 4298 0afb 02       		.uleb128 0x2
 4299 0afc 74       		.byte	0x74
 4300 0afd 00       		.sleb128 0
 4301 0afe 11       		.uleb128 0x11
 4302 0aff 01       		.uleb128 0x1
 4303 0b00 51       		.byte	0x51
 4304 0b01 03       		.uleb128 0x3
 4305 0b02 0A       		.byte	0xa
 4306 0b03 0002     		.2byte	0x200
 4307 0b05 00       		.byte	0
 4308 0b06 15       		.uleb128 0x15
 4309 0b07 24000000 		.4byte	.LVL277
 4310 0b0b C90F0000 		.4byte	0xfc9
 4311 0b0f 1B0B0000 		.4byte	0xb1b
 4312 0b13 11       		.uleb128 0x11
 4313 0b14 01       		.uleb128 0x1
 4314 0b15 50       		.byte	0x50
 4315 0b16 03       		.uleb128 0x3
 4316 0b17 0A       		.byte	0xa
 4317 0b18 D007     		.2byte	0x7d0
 4318 0b1a 00       		.byte	0
 4319 0b1b 15       		.uleb128 0x15
 4320 0b1c 2C000000 		.4byte	.LVL278
 4321 0b20 9F010000 		.4byte	0x19f
 4322 0b24 350B0000 		.4byte	0xb35
 4323 0b28 11       		.uleb128 0x11
 4324 0b29 01       		.uleb128 0x1
 4325 0b2a 50       		.byte	0x50
 4326 0b2b 01       		.uleb128 0x1
 4327 0b2c 32       		.byte	0x32
 4328 0b2d 11       		.uleb128 0x11
 4329 0b2e 01       		.uleb128 0x1
 4330 0b2f 51       		.byte	0x51
ARM GAS  C:\Users\HENRYA~1\AppData\Local\Temp\cchXA1T4.s 			page 93


 4331 0b30 03       		.uleb128 0x3
 4332 0b31 0A       		.byte	0xa
 4333 0b32 EE02     		.2byte	0x2ee
 4334 0b34 00       		.byte	0
 4335 0b35 10       		.uleb128 0x10
 4336 0b36 32000000 		.4byte	.LVL279
 4337 0b3a C90F0000 		.4byte	0xfc9
 4338 0b3e 11       		.uleb128 0x11
 4339 0b3f 01       		.uleb128 0x1
 4340 0b40 50       		.byte	0x50
 4341 0b41 03       		.uleb128 0x3
 4342 0b42 0A       		.byte	0xa
 4343 0b43 8813     		.2byte	0x1388
 4344 0b45 00       		.byte	0
 4345 0b46 00       		.byte	0
 4346 0b47 1F       		.uleb128 0x1f
 4347 0b48 F9040000 		.4byte	.LASF61
 4348 0b4c 01       		.byte	0x1
 4349 0b4d BC01     		.2byte	0x1bc
 4350 0b4f 00000000 		.4byte	.LFB61
 4351 0b53 10000000 		.4byte	.LFE61-.LFB61
 4352 0b57 01       		.uleb128 0x1
 4353 0b58 9C       		.byte	0x9c
 4354 0b59 1E       		.uleb128 0x1e
 4355 0b5a 07050000 		.4byte	.LASF62
 4356 0b5e 01       		.byte	0x1
 4357 0b5f C101     		.2byte	0x1c1
 4358 0b61 00000000 		.4byte	.LFB62
 4359 0b65 24000000 		.4byte	.LFE62-.LFB62
 4360 0b69 01       		.uleb128 0x1
 4361 0b6a 9C       		.byte	0x9c
 4362 0b6b 9B0B0000 		.4byte	0xb9b
 4363 0b6f 15       		.uleb128 0x15
 4364 0b70 0C000000 		.4byte	.LVL281
 4365 0b74 9F010000 		.4byte	0x19f
 4366 0b78 890B0000 		.4byte	0xb89
 4367 0b7c 11       		.uleb128 0x11
 4368 0b7d 01       		.uleb128 0x1
 4369 0b7e 50       		.byte	0x50
 4370 0b7f 01       		.uleb128 0x1
 4371 0b80 32       		.byte	0x32
 4372 0b81 11       		.uleb128 0x11
 4373 0b82 01       		.uleb128 0x1
 4374 0b83 51       		.byte	0x51
 4375 0b84 03       		.uleb128 0x3
 4376 0b85 0A       		.byte	0xa
 4377 0b86 1201     		.2byte	0x112
 4378 0b88 00       		.byte	0
 4379 0b89 10       		.uleb128 0x10
 4380 0b8a 12000000 		.4byte	.LVL282
 4381 0b8e C90F0000 		.4byte	0xfc9
 4382 0b92 11       		.uleb128 0x11
 4383 0b93 01       		.uleb128 0x1
 4384 0b94 50       		.byte	0x50
 4385 0b95 03       		.uleb128 0x3
 4386 0b96 0A       		.byte	0xa
 4387 0b97 8813     		.2byte	0x1388
ARM GAS  C:\Users\HENRYA~1\AppData\Local\Temp\cchXA1T4.s 			page 94


 4388 0b99 00       		.byte	0
 4389 0b9a 00       		.byte	0
 4390 0b9b 1E       		.uleb128 0x1e
 4391 0b9c 15050000 		.4byte	.LASF63
 4392 0ba0 01       		.byte	0x1
 4393 0ba1 C701     		.2byte	0x1c7
 4394 0ba3 00000000 		.4byte	.LFB63
 4395 0ba7 24000000 		.4byte	.LFE63-.LFB63
 4396 0bab 01       		.uleb128 0x1
 4397 0bac 9C       		.byte	0x9c
 4398 0bad C40B0000 		.4byte	0xbc4
 4399 0bb1 08       		.uleb128 0x8
 4400 0bb2 16000000 		.4byte	.LVL283
 4401 0bb6 4B070000 		.4byte	0x74b
 4402 0bba 08       		.uleb128 0x8
 4403 0bbb 1C000000 		.4byte	.LVL284
 4404 0bbf FF080000 		.4byte	0x8ff
 4405 0bc3 00       		.byte	0
 4406 0bc4 07       		.uleb128 0x7
 4407 0bc5 7B000000 		.4byte	.LASF64
 4408 0bc9 01       		.byte	0x1
 4409 0bca D301     		.2byte	0x1d3
 4410 0bcc 00000000 		.4byte	.LFB64
 4411 0bd0 D4000000 		.4byte	.LFE64-.LFB64
 4412 0bd4 01       		.uleb128 0x1
 4413 0bd5 9C       		.byte	0x9c
 4414 0bd6 830C0000 		.4byte	0xc83
 4415 0bda 15       		.uleb128 0x15
 4416 0bdb 18000000 		.4byte	.LVL285
 4417 0bdf 02100000 		.4byte	0x1002
 4418 0be3 ED0B0000 		.4byte	0xbed
 4419 0be7 11       		.uleb128 0x11
 4420 0be8 01       		.uleb128 0x1
 4421 0be9 50       		.byte	0x50
 4422 0bea 01       		.uleb128 0x1
 4423 0beb 31       		.byte	0x31
 4424 0bec 00       		.byte	0
 4425 0bed 08       		.uleb128 0x8
 4426 0bee 2C000000 		.4byte	.LVL286
 4427 0bf2 B30A0000 		.4byte	0xab3
 4428 0bf6 08       		.uleb128 0x8
 4429 0bf7 3C000000 		.4byte	.LVL287
 4430 0bfb 4B070000 		.4byte	0x74b
 4431 0bff 08       		.uleb128 0x8
 4432 0c00 4C000000 		.4byte	.LVL288
 4433 0c04 FF080000 		.4byte	0x8ff
 4434 0c08 08       		.uleb128 0x8
 4435 0c09 70000000 		.4byte	.LVL289
 4436 0c0d 47020000 		.4byte	0x247
 4437 0c11 15       		.uleb128 0x15
 4438 0c12 78000000 		.4byte	.LVL290
 4439 0c16 C90F0000 		.4byte	0xfc9
 4440 0c1a 260C0000 		.4byte	0xc26
 4441 0c1e 11       		.uleb128 0x11
 4442 0c1f 01       		.uleb128 0x1
 4443 0c20 50       		.byte	0x50
 4444 0c21 03       		.uleb128 0x3
ARM GAS  C:\Users\HENRYA~1\AppData\Local\Temp\cchXA1T4.s 			page 95


 4445 0c22 0A       		.byte	0xa
 4446 0c23 E803     		.2byte	0x3e8
 4447 0c25 00       		.byte	0
 4448 0c26 15       		.uleb128 0x15
 4449 0c27 84000000 		.4byte	.LVL291
 4450 0c2b 47020000 		.4byte	0x247
 4451 0c2f 3A0C0000 		.4byte	0xc3a
 4452 0c33 11       		.uleb128 0x11
 4453 0c34 01       		.uleb128 0x1
 4454 0c35 53       		.byte	0x53
 4455 0c36 02       		.uleb128 0x2
 4456 0c37 08       		.byte	0x8
 4457 0c38 20       		.byte	0x20
 4458 0c39 00       		.byte	0
 4459 0c3a 15       		.uleb128 0x15
 4460 0c3b 8A000000 		.4byte	.LVL292
 4461 0c3f C90F0000 		.4byte	0xfc9
 4462 0c43 4F0C0000 		.4byte	0xc4f
 4463 0c47 11       		.uleb128 0x11
 4464 0c48 01       		.uleb128 0x1
 4465 0c49 50       		.byte	0x50
 4466 0c4a 03       		.uleb128 0x3
 4467 0c4b 0A       		.byte	0xa
 4468 0c4c 983A     		.2byte	0x3a98
 4469 0c4e 00       		.byte	0
 4470 0c4f 08       		.uleb128 0x8
 4471 0c50 94000000 		.4byte	.LVL293
 4472 0c54 BA060000 		.4byte	0x6ba
 4473 0c58 08       		.uleb128 0x8
 4474 0c59 9E000000 		.4byte	.LVL294
 4475 0c5d 470B0000 		.4byte	0xb47
 4476 0c61 08       		.uleb128 0x8
 4477 0c62 A8000000 		.4byte	.LVL295
 4478 0c66 590B0000 		.4byte	0xb59
 4479 0c6a 08       		.uleb128 0x8
 4480 0c6b AE000000 		.4byte	.LVL296
 4481 0c6f 9B0B0000 		.4byte	0xb9b
 4482 0c73 10       		.uleb128 0x10
 4483 0c74 BC000000 		.4byte	.LVL297
 4484 0c78 02100000 		.4byte	0x1002
 4485 0c7c 11       		.uleb128 0x11
 4486 0c7d 01       		.uleb128 0x1
 4487 0c7e 50       		.byte	0x50
 4488 0c7f 01       		.uleb128 0x1
 4489 0c80 30       		.byte	0x30
 4490 0c81 00       		.byte	0
 4491 0c82 00       		.byte	0
 4492 0c83 20       		.uleb128 0x20
 4493 0c84 71050000 		.4byte	.LASF66
 4494 0c88 01       		.byte	0x1
 4495 0c89 FE01     		.2byte	0x1fe
 4496 0c8b 64000000 		.4byte	0x64
 4497 0c8f 00000000 		.4byte	.LFB66
 4498 0c93 9C000000 		.4byte	.LFE66-.LFB66
 4499 0c97 01       		.uleb128 0x1
 4500 0c98 9C       		.byte	0x9c
 4501 0c99 510D0000 		.4byte	0xd51
ARM GAS  C:\Users\HENRYA~1\AppData\Local\Temp\cchXA1T4.s 			page 96


 4502 0c9d 1C       		.uleb128 0x1c
 4503 0c9e 6900     		.ascii	"i\000"
 4504 0ca0 01       		.byte	0x1
 4505 0ca1 0102     		.2byte	0x201
 4506 0ca3 64000000 		.4byte	0x64
 4507 0ca7 5D070000 		.4byte	.LLST43
 4508 0cab 08       		.uleb128 0x8
 4509 0cac 0A000000 		.4byte	.LVL300
 4510 0cb0 1C010000 		.4byte	0x11c
 4511 0cb4 08       		.uleb128 0x8
 4512 0cb5 18000000 		.4byte	.LVL302
 4513 0cb9 3F010000 		.4byte	0x13f
 4514 0cbd 08       		.uleb128 0x8
 4515 0cbe 28000000 		.4byte	.LVL304
 4516 0cc2 6F010000 		.4byte	0x16f
 4517 0cc6 08       		.uleb128 0x8
 4518 0cc7 38000000 		.4byte	.LVL306
 4519 0ccb D6000000 		.4byte	0xd6
 4520 0ccf 08       		.uleb128 0x8
 4521 0cd0 54000000 		.4byte	.LVL309
 4522 0cd4 0D100000 		.4byte	0x100d
 4523 0cd8 08       		.uleb128 0x8
 4524 0cd9 58000000 		.4byte	.LVL310
 4525 0cdd 18100000 		.4byte	0x1018
 4526 0ce1 08       		.uleb128 0x8
 4527 0ce2 5C000000 		.4byte	.LVL311
 4528 0ce6 23100000 		.4byte	0x1023
 4529 0cea 08       		.uleb128 0x8
 4530 0ceb 60000000 		.4byte	.LVL312
 4531 0cef 2E100000 		.4byte	0x102e
 4532 0cf3 15       		.uleb128 0x15
 4533 0cf4 66000000 		.4byte	.LVL313
 4534 0cf8 39100000 		.4byte	0x1039
 4535 0cfc 0A0D0000 		.4byte	0xd0a
 4536 0d00 11       		.uleb128 0x11
 4537 0d01 01       		.uleb128 0x1
 4538 0d02 50       		.byte	0x50
 4539 0d03 05       		.uleb128 0x5
 4540 0d04 03       		.byte	0x3
 4541 0d05 00000000 		.4byte	interrutcan
 4542 0d09 00       		.byte	0
 4543 0d0a 08       		.uleb128 0x8
 4544 0d0b 6A000000 		.4byte	.LVL314
 4545 0d0f F70F0000 		.4byte	0xff7
 4546 0d13 15       		.uleb128 0x15
 4547 0d14 70000000 		.4byte	.LVL315
 4548 0d18 44100000 		.4byte	0x1044
 4549 0d1c 2A0D0000 		.4byte	0xd2a
 4550 0d20 11       		.uleb128 0x11
 4551 0d21 01       		.uleb128 0x1
 4552 0d22 50       		.byte	0x50
 4553 0d23 05       		.uleb128 0x5
 4554 0d24 03       		.byte	0x3
 4555 0d25 00000000 		.4byte	Serial_Interrupt
 4556 0d29 00       		.byte	0
 4557 0d2a 15       		.uleb128 0x15
 4558 0d2b 76000000 		.4byte	.LVL316
ARM GAS  C:\Users\HENRYA~1\AppData\Local\Temp\cchXA1T4.s 			page 97


 4559 0d2f 4F100000 		.4byte	0x104f
 4560 0d33 410D0000 		.4byte	0xd41
 4561 0d37 11       		.uleb128 0x11
 4562 0d38 01       		.uleb128 0x1
 4563 0d39 50       		.byte	0x50
 4564 0d3a 05       		.uleb128 0x5
 4565 0d3b 03       		.byte	0x3
 4566 0d3c 00000000 		.4byte	Temporizador
 4567 0d40 00       		.byte	0
 4568 0d41 10       		.uleb128 0x10
 4569 0d42 7C000000 		.4byte	.LVL317
 4570 0d46 02100000 		.4byte	0x1002
 4571 0d4a 11       		.uleb128 0x11
 4572 0d4b 01       		.uleb128 0x1
 4573 0d4c 50       		.byte	0x50
 4574 0d4d 01       		.uleb128 0x1
 4575 0d4e 30       		.byte	0x30
 4576 0d4f 00       		.byte	0
 4577 0d50 00       		.byte	0
 4578 0d51 21       		.uleb128 0x21
 4579 0d52 17040000 		.4byte	.LASF67
 4580 0d56 01       		.byte	0x1
 4581 0d57 08       		.byte	0x8
 4582 0d58 A6000000 		.4byte	0xa6
 4583 0d5c 05       		.uleb128 0x5
 4584 0d5d 03       		.byte	0x3
 4585 0d5e 00000000 		.4byte	mailbox0
 4586 0d62 21       		.uleb128 0x21
 4587 0d63 2D030000 		.4byte	.LASF68
 4588 0d67 01       		.byte	0x1
 4589 0d68 09       		.byte	0x9
 4590 0d69 A6000000 		.4byte	0xa6
 4591 0d6d 05       		.uleb128 0x5
 4592 0d6e 03       		.byte	0x3
 4593 0d6f 00000000 		.4byte	mailbox1
 4594 0d73 21       		.uleb128 0x21
 4595 0d74 36030000 		.4byte	.LASF69
 4596 0d78 01       		.byte	0x1
 4597 0d79 0A       		.byte	0xa
 4598 0d7a A6000000 		.4byte	0xa6
 4599 0d7e 05       		.uleb128 0x5
 4600 0d7f 03       		.byte	0x3
 4601 0d80 00000000 		.4byte	mailbox2
 4602 0d84 21       		.uleb128 0x21
 4603 0d85 8D040000 		.4byte	.LASF70
 4604 0d89 01       		.byte	0x1
 4605 0d8a 0B       		.byte	0xb
 4606 0d8b A6000000 		.4byte	0xa6
 4607 0d8f 05       		.uleb128 0x5
 4608 0d90 03       		.byte	0x3
 4609 0d91 00000000 		.4byte	dato_enviado
 4610 0d95 21       		.uleb128 0x21
 4611 0d96 00000000 		.4byte	.LASF71
 4612 0d9a 01       		.byte	0x1
 4613 0d9b 0C       		.byte	0xc
 4614 0d9c A6000000 		.4byte	0xa6
 4615 0da0 05       		.uleb128 0x5
ARM GAS  C:\Users\HENRYA~1\AppData\Local\Temp\cchXA1T4.s 			page 98


 4616 0da1 03       		.byte	0x3
 4617 0da2 00000000 		.4byte	dato_enviado_1
 4618 0da6 21       		.uleb128 0x21
 4619 0da7 1F030000 		.4byte	.LASF72
 4620 0dab 01       		.byte	0x1
 4621 0dac 0D       		.byte	0xd
 4622 0dad 91000000 		.4byte	0x91
 4623 0db1 05       		.uleb128 0x5
 4624 0db2 03       		.byte	0x3
 4625 0db3 00000000 		.4byte	dist
 4626 0db7 21       		.uleb128 0x21
 4627 0db8 87040000 		.4byte	.LASF73
 4628 0dbc 01       		.byte	0x1
 4629 0dbd 0E       		.byte	0xe
 4630 0dbe 7E000000 		.4byte	0x7e
 4631 0dc2 05       		.uleb128 0x5
 4632 0dc3 03       		.byte	0x3
 4633 0dc4 00000000 		.4byte	conta
 4634 0dc8 21       		.uleb128 0x21
 4635 0dc9 B5020000 		.4byte	.LASF74
 4636 0dcd 01       		.byte	0x1
 4637 0dce 0F       		.byte	0xf
 4638 0dcf 64000000 		.4byte	0x64
 4639 0dd3 05       		.uleb128 0x5
 4640 0dd4 03       		.byte	0x3
 4641 0dd5 00000000 		.4byte	cantidadM
 4642 0dd9 21       		.uleb128 0x21
 4643 0dda 99000000 		.4byte	.LASF75
 4644 0dde 01       		.byte	0x1
 4645 0ddf 10       		.byte	0x10
 4646 0de0 64000000 		.4byte	0x64
 4647 0de4 05       		.uleb128 0x5
 4648 0de5 03       		.byte	0x3
 4649 0de6 00000000 		.4byte	Cantidad_Sensores
 4650 0dea 21       		.uleb128 0x21
 4651 0deb B9040000 		.4byte	.LASF76
 4652 0def 01       		.byte	0x1
 4653 0df0 12       		.byte	0x12
 4654 0df1 64000000 		.4byte	0x64
 4655 0df5 05       		.uleb128 0x5
 4656 0df6 03       		.byte	0x3
 4657 0df7 00000000 		.4byte	Max_Conta
 4658 0dfb 21       		.uleb128 0x21
 4659 0dfc 9C050000 		.4byte	.LASF77
 4660 0e00 01       		.byte	0x1
 4661 0e01 13       		.byte	0x13
 4662 0e02 25000000 		.4byte	0x25
 4663 0e06 05       		.uleb128 0x5
 4664 0e07 03       		.byte	0x3
 4665 0e08 00000000 		.4byte	amplitud
 4666 0e0c 21       		.uleb128 0x21
 4667 0e0d ED010000 		.4byte	.LASF78
 4668 0e11 01       		.byte	0x1
 4669 0e12 14       		.byte	0x14
 4670 0e13 25000000 		.4byte	0x25
 4671 0e17 05       		.uleb128 0x5
 4672 0e18 03       		.byte	0x3
ARM GAS  C:\Users\HENRYA~1\AppData\Local\Temp\cchXA1T4.s 			page 99


 4673 0e19 00000000 		.4byte	offset
 4674 0e1d 21       		.uleb128 0x21
 4675 0e1e F6020000 		.4byte	.LASF79
 4676 0e22 01       		.byte	0x1
 4677 0e23 15       		.byte	0x15
 4678 0e24 25000000 		.4byte	0x25
 4679 0e28 05       		.uleb128 0x5
 4680 0e29 03       		.byte	0x3
 4681 0e2a 00000000 		.4byte	fase
 4682 0e2e 21       		.uleb128 0x21
 4683 0e2f 06040000 		.4byte	.LASF80
 4684 0e33 01       		.byte	0x1
 4685 0e34 16       		.byte	0x16
 4686 0e35 64000000 		.4byte	0x64
 4687 0e39 05       		.uleb128 0x5
 4688 0e3a 03       		.byte	0x3
 4689 0e3b 00000000 		.4byte	flag
 4690 0e3f 21       		.uleb128 0x21
 4691 0e40 5C030000 		.4byte	.LASF81
 4692 0e44 01       		.byte	0x1
 4693 0e45 17       		.byte	0x17
 4694 0e46 64000000 		.4byte	0x64
 4695 0e4a 05       		.uleb128 0x5
 4696 0e4b 03       		.byte	0x3
 4697 0e4c 00000000 		.4byte	punto_a
 4698 0e50 21       		.uleb128 0x21
 4699 0e51 64030000 		.4byte	.LASF82
 4700 0e55 01       		.byte	0x1
 4701 0e56 18       		.byte	0x18
 4702 0e57 64000000 		.4byte	0x64
 4703 0e5b 05       		.uleb128 0x5
 4704 0e5c 03       		.byte	0x3
 4705 0e5d 00000000 		.4byte	punto_b
 4706 0e61 21       		.uleb128 0x21
 4707 0e62 4D010000 		.4byte	.LASF83
 4708 0e66 01       		.byte	0x1
 4709 0e67 19       		.byte	0x19
 4710 0e68 64000000 		.4byte	0x64
 4711 0e6c 05       		.uleb128 0x5
 4712 0e6d 03       		.byte	0x3
 4713 0e6e 00000000 		.4byte	move_s
 4714 0e72 21       		.uleb128 0x21
 4715 0e73 2F020000 		.4byte	.LASF84
 4716 0e77 01       		.byte	0x1
 4717 0e78 1B       		.byte	0x1b
 4718 0e79 64000000 		.4byte	0x64
 4719 0e7d 05       		.uleb128 0x5
 4720 0e7e 03       		.byte	0x3
 4721 0e7f 00000000 		.4byte	Individuos
 4722 0e83 05       		.uleb128 0x5
 4723 0e84 25000000 		.4byte	0x25
 4724 0e88 990E0000 		.4byte	0xe99
 4725 0e8c 06       		.uleb128 0x6
 4726 0e8d 9F000000 		.4byte	0x9f
 4727 0e91 02       		.byte	0x2
 4728 0e92 06       		.uleb128 0x6
 4729 0e93 9F000000 		.4byte	0x9f
ARM GAS  C:\Users\HENRYA~1\AppData\Local\Temp\cchXA1T4.s 			page 100


 4730 0e97 09       		.byte	0x9
 4731 0e98 00       		.byte	0
 4732 0e99 21       		.uleb128 0x21
 4733 0e9a 4B030000 		.4byte	.LASF85
 4734 0e9e 01       		.byte	0x1
 4735 0e9f 1C       		.byte	0x1c
 4736 0ea0 830E0000 		.4byte	0xe83
 4737 0ea4 05       		.uleb128 0x5
 4738 0ea5 03       		.byte	0x3
 4739 0ea6 00000000 		.4byte	Poblacion
 4740 0eaa 21       		.uleb128 0x21
 4741 0eab 57000000 		.4byte	.LASF86
 4742 0eaf 01       		.byte	0x1
 4743 0eb0 1D       		.byte	0x1d
 4744 0eb1 830E0000 		.4byte	0xe83
 4745 0eb5 05       		.uleb128 0x5
 4746 0eb6 03       		.byte	0x3
 4747 0eb7 00000000 		.4byte	Poblacion_1
 4748 0ebb 05       		.uleb128 0x5
 4749 0ebc 25000000 		.4byte	0x25
 4750 0ec0 CB0E0000 		.4byte	0xecb
 4751 0ec4 06       		.uleb128 0x6
 4752 0ec5 9F000000 		.4byte	0x9f
 4753 0ec9 09       		.byte	0x9
 4754 0eca 00       		.byte	0
 4755 0ecb 21       		.uleb128 0x21
 4756 0ecc C3040000 		.4byte	.LASF87
 4757 0ed0 01       		.byte	0x1
 4758 0ed1 1E       		.byte	0x1e
 4759 0ed2 BB0E0000 		.4byte	0xebb
 4760 0ed6 05       		.uleb128 0x5
 4761 0ed7 03       		.byte	0x3
 4762 0ed8 00000000 		.4byte	Fitness
 4763 0edc 21       		.uleb128 0x21
 4764 0edd FB020000 		.4byte	.LASF88
 4765 0ee1 01       		.byte	0x1
 4766 0ee2 1F       		.byte	0x1f
 4767 0ee3 BB0E0000 		.4byte	0xebb
 4768 0ee7 05       		.uleb128 0x5
 4769 0ee8 03       		.byte	0x3
 4770 0ee9 00000000 		.4byte	Fitness_1
 4771 0eed 21       		.uleb128 0x21
 4772 0eee A1020000 		.4byte	.LASF89
 4773 0ef2 01       		.byte	0x1
 4774 0ef3 20       		.byte	0x20
 4775 0ef4 BB0E0000 		.4byte	0xebb
 4776 0ef8 05       		.uleb128 0x5
 4777 0ef9 03       		.byte	0x3
 4778 0efa 00000000 		.4byte	Fitness_Normalizado
 4779 0efe 21       		.uleb128 0x21
 4780 0eff 59040000 		.4byte	.LASF90
 4781 0f03 01       		.byte	0x1
 4782 0f04 21       		.byte	0x21
 4783 0f05 64000000 		.4byte	0x64
 4784 0f09 05       		.uleb128 0x5
 4785 0f0a 03       		.byte	0x3
 4786 0f0b 00000000 		.4byte	Fila
ARM GAS  C:\Users\HENRYA~1\AppData\Local\Temp\cchXA1T4.s 			page 101


 4787 0f0f 21       		.uleb128 0x21
 4788 0f10 7B020000 		.4byte	.LASF91
 4789 0f14 01       		.byte	0x1
 4790 0f15 22       		.byte	0x22
 4791 0f16 64000000 		.4byte	0x64
 4792 0f1a 05       		.uleb128 0x5
 4793 0f1b 03       		.byte	0x3
 4794 0f1c 00000000 		.4byte	Columna
 4795 0f20 21       		.uleb128 0x21
 4796 0f21 D7020000 		.4byte	.LASF92
 4797 0f25 01       		.byte	0x1
 4798 0f26 23       		.byte	0x23
 4799 0f27 25000000 		.4byte	0x25
 4800 0f2b 05       		.uleb128 0x5
 4801 0f2c 03       		.byte	0x3
 4802 0f2d 00000000 		.4byte	Umbral_Cruce
 4803 0f31 21       		.uleb128 0x21
 4804 0f32 0F030000 		.4byte	.LASF93
 4805 0f36 01       		.byte	0x1
 4806 0f37 24       		.byte	0x24
 4807 0f38 25000000 		.4byte	0x25
 4808 0f3c 05       		.uleb128 0x5
 4809 0f3d 03       		.byte	0x3
 4810 0f3e 00000000 		.4byte	Umbral_Mutacion
 4811 0f42 21       		.uleb128 0x21
 4812 0f43 31040000 		.4byte	.LASF94
 4813 0f47 01       		.byte	0x1
 4814 0f48 25       		.byte	0x25
 4815 0f49 64000000 		.4byte	0x64
 4816 0f4d 05       		.uleb128 0x5
 4817 0f4e 03       		.byte	0x3
 4818 0f4f 00000000 		.4byte	conmutador
 4819 0f53 21       		.uleb128 0x21
 4820 0f54 94050000 		.4byte	.LASF95
 4821 0f58 01       		.byte	0x1
 4822 0f59 26       		.byte	0x26
 4823 0f5a 64000000 		.4byte	0x64
 4824 0f5e 05       		.uleb128 0x5
 4825 0f5f 03       		.byte	0x3
 4826 0f60 00000000 		.4byte	puntero
 4827 0f64 05       		.uleb128 0x5
 4828 0f65 64000000 		.4byte	0x64
 4829 0f69 740F0000 		.4byte	0xf74
 4830 0f6d 06       		.uleb128 0x6
 4831 0f6e 9F000000 		.4byte	0x9f
 4832 0f72 09       		.byte	0x9
 4833 0f73 00       		.byte	0
 4834 0f74 21       		.uleb128 0x21
 4835 0f75 55030000 		.4byte	.LASF96
 4836 0f79 01       		.byte	0x1
 4837 0f7a 27       		.byte	0x27
 4838 0f7b 640F0000 		.4byte	0xf64
 4839 0f7f 05       		.uleb128 0x5
 4840 0f80 03       		.byte	0x3
 4841 0f81 00000000 		.4byte	indice
 4842 0f85 22       		.uleb128 0x22
 4843 0f86 41637500 		.ascii	"Acu\000"
ARM GAS  C:\Users\HENRYA~1\AppData\Local\Temp\cchXA1T4.s 			page 102


 4844 0f8a 01       		.byte	0x1
 4845 0f8b 28       		.byte	0x28
 4846 0f8c 25000000 		.4byte	0x25
 4847 0f90 05       		.uleb128 0x5
 4848 0f91 03       		.byte	0x3
 4849 0f92 00000000 		.4byte	Acu
 4850 0f96 21       		.uleb128 0x21
 4851 0f97 43040000 		.4byte	.LASF97
 4852 0f9b 01       		.byte	0x1
 4853 0f9c 29       		.byte	0x29
 4854 0f9d 25000000 		.4byte	0x25
 4855 0fa1 05       		.uleb128 0x5
 4856 0fa2 03       		.byte	0x3
 4857 0fa3 00000000 		.4byte	bolita
 4858 0fa7 23       		.uleb128 0x23
 4859 0fa8 20040000 		.4byte	.LASF98
 4860 0fac 20040000 		.4byte	.LASF98
 4861 0fb0 03       		.byte	0x3
 4862 0fb1 71       		.byte	0x71
 4863 0fb2 23       		.uleb128 0x23
 4864 0fb3 BF020000 		.4byte	.LASF99
 4865 0fb7 BF020000 		.4byte	.LASF99
 4866 0fbb 04       		.byte	0x4
 4867 0fbc 88       		.byte	0x88
 4868 0fbd 24       		.uleb128 0x24
 4869 0fbe 13010000 		.4byte	.LASF100
 4870 0fc2 13010000 		.4byte	.LASF100
 4871 0fc6 05       		.byte	0x5
 4872 0fc7 1D01     		.2byte	0x11d
 4873 0fc9 23       		.uleb128 0x23
 4874 0fca 0F000000 		.4byte	.LASF101
 4875 0fce 0F000000 		.4byte	.LASF101
 4876 0fd2 06       		.byte	0x6
 4877 0fd3 D7       		.byte	0xd7
 4878 0fd4 24       		.uleb128 0x24
 4879 0fd5 20010000 		.4byte	.LASF102
 4880 0fd9 20010000 		.4byte	.LASF102
 4881 0fdd 05       		.byte	0x5
 4882 0fde 2001     		.2byte	0x120
 4883 0fe0 23       		.uleb128 0x23
 4884 0fe1 E4040000 		.4byte	.LASF103
 4885 0fe5 E4040000 		.4byte	.LASF103
 4886 0fe9 05       		.byte	0x5
 4887 0fea C9       		.byte	0xc9
 4888 0feb 24       		.uleb128 0x24
 4889 0fec A5050000 		.4byte	.LASF104
 4890 0ff0 A5050000 		.4byte	.LASF104
 4891 0ff4 05       		.byte	0x5
 4892 0ff5 0401     		.2byte	0x104
 4893 0ff7 23       		.uleb128 0x23
 4894 0ff8 DB030000 		.4byte	.LASF105
 4895 0ffc DB030000 		.4byte	.LASF105
 4896 1000 05       		.byte	0x5
 4897 1001 C8       		.byte	0xc8
 4898 1002 23       		.uleb128 0x23
 4899 1003 0B040000 		.4byte	.LASF106
 4900 1007 0B040000 		.4byte	.LASF106
ARM GAS  C:\Users\HENRYA~1\AppData\Local\Temp\cchXA1T4.s 			page 103


 4901 100b 07       		.byte	0x7
 4902 100c 33       		.byte	0x33
 4903 100d 23       		.uleb128 0x23
 4904 100e 83050000 		.4byte	.LASF107
 4905 1012 83050000 		.4byte	.LASF107
 4906 1016 05       		.byte	0x5
 4907 1017 C5       		.byte	0xc5
 4908 1018 23       		.uleb128 0x23
 4909 1019 23050000 		.4byte	.LASF108
 4910 101d 23050000 		.4byte	.LASF108
 4911 1021 08       		.byte	0x8
 4912 1022 5A       		.byte	0x5a
 4913 1023 23       		.uleb128 0x23
 4914 1024 41010000 		.4byte	.LASF109
 4915 1028 41010000 		.4byte	.LASF109
 4916 102c 09       		.byte	0x9
 4917 102d 17       		.byte	0x17
 4918 102e 23       		.uleb128 0x23
 4919 102f 4A040000 		.4byte	.LASF110
 4920 1033 4A040000 		.4byte	.LASF110
 4921 1037 03       		.byte	0x3
 4922 1038 54       		.byte	0x54
 4923 1039 23       		.uleb128 0x23
 4924 103a 22000000 		.4byte	.LASF111
 4925 103e 22000000 		.4byte	.LASF111
 4926 1042 0A       		.byte	0xa
 4927 1043 18       		.byte	0x18
 4928 1044 23       		.uleb128 0x23
 4929 1045 44000000 		.4byte	.LASF112
 4930 1049 44000000 		.4byte	.LASF112
 4931 104d 0B       		.byte	0xb
 4932 104e 18       		.byte	0x18
 4933 104f 23       		.uleb128 0x23
 4934 1050 CE000000 		.4byte	.LASF113
 4935 1054 CE000000 		.4byte	.LASF113
 4936 1058 09       		.byte	0x9
 4937 1059 18       		.byte	0x18
 4938 105a 00       		.byte	0
 4939              		.section	.debug_abbrev,"",%progbits
 4940              	.Ldebug_abbrev0:
 4941 0000 01       		.uleb128 0x1
 4942 0001 11       		.uleb128 0x11
 4943 0002 01       		.byte	0x1
 4944 0003 25       		.uleb128 0x25
 4945 0004 0E       		.uleb128 0xe
 4946 0005 13       		.uleb128 0x13
 4947 0006 0B       		.uleb128 0xb
 4948 0007 03       		.uleb128 0x3
 4949 0008 0E       		.uleb128 0xe
 4950 0009 1B       		.uleb128 0x1b
 4951 000a 0E       		.uleb128 0xe
 4952 000b 55       		.uleb128 0x55
 4953 000c 17       		.uleb128 0x17
 4954 000d 11       		.uleb128 0x11
 4955 000e 01       		.uleb128 0x1
 4956 000f 10       		.uleb128 0x10
 4957 0010 17       		.uleb128 0x17
ARM GAS  C:\Users\HENRYA~1\AppData\Local\Temp\cchXA1T4.s 			page 104


 4958 0011 00       		.byte	0
 4959 0012 00       		.byte	0
 4960 0013 02       		.uleb128 0x2
 4961 0014 24       		.uleb128 0x24
 4962 0015 00       		.byte	0
 4963 0016 0B       		.uleb128 0xb
 4964 0017 0B       		.uleb128 0xb
 4965 0018 3E       		.uleb128 0x3e
 4966 0019 0B       		.uleb128 0xb
 4967 001a 03       		.uleb128 0x3
 4968 001b 0E       		.uleb128 0xe
 4969 001c 00       		.byte	0
 4970 001d 00       		.byte	0
 4971 001e 03       		.uleb128 0x3
 4972 001f 24       		.uleb128 0x24
 4973 0020 00       		.byte	0
 4974 0021 0B       		.uleb128 0xb
 4975 0022 0B       		.uleb128 0xb
 4976 0023 3E       		.uleb128 0x3e
 4977 0024 0B       		.uleb128 0xb
 4978 0025 03       		.uleb128 0x3
 4979 0026 08       		.uleb128 0x8
 4980 0027 00       		.byte	0
 4981 0028 00       		.byte	0
 4982 0029 04       		.uleb128 0x4
 4983 002a 16       		.uleb128 0x16
 4984 002b 00       		.byte	0
 4985 002c 03       		.uleb128 0x3
 4986 002d 0E       		.uleb128 0xe
 4987 002e 3A       		.uleb128 0x3a
 4988 002f 0B       		.uleb128 0xb
 4989 0030 3B       		.uleb128 0x3b
 4990 0031 05       		.uleb128 0x5
 4991 0032 49       		.uleb128 0x49
 4992 0033 13       		.uleb128 0x13
 4993 0034 00       		.byte	0
 4994 0035 00       		.byte	0
 4995 0036 05       		.uleb128 0x5
 4996 0037 01       		.uleb128 0x1
 4997 0038 01       		.byte	0x1
 4998 0039 49       		.uleb128 0x49
 4999 003a 13       		.uleb128 0x13
 5000 003b 01       		.uleb128 0x1
 5001 003c 13       		.uleb128 0x13
 5002 003d 00       		.byte	0
 5003 003e 00       		.byte	0
 5004 003f 06       		.uleb128 0x6
 5005 0040 21       		.uleb128 0x21
 5006 0041 00       		.byte	0
 5007 0042 49       		.uleb128 0x49
 5008 0043 13       		.uleb128 0x13
 5009 0044 2F       		.uleb128 0x2f
 5010 0045 0B       		.uleb128 0xb
 5011 0046 00       		.byte	0
 5012 0047 00       		.byte	0
 5013 0048 07       		.uleb128 0x7
 5014 0049 2E       		.uleb128 0x2e
ARM GAS  C:\Users\HENRYA~1\AppData\Local\Temp\cchXA1T4.s 			page 105


 5015 004a 01       		.byte	0x1
 5016 004b 3F       		.uleb128 0x3f
 5017 004c 19       		.uleb128 0x19
 5018 004d 03       		.uleb128 0x3
 5019 004e 0E       		.uleb128 0xe
 5020 004f 3A       		.uleb128 0x3a
 5021 0050 0B       		.uleb128 0xb
 5022 0051 3B       		.uleb128 0x3b
 5023 0052 05       		.uleb128 0x5
 5024 0053 27       		.uleb128 0x27
 5025 0054 19       		.uleb128 0x19
 5026 0055 11       		.uleb128 0x11
 5027 0056 01       		.uleb128 0x1
 5028 0057 12       		.uleb128 0x12
 5029 0058 06       		.uleb128 0x6
 5030 0059 40       		.uleb128 0x40
 5031 005a 18       		.uleb128 0x18
 5032 005b 9742     		.uleb128 0x2117
 5033 005d 19       		.uleb128 0x19
 5034 005e 01       		.uleb128 0x1
 5035 005f 13       		.uleb128 0x13
 5036 0060 00       		.byte	0
 5037 0061 00       		.byte	0
 5038 0062 08       		.uleb128 0x8
 5039 0063 898201   		.uleb128 0x4109
 5040 0066 00       		.byte	0
 5041 0067 11       		.uleb128 0x11
 5042 0068 01       		.uleb128 0x1
 5043 0069 31       		.uleb128 0x31
 5044 006a 13       		.uleb128 0x13
 5045 006b 00       		.byte	0
 5046 006c 00       		.byte	0
 5047 006d 09       		.uleb128 0x9
 5048 006e 2E       		.uleb128 0x2e
 5049 006f 01       		.byte	0x1
 5050 0070 3F       		.uleb128 0x3f
 5051 0071 19       		.uleb128 0x19
 5052 0072 03       		.uleb128 0x3
 5053 0073 0E       		.uleb128 0xe
 5054 0074 3A       		.uleb128 0x3a
 5055 0075 0B       		.uleb128 0xb
 5056 0076 3B       		.uleb128 0x3b
 5057 0077 0B       		.uleb128 0xb
 5058 0078 49       		.uleb128 0x49
 5059 0079 13       		.uleb128 0x13
 5060 007a 11       		.uleb128 0x11
 5061 007b 01       		.uleb128 0x1
 5062 007c 12       		.uleb128 0x12
 5063 007d 06       		.uleb128 0x6
 5064 007e 40       		.uleb128 0x40
 5065 007f 18       		.uleb128 0x18
 5066 0080 9642     		.uleb128 0x2116
 5067 0082 19       		.uleb128 0x19
 5068 0083 01       		.uleb128 0x1
 5069 0084 13       		.uleb128 0x13
 5070 0085 00       		.byte	0
 5071 0086 00       		.byte	0
ARM GAS  C:\Users\HENRYA~1\AppData\Local\Temp\cchXA1T4.s 			page 106


 5072 0087 0A       		.uleb128 0xa
 5073 0088 2E       		.uleb128 0x2e
 5074 0089 01       		.byte	0x1
 5075 008a 3F       		.uleb128 0x3f
 5076 008b 19       		.uleb128 0x19
 5077 008c 03       		.uleb128 0x3
 5078 008d 0E       		.uleb128 0xe
 5079 008e 3A       		.uleb128 0x3a
 5080 008f 0B       		.uleb128 0xb
 5081 0090 3B       		.uleb128 0x3b
 5082 0091 0B       		.uleb128 0xb
 5083 0092 49       		.uleb128 0x49
 5084 0093 13       		.uleb128 0x13
 5085 0094 11       		.uleb128 0x11
 5086 0095 01       		.uleb128 0x1
 5087 0096 12       		.uleb128 0x12
 5088 0097 06       		.uleb128 0x6
 5089 0098 40       		.uleb128 0x40
 5090 0099 18       		.uleb128 0x18
 5091 009a 9742     		.uleb128 0x2117
 5092 009c 19       		.uleb128 0x19
 5093 009d 01       		.uleb128 0x1
 5094 009e 13       		.uleb128 0x13
 5095 009f 00       		.byte	0
 5096 00a0 00       		.byte	0
 5097 00a1 0B       		.uleb128 0xb
 5098 00a2 34       		.uleb128 0x34
 5099 00a3 00       		.byte	0
 5100 00a4 03       		.uleb128 0x3
 5101 00a5 08       		.uleb128 0x8
 5102 00a6 3A       		.uleb128 0x3a
 5103 00a7 0B       		.uleb128 0xb
 5104 00a8 3B       		.uleb128 0x3b
 5105 00a9 0B       		.uleb128 0xb
 5106 00aa 49       		.uleb128 0x49
 5107 00ab 13       		.uleb128 0x13
 5108 00ac 02       		.uleb128 0x2
 5109 00ad 17       		.uleb128 0x17
 5110 00ae 00       		.byte	0
 5111 00af 00       		.byte	0
 5112 00b0 0C       		.uleb128 0xc
 5113 00b1 2E       		.uleb128 0x2e
 5114 00b2 01       		.byte	0x1
 5115 00b3 3F       		.uleb128 0x3f
 5116 00b4 19       		.uleb128 0x19
 5117 00b5 03       		.uleb128 0x3
 5118 00b6 0E       		.uleb128 0xe
 5119 00b7 3A       		.uleb128 0x3a
 5120 00b8 0B       		.uleb128 0xb
 5121 00b9 3B       		.uleb128 0x3b
 5122 00ba 0B       		.uleb128 0xb
 5123 00bb 27       		.uleb128 0x27
 5124 00bc 19       		.uleb128 0x19
 5125 00bd 11       		.uleb128 0x11
 5126 00be 01       		.uleb128 0x1
 5127 00bf 12       		.uleb128 0x12
 5128 00c0 06       		.uleb128 0x6
ARM GAS  C:\Users\HENRYA~1\AppData\Local\Temp\cchXA1T4.s 			page 107


 5129 00c1 40       		.uleb128 0x40
 5130 00c2 18       		.uleb128 0x18
 5131 00c3 9742     		.uleb128 0x2117
 5132 00c5 19       		.uleb128 0x19
 5133 00c6 01       		.uleb128 0x1
 5134 00c7 13       		.uleb128 0x13
 5135 00c8 00       		.byte	0
 5136 00c9 00       		.byte	0
 5137 00ca 0D       		.uleb128 0xd
 5138 00cb 05       		.uleb128 0x5
 5139 00cc 00       		.byte	0
 5140 00cd 03       		.uleb128 0x3
 5141 00ce 0E       		.uleb128 0xe
 5142 00cf 3A       		.uleb128 0x3a
 5143 00d0 0B       		.uleb128 0xb
 5144 00d1 3B       		.uleb128 0x3b
 5145 00d2 0B       		.uleb128 0xb
 5146 00d3 49       		.uleb128 0x49
 5147 00d4 13       		.uleb128 0x13
 5148 00d5 02       		.uleb128 0x2
 5149 00d6 17       		.uleb128 0x17
 5150 00d7 00       		.byte	0
 5151 00d8 00       		.byte	0
 5152 00d9 0E       		.uleb128 0xe
 5153 00da 05       		.uleb128 0x5
 5154 00db 00       		.byte	0
 5155 00dc 03       		.uleb128 0x3
 5156 00dd 08       		.uleb128 0x8
 5157 00de 3A       		.uleb128 0x3a
 5158 00df 0B       		.uleb128 0xb
 5159 00e0 3B       		.uleb128 0x3b
 5160 00e1 0B       		.uleb128 0xb
 5161 00e2 49       		.uleb128 0x49
 5162 00e3 13       		.uleb128 0x13
 5163 00e4 02       		.uleb128 0x2
 5164 00e5 17       		.uleb128 0x17
 5165 00e6 00       		.byte	0
 5166 00e7 00       		.byte	0
 5167 00e8 0F       		.uleb128 0xf
 5168 00e9 34       		.uleb128 0x34
 5169 00ea 00       		.byte	0
 5170 00eb 03       		.uleb128 0x3
 5171 00ec 0E       		.uleb128 0xe
 5172 00ed 3A       		.uleb128 0x3a
 5173 00ee 0B       		.uleb128 0xb
 5174 00ef 3B       		.uleb128 0x3b
 5175 00f0 0B       		.uleb128 0xb
 5176 00f1 49       		.uleb128 0x49
 5177 00f2 13       		.uleb128 0x13
 5178 00f3 02       		.uleb128 0x2
 5179 00f4 17       		.uleb128 0x17
 5180 00f5 00       		.byte	0
 5181 00f6 00       		.byte	0
 5182 00f7 10       		.uleb128 0x10
 5183 00f8 898201   		.uleb128 0x4109
 5184 00fb 01       		.byte	0x1
 5185 00fc 11       		.uleb128 0x11
ARM GAS  C:\Users\HENRYA~1\AppData\Local\Temp\cchXA1T4.s 			page 108


 5186 00fd 01       		.uleb128 0x1
 5187 00fe 31       		.uleb128 0x31
 5188 00ff 13       		.uleb128 0x13
 5189 0100 00       		.byte	0
 5190 0101 00       		.byte	0
 5191 0102 11       		.uleb128 0x11
 5192 0103 8A8201   		.uleb128 0x410a
 5193 0106 00       		.byte	0
 5194 0107 02       		.uleb128 0x2
 5195 0108 18       		.uleb128 0x18
 5196 0109 9142     		.uleb128 0x2111
 5197 010b 18       		.uleb128 0x18
 5198 010c 00       		.byte	0
 5199 010d 00       		.byte	0
 5200 010e 12       		.uleb128 0x12
 5201 010f 2E       		.uleb128 0x2e
 5202 0110 01       		.byte	0x1
 5203 0111 3F       		.uleb128 0x3f
 5204 0112 19       		.uleb128 0x19
 5205 0113 03       		.uleb128 0x3
 5206 0114 0E       		.uleb128 0xe
 5207 0115 3A       		.uleb128 0x3a
 5208 0116 0B       		.uleb128 0xb
 5209 0117 3B       		.uleb128 0x3b
 5210 0118 0B       		.uleb128 0xb
 5211 0119 27       		.uleb128 0x27
 5212 011a 19       		.uleb128 0x19
 5213 011b 11       		.uleb128 0x11
 5214 011c 01       		.uleb128 0x1
 5215 011d 12       		.uleb128 0x12
 5216 011e 06       		.uleb128 0x6
 5217 011f 40       		.uleb128 0x40
 5218 0120 18       		.uleb128 0x18
 5219 0121 9642     		.uleb128 0x2116
 5220 0123 19       		.uleb128 0x19
 5221 0124 01       		.uleb128 0x1
 5222 0125 13       		.uleb128 0x13
 5223 0126 00       		.byte	0
 5224 0127 00       		.byte	0
 5225 0128 13       		.uleb128 0x13
 5226 0129 2E       		.uleb128 0x2e
 5227 012a 01       		.byte	0x1
 5228 012b 3F       		.uleb128 0x3f
 5229 012c 19       		.uleb128 0x19
 5230 012d 03       		.uleb128 0x3
 5231 012e 0E       		.uleb128 0xe
 5232 012f 3A       		.uleb128 0x3a
 5233 0130 0B       		.uleb128 0xb
 5234 0131 3B       		.uleb128 0x3b
 5235 0132 0B       		.uleb128 0xb
 5236 0133 11       		.uleb128 0x11
 5237 0134 01       		.uleb128 0x1
 5238 0135 12       		.uleb128 0x12
 5239 0136 06       		.uleb128 0x6
 5240 0137 40       		.uleb128 0x40
 5241 0138 18       		.uleb128 0x18
 5242 0139 9742     		.uleb128 0x2117
ARM GAS  C:\Users\HENRYA~1\AppData\Local\Temp\cchXA1T4.s 			page 109


 5243 013b 19       		.uleb128 0x19
 5244 013c 01       		.uleb128 0x1
 5245 013d 13       		.uleb128 0x13
 5246 013e 00       		.byte	0
 5247 013f 00       		.byte	0
 5248 0140 14       		.uleb128 0x14
 5249 0141 0B       		.uleb128 0xb
 5250 0142 01       		.byte	0x1
 5251 0143 11       		.uleb128 0x11
 5252 0144 01       		.uleb128 0x1
 5253 0145 12       		.uleb128 0x12
 5254 0146 06       		.uleb128 0x6
 5255 0147 00       		.byte	0
 5256 0148 00       		.byte	0
 5257 0149 15       		.uleb128 0x15
 5258 014a 898201   		.uleb128 0x4109
 5259 014d 01       		.byte	0x1
 5260 014e 11       		.uleb128 0x11
 5261 014f 01       		.uleb128 0x1
 5262 0150 31       		.uleb128 0x31
 5263 0151 13       		.uleb128 0x13
 5264 0152 01       		.uleb128 0x1
 5265 0153 13       		.uleb128 0x13
 5266 0154 00       		.byte	0
 5267 0155 00       		.byte	0
 5268 0156 16       		.uleb128 0x16
 5269 0157 2E       		.uleb128 0x2e
 5270 0158 00       		.byte	0
 5271 0159 3F       		.uleb128 0x3f
 5272 015a 19       		.uleb128 0x19
 5273 015b 03       		.uleb128 0x3
 5274 015c 0E       		.uleb128 0xe
 5275 015d 3A       		.uleb128 0x3a
 5276 015e 0B       		.uleb128 0xb
 5277 015f 3B       		.uleb128 0x3b
 5278 0160 0B       		.uleb128 0xb
 5279 0161 11       		.uleb128 0x11
 5280 0162 01       		.uleb128 0x1
 5281 0163 12       		.uleb128 0x12
 5282 0164 06       		.uleb128 0x6
 5283 0165 40       		.uleb128 0x40
 5284 0166 18       		.uleb128 0x18
 5285 0167 9742     		.uleb128 0x2117
 5286 0169 19       		.uleb128 0x19
 5287 016a 00       		.byte	0
 5288 016b 00       		.byte	0
 5289 016c 17       		.uleb128 0x17
 5290 016d 2E       		.uleb128 0x2e
 5291 016e 01       		.byte	0x1
 5292 016f 3F       		.uleb128 0x3f
 5293 0170 19       		.uleb128 0x19
 5294 0171 03       		.uleb128 0x3
 5295 0172 0E       		.uleb128 0xe
 5296 0173 3A       		.uleb128 0x3a
 5297 0174 0B       		.uleb128 0xb
 5298 0175 3B       		.uleb128 0x3b
 5299 0176 0B       		.uleb128 0xb
ARM GAS  C:\Users\HENRYA~1\AppData\Local\Temp\cchXA1T4.s 			page 110


 5300 0177 27       		.uleb128 0x27
 5301 0178 19       		.uleb128 0x19
 5302 0179 49       		.uleb128 0x49
 5303 017a 13       		.uleb128 0x13
 5304 017b 11       		.uleb128 0x11
 5305 017c 01       		.uleb128 0x1
 5306 017d 12       		.uleb128 0x12
 5307 017e 06       		.uleb128 0x6
 5308 017f 40       		.uleb128 0x40
 5309 0180 18       		.uleb128 0x18
 5310 0181 9642     		.uleb128 0x2116
 5311 0183 19       		.uleb128 0x19
 5312 0184 01       		.uleb128 0x1
 5313 0185 13       		.uleb128 0x13
 5314 0186 00       		.byte	0
 5315 0187 00       		.byte	0
 5316 0188 18       		.uleb128 0x18
 5317 0189 0F       		.uleb128 0xf
 5318 018a 00       		.byte	0
 5319 018b 0B       		.uleb128 0xb
 5320 018c 0B       		.uleb128 0xb
 5321 018d 49       		.uleb128 0x49
 5322 018e 13       		.uleb128 0x13
 5323 018f 00       		.byte	0
 5324 0190 00       		.byte	0
 5325 0191 19       		.uleb128 0x19
 5326 0192 2E       		.uleb128 0x2e
 5327 0193 01       		.byte	0x1
 5328 0194 3F       		.uleb128 0x3f
 5329 0195 19       		.uleb128 0x19
 5330 0196 03       		.uleb128 0x3
 5331 0197 0E       		.uleb128 0xe
 5332 0198 3A       		.uleb128 0x3a
 5333 0199 0B       		.uleb128 0xb
 5334 019a 3B       		.uleb128 0x3b
 5335 019b 0B       		.uleb128 0xb
 5336 019c 11       		.uleb128 0x11
 5337 019d 01       		.uleb128 0x1
 5338 019e 12       		.uleb128 0x12
 5339 019f 06       		.uleb128 0x6
 5340 01a0 40       		.uleb128 0x40
 5341 01a1 18       		.uleb128 0x18
 5342 01a2 9642     		.uleb128 0x2116
 5343 01a4 19       		.uleb128 0x19
 5344 01a5 01       		.uleb128 0x1
 5345 01a6 13       		.uleb128 0x13
 5346 01a7 00       		.byte	0
 5347 01a8 00       		.byte	0
 5348 01a9 1A       		.uleb128 0x1a
 5349 01aa 2E       		.uleb128 0x2e
 5350 01ab 01       		.byte	0x1
 5351 01ac 3F       		.uleb128 0x3f
 5352 01ad 19       		.uleb128 0x19
 5353 01ae 03       		.uleb128 0x3
 5354 01af 0E       		.uleb128 0xe
 5355 01b0 3A       		.uleb128 0x3a
 5356 01b1 0B       		.uleb128 0xb
ARM GAS  C:\Users\HENRYA~1\AppData\Local\Temp\cchXA1T4.s 			page 111


 5357 01b2 3B       		.uleb128 0x3b
 5358 01b3 05       		.uleb128 0x5
 5359 01b4 11       		.uleb128 0x11
 5360 01b5 01       		.uleb128 0x1
 5361 01b6 12       		.uleb128 0x12
 5362 01b7 06       		.uleb128 0x6
 5363 01b8 40       		.uleb128 0x40
 5364 01b9 18       		.uleb128 0x18
 5365 01ba 9642     		.uleb128 0x2116
 5366 01bc 19       		.uleb128 0x19
 5367 01bd 01       		.uleb128 0x1
 5368 01be 13       		.uleb128 0x13
 5369 01bf 00       		.byte	0
 5370 01c0 00       		.byte	0
 5371 01c1 1B       		.uleb128 0x1b
 5372 01c2 34       		.uleb128 0x34
 5373 01c3 00       		.byte	0
 5374 01c4 03       		.uleb128 0x3
 5375 01c5 0E       		.uleb128 0xe
 5376 01c6 3A       		.uleb128 0x3a
 5377 01c7 0B       		.uleb128 0xb
 5378 01c8 3B       		.uleb128 0x3b
 5379 01c9 05       		.uleb128 0x5
 5380 01ca 49       		.uleb128 0x49
 5381 01cb 13       		.uleb128 0x13
 5382 01cc 02       		.uleb128 0x2
 5383 01cd 17       		.uleb128 0x17
 5384 01ce 00       		.byte	0
 5385 01cf 00       		.byte	0
 5386 01d0 1C       		.uleb128 0x1c
 5387 01d1 34       		.uleb128 0x34
 5388 01d2 00       		.byte	0
 5389 01d3 03       		.uleb128 0x3
 5390 01d4 08       		.uleb128 0x8
 5391 01d5 3A       		.uleb128 0x3a
 5392 01d6 0B       		.uleb128 0xb
 5393 01d7 3B       		.uleb128 0x3b
 5394 01d8 05       		.uleb128 0x5
 5395 01d9 49       		.uleb128 0x49
 5396 01da 13       		.uleb128 0x13
 5397 01db 02       		.uleb128 0x2
 5398 01dc 17       		.uleb128 0x17
 5399 01dd 00       		.byte	0
 5400 01de 00       		.byte	0
 5401 01df 1D       		.uleb128 0x1d
 5402 01e0 2E       		.uleb128 0x2e
 5403 01e1 01       		.byte	0x1
 5404 01e2 3F       		.uleb128 0x3f
 5405 01e3 19       		.uleb128 0x19
 5406 01e4 03       		.uleb128 0x3
 5407 01e5 08       		.uleb128 0x8
 5408 01e6 3A       		.uleb128 0x3a
 5409 01e7 0B       		.uleb128 0xb
 5410 01e8 3B       		.uleb128 0x3b
 5411 01e9 05       		.uleb128 0x5
 5412 01ea 11       		.uleb128 0x11
 5413 01eb 01       		.uleb128 0x1
ARM GAS  C:\Users\HENRYA~1\AppData\Local\Temp\cchXA1T4.s 			page 112


 5414 01ec 12       		.uleb128 0x12
 5415 01ed 06       		.uleb128 0x6
 5416 01ee 40       		.uleb128 0x40
 5417 01ef 18       		.uleb128 0x18
 5418 01f0 9642     		.uleb128 0x2116
 5419 01f2 19       		.uleb128 0x19
 5420 01f3 01       		.uleb128 0x1
 5421 01f4 13       		.uleb128 0x13
 5422 01f5 00       		.byte	0
 5423 01f6 00       		.byte	0
 5424 01f7 1E       		.uleb128 0x1e
 5425 01f8 2E       		.uleb128 0x2e
 5426 01f9 01       		.byte	0x1
 5427 01fa 3F       		.uleb128 0x3f
 5428 01fb 19       		.uleb128 0x19
 5429 01fc 03       		.uleb128 0x3
 5430 01fd 0E       		.uleb128 0xe
 5431 01fe 3A       		.uleb128 0x3a
 5432 01ff 0B       		.uleb128 0xb
 5433 0200 3B       		.uleb128 0x3b
 5434 0201 05       		.uleb128 0x5
 5435 0202 11       		.uleb128 0x11
 5436 0203 01       		.uleb128 0x1
 5437 0204 12       		.uleb128 0x12
 5438 0205 06       		.uleb128 0x6
 5439 0206 40       		.uleb128 0x40
 5440 0207 18       		.uleb128 0x18
 5441 0208 9742     		.uleb128 0x2117
 5442 020a 19       		.uleb128 0x19
 5443 020b 01       		.uleb128 0x1
 5444 020c 13       		.uleb128 0x13
 5445 020d 00       		.byte	0
 5446 020e 00       		.byte	0
 5447 020f 1F       		.uleb128 0x1f
 5448 0210 2E       		.uleb128 0x2e
 5449 0211 00       		.byte	0
 5450 0212 3F       		.uleb128 0x3f
 5451 0213 19       		.uleb128 0x19
 5452 0214 03       		.uleb128 0x3
 5453 0215 0E       		.uleb128 0xe
 5454 0216 3A       		.uleb128 0x3a
 5455 0217 0B       		.uleb128 0xb
 5456 0218 3B       		.uleb128 0x3b
 5457 0219 05       		.uleb128 0x5
 5458 021a 11       		.uleb128 0x11
 5459 021b 01       		.uleb128 0x1
 5460 021c 12       		.uleb128 0x12
 5461 021d 06       		.uleb128 0x6
 5462 021e 40       		.uleb128 0x40
 5463 021f 18       		.uleb128 0x18
 5464 0220 9742     		.uleb128 0x2117
 5465 0222 19       		.uleb128 0x19
 5466 0223 00       		.byte	0
 5467 0224 00       		.byte	0
 5468 0225 20       		.uleb128 0x20
 5469 0226 2E       		.uleb128 0x2e
 5470 0227 01       		.byte	0x1
ARM GAS  C:\Users\HENRYA~1\AppData\Local\Temp\cchXA1T4.s 			page 113


 5471 0228 3F       		.uleb128 0x3f
 5472 0229 19       		.uleb128 0x19
 5473 022a 03       		.uleb128 0x3
 5474 022b 0E       		.uleb128 0xe
 5475 022c 3A       		.uleb128 0x3a
 5476 022d 0B       		.uleb128 0xb
 5477 022e 3B       		.uleb128 0x3b
 5478 022f 05       		.uleb128 0x5
 5479 0230 49       		.uleb128 0x49
 5480 0231 13       		.uleb128 0x13
 5481 0232 8701     		.uleb128 0x87
 5482 0234 19       		.uleb128 0x19
 5483 0235 11       		.uleb128 0x11
 5484 0236 01       		.uleb128 0x1
 5485 0237 12       		.uleb128 0x12
 5486 0238 06       		.uleb128 0x6
 5487 0239 40       		.uleb128 0x40
 5488 023a 18       		.uleb128 0x18
 5489 023b 9642     		.uleb128 0x2116
 5490 023d 19       		.uleb128 0x19
 5491 023e 01       		.uleb128 0x1
 5492 023f 13       		.uleb128 0x13
 5493 0240 00       		.byte	0
 5494 0241 00       		.byte	0
 5495 0242 21       		.uleb128 0x21
 5496 0243 34       		.uleb128 0x34
 5497 0244 00       		.byte	0
 5498 0245 03       		.uleb128 0x3
 5499 0246 0E       		.uleb128 0xe
 5500 0247 3A       		.uleb128 0x3a
 5501 0248 0B       		.uleb128 0xb
 5502 0249 3B       		.uleb128 0x3b
 5503 024a 0B       		.uleb128 0xb
 5504 024b 49       		.uleb128 0x49
 5505 024c 13       		.uleb128 0x13
 5506 024d 3F       		.uleb128 0x3f
 5507 024e 19       		.uleb128 0x19
 5508 024f 02       		.uleb128 0x2
 5509 0250 18       		.uleb128 0x18
 5510 0251 00       		.byte	0
 5511 0252 00       		.byte	0
 5512 0253 22       		.uleb128 0x22
 5513 0254 34       		.uleb128 0x34
 5514 0255 00       		.byte	0
 5515 0256 03       		.uleb128 0x3
 5516 0257 08       		.uleb128 0x8
 5517 0258 3A       		.uleb128 0x3a
 5518 0259 0B       		.uleb128 0xb
 5519 025a 3B       		.uleb128 0x3b
 5520 025b 0B       		.uleb128 0xb
 5521 025c 49       		.uleb128 0x49
 5522 025d 13       		.uleb128 0x13
 5523 025e 3F       		.uleb128 0x3f
 5524 025f 19       		.uleb128 0x19
 5525 0260 02       		.uleb128 0x2
 5526 0261 18       		.uleb128 0x18
 5527 0262 00       		.byte	0
ARM GAS  C:\Users\HENRYA~1\AppData\Local\Temp\cchXA1T4.s 			page 114


 5528 0263 00       		.byte	0
 5529 0264 23       		.uleb128 0x23
 5530 0265 2E       		.uleb128 0x2e
 5531 0266 00       		.byte	0
 5532 0267 3F       		.uleb128 0x3f
 5533 0268 19       		.uleb128 0x19
 5534 0269 3C       		.uleb128 0x3c
 5535 026a 19       		.uleb128 0x19
 5536 026b 6E       		.uleb128 0x6e
 5537 026c 0E       		.uleb128 0xe
 5538 026d 03       		.uleb128 0x3
 5539 026e 0E       		.uleb128 0xe
 5540 026f 3A       		.uleb128 0x3a
 5541 0270 0B       		.uleb128 0xb
 5542 0271 3B       		.uleb128 0x3b
 5543 0272 0B       		.uleb128 0xb
 5544 0273 00       		.byte	0
 5545 0274 00       		.byte	0
 5546 0275 24       		.uleb128 0x24
 5547 0276 2E       		.uleb128 0x2e
 5548 0277 00       		.byte	0
 5549 0278 3F       		.uleb128 0x3f
 5550 0279 19       		.uleb128 0x19
 5551 027a 3C       		.uleb128 0x3c
 5552 027b 19       		.uleb128 0x19
 5553 027c 6E       		.uleb128 0x6e
 5554 027d 0E       		.uleb128 0xe
 5555 027e 03       		.uleb128 0x3
 5556 027f 0E       		.uleb128 0xe
 5557 0280 3A       		.uleb128 0x3a
 5558 0281 0B       		.uleb128 0xb
 5559 0282 3B       		.uleb128 0x3b
 5560 0283 05       		.uleb128 0x5
 5561 0284 00       		.byte	0
 5562 0285 00       		.byte	0
 5563 0286 00       		.byte	0
 5564              		.section	.debug_loc,"",%progbits
 5565              	.Ldebug_loc0:
 5566              	.LLST0:
 5567 0000 02000000 		.4byte	.LVL7
 5568 0004 0A000000 		.4byte	.LVL9
 5569 0008 0600     		.2byte	0x6
 5570 000a 9E       		.byte	0x9e
 5571 000b 04       		.uleb128 0x4
 5572 000c 00000000 		.4byte	0
 5573 0010 0A000000 		.4byte	.LVL9
 5574 0014 0F000000 		.4byte	.LVL10-1
 5575 0018 0100     		.2byte	0x1
 5576 001a 50       		.byte	0x50
 5577 001b 10000000 		.4byte	.LVL10
 5578 001f 17000000 		.4byte	.LVL11-1
 5579 0023 0100     		.2byte	0x1
 5580 0025 50       		.byte	0x50
 5581 0026 18000000 		.4byte	.LVL11
 5582 002a 1B000000 		.4byte	.LVL12-1
 5583 002e 0100     		.2byte	0x1
 5584 0030 50       		.byte	0x50
ARM GAS  C:\Users\HENRYA~1\AppData\Local\Temp\cchXA1T4.s 			page 115


 5585 0031 00000000 		.4byte	0
 5586 0035 00000000 		.4byte	0
 5587              	.LLST1:
 5588 0039 02000000 		.4byte	.LVL13
 5589 003d 0A000000 		.4byte	.LVL15
 5590 0041 0600     		.2byte	0x6
 5591 0043 9E       		.byte	0x9e
 5592 0044 04       		.uleb128 0x4
 5593 0045 00000000 		.4byte	0
 5594 0049 0A000000 		.4byte	.LVL15
 5595 004d 0D000000 		.4byte	.LVL16-1
 5596 0051 0100     		.2byte	0x1
 5597 0053 50       		.byte	0x50
 5598 0054 1A000000 		.4byte	.LVL18
 5599 0058 1D000000 		.4byte	.LVL19-1
 5600 005c 0100     		.2byte	0x1
 5601 005e 50       		.byte	0x50
 5602 005f 2A000000 		.4byte	.LVL21
 5603 0063 2D000000 		.4byte	.LVL22-1
 5604 0067 0100     		.2byte	0x1
 5605 0069 50       		.byte	0x50
 5606 006a 00000000 		.4byte	0
 5607 006e 00000000 		.4byte	0
 5608              	.LLST2:
 5609 0072 00000000 		.4byte	.LVL23
 5610 0076 0E000000 		.4byte	.LVL25
 5611 007a 0100     		.2byte	0x1
 5612 007c 50       		.byte	0x50
 5613 007d 0E000000 		.4byte	.LVL25
 5614 0081 28000000 		.4byte	.LFE42
 5615 0085 0400     		.2byte	0x4
 5616 0087 F3       		.byte	0xf3
 5617 0088 01       		.uleb128 0x1
 5618 0089 50       		.byte	0x50
 5619 008a 9F       		.byte	0x9f
 5620 008b 00000000 		.4byte	0
 5621 008f 00000000 		.4byte	0
 5622              	.LLST3:
 5623 0093 00000000 		.4byte	.LVL23
 5624 0097 1B000000 		.4byte	.LVL26-1
 5625 009b 0100     		.2byte	0x1
 5626 009d 51       		.byte	0x51
 5627 009e 1B000000 		.4byte	.LVL26-1
 5628 00a2 28000000 		.4byte	.LFE42
 5629 00a6 0400     		.2byte	0x4
 5630 00a8 F3       		.byte	0xf3
 5631 00a9 01       		.uleb128 0x1
 5632 00aa 51       		.byte	0x51
 5633 00ab 9F       		.byte	0x9f
 5634 00ac 00000000 		.4byte	0
 5635 00b0 00000000 		.4byte	0
 5636              	.LLST4:
 5637 00b4 04000000 		.4byte	.LVL24
 5638 00b8 1B000000 		.4byte	.LVL26-1
 5639 00bc 0100     		.2byte	0x1
 5640 00be 52       		.byte	0x52
 5641 00bf 1B000000 		.4byte	.LVL26-1
ARM GAS  C:\Users\HENRYA~1\AppData\Local\Temp\cchXA1T4.s 			page 116


 5642 00c3 28000000 		.4byte	.LFE42
 5643 00c7 0600     		.2byte	0x6
 5644 00c9 F3       		.byte	0xf3
 5645 00ca 01       		.uleb128 0x1
 5646 00cb 51       		.byte	0x51
 5647 00cc 38       		.byte	0x38
 5648 00cd 26       		.byte	0x26
 5649 00ce 9F       		.byte	0x9f
 5650 00cf 00000000 		.4byte	0
 5651 00d3 00000000 		.4byte	0
 5652              	.LLST5:
 5653 00d7 04000000 		.4byte	.LVL24
 5654 00db 1B000000 		.4byte	.LVL26-1
 5655 00df 0100     		.2byte	0x1
 5656 00e1 51       		.byte	0x51
 5657 00e2 1B000000 		.4byte	.LVL26-1
 5658 00e6 28000000 		.4byte	.LFE42
 5659 00ea 0400     		.2byte	0x4
 5660 00ec F3       		.byte	0xf3
 5661 00ed 01       		.uleb128 0x1
 5662 00ee 51       		.byte	0x51
 5663 00ef 9F       		.byte	0x9f
 5664 00f0 00000000 		.4byte	0
 5665 00f4 00000000 		.4byte	0
 5666              	.LLST6:
 5667 00f8 00000000 		.4byte	.LVL28
 5668 00fc 0A000000 		.4byte	.LVL29
 5669 0100 0100     		.2byte	0x1
 5670 0102 50       		.byte	0x50
 5671 0103 0A000000 		.4byte	.LVL29
 5672 0107 2C000000 		.4byte	.LFE43
 5673 010b 0400     		.2byte	0x4
 5674 010d F3       		.byte	0xf3
 5675 010e 01       		.uleb128 0x1
 5676 010f 50       		.byte	0x50
 5677 0110 9F       		.byte	0x9f
 5678 0111 00000000 		.4byte	0
 5679 0115 00000000 		.4byte	0
 5680              	.LLST7:
 5681 0119 00000000 		.4byte	.LVL32
 5682 011d 11000000 		.4byte	.LVL34-1
 5683 0121 0100     		.2byte	0x1
 5684 0123 50       		.byte	0x50
 5685 0124 11000000 		.4byte	.LVL34-1
 5686 0128 B4000000 		.4byte	.LFE44
 5687 012c 0200     		.2byte	0x2
 5688 012e 91       		.byte	0x91
 5689 012f 5C       		.sleb128 -36
 5690 0130 00000000 		.4byte	0
 5691 0134 00000000 		.4byte	0
 5692              	.LLST8:
 5693 0138 00000000 		.4byte	.LVL32
 5694 013c 0E000000 		.4byte	.LVL33
 5695 0140 0100     		.2byte	0x1
 5696 0142 51       		.byte	0x51
 5697 0143 0E000000 		.4byte	.LVL33
 5698 0147 B4000000 		.4byte	.LFE44
ARM GAS  C:\Users\HENRYA~1\AppData\Local\Temp\cchXA1T4.s 			page 117


 5699 014b 0200     		.2byte	0x2
 5700 014d 91       		.byte	0x91
 5701 014e 60       		.sleb128 -32
 5702 014f 00000000 		.4byte	0
 5703 0153 00000000 		.4byte	0
 5704              	.LLST9:
 5705 0157 00000000 		.4byte	.LVL32
 5706 015b 11000000 		.4byte	.LVL34-1
 5707 015f 0100     		.2byte	0x1
 5708 0161 52       		.byte	0x52
 5709 0162 11000000 		.4byte	.LVL34-1
 5710 0166 B4000000 		.4byte	.LFE44
 5711 016a 0200     		.2byte	0x2
 5712 016c 91       		.byte	0x91
 5713 016d 64       		.sleb128 -28
 5714 016e 00000000 		.4byte	0
 5715 0172 00000000 		.4byte	0
 5716              	.LLST10:
 5717 0176 00000000 		.4byte	.LVL32
 5718 017a 11000000 		.4byte	.LVL34-1
 5719 017e 0100     		.2byte	0x1
 5720 0180 53       		.byte	0x53
 5721 0181 11000000 		.4byte	.LVL34-1
 5722 0185 4A000000 		.4byte	.LVL45
 5723 0189 0100     		.2byte	0x1
 5724 018b 57       		.byte	0x57
 5725 018c 4A000000 		.4byte	.LVL45
 5726 0190 B4000000 		.4byte	.LFE44
 5727 0194 0400     		.2byte	0x4
 5728 0196 F3       		.byte	0xf3
 5729 0197 01       		.uleb128 0x1
 5730 0198 53       		.byte	0x53
 5731 0199 9F       		.byte	0x9f
 5732 019a 00000000 		.4byte	0
 5733 019e 00000000 		.4byte	0
 5734              	.LLST11:
 5735 01a2 1C000000 		.4byte	.LVL36
 5736 01a6 20000000 		.4byte	.LVL37
 5737 01aa 0100     		.2byte	0x1
 5738 01ac 50       		.byte	0x50
 5739 01ad 20000000 		.4byte	.LVL37
 5740 01b1 4C000000 		.4byte	.LVL46
 5741 01b5 0100     		.2byte	0x1
 5742 01b7 56       		.byte	0x56
 5743 01b8 00000000 		.4byte	0
 5744 01bc 00000000 		.4byte	0
 5745              	.LLST12:
 5746 01c0 2E000000 		.4byte	.LVL40
 5747 01c4 32000000 		.4byte	.LVL41
 5748 01c8 0100     		.2byte	0x1
 5749 01ca 50       		.byte	0x50
 5750 01cb 32000000 		.4byte	.LVL41
 5751 01cf 68000000 		.4byte	.LVL54
 5752 01d3 0100     		.2byte	0x1
 5753 01d5 55       		.byte	0x55
 5754 01d6 00000000 		.4byte	0
 5755 01da 00000000 		.4byte	0
ARM GAS  C:\Users\HENRYA~1\AppData\Local\Temp\cchXA1T4.s 			page 118


 5756              	.LLST13:
 5757 01de 40000000 		.4byte	.LVL44
 5758 01e2 52000000 		.4byte	.LVL48
 5759 01e6 0100     		.2byte	0x1
 5760 01e8 50       		.byte	0x50
 5761 01e9 52000000 		.4byte	.LVL48
 5762 01ed 84000000 		.4byte	.LVL61
 5763 01f1 0100     		.2byte	0x1
 5764 01f3 54       		.byte	0x54
 5765 01f4 00000000 		.4byte	0
 5766 01f8 00000000 		.4byte	0
 5767              	.LLST14:
 5768 01fc 4A000000 		.4byte	.LVL45
 5769 0200 66000000 		.4byte	.LVL53
 5770 0204 0100     		.2byte	0x1
 5771 0206 57       		.byte	0x57
 5772 0207 66000000 		.4byte	.LVL53
 5773 020b 82000000 		.4byte	.LVL60
 5774 020f 0100     		.2byte	0x1
 5775 0211 56       		.byte	0x56
 5776 0212 82000000 		.4byte	.LVL60
 5777 0216 A8000000 		.4byte	.LVL70
 5778 021a 0100     		.2byte	0x1
 5779 021c 55       		.byte	0x55
 5780 021d 00000000 		.4byte	0
 5781 0221 00000000 		.4byte	0
 5782              	.LLST15:
 5783 0225 4E000000 		.4byte	.LVL47
 5784 0229 5C000000 		.4byte	.LVL51
 5785 022d 0100     		.2byte	0x1
 5786 022f 56       		.byte	0x56
 5787 0230 5C000000 		.4byte	.LVL51
 5788 0234 5E000000 		.4byte	.LVL52
 5789 0238 0400     		.2byte	0x4
 5790 023a 76       		.byte	0x76
 5791 023b 8001     		.sleb128 128
 5792 023d 9F       		.byte	0x9f
 5793 023e 5E000000 		.4byte	.LVL52
 5794 0242 66000000 		.4byte	.LVL53
 5795 0246 0100     		.2byte	0x1
 5796 0248 56       		.byte	0x56
 5797 0249 66000000 		.4byte	.LVL53
 5798 024d 6A000000 		.4byte	.LVL55
 5799 0251 0500     		.2byte	0x5
 5800 0253 03       		.byte	0x3
 5801 0254 03000000 		.4byte	dato_enviado_1+3
 5802 0258 6A000000 		.4byte	.LVL55
 5803 025c 78000000 		.4byte	.LVL58
 5804 0260 0100     		.2byte	0x1
 5805 0262 55       		.byte	0x55
 5806 0263 78000000 		.4byte	.LVL58
 5807 0267 7A000000 		.4byte	.LVL59
 5808 026b 0400     		.2byte	0x4
 5809 026d 75       		.byte	0x75
 5810 026e 8001     		.sleb128 128
 5811 0270 9F       		.byte	0x9f
 5812 0271 7A000000 		.4byte	.LVL59
ARM GAS  C:\Users\HENRYA~1\AppData\Local\Temp\cchXA1T4.s 			page 119


 5813 0275 82000000 		.4byte	.LVL60
 5814 0279 0100     		.2byte	0x1
 5815 027b 55       		.byte	0x55
 5816 027c 82000000 		.4byte	.LVL60
 5817 0280 86000000 		.4byte	.LVL62
 5818 0284 0500     		.2byte	0x5
 5819 0286 03       		.byte	0x3
 5820 0287 05000000 		.4byte	dato_enviado_1+5
 5821 028b 86000000 		.4byte	.LVL62
 5822 028f 94000000 		.4byte	.LVL65
 5823 0293 0100     		.2byte	0x1
 5824 0295 54       		.byte	0x54
 5825 0296 94000000 		.4byte	.LVL65
 5826 029a 96000000 		.4byte	.LVL66
 5827 029e 0400     		.2byte	0x4
 5828 02a0 74       		.byte	0x74
 5829 02a1 8001     		.sleb128 128
 5830 02a3 9F       		.byte	0x9f
 5831 02a4 96000000 		.4byte	.LVL66
 5832 02a8 A8000000 		.4byte	.LVL69
 5833 02ac 0100     		.2byte	0x1
 5834 02ae 54       		.byte	0x54
 5835 02af 00000000 		.4byte	0
 5836 02b3 00000000 		.4byte	0
 5837              	.LLST16:
 5838 02b7 4E000000 		.4byte	.LVL47
 5839 02bb 5A000000 		.4byte	.LVL50
 5840 02bf 0200     		.2byte	0x2
 5841 02c1 30       		.byte	0x30
 5842 02c2 9F       		.byte	0x9f
 5843 02c3 5A000000 		.4byte	.LVL50
 5844 02c7 5E000000 		.4byte	.LVL52
 5845 02cb 0300     		.2byte	0x3
 5846 02cd 09       		.byte	0x9
 5847 02ce 80       		.byte	0x80
 5848 02cf 9F       		.byte	0x9f
 5849 02d0 76000000 		.4byte	.LVL57
 5850 02d4 7A000000 		.4byte	.LVL59
 5851 02d8 0300     		.2byte	0x3
 5852 02da 09       		.byte	0x9
 5853 02db 80       		.byte	0x80
 5854 02dc 9F       		.byte	0x9f
 5855 02dd 92000000 		.4byte	.LVL64
 5856 02e1 96000000 		.4byte	.LVL66
 5857 02e5 0300     		.2byte	0x3
 5858 02e7 09       		.byte	0x9
 5859 02e8 80       		.byte	0x80
 5860 02e9 9F       		.byte	0x9f
 5861 02ea 00000000 		.4byte	0
 5862 02ee 00000000 		.4byte	0
 5863              	.LLST17:
 5864 02f2 32000000 		.4byte	.LVL71
 5865 02f6 3E000000 		.4byte	.LVL72
 5866 02fa 0100     		.2byte	0x1
 5867 02fc 52       		.byte	0x52
 5868 02fd 3E000000 		.4byte	.LVL72
 5869 0301 49000000 		.4byte	.LVL73-1
ARM GAS  C:\Users\HENRYA~1\AppData\Local\Temp\cchXA1T4.s 			page 120


 5870 0305 0B00     		.2byte	0xb
 5871 0307 03       		.byte	0x3
 5872 0308 07000000 		.4byte	mailbox0+7
 5873 030c 94       		.byte	0x94
 5874 030d 01       		.byte	0x1
 5875 030e 08       		.byte	0x8
 5876 030f FF       		.byte	0xff
 5877 0310 1A       		.byte	0x1a
 5878 0311 9F       		.byte	0x9f
 5879 0312 00000000 		.4byte	0
 5880 0316 00000000 		.4byte	0
 5881              	.LLST18:
 5882 031a 00000000 		.4byte	.LVL81
 5883 031e 10000000 		.4byte	.LVL83
 5884 0322 0100     		.2byte	0x1
 5885 0324 50       		.byte	0x50
 5886 0325 10000000 		.4byte	.LVL83
 5887 0329 2C000000 		.4byte	.LVL89
 5888 032d 0100     		.2byte	0x1
 5889 032f 57       		.byte	0x57
 5890 0330 2C000000 		.4byte	.LVL89
 5891 0334 2E000000 		.4byte	.LFE48
 5892 0338 0400     		.2byte	0x4
 5893 033a F3       		.byte	0xf3
 5894 033b 01       		.uleb128 0x1
 5895 033c 50       		.byte	0x50
 5896 033d 9F       		.byte	0x9f
 5897 033e 00000000 		.4byte	0
 5898 0342 00000000 		.4byte	0
 5899              	.LLST19:
 5900 0346 00000000 		.4byte	.LVL81
 5901 034a 10000000 		.4byte	.LVL83
 5902 034e 0100     		.2byte	0x1
 5903 0350 51       		.byte	0x51
 5904 0351 10000000 		.4byte	.LVL83
 5905 0355 2C000000 		.4byte	.LVL88
 5906 0359 0100     		.2byte	0x1
 5907 035b 56       		.byte	0x56
 5908 035c 2C000000 		.4byte	.LVL88
 5909 0360 2E000000 		.4byte	.LFE48
 5910 0364 0400     		.2byte	0x4
 5911 0366 F3       		.byte	0xf3
 5912 0367 01       		.uleb128 0x1
 5913 0368 51       		.byte	0x51
 5914 0369 9F       		.byte	0x9f
 5915 036a 00000000 		.4byte	0
 5916 036e 00000000 		.4byte	0
 5917              	.LLST20:
 5918 0372 0C000000 		.4byte	.LVL82
 5919 0376 10000000 		.4byte	.LVL83
 5920 037a 0200     		.2byte	0x2
 5921 037c 31       		.byte	0x31
 5922 037d 9F       		.byte	0x9f
 5923 037e 10000000 		.4byte	.LVL83
 5924 0382 2C000000 		.4byte	.LVL87
 5925 0386 0100     		.2byte	0x1
 5926 0388 54       		.byte	0x54
ARM GAS  C:\Users\HENRYA~1\AppData\Local\Temp\cchXA1T4.s 			page 121


 5927 0389 00000000 		.4byte	0
 5928 038d 00000000 		.4byte	0
 5929              	.LLST21:
 5930 0391 0C000000 		.4byte	.LVL82
 5931 0395 10000000 		.4byte	.LVL83
 5932 0399 0100     		.2byte	0x1
 5933 039b 53       		.byte	0x53
 5934 039c 10000000 		.4byte	.LVL83
 5935 03a0 2E000000 		.4byte	.LFE48
 5936 03a4 0200     		.2byte	0x2
 5937 03a6 91       		.byte	0x91
 5938 03a7 64       		.sleb128 -28
 5939 03a8 00000000 		.4byte	0
 5940 03ac 00000000 		.4byte	0
 5941              	.LLST22:
 5942 03b0 00000000 		.4byte	.LVL90
 5943 03b4 06000000 		.4byte	.LVL91
 5944 03b8 0100     		.2byte	0x1
 5945 03ba 50       		.byte	0x50
 5946 03bb 06000000 		.4byte	.LVL91
 5947 03bf 09000000 		.4byte	.LVL92-1
 5948 03c3 0100     		.2byte	0x1
 5949 03c5 51       		.byte	0x51
 5950 03c6 09000000 		.4byte	.LVL92-1
 5951 03ca 38000000 		.4byte	.LFE49
 5952 03ce 0400     		.2byte	0x4
 5953 03d0 F3       		.byte	0xf3
 5954 03d1 01       		.uleb128 0x1
 5955 03d2 50       		.byte	0x50
 5956 03d3 9F       		.byte	0x9f
 5957 03d4 00000000 		.4byte	0
 5958 03d8 00000000 		.4byte	0
 5959              	.LLST23:
 5960 03dc 0C000000 		.4byte	.LVL93
 5961 03e0 10000000 		.4byte	.LVL94
 5962 03e4 0100     		.2byte	0x1
 5963 03e6 50       		.byte	0x50
 5964 03e7 10000000 		.4byte	.LVL94
 5965 03eb 2A000000 		.4byte	.LVL98
 5966 03ef 0100     		.2byte	0x1
 5967 03f1 56       		.byte	0x56
 5968 03f2 00000000 		.4byte	0
 5969 03f6 00000000 		.4byte	0
 5970              	.LLST24:
 5971 03fa 0C000000 		.4byte	.LVL93
 5972 03fe 10000000 		.4byte	.LVL94
 5973 0402 0200     		.2byte	0x2
 5974 0404 30       		.byte	0x30
 5975 0405 9F       		.byte	0x9f
 5976 0406 10000000 		.4byte	.LVL94
 5977 040a 2A000000 		.4byte	.LVL97
 5978 040e 0100     		.2byte	0x1
 5979 0410 54       		.byte	0x54
 5980 0411 00000000 		.4byte	0
 5981 0415 00000000 		.4byte	0
 5982              	.LLST25:
 5983 0419 00000000 		.4byte	.LVL99
ARM GAS  C:\Users\HENRYA~1\AppData\Local\Temp\cchXA1T4.s 			page 122


 5984 041d 06000000 		.4byte	.LVL100
 5985 0421 0100     		.2byte	0x1
 5986 0423 50       		.byte	0x50
 5987 0424 06000000 		.4byte	.LVL100
 5988 0428 09000000 		.4byte	.LVL101-1
 5989 042c 0100     		.2byte	0x1
 5990 042e 51       		.byte	0x51
 5991 042f 09000000 		.4byte	.LVL101-1
 5992 0433 34000000 		.4byte	.LFE50
 5993 0437 0400     		.2byte	0x4
 5994 0439 F3       		.byte	0xf3
 5995 043a 01       		.uleb128 0x1
 5996 043b 50       		.byte	0x50
 5997 043c 9F       		.byte	0x9f
 5998 043d 00000000 		.4byte	0
 5999 0441 00000000 		.4byte	0
 6000              	.LLST26:
 6001 0445 0C000000 		.4byte	.LVL102
 6002 0449 10000000 		.4byte	.LVL103
 6003 044d 0100     		.2byte	0x1
 6004 044f 50       		.byte	0x50
 6005 0450 10000000 		.4byte	.LVL103
 6006 0454 28000000 		.4byte	.LVL107
 6007 0458 0100     		.2byte	0x1
 6008 045a 57       		.byte	0x57
 6009 045b 00000000 		.4byte	0
 6010 045f 00000000 		.4byte	0
 6011              	.LLST27:
 6012 0463 0C000000 		.4byte	.LVL102
 6013 0467 10000000 		.4byte	.LVL103
 6014 046b 0200     		.2byte	0x2
 6015 046d 30       		.byte	0x30
 6016 046e 9F       		.byte	0x9f
 6017 046f 10000000 		.4byte	.LVL103
 6018 0473 28000000 		.4byte	.LVL106
 6019 0477 0100     		.2byte	0x1
 6020 0479 54       		.byte	0x54
 6021 047a 00000000 		.4byte	0
 6022 047e 00000000 		.4byte	0
 6023              	.LLST28:
 6024 0482 00000000 		.4byte	.LVL108
 6025 0486 26000000 		.4byte	.LVL109
 6026 048a 0100     		.2byte	0x1
 6027 048c 50       		.byte	0x50
 6028 048d 26000000 		.4byte	.LVL109
 6029 0491 50000000 		.4byte	.LFE51
 6030 0495 0400     		.2byte	0x4
 6031 0497 F3       		.byte	0xf3
 6032 0498 01       		.uleb128 0x1
 6033 0499 50       		.byte	0x50
 6034 049a 9F       		.byte	0x9f
 6035 049b 00000000 		.4byte	0
 6036 049f 00000000 		.4byte	0
 6037              	.LLST29:
 6038 04a3 0E000000 		.4byte	.LVL116
 6039 04a7 1A000000 		.4byte	.LVL117
 6040 04ab 0200     		.2byte	0x2
ARM GAS  C:\Users\HENRYA~1\AppData\Local\Temp\cchXA1T4.s 			page 123


 6041 04ad 30       		.byte	0x30
 6042 04ae 9F       		.byte	0x9f
 6043 04af 1A000000 		.4byte	.LVL117
 6044 04b3 36000000 		.4byte	.LVL120
 6045 04b7 0100     		.2byte	0x1
 6046 04b9 54       		.byte	0x54
 6047 04ba 38000000 		.4byte	.LVL121
 6048 04be 54000000 		.4byte	.LVL124
 6049 04c2 0100     		.2byte	0x1
 6050 04c4 54       		.byte	0x54
 6051 04c5 54000000 		.4byte	.LVL124
 6052 04c9 58000000 		.4byte	.LVL125
 6053 04cd 0200     		.2byte	0x2
 6054 04cf 30       		.byte	0x30
 6055 04d0 9F       		.byte	0x9f
 6056 04d1 58000000 		.4byte	.LVL125
 6057 04d5 A4000000 		.4byte	.LVL134
 6058 04d9 0100     		.2byte	0x1
 6059 04db 57       		.byte	0x57
 6060 04dc A4000000 		.4byte	.LVL134
 6061 04e0 18010000 		.4byte	.LFE53
 6062 04e4 0100     		.2byte	0x1
 6063 04e6 52       		.byte	0x52
 6064 04e7 00000000 		.4byte	0
 6065 04eb 00000000 		.4byte	0
 6066              	.LLST30:
 6067 04ef 0E000000 		.4byte	.LVL116
 6068 04f3 58000000 		.4byte	.LVL125
 6069 04f7 0200     		.2byte	0x2
 6070 04f9 30       		.byte	0x30
 6071 04fa 9F       		.byte	0x9f
 6072 04fb 6A000000 		.4byte	.LVL128
 6073 04ff 6E000000 		.4byte	.LVL129
 6074 0503 0200     		.2byte	0x2
 6075 0505 30       		.byte	0x30
 6076 0506 9F       		.byte	0x9f
 6077 0507 6E000000 		.4byte	.LVL129
 6078 050b 98000000 		.4byte	.LVL133
 6079 050f 0100     		.2byte	0x1
 6080 0511 54       		.byte	0x54
 6081 0512 00000000 		.4byte	0
 6082 0516 00000000 		.4byte	0
 6083              	.LLST31:
 6084 051a 24000000 		.4byte	.LVL140
 6085 051e 26000000 		.4byte	.LVL141
 6086 0522 0100     		.2byte	0x1
 6087 0524 50       		.byte	0x50
 6088 0525 26000000 		.4byte	.LVL141
 6089 0529 80000000 		.4byte	.LVL152
 6090 052d 0100     		.2byte	0x1
 6091 052f 55       		.byte	0x55
 6092 0530 80000000 		.4byte	.LVL152
 6093 0534 82000000 		.4byte	.LVL153
 6094 0538 0300     		.2byte	0x3
 6095 053a 75       		.byte	0x75
 6096 053b 6C       		.sleb128 -20
 6097 053c 9F       		.byte	0x9f
ARM GAS  C:\Users\HENRYA~1\AppData\Local\Temp\cchXA1T4.s 			page 124


 6098 053d 00000000 		.4byte	0
 6099 0541 00000000 		.4byte	0
 6100              	.LLST32:
 6101 0545 44000000 		.4byte	.LVL146
 6102 0549 4E000000 		.4byte	.LVL147
 6103 054d 0100     		.2byte	0x1
 6104 054f 50       		.byte	0x50
 6105 0550 4E000000 		.4byte	.LVL147
 6106 0554 84000000 		.4byte	.LVL154
 6107 0558 0100     		.2byte	0x1
 6108 055a 56       		.byte	0x56
 6109 055b 84000000 		.4byte	.LVL154
 6110 055f 86000000 		.4byte	.LVL155
 6111 0563 0300     		.2byte	0x3
 6112 0565 76       		.byte	0x76
 6113 0566 6C       		.sleb128 -20
 6114 0567 9F       		.byte	0x9f
 6115 0568 00000000 		.4byte	0
 6116 056c 00000000 		.4byte	0
 6117              	.LLST33:
 6118 0570 2A000000 		.4byte	.LVL162
 6119 0574 2D000000 		.4byte	.LVL163-1
 6120 0578 0100     		.2byte	0x1
 6121 057a 50       		.byte	0x50
 6122 057b 2D000000 		.4byte	.LVL163-1
 6123 057f 62000000 		.4byte	.LVL170
 6124 0583 0100     		.2byte	0x1
 6125 0585 55       		.byte	0x55
 6126 0586 6C000000 		.4byte	.LVL172
 6127 058a 9C000000 		.4byte	.LVL177
 6128 058e 0100     		.2byte	0x1
 6129 0590 55       		.byte	0x55
 6130 0591 A6000000 		.4byte	.LVL179
 6131 0595 D6000000 		.4byte	.LVL184
 6132 0599 0100     		.2byte	0x1
 6133 059b 55       		.byte	0x55
 6134 059c 00000000 		.4byte	0
 6135 05a0 00000000 		.4byte	0
 6136              	.LLST34:
 6137 05a4 34000000 		.4byte	.LVL165
 6138 05a8 5E000000 		.4byte	.LVL169
 6139 05ac 0100     		.2byte	0x1
 6140 05ae 54       		.byte	0x54
 6141 05af 6C000000 		.4byte	.LVL172
 6142 05b3 98000000 		.4byte	.LVL176
 6143 05b7 0100     		.2byte	0x1
 6144 05b9 54       		.byte	0x54
 6145 05ba A6000000 		.4byte	.LVL179
 6146 05be D2000000 		.4byte	.LVL183
 6147 05c2 0100     		.2byte	0x1
 6148 05c4 54       		.byte	0x54
 6149 05c5 00000000 		.4byte	0
 6150 05c9 00000000 		.4byte	0
 6151              	.LLST35:
 6152 05cd 02000000 		.4byte	.LVL186
 6153 05d1 06000000 		.4byte	.LVL187
 6154 05d5 0200     		.2byte	0x2
ARM GAS  C:\Users\HENRYA~1\AppData\Local\Temp\cchXA1T4.s 			page 125


 6155 05d7 30       		.byte	0x30
 6156 05d8 9F       		.byte	0x9f
 6157 05d9 06000000 		.4byte	.LVL187
 6158 05dd 40000000 		.4byte	.LVL190
 6159 05e1 0100     		.2byte	0x1
 6160 05e3 54       		.byte	0x54
 6161 05e4 00000000 		.4byte	0
 6162 05e8 00000000 		.4byte	0
 6163              	.LLST36:
 6164 05ec 02000000 		.4byte	.LVL191
 6165 05f0 52000000 		.4byte	.LVL197
 6166 05f4 0600     		.2byte	0x6
 6167 05f6 9E       		.byte	0x9e
 6168 05f7 04       		.uleb128 0x4
 6169 05f8 0000003F 		.4byte	0x3f000000
 6170 05fc 52000000 		.4byte	.LVL197
 6171 0600 59000000 		.4byte	.LVL198-1
 6172 0604 0100     		.2byte	0x1
 6173 0606 50       		.byte	0x50
 6174 0607 82000000 		.4byte	.LVL204
 6175 060b DE000000 		.4byte	.LVL208
 6176 060f 0600     		.2byte	0x6
 6177 0611 9E       		.byte	0x9e
 6178 0612 04       		.uleb128 0x4
 6179 0613 0000003F 		.4byte	0x3f000000
 6180 0617 00000000 		.4byte	0
 6181 061b 00000000 		.4byte	0
 6182              	.LLST37:
 6183 061f 02000000 		.4byte	.LVL191
 6184 0623 6A000000 		.4byte	.LVL201
 6185 0627 0600     		.2byte	0x6
 6186 0629 9E       		.byte	0x9e
 6187 062a 04       		.uleb128 0x4
 6188 062b CDCC4C3E 		.4byte	0x3e4ccccd
 6189 062f 6A000000 		.4byte	.LVL201
 6190 0633 71000000 		.4byte	.LVL202-1
 6191 0637 0100     		.2byte	0x1
 6192 0639 50       		.byte	0x50
 6193 063a 82000000 		.4byte	.LVL204
 6194 063e DE000000 		.4byte	.LVL208
 6195 0642 0600     		.2byte	0x6
 6196 0644 9E       		.byte	0x9e
 6197 0645 04       		.uleb128 0x4
 6198 0646 CDCC4C3E 		.4byte	0x3e4ccccd
 6199 064a 00000000 		.4byte	0
 6200 064e 00000000 		.4byte	0
 6201              	.LLST38:
 6202 0652 08000000 		.4byte	.LVL209
 6203 0656 0C000000 		.4byte	.LVL210
 6204 065a 0200     		.2byte	0x2
 6205 065c 30       		.byte	0x30
 6206 065d 9F       		.byte	0x9f
 6207 065e 0C000000 		.4byte	.LVL210
 6208 0662 22000000 		.4byte	.LVL213
 6209 0666 0100     		.2byte	0x1
 6210 0668 54       		.byte	0x54
 6211 0669 3E000000 		.4byte	.LVL217
ARM GAS  C:\Users\HENRYA~1\AppData\Local\Temp\cchXA1T4.s 			page 126


 6212 066d 52000000 		.4byte	.LVL221
 6213 0671 0100     		.2byte	0x1
 6214 0673 54       		.byte	0x54
 6215 0674 54000000 		.4byte	.LVL222
 6216 0678 66000000 		.4byte	.LVL224
 6217 067c 0100     		.2byte	0x1
 6218 067e 54       		.byte	0x54
 6219 067f 7E000000 		.4byte	.LVL227
 6220 0683 82000000 		.4byte	.LVL228
 6221 0687 0200     		.2byte	0x2
 6222 0689 32       		.byte	0x32
 6223 068a 9F       		.byte	0x9f
 6224 068b 82000000 		.4byte	.LVL228
 6225 068f AA000000 		.4byte	.LVL233
 6226 0693 0100     		.2byte	0x1
 6227 0695 54       		.byte	0x54
 6228 0696 B2000000 		.4byte	.LVL234
 6229 069a D4000000 		.4byte	.LVL239
 6230 069e 0100     		.2byte	0x1
 6231 06a0 54       		.byte	0x54
 6232 06a1 00000000 		.4byte	0
 6233 06a5 00000000 		.4byte	0
 6234              	.LLST39:
 6235 06a9 08000000 		.4byte	.LVL209
 6236 06ad 3E000000 		.4byte	.LVL217
 6237 06b1 0200     		.2byte	0x2
 6238 06b3 30       		.byte	0x30
 6239 06b4 9F       		.byte	0x9f
 6240 06b5 3E000000 		.4byte	.LVL217
 6241 06b9 D4000000 		.4byte	.LVL240
 6242 06bd 0100     		.2byte	0x1
 6243 06bf 56       		.byte	0x56
 6244 06c0 00000000 		.4byte	0
 6245 06c4 00000000 		.4byte	0
 6246              	.LLST40:
 6247 06c8 08000000 		.4byte	.LVL241
 6248 06cc 0C000000 		.4byte	.LVL242
 6249 06d0 0200     		.2byte	0x2
 6250 06d2 30       		.byte	0x30
 6251 06d3 9F       		.byte	0x9f
 6252 06d4 0C000000 		.4byte	.LVL242
 6253 06d8 22000000 		.4byte	.LVL245
 6254 06dc 0100     		.2byte	0x1
 6255 06de 54       		.byte	0x54
 6256 06df 3E000000 		.4byte	.LVL249
 6257 06e3 56000000 		.4byte	.LVL253
 6258 06e7 0100     		.2byte	0x1
 6259 06e9 54       		.byte	0x54
 6260 06ea 58000000 		.4byte	.LVL254
 6261 06ee 6A000000 		.4byte	.LVL256
 6262 06f2 0100     		.2byte	0x1
 6263 06f4 54       		.byte	0x54
 6264 06f5 82000000 		.4byte	.LVL259
 6265 06f9 86000000 		.4byte	.LVL260
 6266 06fd 0200     		.2byte	0x2
 6267 06ff 32       		.byte	0x32
 6268 0700 9F       		.byte	0x9f
ARM GAS  C:\Users\HENRYA~1\AppData\Local\Temp\cchXA1T4.s 			page 127


 6269 0701 86000000 		.4byte	.LVL260
 6270 0705 AE000000 		.4byte	.LVL265
 6271 0709 0100     		.2byte	0x1
 6272 070b 54       		.byte	0x54
 6273 070c B6000000 		.4byte	.LVL266
 6274 0710 D8000000 		.4byte	.LVL271
 6275 0714 0100     		.2byte	0x1
 6276 0716 54       		.byte	0x54
 6277 0717 00000000 		.4byte	0
 6278 071b 00000000 		.4byte	0
 6279              	.LLST41:
 6280 071f 08000000 		.4byte	.LVL241
 6281 0723 3E000000 		.4byte	.LVL249
 6282 0727 0200     		.2byte	0x2
 6283 0729 30       		.byte	0x30
 6284 072a 9F       		.byte	0x9f
 6285 072b 3E000000 		.4byte	.LVL249
 6286 072f D8000000 		.4byte	.LVL272
 6287 0733 0100     		.2byte	0x1
 6288 0735 56       		.byte	0x56
 6289 0736 00000000 		.4byte	0
 6290 073a 00000000 		.4byte	0
 6291              	.LLST42:
 6292 073e 08000000 		.4byte	.LVL273
 6293 0742 0C000000 		.4byte	.LVL274
 6294 0746 0200     		.2byte	0x2
 6295 0748 30       		.byte	0x30
 6296 0749 9F       		.byte	0x9f
 6297 074a 0C000000 		.4byte	.LVL274
 6298 074e 38000000 		.4byte	.LVL280
 6299 0752 0100     		.2byte	0x1
 6300 0754 54       		.byte	0x54
 6301 0755 00000000 		.4byte	0
 6302 0759 00000000 		.4byte	0
 6303              	.LLST43:
 6304 075d 02000000 		.4byte	.LVL298
 6305 0761 06000000 		.4byte	.LVL299
 6306 0765 0200     		.2byte	0x2
 6307 0767 30       		.byte	0x30
 6308 0768 9F       		.byte	0x9f
 6309 0769 06000000 		.4byte	.LVL299
 6310 076d 9C000000 		.4byte	.LFE66
 6311 0771 0100     		.2byte	0x1
 6312 0773 54       		.byte	0x54
 6313 0774 00000000 		.4byte	0
 6314 0778 00000000 		.4byte	0
 6315              		.section	.debug_aranges,"",%progbits
 6316 0000 04010000 		.4byte	0x104
 6317 0004 0200     		.2byte	0x2
 6318 0006 00000000 		.4byte	.Ldebug_info0
 6319 000a 04       		.byte	0x4
 6320 000b 00       		.byte	0
 6321 000c 0000     		.2byte	0
 6322 000e 0000     		.2byte	0
 6323 0010 00000000 		.4byte	.LFB65
 6324 0014 10000000 		.4byte	.LFE65-.LFB65
 6325 0018 00000000 		.4byte	.LFB37
ARM GAS  C:\Users\HENRYA~1\AppData\Local\Temp\cchXA1T4.s 			page 128


 6326 001c 16000000 		.4byte	.LFE37-.LFB37
 6327 0020 00000000 		.4byte	.LFB38
 6328 0024 18000000 		.4byte	.LFE38-.LFB38
 6329 0028 00000000 		.4byte	.LFB39
 6330 002c 08000000 		.4byte	.LFE39-.LFB39
 6331 0030 00000000 		.4byte	.LFB40
 6332 0034 1E000000 		.4byte	.LFE40-.LFB40
 6333 0038 00000000 		.4byte	.LFB41
 6334 003c 40000000 		.4byte	.LFE41-.LFB41
 6335 0040 00000000 		.4byte	.LFB42
 6336 0044 28000000 		.4byte	.LFE42-.LFB42
 6337 0048 00000000 		.4byte	.LFB43
 6338 004c 2C000000 		.4byte	.LFE43-.LFB43
 6339 0050 00000000 		.4byte	.LFB44
 6340 0054 B4000000 		.4byte	.LFE44-.LFB44
 6341 0058 00000000 		.4byte	.LFB45
 6342 005c 70000000 		.4byte	.LFE45-.LFB45
 6343 0060 00000000 		.4byte	.LFB46
 6344 0064 F8000000 		.4byte	.LFE46-.LFB46
 6345 0068 00000000 		.4byte	.LFB47
 6346 006c 18000000 		.4byte	.LFE47-.LFB47
 6347 0070 00000000 		.4byte	.LFB48
 6348 0074 2E000000 		.4byte	.LFE48-.LFB48
 6349 0078 00000000 		.4byte	.LFB49
 6350 007c 38000000 		.4byte	.LFE49-.LFB49
 6351 0080 00000000 		.4byte	.LFB50
 6352 0084 34000000 		.4byte	.LFE50-.LFB50
 6353 0088 00000000 		.4byte	.LFB51
 6354 008c 50000000 		.4byte	.LFE51-.LFB51
 6355 0090 00000000 		.4byte	.LFB52
 6356 0094 40000000 		.4byte	.LFE52-.LFB52
 6357 0098 00000000 		.4byte	.LFB53
 6358 009c 18010000 		.4byte	.LFE53-.LFB53
 6359 00a0 00000000 		.4byte	.LFB54
 6360 00a4 A4000000 		.4byte	.LFE54-.LFB54
 6361 00a8 00000000 		.4byte	.LFB55
 6362 00ac F0000000 		.4byte	.LFE55-.LFB55
 6363 00b0 00000000 		.4byte	.LFB56
 6364 00b4 58000000 		.4byte	.LFE56-.LFB56
 6365 00b8 00000000 		.4byte	.LFB57
 6366 00bc EC000000 		.4byte	.LFE57-.LFB57
 6367 00c0 00000000 		.4byte	.LFB58
 6368 00c4 E8000000 		.4byte	.LFE58-.LFB58
 6369 00c8 00000000 		.4byte	.LFB59
 6370 00cc E4000000 		.4byte	.LFE59-.LFB59
 6371 00d0 00000000 		.4byte	.LFB60
 6372 00d4 48000000 		.4byte	.LFE60-.LFB60
 6373 00d8 00000000 		.4byte	.LFB61
 6374 00dc 10000000 		.4byte	.LFE61-.LFB61
 6375 00e0 00000000 		.4byte	.LFB62
 6376 00e4 24000000 		.4byte	.LFE62-.LFB62
 6377 00e8 00000000 		.4byte	.LFB63
 6378 00ec 24000000 		.4byte	.LFE63-.LFB63
 6379 00f0 00000000 		.4byte	.LFB64
 6380 00f4 D4000000 		.4byte	.LFE64-.LFB64
 6381 00f8 00000000 		.4byte	.LFB66
 6382 00fc 9C000000 		.4byte	.LFE66-.LFB66
ARM GAS  C:\Users\HENRYA~1\AppData\Local\Temp\cchXA1T4.s 			page 129


 6383 0100 00000000 		.4byte	0
 6384 0104 00000000 		.4byte	0
 6385              		.section	.debug_ranges,"",%progbits
 6386              	.Ldebug_ranges0:
 6387 0000 00000000 		.4byte	.LFB65
 6388 0004 10000000 		.4byte	.LFE65
 6389 0008 00000000 		.4byte	.LFB37
 6390 000c 16000000 		.4byte	.LFE37
 6391 0010 00000000 		.4byte	.LFB38
 6392 0014 18000000 		.4byte	.LFE38
 6393 0018 00000000 		.4byte	.LFB39
 6394 001c 08000000 		.4byte	.LFE39
 6395 0020 00000000 		.4byte	.LFB40
 6396 0024 1E000000 		.4byte	.LFE40
 6397 0028 00000000 		.4byte	.LFB41
 6398 002c 40000000 		.4byte	.LFE41
 6399 0030 00000000 		.4byte	.LFB42
 6400 0034 28000000 		.4byte	.LFE42
 6401 0038 00000000 		.4byte	.LFB43
 6402 003c 2C000000 		.4byte	.LFE43
 6403 0040 00000000 		.4byte	.LFB44
 6404 0044 B4000000 		.4byte	.LFE44
 6405 0048 00000000 		.4byte	.LFB45
 6406 004c 70000000 		.4byte	.LFE45
 6407 0050 00000000 		.4byte	.LFB46
 6408 0054 F8000000 		.4byte	.LFE46
 6409 0058 00000000 		.4byte	.LFB47
 6410 005c 18000000 		.4byte	.LFE47
 6411 0060 00000000 		.4byte	.LFB48
 6412 0064 2E000000 		.4byte	.LFE48
 6413 0068 00000000 		.4byte	.LFB49
 6414 006c 38000000 		.4byte	.LFE49
 6415 0070 00000000 		.4byte	.LFB50
 6416 0074 34000000 		.4byte	.LFE50
 6417 0078 00000000 		.4byte	.LFB51
 6418 007c 50000000 		.4byte	.LFE51
 6419 0080 00000000 		.4byte	.LFB52
 6420 0084 40000000 		.4byte	.LFE52
 6421 0088 00000000 		.4byte	.LFB53
 6422 008c 18010000 		.4byte	.LFE53
 6423 0090 00000000 		.4byte	.LFB54
 6424 0094 A4000000 		.4byte	.LFE54
 6425 0098 00000000 		.4byte	.LFB55
 6426 009c F0000000 		.4byte	.LFE55
 6427 00a0 00000000 		.4byte	.LFB56
 6428 00a4 58000000 		.4byte	.LFE56
 6429 00a8 00000000 		.4byte	.LFB57
 6430 00ac EC000000 		.4byte	.LFE57
 6431 00b0 00000000 		.4byte	.LFB58
 6432 00b4 E8000000 		.4byte	.LFE58
 6433 00b8 00000000 		.4byte	.LFB59
 6434 00bc E4000000 		.4byte	.LFE59
 6435 00c0 00000000 		.4byte	.LFB60
 6436 00c4 48000000 		.4byte	.LFE60
 6437 00c8 00000000 		.4byte	.LFB61
 6438 00cc 10000000 		.4byte	.LFE61
 6439 00d0 00000000 		.4byte	.LFB62
ARM GAS  C:\Users\HENRYA~1\AppData\Local\Temp\cchXA1T4.s 			page 130


 6440 00d4 24000000 		.4byte	.LFE62
 6441 00d8 00000000 		.4byte	.LFB63
 6442 00dc 24000000 		.4byte	.LFE63
 6443 00e0 00000000 		.4byte	.LFB64
 6444 00e4 D4000000 		.4byte	.LFE64
 6445 00e8 00000000 		.4byte	.LFB66
 6446 00ec 9C000000 		.4byte	.LFE66
 6447 00f0 00000000 		.4byte	0
 6448 00f4 00000000 		.4byte	0
 6449              		.section	.debug_line,"",%progbits
 6450              	.Ldebug_line0:
 6451 0000 4B060000 		.section	.debug_str,"MS",%progbits,1
 6451      02001701 
 6451      00000201 
 6451      FB0E0D00 
 6451      01010101 
 6452              	.LASF71:
 6453 0000 6461746F 		.ascii	"dato_enviado_1\000"
 6453      5F656E76 
 6453      6961646F 
 6453      5F3100
 6454              	.LASF101:
 6455 000f 43794465 		.ascii	"CyDelay\000"
 6455      6C617900 
 6456              	.LASF26:
 6457 0017 53656E64 		.ascii	"Send_Angle\000"
 6457      5F416E67 
 6457      6C6500
 6458              	.LASF111:
 6459 0022 43414E5F 		.ascii	"CAN_isr_StartEx\000"
 6459      6973725F 
 6459      53746172 
 6459      74457800 
 6460              	.LASF115:
 6461 0032 6D61696E 		.ascii	"main.c\000"
 6461      2E6300
 6462              	.LASF53:
 6463 0039 636F6D70 		.ascii	"componente\000"
 6463      6F6E656E 
 6463      746500
 6464              	.LASF112:
 6465 0044 496E745F 		.ascii	"Int_Serial_StartEx\000"
 6465      53657269 
 6465      616C5F53 
 6465      74617274 
 6465      457800
 6466              	.LASF86:
 6467 0057 506F626C 		.ascii	"Poblacion_1\000"
 6467      6163696F 
 6467      6E5F3100 
 6468              	.LASF9:
 6469 0063 756E7369 		.ascii	"unsigned int\000"
 6469      676E6564 
 6469      20696E74 
 6469      00
 6470              	.LASF11:
 6471 0070 696E7431 		.ascii	"int16\000"
ARM GAS  C:\Users\HENRYA~1\AppData\Local\Temp\cchXA1T4.s 			page 131


 6471      3600
 6472              	.LASF49:
 6473 0076 70617061 		.ascii	"papa\000"
 6473      00
 6474              	.LASF64:
 6475 007b 54656D70 		.ascii	"Temporizador\000"
 6475      6F72697A 
 6475      61646F72 
 6475      00
 6476              	.LASF16:
 6477 0088 53657269 		.ascii	"Serial_Interrupt\000"
 6477      616C5F49 
 6477      6E746572 
 6477      72757074 
 6477      00
 6478              	.LASF75:
 6479 0099 43616E74 		.ascii	"Cantidad_Sensores\000"
 6479      69646164 
 6479      5F53656E 
 6479      736F7265 
 6479      7300
 6480              	.LASF39:
 6481 00ab 696E7465 		.ascii	"interrutcan\000"
 6481      72727574 
 6481      63616E00 
 6482              	.LASF43:
 6483 00b7 4E6F726D 		.ascii	"Normalizar2\000"
 6483      616C697A 
 6483      61723200 
 6484              	.LASF50:
 6485 00c3 6D616D61 		.ascii	"mama\000"
 6485      00
 6486              	.LASF30:
 6487 00c8 50686173 		.ascii	"Phase\000"
 6487      6500
 6488              	.LASF113:
 6489 00ce 54696D65 		.ascii	"Timer_StartEx\000"
 6489      725F5374 
 6489      61727445 
 6489      7800
 6490              	.LASF0:
 6491 00dc 666C6F61 		.ascii	"float\000"
 6491      7400
 6492              	.LASF21:
 6493 00e2 72616E64 		.ascii	"random_Offset\000"
 6493      6F6D5F4F 
 6493      66667365 
 6493      7400
 6494              	.LASF8:
 6495 00f0 6C6F6E67 		.ascii	"long long unsigned int\000"
 6495      206C6F6E 
 6495      6720756E 
 6495      7369676E 
 6495      65642069 
 6496              	.LASF20:
 6497 0107 72616E64 		.ascii	"random_Fase\000"
 6497      6F6D5F46 
ARM GAS  C:\Users\HENRYA~1\AppData\Local\Temp\cchXA1T4.s 			page 132


 6497      61736500 
 6498              	.LASF100:
 6499 0113 43414E5F 		.ascii	"CAN_SendMsg0\000"
 6499      53656E64 
 6499      4D736730 
 6499      00
 6500              	.LASF102:
 6501 0120 43414E5F 		.ascii	"CAN_SendMsg1\000"
 6501      53656E64 
 6501      4D736731 
 6501      00
 6502              	.LASF58:
 6503 012d 52696768 		.ascii	"Right_Move\000"
 6503      745F4D6F 
 6503      766500
 6504              	.LASF51:
 6505 0138 4D757461 		.ascii	"Mutacion\000"
 6505      63696F6E 
 6505      00
 6506              	.LASF109:
 6507 0141 54696D65 		.ascii	"Timer_Start\000"
 6507      725F5374 
 6507      61727400 
 6508              	.LASF83:
 6509 014d 6D6F7665 		.ascii	"move_s\000"
 6509      5F7300
 6510              	.LASF114:
 6511 0154 474E5520 		.ascii	"GNU C11 5.4.1 20160609 (release) [ARM/embedded-5-br"
 6511      43313120 
 6511      352E342E 
 6511      31203230 
 6511      31363036 
 6512 0187 616E6368 		.ascii	"anch revision 237715] -mcpu=cortex-m0 -mthumb -g -O"
 6512      20726576 
 6512      6973696F 
 6512      6E203233 
 6512      37373135 
 6513 01ba 67202D66 		.ascii	"g -ffunction-sections -ffat-lto-objects\000"
 6513      66756E63 
 6513      74696F6E 
 6513      2D736563 
 6513      74696F6E 
 6514              	.LASF22:
 6515 01e2 6D6F7669 		.ascii	"movimiento\000"
 6515      6D69656E 
 6515      746F00
 6516              	.LASF78:
 6517 01ed 6F666673 		.ascii	"offset\000"
 6517      657400
 6518              	.LASF40:
 6519 01f4 76616C6F 		.ascii	"valores\000"
 6519      72657300 
 6520              	.LASF41:
 6521 01fc 4E6F726D 		.ascii	"Normalizar\000"
 6521      616C697A 
 6521      617200
 6522              	.LASF24:
ARM GAS  C:\Users\HENRYA~1\AppData\Local\Temp\cchXA1T4.s 			page 133


 6523 0207 62797465 		.ascii	"byteh\000"
 6523      6800
 6524              	.LASF25:
 6525 020d 62797465 		.ascii	"bytel\000"
 6525      6C00
 6526              	.LASF17:
 6527 0213 72616E64 		.ascii	"randd\000"
 6527      6400
 6528              	.LASF48:
 6529 0219 43727563 		.ascii	"Cruce\000"
 6529      6500
 6530              	.LASF19:
 6531 021f 72616E64 		.ascii	"random_amplitud\000"
 6531      6F6D5F61 
 6531      6D706C69 
 6531      74756400 
 6532              	.LASF84:
 6533 022f 496E6469 		.ascii	"Individuos\000"
 6533      76696475 
 6533      6F7300
 6534              	.LASF35:
 6535 023a 4F666673 		.ascii	"Offset_env\000"
 6535      65745F65 
 6535      6E7600
 6536              	.LASF46:
 6537 0245 45737065 		.ascii	"Espere\000"
 6537      726500
 6538              	.LASF29:
 6539 024c 416D706C 		.ascii	"Amplitud\000"
 6539      69747564 
 6539      00
 6540              	.LASF13:
 6541 0255 63686172 		.ascii	"char\000"
 6541      00
 6542              	.LASF60:
 6543 025a 52656369 		.ascii	"Recibe_Mail_2\000"
 6543      62655F4D 
 6543      61696C5F 
 6543      3200
 6544              	.LASF37:
 6545 0268 6461746F 		.ascii	"datoH\000"
 6545      4800
 6546              	.LASF36:
 6547 026e 6461746F 		.ascii	"datoL\000"
 6547      4C00
 6548              	.LASF55:
 6549 0274 50726F62 		.ascii	"Prob_c\000"
 6549      5F6300
 6550              	.LASF91:
 6551 027b 436F6C75 		.ascii	"Columna\000"
 6551      6D6E6100 
 6552              	.LASF56:
 6553 0283 50726F62 		.ascii	"Prob_m\000"
 6553      5F6D00
 6554              	.LASF42:
 6555 028a 56616C6F 		.ascii	"Valor_Maximo\000"
 6555      725F4D61 
ARM GAS  C:\Users\HENRYA~1\AppData\Local\Temp\cchXA1T4.s 			page 134


 6555      78696D6F 
 6555      00
 6556              	.LASF34:
 6557 0297 50686173 		.ascii	"Phase_env\000"
 6557      655F656E 
 6557      7600
 6558              	.LASF89:
 6559 02a1 4669746E 		.ascii	"Fitness_Normalizado\000"
 6559      6573735F 
 6559      4E6F726D 
 6559      616C697A 
 6559      61646F00 
 6560              	.LASF74:
 6561 02b5 63616E74 		.ascii	"cantidadM\000"
 6561      69646164 
 6561      4D00
 6562              	.LASF99:
 6563 02bf 72616E64 		.ascii	"rand\000"
 6563      00
 6564              	.LASF7:
 6565 02c4 6C6F6E67 		.ascii	"long long int\000"
 6565      206C6F6E 
 6565      6720696E 
 6565      7400
 6566              	.LASF23:
 6567 02d2 64697272 		.ascii	"dirr\000"
 6567      00
 6568              	.LASF92:
 6569 02d7 556D6272 		.ascii	"Umbral_Cruce\000"
 6569      616C5F43 
 6569      72756365 
 6569      00
 6570              	.LASF28:
 6571 02e4 456E7669 		.ascii	"Enviar_Parametros\000"
 6571      61725F50 
 6571      6172616D 
 6571      6574726F 
 6571      7300
 6572              	.LASF79:
 6573 02f6 66617365 		.ascii	"fase\000"
 6573      00
 6574              	.LASF88:
 6575 02fb 4669746E 		.ascii	"Fitness_1\000"
 6575      6573735F 
 6575      3100
 6576              	.LASF47:
 6577 0305 53656C65 		.ascii	"Seleccion\000"
 6577      6363696F 
 6577      6E00
 6578              	.LASF93:
 6579 030f 556D6272 		.ascii	"Umbral_Mutacion\000"
 6579      616C5F4D 
 6579      75746163 
 6579      696F6E00 
 6580              	.LASF72:
 6581 031f 64697374 		.ascii	"dist\000"
 6581      00
ARM GAS  C:\Users\HENRYA~1\AppData\Local\Temp\cchXA1T4.s 			page 135


 6582              	.LASF52:
 6583 0324 53656C65 		.ascii	"Selector\000"
 6583      63746F72 
 6583      00
 6584              	.LASF68:
 6585 032d 6D61696C 		.ascii	"mailbox1\000"
 6585      626F7831 
 6585      00
 6586              	.LASF69:
 6587 0336 6D61696C 		.ascii	"mailbox2\000"
 6587      626F7832 
 6587      00
 6588              	.LASF14:
 6589 033f 6C6F6E67 		.ascii	"long double\000"
 6589      20646F75 
 6589      626C6500 
 6590              	.LASF85:
 6591 034b 506F626C 		.ascii	"Poblacion\000"
 6591      6163696F 
 6591      6E00
 6592              	.LASF96:
 6593 0355 696E6469 		.ascii	"indice\000"
 6593      636500
 6594              	.LASF81:
 6595 035c 70756E74 		.ascii	"punto_a\000"
 6595      6F5F6100 
 6596              	.LASF82:
 6597 0364 70756E74 		.ascii	"punto_b\000"
 6597      6F5F6200 
 6598              	.LASF3:
 6599 036c 73686F72 		.ascii	"short int\000"
 6599      7420696E 
 6599      7400
 6600              	.LASF59:
 6601 0376 53656C65 		.ascii	"Select_Move\000"
 6601      63745F4D 
 6601      6F766500 
 6602              	.LASF5:
 6603 0382 6C6F6E67 		.ascii	"long int\000"
 6603      20696E74 
 6603      00
 6604              	.LASF116:
 6605 038b 433A5C55 		.ascii	"C:\\Users\\Henry Alberto\\Desktop\\Algoritmos_Optim"
 6605      73657273 
 6605      5C48656E 
 6605      72792041 
 6605      6C626572 
 6606 03ba 697A6163 		.ascii	"izacion\\Algoritmo_Genetico.cydsn\000"
 6606      696F6E5C 
 6606      416C676F 
 6606      7269746D 
 6606      6F5F4765 
 6607              	.LASF105:
 6608 03db 43414E5F 		.ascii	"CAN_GlobalIntEnable\000"
 6608      476C6F62 
 6608      616C496E 
 6608      74456E61 
ARM GAS  C:\Users\HENRYA~1\AppData\Local\Temp\cchXA1T4.s 			page 136


 6608      626C6500 
 6609              	.LASF54:
 6610 03ef 5265656D 		.ascii	"Reemplazo_Generacional\000"
 6610      706C617A 
 6610      6F5F4765 
 6610      6E657261 
 6610      63696F6E 
 6611              	.LASF80:
 6612 0406 666C6167 		.ascii	"flag\000"
 6612      00
 6613              	.LASF106:
 6614 040b 4C45445F 		.ascii	"LED_1_Write\000"
 6614      315F5772 
 6614      69746500 
 6615              	.LASF67:
 6616 0417 6D61696C 		.ascii	"mailbox0\000"
 6616      626F7830 
 6616      00
 6617              	.LASF98:
 6618 0420 53454E53 		.ascii	"SENSOR_U_GetChar\000"
 6618      4F525F55 
 6618      5F476574 
 6618      43686172 
 6618      00
 6619              	.LASF94:
 6620 0431 636F6E6D 		.ascii	"conmutador\000"
 6620      75746164 
 6620      6F7200
 6621              	.LASF27:
 6622 043c 436F6E74 		.ascii	"Conta3\000"
 6622      613300
 6623              	.LASF97:
 6624 0443 626F6C69 		.ascii	"bolita\000"
 6624      746100
 6625              	.LASF110:
 6626 044a 53454E53 		.ascii	"SENSOR_U_Start\000"
 6626      4F525F55 
 6626      5F537461 
 6626      727400
 6627              	.LASF90:
 6628 0459 46696C61 		.ascii	"Fila\000"
 6628      00
 6629              	.LASF15:
 6630 045e 73697A65 		.ascii	"sizetype\000"
 6630      74797065 
 6630      00
 6631              	.LASF6:
 6632 0467 6C6F6E67 		.ascii	"long unsigned int\000"
 6632      20756E73 
 6632      69676E65 
 6632      6420696E 
 6632      7400
 6633              	.LASF45:
 6634 0479 52656369 		.ascii	"Recibe_mail_0\000"
 6634      62655F6D 
 6634      61696C5F 
 6634      3000
ARM GAS  C:\Users\HENRYA~1\AppData\Local\Temp\cchXA1T4.s 			page 137


 6635              	.LASF73:
 6636 0487 636F6E74 		.ascii	"conta\000"
 6636      6100
 6637              	.LASF70:
 6638 048d 6461746F 		.ascii	"dato_enviado\000"
 6638      5F656E76 
 6638      6961646F 
 6638      00
 6639              	.LASF2:
 6640 049a 756E7369 		.ascii	"unsigned char\000"
 6640      676E6564 
 6640      20636861 
 6640      7200
 6641              	.LASF57:
 6642 04a8 4C656674 		.ascii	"Left_Move\000"
 6642      5F4D6F76 
 6642      6500
 6643              	.LASF65:
 6644 04b2 6D617869 		.ascii	"maximo\000"
 6644      6D6F00
 6645              	.LASF76:
 6646 04b9 4D61785F 		.ascii	"Max_Conta\000"
 6646      436F6E74 
 6646      6100
 6647              	.LASF87:
 6648 04c3 4669746E 		.ascii	"Fitness\000"
 6648      65737300 
 6649              	.LASF38:
 6650 04cb 436F6E74 		.ascii	"Contador\000"
 6650      61646F72 
 6650      00
 6651              	.LASF44:
 6652 04d4 4576616C 		.ascii	"Evaluar_Fitness\000"
 6652      7561725F 
 6652      4669746E 
 6652      65737300 
 6653              	.LASF103:
 6654 04e4 43414E5F 		.ascii	"CAN_GlobalIntDisable\000"
 6654      476C6F62 
 6654      616C496E 
 6654      74446973 
 6654      61626C65 
 6655              	.LASF61:
 6656 04f9 53656C65 		.ascii	"Select_Move_2\000"
 6656      63745F4D 
 6656      6F76655F 
 6656      3200
 6657              	.LASF62:
 6658 0507 53656C65 		.ascii	"Select_Move_3\000"
 6658      63745F4D 
 6658      6F76655F 
 6658      3300
 6659              	.LASF63:
 6660 0515 53656C65 		.ascii	"Select_Move_4\000"
 6660      63745F4D 
 6660      6F76655F 
 6660      3400
ARM GAS  C:\Users\HENRYA~1\AppData\Local\Temp\cchXA1T4.s 			page 138


 6661              	.LASF108:
 6662 0523 54696D65 		.ascii	"Timer_1_Start\000"
 6662      725F315F 
 6662      53746172 
 6662      7400
 6663              	.LASF33:
 6664 0531 416D705F 		.ascii	"Amp_env\000"
 6664      656E7600 
 6665              	.LASF1:
 6666 0539 7369676E 		.ascii	"signed char\000"
 6666      65642063 
 6666      68617200 
 6667              	.LASF32:
 6668 0545 4F726965 		.ascii	"Orientacion\000"
 6668      6E746163 
 6668      696F6E00 
 6669              	.LASF4:
 6670 0551 73686F72 		.ascii	"short unsigned int\000"
 6670      7420756E 
 6670      7369676E 
 6670      65642069 
 6670      6E7400
 6671              	.LASF18:
 6672 0564 72616E64 		.ascii	"random_gauss\000"
 6672      6F6D5F67 
 6672      61757373 
 6672      00
 6673              	.LASF66:
 6674 0571 6D61696E 		.ascii	"main\000"
 6674      00
 6675              	.LASF10:
 6676 0576 75696E74 		.ascii	"uint8\000"
 6676      3800
 6677              	.LASF12:
 6678 057c 646F7562 		.ascii	"double\000"
 6678      6C6500
 6679              	.LASF107:
 6680 0583 43414E5F 		.ascii	"CAN_Start\000"
 6680      53746172 
 6680      7400
 6681              	.LASF31:
 6682 058d 4F666673 		.ascii	"Offset\000"
 6682      657400
 6683              	.LASF95:
 6684 0594 70756E74 		.ascii	"puntero\000"
 6684      65726F00 
 6685              	.LASF77:
 6686 059c 616D706C 		.ascii	"amplitud\000"
 6686      69747564 
 6686      00
 6687              	.LASF104:
 6688 05a5 43414E5F 		.ascii	"CAN_MsgRXIsr\000"
 6688      4D736752 
 6688      58497372 
 6688      00
 6689              		.ident	"GCC: (GNU Tools for ARM Embedded Processors) 5.4.1 20160609 (release) [ARM/embedded-5-bran
