ARM GAS  C:\Users\HENRYA~1\AppData\Local\Temp\cchXA1T4.s 			page 1


   1              		.syntax unified
   2              		.cpu cortex-m0
   3              		.fpu softvfp
   4              		.eabi_attribute 20, 1
   5              		.eabi_attribute 21, 1
   6              		.eabi_attribute 23, 3
   7              		.eabi_attribute 24, 1
   8              		.eabi_attribute 25, 1
   9              		.eabi_attribute 26, 1
  10              		.eabi_attribute 30, 1
  11              		.eabi_attribute 34, 0
  12              		.eabi_attribute 18, 4
  13              		.thumb
  14              		.syntax unified
  15              		.file	"main.c"
  16              		.text
  17              	.Ltext0:
  18              		.cfi_sections	.debug_frame
  19              		.section	.text.Serial_Interrupt,"ax",%progbits
  20              		.align	2
  21              		.global	Serial_Interrupt
  22              		.code	16
  23              		.thumb_func
  24              		.type	Serial_Interrupt, %function
  25              	Serial_Interrupt:
  26              	.LFB65:
  27              		.file 1 "main.c"
   1:main.c        **** #include <project.h>
   2:main.c        **** #include <stdio.h>
   3:main.c        **** #include <stdlib.h>
   4:main.c        **** #include <math.h>
   5:main.c        **** #include <protocolo can.h>
   6:main.c        **** //Import Libraries
   7:main.c        **** //Global Variables
   8:main.c        **** uint8 mailbox0[8];
   9:main.c        **** uint8 mailbox1[8];
  10:main.c        **** uint8 mailbox2[8];
  11:main.c        **** uint8 dato_enviado[8];
  12:main.c        **** uint8 dato_enviado_1[8];
  13:main.c        **** char dist=0;
  14:main.c        **** int16 conta=0;
  15:main.c        **** int cantidadM=0;
  16:main.c        **** int Cantidad_Sensores=0;
  17:main.c        **** //Variables AE
  18:main.c        **** int Max_Conta=0;
  19:main.c        **** float amplitud=0.0;
  20:main.c        **** float offset=0.833;
  21:main.c        **** float fase=0.0;
  22:main.c        **** int flag=1;
  23:main.c        **** int punto_a=0;
  24:main.c        **** int punto_b=0;
  25:main.c        **** int move_s=0;
  26:main.c        **** //Crear Array con tamaño de la población 
  27:main.c        **** int Individuos=10;
  28:main.c        **** float Poblacion[3][10];
  29:main.c        **** float Poblacion_1[3][10];
  30:main.c        **** float Fitness[10];
ARM GAS  C:\Users\HENRYA~1\AppData\Local\Temp\cchXA1T4.s 			page 2


  31:main.c        **** float Fitness_1[10];
  32:main.c        **** float Fitness_Normalizado[10];
  33:main.c        **** int Fila=0;
  34:main.c        **** int Columna=0;
  35:main.c        **** float Umbral_Cruce=0.5;
  36:main.c        **** float Umbral_Mutacion=0.4;
  37:main.c        **** int conmutador=0;
  38:main.c        **** int puntero=0;
  39:main.c        **** int indice[10];
  40:main.c        **** float Acu=0.0;
  41:main.c        **** float bolita=0.0;
  42:main.c        ****     
  43:main.c        **** double randd() {
  44:main.c        ****   return (double)rand()/((double)RAND_MAX + 1);
  45:main.c        **** }
  46:main.c        **** 
  47:main.c        **** double random_gauss(){
  48:main.c        ****     return randd()*0.2;
  49:main.c        **** }
  50:main.c        **** 
  51:main.c        **** double random_amplitud(){
  52:main.c        ****     return randd();
  53:main.c        **** }
  54:main.c        **** 
  55:main.c        **** double random_Fase(){
  56:main.c        ****     float r=0.0;
  57:main.c        ****     r=randd();
  58:main.c        ****     r=r*2;
  59:main.c        ****     r=r-1;
  60:main.c        ****     return r;
  61:main.c        **** }
  62:main.c        **** 
  63:main.c        **** double random_Offset(){
  64:main.c        ****     float r=0.0;
  65:main.c        ****     r=randd();
  66:main.c        ****     r=r*0.35;
  67:main.c        ****     r=r+0.65;
  68:main.c        ****     return r;
  69:main.c        **** }
  70:main.c        **** 
  71:main.c        **** void movimiento(unsigned int dirr,int mov){
  72:main.c        ****     char byteh,bytel;
  73:main.c        ****     byteh= mov >> 8;
  74:main.c        ****     bytel=mov;
  75:main.c        ****     dato_enviado[0]=VER ;//verificacion
  76:main.c        ****     dato_enviado[1]=dirr ;//dir
  77:main.c        ****     dato_enviado[2]=ESCRITURA ;//operacion
  78:main.c        ****     dato_enviado[3]=MOTOR;//lugar
  79:main.c        ****     dato_enviado[4]= byteh ;  //dato
  80:main.c        ****     dato_enviado[5]= bytel ;  //dato
  81:main.c        ****     CAN_SendMsg0(); 
  82:main.c        ****     CyDelay(25);    
  83:main.c        **** }
  84:main.c        **** 
  85:main.c        **** void Send_Angle(int Conta3){ 
  86:main.c        ****     dato_enviado[0]=VER2;//verificacion
  87:main.c        ****     dato_enviado[1]=Conta3;//dir
ARM GAS  C:\Users\HENRYA~1\AppData\Local\Temp\cchXA1T4.s 			page 3


  88:main.c        ****     dato_enviado[2]=Conta3;//dir
  89:main.c        ****     dato_enviado[3]=ANGLE;
  90:main.c        ****     dato_enviado[4]=0;//lugar
  91:main.c        ****     dato_enviado[5]=0;  //dato... en este caso direcion para asignar
  92:main.c        ****     dato_enviado[6]=0;
  93:main.c        ****     dato_enviado[7]=Conta3;
  94:main.c        ****     CAN_SendMsg0(); 
  95:main.c        ****     CyDelay(50);
  96:main.c        **** }
  97:main.c        **** 
  98:main.c        **** void Enviar_Parametros(float Amplitud,float Phase,float Offset,int Orientacion){
  99:main.c        ****     //Convertir el Valor a entero para ser enviado
 100:main.c        ****     int Amp_env=(int)fabs(Amplitud*10000);
 101:main.c        ****     int Phase_env=(int)fabs(Phase*10000);
 102:main.c        ****     int Offset_env=(int)fabs(Offset*10000);
 103:main.c        ****     //Enviar datos
 104:main.c        ****     dato_enviado_1[0]=VER_M1;
 105:main.c        ****     dato_enviado_1[1]=Orientacion;
 106:main.c        ****     //Convertir Amplitud
 107:main.c        ****     uint8 datoL=Amp_env;
 108:main.c        ****     uint8 datoH=Amp_env>>8;
 109:main.c        ****     uint8 Aux=0;
 110:main.c        ****     if(Amplitud<0.0){
 111:main.c        ****         Aux=(1<<7);
 112:main.c        ****         datoH=datoH+Aux;
 113:main.c        ****     }
 114:main.c        ****     else{
 115:main.c        ****         Aux=(0<<7);
 116:main.c        ****         datoH=datoH+Aux;    
 117:main.c        ****     }
 118:main.c        ****     dato_enviado_1[2]=datoL;
 119:main.c        ****     dato_enviado_1[3]=datoH;
 120:main.c        ****     //Convertir Fase
 121:main.c        ****     datoL=Phase_env;
 122:main.c        ****     datoH=Phase_env>>8;
 123:main.c        ****     if(Phase<0.0){
 124:main.c        ****         Aux=(1<<7);
 125:main.c        ****         datoH=datoH+Aux;
 126:main.c        ****     }
 127:main.c        ****     else{
 128:main.c        ****         Aux=(0<<7);
 129:main.c        ****         datoH=datoH+Aux;    
 130:main.c        ****     }
 131:main.c        ****     dato_enviado_1[4]=datoL;
 132:main.c        ****     dato_enviado_1[5]=datoH;
 133:main.c        ****     //Convertir Offset
 134:main.c        ****     datoL=Offset_env;
 135:main.c        ****     datoH=Offset_env>>8;
 136:main.c        ****     if(Offset<0.0){
 137:main.c        ****         Aux=(1<<7);
 138:main.c        ****         datoH=datoH+Aux;
 139:main.c        ****     }
 140:main.c        ****     else{
 141:main.c        ****         Aux=(0<<7);
 142:main.c        ****         datoH=datoH+Aux;    
 143:main.c        ****     }
 144:main.c        ****     dato_enviado_1[6]=datoL;
ARM GAS  C:\Users\HENRYA~1\AppData\Local\Temp\cchXA1T4.s 			page 4


 145:main.c        ****     dato_enviado_1[7]=datoH;    
 146:main.c        ****     CAN_SendMsg1();
 147:main.c        ****     CyDelay(25);
 148:main.c        **** }
 149:main.c        **** 
 150:main.c        **** void Recibe_mail_0(){
 151:main.c        **** if(mailbox0[0]==VER){
 152:main.c        ****             switch(mailbox0[2]){
 153:main.c        ****             ///////////////////////////////////////////////////////
 154:main.c        ****             case ESCRITURA:{ 
 155:main.c        ****                 switch(mailbox0[3]){//////////+6+++++++++++++
 156:main.c        ****                     case CANTIDAD_MOD: 
 157:main.c        ****                             cantidadM=mailbox0[4];
 158:main.c        ****                     break;
 159:main.c        ****                     case START:
 160:main.c        ****                         
 161:main.c        ****                     break;
 162:main.c        ****                 }
 163:main.c        ****             }                                            
 164:main.c        ****         }    
 165:main.c        **** }
 166:main.c        **** if(mailbox0[0]==VER2){
 167:main.c        ****                 switch(mailbox0[3]){
 168:main.c        ****                 ///////////////////////////////////////////////////////
 169:main.c        ****                 case ANGLE:{
 170:main.c        ****                     int Contador=mailbox0[7];
 171:main.c        ****                     if(Contador>=cantidadM){
 172:main.c        ****                         Enviar_Parametros(amplitud,fase,offset,V);
 173:main.c        ****                         CyDelay(10);
 174:main.c        ****                         Enviar_Parametros(0.0,fase,0.833,H);  
 175:main.c        ****                     } 
 176:main.c        ****                 }
 177:main.c        ****                 break;}
 178:main.c        ****             } 
 179:main.c        **** }
 180:main.c        **** 
 181:main.c        **** void Recibe_Mail_2(){
 182:main.c        ****     if(mailbox2[0]==SENSORES){
 183:main.c        ****         //Mailbox2[1] Derecha
 184:main.c        ****         //Mailbox2[2] Frente
 185:main.c        ****         //Mailbox2[3] Izquierda
 186:main.c        ****         if(mailbox2[1]==0&&mailbox2[2]==0&&mailbox2[3]==0)      {Cantidad_Sensores=0;}   //Normal
 187:main.c        ****         else if(mailbox2[1]==0&&mailbox2[2]==0&&mailbox2[3]==1) {Cantidad_Sensores=1;}   //Izquierd
 188:main.c        ****         else if(mailbox2[1]==0&&mailbox2[2]==1&&mailbox2[3]==0) {Cantidad_Sensores=2;}   //Frontal
 189:main.c        ****         else if(mailbox2[1]==0&&mailbox2[2]==1&&mailbox2[3]==1) {Cantidad_Sensores=3;}   //Frontal 
 190:main.c        ****         else if(mailbox2[1]==1&&mailbox2[2]==0&&mailbox2[3]==0) {Cantidad_Sensores=4;}   //Derecha
 191:main.c        ****         else if(mailbox2[1]==1&&mailbox2[2]==0&&mailbox2[3]==1) {Cantidad_Sensores=5;}   //Derecha 
 192:main.c        ****         else if(mailbox2[1]==1&&mailbox2[2]==1&&mailbox2[3]==0) {Cantidad_Sensores=6;}   //Frontal 
 193:main.c        ****         else if(mailbox2[1]==1&&mailbox2[2]==1&&mailbox2[3]==1) {Cantidad_Sensores=7;}   //Todos
 194:main.c        ****         else                                                    {Cantidad_Sensores=0;}   //Normal
 195:main.c        ****     }
 196:main.c        **** }
 197:main.c        **** 
 198:main.c        **** CY_ISR(interrutcan){
 199:main.c        ****     CAN_GlobalIntDisable();
 200:main.c        ****     CAN_MsgRXIsr();  
 201:main.c        ****     Recibe_mail_0();
ARM GAS  C:\Users\HENRYA~1\AppData\Local\Temp\cchXA1T4.s 			page 5


 202:main.c        ****     Recibe_Mail_2();
 203:main.c        ****     CAN_GlobalIntEnable();
 204:main.c        **** }
 205:main.c        **** 
 206:main.c        **** float maximo(float *valores, int num){ 
 207:main.c        ****   int i; 
 208:main.c        ****   float max; 
 209:main.c        ****   max = valores[0]; 
 210:main.c        ****   for (i = 1; i < num; i++) 
 211:main.c        ****     if (valores[i] > max) 
 212:main.c        **** 	  max = valores[i]; 
 213:main.c        ****   return (max); 
 214:main.c        **** } 
 215:main.c        **** 
 216:main.c        **** void Normalizar(int I){
 217:main.c        ****     float Valor_Maximo=maximo(Fitness,I);
 218:main.c        ****     int i=0;
 219:main.c        ****     for (i=0;i<Individuos;i++){
 220:main.c        ****         Fitness_Normalizado[i]=Fitness[i]/Valor_Maximo;
 221:main.c        ****     }
 222:main.c        **** }
 223:main.c        **** 
 224:main.c        **** void Normalizar2(int I){
 225:main.c        ****     float Valor_Maximo=maximo(Fitness,I);
 226:main.c        ****     int i=0;
 227:main.c        ****     for (i=0;i<Individuos;i++){
 228:main.c        ****         Fitness[i]=Fitness[i]/Valor_Maximo;
 229:main.c        ****     }
 230:main.c        **** }
 231:main.c        **** 
 232:main.c        **** void Evaluar_Fitness(int i){
 233:main.c        ****     amplitud=Poblacion_1[0][i];
 234:main.c        ****     fase=Poblacion_1[1][i];
 235:main.c        ****     offset=Poblacion_1[2][i];
 236:main.c        ****     Enviar_Parametros(amplitud,fase,offset,V);
 237:main.c        ****     CyDelay(1000);
 238:main.c        ****     Enviar_Parametros(0.0,fase,0.833,H);  
 239:main.c        **** }
 240:main.c        **** 
 241:main.c        **** void Espere(){
 242:main.c        ****     amplitud=0.0;
 243:main.c        ****     fase=0.0;
 244:main.c        ****     offset=0.833;
 245:main.c        ****     Enviar_Parametros(amplitud,fase,offset,V);
 246:main.c        ****     CyDelay(1000);
 247:main.c        ****     Enviar_Parametros(0.0,fase,0.833,H);  
 248:main.c        **** }
 249:main.c        **** 
 250:main.c        **** void Seleccion(){
 251:main.c        ****     Normalizar(Individuos);
 252:main.c        ****     int i=0,j=0;
 253:main.c        ****     Acu=0.0;
 254:main.c        ****     bolita=0.0;
 255:main.c        ****     //Normalizar
 256:main.c        ****     for(i=0;i<Individuos;i++){
 257:main.c        ****         Acu=Acu+Fitness_Normalizado[i];            
 258:main.c        ****     }
ARM GAS  C:\Users\HENRYA~1\AppData\Local\Temp\cchXA1T4.s 			page 6


 259:main.c        ****     for(i=0;i<Individuos;i++){
 260:main.c        ****         Fitness_Normalizado[i]=Fitness_Normalizado[i]/Acu;            
 261:main.c        ****     }    
 262:main.c        ****     Acu=0.0;
 263:main.c        ****     //Ruleta
 264:main.c        ****     for(i=0;i<Individuos;i++){
 265:main.c        ****         bolita=randd();
 266:main.c        ****         Acu=0.0;
 267:main.c        ****         j=0;
 268:main.c        ****         while (Acu<bolita){
 269:main.c        ****             Acu=Fitness_Normalizado[j]+Acu;
 270:main.c        ****             indice[i]=j;
 271:main.c        ****             j++;
 272:main.c        ****         }
 273:main.c        ****     } 
 274:main.c        ****     //Llenar Matriz de población_1
 275:main.c        ****     for(i=0;i<Individuos;i++){
 276:main.c        ****         Poblacion_1[0][i]=Poblacion[0][indice[i]];
 277:main.c        ****         Poblacion_1[1][i]=Poblacion[1][indice[i]];
 278:main.c        ****         Poblacion_1[2][i]=Poblacion[2][indice[i]];
 279:main.c        ****         Fitness_1[i]=Fitness_Normalizado[indice[i]];
 280:main.c        ****         Fitness[i]=Fitness_Normalizado[i];
 281:main.c        ****     }     
 282:main.c        **** }
 283:main.c        **** 
 284:main.c        **** void Cruce(){
 285:main.c        ****     int papa=(int)Individuos*randd();
 286:main.c        ****     int mama=(int)Individuos*randd();
 287:main.c        ****     Poblacion_1[0][papa]=Poblacion_1[0][papa]+Poblacion_1[0][mama];
 288:main.c        ****     Poblacion_1[0][papa]=Poblacion_1[0][papa]/2;
 289:main.c        ****     Poblacion_1[1][papa]=Poblacion_1[1][papa]+Poblacion_1[1][mama];
 290:main.c        ****     Poblacion_1[1][papa]=Poblacion_1[1][papa]/2;
 291:main.c        ****     Poblacion_1[2][papa]=Poblacion_1[2][papa]+Poblacion_1[2][mama];
 292:main.c        ****     Poblacion_1[2][papa]=Poblacion_1[2][papa]/2;
 293:main.c        **** }
 294:main.c        **** 
 295:main.c        **** void Mutacion(){
 296:main.c        ****     int Selector=(int)Individuos*randd();
 297:main.c        ****     int componente=(int)randd()*2;
 298:main.c        ****     if(componente==0){Poblacion_1[componente][Selector]=Poblacion_1[componente][Selector]+random_ga
 299:main.c        ****     else if(componente==1){Poblacion_1[componente][Selector]=Poblacion_1[componente][Selector]+rand
 300:main.c        ****     else if(componente==2){Poblacion_1[componente][Selector]=Poblacion_1[componente][Selector]+rand
 301:main.c        **** }
 302:main.c        **** 
 303:main.c        **** void Reemplazo_Generacional(){
 304:main.c        ****     int i=0;
 305:main.c        ****     for(i=0;i<Individuos;i++){
 306:main.c        ****         if(Fitness_1[i]<Fitness[i]){
 307:main.c        ****             Poblacion[0][i]=Poblacion_1[0][i];
 308:main.c        ****             Poblacion[1][i]=Poblacion_1[1][i];
 309:main.c        ****             Poblacion[2][i]=Poblacion_1[2][i];
 310:main.c        ****         }
 311:main.c        ****     }
 312:main.c        **** }
 313:main.c        **** 
 314:main.c        **** void A_G(){
 315:main.c        ****     float Prob_c=0.5;
ARM GAS  C:\Users\HENRYA~1\AppData\Local\Temp\cchXA1T4.s 			page 7


 316:main.c        ****     float Prob_m=0.2;
 317:main.c        ****     //Ingrese su Algoritmo Aqui
 318:main.c        ****     switch (flag){
 319:main.c        ****         case 0:
 320:main.c        ****             Normalizar2(Individuos);
 321:main.c        ****             Reemplazo_Generacional();
 322:main.c        ****             puntero=0;
 323:main.c        ****             flag=1;        
 324:main.c        ****             break;
 325:main.c        ****         case 1:
 326:main.c        ****             Espere();
 327:main.c        ****             Seleccion();
 328:main.c        ****             Max_Conta=5;
 329:main.c        ****             flag=2;
 330:main.c        ****             break;
 331:main.c        ****         case 2:
 332:main.c        ****             Prob_c=randd();
 333:main.c        ****             if(Prob_c<Umbral_Cruce){
 334:main.c        ****                 Cruce();
 335:main.c        ****             }
 336:main.c        ****             Prob_m=randd();
 337:main.c        ****             if(Prob_m<Umbral_Mutacion){
 338:main.c        ****                 Mutacion();
 339:main.c        ****             }
 340:main.c        ****             flag=3;
 341:main.c        ****             break;
 342:main.c        ****         case 3:
 343:main.c        ****             switch (conmutador){
 344:main.c        ****                 case 0:
 345:main.c        ****                     conmutador=1;
 346:main.c        ****                     Evaluar_Fitness(puntero);
 347:main.c        ****                     Max_Conta=100;
 348:main.c        ****                 break;
 349:main.c        ****                 case 1:
 350:main.c        ****                     conmutador=2;
 351:main.c        ****                     Espere();
 352:main.c        ****                     Max_Conta=20;
 353:main.c        ****                 break;
 354:main.c        ****                 case 2:
 355:main.c        ****                     conmutador=0;
 356:main.c        ****                     Fitness_1[puntero]=(float)dist;
 357:main.c        ****                     puntero++;
 358:main.c        ****                     Max_Conta=5;
 359:main.c        ****                     if(puntero==Individuos){flag=0;}
 360:main.c        ****                 break;
 361:main.c        ****             }
 362:main.c        ****             break;
 363:main.c        ****     }
 364:main.c        **** }
 365:main.c        **** 
 366:main.c        **** void Left_Move(){
 367:main.c        ****     Send_Angle(200);
 368:main.c        ****     int  i=0;
 369:main.c        ****     int j=0;
 370:main.c        ****     for(i=0;i<cantidadM;i++){ //Alineación
 371:main.c        ****         movimiento(i,512);
 372:main.c        ****         }
ARM GAS  C:\Users\HENRYA~1\AppData\Local\Temp\cchXA1T4.s 			page 8


 373:main.c        ****     CyDelay(2000);
 374:main.c        ****     movimiento(cantidadM,675);//Ancla Trasera
 375:main.c        ****     CyDelay(2000);
 376:main.c        ****     //Giro
 377:main.c        ****     for(j=0;j<1;j++){
 378:main.c        ****         for(i=2;i<cantidadM;i=i+4){ 
 379:main.c        ****             movimiento(i,650);
 380:main.c        ****             movimiento(i+1,750);
 381:main.c        ****             }
 382:main.c        ****         movimiento(cantidadM,512);//Ancla Trasera
 383:main.c        ****         CyDelay(2000);
 384:main.c        ****         movimiento(0,350);//Ancla Delantera
 385:main.c        ****         CyDelay(2000);
 386:main.c        ****         for(i=2;i<cantidadM;i=i+4){ //Alineación
 387:main.c        ****             movimiento(i,512);
 388:main.c        ****             movimiento(i+1,512);
 389:main.c        ****         }    
 390:main.c        ****         CyDelay(2000);
 391:main.c        ****     }         
 392:main.c        ****     for(i=0;i<cantidadM;i++){ //Alineación
 393:main.c        ****         movimiento(i,512);
 394:main.c        ****         }
 395:main.c        ****     CyDelay(2000); 
 396:main.c        ****     Send_Angle(0);
 397:main.c        **** }
 398:main.c        **** 
 399:main.c        **** void Right_Move(){
 400:main.c        ****     Send_Angle(200);
 401:main.c        ****     int  i=0;
 402:main.c        ****     int j=0;
 403:main.c        ****     for(i=0;i<cantidadM;i++){ //Alineación
 404:main.c        ****         movimiento(i,512);
 405:main.c        ****         }
 406:main.c        ****     CyDelay(2000);
 407:main.c        ****     movimiento(cantidadM,675);//Ancla Trasera
 408:main.c        ****     CyDelay(2000);
 409:main.c        ****     //Giro
 410:main.c        ****     for(j=0;j<1;j++){
 411:main.c        ****         for(i=2;i<cantidadM;i=i+4){ 
 412:main.c        ****             movimiento(i,374);
 413:main.c        ****             movimiento(i+1,274);
 414:main.c        ****             }
 415:main.c        ****         movimiento(cantidadM,512);//Ancla Trasera
 416:main.c        ****         CyDelay(2000);
 417:main.c        ****         movimiento(0,350);//Ancla Delantera
 418:main.c        ****         CyDelay(2000);
 419:main.c        ****         for(i=2;i<cantidadM;i=i+4){ //Alineación
 420:main.c        ****             movimiento(i,512);
 421:main.c        ****             movimiento(i+1,512);
 422:main.c        ****         }    
 423:main.c        ****         CyDelay(2000);
 424:main.c        ****     }         
 425:main.c        ****     for(i=0;i<cantidadM;i++){ //Alineación
 426:main.c        ****         movimiento(i,512);
 427:main.c        ****         }
 428:main.c        ****     CyDelay(2000); 
 429:main.c        ****     Send_Angle(0);
ARM GAS  C:\Users\HENRYA~1\AppData\Local\Temp\cchXA1T4.s 			page 9


 430:main.c        **** }
 431:main.c        **** 
 432:main.c        **** void Select_Move(){
 433:main.c        ****     Send_Angle(200);
 434:main.c        ****     int  i=0;
 435:main.c        ****     for(i=0;i<6;i++){ //Alineación
 436:main.c        ****         movimiento(i,512);
 437:main.c        ****         }
 438:main.c        ****     CyDelay(2000);
 439:main.c        ****     movimiento(2,750);
 440:main.c        ****     CyDelay(5000);
 441:main.c        ****     move_s=1;
 442:main.c        **** }
 443:main.c        **** 
 444:main.c        **** void Select_Move_2(){
 445:main.c        ****     punto_a=dist;  
 446:main.c        ****     move_s=2;
 447:main.c        **** }
 448:main.c        **** 
 449:main.c        **** void Select_Move_3(){
 450:main.c        ****     movimiento(2,274);
 451:main.c        ****     CyDelay(5000);
 452:main.c        ****     move_s=3;
 453:main.c        **** }
 454:main.c        **** 
 455:main.c        **** void Select_Move_4(){
 456:main.c        ****     punto_b=dist;
 457:main.c        ****     move_s=0;       
 458:main.c        ****     if(punto_a>=punto_b){
 459:main.c        ****         Left_Move();    
 460:main.c        ****     }
 461:main.c        ****     else{
 462:main.c        ****         Right_Move();
 463:main.c        ****     } 
 464:main.c        **** }
 465:main.c        **** 
 466:main.c        **** //Interrupt's
 467:main.c        **** CY_ISR(Temporizador){
 468:main.c        ****     conta++;
 469:main.c        ****     if(conta>=Max_Conta){     
 470:main.c        ****         LED_1_Write(1);
 471:main.c        ****         if(move_s==0){
 472:main.c        ****             if(Cantidad_Sensores==2){
 473:main.c        ****                 Select_Move();   
 474:main.c        ****                 Max_Conta=10;
 475:main.c        ****             }
 476:main.c        ****             else if(Cantidad_Sensores==3){//Izquierda
 477:main.c        ****                 Left_Move();
 478:main.c        ****                 Max_Conta=10;
 479:main.c        ****             }
 480:main.c        ****             else if(Cantidad_Sensores==6){//Derecha
 481:main.c        ****                 Right_Move();    
 482:main.c        ****                 Max_Conta=10;
 483:main.c        ****             }
 484:main.c        ****             else if(Cantidad_Sensores==7){//Reversa
 485:main.c        ****                 amplitud=0.8;offset=0.833;fase=-0.5;
 486:main.c        ****                 Enviar_Parametros(amplitud,fase,offset,V); 
ARM GAS  C:\Users\HENRYA~1\AppData\Local\Temp\cchXA1T4.s 			page 10


 487:main.c        ****                 CyDelay(1000);
 488:main.c        ****                 Enviar_Parametros(0.0,fase,offset,H);
 489:main.c        ****                 CyDelay(15000);
 490:main.c        ****                 Max_Conta=10;
 491:main.c        ****             }
 492:main.c        ****             else{   //Adelante      
 493:main.c        ****                 A_G();          
 494:main.c        ****             }
 495:main.c        ****         }
 496:main.c        ****         else if (move_s==1){Select_Move_2();}
 497:main.c        ****         else if (move_s==2){Select_Move_3();}
 498:main.c        ****         else{Select_Move_4();}
 499:main.c        ****         conta=0;
 500:main.c        ****     }
 501:main.c        ****     else{
 502:main.c        ****         LED_1_Write(0);
 503:main.c        ****     }  
 504:main.c        **** }
 505:main.c        **** 
 506:main.c        **** CY_ISR(Serial_Interrupt){
  28              		.loc 1 506 0
  29              		.cfi_startproc
  30              		@ args = 0, pretend = 0, frame = 0
  31              		@ frame_needed = 0, uses_anonymous_args = 0
  32 0000 10B5     		push	{r4, lr}
  33              		.cfi_def_cfa_offset 8
  34              		.cfi_offset 4, -8
  35              		.cfi_offset 14, -4
 507:main.c        ****     dist=SENSOR_U_GetChar();
  36              		.loc 1 507 0
  37 0002 FFF7FEFF 		bl	SENSOR_U_GetChar
  38              	.LVL0:
  39 0006 014B     		ldr	r3, .L2
  40 0008 1870     		strb	r0, [r3]
 508:main.c        **** }
  41              		.loc 1 508 0
  42              		@ sp needed
  43 000a 10BD     		pop	{r4, pc}
  44              	.L3:
  45              		.align	2
  46              	.L2:
  47 000c 00000000 		.word	.LANCHOR0
  48              		.cfi_endproc
  49              	.LFE65:
  50              		.size	Serial_Interrupt, .-Serial_Interrupt
  51              		.global	__aeabi_i2d
  52              		.global	__aeabi_dmul
  53              		.section	.text.randd,"ax",%progbits
  54              		.align	2
  55              		.global	randd
  56              		.code	16
  57              		.thumb_func
  58              		.type	randd, %function
  59              	randd:
  60              	.LFB37:
  43:main.c        ****   return (double)rand()/((double)RAND_MAX + 1);
  61              		.loc 1 43 0
ARM GAS  C:\Users\HENRYA~1\AppData\Local\Temp\cchXA1T4.s 			page 11


  62              		.cfi_startproc
  63              		@ args = 0, pretend = 0, frame = 0
  64              		@ frame_needed = 0, uses_anonymous_args = 0
  65 0000 10B5     		push	{r4, lr}
  66              		.cfi_def_cfa_offset 8
  67              		.cfi_offset 4, -8
  68              		.cfi_offset 14, -4
  44:main.c        **** }
  69              		.loc 1 44 0
  70 0002 FFF7FEFF 		bl	rand
  71              	.LVL1:
  72 0006 FFF7FEFF 		bl	__aeabi_i2d
  73              	.LVL2:
  74 000a 0022     		movs	r2, #0
  75 000c F823     		movs	r3, #248
  76 000e 9B05     		lsls	r3, r3, #22
  77 0010 FFF7FEFF 		bl	__aeabi_dmul
  78              	.LVL3:
  45:main.c        **** 
  79              		.loc 1 45 0
  80              		@ sp needed
  81 0014 10BD     		pop	{r4, pc}
  82              		.cfi_endproc
  83              	.LFE37:
  84              		.size	randd, .-randd
  85 0016 C046     		.section	.text.random_gauss,"ax",%progbits
  86              		.align	2
  87              		.global	random_gauss
  88              		.code	16
  89              		.thumb_func
  90              		.type	random_gauss, %function
  91              	random_gauss:
  92              	.LFB38:
  47:main.c        ****     return randd()*0.2;
  93              		.loc 1 47 0
  94              		.cfi_startproc
  95              		@ args = 0, pretend = 0, frame = 0
  96              		@ frame_needed = 0, uses_anonymous_args = 0
  97 0000 10B5     		push	{r4, lr}
  98              		.cfi_def_cfa_offset 8
  99              		.cfi_offset 4, -8
 100              		.cfi_offset 14, -4
  48:main.c        **** }
 101              		.loc 1 48 0
 102 0002 FFF7FEFF 		bl	randd
 103              	.LVL4:
 104 0006 024A     		ldr	r2, .L6
 105 0008 024B     		ldr	r3, .L6+4
 106 000a FFF7FEFF 		bl	__aeabi_dmul
 107              	.LVL5:
  49:main.c        **** 
 108              		.loc 1 49 0
 109              		@ sp needed
 110 000e 10BD     		pop	{r4, pc}
 111              	.L7:
 112              		.align	2
 113              	.L6:
ARM GAS  C:\Users\HENRYA~1\AppData\Local\Temp\cchXA1T4.s 			page 12


 114 0010 9A999999 		.word	-1717986918
 115 0014 9999C93F 		.word	1070176665
 116              		.cfi_endproc
 117              	.LFE38:
 118              		.size	random_gauss, .-random_gauss
 119              		.section	.text.random_amplitud,"ax",%progbits
 120              		.align	2
 121              		.global	random_amplitud
 122              		.code	16
 123              		.thumb_func
 124              		.type	random_amplitud, %function
 125              	random_amplitud:
 126              	.LFB39:
  51:main.c        ****     return randd();
 127              		.loc 1 51 0
 128              		.cfi_startproc
 129              		@ args = 0, pretend = 0, frame = 0
 130              		@ frame_needed = 0, uses_anonymous_args = 0
 131 0000 10B5     		push	{r4, lr}
 132              		.cfi_def_cfa_offset 8
 133              		.cfi_offset 4, -8
 134              		.cfi_offset 14, -4
  52:main.c        **** }
 135              		.loc 1 52 0
 136 0002 FFF7FEFF 		bl	randd
 137              	.LVL6:
  53:main.c        **** 
 138              		.loc 1 53 0
 139              		@ sp needed
 140 0006 10BD     		pop	{r4, pc}
 141              		.cfi_endproc
 142              	.LFE39:
 143              		.size	random_amplitud, .-random_amplitud
 144              		.global	__aeabi_d2f
 145              		.global	__aeabi_fadd
 146              		.global	__aeabi_fsub
 147              		.global	__aeabi_f2d
 148              		.section	.text.random_Fase,"ax",%progbits
 149              		.align	2
 150              		.global	random_Fase
 151              		.code	16
 152              		.thumb_func
 153              		.type	random_Fase, %function
 154              	random_Fase:
 155              	.LFB40:
  55:main.c        ****     float r=0.0;
 156              		.loc 1 55 0
 157              		.cfi_startproc
 158              		@ args = 0, pretend = 0, frame = 0
 159              		@ frame_needed = 0, uses_anonymous_args = 0
 160 0000 10B5     		push	{r4, lr}
 161              		.cfi_def_cfa_offset 8
 162              		.cfi_offset 4, -8
 163              		.cfi_offset 14, -4
 164              	.LVL7:
  57:main.c        ****     r=r*2;
 165              		.loc 1 57 0
ARM GAS  C:\Users\HENRYA~1\AppData\Local\Temp\cchXA1T4.s 			page 13


 166 0002 FFF7FEFF 		bl	randd
 167              	.LVL8:
 168 0006 FFF7FEFF 		bl	__aeabi_d2f
 169              	.LVL9:
  58:main.c        ****     r=r-1;
 170              		.loc 1 58 0
 171 000a 011C     		adds	r1, r0, #0
 172 000c FFF7FEFF 		bl	__aeabi_fadd
 173              	.LVL10:
  59:main.c        ****     return r;
 174              		.loc 1 59 0
 175 0010 FE21     		movs	r1, #254
 176 0012 8905     		lsls	r1, r1, #22
 177 0014 FFF7FEFF 		bl	__aeabi_fsub
 178              	.LVL11:
  60:main.c        **** }
 179              		.loc 1 60 0
 180 0018 FFF7FEFF 		bl	__aeabi_f2d
 181              	.LVL12:
  61:main.c        **** 
 182              		.loc 1 61 0
 183              		@ sp needed
 184 001c 10BD     		pop	{r4, pc}
 185              		.cfi_endproc
 186              	.LFE40:
 187              		.size	random_Fase, .-random_Fase
 188              		.global	__aeabi_dadd
 189 001e C046     		.section	.text.random_Offset,"ax",%progbits
 190              		.align	2
 191              		.global	random_Offset
 192              		.code	16
 193              		.thumb_func
 194              		.type	random_Offset, %function
 195              	random_Offset:
 196              	.LFB41:
  63:main.c        ****     float r=0.0;
 197              		.loc 1 63 0
 198              		.cfi_startproc
 199              		@ args = 0, pretend = 0, frame = 0
 200              		@ frame_needed = 0, uses_anonymous_args = 0
 201 0000 10B5     		push	{r4, lr}
 202              		.cfi_def_cfa_offset 8
 203              		.cfi_offset 4, -8
 204              		.cfi_offset 14, -4
 205              	.LVL13:
  65:main.c        ****     r=r*0.35;
 206              		.loc 1 65 0
 207 0002 FFF7FEFF 		bl	randd
 208              	.LVL14:
 209 0006 FFF7FEFF 		bl	__aeabi_d2f
 210              	.LVL15:
  66:main.c        ****     r=r+0.65;
 211              		.loc 1 66 0
 212 000a FFF7FEFF 		bl	__aeabi_f2d
 213              	.LVL16:
 214 000e 084A     		ldr	r2, .L11
 215 0010 084B     		ldr	r3, .L11+4
ARM GAS  C:\Users\HENRYA~1\AppData\Local\Temp\cchXA1T4.s 			page 14


 216 0012 FFF7FEFF 		bl	__aeabi_dmul
 217              	.LVL17:
 218 0016 FFF7FEFF 		bl	__aeabi_d2f
 219              	.LVL18:
  67:main.c        ****     return r;
 220              		.loc 1 67 0
 221 001a FFF7FEFF 		bl	__aeabi_f2d
 222              	.LVL19:
 223 001e 064A     		ldr	r2, .L11+8
 224 0020 064B     		ldr	r3, .L11+12
 225 0022 FFF7FEFF 		bl	__aeabi_dadd
 226              	.LVL20:
 227 0026 FFF7FEFF 		bl	__aeabi_d2f
 228              	.LVL21:
  68:main.c        **** }
 229              		.loc 1 68 0
 230 002a FFF7FEFF 		bl	__aeabi_f2d
 231              	.LVL22:
  69:main.c        **** 
 232              		.loc 1 69 0
 233              		@ sp needed
 234 002e 10BD     		pop	{r4, pc}
 235              	.L12:
 236              		.align	2
 237              	.L11:
 238 0030 66666666 		.word	1717986918
 239 0034 6666D63F 		.word	1071015526
 240 0038 CDCCCCCC 		.word	-858993459
 241 003c CCCCE43F 		.word	1071959244
 242              		.cfi_endproc
 243              	.LFE41:
 244              		.size	random_Offset, .-random_Offset
 245              		.section	.text.movimiento,"ax",%progbits
 246              		.align	2
 247              		.global	movimiento
 248              		.code	16
 249              		.thumb_func
 250              		.type	movimiento, %function
 251              	movimiento:
 252              	.LFB42:
  71:main.c        ****     char byteh,bytel;
 253              		.loc 1 71 0
 254              		.cfi_startproc
 255              		@ args = 0, pretend = 0, frame = 0
 256              		@ frame_needed = 0, uses_anonymous_args = 0
 257              	.LVL23:
 258 0000 10B5     		push	{r4, lr}
 259              		.cfi_def_cfa_offset 8
 260              		.cfi_offset 4, -8
 261              		.cfi_offset 14, -4
  73:main.c        ****     bytel=mov;
 262              		.loc 1 73 0
 263 0002 0A12     		asrs	r2, r1, #8
 264              	.LVL24:
  75:main.c        ****     dato_enviado[1]=dirr ;//dir
 265              		.loc 1 75 0
 266 0004 074B     		ldr	r3, .L14
ARM GAS  C:\Users\HENRYA~1\AppData\Local\Temp\cchXA1T4.s 			page 15


 267 0006 7F24     		movs	r4, #127
 268 0008 1C70     		strb	r4, [r3]
  76:main.c        ****     dato_enviado[2]=ESCRITURA ;//operacion
 269              		.loc 1 76 0
 270 000a 5870     		strb	r0, [r3, #1]
  77:main.c        ****     dato_enviado[3]=MOTOR;//lugar
 271              		.loc 1 77 0
 272 000c 0220     		movs	r0, #2
 273              	.LVL25:
 274 000e 9870     		strb	r0, [r3, #2]
  78:main.c        ****     dato_enviado[4]= byteh ;  //dato
 275              		.loc 1 78 0
 276 0010 0130     		adds	r0, r0, #1
 277 0012 D870     		strb	r0, [r3, #3]
  79:main.c        ****     dato_enviado[5]= bytel ;  //dato
 278              		.loc 1 79 0
 279 0014 1A71     		strb	r2, [r3, #4]
  80:main.c        ****     CAN_SendMsg0(); 
 280              		.loc 1 80 0
 281 0016 5971     		strb	r1, [r3, #5]
  81:main.c        ****     CyDelay(25);    
 282              		.loc 1 81 0
 283 0018 FFF7FEFF 		bl	CAN_SendMsg0
 284              	.LVL26:
  82:main.c        **** }
 285              		.loc 1 82 0
 286 001c 1920     		movs	r0, #25
 287 001e FFF7FEFF 		bl	CyDelay
 288              	.LVL27:
  83:main.c        **** 
 289              		.loc 1 83 0
 290              		@ sp needed
 291 0022 10BD     		pop	{r4, pc}
 292              	.L15:
 293              		.align	2
 294              	.L14:
 295 0024 00000000 		.word	dato_enviado
 296              		.cfi_endproc
 297              	.LFE42:
 298              		.size	movimiento, .-movimiento
 299              		.section	.text.Send_Angle,"ax",%progbits
 300              		.align	2
 301              		.global	Send_Angle
 302              		.code	16
 303              		.thumb_func
 304              		.type	Send_Angle, %function
 305              	Send_Angle:
 306              	.LFB43:
  85:main.c        ****     dato_enviado[0]=VER2;//verificacion
 307              		.loc 1 85 0
 308              		.cfi_startproc
 309              		@ args = 0, pretend = 0, frame = 0
 310              		@ frame_needed = 0, uses_anonymous_args = 0
 311              	.LVL28:
 312 0000 10B5     		push	{r4, lr}
 313              		.cfi_def_cfa_offset 8
 314              		.cfi_offset 4, -8
ARM GAS  C:\Users\HENRYA~1\AppData\Local\Temp\cchXA1T4.s 			page 16


 315              		.cfi_offset 14, -4
  86:main.c        ****     dato_enviado[1]=Conta3;//dir
 316              		.loc 1 86 0
 317 0002 094B     		ldr	r3, .L17
 318 0004 8022     		movs	r2, #128
 319 0006 1A70     		strb	r2, [r3]
  87:main.c        ****     dato_enviado[2]=Conta3;//dir
 320              		.loc 1 87 0
 321 0008 C0B2     		uxtb	r0, r0
 322              	.LVL29:
 323 000a 5870     		strb	r0, [r3, #1]
  88:main.c        ****     dato_enviado[3]=ANGLE;
 324              		.loc 1 88 0
 325 000c 9870     		strb	r0, [r3, #2]
  89:main.c        ****     dato_enviado[4]=0;//lugar
 326              		.loc 1 89 0
 327 000e 653A     		subs	r2, r2, #101
 328 0010 DA70     		strb	r2, [r3, #3]
  90:main.c        ****     dato_enviado[5]=0;  //dato... en este caso direcion para asignar
 329              		.loc 1 90 0
 330 0012 0022     		movs	r2, #0
 331 0014 1A71     		strb	r2, [r3, #4]
  91:main.c        ****     dato_enviado[6]=0;
 332              		.loc 1 91 0
 333 0016 5A71     		strb	r2, [r3, #5]
  92:main.c        ****     dato_enviado[7]=Conta3;
 334              		.loc 1 92 0
 335 0018 9A71     		strb	r2, [r3, #6]
  93:main.c        ****     CAN_SendMsg0(); 
 336              		.loc 1 93 0
 337 001a D871     		strb	r0, [r3, #7]
  94:main.c        ****     CyDelay(50);
 338              		.loc 1 94 0
 339 001c FFF7FEFF 		bl	CAN_SendMsg0
 340              	.LVL30:
  95:main.c        **** }
 341              		.loc 1 95 0
 342 0020 3220     		movs	r0, #50
 343 0022 FFF7FEFF 		bl	CyDelay
 344              	.LVL31:
  96:main.c        **** 
 345              		.loc 1 96 0
 346              		@ sp needed
 347 0026 10BD     		pop	{r4, pc}
 348              	.L18:
 349              		.align	2
 350              	.L17:
 351 0028 00000000 		.word	dato_enviado
 352              		.cfi_endproc
 353              	.LFE43:
 354              		.size	Send_Angle, .-Send_Angle
 355              		.global	__aeabi_fmul
 356              		.global	__aeabi_f2iz
 357              		.global	__aeabi_fcmplt
 358              		.section	.text.Enviar_Parametros,"ax",%progbits
 359              		.align	2
 360              		.global	Enviar_Parametros
ARM GAS  C:\Users\HENRYA~1\AppData\Local\Temp\cchXA1T4.s 			page 17


 361              		.code	16
 362              		.thumb_func
 363              		.type	Enviar_Parametros, %function
 364              	Enviar_Parametros:
 365              	.LFB44:
  98:main.c        ****     //Convertir el Valor a entero para ser enviado
 366              		.loc 1 98 0
 367              		.cfi_startproc
 368              		@ args = 0, pretend = 0, frame = 16
 369              		@ frame_needed = 0, uses_anonymous_args = 0
 370              	.LVL32:
 371 0000 F0B5     		push	{r4, r5, r6, r7, lr}
 372              		.cfi_def_cfa_offset 20
 373              		.cfi_offset 4, -20
 374              		.cfi_offset 5, -16
 375              		.cfi_offset 6, -12
 376              		.cfi_offset 7, -8
 377              		.cfi_offset 14, -4
 378 0002 85B0     		sub	sp, sp, #20
 379              		.cfi_def_cfa_offset 40
 380 0004 0190     		str	r0, [sp, #4]
 381 0006 0291     		str	r1, [sp, #8]
 382 0008 0392     		str	r2, [sp, #12]
 383 000a 1F00     		movs	r7, r3
 100:main.c        ****     int Phase_env=(int)fabs(Phase*10000);
 384              		.loc 1 100 0
 385 000c 2749     		ldr	r1, .L29
 386              	.LVL33:
 387 000e FFF7FEFF 		bl	__aeabi_fmul
 388              	.LVL34:
 389 0012 4000     		lsls	r0, r0, #1
 390 0014 4008     		lsrs	r0, r0, #1
 391 0016 FFF7FEFF 		bl	__aeabi_f2iz
 392              	.LVL35:
 393 001a 0600     		movs	r6, r0
 394              	.LVL36:
 101:main.c        ****     int Offset_env=(int)fabs(Offset*10000);
 395              		.loc 1 101 0
 396 001c 2349     		ldr	r1, .L29
 397 001e 0298     		ldr	r0, [sp, #8]
 398              	.LVL37:
 399 0020 FFF7FEFF 		bl	__aeabi_fmul
 400              	.LVL38:
 401 0024 4000     		lsls	r0, r0, #1
 402 0026 4008     		lsrs	r0, r0, #1
 403 0028 FFF7FEFF 		bl	__aeabi_f2iz
 404              	.LVL39:
 405 002c 0500     		movs	r5, r0
 406              	.LVL40:
 102:main.c        ****     //Enviar datos
 407              		.loc 1 102 0
 408 002e 1F49     		ldr	r1, .L29
 409 0030 0398     		ldr	r0, [sp, #12]
 410              	.LVL41:
 411 0032 FFF7FEFF 		bl	__aeabi_fmul
 412              	.LVL42:
 413 0036 4000     		lsls	r0, r0, #1
ARM GAS  C:\Users\HENRYA~1\AppData\Local\Temp\cchXA1T4.s 			page 18


 414 0038 4008     		lsrs	r0, r0, #1
 415 003a FFF7FEFF 		bl	__aeabi_f2iz
 416              	.LVL43:
 417 003e 0400     		movs	r4, r0
 418              	.LVL44:
 104:main.c        ****     dato_enviado_1[1]=Orientacion;
 419              		.loc 1 104 0
 420 0040 1B4B     		ldr	r3, .L29+4
 421 0042 8122     		movs	r2, #129
 422 0044 1A70     		strb	r2, [r3]
 105:main.c        ****     //Convertir Amplitud
 423              		.loc 1 105 0
 424 0046 5F70     		strb	r7, [r3, #1]
 107:main.c        ****     uint8 datoH=Amp_env>>8;
 425              		.loc 1 107 0
 426 0048 F7B2     		uxtb	r7, r6
 427              	.LVL45:
 108:main.c        ****     uint8 Aux=0;
 428              		.loc 1 108 0
 429 004a 3612     		asrs	r6, r6, #8
 430              	.LVL46:
 431 004c F6B2     		uxtb	r6, r6
 432              	.LVL47:
 110:main.c        ****         Aux=(1<<7);
 433              		.loc 1 110 0
 434 004e 0021     		movs	r1, #0
 435 0050 0198     		ldr	r0, [sp, #4]
 436              	.LVL48:
 437 0052 FFF7FEFF 		bl	__aeabi_fcmplt
 438              	.LVL49:
 439 0056 0028     		cmp	r0, #0
 440 0058 01D0     		beq	.L20
 441              	.LVL50:
 112:main.c        ****     }
 442              		.loc 1 112 0
 443 005a 803E     		subs	r6, r6, #128
 444              	.LVL51:
 445 005c F6B2     		uxtb	r6, r6
 446              	.LVL52:
 447              	.L20:
 118:main.c        ****     dato_enviado_1[3]=datoH;
 448              		.loc 1 118 0
 449 005e 144B     		ldr	r3, .L29+4
 450 0060 9F70     		strb	r7, [r3, #2]
 119:main.c        ****     //Convertir Fase
 451              		.loc 1 119 0
 452 0062 DE70     		strb	r6, [r3, #3]
 121:main.c        ****     datoH=Phase_env>>8;
 453              		.loc 1 121 0
 454 0064 EEB2     		uxtb	r6, r5
 455              	.LVL53:
 122:main.c        ****     if(Phase<0.0){
 456              		.loc 1 122 0
 457 0066 2D12     		asrs	r5, r5, #8
 458              	.LVL54:
 459 0068 EDB2     		uxtb	r5, r5
 460              	.LVL55:
ARM GAS  C:\Users\HENRYA~1\AppData\Local\Temp\cchXA1T4.s 			page 19


 123:main.c        ****         Aux=(1<<7);
 461              		.loc 1 123 0
 462 006a 0021     		movs	r1, #0
 463 006c 0298     		ldr	r0, [sp, #8]
 464 006e FFF7FEFF 		bl	__aeabi_fcmplt
 465              	.LVL56:
 466 0072 0028     		cmp	r0, #0
 467 0074 01D0     		beq	.L22
 468              	.LVL57:
 125:main.c        ****     }
 469              		.loc 1 125 0
 470 0076 803D     		subs	r5, r5, #128
 471              	.LVL58:
 472 0078 EDB2     		uxtb	r5, r5
 473              	.LVL59:
 474              	.L22:
 131:main.c        ****     dato_enviado_1[5]=datoH;
 475              		.loc 1 131 0
 476 007a 0D4B     		ldr	r3, .L29+4
 477 007c 1E71     		strb	r6, [r3, #4]
 132:main.c        ****     //Convertir Offset
 478              		.loc 1 132 0
 479 007e 5D71     		strb	r5, [r3, #5]
 134:main.c        ****     datoH=Offset_env>>8;
 480              		.loc 1 134 0
 481 0080 E5B2     		uxtb	r5, r4
 482              	.LVL60:
 135:main.c        ****     if(Offset<0.0){
 483              		.loc 1 135 0
 484 0082 2412     		asrs	r4, r4, #8
 485              	.LVL61:
 486 0084 E4B2     		uxtb	r4, r4
 487              	.LVL62:
 136:main.c        ****         Aux=(1<<7);
 488              		.loc 1 136 0
 489 0086 0021     		movs	r1, #0
 490 0088 0398     		ldr	r0, [sp, #12]
 491 008a FFF7FEFF 		bl	__aeabi_fcmplt
 492              	.LVL63:
 493 008e 0028     		cmp	r0, #0
 494 0090 01D0     		beq	.L24
 495              	.LVL64:
 138:main.c        ****     }
 496              		.loc 1 138 0
 497 0092 803C     		subs	r4, r4, #128
 498              	.LVL65:
 499 0094 E4B2     		uxtb	r4, r4
 500              	.LVL66:
 501              	.L24:
 144:main.c        ****     dato_enviado_1[7]=datoH;    
 502              		.loc 1 144 0
 503 0096 064B     		ldr	r3, .L29+4
 504 0098 9D71     		strb	r5, [r3, #6]
 145:main.c        ****     CAN_SendMsg1();
 505              		.loc 1 145 0
 506 009a DC71     		strb	r4, [r3, #7]
 146:main.c        ****     CyDelay(25);
ARM GAS  C:\Users\HENRYA~1\AppData\Local\Temp\cchXA1T4.s 			page 20


 507              		.loc 1 146 0
 508 009c FFF7FEFF 		bl	CAN_SendMsg1
 509              	.LVL67:
 147:main.c        **** }
 510              		.loc 1 147 0
 511 00a0 1920     		movs	r0, #25
 512 00a2 FFF7FEFF 		bl	CyDelay
 513              	.LVL68:
 148:main.c        **** 
 514              		.loc 1 148 0
 515 00a6 05B0     		add	sp, sp, #20
 516              		@ sp needed
 517              	.LVL69:
 518              	.LVL70:
 519 00a8 F0BD     		pop	{r4, r5, r6, r7, pc}
 520              	.L30:
 521 00aa C046     		.align	2
 522              	.L29:
 523 00ac 00401C46 		.word	1176256512
 524 00b0 00000000 		.word	dato_enviado_1
 525              		.cfi_endproc
 526              	.LFE44:
 527              		.size	Enviar_Parametros, .-Enviar_Parametros
 528              		.section	.text.Recibe_mail_0,"ax",%progbits
 529              		.align	2
 530              		.global	Recibe_mail_0
 531              		.code	16
 532              		.thumb_func
 533              		.type	Recibe_mail_0, %function
 534              	Recibe_mail_0:
 535              	.LFB45:
 150:main.c        **** if(mailbox0[0]==VER){
 536              		.loc 1 150 0
 537              		.cfi_startproc
 538              		@ args = 0, pretend = 0, frame = 0
 539              		@ frame_needed = 0, uses_anonymous_args = 0
 540 0000 10B5     		push	{r4, lr}
 541              		.cfi_def_cfa_offset 8
 542              		.cfi_offset 4, -8
 543              		.cfi_offset 14, -4
 151:main.c        ****             switch(mailbox0[2]){
 544              		.loc 1 151 0
 545 0002 174B     		ldr	r3, .L37
 546 0004 1B78     		ldrb	r3, [r3]
 547 0006 7F2B     		cmp	r3, #127
 548 0008 0BD1     		bne	.L32
 152:main.c        ****             ///////////////////////////////////////////////////////
 549              		.loc 1 152 0
 550 000a 154A     		ldr	r2, .L37
 551 000c 9278     		ldrb	r2, [r2, #2]
 552 000e 022A     		cmp	r2, #2
 553 0010 07D1     		bne	.L32
 155:main.c        ****                     case CANTIDAD_MOD: 
 554              		.loc 1 155 0
 555 0012 134A     		ldr	r2, .L37
 556 0014 D278     		ldrb	r2, [r2, #3]
 557 0016 2B2A     		cmp	r2, #43
ARM GAS  C:\Users\HENRYA~1\AppData\Local\Temp\cchXA1T4.s 			page 21


 558 0018 03D1     		bne	.L32
 157:main.c        ****                     break;
 559              		.loc 1 157 0
 560 001a 114A     		ldr	r2, .L37
 561 001c 1179     		ldrb	r1, [r2, #4]
 562 001e 114A     		ldr	r2, .L37+4
 563 0020 5160     		str	r1, [r2, #4]
 564              	.L32:
 166:main.c        ****                 switch(mailbox0[3]){
 565              		.loc 1 166 0
 566 0022 802B     		cmp	r3, #128
 567 0024 1AD1     		bne	.L31
 167:main.c        ****                 ///////////////////////////////////////////////////////
 568              		.loc 1 167 0
 569 0026 0E4B     		ldr	r3, .L37
 570 0028 DB78     		ldrb	r3, [r3, #3]
 571 002a 1B2B     		cmp	r3, #27
 572 002c 16D1     		bne	.L31
 573              	.LBB2:
 170:main.c        ****                     if(Contador>=cantidadM){
 574              		.loc 1 170 0
 575 002e 0C4B     		ldr	r3, .L37
 576 0030 DA79     		ldrb	r2, [r3, #7]
 577              	.LVL71:
 171:main.c        ****                         Enviar_Parametros(amplitud,fase,offset,V);
 578              		.loc 1 171 0
 579 0032 0C4B     		ldr	r3, .L37+4
 580 0034 5B68     		ldr	r3, [r3, #4]
 581 0036 9A42     		cmp	r2, r3
 582 0038 10DB     		blt	.L31
 172:main.c        ****                         CyDelay(10);
 583              		.loc 1 172 0
 584 003a 0B4B     		ldr	r3, .L37+8
 585 003c 1A68     		ldr	r2, [r3]
 586              	.LVL72:
 587 003e 094C     		ldr	r4, .L37+4
 588 0040 2123     		movs	r3, #33
 589 0042 A168     		ldr	r1, [r4, #8]
 590 0044 E068     		ldr	r0, [r4, #12]
 591 0046 FFF7FEFF 		bl	Enviar_Parametros
 592              	.LVL73:
 173:main.c        ****                         Enviar_Parametros(0.0,fase,0.833,H);  
 593              		.loc 1 173 0
 594 004a 0A20     		movs	r0, #10
 595 004c FFF7FEFF 		bl	CyDelay
 596              	.LVL74:
 174:main.c        ****                     } 
 597              		.loc 1 174 0
 598 0050 A168     		ldr	r1, [r4, #8]
 599 0052 2023     		movs	r3, #32
 600 0054 054A     		ldr	r2, .L37+12
 601 0056 0020     		movs	r0, #0
 602 0058 FFF7FEFF 		bl	Enviar_Parametros
 603              	.LVL75:
 604              	.L31:
 605              	.LBE2:
 179:main.c        **** 
ARM GAS  C:\Users\HENRYA~1\AppData\Local\Temp\cchXA1T4.s 			page 22


 606              		.loc 1 179 0
 607              		@ sp needed
 608 005c 10BD     		pop	{r4, pc}
 609              	.L38:
 610 005e C046     		.align	2
 611              	.L37:
 612 0060 00000000 		.word	mailbox0
 613 0064 00000000 		.word	.LANCHOR0
 614 0068 00000000 		.word	.LANCHOR1
 615 006c 7D3F553F 		.word	1062551421
 616              		.cfi_endproc
 617              	.LFE45:
 618              		.size	Recibe_mail_0, .-Recibe_mail_0
 619              		.section	.text.Recibe_Mail_2,"ax",%progbits
 620              		.align	2
 621              		.global	Recibe_Mail_2
 622              		.code	16
 623              		.thumb_func
 624              		.type	Recibe_Mail_2, %function
 625              	Recibe_Mail_2:
 626              	.LFB46:
 181:main.c        ****     if(mailbox2[0]==SENSORES){
 627              		.loc 1 181 0
 628              		.cfi_startproc
 629              		@ args = 0, pretend = 0, frame = 0
 630              		@ frame_needed = 0, uses_anonymous_args = 0
 631              		@ link register save eliminated.
 182:main.c        ****         //Mailbox2[1] Derecha
 632              		.loc 1 182 0
 633 0000 3B4B     		ldr	r3, .L49
 634 0002 1B78     		ldrb	r3, [r3]
 635 0004 822B     		cmp	r3, #130
 636 0006 72D1     		bne	.L39
 186:main.c        ****         else if(mailbox2[1]==0&&mailbox2[2]==0&&mailbox2[3]==1) {Cantidad_Sensores=1;}   //Izquierd
 637              		.loc 1 186 0
 638 0008 394B     		ldr	r3, .L49
 639 000a 5B78     		ldrb	r3, [r3, #1]
 640 000c 002B     		cmp	r3, #0
 641 000e 0AD1     		bne	.L41
 186:main.c        ****         else if(mailbox2[1]==0&&mailbox2[2]==0&&mailbox2[3]==1) {Cantidad_Sensores=1;}   //Izquierd
 642              		.loc 1 186 0 is_stmt 0 discriminator 1
 643 0010 374A     		ldr	r2, .L49
 644 0012 9278     		ldrb	r2, [r2, #2]
 645 0014 002A     		cmp	r2, #0
 646 0016 06D1     		bne	.L41
 186:main.c        ****         else if(mailbox2[1]==0&&mailbox2[2]==0&&mailbox2[3]==1) {Cantidad_Sensores=1;}   //Izquierd
 647              		.loc 1 186 0 discriminator 2
 648 0018 354A     		ldr	r2, .L49
 649 001a D278     		ldrb	r2, [r2, #3]
 650 001c 002A     		cmp	r2, #0
 651 001e 02D1     		bne	.L41
 186:main.c        ****         else if(mailbox2[1]==0&&mailbox2[2]==0&&mailbox2[3]==1) {Cantidad_Sensores=1;}   //Izquierd
 652              		.loc 1 186 0 discriminator 3
 653 0020 344B     		ldr	r3, .L49+4
 654 0022 1A61     		str	r2, [r3, #16]
 655 0024 63E0     		b	.L39
 656              	.L41:
ARM GAS  C:\Users\HENRYA~1\AppData\Local\Temp\cchXA1T4.s 			page 23


 187:main.c        ****         else if(mailbox2[1]==0&&mailbox2[2]==1&&mailbox2[3]==0) {Cantidad_Sensores=2;}   //Frontal
 657              		.loc 1 187 0 is_stmt 1
 658 0026 002B     		cmp	r3, #0
 659 0028 0AD1     		bne	.L42
 187:main.c        ****         else if(mailbox2[1]==0&&mailbox2[2]==1&&mailbox2[3]==0) {Cantidad_Sensores=2;}   //Frontal
 660              		.loc 1 187 0 is_stmt 0 discriminator 1
 661 002a 314A     		ldr	r2, .L49
 662 002c 9278     		ldrb	r2, [r2, #2]
 663 002e 002A     		cmp	r2, #0
 664 0030 06D1     		bne	.L42
 187:main.c        ****         else if(mailbox2[1]==0&&mailbox2[2]==1&&mailbox2[3]==0) {Cantidad_Sensores=2;}   //Frontal
 665              		.loc 1 187 0 discriminator 2
 666 0032 2F4A     		ldr	r2, .L49
 667 0034 D278     		ldrb	r2, [r2, #3]
 668 0036 012A     		cmp	r2, #1
 669 0038 02D1     		bne	.L42
 187:main.c        ****         else if(mailbox2[1]==0&&mailbox2[2]==1&&mailbox2[3]==0) {Cantidad_Sensores=2;}   //Frontal
 670              		.loc 1 187 0 discriminator 3
 671 003a 2E4B     		ldr	r3, .L49+4
 672 003c 1A61     		str	r2, [r3, #16]
 673 003e 56E0     		b	.L39
 674              	.L42:
 188:main.c        ****         else if(mailbox2[1]==0&&mailbox2[2]==1&&mailbox2[3]==1) {Cantidad_Sensores=3;}   //Frontal 
 675              		.loc 1 188 0 is_stmt 1
 676 0040 002B     		cmp	r3, #0
 677 0042 0BD1     		bne	.L43
 188:main.c        ****         else if(mailbox2[1]==0&&mailbox2[2]==1&&mailbox2[3]==1) {Cantidad_Sensores=3;}   //Frontal 
 678              		.loc 1 188 0 is_stmt 0 discriminator 1
 679 0044 2A4A     		ldr	r2, .L49
 680 0046 9278     		ldrb	r2, [r2, #2]
 681 0048 012A     		cmp	r2, #1
 682 004a 07D1     		bne	.L43
 188:main.c        ****         else if(mailbox2[1]==0&&mailbox2[2]==1&&mailbox2[3]==1) {Cantidad_Sensores=3;}   //Frontal 
 683              		.loc 1 188 0 discriminator 2
 684 004c 284A     		ldr	r2, .L49
 685 004e D278     		ldrb	r2, [r2, #3]
 686 0050 002A     		cmp	r2, #0
 687 0052 03D1     		bne	.L43
 188:main.c        ****         else if(mailbox2[1]==0&&mailbox2[2]==1&&mailbox2[3]==1) {Cantidad_Sensores=3;}   //Frontal 
 688              		.loc 1 188 0 discriminator 3
 689 0054 0232     		adds	r2, r2, #2
 690 0056 274B     		ldr	r3, .L49+4
 691 0058 1A61     		str	r2, [r3, #16]
 692 005a 48E0     		b	.L39
 693              	.L43:
 189:main.c        ****         else if(mailbox2[1]==1&&mailbox2[2]==0&&mailbox2[3]==0) {Cantidad_Sensores=4;}   //Derecha
 694              		.loc 1 189 0 is_stmt 1
 695 005c 002B     		cmp	r3, #0
 696 005e 0BD1     		bne	.L44
 189:main.c        ****         else if(mailbox2[1]==1&&mailbox2[2]==0&&mailbox2[3]==0) {Cantidad_Sensores=4;}   //Derecha
 697              		.loc 1 189 0 is_stmt 0 discriminator 1
 698 0060 234A     		ldr	r2, .L49
 699 0062 9278     		ldrb	r2, [r2, #2]
 700 0064 012A     		cmp	r2, #1
 701 0066 07D1     		bne	.L44
 189:main.c        ****         else if(mailbox2[1]==1&&mailbox2[2]==0&&mailbox2[3]==0) {Cantidad_Sensores=4;}   //Derecha
 702              		.loc 1 189 0 discriminator 2
ARM GAS  C:\Users\HENRYA~1\AppData\Local\Temp\cchXA1T4.s 			page 24


 703 0068 214A     		ldr	r2, .L49
 704 006a D278     		ldrb	r2, [r2, #3]
 705 006c 012A     		cmp	r2, #1
 706 006e 03D1     		bne	.L44
 189:main.c        ****         else if(mailbox2[1]==1&&mailbox2[2]==0&&mailbox2[3]==0) {Cantidad_Sensores=4;}   //Derecha
 707              		.loc 1 189 0 discriminator 3
 708 0070 0232     		adds	r2, r2, #2
 709 0072 204B     		ldr	r3, .L49+4
 710 0074 1A61     		str	r2, [r3, #16]
 711 0076 3AE0     		b	.L39
 712              	.L44:
 190:main.c        ****         else if(mailbox2[1]==1&&mailbox2[2]==0&&mailbox2[3]==1) {Cantidad_Sensores=5;}   //Derecha 
 713              		.loc 1 190 0 is_stmt 1
 714 0078 012B     		cmp	r3, #1
 715 007a 0BD1     		bne	.L45
 190:main.c        ****         else if(mailbox2[1]==1&&mailbox2[2]==0&&mailbox2[3]==1) {Cantidad_Sensores=5;}   //Derecha 
 716              		.loc 1 190 0 is_stmt 0 discriminator 1
 717 007c 1C4A     		ldr	r2, .L49
 718 007e 9278     		ldrb	r2, [r2, #2]
 719 0080 002A     		cmp	r2, #0
 720 0082 07D1     		bne	.L45
 190:main.c        ****         else if(mailbox2[1]==1&&mailbox2[2]==0&&mailbox2[3]==1) {Cantidad_Sensores=5;}   //Derecha 
 721              		.loc 1 190 0 discriminator 2
 722 0084 1A4A     		ldr	r2, .L49
 723 0086 D278     		ldrb	r2, [r2, #3]
 724 0088 002A     		cmp	r2, #0
 725 008a 03D1     		bne	.L45
 190:main.c        ****         else if(mailbox2[1]==1&&mailbox2[2]==0&&mailbox2[3]==1) {Cantidad_Sensores=5;}   //Derecha 
 726              		.loc 1 190 0 discriminator 3
 727 008c 0432     		adds	r2, r2, #4
 728 008e 194B     		ldr	r3, .L49+4
 729 0090 1A61     		str	r2, [r3, #16]
 730 0092 2CE0     		b	.L39
 731              	.L45:
 191:main.c        ****         else if(mailbox2[1]==1&&mailbox2[2]==1&&mailbox2[3]==0) {Cantidad_Sensores=6;}   //Frontal 
 732              		.loc 1 191 0 is_stmt 1
 733 0094 012B     		cmp	r3, #1
 734 0096 0BD1     		bne	.L46
 191:main.c        ****         else if(mailbox2[1]==1&&mailbox2[2]==1&&mailbox2[3]==0) {Cantidad_Sensores=6;}   //Frontal 
 735              		.loc 1 191 0 is_stmt 0 discriminator 1
 736 0098 154A     		ldr	r2, .L49
 737 009a 9278     		ldrb	r2, [r2, #2]
 738 009c 002A     		cmp	r2, #0
 739 009e 07D1     		bne	.L46
 191:main.c        ****         else if(mailbox2[1]==1&&mailbox2[2]==1&&mailbox2[3]==0) {Cantidad_Sensores=6;}   //Frontal 
 740              		.loc 1 191 0 discriminator 2
 741 00a0 134A     		ldr	r2, .L49
 742 00a2 D278     		ldrb	r2, [r2, #3]
 743 00a4 012A     		cmp	r2, #1
 744 00a6 03D1     		bne	.L46
 191:main.c        ****         else if(mailbox2[1]==1&&mailbox2[2]==1&&mailbox2[3]==0) {Cantidad_Sensores=6;}   //Frontal 
 745              		.loc 1 191 0 discriminator 3
 746 00a8 0432     		adds	r2, r2, #4
 747 00aa 124B     		ldr	r3, .L49+4
 748 00ac 1A61     		str	r2, [r3, #16]
 749 00ae 1EE0     		b	.L39
 750              	.L46:
ARM GAS  C:\Users\HENRYA~1\AppData\Local\Temp\cchXA1T4.s 			page 25


 192:main.c        ****         else if(mailbox2[1]==1&&mailbox2[2]==1&&mailbox2[3]==1) {Cantidad_Sensores=7;}   //Todos
 751              		.loc 1 192 0 is_stmt 1
 752 00b0 012B     		cmp	r3, #1
 753 00b2 0BD1     		bne	.L47
 192:main.c        ****         else if(mailbox2[1]==1&&mailbox2[2]==1&&mailbox2[3]==1) {Cantidad_Sensores=7;}   //Todos
 754              		.loc 1 192 0 is_stmt 0 discriminator 1
 755 00b4 0E4A     		ldr	r2, .L49
 756 00b6 9278     		ldrb	r2, [r2, #2]
 757 00b8 012A     		cmp	r2, #1
 758 00ba 07D1     		bne	.L47
 192:main.c        ****         else if(mailbox2[1]==1&&mailbox2[2]==1&&mailbox2[3]==1) {Cantidad_Sensores=7;}   //Todos
 759              		.loc 1 192 0 discriminator 2
 760 00bc 0C4A     		ldr	r2, .L49
 761 00be D278     		ldrb	r2, [r2, #3]
 762 00c0 002A     		cmp	r2, #0
 763 00c2 03D1     		bne	.L47
 192:main.c        ****         else if(mailbox2[1]==1&&mailbox2[2]==1&&mailbox2[3]==1) {Cantidad_Sensores=7;}   //Todos
 764              		.loc 1 192 0 discriminator 3
 765 00c4 0632     		adds	r2, r2, #6
 766 00c6 0B4B     		ldr	r3, .L49+4
 767 00c8 1A61     		str	r2, [r3, #16]
 768 00ca 10E0     		b	.L39
 769              	.L47:
 193:main.c        ****         else                                                    {Cantidad_Sensores=0;}   //Normal
 770              		.loc 1 193 0 is_stmt 1
 771 00cc 012B     		cmp	r3, #1
 772 00ce 0BD1     		bne	.L48
 193:main.c        ****         else                                                    {Cantidad_Sensores=0;}   //Normal
 773              		.loc 1 193 0 is_stmt 0 discriminator 1
 774 00d0 074B     		ldr	r3, .L49
 775 00d2 9B78     		ldrb	r3, [r3, #2]
 776 00d4 012B     		cmp	r3, #1
 777 00d6 07D1     		bne	.L48
 193:main.c        ****         else                                                    {Cantidad_Sensores=0;}   //Normal
 778              		.loc 1 193 0 discriminator 2
 779 00d8 054B     		ldr	r3, .L49
 780 00da DB78     		ldrb	r3, [r3, #3]
 781 00dc 012B     		cmp	r3, #1
 782 00de 03D1     		bne	.L48
 193:main.c        ****         else                                                    {Cantidad_Sensores=0;}   //Normal
 783              		.loc 1 193 0 discriminator 3
 784 00e0 0722     		movs	r2, #7
 785 00e2 044B     		ldr	r3, .L49+4
 786 00e4 1A61     		str	r2, [r3, #16]
 787 00e6 02E0     		b	.L39
 788              	.L48:
 194:main.c        ****     }
 789              		.loc 1 194 0 is_stmt 1
 790 00e8 0022     		movs	r2, #0
 791 00ea 024B     		ldr	r3, .L49+4
 792 00ec 1A61     		str	r2, [r3, #16]
 793              	.L39:
 196:main.c        **** 
 794              		.loc 1 196 0
 795              		@ sp needed
 796 00ee 7047     		bx	lr
 797              	.L50:
ARM GAS  C:\Users\HENRYA~1\AppData\Local\Temp\cchXA1T4.s 			page 26


 798              		.align	2
 799              	.L49:
 800 00f0 00000000 		.word	mailbox2
 801 00f4 00000000 		.word	.LANCHOR0
 802              		.cfi_endproc
 803              	.LFE46:
 804              		.size	Recibe_Mail_2, .-Recibe_Mail_2
 805              		.section	.text.interrutcan,"ax",%progbits
 806              		.align	2
 807              		.global	interrutcan
 808              		.code	16
 809              		.thumb_func
 810              		.type	interrutcan, %function
 811              	interrutcan:
 812              	.LFB47:
 198:main.c        ****     CAN_GlobalIntDisable();
 813              		.loc 1 198 0
 814              		.cfi_startproc
 815              		@ args = 0, pretend = 0, frame = 0
 816              		@ frame_needed = 0, uses_anonymous_args = 0
 817 0000 10B5     		push	{r4, lr}
 818              		.cfi_def_cfa_offset 8
 819              		.cfi_offset 4, -8
 820              		.cfi_offset 14, -4
 199:main.c        ****     CAN_MsgRXIsr();  
 821              		.loc 1 199 0
 822 0002 FFF7FEFF 		bl	CAN_GlobalIntDisable
 823              	.LVL76:
 200:main.c        ****     Recibe_mail_0();
 824              		.loc 1 200 0
 825 0006 FFF7FEFF 		bl	CAN_MsgRXIsr
 826              	.LVL77:
 201:main.c        ****     Recibe_Mail_2();
 827              		.loc 1 201 0
 828 000a FFF7FEFF 		bl	Recibe_mail_0
 829              	.LVL78:
 202:main.c        ****     CAN_GlobalIntEnable();
 830              		.loc 1 202 0
 831 000e FFF7FEFF 		bl	Recibe_Mail_2
 832              	.LVL79:
 203:main.c        **** }
 833              		.loc 1 203 0
 834 0012 FFF7FEFF 		bl	CAN_GlobalIntEnable
 835              	.LVL80:
 204:main.c        **** 
 836              		.loc 1 204 0
 837              		@ sp needed
 838 0016 10BD     		pop	{r4, pc}
 839              		.cfi_endproc
 840              	.LFE47:
 841              		.size	interrutcan, .-interrutcan
 842              		.section	.text.maximo,"ax",%progbits
 843              		.align	2
 844              		.global	maximo
 845              		.code	16
 846              		.thumb_func
 847              		.type	maximo, %function
ARM GAS  C:\Users\HENRYA~1\AppData\Local\Temp\cchXA1T4.s 			page 27


 848              	maximo:
 849              	.LFB48:
 206:main.c        ****   int i; 
 850              		.loc 1 206 0
 851              		.cfi_startproc
 852              		@ args = 0, pretend = 0, frame = 8
 853              		@ frame_needed = 0, uses_anonymous_args = 0
 854              	.LVL81:
 855 0000 F0B5     		push	{r4, r5, r6, r7, lr}
 856              		.cfi_def_cfa_offset 20
 857              		.cfi_offset 4, -20
 858              		.cfi_offset 5, -16
 859              		.cfi_offset 6, -12
 860              		.cfi_offset 7, -8
 861              		.cfi_offset 14, -4
 862 0002 83B0     		sub	sp, sp, #12
 863              		.cfi_def_cfa_offset 32
 864 0004 0700     		movs	r7, r0
 865 0006 0E00     		movs	r6, r1
 209:main.c        ****   for (i = 1; i < num; i++) 
 866              		.loc 1 209 0
 867 0008 0368     		ldr	r3, [r0]
 868 000a 0193     		str	r3, [sp, #4]
 869              	.LVL82:
 210:main.c        ****     if (valores[i] > max) 
 870              		.loc 1 210 0
 871 000c 0124     		movs	r4, #1
 872 000e 09E0     		b	.L53
 873              	.LVL83:
 874              	.L55:
 211:main.c        **** 	  max = valores[i]; 
 875              		.loc 1 211 0
 876 0010 A300     		lsls	r3, r4, #2
 877 0012 DD59     		ldr	r5, [r3, r7]
 878 0014 291C     		adds	r1, r5, #0
 879 0016 0198     		ldr	r0, [sp, #4]
 880 0018 FFF7FEFF 		bl	__aeabi_fcmplt
 881              	.LVL84:
 882 001c 0028     		cmp	r0, #0
 883 001e 00D0     		beq	.L54
 212:main.c        ****   return (max); 
 884              		.loc 1 212 0
 885 0020 0195     		str	r5, [sp, #4]
 886              	.LVL85:
 887              	.L54:
 210:main.c        ****     if (valores[i] > max) 
 888              		.loc 1 210 0 discriminator 2
 889 0022 0134     		adds	r4, r4, #1
 890              	.LVL86:
 891              	.L53:
 210:main.c        ****     if (valores[i] > max) 
 892              		.loc 1 210 0 is_stmt 0 discriminator 1
 893 0024 B442     		cmp	r4, r6
 894 0026 F3DB     		blt	.L55
 214:main.c        **** 
 895              		.loc 1 214 0 is_stmt 1
 896 0028 0198     		ldr	r0, [sp, #4]
ARM GAS  C:\Users\HENRYA~1\AppData\Local\Temp\cchXA1T4.s 			page 28


 897 002a 03B0     		add	sp, sp, #12
 898              		@ sp needed
 899              	.LVL87:
 900              	.LVL88:
 901              	.LVL89:
 902 002c F0BD     		pop	{r4, r5, r6, r7, pc}
 903              		.cfi_endproc
 904              	.LFE48:
 905              		.size	maximo, .-maximo
 906              		.global	__aeabi_fdiv
 907 002e C046     		.section	.text.Normalizar,"ax",%progbits
 908              		.align	2
 909              		.global	Normalizar
 910              		.code	16
 911              		.thumb_func
 912              		.type	Normalizar, %function
 913              	Normalizar:
 914              	.LFB49:
 216:main.c        ****     float Valor_Maximo=maximo(Fitness,I);
 915              		.loc 1 216 0
 916              		.cfi_startproc
 917              		@ args = 0, pretend = 0, frame = 0
 918              		@ frame_needed = 0, uses_anonymous_args = 0
 919              	.LVL90:
 920 0000 70B5     		push	{r4, r5, r6, lr}
 921              		.cfi_def_cfa_offset 16
 922              		.cfi_offset 4, -16
 923              		.cfi_offset 5, -12
 924              		.cfi_offset 6, -8
 925              		.cfi_offset 14, -4
 926 0002 0100     		movs	r1, r0
 217:main.c        ****     int i=0;
 927              		.loc 1 217 0
 928 0004 0948     		ldr	r0, .L60
 929              	.LVL91:
 930 0006 FFF7FEFF 		bl	maximo
 931              	.LVL92:
 932 000a 061C     		adds	r6, r0, #0
 933              	.LVL93:
 219:main.c        ****         Fitness_Normalizado[i]=Fitness[i]/Valor_Maximo;
 934              		.loc 1 219 0
 935 000c 0024     		movs	r4, #0
 936 000e 08E0     		b	.L58
 937              	.LVL94:
 938              	.L59:
 220:main.c        ****     }
 939              		.loc 1 220 0 discriminator 3
 940 0010 A500     		lsls	r5, r4, #2
 941 0012 064B     		ldr	r3, .L60
 942 0014 E858     		ldr	r0, [r5, r3]
 943 0016 311C     		adds	r1, r6, #0
 944 0018 FFF7FEFF 		bl	__aeabi_fdiv
 945              	.LVL95:
 946 001c 044B     		ldr	r3, .L60+4
 947 001e E850     		str	r0, [r5, r3]
 219:main.c        ****         Fitness_Normalizado[i]=Fitness[i]/Valor_Maximo;
 948              		.loc 1 219 0 discriminator 3
ARM GAS  C:\Users\HENRYA~1\AppData\Local\Temp\cchXA1T4.s 			page 29


 949 0020 0134     		adds	r4, r4, #1
 950              	.LVL96:
 951              	.L58:
 219:main.c        ****         Fitness_Normalizado[i]=Fitness[i]/Valor_Maximo;
 952              		.loc 1 219 0 is_stmt 0 discriminator 1
 953 0022 044B     		ldr	r3, .L60+8
 954 0024 5B68     		ldr	r3, [r3, #4]
 955 0026 9C42     		cmp	r4, r3
 956 0028 F2DB     		blt	.L59
 222:main.c        **** 
 957              		.loc 1 222 0 is_stmt 1
 958              		@ sp needed
 959              	.LVL97:
 960              	.LVL98:
 961 002a 70BD     		pop	{r4, r5, r6, pc}
 962              	.L61:
 963              		.align	2
 964              	.L60:
 965 002c 00000000 		.word	Fitness
 966 0030 00000000 		.word	Fitness_Normalizado
 967 0034 00000000 		.word	.LANCHOR1
 968              		.cfi_endproc
 969              	.LFE49:
 970              		.size	Normalizar, .-Normalizar
 971              		.section	.text.Normalizar2,"ax",%progbits
 972              		.align	2
 973              		.global	Normalizar2
 974              		.code	16
 975              		.thumb_func
 976              		.type	Normalizar2, %function
 977              	Normalizar2:
 978              	.LFB50:
 224:main.c        ****     float Valor_Maximo=maximo(Fitness,I);
 979              		.loc 1 224 0
 980              		.cfi_startproc
 981              		@ args = 0, pretend = 0, frame = 0
 982              		@ frame_needed = 0, uses_anonymous_args = 0
 983              	.LVL99:
 984 0000 F8B5     		push	{r3, r4, r5, r6, r7, lr}
 985              		.cfi_def_cfa_offset 24
 986              		.cfi_offset 3, -24
 987              		.cfi_offset 4, -20
 988              		.cfi_offset 5, -16
 989              		.cfi_offset 6, -12
 990              		.cfi_offset 7, -8
 991              		.cfi_offset 14, -4
 992 0002 0100     		movs	r1, r0
 225:main.c        ****     int i=0;
 993              		.loc 1 225 0
 994 0004 0948     		ldr	r0, .L65
 995              	.LVL100:
 996 0006 FFF7FEFF 		bl	maximo
 997              	.LVL101:
 998 000a 071C     		adds	r7, r0, #0
 999              	.LVL102:
 227:main.c        ****         Fitness[i]=Fitness[i]/Valor_Maximo;
 1000              		.loc 1 227 0
ARM GAS  C:\Users\HENRYA~1\AppData\Local\Temp\cchXA1T4.s 			page 30


 1001 000c 0024     		movs	r4, #0
 1002 000e 07E0     		b	.L63
 1003              	.LVL103:
 1004              	.L64:
 228:main.c        ****     }
 1005              		.loc 1 228 0 discriminator 3
 1006 0010 064D     		ldr	r5, .L65
 1007 0012 A600     		lsls	r6, r4, #2
 1008 0014 391C     		adds	r1, r7, #0
 1009 0016 7059     		ldr	r0, [r6, r5]
 1010 0018 FFF7FEFF 		bl	__aeabi_fdiv
 1011              	.LVL104:
 1012 001c 7051     		str	r0, [r6, r5]
 227:main.c        ****         Fitness[i]=Fitness[i]/Valor_Maximo;
 1013              		.loc 1 227 0 discriminator 3
 1014 001e 0134     		adds	r4, r4, #1
 1015              	.LVL105:
 1016              	.L63:
 227:main.c        ****         Fitness[i]=Fitness[i]/Valor_Maximo;
 1017              		.loc 1 227 0 is_stmt 0 discriminator 1
 1018 0020 034B     		ldr	r3, .L65+4
 1019 0022 5B68     		ldr	r3, [r3, #4]
 1020 0024 9C42     		cmp	r4, r3
 1021 0026 F3DB     		blt	.L64
 230:main.c        **** 
 1022              		.loc 1 230 0 is_stmt 1
 1023              		@ sp needed
 1024              	.LVL106:
 1025              	.LVL107:
 1026 0028 F8BD     		pop	{r3, r4, r5, r6, r7, pc}
 1027              	.L66:
 1028 002a C046     		.align	2
 1029              	.L65:
 1030 002c 00000000 		.word	Fitness
 1031 0030 00000000 		.word	.LANCHOR1
 1032              		.cfi_endproc
 1033              	.LFE50:
 1034              		.size	Normalizar2, .-Normalizar2
 1035              		.section	.text.Evaluar_Fitness,"ax",%progbits
 1036              		.align	2
 1037              		.global	Evaluar_Fitness
 1038              		.code	16
 1039              		.thumb_func
 1040              		.type	Evaluar_Fitness, %function
 1041              	Evaluar_Fitness:
 1042              	.LFB51:
 232:main.c        ****     amplitud=Poblacion_1[0][i];
 1043              		.loc 1 232 0
 1044              		.cfi_startproc
 1045              		@ args = 0, pretend = 0, frame = 0
 1046              		@ frame_needed = 0, uses_anonymous_args = 0
 1047              	.LVL108:
 1048 0000 70B5     		push	{r4, r5, r6, lr}
 1049              		.cfi_def_cfa_offset 16
 1050              		.cfi_offset 4, -16
 1051              		.cfi_offset 5, -12
 1052              		.cfi_offset 6, -8
ARM GAS  C:\Users\HENRYA~1\AppData\Local\Temp\cchXA1T4.s 			page 31


 1053              		.cfi_offset 14, -4
 233:main.c        ****     fase=Poblacion_1[1][i];
 1054              		.loc 1 233 0
 1055 0002 0F4A     		ldr	r2, .L68
 1056 0004 8300     		lsls	r3, r0, #2
 1057 0006 9D58     		ldr	r5, [r3, r2]
 1058 0008 0E4C     		ldr	r4, .L68+4
 1059 000a E560     		str	r5, [r4, #12]
 234:main.c        ****     offset=Poblacion_1[2][i];
 1060              		.loc 1 234 0
 1061 000c 0300     		movs	r3, r0
 1062 000e 0A33     		adds	r3, r3, #10
 1063 0010 9B00     		lsls	r3, r3, #2
 1064 0012 9958     		ldr	r1, [r3, r2]
 1065 0014 A160     		str	r1, [r4, #8]
 235:main.c        ****     Enviar_Parametros(amplitud,fase,offset,V);
 1066              		.loc 1 235 0
 1067 0016 0300     		movs	r3, r0
 1068 0018 1433     		adds	r3, r3, #20
 1069 001a 9B00     		lsls	r3, r3, #2
 1070 001c 9A58     		ldr	r2, [r3, r2]
 1071 001e 0A4B     		ldr	r3, .L68+8
 1072 0020 1A60     		str	r2, [r3]
 236:main.c        ****     CyDelay(1000);
 1073              		.loc 1 236 0
 1074 0022 2123     		movs	r3, #33
 1075 0024 281C     		adds	r0, r5, #0
 1076              	.LVL109:
 1077 0026 FFF7FEFF 		bl	Enviar_Parametros
 1078              	.LVL110:
 237:main.c        ****     Enviar_Parametros(0.0,fase,0.833,H);  
 1079              		.loc 1 237 0
 1080 002a FA20     		movs	r0, #250
 1081 002c 8000     		lsls	r0, r0, #2
 1082 002e FFF7FEFF 		bl	CyDelay
 1083              	.LVL111:
 238:main.c        **** }
 1084              		.loc 1 238 0
 1085 0032 A168     		ldr	r1, [r4, #8]
 1086 0034 2023     		movs	r3, #32
 1087 0036 054A     		ldr	r2, .L68+12
 1088 0038 0020     		movs	r0, #0
 1089 003a FFF7FEFF 		bl	Enviar_Parametros
 1090              	.LVL112:
 239:main.c        **** 
 1091              		.loc 1 239 0
 1092              		@ sp needed
 1093 003e 70BD     		pop	{r4, r5, r6, pc}
 1094              	.L69:
 1095              		.align	2
 1096              	.L68:
 1097 0040 00000000 		.word	Poblacion_1
 1098 0044 00000000 		.word	.LANCHOR0
 1099 0048 00000000 		.word	.LANCHOR1
 1100 004c 7D3F553F 		.word	1062551421
 1101              		.cfi_endproc
 1102              	.LFE51:
ARM GAS  C:\Users\HENRYA~1\AppData\Local\Temp\cchXA1T4.s 			page 32


 1103              		.size	Evaluar_Fitness, .-Evaluar_Fitness
 1104              		.section	.text.Espere,"ax",%progbits
 1105              		.align	2
 1106              		.global	Espere
 1107              		.code	16
 1108              		.thumb_func
 1109              		.type	Espere, %function
 1110              	Espere:
 1111              	.LFB52:
 241:main.c        ****     amplitud=0.0;
 1112              		.loc 1 241 0
 1113              		.cfi_startproc
 1114              		@ args = 0, pretend = 0, frame = 0
 1115              		@ frame_needed = 0, uses_anonymous_args = 0
 1116 0000 70B5     		push	{r4, r5, r6, lr}
 1117              		.cfi_def_cfa_offset 16
 1118              		.cfi_offset 4, -16
 1119              		.cfi_offset 5, -12
 1120              		.cfi_offset 6, -8
 1121              		.cfi_offset 14, -4
 242:main.c        ****     fase=0.0;
 1122              		.loc 1 242 0
 1123 0002 0C4E     		ldr	r6, .L71
 1124 0004 0024     		movs	r4, #0
 1125 0006 F460     		str	r4, [r6, #12]
 243:main.c        ****     offset=0.833;
 1126              		.loc 1 243 0
 1127 0008 B460     		str	r4, [r6, #8]
 244:main.c        ****     Enviar_Parametros(amplitud,fase,offset,V);
 1128              		.loc 1 244 0
 1129 000a 0B4D     		ldr	r5, .L71+4
 1130 000c 0B4B     		ldr	r3, .L71+8
 1131 000e 1D60     		str	r5, [r3]
 245:main.c        ****     CyDelay(1000);
 1132              		.loc 1 245 0
 1133 0010 2123     		movs	r3, #33
 1134 0012 2A1C     		adds	r2, r5, #0
 1135 0014 211C     		adds	r1, r4, #0
 1136 0016 201C     		adds	r0, r4, #0
 1137 0018 FFF7FEFF 		bl	Enviar_Parametros
 1138              	.LVL113:
 246:main.c        ****     Enviar_Parametros(0.0,fase,0.833,H);  
 1139              		.loc 1 246 0
 1140 001c FA20     		movs	r0, #250
 1141 001e 8000     		lsls	r0, r0, #2
 1142 0020 FFF7FEFF 		bl	CyDelay
 1143              	.LVL114:
 247:main.c        **** }
 1144              		.loc 1 247 0
 1145 0024 B168     		ldr	r1, [r6, #8]
 1146 0026 2023     		movs	r3, #32
 1147 0028 2A1C     		adds	r2, r5, #0
 1148 002a 201C     		adds	r0, r4, #0
 1149 002c FFF7FEFF 		bl	Enviar_Parametros
 1150              	.LVL115:
 248:main.c        **** 
 1151              		.loc 1 248 0
ARM GAS  C:\Users\HENRYA~1\AppData\Local\Temp\cchXA1T4.s 			page 33


 1152              		@ sp needed
 1153 0030 70BD     		pop	{r4, r5, r6, pc}
 1154              	.L72:
 1155 0032 C046     		.align	2
 1156              	.L71:
 1157 0034 00000000 		.word	.LANCHOR0
 1158 0038 7D3F553F 		.word	1062551421
 1159 003c 00000000 		.word	.LANCHOR1
 1160              		.cfi_endproc
 1161              	.LFE52:
 1162              		.size	Espere, .-Espere
 1163              		.global	__aeabi_fcmpgt
 1164              		.section	.text.Seleccion,"ax",%progbits
 1165              		.align	2
 1166              		.global	Seleccion
 1167              		.code	16
 1168              		.thumb_func
 1169              		.type	Seleccion, %function
 1170              	Seleccion:
 1171              	.LFB53:
 250:main.c        ****     Normalizar(Individuos);
 1172              		.loc 1 250 0
 1173              		.cfi_startproc
 1174              		@ args = 0, pretend = 0, frame = 0
 1175              		@ frame_needed = 0, uses_anonymous_args = 0
 1176 0000 F0B5     		push	{r4, r5, r6, r7, lr}
 1177              		.cfi_def_cfa_offset 20
 1178              		.cfi_offset 4, -20
 1179              		.cfi_offset 5, -16
 1180              		.cfi_offset 6, -12
 1181              		.cfi_offset 7, -8
 1182              		.cfi_offset 14, -4
 1183 0002 4746     		mov	r7, r8
 1184 0004 80B4     		push	{r7}
 1185              		.cfi_def_cfa_offset 24
 1186              		.cfi_offset 8, -24
 251:main.c        ****     int i=0,j=0;
 1187              		.loc 1 251 0
 1188 0006 3C4B     		ldr	r3, .L84
 1189 0008 5868     		ldr	r0, [r3, #4]
 1190 000a FFF7FEFF 		bl	Normalizar
 1191              	.LVL116:
 253:main.c        ****     bolita=0.0;
 1192              		.loc 1 253 0
 1193 000e 3B4B     		ldr	r3, .L84+4
 1194 0010 0022     		movs	r2, #0
 1195 0012 5A61     		str	r2, [r3, #20]
 254:main.c        ****     //Normalizar
 1196              		.loc 1 254 0
 1197 0014 9A61     		str	r2, [r3, #24]
 256:main.c        ****         Acu=Acu+Fitness_Normalizado[i];            
 1198              		.loc 1 256 0
 1199 0016 0024     		movs	r4, #0
 1200 0018 08E0     		b	.L74
 1201              	.LVL117:
 1202              	.L75:
 257:main.c        ****     }
ARM GAS  C:\Users\HENRYA~1\AppData\Local\Temp\cchXA1T4.s 			page 34


 1203              		.loc 1 257 0 discriminator 3
 1204 001a A200     		lsls	r2, r4, #2
 1205 001c 384B     		ldr	r3, .L84+8
 1206 001e D058     		ldr	r0, [r2, r3]
 1207 0020 364D     		ldr	r5, .L84+4
 1208 0022 6969     		ldr	r1, [r5, #20]
 1209 0024 FFF7FEFF 		bl	__aeabi_fadd
 1210              	.LVL118:
 1211 0028 6861     		str	r0, [r5, #20]
 256:main.c        ****         Acu=Acu+Fitness_Normalizado[i];            
 1212              		.loc 1 256 0 discriminator 3
 1213 002a 0134     		adds	r4, r4, #1
 1214              	.LVL119:
 1215              	.L74:
 256:main.c        ****         Acu=Acu+Fitness_Normalizado[i];            
 1216              		.loc 1 256 0 is_stmt 0 discriminator 1
 1217 002c 324B     		ldr	r3, .L84
 1218 002e 5D68     		ldr	r5, [r3, #4]
 1219 0030 AC42     		cmp	r4, r5
 1220 0032 F2DB     		blt	.L75
 1221 0034 0024     		movs	r4, #0
 1222              	.LVL120:
 1223 0036 08E0     		b	.L76
 1224              	.LVL121:
 1225              	.L77:
 260:main.c        ****     }    
 1226              		.loc 1 260 0 is_stmt 1 discriminator 3
 1227 0038 314E     		ldr	r6, .L84+8
 1228 003a A700     		lsls	r7, r4, #2
 1229 003c 2F4B     		ldr	r3, .L84+4
 1230 003e 5969     		ldr	r1, [r3, #20]
 1231 0040 B859     		ldr	r0, [r7, r6]
 1232 0042 FFF7FEFF 		bl	__aeabi_fdiv
 1233              	.LVL122:
 1234 0046 B851     		str	r0, [r7, r6]
 259:main.c        ****         Fitness_Normalizado[i]=Fitness_Normalizado[i]/Acu;            
 1235              		.loc 1 259 0 discriminator 3
 1236 0048 0134     		adds	r4, r4, #1
 1237              	.LVL123:
 1238              	.L76:
 259:main.c        ****         Fitness_Normalizado[i]=Fitness_Normalizado[i]/Acu;            
 1239              		.loc 1 259 0 is_stmt 0 discriminator 1
 1240 004a AC42     		cmp	r4, r5
 1241 004c F4DB     		blt	.L77
 262:main.c        ****     //Ruleta
 1242              		.loc 1 262 0 is_stmt 1
 1243 004e 0022     		movs	r2, #0
 1244 0050 2A4B     		ldr	r3, .L84+4
 1245 0052 5A61     		str	r2, [r3, #20]
 1246              	.LVL124:
 264:main.c        ****         bolita=randd();
 1247              		.loc 1 264 0
 1248 0054 0027     		movs	r7, #0
 1249 0056 1FE0     		b	.L78
 1250              	.LVL125:
 1251              	.L81:
 265:main.c        ****         Acu=0.0;
ARM GAS  C:\Users\HENRYA~1\AppData\Local\Temp\cchXA1T4.s 			page 35


 1252              		.loc 1 265 0
 1253 0058 FFF7FEFF 		bl	randd
 1254              	.LVL126:
 1255 005c FFF7FEFF 		bl	__aeabi_d2f
 1256              	.LVL127:
 1257 0060 051C     		adds	r5, r0, #0
 1258 0062 264B     		ldr	r3, .L84+4
 1259 0064 9861     		str	r0, [r3, #24]
 266:main.c        ****         j=0;
 1260              		.loc 1 266 0
 1261 0066 0022     		movs	r2, #0
 1262 0068 5A61     		str	r2, [r3, #20]
 1263              	.LVL128:
 267:main.c        ****         while (Acu<bolita){
 1264              		.loc 1 267 0
 1265 006a 0024     		movs	r4, #0
 268:main.c        ****             Acu=Fitness_Normalizado[j]+Acu;
 1266              		.loc 1 268 0
 1267 006c 0BE0     		b	.L79
 1268              	.LVL129:
 1269              	.L80:
 269:main.c        ****             indice[i]=j;
 1270              		.loc 1 269 0
 1271 006e A200     		lsls	r2, r4, #2
 1272 0070 234B     		ldr	r3, .L84+8
 1273 0072 D158     		ldr	r1, [r2, r3]
 1274 0074 301C     		adds	r0, r6, #0
 1275 0076 FFF7FEFF 		bl	__aeabi_fadd
 1276              	.LVL130:
 1277 007a 204B     		ldr	r3, .L84+4
 1278 007c 5861     		str	r0, [r3, #20]
 270:main.c        ****             j++;
 1279              		.loc 1 270 0
 1280 007e BB00     		lsls	r3, r7, #2
 1281 0080 204A     		ldr	r2, .L84+12
 1282 0082 9C50     		str	r4, [r3, r2]
 271:main.c        ****         }
 1283              		.loc 1 271 0
 1284 0084 0134     		adds	r4, r4, #1
 1285              	.LVL131:
 1286              	.L79:
 268:main.c        ****             Acu=Fitness_Normalizado[j]+Acu;
 1287              		.loc 1 268 0
 1288 0086 1D4B     		ldr	r3, .L84+4
 1289 0088 5E69     		ldr	r6, [r3, #20]
 1290 008a 311C     		adds	r1, r6, #0
 1291 008c 281C     		adds	r0, r5, #0
 1292 008e FFF7FEFF 		bl	__aeabi_fcmpgt
 1293              	.LVL132:
 1294 0092 0028     		cmp	r0, #0
 1295 0094 EBD1     		bne	.L80
 264:main.c        ****         bolita=randd();
 1296              		.loc 1 264 0 discriminator 2
 1297 0096 0137     		adds	r7, r7, #1
 1298              	.LVL133:
 1299              	.L78:
 264:main.c        ****         bolita=randd();
ARM GAS  C:\Users\HENRYA~1\AppData\Local\Temp\cchXA1T4.s 			page 36


 1300              		.loc 1 264 0 is_stmt 0 discriminator 1
 1301 0098 174B     		ldr	r3, .L84
 1302 009a 5E68     		ldr	r6, [r3, #4]
 1303 009c B742     		cmp	r7, r6
 1304 009e DBDB     		blt	.L81
 1305 00a0 0022     		movs	r2, #0
 1306 00a2 23E0     		b	.L82
 1307              	.LVL134:
 1308              	.L83:
 276:main.c        ****         Poblacion_1[1][i]=Poblacion[1][indice[i]];
 1309              		.loc 1 276 0 is_stmt 1 discriminator 3
 1310 00a4 9100     		lsls	r1, r2, #2
 1311 00a6 174B     		ldr	r3, .L84+12
 1312 00a8 CB58     		ldr	r3, [r1, r3]
 1313 00aa 1748     		ldr	r0, .L84+16
 1314 00ac 8046     		mov	r8, r0
 1315 00ae 9F00     		lsls	r7, r3, #2
 1316 00b0 1648     		ldr	r0, .L84+20
 1317 00b2 4446     		mov	r4, r8
 1318 00b4 3D59     		ldr	r5, [r7, r4]
 1319 00b6 0D50     		str	r5, [r1, r0]
 277:main.c        ****         Poblacion_1[2][i]=Poblacion[2][indice[i]];
 1320              		.loc 1 277 0 discriminator 3
 1321 00b8 1D00     		movs	r5, r3
 1322 00ba 0A35     		adds	r5, r5, #10
 1323 00bc AD00     		lsls	r5, r5, #2
 1324 00be 2D59     		ldr	r5, [r5, r4]
 1325 00c0 AC46     		mov	ip, r5
 1326 00c2 1500     		movs	r5, r2
 1327 00c4 0A35     		adds	r5, r5, #10
 1328 00c6 AD00     		lsls	r5, r5, #2
 1329 00c8 6446     		mov	r4, ip
 1330 00ca 2C50     		str	r4, [r5, r0]
 278:main.c        ****         Fitness_1[i]=Fitness_Normalizado[indice[i]];
 1331              		.loc 1 278 0 discriminator 3
 1332 00cc 1433     		adds	r3, r3, #20
 1333 00ce 9B00     		lsls	r3, r3, #2
 1334 00d0 4446     		mov	r4, r8
 1335 00d2 1C59     		ldr	r4, [r3, r4]
 1336 00d4 1300     		movs	r3, r2
 1337 00d6 1433     		adds	r3, r3, #20
 1338 00d8 9B00     		lsls	r3, r3, #2
 1339 00da 1C50     		str	r4, [r3, r0]
 279:main.c        ****         Fitness[i]=Fitness_Normalizado[i];
 1340              		.loc 1 279 0 discriminator 3
 1341 00dc 084B     		ldr	r3, .L84+8
 1342 00de FC58     		ldr	r4, [r7, r3]
 1343 00e0 0B48     		ldr	r0, .L84+24
 1344 00e2 0C50     		str	r4, [r1, r0]
 280:main.c        ****     }     
 1345              		.loc 1 280 0 discriminator 3
 1346 00e4 C858     		ldr	r0, [r1, r3]
 1347 00e6 0B4B     		ldr	r3, .L84+28
 1348 00e8 C850     		str	r0, [r1, r3]
 275:main.c        ****         Poblacion_1[0][i]=Poblacion[0][indice[i]];
 1349              		.loc 1 275 0 discriminator 3
 1350 00ea 0132     		adds	r2, r2, #1
ARM GAS  C:\Users\HENRYA~1\AppData\Local\Temp\cchXA1T4.s 			page 37


 1351              	.LVL135:
 1352              	.L82:
 275:main.c        ****         Poblacion_1[0][i]=Poblacion[0][indice[i]];
 1353              		.loc 1 275 0 is_stmt 0 discriminator 1
 1354 00ec B242     		cmp	r2, r6
 1355 00ee D9DB     		blt	.L83
 282:main.c        **** 
 1356              		.loc 1 282 0 is_stmt 1
 1357              		@ sp needed
 1358 00f0 04BC     		pop	{r2}
 1359 00f2 9046     		mov	r8, r2
 1360 00f4 F0BD     		pop	{r4, r5, r6, r7, pc}
 1361              	.L85:
 1362 00f6 C046     		.align	2
 1363              	.L84:
 1364 00f8 00000000 		.word	.LANCHOR1
 1365 00fc 00000000 		.word	.LANCHOR0
 1366 0100 00000000 		.word	Fitness_Normalizado
 1367 0104 00000000 		.word	indice
 1368 0108 00000000 		.word	Poblacion
 1369 010c 00000000 		.word	Poblacion_1
 1370 0110 00000000 		.word	Fitness_1
 1371 0114 00000000 		.word	Fitness
 1372              		.cfi_endproc
 1373              	.LFE53:
 1374              		.size	Seleccion, .-Seleccion
 1375              		.global	__aeabi_d2iz
 1376              		.section	.text.Cruce,"ax",%progbits
 1377              		.align	2
 1378              		.global	Cruce
 1379              		.code	16
 1380              		.thumb_func
 1381              		.type	Cruce, %function
 1382              	Cruce:
 1383              	.LFB54:
 284:main.c        ****     int papa=(int)Individuos*randd();
 1384              		.loc 1 284 0
 1385              		.cfi_startproc
 1386              		@ args = 0, pretend = 0, frame = 0
 1387              		@ frame_needed = 0, uses_anonymous_args = 0
 1388 0000 F8B5     		push	{r3, r4, r5, r6, r7, lr}
 1389              		.cfi_def_cfa_offset 24
 1390              		.cfi_offset 3, -24
 1391              		.cfi_offset 4, -20
 1392              		.cfi_offset 5, -16
 1393              		.cfi_offset 6, -12
 1394              		.cfi_offset 7, -8
 1395              		.cfi_offset 14, -4
 285:main.c        ****     int mama=(int)Individuos*randd();
 1396              		.loc 1 285 0
 1397 0002 264C     		ldr	r4, .L87
 1398 0004 6068     		ldr	r0, [r4, #4]
 1399 0006 FFF7FEFF 		bl	__aeabi_i2d
 1400              	.LVL136:
 1401 000a 0600     		movs	r6, r0
 1402 000c 0F00     		movs	r7, r1
 1403 000e FFF7FEFF 		bl	randd
ARM GAS  C:\Users\HENRYA~1\AppData\Local\Temp\cchXA1T4.s 			page 38


 1404              	.LVL137:
 1405 0012 0200     		movs	r2, r0
 1406 0014 0B00     		movs	r3, r1
 1407 0016 3000     		movs	r0, r6
 1408 0018 3900     		movs	r1, r7
 1409 001a FFF7FEFF 		bl	__aeabi_dmul
 1410              	.LVL138:
 1411 001e FFF7FEFF 		bl	__aeabi_d2iz
 1412              	.LVL139:
 1413 0022 0500     		movs	r5, r0
 1414              	.LVL140:
 286:main.c        ****     Poblacion_1[0][papa]=Poblacion_1[0][papa]+Poblacion_1[0][mama];
 1415              		.loc 1 286 0
 1416 0024 6068     		ldr	r0, [r4, #4]
 1417              	.LVL141:
 1418 0026 FFF7FEFF 		bl	__aeabi_i2d
 1419              	.LVL142:
 1420 002a 0600     		movs	r6, r0
 1421 002c 0F00     		movs	r7, r1
 1422 002e FFF7FEFF 		bl	randd
 1423              	.LVL143:
 1424 0032 0200     		movs	r2, r0
 1425 0034 0B00     		movs	r3, r1
 1426 0036 3000     		movs	r0, r6
 1427 0038 3900     		movs	r1, r7
 1428 003a FFF7FEFF 		bl	__aeabi_dmul
 1429              	.LVL144:
 1430 003e FFF7FEFF 		bl	__aeabi_d2iz
 1431              	.LVL145:
 1432 0042 0600     		movs	r6, r0
 1433              	.LVL146:
 287:main.c        ****     Poblacion_1[0][papa]=Poblacion_1[0][papa]/2;
 1434              		.loc 1 287 0
 1435 0044 164C     		ldr	r4, .L87+4
 1436 0046 AF00     		lsls	r7, r5, #2
 1437 0048 8300     		lsls	r3, r0, #2
 1438 004a 1959     		ldr	r1, [r3, r4]
 1439 004c 3859     		ldr	r0, [r7, r4]
 1440              	.LVL147:
 1441 004e FFF7FEFF 		bl	__aeabi_fadd
 1442              	.LVL148:
 1443 0052 3851     		str	r0, [r7, r4]
 288:main.c        ****     Poblacion_1[1][papa]=Poblacion_1[1][papa]+Poblacion_1[1][mama];
 1444              		.loc 1 288 0
 1445 0054 FC21     		movs	r1, #252
 1446 0056 8905     		lsls	r1, r1, #22
 1447 0058 FFF7FEFF 		bl	__aeabi_fmul
 1448              	.LVL149:
 1449 005c 3851     		str	r0, [r7, r4]
 289:main.c        ****     Poblacion_1[1][papa]=Poblacion_1[1][papa]/2;
 1450              		.loc 1 289 0
 1451 005e 2F00     		movs	r7, r5
 1452 0060 0A37     		adds	r7, r7, #10
 1453 0062 BF00     		lsls	r7, r7, #2
 1454 0064 3300     		movs	r3, r6
 1455 0066 0A33     		adds	r3, r3, #10
 1456 0068 9B00     		lsls	r3, r3, #2
ARM GAS  C:\Users\HENRYA~1\AppData\Local\Temp\cchXA1T4.s 			page 39


 1457 006a 1959     		ldr	r1, [r3, r4]
 1458 006c 3859     		ldr	r0, [r7, r4]
 1459 006e FFF7FEFF 		bl	__aeabi_fadd
 1460              	.LVL150:
 1461 0072 3851     		str	r0, [r7, r4]
 290:main.c        ****     Poblacion_1[2][papa]=Poblacion_1[2][papa]+Poblacion_1[2][mama];
 1462              		.loc 1 290 0
 1463 0074 FC21     		movs	r1, #252
 1464 0076 8905     		lsls	r1, r1, #22
 1465 0078 FFF7FEFF 		bl	__aeabi_fmul
 1466              	.LVL151:
 1467 007c 3851     		str	r0, [r7, r4]
 291:main.c        ****     Poblacion_1[2][papa]=Poblacion_1[2][papa]/2;
 1468              		.loc 1 291 0
 1469 007e 1435     		adds	r5, r5, #20
 1470              	.LVL152:
 1471 0080 AD00     		lsls	r5, r5, #2
 1472              	.LVL153:
 1473 0082 1436     		adds	r6, r6, #20
 1474              	.LVL154:
 1475 0084 B600     		lsls	r6, r6, #2
 1476              	.LVL155:
 1477 0086 3159     		ldr	r1, [r6, r4]
 1478 0088 2859     		ldr	r0, [r5, r4]
 1479 008a FFF7FEFF 		bl	__aeabi_fadd
 1480              	.LVL156:
 1481 008e 2851     		str	r0, [r5, r4]
 292:main.c        **** }
 1482              		.loc 1 292 0
 1483 0090 FC21     		movs	r1, #252
 1484 0092 8905     		lsls	r1, r1, #22
 1485 0094 FFF7FEFF 		bl	__aeabi_fmul
 1486              	.LVL157:
 1487 0098 2851     		str	r0, [r5, r4]
 293:main.c        **** 
 1488              		.loc 1 293 0
 1489              		@ sp needed
 1490 009a F8BD     		pop	{r3, r4, r5, r6, r7, pc}
 1491              	.L88:
 1492              		.align	2
 1493              	.L87:
 1494 009c 00000000 		.word	.LANCHOR1
 1495 00a0 00000000 		.word	Poblacion_1
 1496              		.cfi_endproc
 1497              	.LFE54:
 1498              		.size	Cruce, .-Cruce
 1499              		.section	.text.Mutacion,"ax",%progbits
 1500              		.align	2
 1501              		.global	Mutacion
 1502              		.code	16
 1503              		.thumb_func
 1504              		.type	Mutacion, %function
 1505              	Mutacion:
 1506              	.LFB55:
 295:main.c        ****     int Selector=(int)Individuos*randd();
 1507              		.loc 1 295 0
 1508              		.cfi_startproc
ARM GAS  C:\Users\HENRYA~1\AppData\Local\Temp\cchXA1T4.s 			page 40


 1509              		@ args = 0, pretend = 0, frame = 8
 1510              		@ frame_needed = 0, uses_anonymous_args = 0
 1511 0000 F0B5     		push	{r4, r5, r6, r7, lr}
 1512              		.cfi_def_cfa_offset 20
 1513              		.cfi_offset 4, -20
 1514              		.cfi_offset 5, -16
 1515              		.cfi_offset 6, -12
 1516              		.cfi_offset 7, -8
 1517              		.cfi_offset 14, -4
 1518 0002 5746     		mov	r7, r10
 1519 0004 80B4     		push	{r7}
 1520              		.cfi_def_cfa_offset 24
 1521              		.cfi_offset 10, -24
 1522 0006 82B0     		sub	sp, sp, #8
 1523              		.cfi_def_cfa_offset 32
 296:main.c        ****     int componente=(int)randd()*2;
 1524              		.loc 1 296 0
 1525 0008 374B     		ldr	r3, .L93
 1526 000a 5868     		ldr	r0, [r3, #4]
 1527 000c FFF7FEFF 		bl	__aeabi_i2d
 1528              	.LVL158:
 1529 0010 0400     		movs	r4, r0
 1530 0012 0D00     		movs	r5, r1
 1531 0014 FFF7FEFF 		bl	randd
 1532              	.LVL159:
 1533 0018 0200     		movs	r2, r0
 1534 001a 0B00     		movs	r3, r1
 1535 001c 2000     		movs	r0, r4
 1536 001e 2900     		movs	r1, r5
 1537 0020 FFF7FEFF 		bl	__aeabi_dmul
 1538              	.LVL160:
 1539 0024 FFF7FEFF 		bl	__aeabi_d2iz
 1540              	.LVL161:
 1541 0028 0500     		movs	r5, r0
 1542              	.LVL162:
 297:main.c        ****     if(componente==0){Poblacion_1[componente][Selector]=Poblacion_1[componente][Selector]+random_ga
 1543              		.loc 1 297 0
 1544 002a FFF7FEFF 		bl	randd
 1545              	.LVL163:
 1546 002e FFF7FEFF 		bl	__aeabi_d2iz
 1547              	.LVL164:
 1548 0032 4400     		lsls	r4, r0, #1
 1549              	.LVL165:
 298:main.c        ****     else if(componente==1){Poblacion_1[componente][Selector]=Poblacion_1[componente][Selector]+rand
 1550              		.loc 1 298 0
 1551 0034 1AD1     		bne	.L90
 298:main.c        ****     else if(componente==1){Poblacion_1[componente][Selector]=Poblacion_1[componente][Selector]+rand
 1552              		.loc 1 298 0 is_stmt 0 discriminator 1
 1553 0036 2D4E     		ldr	r6, .L93+4
 1554 0038 A700     		lsls	r7, r4, #2
 1555 003a 3A19     		adds	r2, r7, r4
 1556 003c 5300     		lsls	r3, r2, #1
 1557 003e 5B19     		adds	r3, r3, r5
 1558 0040 9B00     		lsls	r3, r3, #2
 1559 0042 9B59     		ldr	r3, [r3, r6]
 1560 0044 9A46     		mov	r10, r3
 1561 0046 FFF7FEFF 		bl	random_gauss
ARM GAS  C:\Users\HENRYA~1\AppData\Local\Temp\cchXA1T4.s 			page 41


 1562              	.LVL166:
 1563 004a 0090     		str	r0, [sp]
 1564 004c 0191     		str	r1, [sp, #4]
 1565 004e 5046     		mov	r0, r10
 1566 0050 FFF7FEFF 		bl	__aeabi_f2d
 1567              	.LVL167:
 1568 0054 009A     		ldr	r2, [sp]
 1569 0056 019B     		ldr	r3, [sp, #4]
 1570 0058 FFF7FEFF 		bl	__aeabi_dadd
 1571              	.LVL168:
 1572 005c 3C19     		adds	r4, r7, r4
 1573              	.LVL169:
 1574 005e 6300     		lsls	r3, r4, #1
 1575 0060 5D19     		adds	r5, r3, r5
 1576              	.LVL170:
 1577 0062 AD00     		lsls	r5, r5, #2
 1578 0064 FFF7FEFF 		bl	__aeabi_d2f
 1579              	.LVL171:
 1580 0068 A851     		str	r0, [r5, r6]
 1581 006a 38E0     		b	.L89
 1582              	.LVL172:
 1583              	.L90:
 299:main.c        ****     else if(componente==2){Poblacion_1[componente][Selector]=Poblacion_1[componente][Selector]+rand
 1584              		.loc 1 299 0 is_stmt 1
 1585 006c 012C     		cmp	r4, #1
 1586 006e 1AD1     		bne	.L92
 299:main.c        ****     else if(componente==2){Poblacion_1[componente][Selector]=Poblacion_1[componente][Selector]+rand
 1587              		.loc 1 299 0 is_stmt 0 discriminator 1
 1588 0070 1E4E     		ldr	r6, .L93+4
 1589 0072 A700     		lsls	r7, r4, #2
 1590 0074 3A19     		adds	r2, r7, r4
 1591 0076 5300     		lsls	r3, r2, #1
 1592 0078 5B19     		adds	r3, r3, r5
 1593 007a 9B00     		lsls	r3, r3, #2
 1594 007c 9B59     		ldr	r3, [r3, r6]
 1595 007e 9A46     		mov	r10, r3
 1596 0080 FFF7FEFF 		bl	random_gauss
 1597              	.LVL173:
 1598 0084 0090     		str	r0, [sp]
 1599 0086 0191     		str	r1, [sp, #4]
 1600 0088 5046     		mov	r0, r10
 1601 008a FFF7FEFF 		bl	__aeabi_f2d
 1602              	.LVL174:
 1603 008e 009A     		ldr	r2, [sp]
 1604 0090 019B     		ldr	r3, [sp, #4]
 1605 0092 FFF7FEFF 		bl	__aeabi_dadd
 1606              	.LVL175:
 1607 0096 3C19     		adds	r4, r7, r4
 1608              	.LVL176:
 1609 0098 6300     		lsls	r3, r4, #1
 1610 009a 5D19     		adds	r5, r3, r5
 1611              	.LVL177:
 1612 009c AD00     		lsls	r5, r5, #2
 1613 009e FFF7FEFF 		bl	__aeabi_d2f
 1614              	.LVL178:
 1615 00a2 A851     		str	r0, [r5, r6]
 1616 00a4 1BE0     		b	.L89
ARM GAS  C:\Users\HENRYA~1\AppData\Local\Temp\cchXA1T4.s 			page 42


 1617              	.LVL179:
 1618              	.L92:
 300:main.c        **** }
 1619              		.loc 1 300 0 is_stmt 1
 1620 00a6 022C     		cmp	r4, #2
 1621 00a8 19D1     		bne	.L89
 300:main.c        **** }
 1622              		.loc 1 300 0 is_stmt 0 discriminator 1
 1623 00aa 104E     		ldr	r6, .L93+4
 1624 00ac A700     		lsls	r7, r4, #2
 1625 00ae 3A19     		adds	r2, r7, r4
 1626 00b0 5300     		lsls	r3, r2, #1
 1627 00b2 5B19     		adds	r3, r3, r5
 1628 00b4 9B00     		lsls	r3, r3, #2
 1629 00b6 9B59     		ldr	r3, [r3, r6]
 1630 00b8 9A46     		mov	r10, r3
 1631 00ba FFF7FEFF 		bl	random_gauss
 1632              	.LVL180:
 1633 00be 0090     		str	r0, [sp]
 1634 00c0 0191     		str	r1, [sp, #4]
 1635 00c2 5046     		mov	r0, r10
 1636 00c4 FFF7FEFF 		bl	__aeabi_f2d
 1637              	.LVL181:
 1638 00c8 009A     		ldr	r2, [sp]
 1639 00ca 019B     		ldr	r3, [sp, #4]
 1640 00cc FFF7FEFF 		bl	__aeabi_dadd
 1641              	.LVL182:
 1642 00d0 3C19     		adds	r4, r7, r4
 1643              	.LVL183:
 1644 00d2 6300     		lsls	r3, r4, #1
 1645 00d4 5D19     		adds	r5, r3, r5
 1646              	.LVL184:
 1647 00d6 AD00     		lsls	r5, r5, #2
 1648 00d8 FFF7FEFF 		bl	__aeabi_d2f
 1649              	.LVL185:
 1650 00dc A851     		str	r0, [r5, r6]
 1651              	.L89:
 301:main.c        **** 
 1652              		.loc 1 301 0 is_stmt 1
 1653 00de 02B0     		add	sp, sp, #8
 1654              		@ sp needed
 1655 00e0 04BC     		pop	{r2}
 1656 00e2 9246     		mov	r10, r2
 1657 00e4 F0BD     		pop	{r4, r5, r6, r7, pc}
 1658              	.L94:
 1659 00e6 C046     		.align	2
 1660              	.L93:
 1661 00e8 00000000 		.word	.LANCHOR1
 1662 00ec 00000000 		.word	Poblacion_1
 1663              		.cfi_endproc
 1664              	.LFE55:
 1665              		.size	Mutacion, .-Mutacion
 1666              		.section	.text.Reemplazo_Generacional,"ax",%progbits
 1667              		.align	2
 1668              		.global	Reemplazo_Generacional
 1669              		.code	16
 1670              		.thumb_func
ARM GAS  C:\Users\HENRYA~1\AppData\Local\Temp\cchXA1T4.s 			page 43


 1671              		.type	Reemplazo_Generacional, %function
 1672              	Reemplazo_Generacional:
 1673              	.LFB56:
 303:main.c        ****     int i=0;
 1674              		.loc 1 303 0
 1675              		.cfi_startproc
 1676              		@ args = 0, pretend = 0, frame = 0
 1677              		@ frame_needed = 0, uses_anonymous_args = 0
 1678 0000 10B5     		push	{r4, lr}
 1679              		.cfi_def_cfa_offset 8
 1680              		.cfi_offset 4, -8
 1681              		.cfi_offset 14, -4
 1682              	.LVL186:
 305:main.c        ****         if(Fitness_1[i]<Fitness[i]){
 1683              		.loc 1 305 0
 1684 0002 0024     		movs	r4, #0
 1685 0004 18E0     		b	.L96
 1686              	.LVL187:
 1687              	.L99:
 306:main.c        ****             Poblacion[0][i]=Poblacion_1[0][i];
 1688              		.loc 1 306 0
 1689 0006 A300     		lsls	r3, r4, #2
 1690 0008 0E4A     		ldr	r2, .L101
 1691 000a 9858     		ldr	r0, [r3, r2]
 1692 000c 0E4A     		ldr	r2, .L101+4
 1693 000e 9958     		ldr	r1, [r3, r2]
 1694 0010 FFF7FEFF 		bl	__aeabi_fcmplt
 1695              	.LVL188:
 1696 0014 0028     		cmp	r0, #0
 1697 0016 0ED0     		beq	.L97
 307:main.c        ****             Poblacion[1][i]=Poblacion_1[1][i];
 1698              		.loc 1 307 0
 1699 0018 0C49     		ldr	r1, .L101+8
 1700 001a A300     		lsls	r3, r4, #2
 1701 001c 0C4A     		ldr	r2, .L101+12
 1702 001e 5858     		ldr	r0, [r3, r1]
 1703 0020 9850     		str	r0, [r3, r2]
 308:main.c        ****             Poblacion[2][i]=Poblacion_1[2][i];
 1704              		.loc 1 308 0
 1705 0022 2300     		movs	r3, r4
 1706 0024 0A33     		adds	r3, r3, #10
 1707 0026 9B00     		lsls	r3, r3, #2
 1708 0028 5858     		ldr	r0, [r3, r1]
 1709 002a 9850     		str	r0, [r3, r2]
 309:main.c        ****         }
 1710              		.loc 1 309 0
 1711 002c 2300     		movs	r3, r4
 1712 002e 1433     		adds	r3, r3, #20
 1713 0030 9B00     		lsls	r3, r3, #2
 1714 0032 5958     		ldr	r1, [r3, r1]
 1715 0034 9950     		str	r1, [r3, r2]
 1716              	.L97:
 305:main.c        ****         if(Fitness_1[i]<Fitness[i]){
 1717              		.loc 1 305 0 discriminator 2
 1718 0036 0134     		adds	r4, r4, #1
 1719              	.LVL189:
 1720              	.L96:
ARM GAS  C:\Users\HENRYA~1\AppData\Local\Temp\cchXA1T4.s 			page 44


 305:main.c        ****         if(Fitness_1[i]<Fitness[i]){
 1721              		.loc 1 305 0 is_stmt 0 discriminator 1
 1722 0038 064B     		ldr	r3, .L101+16
 1723 003a 5B68     		ldr	r3, [r3, #4]
 1724 003c 9C42     		cmp	r4, r3
 1725 003e E2DB     		blt	.L99
 312:main.c        **** 
 1726              		.loc 1 312 0 is_stmt 1
 1727              		@ sp needed
 1728              	.LVL190:
 1729 0040 10BD     		pop	{r4, pc}
 1730              	.L102:
 1731 0042 C046     		.align	2
 1732              	.L101:
 1733 0044 00000000 		.word	Fitness_1
 1734 0048 00000000 		.word	Fitness
 1735 004c 00000000 		.word	Poblacion_1
 1736 0050 00000000 		.word	Poblacion
 1737 0054 00000000 		.word	.LANCHOR1
 1738              		.cfi_endproc
 1739              	.LFE56:
 1740              		.size	Reemplazo_Generacional, .-Reemplazo_Generacional
 1741              		.global	__aeabi_ui2f
 1742              		.section	.text.A_G,"ax",%progbits
 1743              		.align	2
 1744              		.global	A_G
 1745              		.code	16
 1746              		.thumb_func
 1747              		.type	A_G, %function
 1748              	A_G:
 1749              	.LFB57:
 314:main.c        ****     float Prob_c=0.5;
 1750              		.loc 1 314 0
 1751              		.cfi_startproc
 1752              		@ args = 0, pretend = 0, frame = 0
 1753              		@ frame_needed = 0, uses_anonymous_args = 0
 1754 0000 70B5     		push	{r4, r5, r6, lr}
 1755              		.cfi_def_cfa_offset 16
 1756              		.cfi_offset 4, -16
 1757              		.cfi_offset 5, -12
 1758              		.cfi_offset 6, -8
 1759              		.cfi_offset 14, -4
 1760              	.LVL191:
 318:main.c        ****         case 0:
 1761              		.loc 1 318 0
 1762 0002 374B     		ldr	r3, .L119
 1763 0004 9B68     		ldr	r3, [r3, #8]
 1764 0006 012B     		cmp	r3, #1
 1765 0008 14D0     		beq	.L105
 1766 000a 02DC     		bgt	.L106
 1767 000c 002B     		cmp	r3, #0
 1768 000e 05D0     		beq	.L107
 1769 0010 65E0     		b	.L103
 1770              	.L106:
 1771 0012 022B     		cmp	r3, #2
 1772 0014 19D0     		beq	.L108
 1773 0016 032B     		cmp	r3, #3
ARM GAS  C:\Users\HENRYA~1\AppData\Local\Temp\cchXA1T4.s 			page 45


 1774 0018 33D0     		beq	.L109
 1775 001a 60E0     		b	.L103
 1776              	.L107:
 320:main.c        ****             Reemplazo_Generacional();
 1777              		.loc 1 320 0
 1778 001c 304C     		ldr	r4, .L119
 1779 001e 6068     		ldr	r0, [r4, #4]
 1780 0020 FFF7FEFF 		bl	Normalizar2
 1781              	.LVL192:
 321:main.c        ****             puntero=0;
 1782              		.loc 1 321 0
 1783 0024 FFF7FEFF 		bl	Reemplazo_Generacional
 1784              	.LVL193:
 322:main.c        ****             flag=1;        
 1785              		.loc 1 322 0
 1786 0028 0022     		movs	r2, #0
 1787 002a 2E4B     		ldr	r3, .L119+4
 1788 002c DA61     		str	r2, [r3, #28]
 323:main.c        ****             break;
 1789              		.loc 1 323 0
 1790 002e 0123     		movs	r3, #1
 1791 0030 A360     		str	r3, [r4, #8]
 324:main.c        ****         case 1:
 1792              		.loc 1 324 0
 1793 0032 54E0     		b	.L103
 1794              	.L105:
 326:main.c        ****             Seleccion();
 1795              		.loc 1 326 0
 1796 0034 FFF7FEFF 		bl	Espere
 1797              	.LVL194:
 327:main.c        ****             Max_Conta=5;
 1798              		.loc 1 327 0
 1799 0038 FFF7FEFF 		bl	Seleccion
 1800              	.LVL195:
 328:main.c        ****             flag=2;
 1801              		.loc 1 328 0
 1802 003c 0522     		movs	r2, #5
 1803 003e 294B     		ldr	r3, .L119+4
 1804 0040 1A62     		str	r2, [r3, #32]
 329:main.c        ****             break;
 1805              		.loc 1 329 0
 1806 0042 033A     		subs	r2, r2, #3
 1807 0044 264B     		ldr	r3, .L119
 1808 0046 9A60     		str	r2, [r3, #8]
 330:main.c        ****         case 2:
 1809              		.loc 1 330 0
 1810 0048 49E0     		b	.L103
 1811              	.L108:
 332:main.c        ****             if(Prob_c<Umbral_Cruce){
 1812              		.loc 1 332 0
 1813 004a FFF7FEFF 		bl	randd
 1814              	.LVL196:
 1815 004e FFF7FEFF 		bl	__aeabi_d2f
 1816              	.LVL197:
 333:main.c        ****                 Cruce();
 1817              		.loc 1 333 0
 1818 0052 234B     		ldr	r3, .L119
ARM GAS  C:\Users\HENRYA~1\AppData\Local\Temp\cchXA1T4.s 			page 46


 1819 0054 D968     		ldr	r1, [r3, #12]
 1820 0056 FFF7FEFF 		bl	__aeabi_fcmplt
 1821              	.LVL198:
 1822 005a 0028     		cmp	r0, #0
 1823 005c 01D0     		beq	.L110
 334:main.c        ****             }
 1824              		.loc 1 334 0
 1825 005e FFF7FEFF 		bl	Cruce
 1826              	.LVL199:
 1827              	.L110:
 336:main.c        ****             if(Prob_m<Umbral_Mutacion){
 1828              		.loc 1 336 0
 1829 0062 FFF7FEFF 		bl	randd
 1830              	.LVL200:
 1831 0066 FFF7FEFF 		bl	__aeabi_d2f
 1832              	.LVL201:
 337:main.c        ****                 Mutacion();
 1833              		.loc 1 337 0
 1834 006a 1D4B     		ldr	r3, .L119
 1835 006c 1969     		ldr	r1, [r3, #16]
 1836 006e FFF7FEFF 		bl	__aeabi_fcmplt
 1837              	.LVL202:
 1838 0072 0028     		cmp	r0, #0
 1839 0074 01D0     		beq	.L112
 338:main.c        ****             }
 1840              		.loc 1 338 0
 1841 0076 FFF7FEFF 		bl	Mutacion
 1842              	.LVL203:
 1843              	.L112:
 340:main.c        ****             break;
 1844              		.loc 1 340 0
 1845 007a 0322     		movs	r2, #3
 1846 007c 184B     		ldr	r3, .L119
 1847 007e 9A60     		str	r2, [r3, #8]
 341:main.c        ****         case 3:
 1848              		.loc 1 341 0
 1849 0080 2DE0     		b	.L103
 1850              	.LVL204:
 1851              	.L109:
 343:main.c        ****                 case 0:
 1852              		.loc 1 343 0
 1853 0082 184B     		ldr	r3, .L119+4
 1854 0084 5B6A     		ldr	r3, [r3, #36]
 1855 0086 012B     		cmp	r3, #1
 1856 0088 0CD0     		beq	.L114
 1857 008a 022B     		cmp	r3, #2
 1858 008c 12D0     		beq	.L115
 1859 008e 002B     		cmp	r3, #0
 1860 0090 25D1     		bne	.L103
 345:main.c        ****                     Evaluar_Fitness(puntero);
 1861              		.loc 1 345 0
 1862 0092 144C     		ldr	r4, .L119+4
 1863 0094 0133     		adds	r3, r3, #1
 1864 0096 6362     		str	r3, [r4, #36]
 346:main.c        ****                     Max_Conta=100;
 1865              		.loc 1 346 0
 1866 0098 E069     		ldr	r0, [r4, #28]
ARM GAS  C:\Users\HENRYA~1\AppData\Local\Temp\cchXA1T4.s 			page 47


 1867 009a FFF7FEFF 		bl	Evaluar_Fitness
 1868              	.LVL205:
 347:main.c        ****                 break;
 1869              		.loc 1 347 0
 1870 009e 6423     		movs	r3, #100
 1871 00a0 2362     		str	r3, [r4, #32]
 348:main.c        ****                 case 1:
 1872              		.loc 1 348 0
 1873 00a2 1CE0     		b	.L103
 1874              	.L114:
 350:main.c        ****                     Espere();
 1875              		.loc 1 350 0
 1876 00a4 0F4C     		ldr	r4, .L119+4
 1877 00a6 0223     		movs	r3, #2
 1878 00a8 6362     		str	r3, [r4, #36]
 351:main.c        ****                     Max_Conta=20;
 1879              		.loc 1 351 0
 1880 00aa FFF7FEFF 		bl	Espere
 1881              	.LVL206:
 352:main.c        ****                 break;
 1882              		.loc 1 352 0
 1883 00ae 1423     		movs	r3, #20
 1884 00b0 2362     		str	r3, [r4, #32]
 353:main.c        ****                 case 2:
 1885              		.loc 1 353 0
 1886 00b2 14E0     		b	.L103
 1887              	.L115:
 355:main.c        ****                     Fitness_1[puntero]=(float)dist;
 1888              		.loc 1 355 0
 1889 00b4 0B4D     		ldr	r5, .L119+4
 1890 00b6 0023     		movs	r3, #0
 1891 00b8 6B62     		str	r3, [r5, #36]
 356:main.c        ****                     puntero++;
 1892              		.loc 1 356 0
 1893 00ba EC69     		ldr	r4, [r5, #28]
 1894 00bc 2878     		ldrb	r0, [r5]
 1895 00be FFF7FEFF 		bl	__aeabi_ui2f
 1896              	.LVL207:
 1897 00c2 A200     		lsls	r2, r4, #2
 1898 00c4 084B     		ldr	r3, .L119+8
 1899 00c6 D050     		str	r0, [r2, r3]
 357:main.c        ****                     Max_Conta=5;
 1900              		.loc 1 357 0
 1901 00c8 0134     		adds	r4, r4, #1
 1902 00ca EC61     		str	r4, [r5, #28]
 358:main.c        ****                     if(puntero==Individuos){flag=0;}
 1903              		.loc 1 358 0
 1904 00cc 0523     		movs	r3, #5
 1905 00ce 2B62     		str	r3, [r5, #32]
 359:main.c        ****                 break;
 1906              		.loc 1 359 0
 1907 00d0 034B     		ldr	r3, .L119
 1908 00d2 5B68     		ldr	r3, [r3, #4]
 1909 00d4 9C42     		cmp	r4, r3
 1910 00d6 02D1     		bne	.L103
 359:main.c        ****                 break;
 1911              		.loc 1 359 0 is_stmt 0 discriminator 1
ARM GAS  C:\Users\HENRYA~1\AppData\Local\Temp\cchXA1T4.s 			page 48


 1912 00d8 0022     		movs	r2, #0
 1913 00da 014B     		ldr	r3, .L119
 1914 00dc 9A60     		str	r2, [r3, #8]
 1915              	.LVL208:
 1916              	.L103:
 364:main.c        **** 
 1917              		.loc 1 364 0 is_stmt 1
 1918              		@ sp needed
 1919 00de 70BD     		pop	{r4, r5, r6, pc}
 1920              	.L120:
 1921              		.align	2
 1922              	.L119:
 1923 00e0 00000000 		.word	.LANCHOR1
 1924 00e4 00000000 		.word	.LANCHOR0
 1925 00e8 00000000 		.word	Fitness_1
 1926              		.cfi_endproc
 1927              	.LFE57:
 1928              		.size	A_G, .-A_G
 1929              		.section	.text.Left_Move,"ax",%progbits
 1930              		.align	2
 1931              		.global	Left_Move
 1932              		.code	16
 1933              		.thumb_func
 1934              		.type	Left_Move, %function
 1935              	Left_Move:
 1936              	.LFB58:
 366:main.c        ****     Send_Angle(200);
 1937              		.loc 1 366 0
 1938              		.cfi_startproc
 1939              		@ args = 0, pretend = 0, frame = 0
 1940              		@ frame_needed = 0, uses_anonymous_args = 0
 1941 0000 70B5     		push	{r4, r5, r6, lr}
 1942              		.cfi_def_cfa_offset 16
 1943              		.cfi_offset 4, -16
 1944              		.cfi_offset 5, -12
 1945              		.cfi_offset 6, -8
 1946              		.cfi_offset 14, -4
 367:main.c        ****     int  i=0;
 1947              		.loc 1 367 0
 1948 0002 C820     		movs	r0, #200
 1949 0004 FFF7FEFF 		bl	Send_Angle
 1950              	.LVL209:
 370:main.c        ****         movimiento(i,512);
 1951              		.loc 1 370 0
 1952 0008 0024     		movs	r4, #0
 1953 000a 05E0     		b	.L122
 1954              	.LVL210:
 1955              	.L123:
 371:main.c        ****         }
 1956              		.loc 1 371 0 discriminator 3
 1957 000c 8021     		movs	r1, #128
 1958 000e 8900     		lsls	r1, r1, #2
 1959 0010 2000     		movs	r0, r4
 1960 0012 FFF7FEFF 		bl	movimiento
 1961              	.LVL211:
 370:main.c        ****         movimiento(i,512);
 1962              		.loc 1 370 0 discriminator 3
ARM GAS  C:\Users\HENRYA~1\AppData\Local\Temp\cchXA1T4.s 			page 49


 1963 0016 0134     		adds	r4, r4, #1
 1964              	.LVL212:
 1965              	.L122:
 370:main.c        ****         movimiento(i,512);
 1966              		.loc 1 370 0 is_stmt 0 discriminator 1
 1967 0018 2F4B     		ldr	r3, .L132
 1968 001a 5B68     		ldr	r3, [r3, #4]
 1969 001c 9C42     		cmp	r4, r3
 1970 001e F5DB     		blt	.L123
 373:main.c        ****     movimiento(cantidadM,675);//Ancla Trasera
 1971              		.loc 1 373 0 is_stmt 1
 1972 0020 FA24     		movs	r4, #250
 1973              	.LVL213:
 1974 0022 E400     		lsls	r4, r4, #3
 1975 0024 2000     		movs	r0, r4
 1976 0026 FFF7FEFF 		bl	CyDelay
 1977              	.LVL214:
 374:main.c        ****     CyDelay(2000);
 1978              		.loc 1 374 0
 1979 002a 2B4B     		ldr	r3, .L132
 1980 002c 5868     		ldr	r0, [r3, #4]
 1981 002e 2B49     		ldr	r1, .L132+4
 1982 0030 FFF7FEFF 		bl	movimiento
 1983              	.LVL215:
 375:main.c        ****     //Giro
 1984              		.loc 1 375 0
 1985 0034 2000     		movs	r0, r4
 1986 0036 FFF7FEFF 		bl	CyDelay
 1987              	.LVL216:
 377:main.c        ****         for(i=2;i<cantidadM;i=i+4){ 
 1988              		.loc 1 377 0
 1989 003a 0026     		movs	r6, #0
 1990 003c 35E0     		b	.L124
 1991              	.LVL217:
 1992              	.L125:
 379:main.c        ****             movimiento(i+1,750);
 1993              		.loc 1 379 0 discriminator 3
 1994 003e 2849     		ldr	r1, .L132+8
 1995 0040 2000     		movs	r0, r4
 1996 0042 FFF7FEFF 		bl	movimiento
 1997              	.LVL218:
 380:main.c        ****             }
 1998              		.loc 1 380 0 discriminator 3
 1999 0046 601C     		adds	r0, r4, #1
 2000 0048 2649     		ldr	r1, .L132+12
 2001 004a FFF7FEFF 		bl	movimiento
 2002              	.LVL219:
 378:main.c        ****             movimiento(i,650);
 2003              		.loc 1 378 0 discriminator 3
 2004 004e 0434     		adds	r4, r4, #4
 2005              	.LVL220:
 2006 0050 00E0     		b	.L128
 2007              	.LVL221:
 2008              	.L131:
 2009 0052 0224     		movs	r4, #2
 2010              	.L128:
 2011              	.LVL222:
ARM GAS  C:\Users\HENRYA~1\AppData\Local\Temp\cchXA1T4.s 			page 50


 378:main.c        ****             movimiento(i,650);
 2012              		.loc 1 378 0 is_stmt 0 discriminator 1
 2013 0054 204B     		ldr	r3, .L132
 2014 0056 5868     		ldr	r0, [r3, #4]
 2015 0058 8442     		cmp	r4, r0
 2016 005a F0DB     		blt	.L125
 382:main.c        ****         CyDelay(2000);
 2017              		.loc 1 382 0 is_stmt 1
 2018 005c 8021     		movs	r1, #128
 2019 005e 8900     		lsls	r1, r1, #2
 2020 0060 FFF7FEFF 		bl	movimiento
 2021              	.LVL223:
 383:main.c        ****         movimiento(0,350);//Ancla Delantera
 2022              		.loc 1 383 0
 2023 0064 FA24     		movs	r4, #250
 2024              	.LVL224:
 2025 0066 E400     		lsls	r4, r4, #3
 2026 0068 2000     		movs	r0, r4
 2027 006a FFF7FEFF 		bl	CyDelay
 2028              	.LVL225:
 384:main.c        ****         CyDelay(2000);
 2029              		.loc 1 384 0
 2030 006e AF21     		movs	r1, #175
 2031 0070 4900     		lsls	r1, r1, #1
 2032 0072 0020     		movs	r0, #0
 2033 0074 FFF7FEFF 		bl	movimiento
 2034              	.LVL226:
 385:main.c        ****         for(i=2;i<cantidadM;i=i+4){ //Alineación
 2035              		.loc 1 385 0
 2036 0078 2000     		movs	r0, r4
 2037 007a FFF7FEFF 		bl	CyDelay
 2038              	.LVL227:
 386:main.c        ****             movimiento(i,512);
 2039              		.loc 1 386 0
 2040 007e 0224     		movs	r4, #2
 2041 0080 0AE0     		b	.L126
 2042              	.LVL228:
 2043              	.L127:
 387:main.c        ****             movimiento(i+1,512);
 2044              		.loc 1 387 0 discriminator 3
 2045 0082 8025     		movs	r5, #128
 2046 0084 AD00     		lsls	r5, r5, #2
 2047 0086 2900     		movs	r1, r5
 2048 0088 2000     		movs	r0, r4
 2049 008a FFF7FEFF 		bl	movimiento
 2050              	.LVL229:
 388:main.c        ****         }    
 2051              		.loc 1 388 0 discriminator 3
 2052 008e 601C     		adds	r0, r4, #1
 2053 0090 2900     		movs	r1, r5
 2054 0092 FFF7FEFF 		bl	movimiento
 2055              	.LVL230:
 386:main.c        ****             movimiento(i,512);
 2056              		.loc 1 386 0 discriminator 3
 2057 0096 0434     		adds	r4, r4, #4
 2058              	.LVL231:
 2059              	.L126:
ARM GAS  C:\Users\HENRYA~1\AppData\Local\Temp\cchXA1T4.s 			page 51


 386:main.c        ****             movimiento(i,512);
 2060              		.loc 1 386 0 is_stmt 0 discriminator 1
 2061 0098 0F4B     		ldr	r3, .L132
 2062 009a 5B68     		ldr	r3, [r3, #4]
 2063 009c 9C42     		cmp	r4, r3
 2064 009e F0DB     		blt	.L127
 390:main.c        ****     }         
 2065              		.loc 1 390 0 is_stmt 1 discriminator 2
 2066 00a0 FA20     		movs	r0, #250
 2067 00a2 C000     		lsls	r0, r0, #3
 2068 00a4 FFF7FEFF 		bl	CyDelay
 2069              	.LVL232:
 377:main.c        ****         for(i=2;i<cantidadM;i=i+4){ 
 2070              		.loc 1 377 0 discriminator 2
 2071 00a8 0136     		adds	r6, r6, #1
 2072              	.LVL233:
 2073              	.L124:
 377:main.c        ****         for(i=2;i<cantidadM;i=i+4){ 
 2074              		.loc 1 377 0 is_stmt 0 discriminator 1
 2075 00aa 002E     		cmp	r6, #0
 2076 00ac D1DD     		ble	.L131
 2077 00ae 0024     		movs	r4, #0
 2078 00b0 05E0     		b	.L129
 2079              	.LVL234:
 2080              	.L130:
 393:main.c        ****         }
 2081              		.loc 1 393 0 is_stmt 1 discriminator 3
 2082 00b2 8021     		movs	r1, #128
 2083 00b4 8900     		lsls	r1, r1, #2
 2084 00b6 2000     		movs	r0, r4
 2085 00b8 FFF7FEFF 		bl	movimiento
 2086              	.LVL235:
 392:main.c        ****         movimiento(i,512);
 2087              		.loc 1 392 0 discriminator 3
 2088 00bc 0134     		adds	r4, r4, #1
 2089              	.LVL236:
 2090              	.L129:
 392:main.c        ****         movimiento(i,512);
 2091              		.loc 1 392 0 is_stmt 0 discriminator 1
 2092 00be 064B     		ldr	r3, .L132
 2093 00c0 5B68     		ldr	r3, [r3, #4]
 2094 00c2 9C42     		cmp	r4, r3
 2095 00c4 F5DB     		blt	.L130
 395:main.c        ****     Send_Angle(0);
 2096              		.loc 1 395 0 is_stmt 1
 2097 00c6 FA20     		movs	r0, #250
 2098 00c8 C000     		lsls	r0, r0, #3
 2099 00ca FFF7FEFF 		bl	CyDelay
 2100              	.LVL237:
 396:main.c        **** }
 2101              		.loc 1 396 0
 2102 00ce 0020     		movs	r0, #0
 2103 00d0 FFF7FEFF 		bl	Send_Angle
 2104              	.LVL238:
 397:main.c        **** 
 2105              		.loc 1 397 0
 2106              		@ sp needed
ARM GAS  C:\Users\HENRYA~1\AppData\Local\Temp\cchXA1T4.s 			page 52


 2107              	.LVL239:
 2108              	.LVL240:
 2109 00d4 70BD     		pop	{r4, r5, r6, pc}
 2110              	.L133:
 2111 00d6 C046     		.align	2
 2112              	.L132:
 2113 00d8 00000000 		.word	.LANCHOR0
 2114 00dc A3020000 		.word	675
 2115 00e0 8A020000 		.word	650
 2116 00e4 EE020000 		.word	750
 2117              		.cfi_endproc
 2118              	.LFE58:
 2119              		.size	Left_Move, .-Left_Move
 2120              		.section	.text.Right_Move,"ax",%progbits
 2121              		.align	2
 2122              		.global	Right_Move
 2123              		.code	16
 2124              		.thumb_func
 2125              		.type	Right_Move, %function
 2126              	Right_Move:
 2127              	.LFB59:
 399:main.c        ****     Send_Angle(200);
 2128              		.loc 1 399 0
 2129              		.cfi_startproc
 2130              		@ args = 0, pretend = 0, frame = 0
 2131              		@ frame_needed = 0, uses_anonymous_args = 0
 2132 0000 70B5     		push	{r4, r5, r6, lr}
 2133              		.cfi_def_cfa_offset 16
 2134              		.cfi_offset 4, -16
 2135              		.cfi_offset 5, -12
 2136              		.cfi_offset 6, -8
 2137              		.cfi_offset 14, -4
 400:main.c        ****     int  i=0;
 2138              		.loc 1 400 0
 2139 0002 C820     		movs	r0, #200
 2140 0004 FFF7FEFF 		bl	Send_Angle
 2141              	.LVL241:
 403:main.c        ****         movimiento(i,512);
 2142              		.loc 1 403 0
 2143 0008 0024     		movs	r4, #0
 2144 000a 05E0     		b	.L135
 2145              	.LVL242:
 2146              	.L136:
 404:main.c        ****         }
 2147              		.loc 1 404 0 discriminator 3
 2148 000c 8021     		movs	r1, #128
 2149 000e 8900     		lsls	r1, r1, #2
 2150 0010 2000     		movs	r0, r4
 2151 0012 FFF7FEFF 		bl	movimiento
 2152              	.LVL243:
 403:main.c        ****         movimiento(i,512);
 2153              		.loc 1 403 0 discriminator 3
 2154 0016 0134     		adds	r4, r4, #1
 2155              	.LVL244:
 2156              	.L135:
 403:main.c        ****         movimiento(i,512);
 2157              		.loc 1 403 0 is_stmt 0 discriminator 1
ARM GAS  C:\Users\HENRYA~1\AppData\Local\Temp\cchXA1T4.s 			page 53


 2158 0018 304B     		ldr	r3, .L145
 2159 001a 5B68     		ldr	r3, [r3, #4]
 2160 001c 9C42     		cmp	r4, r3
 2161 001e F5DB     		blt	.L136
 406:main.c        ****     movimiento(cantidadM,675);//Ancla Trasera
 2162              		.loc 1 406 0 is_stmt 1
 2163 0020 FA24     		movs	r4, #250
 2164              	.LVL245:
 2165 0022 E400     		lsls	r4, r4, #3
 2166 0024 2000     		movs	r0, r4
 2167 0026 FFF7FEFF 		bl	CyDelay
 2168              	.LVL246:
 407:main.c        ****     CyDelay(2000);
 2169              		.loc 1 407 0
 2170 002a 2C4B     		ldr	r3, .L145
 2171 002c 5868     		ldr	r0, [r3, #4]
 2172 002e 2C49     		ldr	r1, .L145+4
 2173 0030 FFF7FEFF 		bl	movimiento
 2174              	.LVL247:
 408:main.c        ****     //Giro
 2175              		.loc 1 408 0
 2176 0034 2000     		movs	r0, r4
 2177 0036 FFF7FEFF 		bl	CyDelay
 2178              	.LVL248:
 410:main.c        ****         for(i=2;i<cantidadM;i=i+4){ 
 2179              		.loc 1 410 0
 2180 003a 0026     		movs	r6, #0
 2181 003c 37E0     		b	.L137
 2182              	.LVL249:
 2183              	.L138:
 412:main.c        ****             movimiento(i+1,274);
 2184              		.loc 1 412 0 discriminator 3
 2185 003e BB21     		movs	r1, #187
 2186 0040 4900     		lsls	r1, r1, #1
 2187 0042 2000     		movs	r0, r4
 2188 0044 FFF7FEFF 		bl	movimiento
 2189              	.LVL250:
 413:main.c        ****             }
 2190              		.loc 1 413 0 discriminator 3
 2191 0048 601C     		adds	r0, r4, #1
 2192 004a 8921     		movs	r1, #137
 2193 004c 4900     		lsls	r1, r1, #1
 2194 004e FFF7FEFF 		bl	movimiento
 2195              	.LVL251:
 411:main.c        ****             movimiento(i,374);
 2196              		.loc 1 411 0 discriminator 3
 2197 0052 0434     		adds	r4, r4, #4
 2198              	.LVL252:
 2199 0054 00E0     		b	.L141
 2200              	.LVL253:
 2201              	.L144:
 2202 0056 0224     		movs	r4, #2
 2203              	.L141:
 2204              	.LVL254:
 411:main.c        ****             movimiento(i,374);
 2205              		.loc 1 411 0 is_stmt 0 discriminator 1
 2206 0058 204B     		ldr	r3, .L145
ARM GAS  C:\Users\HENRYA~1\AppData\Local\Temp\cchXA1T4.s 			page 54


 2207 005a 5868     		ldr	r0, [r3, #4]
 2208 005c 8442     		cmp	r4, r0
 2209 005e EEDB     		blt	.L138
 415:main.c        ****         CyDelay(2000);
 2210              		.loc 1 415 0 is_stmt 1
 2211 0060 8021     		movs	r1, #128
 2212 0062 8900     		lsls	r1, r1, #2
 2213 0064 FFF7FEFF 		bl	movimiento
 2214              	.LVL255:
 416:main.c        ****         movimiento(0,350);//Ancla Delantera
 2215              		.loc 1 416 0
 2216 0068 FA24     		movs	r4, #250
 2217              	.LVL256:
 2218 006a E400     		lsls	r4, r4, #3
 2219 006c 2000     		movs	r0, r4
 2220 006e FFF7FEFF 		bl	CyDelay
 2221              	.LVL257:
 417:main.c        ****         CyDelay(2000);
 2222              		.loc 1 417 0
 2223 0072 AF21     		movs	r1, #175
 2224 0074 4900     		lsls	r1, r1, #1
 2225 0076 0020     		movs	r0, #0
 2226 0078 FFF7FEFF 		bl	movimiento
 2227              	.LVL258:
 418:main.c        ****         for(i=2;i<cantidadM;i=i+4){ //Alineación
 2228              		.loc 1 418 0
 2229 007c 2000     		movs	r0, r4
 2230 007e FFF7FEFF 		bl	CyDelay
 2231              	.LVL259:
 419:main.c        ****             movimiento(i,512);
 2232              		.loc 1 419 0
 2233 0082 0224     		movs	r4, #2
 2234 0084 0AE0     		b	.L139
 2235              	.LVL260:
 2236              	.L140:
 420:main.c        ****             movimiento(i+1,512);
 2237              		.loc 1 420 0 discriminator 3
 2238 0086 8025     		movs	r5, #128
 2239 0088 AD00     		lsls	r5, r5, #2
 2240 008a 2900     		movs	r1, r5
 2241 008c 2000     		movs	r0, r4
 2242 008e FFF7FEFF 		bl	movimiento
 2243              	.LVL261:
 421:main.c        ****         }    
 2244              		.loc 1 421 0 discriminator 3
 2245 0092 601C     		adds	r0, r4, #1
 2246 0094 2900     		movs	r1, r5
 2247 0096 FFF7FEFF 		bl	movimiento
 2248              	.LVL262:
 419:main.c        ****             movimiento(i,512);
 2249              		.loc 1 419 0 discriminator 3
 2250 009a 0434     		adds	r4, r4, #4
 2251              	.LVL263:
 2252              	.L139:
 419:main.c        ****             movimiento(i,512);
 2253              		.loc 1 419 0 is_stmt 0 discriminator 1
 2254 009c 0F4B     		ldr	r3, .L145
ARM GAS  C:\Users\HENRYA~1\AppData\Local\Temp\cchXA1T4.s 			page 55


 2255 009e 5B68     		ldr	r3, [r3, #4]
 2256 00a0 9C42     		cmp	r4, r3
 2257 00a2 F0DB     		blt	.L140
 423:main.c        ****     }         
 2258              		.loc 1 423 0 is_stmt 1 discriminator 2
 2259 00a4 FA20     		movs	r0, #250
 2260 00a6 C000     		lsls	r0, r0, #3
 2261 00a8 FFF7FEFF 		bl	CyDelay
 2262              	.LVL264:
 410:main.c        ****         for(i=2;i<cantidadM;i=i+4){ 
 2263              		.loc 1 410 0 discriminator 2
 2264 00ac 0136     		adds	r6, r6, #1
 2265              	.LVL265:
 2266              	.L137:
 410:main.c        ****         for(i=2;i<cantidadM;i=i+4){ 
 2267              		.loc 1 410 0 is_stmt 0 discriminator 1
 2268 00ae 002E     		cmp	r6, #0
 2269 00b0 D1DD     		ble	.L144
 2270 00b2 0024     		movs	r4, #0
 2271 00b4 05E0     		b	.L142
 2272              	.LVL266:
 2273              	.L143:
 426:main.c        ****         }
 2274              		.loc 1 426 0 is_stmt 1 discriminator 3
 2275 00b6 8021     		movs	r1, #128
 2276 00b8 8900     		lsls	r1, r1, #2
 2277 00ba 2000     		movs	r0, r4
 2278 00bc FFF7FEFF 		bl	movimiento
 2279              	.LVL267:
 425:main.c        ****         movimiento(i,512);
 2280              		.loc 1 425 0 discriminator 3
 2281 00c0 0134     		adds	r4, r4, #1
 2282              	.LVL268:
 2283              	.L142:
 425:main.c        ****         movimiento(i,512);
 2284              		.loc 1 425 0 is_stmt 0 discriminator 1
 2285 00c2 064B     		ldr	r3, .L145
 2286 00c4 5B68     		ldr	r3, [r3, #4]
 2287 00c6 9C42     		cmp	r4, r3
 2288 00c8 F5DB     		blt	.L143
 428:main.c        ****     Send_Angle(0);
 2289              		.loc 1 428 0 is_stmt 1
 2290 00ca FA20     		movs	r0, #250
 2291 00cc C000     		lsls	r0, r0, #3
 2292 00ce FFF7FEFF 		bl	CyDelay
 2293              	.LVL269:
 429:main.c        **** }
 2294              		.loc 1 429 0
 2295 00d2 0020     		movs	r0, #0
 2296 00d4 FFF7FEFF 		bl	Send_Angle
 2297              	.LVL270:
 430:main.c        **** 
 2298              		.loc 1 430 0
 2299              		@ sp needed
 2300              	.LVL271:
 2301              	.LVL272:
 2302 00d8 70BD     		pop	{r4, r5, r6, pc}
ARM GAS  C:\Users\HENRYA~1\AppData\Local\Temp\cchXA1T4.s 			page 56


 2303              	.L146:
 2304 00da C046     		.align	2
 2305              	.L145:
 2306 00dc 00000000 		.word	.LANCHOR0
 2307 00e0 A3020000 		.word	675
 2308              		.cfi_endproc
 2309              	.LFE59:
 2310              		.size	Right_Move, .-Right_Move
 2311              		.section	.text.Select_Move,"ax",%progbits
 2312              		.align	2
 2313              		.global	Select_Move
 2314              		.code	16
 2315              		.thumb_func
 2316              		.type	Select_Move, %function
 2317              	Select_Move:
 2318              	.LFB60:
 432:main.c        ****     Send_Angle(200);
 2319              		.loc 1 432 0
 2320              		.cfi_startproc
 2321              		@ args = 0, pretend = 0, frame = 0
 2322              		@ frame_needed = 0, uses_anonymous_args = 0
 2323 0000 10B5     		push	{r4, lr}
 2324              		.cfi_def_cfa_offset 8
 2325              		.cfi_offset 4, -8
 2326              		.cfi_offset 14, -4
 433:main.c        ****     int  i=0;
 2327              		.loc 1 433 0
 2328 0002 C820     		movs	r0, #200
 2329 0004 FFF7FEFF 		bl	Send_Angle
 2330              	.LVL273:
 435:main.c        ****         movimiento(i,512);
 2331              		.loc 1 435 0
 2332 0008 0024     		movs	r4, #0
 2333 000a 05E0     		b	.L148
 2334              	.LVL274:
 2335              	.L149:
 436:main.c        ****         }
 2336              		.loc 1 436 0 discriminator 3
 2337 000c 8021     		movs	r1, #128
 2338 000e 8900     		lsls	r1, r1, #2
 2339 0010 2000     		movs	r0, r4
 2340 0012 FFF7FEFF 		bl	movimiento
 2341              	.LVL275:
 435:main.c        ****         movimiento(i,512);
 2342              		.loc 1 435 0 discriminator 3
 2343 0016 0134     		adds	r4, r4, #1
 2344              	.LVL276:
 2345              	.L148:
 435:main.c        ****         movimiento(i,512);
 2346              		.loc 1 435 0 is_stmt 0 discriminator 1
 2347 0018 052C     		cmp	r4, #5
 2348 001a F7DD     		ble	.L149
 438:main.c        ****     movimiento(2,750);
 2349              		.loc 1 438 0 is_stmt 1
 2350 001c FA20     		movs	r0, #250
 2351 001e C000     		lsls	r0, r0, #3
 2352 0020 FFF7FEFF 		bl	CyDelay
ARM GAS  C:\Users\HENRYA~1\AppData\Local\Temp\cchXA1T4.s 			page 57


 2353              	.LVL277:
 439:main.c        ****     CyDelay(5000);
 2354              		.loc 1 439 0
 2355 0024 0549     		ldr	r1, .L150
 2356 0026 0220     		movs	r0, #2
 2357 0028 FFF7FEFF 		bl	movimiento
 2358              	.LVL278:
 440:main.c        ****     move_s=1;
 2359              		.loc 1 440 0
 2360 002c 0448     		ldr	r0, .L150+4
 2361 002e FFF7FEFF 		bl	CyDelay
 2362              	.LVL279:
 441:main.c        **** }
 2363              		.loc 1 441 0
 2364 0032 0122     		movs	r2, #1
 2365 0034 034B     		ldr	r3, .L150+8
 2366 0036 9A62     		str	r2, [r3, #40]
 442:main.c        **** 
 2367              		.loc 1 442 0
 2368              		@ sp needed
 2369              	.LVL280:
 2370 0038 10BD     		pop	{r4, pc}
 2371              	.L151:
 2372 003a C046     		.align	2
 2373              	.L150:
 2374 003c EE020000 		.word	750
 2375 0040 88130000 		.word	5000
 2376 0044 00000000 		.word	.LANCHOR0
 2377              		.cfi_endproc
 2378              	.LFE60:
 2379              		.size	Select_Move, .-Select_Move
 2380              		.section	.text.Select_Move_2,"ax",%progbits
 2381              		.align	2
 2382              		.global	Select_Move_2
 2383              		.code	16
 2384              		.thumb_func
 2385              		.type	Select_Move_2, %function
 2386              	Select_Move_2:
 2387              	.LFB61:
 444:main.c        ****     punto_a=dist;  
 2388              		.loc 1 444 0
 2389              		.cfi_startproc
 2390              		@ args = 0, pretend = 0, frame = 0
 2391              		@ frame_needed = 0, uses_anonymous_args = 0
 2392              		@ link register save eliminated.
 445:main.c        ****     move_s=2;
 2393              		.loc 1 445 0
 2394 0000 024B     		ldr	r3, .L153
 2395 0002 1A78     		ldrb	r2, [r3]
 2396 0004 DA62     		str	r2, [r3, #44]
 446:main.c        **** }
 2397              		.loc 1 446 0
 2398 0006 0222     		movs	r2, #2
 2399 0008 9A62     		str	r2, [r3, #40]
 447:main.c        **** 
 2400              		.loc 1 447 0
 2401              		@ sp needed
ARM GAS  C:\Users\HENRYA~1\AppData\Local\Temp\cchXA1T4.s 			page 58


 2402 000a 7047     		bx	lr
 2403              	.L154:
 2404              		.align	2
 2405              	.L153:
 2406 000c 00000000 		.word	.LANCHOR0
 2407              		.cfi_endproc
 2408              	.LFE61:
 2409              		.size	Select_Move_2, .-Select_Move_2
 2410              		.section	.text.Select_Move_3,"ax",%progbits
 2411              		.align	2
 2412              		.global	Select_Move_3
 2413              		.code	16
 2414              		.thumb_func
 2415              		.type	Select_Move_3, %function
 2416              	Select_Move_3:
 2417              	.LFB62:
 449:main.c        ****     movimiento(2,274);
 2418              		.loc 1 449 0
 2419              		.cfi_startproc
 2420              		@ args = 0, pretend = 0, frame = 0
 2421              		@ frame_needed = 0, uses_anonymous_args = 0
 2422 0000 10B5     		push	{r4, lr}
 2423              		.cfi_def_cfa_offset 8
 2424              		.cfi_offset 4, -8
 2425              		.cfi_offset 14, -4
 450:main.c        ****     CyDelay(5000);
 2426              		.loc 1 450 0
 2427 0002 8921     		movs	r1, #137
 2428 0004 4900     		lsls	r1, r1, #1
 2429 0006 0220     		movs	r0, #2
 2430 0008 FFF7FEFF 		bl	movimiento
 2431              	.LVL281:
 451:main.c        ****     move_s=3;
 2432              		.loc 1 451 0
 2433 000c 0348     		ldr	r0, .L156
 2434 000e FFF7FEFF 		bl	CyDelay
 2435              	.LVL282:
 452:main.c        **** }
 2436              		.loc 1 452 0
 2437 0012 0322     		movs	r2, #3
 2438 0014 024B     		ldr	r3, .L156+4
 2439 0016 9A62     		str	r2, [r3, #40]
 453:main.c        **** 
 2440              		.loc 1 453 0
 2441              		@ sp needed
 2442 0018 10BD     		pop	{r4, pc}
 2443              	.L157:
 2444 001a C046     		.align	2
 2445              	.L156:
 2446 001c 88130000 		.word	5000
 2447 0020 00000000 		.word	.LANCHOR0
 2448              		.cfi_endproc
 2449              	.LFE62:
 2450              		.size	Select_Move_3, .-Select_Move_3
 2451              		.section	.text.Select_Move_4,"ax",%progbits
 2452              		.align	2
 2453              		.global	Select_Move_4
ARM GAS  C:\Users\HENRYA~1\AppData\Local\Temp\cchXA1T4.s 			page 59


 2454              		.code	16
 2455              		.thumb_func
 2456              		.type	Select_Move_4, %function
 2457              	Select_Move_4:
 2458              	.LFB63:
 455:main.c        ****     punto_b=dist;
 2459              		.loc 1 455 0
 2460              		.cfi_startproc
 2461              		@ args = 0, pretend = 0, frame = 0
 2462              		@ frame_needed = 0, uses_anonymous_args = 0
 2463 0000 10B5     		push	{r4, lr}
 2464              		.cfi_def_cfa_offset 8
 2465              		.cfi_offset 4, -8
 2466              		.cfi_offset 14, -4
 456:main.c        ****     move_s=0;       
 2467              		.loc 1 456 0
 2468 0002 074B     		ldr	r3, .L161
 2469 0004 1A78     		ldrb	r2, [r3]
 2470 0006 1A63     		str	r2, [r3, #48]
 457:main.c        ****     if(punto_a>=punto_b){
 2471              		.loc 1 457 0
 2472 0008 0021     		movs	r1, #0
 2473 000a 9962     		str	r1, [r3, #40]
 458:main.c        ****         Left_Move();    
 2474              		.loc 1 458 0
 2475 000c DB6A     		ldr	r3, [r3, #44]
 2476 000e 9A42     		cmp	r2, r3
 2477 0010 02DC     		bgt	.L159
 459:main.c        ****     }
 2478              		.loc 1 459 0
 2479 0012 FFF7FEFF 		bl	Left_Move
 2480              	.LVL283:
 2481 0016 01E0     		b	.L158
 2482              	.L159:
 462:main.c        ****     } 
 2483              		.loc 1 462 0
 2484 0018 FFF7FEFF 		bl	Right_Move
 2485              	.LVL284:
 2486              	.L158:
 464:main.c        **** 
 2487              		.loc 1 464 0
 2488              		@ sp needed
 2489 001c 10BD     		pop	{r4, pc}
 2490              	.L162:
 2491 001e C046     		.align	2
 2492              	.L161:
 2493 0020 00000000 		.word	.LANCHOR0
 2494              		.cfi_endproc
 2495              	.LFE63:
 2496              		.size	Select_Move_4, .-Select_Move_4
 2497              		.section	.text.Temporizador,"ax",%progbits
 2498              		.align	2
 2499              		.global	Temporizador
 2500              		.code	16
 2501              		.thumb_func
 2502              		.type	Temporizador, %function
 2503              	Temporizador:
ARM GAS  C:\Users\HENRYA~1\AppData\Local\Temp\cchXA1T4.s 			page 60


 2504              	.LFB64:
 467:main.c        ****     conta++;
 2505              		.loc 1 467 0
 2506              		.cfi_startproc
 2507              		@ args = 0, pretend = 0, frame = 0
 2508              		@ frame_needed = 0, uses_anonymous_args = 0
 2509 0000 70B5     		push	{r4, r5, r6, lr}
 2510              		.cfi_def_cfa_offset 16
 2511              		.cfi_offset 4, -16
 2512              		.cfi_offset 5, -12
 2513              		.cfi_offset 6, -8
 2514              		.cfi_offset 14, -4
 468:main.c        ****     if(conta>=Max_Conta){     
 2515              		.loc 1 468 0
 2516 0002 2F4A     		ldr	r2, .L174
 2517 0004 938E     		ldrh	r3, [r2, #52]
 2518 0006 0133     		adds	r3, r3, #1
 2519 0008 1BB2     		sxth	r3, r3
 2520 000a 9386     		strh	r3, [r2, #52]
 469:main.c        ****         LED_1_Write(1);
 2521              		.loc 1 469 0
 2522 000c 126A     		ldr	r2, [r2, #32]
 2523 000e 9342     		cmp	r3, r2
 2524 0010 51DB     		blt	.L164
 470:main.c        ****         if(move_s==0){
 2525              		.loc 1 470 0
 2526 0012 0120     		movs	r0, #1
 2527 0014 FFF7FEFF 		bl	LED_1_Write
 2528              	.LVL285:
 471:main.c        ****             if(Cantidad_Sensores==2){
 2529              		.loc 1 471 0
 2530 0018 294B     		ldr	r3, .L174
 2531 001a 9B6A     		ldr	r3, [r3, #40]
 2532 001c 002B     		cmp	r3, #0
 2533 001e 3AD1     		bne	.L165
 472:main.c        ****                 Select_Move();   
 2534              		.loc 1 472 0
 2535 0020 274B     		ldr	r3, .L174
 2536 0022 1B69     		ldr	r3, [r3, #16]
 2537 0024 022B     		cmp	r3, #2
 2538 0026 05D1     		bne	.L166
 473:main.c        ****                 Max_Conta=10;
 2539              		.loc 1 473 0
 2540 0028 FFF7FEFF 		bl	Select_Move
 2541              	.LVL286:
 474:main.c        ****             }
 2542              		.loc 1 474 0
 2543 002c 0A22     		movs	r2, #10
 2544 002e 244B     		ldr	r3, .L174
 2545 0030 1A62     		str	r2, [r3, #32]
 2546 0032 3CE0     		b	.L167
 2547              	.L166:
 476:main.c        ****                 Left_Move();
 2548              		.loc 1 476 0
 2549 0034 032B     		cmp	r3, #3
 2550 0036 05D1     		bne	.L168
 477:main.c        ****                 Max_Conta=10;
ARM GAS  C:\Users\HENRYA~1\AppData\Local\Temp\cchXA1T4.s 			page 61


 2551              		.loc 1 477 0
 2552 0038 FFF7FEFF 		bl	Left_Move
 2553              	.LVL287:
 478:main.c        ****             }
 2554              		.loc 1 478 0
 2555 003c 0A22     		movs	r2, #10
 2556 003e 204B     		ldr	r3, .L174
 2557 0040 1A62     		str	r2, [r3, #32]
 2558 0042 34E0     		b	.L167
 2559              	.L168:
 480:main.c        ****                 Right_Move();    
 2560              		.loc 1 480 0
 2561 0044 062B     		cmp	r3, #6
 2562 0046 05D1     		bne	.L169
 481:main.c        ****                 Max_Conta=10;
 2563              		.loc 1 481 0
 2564 0048 FFF7FEFF 		bl	Right_Move
 2565              	.LVL288:
 482:main.c        ****             }
 2566              		.loc 1 482 0
 2567 004c 0A22     		movs	r2, #10
 2568 004e 1C4B     		ldr	r3, .L174
 2569 0050 1A62     		str	r2, [r3, #32]
 2570 0052 2CE0     		b	.L167
 2571              	.L169:
 484:main.c        ****                 amplitud=0.8;offset=0.833;fase=-0.5;
 2572              		.loc 1 484 0
 2573 0054 072B     		cmp	r3, #7
 2574 0056 1BD1     		bne	.L170
 485:main.c        ****                 Enviar_Parametros(amplitud,fase,offset,V); 
 2575              		.loc 1 485 0
 2576 0058 194C     		ldr	r4, .L174
 2577 005a 1A48     		ldr	r0, .L174+4
 2578 005c E060     		str	r0, [r4, #12]
 2579 005e 1A4D     		ldr	r5, .L174+8
 2580 0060 1A4A     		ldr	r2, .L174+12
 2581 0062 2A60     		str	r2, [r5]
 2582 0064 BF21     		movs	r1, #191
 2583 0066 0906     		lsls	r1, r1, #24
 2584 0068 A160     		str	r1, [r4, #8]
 486:main.c        ****                 CyDelay(1000);
 2585              		.loc 1 486 0
 2586 006a 1A33     		adds	r3, r3, #26
 2587 006c FFF7FEFF 		bl	Enviar_Parametros
 2588              	.LVL289:
 487:main.c        ****                 Enviar_Parametros(0.0,fase,offset,H);
 2589              		.loc 1 487 0
 2590 0070 FA20     		movs	r0, #250
 2591 0072 8000     		lsls	r0, r0, #2
 2592 0074 FFF7FEFF 		bl	CyDelay
 2593              	.LVL290:
 488:main.c        ****                 CyDelay(15000);
 2594              		.loc 1 488 0
 2595 0078 2A68     		ldr	r2, [r5]
 2596 007a 2023     		movs	r3, #32
 2597 007c A168     		ldr	r1, [r4, #8]
 2598 007e 0020     		movs	r0, #0
ARM GAS  C:\Users\HENRYA~1\AppData\Local\Temp\cchXA1T4.s 			page 62


 2599 0080 FFF7FEFF 		bl	Enviar_Parametros
 2600              	.LVL291:
 489:main.c        ****                 Max_Conta=10;
 2601              		.loc 1 489 0
 2602 0084 1248     		ldr	r0, .L174+16
 2603 0086 FFF7FEFF 		bl	CyDelay
 2604              	.LVL292:
 490:main.c        ****             }
 2605              		.loc 1 490 0
 2606 008a 0A23     		movs	r3, #10
 2607 008c 2362     		str	r3, [r4, #32]
 2608 008e 0EE0     		b	.L167
 2609              	.L170:
 493:main.c        ****             }
 2610              		.loc 1 493 0
 2611 0090 FFF7FEFF 		bl	A_G
 2612              	.LVL293:
 2613 0094 0BE0     		b	.L167
 2614              	.L165:
 496:main.c        ****         else if (move_s==2){Select_Move_3();}
 2615              		.loc 1 496 0
 2616 0096 012B     		cmp	r3, #1
 2617 0098 02D1     		bne	.L171
 496:main.c        ****         else if (move_s==2){Select_Move_3();}
 2618              		.loc 1 496 0 is_stmt 0 discriminator 1
 2619 009a FFF7FEFF 		bl	Select_Move_2
 2620              	.LVL294:
 2621 009e 06E0     		b	.L167
 2622              	.L171:
 497:main.c        ****         else{Select_Move_4();}
 2623              		.loc 1 497 0 is_stmt 1
 2624 00a0 022B     		cmp	r3, #2
 2625 00a2 02D1     		bne	.L172
 497:main.c        ****         else{Select_Move_4();}
 2626              		.loc 1 497 0 is_stmt 0 discriminator 1
 2627 00a4 FFF7FEFF 		bl	Select_Move_3
 2628              	.LVL295:
 2629 00a8 01E0     		b	.L167
 2630              	.L172:
 498:main.c        ****         conta=0;
 2631              		.loc 1 498 0 is_stmt 1
 2632 00aa FFF7FEFF 		bl	Select_Move_4
 2633              	.LVL296:
 2634              	.L167:
 499:main.c        ****     }
 2635              		.loc 1 499 0
 2636 00ae 0022     		movs	r2, #0
 2637 00b0 034B     		ldr	r3, .L174
 2638 00b2 9A86     		strh	r2, [r3, #52]
 2639 00b4 02E0     		b	.L163
 2640              	.L164:
 502:main.c        ****     }  
 2641              		.loc 1 502 0
 2642 00b6 0020     		movs	r0, #0
 2643 00b8 FFF7FEFF 		bl	LED_1_Write
 2644              	.LVL297:
 2645              	.L163:
ARM GAS  C:\Users\HENRYA~1\AppData\Local\Temp\cchXA1T4.s 			page 63


 504:main.c        **** 
 2646              		.loc 1 504 0
 2647              		@ sp needed
 2648 00bc 70BD     		pop	{r4, r5, r6, pc}
 2649              	.L175:
 2650 00be C046     		.align	2
 2651              	.L174:
 2652 00c0 00000000 		.word	.LANCHOR0
 2653 00c4 CDCC4C3F 		.word	1061997773
 2654 00c8 00000000 		.word	.LANCHOR1
 2655 00cc 7D3F553F 		.word	1062551421
 2656 00d0 983A0000 		.word	15000
 2657              		.cfi_endproc
 2658              	.LFE64:
 2659              		.size	Temporizador, .-Temporizador
 2660              		.section	.text.main,"ax",%progbits
 2661              		.align	2
 2662              		.global	main
 2663              		.code	16
 2664              		.thumb_func
 2665              		.type	main, %function
 2666              	main:
 2667              	.LFB66:
 509:main.c        **** 
 510:main.c        **** int main()
 511:main.c        **** {
 2668              		.loc 1 511 0
 2669              		.cfi_startproc
 2670              		@ args = 0, pretend = 0, frame = 0
 2671              		@ frame_needed = 0, uses_anonymous_args = 0
 2672 0000 F8B5     		push	{r3, r4, r5, r6, r7, lr}
 2673              		.cfi_def_cfa_offset 24
 2674              		.cfi_offset 3, -24
 2675              		.cfi_offset 4, -20
 2676              		.cfi_offset 5, -16
 2677              		.cfi_offset 6, -12
 2678              		.cfi_offset 7, -8
 2679              		.cfi_offset 14, -4
 2680              	.LVL298:
 512:main.c        ****     //Crear Población Inicial
 513:main.c        ****     int i=0;
 514:main.c        ****     for(i=0;i<Individuos;i++){
 2681              		.loc 1 514 0
 2682 0002 0024     		movs	r4, #0
 2683 0004 1DE0     		b	.L177
 2684              	.LVL299:
 2685              	.L178:
 515:main.c        ****         Poblacion[0][i]=random_amplitud();
 2686              		.loc 1 515 0 discriminator 3
 2687 0006 FFF7FEFF 		bl	random_amplitud
 2688              	.LVL300:
 2689 000a 1D4D     		ldr	r5, .L180
 2690 000c A700     		lsls	r7, r4, #2
 2691 000e FFF7FEFF 		bl	__aeabi_d2f
 2692              	.LVL301:
 2693 0012 7851     		str	r0, [r7, r5]
 516:main.c        ****         Poblacion[1][i]=random_Fase();
ARM GAS  C:\Users\HENRYA~1\AppData\Local\Temp\cchXA1T4.s 			page 64


 2694              		.loc 1 516 0 discriminator 3
 2695 0014 FFF7FEFF 		bl	random_Fase
 2696              	.LVL302:
 2697 0018 2600     		movs	r6, r4
 2698 001a 0A36     		adds	r6, r6, #10
 2699 001c B600     		lsls	r6, r6, #2
 2700 001e FFF7FEFF 		bl	__aeabi_d2f
 2701              	.LVL303:
 2702 0022 7051     		str	r0, [r6, r5]
 517:main.c        ****         Poblacion[2][i]=random_Offset();
 2703              		.loc 1 517 0 discriminator 3
 2704 0024 FFF7FEFF 		bl	random_Offset
 2705              	.LVL304:
 2706 0028 2600     		movs	r6, r4
 2707 002a 1436     		adds	r6, r6, #20
 2708 002c B600     		lsls	r6, r6, #2
 2709 002e FFF7FEFF 		bl	__aeabi_d2f
 2710              	.LVL305:
 2711 0032 7051     		str	r0, [r6, r5]
 518:main.c        ****         Fitness[i]=randd();}
 2712              		.loc 1 518 0 discriminator 3
 2713 0034 FFF7FEFF 		bl	randd
 2714              	.LVL306:
 2715 0038 FFF7FEFF 		bl	__aeabi_d2f
 2716              	.LVL307:
 2717 003c 114B     		ldr	r3, .L180+4
 2718 003e F850     		str	r0, [r7, r3]
 514:main.c        ****         Poblacion[0][i]=random_amplitud();
 2719              		.loc 1 514 0 discriminator 3
 2720 0040 0134     		adds	r4, r4, #1
 2721              	.LVL308:
 2722              	.L177:
 514:main.c        ****         Poblacion[0][i]=random_amplitud();
 2723              		.loc 1 514 0 is_stmt 0 discriminator 1
 2724 0042 114B     		ldr	r3, .L180+8
 2725 0044 5B68     		ldr	r3, [r3, #4]
 2726 0046 9C42     		cmp	r4, r3
 2727 0048 DDDB     		blt	.L178
 519:main.c        ****     Max_Conta=150;
 2728              		.loc 1 519 0 is_stmt 1
 2729 004a 9622     		movs	r2, #150
 2730 004c 0F4B     		ldr	r3, .L180+12
 2731 004e 1A62     		str	r2, [r3, #32]
 520:main.c        ****     //Init LED's
 521:main.c        ****     CAN_Start(); ///  start CAN
 2732              		.loc 1 521 0
 2733 0050 FFF7FEFF 		bl	CAN_Start
 2734              	.LVL309:
 522:main.c        ****     Timer_1_Start();
 2735              		.loc 1 522 0
 2736 0054 FFF7FEFF 		bl	Timer_1_Start
 2737              	.LVL310:
 523:main.c        ****     Timer_Start();
 2738              		.loc 1 523 0
 2739 0058 FFF7FEFF 		bl	Timer_Start
 2740              	.LVL311:
 524:main.c        ****     SENSOR_U_Start();
ARM GAS  C:\Users\HENRYA~1\AppData\Local\Temp\cchXA1T4.s 			page 65


 2741              		.loc 1 524 0
 2742 005c FFF7FEFF 		bl	SENSOR_U_Start
 2743              	.LVL312:
 525:main.c        ****     CAN_isr_StartEx(interrutcan);
 2744              		.loc 1 525 0
 2745 0060 0B48     		ldr	r0, .L180+16
 2746 0062 FFF7FEFF 		bl	CAN_isr_StartEx
 2747              	.LVL313:
 526:main.c        ****     CAN_GlobalIntEnable();
 2748              		.loc 1 526 0
 2749 0066 FFF7FEFF 		bl	CAN_GlobalIntEnable
 2750              	.LVL314:
 527:main.c        ****     Int_Serial_StartEx(Serial_Interrupt);
 2751              		.loc 1 527 0
 2752 006a 0A48     		ldr	r0, .L180+20
 2753 006c FFF7FEFF 		bl	Int_Serial_StartEx
 2754              	.LVL315:
 528:main.c        ****     Timer_StartEx(Temporizador);
 2755              		.loc 1 528 0
 2756 0070 0948     		ldr	r0, .L180+24
 2757 0072 FFF7FEFF 		bl	Timer_StartEx
 2758              	.LVL316:
 529:main.c        ****     LED_1_Write(0);
 2759              		.loc 1 529 0
 2760 0076 0020     		movs	r0, #0
 2761 0078 FFF7FEFF 		bl	LED_1_Write
 2762              	.LVL317:
 530:main.c        ****     CyGlobalIntEnable;
 2763              		.loc 1 530 0
 2764              		.syntax divided
 2765              	@ 530 "main.c" 1
 2766 007c 62B6     		CPSIE   i
 2767              	@ 0 "" 2
 2768              		.thumb
 2769              		.syntax unified
 2770              	.L179:
 2771 007e FEE7     		b	.L179
 2772              	.L181:
 2773              		.align	2
 2774              	.L180:
 2775 0080 00000000 		.word	Poblacion
 2776 0084 00000000 		.word	Fitness
 2777 0088 00000000 		.word	.LANCHOR1
 2778 008c 00000000 		.word	.LANCHOR0
 2779 0090 00000000 		.word	interrutcan
 2780 0094 00000000 		.word	Serial_Interrupt
 2781 0098 00000000 		.word	Temporizador
 2782              		.cfi_endproc
 2783              	.LFE66:
 2784              		.size	main, .-main
 2785              		.global	bolita
 2786              		.global	Acu
 2787              		.comm	indice,40,4
 2788              		.global	puntero
 2789              		.global	conmutador
 2790              		.global	Umbral_Mutacion
 2791              		.global	Umbral_Cruce
ARM GAS  C:\Users\HENRYA~1\AppData\Local\Temp\cchXA1T4.s 			page 66


 2792              		.global	Columna
 2793              		.global	Fila
 2794              		.comm	Fitness_Normalizado,40,4
 2795              		.comm	Fitness_1,40,4
 2796              		.comm	Fitness,40,4
 2797              		.comm	Poblacion_1,120,4
 2798              		.comm	Poblacion,120,4
 2799              		.global	Individuos
 2800              		.global	move_s
 2801              		.global	punto_b
 2802              		.global	punto_a
 2803              		.global	flag
 2804              		.global	fase
 2805              		.global	offset
 2806              		.global	amplitud
 2807              		.global	Max_Conta
 2808              		.global	Cantidad_Sensores
 2809              		.global	cantidadM
 2810              		.global	conta
 2811              		.global	dist
 2812              		.comm	dato_enviado_1,8,4
 2813              		.comm	dato_enviado,8,4
 2814              		.comm	mailbox2,8,4
 2815              		.comm	mailbox1,8,4
 2816              		.comm	mailbox0,8,4
 2817              		.data
 2818              		.align	2
 2819              		.set	.LANCHOR1,. + 0
 2820              		.type	offset, %object
 2821              		.size	offset, 4
 2822              	offset:
 2823 0000 7D3F553F 		.word	1062551421
 2824              		.type	Individuos, %object
 2825              		.size	Individuos, 4
 2826              	Individuos:
 2827 0004 0A000000 		.word	10
 2828              		.type	flag, %object
 2829              		.size	flag, 4
 2830              	flag:
 2831 0008 01000000 		.word	1
 2832              		.type	Umbral_Cruce, %object
 2833              		.size	Umbral_Cruce, 4
 2834              	Umbral_Cruce:
 2835 000c 0000003F 		.word	1056964608
 2836              		.type	Umbral_Mutacion, %object
 2837              		.size	Umbral_Mutacion, 4
 2838              	Umbral_Mutacion:
 2839 0010 CDCCCC3E 		.word	1053609165
 2840              		.bss
 2841              		.align	2
 2842              		.set	.LANCHOR0,. + 0
 2843              		.type	dist, %object
 2844              		.size	dist, 1
 2845              	dist:
 2846 0000 00       		.space	1
 2847 0001 000000   		.space	3
 2848              		.type	cantidadM, %object
ARM GAS  C:\Users\HENRYA~1\AppData\Local\Temp\cchXA1T4.s 			page 67


 2849              		.size	cantidadM, 4
 2850              	cantidadM:
 2851 0004 00000000 		.space	4
 2852              		.type	fase, %object
 2853              		.size	fase, 4
 2854              	fase:
 2855 0008 00000000 		.space	4
 2856              		.type	amplitud, %object
 2857              		.size	amplitud, 4
 2858              	amplitud:
 2859 000c 00000000 		.space	4
 2860              		.type	Cantidad_Sensores, %object
 2861              		.size	Cantidad_Sensores, 4
 2862              	Cantidad_Sensores:
 2863 0010 00000000 		.space	4
 2864              		.type	Acu, %object
 2865              		.size	Acu, 4
 2866              	Acu:
 2867 0014 00000000 		.space	4
 2868              		.type	bolita, %object
 2869              		.size	bolita, 4
 2870              	bolita:
 2871 0018 00000000 		.space	4
 2872              		.type	puntero, %object
 2873              		.size	puntero, 4
 2874              	puntero:
 2875 001c 00000000 		.space	4
 2876              		.type	Max_Conta, %object
 2877              		.size	Max_Conta, 4
 2878              	Max_Conta:
 2879 0020 00000000 		.space	4
 2880              		.type	conmutador, %object
 2881              		.size	conmutador, 4
 2882              	conmutador:
 2883 0024 00000000 		.space	4
 2884              		.type	move_s, %object
 2885              		.size	move_s, 4
 2886              	move_s:
 2887 0028 00000000 		.space	4
 2888              		.type	punto_a, %object
 2889              		.size	punto_a, 4
 2890              	punto_a:
 2891 002c 00000000 		.space	4
 2892              		.type	punto_b, %object
 2893              		.size	punto_b, 4
 2894              	punto_b:
 2895 0030 00000000 		.space	4
 2896              		.type	conta, %object
 2897              		.size	conta, 2
 2898              	conta:
 2899 0034 0000     		.space	2
 2900 0036 0000     		.space	2
 2901              		.type	Columna, %object
 2902              		.size	Columna, 4
 2903              	Columna:
 2904 0038 00000000 		.space	4
 2905              		.type	Fila, %object
ARM GAS  C:\Users\HENRYA~1\AppData\Local\Temp\cchXA1T4.s 			page 68


 2906              		.size	Fila, 4
 2907              	Fila:
 2908 003c 00000000 		.space	4
 2909              		.text
 2910              	.Letext0:
 2911              		.file 2 "Generated_Source\\PSoC4/cytypes.h"
 2912              		.file 3 "Generated_Source\\PSoC4/SENSOR_U.h"
 2913              		.file 4 "c:\\program files (x86)\\cypress\\psoc creator\\4.1\\psoc creator\\import\\gnu\\arm\\5.4.
 2914              		.file 5 "Generated_Source\\PSoC4/CAN.h"
 2915              		.file 6 "Generated_Source\\PSoC4/CyLib.h"
 2916              		.file 7 "Generated_Source\\PSoC4/LED_1.h"
 2917              		.file 8 "Generated_Source\\PSoC4/Timer_1.h"
 2918              		.file 9 "Generated_Source\\PSoC4/Timer.h"
 2919              		.file 10 "Generated_Source\\PSoC4/CAN_isr.h"
 2920              		.file 11 "Generated_Source\\PSoC4/Int_Serial.h"