ARM GAS  C:\Users\HENRYA~1\AppData\Local\Temp\ccq56xEy.s 			page 1


   1              		.syntax unified
   2              		.cpu cortex-m0
   3              		.fpu softvfp
   4              		.eabi_attribute 20, 1
   5              		.eabi_attribute 21, 1
   6              		.eabi_attribute 23, 3
   7              		.eabi_attribute 24, 1
   8              		.eabi_attribute 25, 1
   9              		.eabi_attribute 26, 1
  10              		.eabi_attribute 30, 1
  11              		.eabi_attribute 34, 0
  12              		.eabi_attribute 18, 4
  13              		.thumb
  14              		.syntax unified
  15              		.file	"main.c"
  16              		.text
  17              	.Ltext0:
  18              		.cfi_sections	.debug_frame
  19              		.section	.text.Serial_Interrupt,"ax",%progbits
  20              		.align	2
  21              		.global	Serial_Interrupt
  22              		.code	16
  23              		.thumb_func
  24              		.type	Serial_Interrupt, %function
  25              	Serial_Interrupt:
  26              	.LFB53:
  27              		.file 1 "main.c"
   1:main.c        **** #include <project.h>
   2:main.c        **** #include <stdio.h>
   3:main.c        **** #include <stdlib.h>
   4:main.c        **** #include <math.h>
   5:main.c        **** #include <protocolo can.h>
   6:main.c        **** //Import Libraries
   7:main.c        **** //Global Variables
   8:main.c        **** uint8 mailbox0[8];
   9:main.c        **** uint8 mailbox1[8];
  10:main.c        **** uint8 mailbox2[8];
  11:main.c        **** uint8 dato_enviado[8];
  12:main.c        **** uint8 dato_enviado_1[8];
  13:main.c        **** char dist=0;
  14:main.c        **** int16 conta=0;
  15:main.c        **** int cantidadM=0;
  16:main.c        **** //Variables AE
  17:main.c        **** int Max_Conta=100;
  18:main.c        **** float amplitud=0.5;
  19:main.c        **** float offset=0.833;
  20:main.c        **** float fase=0.3;
  21:main.c        **** float ampli_aux=0.0;
  22:main.c        **** float off_aux=0.0;
  23:main.c        **** float pha_aux=0.0;
  24:main.c        **** int flag=0;
  25:main.c        **** float L_actual=0.0;
  26:main.c        **** float L_anterior=0.0;
  27:main.c        **** float Sigma=0.0;
  28:main.c        **** int16 Periodo=1; 
  29:main.c        **** int Cantidad_Sensores=0;
  30:main.c        **** 
ARM GAS  C:\Users\HENRYA~1\AppData\Local\Temp\ccq56xEy.s 			page 2


  31:main.c        **** double randd() {
  32:main.c        ****   return (double)rand()/((double)RAND_MAX + 1);
  33:main.c        **** }
  34:main.c        **** 
  35:main.c        **** double random_amplitud(){
  36:main.c        ****     return randd();
  37:main.c        **** }
  38:main.c        **** 
  39:main.c        **** double random_Fase(){
  40:main.c        ****     float r=0.0;
  41:main.c        ****     r=randd();
  42:main.c        ****     if(r>0.5){return randd();}
  43:main.c        ****     else{return randd()*-1;}
  44:main.c        **** }
  45:main.c        **** 
  46:main.c        **** double random_Offset(){
  47:main.c        ****     float r=0.0;
  48:main.c        ****     r=randd();
  49:main.c        ****     r=r*0.7;
  50:main.c        ****     r=r+0.5;
  51:main.c        ****     return r;
  52:main.c        **** }
  53:main.c        **** 
  54:main.c        **** void movimiento(unsigned int dirr,int mov){
  55:main.c        ****     char byteh,bytel;
  56:main.c        ****     byteh= mov >> 8;
  57:main.c        ****     bytel=mov;
  58:main.c        ****     dato_enviado[0]=VER ;//verificacion
  59:main.c        ****     dato_enviado[1]=dirr ;//dir
  60:main.c        ****     dato_enviado[2]=ESCRITURA ;//operacion
  61:main.c        ****     dato_enviado[3]=MOTOR;//lugar
  62:main.c        ****     dato_enviado[4]= byteh ;  //dato
  63:main.c        ****     dato_enviado[5]= bytel ;  //dato
  64:main.c        ****     CAN_SendMsg0(); 
  65:main.c        ****     CyDelay(25);    
  66:main.c        **** }
  67:main.c        **** 
  68:main.c        **** void Send_Angle(int datas,int Conta3){ 
  69:main.c        ****     int8 datoL=datas;
  70:main.c        ****     int8 datoH=datas>>8;  
  71:main.c        ****     dato_enviado[0]=VER2;//verificacion
  72:main.c        ****     dato_enviado[1]=Conta3;//dir
  73:main.c        ****     dato_enviado[2]=Conta3;//dir
  74:main.c        ****     dato_enviado[3]=ANGLE;
  75:main.c        ****     dato_enviado[4]=0;//lugar
  76:main.c        ****     dato_enviado[5]=0;  //dato... en este caso direcion para asignar
  77:main.c        ****     dato_enviado[6]=0;
  78:main.c        ****     dato_enviado[7]=Conta3;
  79:main.c        ****     CAN_SendMsg0(); 
  80:main.c        ****     CyDelay(50);
  81:main.c        **** }
  82:main.c        **** 
  83:main.c        **** void Enviar_Parametros(float Amplitud,float Phase,float Offset,int Orientacion){
  84:main.c        ****     //Convertir el Valor a entero para ser enviado
  85:main.c        ****     int Amp_env=(int)fabs(Amplitud*10000);
  86:main.c        ****     int Phase_env=(int)fabs(Phase*10000);
  87:main.c        ****     int Offset_env=(int)fabs(Offset*10000);
ARM GAS  C:\Users\HENRYA~1\AppData\Local\Temp\ccq56xEy.s 			page 3


  88:main.c        ****     //Enviar datos
  89:main.c        ****     dato_enviado_1[0]=VER_M1;
  90:main.c        ****     dato_enviado_1[1]=Orientacion;
  91:main.c        ****     //Convertir Amplitud
  92:main.c        ****     uint8 datoL=Amp_env;
  93:main.c        ****     uint8 datoH=Amp_env>>8;
  94:main.c        ****     uint8 Aux=0;
  95:main.c        ****     if(Amplitud<0.0){
  96:main.c        ****         Aux=(1<<7);
  97:main.c        ****         datoH=datoH+Aux;
  98:main.c        ****     }
  99:main.c        ****     else{
 100:main.c        ****         Aux=(0<<7);
 101:main.c        ****         datoH=datoH+Aux;    
 102:main.c        ****     }
 103:main.c        ****     dato_enviado_1[2]=datoL;
 104:main.c        ****     dato_enviado_1[3]=datoH;
 105:main.c        ****     //Convertir Fase
 106:main.c        ****     datoL=Phase_env;
 107:main.c        ****     datoH=Phase_env>>8;
 108:main.c        ****     if(Phase<0.0){
 109:main.c        ****         Aux=(1<<7);
 110:main.c        ****         datoH=datoH+Aux;
 111:main.c        ****     }
 112:main.c        ****     else{
 113:main.c        ****         Aux=(0<<7);
 114:main.c        ****         datoH=datoH+Aux;    
 115:main.c        ****     }
 116:main.c        ****     dato_enviado_1[4]=datoL;
 117:main.c        ****     dato_enviado_1[5]=datoH;
 118:main.c        ****     //Convertir Offset
 119:main.c        ****     datoL=Offset_env;
 120:main.c        ****     datoH=Offset_env>>8;
 121:main.c        ****     if(Offset<0.0){
 122:main.c        ****         Aux=(1<<7);
 123:main.c        ****         datoH=datoH+Aux;
 124:main.c        ****     }
 125:main.c        ****     else{
 126:main.c        ****         Aux=(0<<7);
 127:main.c        ****         datoH=datoH+Aux;    
 128:main.c        ****     }
 129:main.c        ****     dato_enviado_1[6]=datoL;
 130:main.c        ****     dato_enviado_1[7]=datoH;    
 131:main.c        ****     CAN_SendMsg1();
 132:main.c        ****     CyDelay(25);
 133:main.c        **** }
 134:main.c        **** 
 135:main.c        **** void Recibe_mail_0(){
 136:main.c        **** if(mailbox0[0]==VER){
 137:main.c        ****             switch(mailbox0[2]){
 138:main.c        ****             ///////////////////////////////////////////////////////
 139:main.c        ****             case ESCRITURA:{ 
 140:main.c        ****                 switch(mailbox0[3]){//////////+6+++++++++++++
 141:main.c        ****                     case CANTIDAD_MOD: 
 142:main.c        ****                             cantidadM=mailbox0[4];
 143:main.c        ****                     break;
 144:main.c        ****                     case START:
ARM GAS  C:\Users\HENRYA~1\AppData\Local\Temp\ccq56xEy.s 			page 4


 145:main.c        ****                         
 146:main.c        ****                     break;
 147:main.c        ****                 }
 148:main.c        ****             }                                            
 149:main.c        ****         }    
 150:main.c        **** }
 151:main.c        **** if(mailbox0[0]==VER2){
 152:main.c        ****                 switch(mailbox0[3]){
 153:main.c        ****                 ///////////////////////////////////////////////////////
 154:main.c        ****                 case ANGLE:{
 155:main.c        ****                     int Contador=mailbox0[7];
 156:main.c        ****                     if(Contador>=cantidadM){
 157:main.c        ****                         Enviar_Parametros(amplitud,fase,offset,V);
 158:main.c        ****                     } 
 159:main.c        ****                 }
 160:main.c        ****                 break;}
 161:main.c        ****             } 
 162:main.c        **** }
 163:main.c        **** 
 164:main.c        **** CY_ISR(interrutcan){
 165:main.c        ****     CAN_GlobalIntDisable();
 166:main.c        ****     CAN_MsgRXIsr();  
 167:main.c        ****     Recibe_mail_0();
 168:main.c        ****     CAN_GlobalIntEnable();
 169:main.c        **** }
 170:main.c        **** 
 171:main.c        **** double Medir_dist(){
 172:main.c        ****     CAN_isr_Stop();
 173:main.c        ****     int i=0;
 174:main.c        ****     float longitud=0.0;
 175:main.c        ****     Enviar_Parametros(0.0,0.0,0.833,V);
 176:main.c        ****     CyDelay(50);
 177:main.c        ****     Enviar_Parametros(0.0,0.0,0.833,V);
 178:main.c        ****     for(i=1;i<10;i++){
 179:main.c        ****         longitud=dist+longitud;
 180:main.c        ****         CyDelay(1000);
 181:main.c        ****     } 
 182:main.c        ****     longitud=longitud/10;
 183:main.c        ****     CAN_isr_StartEx(interrutcan);
 184:main.c        ****     return longitud;
 185:main.c        **** }
 186:main.c        **** 
 187:main.c        **** void Templado(){
 188:main.c        ****     if(flag==1){L_actual=Medir_dist();Max_Conta=50;}
 189:main.c        ****     else if(flag==3){
 190:main.c        ****         //Ingrese su Algoritmo Aqui
 191:main.c        ****         Sigma=L_anterior-L_actual;
 192:main.c        ****         float aleatorio_Simulado=0.0;
 193:main.c        ****         float exponente=0.0;
 194:main.c        ****         aleatorio_Simulado=randd();
 195:main.c        ****         exponente=Sigma/Periodo;
 196:main.c        ****         if(aleatorio_Simulado<exponente){}
 197:main.c        ****         else{
 198:main.c        ****             amplitud=random_amplitud();
 199:main.c        ****             fase=random_Fase();
 200:main.c        ****             offset=random_Offset();        
 201:main.c        ****         }
ARM GAS  C:\Users\HENRYA~1\AppData\Local\Temp\ccq56xEy.s 			page 5


 202:main.c        ****         if(Periodo==10){Periodo=1;}
 203:main.c        ****         else{Periodo++;}
 204:main.c        ****         L_anterior=L_actual;
 205:main.c        ****         flag=0;
 206:main.c        ****         Max_Conta=100;
 207:main.c        ****     }
 208:main.c        ****     else if(flag>3){flag=0;}  
 209:main.c        **** }
 210:main.c        **** 
 211:main.c        **** void Recibe_Mail_2(){
 212:main.c        ****     if(mailbox2[0]==SENSORES){
 213:main.c        ****         //Mailbox2[1] Derecha
 214:main.c        ****         //Mailbox2[2] Frente
 215:main.c        ****         //Mailbox2[3] Izquierda
 216:main.c        ****         if(mailbox2[1]==0&&mailbox2[2]==0&&mailbox2[3]==0)      {Cantidad_Sensores=0;}   //Normal
 217:main.c        ****         else if(mailbox2[1]==0&&mailbox2[2]==0&&mailbox2[3]==1) {Cantidad_Sensores=1;}   //Izquierd
 218:main.c        ****         else if(mailbox2[1]==0&&mailbox2[2]==1&&mailbox2[3]==0) {Cantidad_Sensores=2;}   //Frontal
 219:main.c        ****         else if(mailbox2[1]==0&&mailbox2[2]==1&&mailbox2[3]==1) {Cantidad_Sensores=3;}   //Frontal 
 220:main.c        ****         else if(mailbox2[1]==1&&mailbox2[2]==0&&mailbox2[3]==0) {Cantidad_Sensores=4;}   //Derecha
 221:main.c        ****         else if(mailbox2[1]==1&&mailbox2[2]==0&&mailbox2[3]==1) {Cantidad_Sensores=5;}   //Derecha 
 222:main.c        ****         else if(mailbox2[1]==1&&mailbox2[2]==1&&mailbox2[3]==0) {Cantidad_Sensores=6;}   //Frontal 
 223:main.c        ****         else if(mailbox2[1]==1&&mailbox2[2]==1&&mailbox2[3]==1) {Cantidad_Sensores=7;}   //Todos
 224:main.c        ****         else                                                    {Cantidad_Sensores=0;}   //Normal
 225:main.c        ****     }
 226:main.c        **** }
 227:main.c        **** 
 228:main.c        **** void Left_Move(){
 229:main.c        ****     Send_Angle(0,200);
 230:main.c        ****     int  i=0;
 231:main.c        ****     int j=0;
 232:main.c        ****     for(i=0;i<cantidadM;i++){ //Alineación
 233:main.c        ****         movimiento(i,512);
 234:main.c        ****         }
 235:main.c        ****     CyDelay(2000);
 236:main.c        ****     movimiento(cantidadM,675);//Ancla Trasera
 237:main.c        ****     CyDelay(2000);
 238:main.c        ****     //Giro
 239:main.c        ****     for(j=0;j<1;j++){
 240:main.c        ****         for(i=2;i<cantidadM;i=i+4){ 
 241:main.c        ****             movimiento(i,650);
 242:main.c        ****             movimiento(i+1,750);
 243:main.c        ****             }
 244:main.c        ****         movimiento(cantidadM,512);//Ancla Trasera
 245:main.c        ****         CyDelay(2000);
 246:main.c        ****         movimiento(0,350);//Ancla Delantera
 247:main.c        ****         CyDelay(2000);
 248:main.c        ****         for(i=2;i<cantidadM;i=i+4){ //Alineación
 249:main.c        ****             movimiento(i,512);
 250:main.c        ****             movimiento(i+1,512);
 251:main.c        ****         }    
 252:main.c        ****         CyDelay(2000);
 253:main.c        ****     }         
 254:main.c        ****     for(i=0;i<cantidadM;i++){ //Alineación
 255:main.c        ****         movimiento(i,512);
 256:main.c        ****         }
 257:main.c        ****     CyDelay(2000); 
 258:main.c        ****     Send_Angle(0,0);
ARM GAS  C:\Users\HENRYA~1\AppData\Local\Temp\ccq56xEy.s 			page 6


 259:main.c        **** }
 260:main.c        **** 
 261:main.c        **** void Right_Move(){
 262:main.c        ****     Send_Angle(0,200);
 263:main.c        ****     int  i=0;
 264:main.c        ****     int j=0;
 265:main.c        ****     for(i=0;i<cantidadM;i++){ //Alineación
 266:main.c        ****         movimiento(i,512);
 267:main.c        ****         }
 268:main.c        ****     CyDelay(2000);
 269:main.c        ****     movimiento(cantidadM,675);//Ancla Trasera
 270:main.c        ****     CyDelay(2000);
 271:main.c        ****     //Giro
 272:main.c        ****     for(j=0;j<1;j++){
 273:main.c        ****         for(i=2;i<cantidadM;i=i+4){ 
 274:main.c        ****             movimiento(i,374);
 275:main.c        ****             movimiento(i+1,274);
 276:main.c        ****             }
 277:main.c        ****         movimiento(cantidadM,512);//Ancla Trasera
 278:main.c        ****         CyDelay(2000);
 279:main.c        ****         movimiento(0,350);//Ancla Delantera
 280:main.c        ****         CyDelay(2000);
 281:main.c        ****         for(i=2;i<cantidadM;i=i+4){ //Alineación
 282:main.c        ****             movimiento(i,512);
 283:main.c        ****             movimiento(i+1,512);
 284:main.c        ****         }    
 285:main.c        ****         CyDelay(2000);
 286:main.c        ****     }         
 287:main.c        ****     for(i=0;i<cantidadM;i++){ //Alineación
 288:main.c        ****         movimiento(i,512);
 289:main.c        ****         }
 290:main.c        ****     CyDelay(2000); 
 291:main.c        ****     Send_Angle(0,0);
 292:main.c        **** }
 293:main.c        **** 
 294:main.c        **** void Select_Move(){
 295:main.c        ****     Send_Angle(0,200);
 296:main.c        ****     int  i=0;
 297:main.c        ****     for(i=0;i<cantidadM;i++){ //Alineación
 298:main.c        ****         movimiento(i,512);
 299:main.c        ****         }
 300:main.c        ****     CyDelay(2000);
 301:main.c        ****     movimiento(2,650);
 302:main.c        ****     CyDelay(4000);
 303:main.c        ****     double a=Medir_dist();
 304:main.c        ****     movimiento(2,374);
 305:main.c        ****     double b=Medir_dist();
 306:main.c        ****     CyDelay(4000);
 307:main.c        ****     if(a<b){
 308:main.c        ****         Left_Move();    
 309:main.c        ****     }
 310:main.c        ****     else{
 311:main.c        ****         Right_Move();
 312:main.c        ****     }
 313:main.c        **** }
 314:main.c        **** 
 315:main.c        **** //Interrupt's
ARM GAS  C:\Users\HENRYA~1\AppData\Local\Temp\ccq56xEy.s 			page 7


 316:main.c        **** CY_ISR(Temporizador){
 317:main.c        ****     conta++;
 318:main.c        ****     if(conta==Max_Conta){     
 319:main.c        ****         LED_1_Write(1);
 320:main.c        ****         if(Cantidad_Sensores==2&&dist<20){
 321:main.c        ****             Select_Move();      
 322:main.c        ****         }
 323:main.c        ****         else if(Cantidad_Sensores==3){//Izquierda
 324:main.c        ****             Left_Move();
 325:main.c        ****         }
 326:main.c        ****         else if(Cantidad_Sensores==6){//Derecha
 327:main.c        ****             Right_Move();           
 328:main.c        ****         }
 329:main.c        ****         else if(Cantidad_Sensores==7){//Reversa
 330:main.c        ****             Enviar_Parametros(0.8,0.833,0.5,V); 
 331:main.c        ****             CyDelay(1000);
 332:main.c        ****             Enviar_Parametros(0.0,0.833,0.5,H);
 333:main.c        ****             CyDelay(15000);
 334:main.c        ****         }
 335:main.c        ****         else{   //Adelante
 336:main.c        ****             flag++;      
 337:main.c        ****             Templado();
 338:main.c        ****             Enviar_Parametros(0.0,fase,offset,H);
 339:main.c        ****             CyDelay(1000);
 340:main.c        ****             Enviar_Parametros(amplitud,fase,offset,V);  
 341:main.c        ****         }
 342:main.c        ****         conta=0;
 343:main.c        ****     }
 344:main.c        ****     else{
 345:main.c        ****         LED_1_Write(0);
 346:main.c        ****     }  
 347:main.c        **** }
 348:main.c        **** 
 349:main.c        **** CY_ISR(Serial_Interrupt){
  28              		.loc 1 349 0
  29              		.cfi_startproc
  30              		@ args = 0, pretend = 0, frame = 0
  31              		@ frame_needed = 0, uses_anonymous_args = 0
  32 0000 10B5     		push	{r4, lr}
  33              		.cfi_def_cfa_offset 8
  34              		.cfi_offset 4, -8
  35              		.cfi_offset 14, -4
 350:main.c        ****     dist=SENSOR_U_GetChar();
  36              		.loc 1 350 0
  37 0002 FFF7FEFF 		bl	SENSOR_U_GetChar
  38              	.LVL0:
  39 0006 014B     		ldr	r3, .L2
  40 0008 1870     		strb	r0, [r3]
 351:main.c        **** }
  41              		.loc 1 351 0
  42              		@ sp needed
  43 000a 10BD     		pop	{r4, pc}
  44              	.L3:
  45              		.align	2
  46              	.L2:
  47 000c 00000000 		.word	.LANCHOR0
  48              		.cfi_endproc
ARM GAS  C:\Users\HENRYA~1\AppData\Local\Temp\ccq56xEy.s 			page 8


  49              	.LFE53:
  50              		.size	Serial_Interrupt, .-Serial_Interrupt
  51              		.global	__aeabi_i2d
  52              		.global	__aeabi_dmul
  53              		.section	.text.randd,"ax",%progbits
  54              		.align	2
  55              		.global	randd
  56              		.code	16
  57              		.thumb_func
  58              		.type	randd, %function
  59              	randd:
  60              	.LFB37:
  31:main.c        ****   return (double)rand()/((double)RAND_MAX + 1);
  61              		.loc 1 31 0
  62              		.cfi_startproc
  63              		@ args = 0, pretend = 0, frame = 0
  64              		@ frame_needed = 0, uses_anonymous_args = 0
  65 0000 10B5     		push	{r4, lr}
  66              		.cfi_def_cfa_offset 8
  67              		.cfi_offset 4, -8
  68              		.cfi_offset 14, -4
  32:main.c        **** }
  69              		.loc 1 32 0
  70 0002 FFF7FEFF 		bl	rand
  71              	.LVL1:
  72 0006 FFF7FEFF 		bl	__aeabi_i2d
  73              	.LVL2:
  74 000a 0022     		movs	r2, #0
  75 000c F823     		movs	r3, #248
  76 000e 9B05     		lsls	r3, r3, #22
  77 0010 FFF7FEFF 		bl	__aeabi_dmul
  78              	.LVL3:
  33:main.c        **** 
  79              		.loc 1 33 0
  80              		@ sp needed
  81 0014 10BD     		pop	{r4, pc}
  82              		.cfi_endproc
  83              	.LFE37:
  84              		.size	randd, .-randd
  85 0016 C046     		.section	.text.random_amplitud,"ax",%progbits
  86              		.align	2
  87              		.global	random_amplitud
  88              		.code	16
  89              		.thumb_func
  90              		.type	random_amplitud, %function
  91              	random_amplitud:
  92              	.LFB38:
  35:main.c        ****     return randd();
  93              		.loc 1 35 0
  94              		.cfi_startproc
  95              		@ args = 0, pretend = 0, frame = 0
  96              		@ frame_needed = 0, uses_anonymous_args = 0
  97 0000 10B5     		push	{r4, lr}
  98              		.cfi_def_cfa_offset 8
  99              		.cfi_offset 4, -8
 100              		.cfi_offset 14, -4
  36:main.c        **** }
ARM GAS  C:\Users\HENRYA~1\AppData\Local\Temp\ccq56xEy.s 			page 9


 101              		.loc 1 36 0
 102 0002 FFF7FEFF 		bl	randd
 103              	.LVL4:
  37:main.c        **** 
 104              		.loc 1 37 0
 105              		@ sp needed
 106 0006 10BD     		pop	{r4, pc}
 107              		.cfi_endproc
 108              	.LFE38:
 109              		.size	random_amplitud, .-random_amplitud
 110              		.global	__aeabi_d2f
 111              		.global	__aeabi_fcmpgt
 112              		.section	.text.random_Fase,"ax",%progbits
 113              		.align	2
 114              		.global	random_Fase
 115              		.code	16
 116              		.thumb_func
 117              		.type	random_Fase, %function
 118              	random_Fase:
 119              	.LFB39:
  39:main.c        ****     float r=0.0;
 120              		.loc 1 39 0
 121              		.cfi_startproc
 122              		@ args = 0, pretend = 0, frame = 0
 123              		@ frame_needed = 0, uses_anonymous_args = 0
 124 0000 10B5     		push	{r4, lr}
 125              		.cfi_def_cfa_offset 8
 126              		.cfi_offset 4, -8
 127              		.cfi_offset 14, -4
 128              	.LVL5:
  41:main.c        ****     if(r>0.5){return randd();}
 129              		.loc 1 41 0
 130 0002 FFF7FEFF 		bl	randd
 131              	.LVL6:
 132 0006 FFF7FEFF 		bl	__aeabi_d2f
 133              	.LVL7:
  42:main.c        ****     else{return randd()*-1;}
 134              		.loc 1 42 0
 135 000a FC21     		movs	r1, #252
 136 000c 8905     		lsls	r1, r1, #22
 137 000e FFF7FEFF 		bl	__aeabi_fcmpgt
 138              	.LVL8:
 139 0012 0028     		cmp	r0, #0
 140 0014 02D0     		beq	.L11
  42:main.c        ****     else{return randd()*-1;}
 141              		.loc 1 42 0 is_stmt 0 discriminator 1
 142 0016 FFF7FEFF 		bl	randd
 143              	.LVL9:
 144 001a 05E0     		b	.L9
 145              	.L11:
  43:main.c        **** }
 146              		.loc 1 43 0 is_stmt 1
 147 001c FFF7FEFF 		bl	randd
 148              	.LVL10:
 149 0020 8023     		movs	r3, #128
 150 0022 1B06     		lsls	r3, r3, #24
 151 0024 9C46     		mov	ip, r3
ARM GAS  C:\Users\HENRYA~1\AppData\Local\Temp\ccq56xEy.s 			page 10


 152 0026 6144     		add	r1, r1, ip
 153              	.L9:
  44:main.c        **** 
 154              		.loc 1 44 0
 155              		@ sp needed
 156 0028 10BD     		pop	{r4, pc}
 157              		.cfi_endproc
 158              	.LFE39:
 159              		.size	random_Fase, .-random_Fase
 160              		.global	__aeabi_f2d
 161              		.global	__aeabi_fadd
 162 002a C046     		.section	.text.random_Offset,"ax",%progbits
 163              		.align	2
 164              		.global	random_Offset
 165              		.code	16
 166              		.thumb_func
 167              		.type	random_Offset, %function
 168              	random_Offset:
 169              	.LFB40:
  46:main.c        ****     float r=0.0;
 170              		.loc 1 46 0
 171              		.cfi_startproc
 172              		@ args = 0, pretend = 0, frame = 0
 173              		@ frame_needed = 0, uses_anonymous_args = 0
 174 0000 10B5     		push	{r4, lr}
 175              		.cfi_def_cfa_offset 8
 176              		.cfi_offset 4, -8
 177              		.cfi_offset 14, -4
 178              	.LVL11:
  48:main.c        ****     r=r*0.7;
 179              		.loc 1 48 0
 180 0002 FFF7FEFF 		bl	randd
 181              	.LVL12:
 182 0006 FFF7FEFF 		bl	__aeabi_d2f
 183              	.LVL13:
  49:main.c        ****     r=r+0.5;
 184              		.loc 1 49 0
 185 000a FFF7FEFF 		bl	__aeabi_f2d
 186              	.LVL14:
 187 000e 064A     		ldr	r2, .L13
 188 0010 064B     		ldr	r3, .L13+4
 189 0012 FFF7FEFF 		bl	__aeabi_dmul
 190              	.LVL15:
 191 0016 FFF7FEFF 		bl	__aeabi_d2f
 192              	.LVL16:
  50:main.c        ****     return r;
 193              		.loc 1 50 0
 194 001a FC21     		movs	r1, #252
 195 001c 8905     		lsls	r1, r1, #22
 196 001e FFF7FEFF 		bl	__aeabi_fadd
 197              	.LVL17:
  51:main.c        **** }
 198              		.loc 1 51 0
 199 0022 FFF7FEFF 		bl	__aeabi_f2d
 200              	.LVL18:
  52:main.c        **** 
 201              		.loc 1 52 0
ARM GAS  C:\Users\HENRYA~1\AppData\Local\Temp\ccq56xEy.s 			page 11


 202              		@ sp needed
 203 0026 10BD     		pop	{r4, pc}
 204              	.L14:
 205              		.align	2
 206              	.L13:
 207 0028 66666666 		.word	1717986918
 208 002c 6666E63F 		.word	1072064102
 209              		.cfi_endproc
 210              	.LFE40:
 211              		.size	random_Offset, .-random_Offset
 212              		.section	.text.movimiento,"ax",%progbits
 213              		.align	2
 214              		.global	movimiento
 215              		.code	16
 216              		.thumb_func
 217              		.type	movimiento, %function
 218              	movimiento:
 219              	.LFB41:
  54:main.c        ****     char byteh,bytel;
 220              		.loc 1 54 0
 221              		.cfi_startproc
 222              		@ args = 0, pretend = 0, frame = 0
 223              		@ frame_needed = 0, uses_anonymous_args = 0
 224              	.LVL19:
 225 0000 10B5     		push	{r4, lr}
 226              		.cfi_def_cfa_offset 8
 227              		.cfi_offset 4, -8
 228              		.cfi_offset 14, -4
  56:main.c        ****     bytel=mov;
 229              		.loc 1 56 0
 230 0002 0A12     		asrs	r2, r1, #8
 231              	.LVL20:
  58:main.c        ****     dato_enviado[1]=dirr ;//dir
 232              		.loc 1 58 0
 233 0004 074B     		ldr	r3, .L16
 234 0006 7F24     		movs	r4, #127
 235 0008 1C70     		strb	r4, [r3]
  59:main.c        ****     dato_enviado[2]=ESCRITURA ;//operacion
 236              		.loc 1 59 0
 237 000a 5870     		strb	r0, [r3, #1]
  60:main.c        ****     dato_enviado[3]=MOTOR;//lugar
 238              		.loc 1 60 0
 239 000c 0220     		movs	r0, #2
 240              	.LVL21:
 241 000e 9870     		strb	r0, [r3, #2]
  61:main.c        ****     dato_enviado[4]= byteh ;  //dato
 242              		.loc 1 61 0
 243 0010 0130     		adds	r0, r0, #1
 244 0012 D870     		strb	r0, [r3, #3]
  62:main.c        ****     dato_enviado[5]= bytel ;  //dato
 245              		.loc 1 62 0
 246 0014 1A71     		strb	r2, [r3, #4]
  63:main.c        ****     CAN_SendMsg0(); 
 247              		.loc 1 63 0
 248 0016 5971     		strb	r1, [r3, #5]
  64:main.c        ****     CyDelay(25);    
 249              		.loc 1 64 0
ARM GAS  C:\Users\HENRYA~1\AppData\Local\Temp\ccq56xEy.s 			page 12


 250 0018 FFF7FEFF 		bl	CAN_SendMsg0
 251              	.LVL22:
  65:main.c        **** }
 252              		.loc 1 65 0
 253 001c 1920     		movs	r0, #25
 254 001e FFF7FEFF 		bl	CyDelay
 255              	.LVL23:
  66:main.c        **** 
 256              		.loc 1 66 0
 257              		@ sp needed
 258 0022 10BD     		pop	{r4, pc}
 259              	.L17:
 260              		.align	2
 261              	.L16:
 262 0024 00000000 		.word	dato_enviado
 263              		.cfi_endproc
 264              	.LFE41:
 265              		.size	movimiento, .-movimiento
 266              		.section	.text.Send_Angle,"ax",%progbits
 267              		.align	2
 268              		.global	Send_Angle
 269              		.code	16
 270              		.thumb_func
 271              		.type	Send_Angle, %function
 272              	Send_Angle:
 273              	.LFB42:
  68:main.c        ****     int8 datoL=datas;
 274              		.loc 1 68 0
 275              		.cfi_startproc
 276              		@ args = 0, pretend = 0, frame = 0
 277              		@ frame_needed = 0, uses_anonymous_args = 0
 278              	.LVL24:
 279 0000 10B5     		push	{r4, lr}
 280              		.cfi_def_cfa_offset 8
 281              		.cfi_offset 4, -8
 282              		.cfi_offset 14, -4
 283              	.LVL25:
  71:main.c        ****     dato_enviado[1]=Conta3;//dir
 284              		.loc 1 71 0
 285 0002 094B     		ldr	r3, .L19
 286 0004 8022     		movs	r2, #128
 287 0006 1A70     		strb	r2, [r3]
  72:main.c        ****     dato_enviado[2]=Conta3;//dir
 288              		.loc 1 72 0
 289 0008 C9B2     		uxtb	r1, r1
 290              	.LVL26:
 291 000a 5970     		strb	r1, [r3, #1]
  73:main.c        ****     dato_enviado[3]=ANGLE;
 292              		.loc 1 73 0
 293 000c 9970     		strb	r1, [r3, #2]
  74:main.c        ****     dato_enviado[4]=0;//lugar
 294              		.loc 1 74 0
 295 000e 653A     		subs	r2, r2, #101
 296 0010 DA70     		strb	r2, [r3, #3]
  75:main.c        ****     dato_enviado[5]=0;  //dato... en este caso direcion para asignar
 297              		.loc 1 75 0
 298 0012 0022     		movs	r2, #0
ARM GAS  C:\Users\HENRYA~1\AppData\Local\Temp\ccq56xEy.s 			page 13


 299 0014 1A71     		strb	r2, [r3, #4]
  76:main.c        ****     dato_enviado[6]=0;
 300              		.loc 1 76 0
 301 0016 5A71     		strb	r2, [r3, #5]
  77:main.c        ****     dato_enviado[7]=Conta3;
 302              		.loc 1 77 0
 303 0018 9A71     		strb	r2, [r3, #6]
  78:main.c        ****     CAN_SendMsg0(); 
 304              		.loc 1 78 0
 305 001a D971     		strb	r1, [r3, #7]
  79:main.c        ****     CyDelay(50);
 306              		.loc 1 79 0
 307 001c FFF7FEFF 		bl	CAN_SendMsg0
 308              	.LVL27:
  80:main.c        **** }
 309              		.loc 1 80 0
 310 0020 3220     		movs	r0, #50
 311 0022 FFF7FEFF 		bl	CyDelay
 312              	.LVL28:
  81:main.c        **** 
 313              		.loc 1 81 0
 314              		@ sp needed
 315 0026 10BD     		pop	{r4, pc}
 316              	.L20:
 317              		.align	2
 318              	.L19:
 319 0028 00000000 		.word	dato_enviado
 320              		.cfi_endproc
 321              	.LFE42:
 322              		.size	Send_Angle, .-Send_Angle
 323              		.global	__aeabi_fmul
 324              		.global	__aeabi_f2iz
 325              		.global	__aeabi_fcmplt
 326              		.section	.text.Enviar_Parametros,"ax",%progbits
 327              		.align	2
 328              		.global	Enviar_Parametros
 329              		.code	16
 330              		.thumb_func
 331              		.type	Enviar_Parametros, %function
 332              	Enviar_Parametros:
 333              	.LFB43:
  83:main.c        ****     //Convertir el Valor a entero para ser enviado
 334              		.loc 1 83 0
 335              		.cfi_startproc
 336              		@ args = 0, pretend = 0, frame = 16
 337              		@ frame_needed = 0, uses_anonymous_args = 0
 338              	.LVL29:
 339 0000 F0B5     		push	{r4, r5, r6, r7, lr}
 340              		.cfi_def_cfa_offset 20
 341              		.cfi_offset 4, -20
 342              		.cfi_offset 5, -16
 343              		.cfi_offset 6, -12
 344              		.cfi_offset 7, -8
 345              		.cfi_offset 14, -4
 346 0002 85B0     		sub	sp, sp, #20
 347              		.cfi_def_cfa_offset 40
 348 0004 0190     		str	r0, [sp, #4]
ARM GAS  C:\Users\HENRYA~1\AppData\Local\Temp\ccq56xEy.s 			page 14


 349 0006 0291     		str	r1, [sp, #8]
 350 0008 0392     		str	r2, [sp, #12]
 351 000a 1F00     		movs	r7, r3
  85:main.c        ****     int Phase_env=(int)fabs(Phase*10000);
 352              		.loc 1 85 0
 353 000c 2749     		ldr	r1, .L31
 354              	.LVL30:
 355 000e FFF7FEFF 		bl	__aeabi_fmul
 356              	.LVL31:
 357 0012 4000     		lsls	r0, r0, #1
 358 0014 4008     		lsrs	r0, r0, #1
 359 0016 FFF7FEFF 		bl	__aeabi_f2iz
 360              	.LVL32:
 361 001a 0600     		movs	r6, r0
 362              	.LVL33:
  86:main.c        ****     int Offset_env=(int)fabs(Offset*10000);
 363              		.loc 1 86 0
 364 001c 2349     		ldr	r1, .L31
 365 001e 0298     		ldr	r0, [sp, #8]
 366              	.LVL34:
 367 0020 FFF7FEFF 		bl	__aeabi_fmul
 368              	.LVL35:
 369 0024 4000     		lsls	r0, r0, #1
 370 0026 4008     		lsrs	r0, r0, #1
 371 0028 FFF7FEFF 		bl	__aeabi_f2iz
 372              	.LVL36:
 373 002c 0500     		movs	r5, r0
 374              	.LVL37:
  87:main.c        ****     //Enviar datos
 375              		.loc 1 87 0
 376 002e 1F49     		ldr	r1, .L31
 377 0030 0398     		ldr	r0, [sp, #12]
 378              	.LVL38:
 379 0032 FFF7FEFF 		bl	__aeabi_fmul
 380              	.LVL39:
 381 0036 4000     		lsls	r0, r0, #1
 382 0038 4008     		lsrs	r0, r0, #1
 383 003a FFF7FEFF 		bl	__aeabi_f2iz
 384              	.LVL40:
 385 003e 0400     		movs	r4, r0
 386              	.LVL41:
  89:main.c        ****     dato_enviado_1[1]=Orientacion;
 387              		.loc 1 89 0
 388 0040 1B4B     		ldr	r3, .L31+4
 389 0042 8122     		movs	r2, #129
 390 0044 1A70     		strb	r2, [r3]
  90:main.c        ****     //Convertir Amplitud
 391              		.loc 1 90 0
 392 0046 5F70     		strb	r7, [r3, #1]
  92:main.c        ****     uint8 datoH=Amp_env>>8;
 393              		.loc 1 92 0
 394 0048 F7B2     		uxtb	r7, r6
 395              	.LVL42:
  93:main.c        ****     uint8 Aux=0;
 396              		.loc 1 93 0
 397 004a 3612     		asrs	r6, r6, #8
 398              	.LVL43:
ARM GAS  C:\Users\HENRYA~1\AppData\Local\Temp\ccq56xEy.s 			page 15


 399 004c F6B2     		uxtb	r6, r6
 400              	.LVL44:
  95:main.c        ****         Aux=(1<<7);
 401              		.loc 1 95 0
 402 004e 0021     		movs	r1, #0
 403 0050 0198     		ldr	r0, [sp, #4]
 404              	.LVL45:
 405 0052 FFF7FEFF 		bl	__aeabi_fcmplt
 406              	.LVL46:
 407 0056 0028     		cmp	r0, #0
 408 0058 01D0     		beq	.L22
 409              	.LVL47:
  97:main.c        ****     }
 410              		.loc 1 97 0
 411 005a 803E     		subs	r6, r6, #128
 412              	.LVL48:
 413 005c F6B2     		uxtb	r6, r6
 414              	.LVL49:
 415              	.L22:
 103:main.c        ****     dato_enviado_1[3]=datoH;
 416              		.loc 1 103 0
 417 005e 144B     		ldr	r3, .L31+4
 418 0060 9F70     		strb	r7, [r3, #2]
 104:main.c        ****     //Convertir Fase
 419              		.loc 1 104 0
 420 0062 DE70     		strb	r6, [r3, #3]
 106:main.c        ****     datoH=Phase_env>>8;
 421              		.loc 1 106 0
 422 0064 EEB2     		uxtb	r6, r5
 423              	.LVL50:
 107:main.c        ****     if(Phase<0.0){
 424              		.loc 1 107 0
 425 0066 2D12     		asrs	r5, r5, #8
 426              	.LVL51:
 427 0068 EDB2     		uxtb	r5, r5
 428              	.LVL52:
 108:main.c        ****         Aux=(1<<7);
 429              		.loc 1 108 0
 430 006a 0021     		movs	r1, #0
 431 006c 0298     		ldr	r0, [sp, #8]
 432 006e FFF7FEFF 		bl	__aeabi_fcmplt
 433              	.LVL53:
 434 0072 0028     		cmp	r0, #0
 435 0074 01D0     		beq	.L24
 436              	.LVL54:
 110:main.c        ****     }
 437              		.loc 1 110 0
 438 0076 803D     		subs	r5, r5, #128
 439              	.LVL55:
 440 0078 EDB2     		uxtb	r5, r5
 441              	.LVL56:
 442              	.L24:
 116:main.c        ****     dato_enviado_1[5]=datoH;
 443              		.loc 1 116 0
 444 007a 0D4B     		ldr	r3, .L31+4
 445 007c 1E71     		strb	r6, [r3, #4]
 117:main.c        ****     //Convertir Offset
ARM GAS  C:\Users\HENRYA~1\AppData\Local\Temp\ccq56xEy.s 			page 16


 446              		.loc 1 117 0
 447 007e 5D71     		strb	r5, [r3, #5]
 119:main.c        ****     datoH=Offset_env>>8;
 448              		.loc 1 119 0
 449 0080 E5B2     		uxtb	r5, r4
 450              	.LVL57:
 120:main.c        ****     if(Offset<0.0){
 451              		.loc 1 120 0
 452 0082 2412     		asrs	r4, r4, #8
 453              	.LVL58:
 454 0084 E4B2     		uxtb	r4, r4
 455              	.LVL59:
 121:main.c        ****         Aux=(1<<7);
 456              		.loc 1 121 0
 457 0086 0021     		movs	r1, #0
 458 0088 0398     		ldr	r0, [sp, #12]
 459 008a FFF7FEFF 		bl	__aeabi_fcmplt
 460              	.LVL60:
 461 008e 0028     		cmp	r0, #0
 462 0090 01D0     		beq	.L26
 463              	.LVL61:
 123:main.c        ****     }
 464              		.loc 1 123 0
 465 0092 803C     		subs	r4, r4, #128
 466              	.LVL62:
 467 0094 E4B2     		uxtb	r4, r4
 468              	.LVL63:
 469              	.L26:
 129:main.c        ****     dato_enviado_1[7]=datoH;    
 470              		.loc 1 129 0
 471 0096 064B     		ldr	r3, .L31+4
 472 0098 9D71     		strb	r5, [r3, #6]
 130:main.c        ****     CAN_SendMsg1();
 473              		.loc 1 130 0
 474 009a DC71     		strb	r4, [r3, #7]
 131:main.c        ****     CyDelay(25);
 475              		.loc 1 131 0
 476 009c FFF7FEFF 		bl	CAN_SendMsg1
 477              	.LVL64:
 132:main.c        **** }
 478              		.loc 1 132 0
 479 00a0 1920     		movs	r0, #25
 480 00a2 FFF7FEFF 		bl	CyDelay
 481              	.LVL65:
 133:main.c        **** 
 482              		.loc 1 133 0
 483 00a6 05B0     		add	sp, sp, #20
 484              		@ sp needed
 485              	.LVL66:
 486              	.LVL67:
 487 00a8 F0BD     		pop	{r4, r5, r6, r7, pc}
 488              	.L32:
 489 00aa C046     		.align	2
 490              	.L31:
 491 00ac 00401C46 		.word	1176256512
 492 00b0 00000000 		.word	dato_enviado_1
 493              		.cfi_endproc
ARM GAS  C:\Users\HENRYA~1\AppData\Local\Temp\ccq56xEy.s 			page 17


 494              	.LFE43:
 495              		.size	Enviar_Parametros, .-Enviar_Parametros
 496              		.section	.text.Recibe_mail_0,"ax",%progbits
 497              		.align	2
 498              		.global	Recibe_mail_0
 499              		.code	16
 500              		.thumb_func
 501              		.type	Recibe_mail_0, %function
 502              	Recibe_mail_0:
 503              	.LFB44:
 135:main.c        **** if(mailbox0[0]==VER){
 504              		.loc 1 135 0
 505              		.cfi_startproc
 506              		@ args = 0, pretend = 0, frame = 0
 507              		@ frame_needed = 0, uses_anonymous_args = 0
 508 0000 10B5     		push	{r4, lr}
 509              		.cfi_def_cfa_offset 8
 510              		.cfi_offset 4, -8
 511              		.cfi_offset 14, -4
 136:main.c        ****             switch(mailbox0[2]){
 512              		.loc 1 136 0
 513 0002 124B     		ldr	r3, .L39
 514 0004 1B78     		ldrb	r3, [r3]
 515 0006 7F2B     		cmp	r3, #127
 516 0008 0BD1     		bne	.L34
 137:main.c        ****             ///////////////////////////////////////////////////////
 517              		.loc 1 137 0
 518 000a 104A     		ldr	r2, .L39
 519 000c 9278     		ldrb	r2, [r2, #2]
 520 000e 022A     		cmp	r2, #2
 521 0010 07D1     		bne	.L34
 140:main.c        ****                     case CANTIDAD_MOD: 
 522              		.loc 1 140 0
 523 0012 0E4A     		ldr	r2, .L39
 524 0014 D278     		ldrb	r2, [r2, #3]
 525 0016 2B2A     		cmp	r2, #43
 526 0018 03D1     		bne	.L34
 142:main.c        ****                     break;
 527              		.loc 1 142 0
 528 001a 0C4A     		ldr	r2, .L39
 529 001c 1179     		ldrb	r1, [r2, #4]
 530 001e 0C4A     		ldr	r2, .L39+4
 531 0020 5160     		str	r1, [r2, #4]
 532              	.L34:
 151:main.c        ****                 switch(mailbox0[3]){
 533              		.loc 1 151 0
 534 0022 802B     		cmp	r3, #128
 535 0024 10D1     		bne	.L33
 152:main.c        ****                 ///////////////////////////////////////////////////////
 536              		.loc 1 152 0
 537 0026 094B     		ldr	r3, .L39
 538 0028 DB78     		ldrb	r3, [r3, #3]
 539 002a 1B2B     		cmp	r3, #27
 540 002c 0CD1     		bne	.L33
 541              	.LBB2:
 155:main.c        ****                     if(Contador>=cantidadM){
 542              		.loc 1 155 0
ARM GAS  C:\Users\HENRYA~1\AppData\Local\Temp\ccq56xEy.s 			page 18


 543 002e 074B     		ldr	r3, .L39
 544 0030 DA79     		ldrb	r2, [r3, #7]
 545              	.LVL68:
 156:main.c        ****                         Enviar_Parametros(amplitud,fase,offset,V);
 546              		.loc 1 156 0
 547 0032 074B     		ldr	r3, .L39+4
 548 0034 5B68     		ldr	r3, [r3, #4]
 549 0036 9A42     		cmp	r2, r3
 550 0038 06DB     		blt	.L33
 157:main.c        ****                     } 
 551              		.loc 1 157 0
 552 003a 064B     		ldr	r3, .L39+8
 553 003c 1A68     		ldr	r2, [r3]
 554              	.LVL69:
 555 003e 5968     		ldr	r1, [r3, #4]
 556 0040 9868     		ldr	r0, [r3, #8]
 557 0042 2123     		movs	r3, #33
 558 0044 FFF7FEFF 		bl	Enviar_Parametros
 559              	.LVL70:
 560              	.L33:
 561              	.LBE2:
 162:main.c        **** 
 562              		.loc 1 162 0
 563              		@ sp needed
 564 0048 10BD     		pop	{r4, pc}
 565              	.L40:
 566 004a C046     		.align	2
 567              	.L39:
 568 004c 00000000 		.word	mailbox0
 569 0050 00000000 		.word	.LANCHOR0
 570 0054 00000000 		.word	.LANCHOR1
 571              		.cfi_endproc
 572              	.LFE44:
 573              		.size	Recibe_mail_0, .-Recibe_mail_0
 574              		.section	.text.interrutcan,"ax",%progbits
 575              		.align	2
 576              		.global	interrutcan
 577              		.code	16
 578              		.thumb_func
 579              		.type	interrutcan, %function
 580              	interrutcan:
 581              	.LFB45:
 164:main.c        ****     CAN_GlobalIntDisable();
 582              		.loc 1 164 0
 583              		.cfi_startproc
 584              		@ args = 0, pretend = 0, frame = 0
 585              		@ frame_needed = 0, uses_anonymous_args = 0
 586 0000 10B5     		push	{r4, lr}
 587              		.cfi_def_cfa_offset 8
 588              		.cfi_offset 4, -8
 589              		.cfi_offset 14, -4
 165:main.c        ****     CAN_MsgRXIsr();  
 590              		.loc 1 165 0
 591 0002 FFF7FEFF 		bl	CAN_GlobalIntDisable
 592              	.LVL71:
 166:main.c        ****     Recibe_mail_0();
 593              		.loc 1 166 0
ARM GAS  C:\Users\HENRYA~1\AppData\Local\Temp\ccq56xEy.s 			page 19


 594 0006 FFF7FEFF 		bl	CAN_MsgRXIsr
 595              	.LVL72:
 167:main.c        ****     CAN_GlobalIntEnable();
 596              		.loc 1 167 0
 597 000a FFF7FEFF 		bl	Recibe_mail_0
 598              	.LVL73:
 168:main.c        **** }
 599              		.loc 1 168 0
 600 000e FFF7FEFF 		bl	CAN_GlobalIntEnable
 601              	.LVL74:
 169:main.c        **** 
 602              		.loc 1 169 0
 603              		@ sp needed
 604 0012 10BD     		pop	{r4, pc}
 605              		.cfi_endproc
 606              	.LFE45:
 607              		.size	interrutcan, .-interrutcan
 608              		.global	__aeabi_i2f
 609              		.global	__aeabi_fdiv
 610              		.section	.text.Medir_dist,"ax",%progbits
 611              		.align	2
 612              		.global	Medir_dist
 613              		.code	16
 614              		.thumb_func
 615              		.type	Medir_dist, %function
 616              	Medir_dist:
 617              	.LFB46:
 171:main.c        ****     CAN_isr_Stop();
 618              		.loc 1 171 0
 619              		.cfi_startproc
 620              		@ args = 0, pretend = 0, frame = 0
 621              		@ frame_needed = 0, uses_anonymous_args = 0
 622 0000 70B5     		push	{r4, r5, r6, lr}
 623              		.cfi_def_cfa_offset 16
 624              		.cfi_offset 4, -16
 625              		.cfi_offset 5, -12
 626              		.cfi_offset 6, -8
 627              		.cfi_offset 14, -4
 172:main.c        ****     int i=0;
 628              		.loc 1 172 0
 629 0002 FFF7FEFF 		bl	CAN_isr_Stop
 630              	.LVL75:
 175:main.c        ****     CyDelay(50);
 631              		.loc 1 175 0
 632 0006 174C     		ldr	r4, .L45
 633 0008 0025     		movs	r5, #0
 634 000a 2123     		movs	r3, #33
 635 000c 221C     		adds	r2, r4, #0
 636 000e 291C     		adds	r1, r5, #0
 637 0010 281C     		adds	r0, r5, #0
 638 0012 FFF7FEFF 		bl	Enviar_Parametros
 639              	.LVL76:
 176:main.c        ****     Enviar_Parametros(0.0,0.0,0.833,V);
 640              		.loc 1 176 0
 641 0016 3220     		movs	r0, #50
 642 0018 FFF7FEFF 		bl	CyDelay
 643              	.LVL77:
ARM GAS  C:\Users\HENRYA~1\AppData\Local\Temp\ccq56xEy.s 			page 20


 177:main.c        ****     for(i=1;i<10;i++){
 644              		.loc 1 177 0
 645 001c 2123     		movs	r3, #33
 646 001e 221C     		adds	r2, r4, #0
 647 0020 291C     		adds	r1, r5, #0
 648 0022 281C     		adds	r0, r5, #0
 649 0024 FFF7FEFF 		bl	Enviar_Parametros
 650              	.LVL78:
 178:main.c        ****         longitud=dist+longitud;
 651              		.loc 1 178 0
 652 0028 0124     		movs	r4, #1
 653 002a 0DE0     		b	.L43
 654              	.LVL79:
 655              	.L44:
 179:main.c        ****         CyDelay(1000);
 656              		.loc 1 179 0 discriminator 3
 657 002c 0E4B     		ldr	r3, .L45+4
 658 002e 1878     		ldrb	r0, [r3]
 659 0030 FFF7FEFF 		bl	__aeabi_i2f
 660              	.LVL80:
 661 0034 011C     		adds	r1, r0, #0
 662 0036 281C     		adds	r0, r5, #0
 663 0038 FFF7FEFF 		bl	__aeabi_fadd
 664              	.LVL81:
 665 003c 051C     		adds	r5, r0, #0
 666              	.LVL82:
 180:main.c        ****     } 
 667              		.loc 1 180 0 discriminator 3
 668 003e FA20     		movs	r0, #250
 669              	.LVL83:
 670 0040 8000     		lsls	r0, r0, #2
 671 0042 FFF7FEFF 		bl	CyDelay
 672              	.LVL84:
 178:main.c        ****         longitud=dist+longitud;
 673              		.loc 1 178 0 discriminator 3
 674 0046 0134     		adds	r4, r4, #1
 675              	.LVL85:
 676              	.L43:
 178:main.c        ****         longitud=dist+longitud;
 677              		.loc 1 178 0 is_stmt 0 discriminator 1
 678 0048 092C     		cmp	r4, #9
 679 004a EFDD     		ble	.L44
 182:main.c        ****     CAN_isr_StartEx(interrutcan);
 680              		.loc 1 182 0 is_stmt 1
 681 004c 0749     		ldr	r1, .L45+8
 682 004e 281C     		adds	r0, r5, #0
 683 0050 FFF7FEFF 		bl	__aeabi_fdiv
 684              	.LVL86:
 685 0054 041C     		adds	r4, r0, #0
 686              	.LVL87:
 183:main.c        ****     return longitud;
 687              		.loc 1 183 0
 688 0056 0648     		ldr	r0, .L45+12
 689              	.LVL88:
 690 0058 FFF7FEFF 		bl	CAN_isr_StartEx
 691              	.LVL89:
 184:main.c        **** }
ARM GAS  C:\Users\HENRYA~1\AppData\Local\Temp\ccq56xEy.s 			page 21


 692              		.loc 1 184 0
 693 005c 201C     		adds	r0, r4, #0
 694 005e FFF7FEFF 		bl	__aeabi_f2d
 695              	.LVL90:
 185:main.c        **** 
 696              		.loc 1 185 0
 697              		@ sp needed
 698              	.LVL91:
 699 0062 70BD     		pop	{r4, r5, r6, pc}
 700              	.L46:
 701              		.align	2
 702              	.L45:
 703 0064 7D3F553F 		.word	1062551421
 704 0068 00000000 		.word	.LANCHOR0
 705 006c 00002041 		.word	1092616192
 706 0070 00000000 		.word	interrutcan
 707              		.cfi_endproc
 708              	.LFE46:
 709              		.size	Medir_dist, .-Medir_dist
 710              		.global	__aeabi_fsub
 711              		.section	.text.Templado,"ax",%progbits
 712              		.align	2
 713              		.global	Templado
 714              		.code	16
 715              		.thumb_func
 716              		.type	Templado, %function
 717              	Templado:
 718              	.LFB47:
 187:main.c        ****     if(flag==1){L_actual=Medir_dist();Max_Conta=50;}
 719              		.loc 1 187 0
 720              		.cfi_startproc
 721              		@ args = 0, pretend = 0, frame = 0
 722              		@ frame_needed = 0, uses_anonymous_args = 0
 723 0000 70B5     		push	{r4, r5, r6, lr}
 724              		.cfi_def_cfa_offset 16
 725              		.cfi_offset 4, -16
 726              		.cfi_offset 5, -12
 727              		.cfi_offset 6, -8
 728              		.cfi_offset 14, -4
 188:main.c        ****     else if(flag==3){
 729              		.loc 1 188 0
 730 0002 2B4B     		ldr	r3, .L54
 731 0004 9B68     		ldr	r3, [r3, #8]
 732 0006 012B     		cmp	r3, #1
 733 0008 09D1     		bne	.L48
 188:main.c        ****     else if(flag==3){
 734              		.loc 1 188 0 is_stmt 0 discriminator 1
 735 000a FFF7FEFF 		bl	Medir_dist
 736              	.LVL92:
 737 000e FFF7FEFF 		bl	__aeabi_d2f
 738              	.LVL93:
 739 0012 274B     		ldr	r3, .L54
 740 0014 D860     		str	r0, [r3, #12]
 741 0016 3222     		movs	r2, #50
 742 0018 264B     		ldr	r3, .L54+4
 743 001a DA60     		str	r2, [r3, #12]
 744 001c 46E0     		b	.L47
ARM GAS  C:\Users\HENRYA~1\AppData\Local\Temp\ccq56xEy.s 			page 22


 745              	.L48:
 189:main.c        ****         //Ingrese su Algoritmo Aqui
 746              		.loc 1 189 0 is_stmt 1
 747 001e 032B     		cmp	r3, #3
 748 0020 3FD1     		bne	.L50
 749              	.LBB3:
 191:main.c        ****         float aleatorio_Simulado=0.0;
 750              		.loc 1 191 0
 751 0022 234C     		ldr	r4, .L54
 752 0024 E168     		ldr	r1, [r4, #12]
 753 0026 2069     		ldr	r0, [r4, #16]
 754 0028 FFF7FEFF 		bl	__aeabi_fsub
 755              	.LVL94:
 756 002c 6061     		str	r0, [r4, #20]
 757              	.LVL95:
 194:main.c        ****         exponente=Sigma/Periodo;
 758              		.loc 1 194 0
 759 002e FFF7FEFF 		bl	randd
 760              	.LVL96:
 761 0032 FFF7FEFF 		bl	__aeabi_d2f
 762              	.LVL97:
 763 0036 051C     		adds	r5, r0, #0
 764              	.LVL98:
 195:main.c        ****         if(aleatorio_Simulado<exponente){}
 765              		.loc 1 195 0
 766 0038 6469     		ldr	r4, [r4, #20]
 767 003a 1E4B     		ldr	r3, .L54+4
 768 003c 1020     		movs	r0, #16
 769 003e 185E     		ldrsh	r0, [r3, r0]
 770              	.LVL99:
 771 0040 FFF7FEFF 		bl	__aeabi_i2f
 772              	.LVL100:
 773 0044 011C     		adds	r1, r0, #0
 774 0046 201C     		adds	r0, r4, #0
 775 0048 FFF7FEFF 		bl	__aeabi_fdiv
 776              	.LVL101:
 777 004c 011C     		adds	r1, r0, #0
 778              	.LVL102:
 196:main.c        ****         else{
 779              		.loc 1 196 0
 780 004e 281C     		adds	r0, r5, #0
 781              	.LVL103:
 782 0050 FFF7FEFF 		bl	__aeabi_fcmplt
 783              	.LVL104:
 784 0054 0028     		cmp	r0, #0
 785 0056 0FD1     		bne	.L51
 198:main.c        ****             fase=random_Fase();
 786              		.loc 1 198 0
 787 0058 FFF7FEFF 		bl	random_amplitud
 788              	.LVL105:
 789 005c 154C     		ldr	r4, .L54+4
 790 005e FFF7FEFF 		bl	__aeabi_d2f
 791              	.LVL106:
 792 0062 A060     		str	r0, [r4, #8]
 199:main.c        ****             offset=random_Offset();        
 793              		.loc 1 199 0
 794 0064 FFF7FEFF 		bl	random_Fase
ARM GAS  C:\Users\HENRYA~1\AppData\Local\Temp\ccq56xEy.s 			page 23


 795              	.LVL107:
 796 0068 FFF7FEFF 		bl	__aeabi_d2f
 797              	.LVL108:
 798 006c 6060     		str	r0, [r4, #4]
 200:main.c        ****         }
 799              		.loc 1 200 0
 800 006e FFF7FEFF 		bl	random_Offset
 801              	.LVL109:
 802 0072 FFF7FEFF 		bl	__aeabi_d2f
 803              	.LVL110:
 804 0076 2060     		str	r0, [r4]
 805              	.L51:
 202:main.c        ****         else{Periodo++;}
 806              		.loc 1 202 0
 807 0078 0E4B     		ldr	r3, .L54+4
 808 007a 1022     		movs	r2, #16
 809 007c 9B5E     		ldrsh	r3, [r3, r2]
 810 007e 0A2B     		cmp	r3, #10
 811 0080 03D1     		bne	.L52
 202:main.c        ****         else{Periodo++;}
 812              		.loc 1 202 0 is_stmt 0 discriminator 1
 813 0082 0122     		movs	r2, #1
 814 0084 0B4B     		ldr	r3, .L54+4
 815 0086 1A82     		strh	r2, [r3, #16]
 816 0088 02E0     		b	.L53
 817              	.L52:
 203:main.c        ****         L_anterior=L_actual;
 818              		.loc 1 203 0 is_stmt 1
 819 008a 0133     		adds	r3, r3, #1
 820 008c 094A     		ldr	r2, .L54+4
 821 008e 1382     		strh	r3, [r2, #16]
 822              	.L53:
 204:main.c        ****         flag=0;
 823              		.loc 1 204 0
 824 0090 074B     		ldr	r3, .L54
 825 0092 DA68     		ldr	r2, [r3, #12]
 826 0094 1A61     		str	r2, [r3, #16]
 205:main.c        ****         Max_Conta=100;
 827              		.loc 1 205 0
 828 0096 0022     		movs	r2, #0
 829 0098 9A60     		str	r2, [r3, #8]
 206:main.c        ****     }
 830              		.loc 1 206 0
 831 009a 6432     		adds	r2, r2, #100
 832 009c 054B     		ldr	r3, .L54+4
 833 009e DA60     		str	r2, [r3, #12]
 834              	.LBE3:
 835 00a0 04E0     		b	.L47
 836              	.LVL111:
 837              	.L50:
 208:main.c        **** }
 838              		.loc 1 208 0
 839 00a2 032B     		cmp	r3, #3
 840 00a4 02DD     		ble	.L47
 208:main.c        **** }
 841              		.loc 1 208 0 is_stmt 0 discriminator 1
 842 00a6 0022     		movs	r2, #0
ARM GAS  C:\Users\HENRYA~1\AppData\Local\Temp\ccq56xEy.s 			page 24


 843 00a8 014B     		ldr	r3, .L54
 844 00aa 9A60     		str	r2, [r3, #8]
 845              	.L47:
 209:main.c        **** 
 846              		.loc 1 209 0 is_stmt 1
 847              		@ sp needed
 848 00ac 70BD     		pop	{r4, r5, r6, pc}
 849              	.L55:
 850 00ae C046     		.align	2
 851              	.L54:
 852 00b0 00000000 		.word	.LANCHOR0
 853 00b4 00000000 		.word	.LANCHOR1
 854              		.cfi_endproc
 855              	.LFE47:
 856              		.size	Templado, .-Templado
 857              		.section	.text.Recibe_Mail_2,"ax",%progbits
 858              		.align	2
 859              		.global	Recibe_Mail_2
 860              		.code	16
 861              		.thumb_func
 862              		.type	Recibe_Mail_2, %function
 863              	Recibe_Mail_2:
 864              	.LFB48:
 211:main.c        ****     if(mailbox2[0]==SENSORES){
 865              		.loc 1 211 0
 866              		.cfi_startproc
 867              		@ args = 0, pretend = 0, frame = 0
 868              		@ frame_needed = 0, uses_anonymous_args = 0
 869              		@ link register save eliminated.
 212:main.c        ****         //Mailbox2[1] Derecha
 870              		.loc 1 212 0
 871 0000 3B4B     		ldr	r3, .L66
 872 0002 1B78     		ldrb	r3, [r3]
 873 0004 822B     		cmp	r3, #130
 874 0006 72D1     		bne	.L56
 216:main.c        ****         else if(mailbox2[1]==0&&mailbox2[2]==0&&mailbox2[3]==1) {Cantidad_Sensores=1;}   //Izquierd
 875              		.loc 1 216 0
 876 0008 394B     		ldr	r3, .L66
 877 000a 5B78     		ldrb	r3, [r3, #1]
 878 000c 002B     		cmp	r3, #0
 879 000e 0AD1     		bne	.L58
 216:main.c        ****         else if(mailbox2[1]==0&&mailbox2[2]==0&&mailbox2[3]==1) {Cantidad_Sensores=1;}   //Izquierd
 880              		.loc 1 216 0 is_stmt 0 discriminator 1
 881 0010 374A     		ldr	r2, .L66
 882 0012 9278     		ldrb	r2, [r2, #2]
 883 0014 002A     		cmp	r2, #0
 884 0016 06D1     		bne	.L58
 216:main.c        ****         else if(mailbox2[1]==0&&mailbox2[2]==0&&mailbox2[3]==1) {Cantidad_Sensores=1;}   //Izquierd
 885              		.loc 1 216 0 discriminator 2
 886 0018 354A     		ldr	r2, .L66
 887 001a D278     		ldrb	r2, [r2, #3]
 888 001c 002A     		cmp	r2, #0
 889 001e 02D1     		bne	.L58
 216:main.c        ****         else if(mailbox2[1]==0&&mailbox2[2]==0&&mailbox2[3]==1) {Cantidad_Sensores=1;}   //Izquierd
 890              		.loc 1 216 0 discriminator 3
 891 0020 344B     		ldr	r3, .L66+4
 892 0022 9A61     		str	r2, [r3, #24]
ARM GAS  C:\Users\HENRYA~1\AppData\Local\Temp\ccq56xEy.s 			page 25


 893 0024 63E0     		b	.L56
 894              	.L58:
 217:main.c        ****         else if(mailbox2[1]==0&&mailbox2[2]==1&&mailbox2[3]==0) {Cantidad_Sensores=2;}   //Frontal
 895              		.loc 1 217 0 is_stmt 1
 896 0026 002B     		cmp	r3, #0
 897 0028 0AD1     		bne	.L59
 217:main.c        ****         else if(mailbox2[1]==0&&mailbox2[2]==1&&mailbox2[3]==0) {Cantidad_Sensores=2;}   //Frontal
 898              		.loc 1 217 0 is_stmt 0 discriminator 1
 899 002a 314A     		ldr	r2, .L66
 900 002c 9278     		ldrb	r2, [r2, #2]
 901 002e 002A     		cmp	r2, #0
 902 0030 06D1     		bne	.L59
 217:main.c        ****         else if(mailbox2[1]==0&&mailbox2[2]==1&&mailbox2[3]==0) {Cantidad_Sensores=2;}   //Frontal
 903              		.loc 1 217 0 discriminator 2
 904 0032 2F4A     		ldr	r2, .L66
 905 0034 D278     		ldrb	r2, [r2, #3]
 906 0036 012A     		cmp	r2, #1
 907 0038 02D1     		bne	.L59
 217:main.c        ****         else if(mailbox2[1]==0&&mailbox2[2]==1&&mailbox2[3]==0) {Cantidad_Sensores=2;}   //Frontal
 908              		.loc 1 217 0 discriminator 3
 909 003a 2E4B     		ldr	r3, .L66+4
 910 003c 9A61     		str	r2, [r3, #24]
 911 003e 56E0     		b	.L56
 912              	.L59:
 218:main.c        ****         else if(mailbox2[1]==0&&mailbox2[2]==1&&mailbox2[3]==1) {Cantidad_Sensores=3;}   //Frontal 
 913              		.loc 1 218 0 is_stmt 1
 914 0040 002B     		cmp	r3, #0
 915 0042 0BD1     		bne	.L60
 218:main.c        ****         else if(mailbox2[1]==0&&mailbox2[2]==1&&mailbox2[3]==1) {Cantidad_Sensores=3;}   //Frontal 
 916              		.loc 1 218 0 is_stmt 0 discriminator 1
 917 0044 2A4A     		ldr	r2, .L66
 918 0046 9278     		ldrb	r2, [r2, #2]
 919 0048 012A     		cmp	r2, #1
 920 004a 07D1     		bne	.L60
 218:main.c        ****         else if(mailbox2[1]==0&&mailbox2[2]==1&&mailbox2[3]==1) {Cantidad_Sensores=3;}   //Frontal 
 921              		.loc 1 218 0 discriminator 2
 922 004c 284A     		ldr	r2, .L66
 923 004e D278     		ldrb	r2, [r2, #3]
 924 0050 002A     		cmp	r2, #0
 925 0052 03D1     		bne	.L60
 218:main.c        ****         else if(mailbox2[1]==0&&mailbox2[2]==1&&mailbox2[3]==1) {Cantidad_Sensores=3;}   //Frontal 
 926              		.loc 1 218 0 discriminator 3
 927 0054 0232     		adds	r2, r2, #2
 928 0056 274B     		ldr	r3, .L66+4
 929 0058 9A61     		str	r2, [r3, #24]
 930 005a 48E0     		b	.L56
 931              	.L60:
 219:main.c        ****         else if(mailbox2[1]==1&&mailbox2[2]==0&&mailbox2[3]==0) {Cantidad_Sensores=4;}   //Derecha
 932              		.loc 1 219 0 is_stmt 1
 933 005c 002B     		cmp	r3, #0
 934 005e 0BD1     		bne	.L61
 219:main.c        ****         else if(mailbox2[1]==1&&mailbox2[2]==0&&mailbox2[3]==0) {Cantidad_Sensores=4;}   //Derecha
 935              		.loc 1 219 0 is_stmt 0 discriminator 1
 936 0060 234A     		ldr	r2, .L66
 937 0062 9278     		ldrb	r2, [r2, #2]
 938 0064 012A     		cmp	r2, #1
 939 0066 07D1     		bne	.L61
ARM GAS  C:\Users\HENRYA~1\AppData\Local\Temp\ccq56xEy.s 			page 26


 219:main.c        ****         else if(mailbox2[1]==1&&mailbox2[2]==0&&mailbox2[3]==0) {Cantidad_Sensores=4;}   //Derecha
 940              		.loc 1 219 0 discriminator 2
 941 0068 214A     		ldr	r2, .L66
 942 006a D278     		ldrb	r2, [r2, #3]
 943 006c 012A     		cmp	r2, #1
 944 006e 03D1     		bne	.L61
 219:main.c        ****         else if(mailbox2[1]==1&&mailbox2[2]==0&&mailbox2[3]==0) {Cantidad_Sensores=4;}   //Derecha
 945              		.loc 1 219 0 discriminator 3
 946 0070 0232     		adds	r2, r2, #2
 947 0072 204B     		ldr	r3, .L66+4
 948 0074 9A61     		str	r2, [r3, #24]
 949 0076 3AE0     		b	.L56
 950              	.L61:
 220:main.c        ****         else if(mailbox2[1]==1&&mailbox2[2]==0&&mailbox2[3]==1) {Cantidad_Sensores=5;}   //Derecha 
 951              		.loc 1 220 0 is_stmt 1
 952 0078 012B     		cmp	r3, #1
 953 007a 0BD1     		bne	.L62
 220:main.c        ****         else if(mailbox2[1]==1&&mailbox2[2]==0&&mailbox2[3]==1) {Cantidad_Sensores=5;}   //Derecha 
 954              		.loc 1 220 0 is_stmt 0 discriminator 1
 955 007c 1C4A     		ldr	r2, .L66
 956 007e 9278     		ldrb	r2, [r2, #2]
 957 0080 002A     		cmp	r2, #0
 958 0082 07D1     		bne	.L62
 220:main.c        ****         else if(mailbox2[1]==1&&mailbox2[2]==0&&mailbox2[3]==1) {Cantidad_Sensores=5;}   //Derecha 
 959              		.loc 1 220 0 discriminator 2
 960 0084 1A4A     		ldr	r2, .L66
 961 0086 D278     		ldrb	r2, [r2, #3]
 962 0088 002A     		cmp	r2, #0
 963 008a 03D1     		bne	.L62
 220:main.c        ****         else if(mailbox2[1]==1&&mailbox2[2]==0&&mailbox2[3]==1) {Cantidad_Sensores=5;}   //Derecha 
 964              		.loc 1 220 0 discriminator 3
 965 008c 0432     		adds	r2, r2, #4
 966 008e 194B     		ldr	r3, .L66+4
 967 0090 9A61     		str	r2, [r3, #24]
 968 0092 2CE0     		b	.L56
 969              	.L62:
 221:main.c        ****         else if(mailbox2[1]==1&&mailbox2[2]==1&&mailbox2[3]==0) {Cantidad_Sensores=6;}   //Frontal 
 970              		.loc 1 221 0 is_stmt 1
 971 0094 012B     		cmp	r3, #1
 972 0096 0BD1     		bne	.L63
 221:main.c        ****         else if(mailbox2[1]==1&&mailbox2[2]==1&&mailbox2[3]==0) {Cantidad_Sensores=6;}   //Frontal 
 973              		.loc 1 221 0 is_stmt 0 discriminator 1
 974 0098 154A     		ldr	r2, .L66
 975 009a 9278     		ldrb	r2, [r2, #2]
 976 009c 002A     		cmp	r2, #0
 977 009e 07D1     		bne	.L63
 221:main.c        ****         else if(mailbox2[1]==1&&mailbox2[2]==1&&mailbox2[3]==0) {Cantidad_Sensores=6;}   //Frontal 
 978              		.loc 1 221 0 discriminator 2
 979 00a0 134A     		ldr	r2, .L66
 980 00a2 D278     		ldrb	r2, [r2, #3]
 981 00a4 012A     		cmp	r2, #1
 982 00a6 03D1     		bne	.L63
 221:main.c        ****         else if(mailbox2[1]==1&&mailbox2[2]==1&&mailbox2[3]==0) {Cantidad_Sensores=6;}   //Frontal 
 983              		.loc 1 221 0 discriminator 3
 984 00a8 0432     		adds	r2, r2, #4
 985 00aa 124B     		ldr	r3, .L66+4
 986 00ac 9A61     		str	r2, [r3, #24]
ARM GAS  C:\Users\HENRYA~1\AppData\Local\Temp\ccq56xEy.s 			page 27


 987 00ae 1EE0     		b	.L56
 988              	.L63:
 222:main.c        ****         else if(mailbox2[1]==1&&mailbox2[2]==1&&mailbox2[3]==1) {Cantidad_Sensores=7;}   //Todos
 989              		.loc 1 222 0 is_stmt 1
 990 00b0 012B     		cmp	r3, #1
 991 00b2 0BD1     		bne	.L64
 222:main.c        ****         else if(mailbox2[1]==1&&mailbox2[2]==1&&mailbox2[3]==1) {Cantidad_Sensores=7;}   //Todos
 992              		.loc 1 222 0 is_stmt 0 discriminator 1
 993 00b4 0E4A     		ldr	r2, .L66
 994 00b6 9278     		ldrb	r2, [r2, #2]
 995 00b8 012A     		cmp	r2, #1
 996 00ba 07D1     		bne	.L64
 222:main.c        ****         else if(mailbox2[1]==1&&mailbox2[2]==1&&mailbox2[3]==1) {Cantidad_Sensores=7;}   //Todos
 997              		.loc 1 222 0 discriminator 2
 998 00bc 0C4A     		ldr	r2, .L66
 999 00be D278     		ldrb	r2, [r2, #3]
 1000 00c0 002A     		cmp	r2, #0
 1001 00c2 03D1     		bne	.L64
 222:main.c        ****         else if(mailbox2[1]==1&&mailbox2[2]==1&&mailbox2[3]==1) {Cantidad_Sensores=7;}   //Todos
 1002              		.loc 1 222 0 discriminator 3
 1003 00c4 0632     		adds	r2, r2, #6
 1004 00c6 0B4B     		ldr	r3, .L66+4
 1005 00c8 9A61     		str	r2, [r3, #24]
 1006 00ca 10E0     		b	.L56
 1007              	.L64:
 223:main.c        ****         else                                                    {Cantidad_Sensores=0;}   //Normal
 1008              		.loc 1 223 0 is_stmt 1
 1009 00cc 012B     		cmp	r3, #1
 1010 00ce 0BD1     		bne	.L65
 223:main.c        ****         else                                                    {Cantidad_Sensores=0;}   //Normal
 1011              		.loc 1 223 0 is_stmt 0 discriminator 1
 1012 00d0 074B     		ldr	r3, .L66
 1013 00d2 9B78     		ldrb	r3, [r3, #2]
 1014 00d4 012B     		cmp	r3, #1
 1015 00d6 07D1     		bne	.L65
 223:main.c        ****         else                                                    {Cantidad_Sensores=0;}   //Normal
 1016              		.loc 1 223 0 discriminator 2
 1017 00d8 054B     		ldr	r3, .L66
 1018 00da DB78     		ldrb	r3, [r3, #3]
 1019 00dc 012B     		cmp	r3, #1
 1020 00de 03D1     		bne	.L65
 223:main.c        ****         else                                                    {Cantidad_Sensores=0;}   //Normal
 1021              		.loc 1 223 0 discriminator 3
 1022 00e0 0722     		movs	r2, #7
 1023 00e2 044B     		ldr	r3, .L66+4
 1024 00e4 9A61     		str	r2, [r3, #24]
 1025 00e6 02E0     		b	.L56
 1026              	.L65:
 224:main.c        ****     }
 1027              		.loc 1 224 0 is_stmt 1
 1028 00e8 0022     		movs	r2, #0
 1029 00ea 024B     		ldr	r3, .L66+4
 1030 00ec 9A61     		str	r2, [r3, #24]
 1031              	.L56:
 226:main.c        **** 
 1032              		.loc 1 226 0
 1033              		@ sp needed
ARM GAS  C:\Users\HENRYA~1\AppData\Local\Temp\ccq56xEy.s 			page 28


 1034 00ee 7047     		bx	lr
 1035              	.L67:
 1036              		.align	2
 1037              	.L66:
 1038 00f0 00000000 		.word	mailbox2
 1039 00f4 00000000 		.word	.LANCHOR0
 1040              		.cfi_endproc
 1041              	.LFE48:
 1042              		.size	Recibe_Mail_2, .-Recibe_Mail_2
 1043              		.section	.text.Left_Move,"ax",%progbits
 1044              		.align	2
 1045              		.global	Left_Move
 1046              		.code	16
 1047              		.thumb_func
 1048              		.type	Left_Move, %function
 1049              	Left_Move:
 1050              	.LFB49:
 228:main.c        ****     Send_Angle(0,200);
 1051              		.loc 1 228 0
 1052              		.cfi_startproc
 1053              		@ args = 0, pretend = 0, frame = 0
 1054              		@ frame_needed = 0, uses_anonymous_args = 0
 1055 0000 70B5     		push	{r4, r5, r6, lr}
 1056              		.cfi_def_cfa_offset 16
 1057              		.cfi_offset 4, -16
 1058              		.cfi_offset 5, -12
 1059              		.cfi_offset 6, -8
 1060              		.cfi_offset 14, -4
 229:main.c        ****     int  i=0;
 1061              		.loc 1 229 0
 1062 0002 C821     		movs	r1, #200
 1063 0004 0020     		movs	r0, #0
 1064 0006 FFF7FEFF 		bl	Send_Angle
 1065              	.LVL112:
 232:main.c        ****         movimiento(i,512);
 1066              		.loc 1 232 0
 1067 000a 0024     		movs	r4, #0
 1068 000c 05E0     		b	.L69
 1069              	.LVL113:
 1070              	.L70:
 233:main.c        ****         }
 1071              		.loc 1 233 0 discriminator 3
 1072 000e 8021     		movs	r1, #128
 1073 0010 8900     		lsls	r1, r1, #2
 1074 0012 2000     		movs	r0, r4
 1075 0014 FFF7FEFF 		bl	movimiento
 1076              	.LVL114:
 232:main.c        ****         movimiento(i,512);
 1077              		.loc 1 232 0 discriminator 3
 1078 0018 0134     		adds	r4, r4, #1
 1079              	.LVL115:
 1080              	.L69:
 232:main.c        ****         movimiento(i,512);
 1081              		.loc 1 232 0 is_stmt 0 discriminator 1
 1082 001a 304B     		ldr	r3, .L79
 1083 001c 5B68     		ldr	r3, [r3, #4]
 1084 001e 9C42     		cmp	r4, r3
ARM GAS  C:\Users\HENRYA~1\AppData\Local\Temp\ccq56xEy.s 			page 29


 1085 0020 F5DB     		blt	.L70
 235:main.c        ****     movimiento(cantidadM,675);//Ancla Trasera
 1086              		.loc 1 235 0 is_stmt 1
 1087 0022 FA24     		movs	r4, #250
 1088              	.LVL116:
 1089 0024 E400     		lsls	r4, r4, #3
 1090 0026 2000     		movs	r0, r4
 1091 0028 FFF7FEFF 		bl	CyDelay
 1092              	.LVL117:
 236:main.c        ****     CyDelay(2000);
 1093              		.loc 1 236 0
 1094 002c 2B4B     		ldr	r3, .L79
 1095 002e 5868     		ldr	r0, [r3, #4]
 1096 0030 2B49     		ldr	r1, .L79+4
 1097 0032 FFF7FEFF 		bl	movimiento
 1098              	.LVL118:
 237:main.c        ****     //Giro
 1099              		.loc 1 237 0
 1100 0036 2000     		movs	r0, r4
 1101 0038 FFF7FEFF 		bl	CyDelay
 1102              	.LVL119:
 239:main.c        ****         for(i=2;i<cantidadM;i=i+4){ 
 1103              		.loc 1 239 0
 1104 003c 0026     		movs	r6, #0
 1105 003e 35E0     		b	.L71
 1106              	.LVL120:
 1107              	.L72:
 241:main.c        ****             movimiento(i+1,750);
 1108              		.loc 1 241 0 discriminator 3
 1109 0040 2849     		ldr	r1, .L79+8
 1110 0042 2000     		movs	r0, r4
 1111 0044 FFF7FEFF 		bl	movimiento
 1112              	.LVL121:
 242:main.c        ****             }
 1113              		.loc 1 242 0 discriminator 3
 1114 0048 601C     		adds	r0, r4, #1
 1115 004a 2749     		ldr	r1, .L79+12
 1116 004c FFF7FEFF 		bl	movimiento
 1117              	.LVL122:
 240:main.c        ****             movimiento(i,650);
 1118              		.loc 1 240 0 discriminator 3
 1119 0050 0434     		adds	r4, r4, #4
 1120              	.LVL123:
 1121 0052 00E0     		b	.L75
 1122              	.LVL124:
 1123              	.L78:
 1124 0054 0224     		movs	r4, #2
 1125              	.L75:
 1126              	.LVL125:
 240:main.c        ****             movimiento(i,650);
 1127              		.loc 1 240 0 is_stmt 0 discriminator 1
 1128 0056 214B     		ldr	r3, .L79
 1129 0058 5868     		ldr	r0, [r3, #4]
 1130 005a 8442     		cmp	r4, r0
 1131 005c F0DB     		blt	.L72
 244:main.c        ****         CyDelay(2000);
 1132              		.loc 1 244 0 is_stmt 1
ARM GAS  C:\Users\HENRYA~1\AppData\Local\Temp\ccq56xEy.s 			page 30


 1133 005e 8021     		movs	r1, #128
 1134 0060 8900     		lsls	r1, r1, #2
 1135 0062 FFF7FEFF 		bl	movimiento
 1136              	.LVL126:
 245:main.c        ****         movimiento(0,350);//Ancla Delantera
 1137              		.loc 1 245 0
 1138 0066 FA24     		movs	r4, #250
 1139              	.LVL127:
 1140 0068 E400     		lsls	r4, r4, #3
 1141 006a 2000     		movs	r0, r4
 1142 006c FFF7FEFF 		bl	CyDelay
 1143              	.LVL128:
 246:main.c        ****         CyDelay(2000);
 1144              		.loc 1 246 0
 1145 0070 AF21     		movs	r1, #175
 1146 0072 4900     		lsls	r1, r1, #1
 1147 0074 0020     		movs	r0, #0
 1148 0076 FFF7FEFF 		bl	movimiento
 1149              	.LVL129:
 247:main.c        ****         for(i=2;i<cantidadM;i=i+4){ //Alineación
 1150              		.loc 1 247 0
 1151 007a 2000     		movs	r0, r4
 1152 007c FFF7FEFF 		bl	CyDelay
 1153              	.LVL130:
 248:main.c        ****             movimiento(i,512);
 1154              		.loc 1 248 0
 1155 0080 0224     		movs	r4, #2
 1156 0082 0AE0     		b	.L73
 1157              	.LVL131:
 1158              	.L74:
 249:main.c        ****             movimiento(i+1,512);
 1159              		.loc 1 249 0 discriminator 3
 1160 0084 8025     		movs	r5, #128
 1161 0086 AD00     		lsls	r5, r5, #2
 1162 0088 2900     		movs	r1, r5
 1163 008a 2000     		movs	r0, r4
 1164 008c FFF7FEFF 		bl	movimiento
 1165              	.LVL132:
 250:main.c        ****         }    
 1166              		.loc 1 250 0 discriminator 3
 1167 0090 601C     		adds	r0, r4, #1
 1168 0092 2900     		movs	r1, r5
 1169 0094 FFF7FEFF 		bl	movimiento
 1170              	.LVL133:
 248:main.c        ****             movimiento(i,512);
 1171              		.loc 1 248 0 discriminator 3
 1172 0098 0434     		adds	r4, r4, #4
 1173              	.LVL134:
 1174              	.L73:
 248:main.c        ****             movimiento(i,512);
 1175              		.loc 1 248 0 is_stmt 0 discriminator 1
 1176 009a 104B     		ldr	r3, .L79
 1177 009c 5B68     		ldr	r3, [r3, #4]
 1178 009e 9C42     		cmp	r4, r3
 1179 00a0 F0DB     		blt	.L74
 252:main.c        ****     }         
 1180              		.loc 1 252 0 is_stmt 1 discriminator 2
ARM GAS  C:\Users\HENRYA~1\AppData\Local\Temp\ccq56xEy.s 			page 31


 1181 00a2 FA20     		movs	r0, #250
 1182 00a4 C000     		lsls	r0, r0, #3
 1183 00a6 FFF7FEFF 		bl	CyDelay
 1184              	.LVL135:
 239:main.c        ****         for(i=2;i<cantidadM;i=i+4){ 
 1185              		.loc 1 239 0 discriminator 2
 1186 00aa 0136     		adds	r6, r6, #1
 1187              	.LVL136:
 1188              	.L71:
 239:main.c        ****         for(i=2;i<cantidadM;i=i+4){ 
 1189              		.loc 1 239 0 is_stmt 0 discriminator 1
 1190 00ac 002E     		cmp	r6, #0
 1191 00ae D1DD     		ble	.L78
 1192 00b0 0024     		movs	r4, #0
 1193 00b2 05E0     		b	.L76
 1194              	.LVL137:
 1195              	.L77:
 255:main.c        ****         }
 1196              		.loc 1 255 0 is_stmt 1 discriminator 3
 1197 00b4 8021     		movs	r1, #128
 1198 00b6 8900     		lsls	r1, r1, #2
 1199 00b8 2000     		movs	r0, r4
 1200 00ba FFF7FEFF 		bl	movimiento
 1201              	.LVL138:
 254:main.c        ****         movimiento(i,512);
 1202              		.loc 1 254 0 discriminator 3
 1203 00be 0134     		adds	r4, r4, #1
 1204              	.LVL139:
 1205              	.L76:
 254:main.c        ****         movimiento(i,512);
 1206              		.loc 1 254 0 is_stmt 0 discriminator 1
 1207 00c0 064B     		ldr	r3, .L79
 1208 00c2 5B68     		ldr	r3, [r3, #4]
 1209 00c4 9C42     		cmp	r4, r3
 1210 00c6 F5DB     		blt	.L77
 257:main.c        ****     Send_Angle(0,0);
 1211              		.loc 1 257 0 is_stmt 1
 1212 00c8 FA20     		movs	r0, #250
 1213 00ca C000     		lsls	r0, r0, #3
 1214 00cc FFF7FEFF 		bl	CyDelay
 1215              	.LVL140:
 258:main.c        **** }
 1216              		.loc 1 258 0
 1217 00d0 0021     		movs	r1, #0
 1218 00d2 0020     		movs	r0, #0
 1219 00d4 FFF7FEFF 		bl	Send_Angle
 1220              	.LVL141:
 259:main.c        **** 
 1221              		.loc 1 259 0
 1222              		@ sp needed
 1223              	.LVL142:
 1224              	.LVL143:
 1225 00d8 70BD     		pop	{r4, r5, r6, pc}
 1226              	.L80:
 1227 00da C046     		.align	2
 1228              	.L79:
 1229 00dc 00000000 		.word	.LANCHOR0
ARM GAS  C:\Users\HENRYA~1\AppData\Local\Temp\ccq56xEy.s 			page 32


 1230 00e0 A3020000 		.word	675
 1231 00e4 8A020000 		.word	650
 1232 00e8 EE020000 		.word	750
 1233              		.cfi_endproc
 1234              	.LFE49:
 1235              		.size	Left_Move, .-Left_Move
 1236              		.section	.text.Right_Move,"ax",%progbits
 1237              		.align	2
 1238              		.global	Right_Move
 1239              		.code	16
 1240              		.thumb_func
 1241              		.type	Right_Move, %function
 1242              	Right_Move:
 1243              	.LFB50:
 261:main.c        ****     Send_Angle(0,200);
 1244              		.loc 1 261 0
 1245              		.cfi_startproc
 1246              		@ args = 0, pretend = 0, frame = 0
 1247              		@ frame_needed = 0, uses_anonymous_args = 0
 1248 0000 70B5     		push	{r4, r5, r6, lr}
 1249              		.cfi_def_cfa_offset 16
 1250              		.cfi_offset 4, -16
 1251              		.cfi_offset 5, -12
 1252              		.cfi_offset 6, -8
 1253              		.cfi_offset 14, -4
 262:main.c        ****     int  i=0;
 1254              		.loc 1 262 0
 1255 0002 C821     		movs	r1, #200
 1256 0004 0020     		movs	r0, #0
 1257 0006 FFF7FEFF 		bl	Send_Angle
 1258              	.LVL144:
 265:main.c        ****         movimiento(i,512);
 1259              		.loc 1 265 0
 1260 000a 0024     		movs	r4, #0
 1261 000c 05E0     		b	.L82
 1262              	.LVL145:
 1263              	.L83:
 266:main.c        ****         }
 1264              		.loc 1 266 0 discriminator 3
 1265 000e 8021     		movs	r1, #128
 1266 0010 8900     		lsls	r1, r1, #2
 1267 0012 2000     		movs	r0, r4
 1268 0014 FFF7FEFF 		bl	movimiento
 1269              	.LVL146:
 265:main.c        ****         movimiento(i,512);
 1270              		.loc 1 265 0 discriminator 3
 1271 0018 0134     		adds	r4, r4, #1
 1272              	.LVL147:
 1273              	.L82:
 265:main.c        ****         movimiento(i,512);
 1274              		.loc 1 265 0 is_stmt 0 discriminator 1
 1275 001a 314B     		ldr	r3, .L92
 1276 001c 5B68     		ldr	r3, [r3, #4]
 1277 001e 9C42     		cmp	r4, r3
 1278 0020 F5DB     		blt	.L83
 268:main.c        ****     movimiento(cantidadM,675);//Ancla Trasera
 1279              		.loc 1 268 0 is_stmt 1
ARM GAS  C:\Users\HENRYA~1\AppData\Local\Temp\ccq56xEy.s 			page 33


 1280 0022 FA24     		movs	r4, #250
 1281              	.LVL148:
 1282 0024 E400     		lsls	r4, r4, #3
 1283 0026 2000     		movs	r0, r4
 1284 0028 FFF7FEFF 		bl	CyDelay
 1285              	.LVL149:
 269:main.c        ****     CyDelay(2000);
 1286              		.loc 1 269 0
 1287 002c 2C4B     		ldr	r3, .L92
 1288 002e 5868     		ldr	r0, [r3, #4]
 1289 0030 2C49     		ldr	r1, .L92+4
 1290 0032 FFF7FEFF 		bl	movimiento
 1291              	.LVL150:
 270:main.c        ****     //Giro
 1292              		.loc 1 270 0
 1293 0036 2000     		movs	r0, r4
 1294 0038 FFF7FEFF 		bl	CyDelay
 1295              	.LVL151:
 272:main.c        ****         for(i=2;i<cantidadM;i=i+4){ 
 1296              		.loc 1 272 0
 1297 003c 0026     		movs	r6, #0
 1298 003e 37E0     		b	.L84
 1299              	.LVL152:
 1300              	.L85:
 274:main.c        ****             movimiento(i+1,274);
 1301              		.loc 1 274 0 discriminator 3
 1302 0040 BB21     		movs	r1, #187
 1303 0042 4900     		lsls	r1, r1, #1
 1304 0044 2000     		movs	r0, r4
 1305 0046 FFF7FEFF 		bl	movimiento
 1306              	.LVL153:
 275:main.c        ****             }
 1307              		.loc 1 275 0 discriminator 3
 1308 004a 601C     		adds	r0, r4, #1
 1309 004c 8921     		movs	r1, #137
 1310 004e 4900     		lsls	r1, r1, #1
 1311 0050 FFF7FEFF 		bl	movimiento
 1312              	.LVL154:
 273:main.c        ****             movimiento(i,374);
 1313              		.loc 1 273 0 discriminator 3
 1314 0054 0434     		adds	r4, r4, #4
 1315              	.LVL155:
 1316 0056 00E0     		b	.L88
 1317              	.LVL156:
 1318              	.L91:
 1319 0058 0224     		movs	r4, #2
 1320              	.L88:
 1321              	.LVL157:
 273:main.c        ****             movimiento(i,374);
 1322              		.loc 1 273 0 is_stmt 0 discriminator 1
 1323 005a 214B     		ldr	r3, .L92
 1324 005c 5868     		ldr	r0, [r3, #4]
 1325 005e 8442     		cmp	r4, r0
 1326 0060 EEDB     		blt	.L85
 277:main.c        ****         CyDelay(2000);
 1327              		.loc 1 277 0 is_stmt 1
 1328 0062 8021     		movs	r1, #128
ARM GAS  C:\Users\HENRYA~1\AppData\Local\Temp\ccq56xEy.s 			page 34


 1329 0064 8900     		lsls	r1, r1, #2
 1330 0066 FFF7FEFF 		bl	movimiento
 1331              	.LVL158:
 278:main.c        ****         movimiento(0,350);//Ancla Delantera
 1332              		.loc 1 278 0
 1333 006a FA24     		movs	r4, #250
 1334              	.LVL159:
 1335 006c E400     		lsls	r4, r4, #3
 1336 006e 2000     		movs	r0, r4
 1337 0070 FFF7FEFF 		bl	CyDelay
 1338              	.LVL160:
 279:main.c        ****         CyDelay(2000);
 1339              		.loc 1 279 0
 1340 0074 AF21     		movs	r1, #175
 1341 0076 4900     		lsls	r1, r1, #1
 1342 0078 0020     		movs	r0, #0
 1343 007a FFF7FEFF 		bl	movimiento
 1344              	.LVL161:
 280:main.c        ****         for(i=2;i<cantidadM;i=i+4){ //Alineación
 1345              		.loc 1 280 0
 1346 007e 2000     		movs	r0, r4
 1347 0080 FFF7FEFF 		bl	CyDelay
 1348              	.LVL162:
 281:main.c        ****             movimiento(i,512);
 1349              		.loc 1 281 0
 1350 0084 0224     		movs	r4, #2
 1351 0086 0AE0     		b	.L86
 1352              	.LVL163:
 1353              	.L87:
 282:main.c        ****             movimiento(i+1,512);
 1354              		.loc 1 282 0 discriminator 3
 1355 0088 8025     		movs	r5, #128
 1356 008a AD00     		lsls	r5, r5, #2
 1357 008c 2900     		movs	r1, r5
 1358 008e 2000     		movs	r0, r4
 1359 0090 FFF7FEFF 		bl	movimiento
 1360              	.LVL164:
 283:main.c        ****         }    
 1361              		.loc 1 283 0 discriminator 3
 1362 0094 601C     		adds	r0, r4, #1
 1363 0096 2900     		movs	r1, r5
 1364 0098 FFF7FEFF 		bl	movimiento
 1365              	.LVL165:
 281:main.c        ****             movimiento(i,512);
 1366              		.loc 1 281 0 discriminator 3
 1367 009c 0434     		adds	r4, r4, #4
 1368              	.LVL166:
 1369              	.L86:
 281:main.c        ****             movimiento(i,512);
 1370              		.loc 1 281 0 is_stmt 0 discriminator 1
 1371 009e 104B     		ldr	r3, .L92
 1372 00a0 5B68     		ldr	r3, [r3, #4]
 1373 00a2 9C42     		cmp	r4, r3
 1374 00a4 F0DB     		blt	.L87
 285:main.c        ****     }         
 1375              		.loc 1 285 0 is_stmt 1 discriminator 2
 1376 00a6 FA20     		movs	r0, #250
ARM GAS  C:\Users\HENRYA~1\AppData\Local\Temp\ccq56xEy.s 			page 35


 1377 00a8 C000     		lsls	r0, r0, #3
 1378 00aa FFF7FEFF 		bl	CyDelay
 1379              	.LVL167:
 272:main.c        ****         for(i=2;i<cantidadM;i=i+4){ 
 1380              		.loc 1 272 0 discriminator 2
 1381 00ae 0136     		adds	r6, r6, #1
 1382              	.LVL168:
 1383              	.L84:
 272:main.c        ****         for(i=2;i<cantidadM;i=i+4){ 
 1384              		.loc 1 272 0 is_stmt 0 discriminator 1
 1385 00b0 002E     		cmp	r6, #0
 1386 00b2 D1DD     		ble	.L91
 1387 00b4 0024     		movs	r4, #0
 1388 00b6 05E0     		b	.L89
 1389              	.LVL169:
 1390              	.L90:
 288:main.c        ****         }
 1391              		.loc 1 288 0 is_stmt 1 discriminator 3
 1392 00b8 8021     		movs	r1, #128
 1393 00ba 8900     		lsls	r1, r1, #2
 1394 00bc 2000     		movs	r0, r4
 1395 00be FFF7FEFF 		bl	movimiento
 1396              	.LVL170:
 287:main.c        ****         movimiento(i,512);
 1397              		.loc 1 287 0 discriminator 3
 1398 00c2 0134     		adds	r4, r4, #1
 1399              	.LVL171:
 1400              	.L89:
 287:main.c        ****         movimiento(i,512);
 1401              		.loc 1 287 0 is_stmt 0 discriminator 1
 1402 00c4 064B     		ldr	r3, .L92
 1403 00c6 5B68     		ldr	r3, [r3, #4]
 1404 00c8 9C42     		cmp	r4, r3
 1405 00ca F5DB     		blt	.L90
 290:main.c        ****     Send_Angle(0,0);
 1406              		.loc 1 290 0 is_stmt 1
 1407 00cc FA20     		movs	r0, #250
 1408 00ce C000     		lsls	r0, r0, #3
 1409 00d0 FFF7FEFF 		bl	CyDelay
 1410              	.LVL172:
 291:main.c        **** }
 1411              		.loc 1 291 0
 1412 00d4 0021     		movs	r1, #0
 1413 00d6 0020     		movs	r0, #0
 1414 00d8 FFF7FEFF 		bl	Send_Angle
 1415              	.LVL173:
 292:main.c        **** 
 1416              		.loc 1 292 0
 1417              		@ sp needed
 1418              	.LVL174:
 1419              	.LVL175:
 1420 00dc 70BD     		pop	{r4, r5, r6, pc}
 1421              	.L93:
 1422 00de C046     		.align	2
 1423              	.L92:
 1424 00e0 00000000 		.word	.LANCHOR0
 1425 00e4 A3020000 		.word	675
ARM GAS  C:\Users\HENRYA~1\AppData\Local\Temp\ccq56xEy.s 			page 36


 1426              		.cfi_endproc
 1427              	.LFE50:
 1428              		.size	Right_Move, .-Right_Move
 1429              		.global	__aeabi_dcmplt
 1430              		.section	.text.Select_Move,"ax",%progbits
 1431              		.align	2
 1432              		.global	Select_Move
 1433              		.code	16
 1434              		.thumb_func
 1435              		.type	Select_Move, %function
 1436              	Select_Move:
 1437              	.LFB51:
 294:main.c        ****     Send_Angle(0,200);
 1438              		.loc 1 294 0
 1439              		.cfi_startproc
 1440              		@ args = 0, pretend = 0, frame = 8
 1441              		@ frame_needed = 0, uses_anonymous_args = 0
 1442 0000 D0B5     		push	{r4, r6, r7, lr}
 1443              		.cfi_def_cfa_offset 16
 1444              		.cfi_offset 4, -16
 1445              		.cfi_offset 6, -12
 1446              		.cfi_offset 7, -8
 1447              		.cfi_offset 14, -4
 1448 0002 82B0     		sub	sp, sp, #8
 1449              		.cfi_def_cfa_offset 24
 295:main.c        ****     int  i=0;
 1450              		.loc 1 295 0
 1451 0004 C821     		movs	r1, #200
 1452 0006 0020     		movs	r0, #0
 1453 0008 FFF7FEFF 		bl	Send_Angle
 1454              	.LVL176:
 297:main.c        ****         movimiento(i,512);
 1455              		.loc 1 297 0
 1456 000c 0024     		movs	r4, #0
 1457 000e 05E0     		b	.L95
 1458              	.LVL177:
 1459              	.L96:
 298:main.c        ****         }
 1460              		.loc 1 298 0 discriminator 3
 1461 0010 8021     		movs	r1, #128
 1462 0012 8900     		lsls	r1, r1, #2
 1463 0014 2000     		movs	r0, r4
 1464 0016 FFF7FEFF 		bl	movimiento
 1465              	.LVL178:
 297:main.c        ****         movimiento(i,512);
 1466              		.loc 1 297 0 discriminator 3
 1467 001a 0134     		adds	r4, r4, #1
 1468              	.LVL179:
 1469              	.L95:
 297:main.c        ****         movimiento(i,512);
 1470              		.loc 1 297 0 is_stmt 0 discriminator 1
 1471 001c 174B     		ldr	r3, .L102
 1472 001e 5B68     		ldr	r3, [r3, #4]
 1473 0020 9C42     		cmp	r4, r3
 1474 0022 F5DB     		blt	.L96
 300:main.c        ****     movimiento(2,650);
 1475              		.loc 1 300 0 is_stmt 1
ARM GAS  C:\Users\HENRYA~1\AppData\Local\Temp\ccq56xEy.s 			page 37


 1476 0024 FA20     		movs	r0, #250
 1477 0026 C000     		lsls	r0, r0, #3
 1478 0028 FFF7FEFF 		bl	CyDelay
 1479              	.LVL180:
 301:main.c        ****     CyDelay(4000);
 1480              		.loc 1 301 0
 1481 002c 1449     		ldr	r1, .L102+4
 1482 002e 0220     		movs	r0, #2
 1483 0030 FFF7FEFF 		bl	movimiento
 1484              	.LVL181:
 302:main.c        ****     double a=Medir_dist();
 1485              		.loc 1 302 0
 1486 0034 FA24     		movs	r4, #250
 1487              	.LVL182:
 1488 0036 2401     		lsls	r4, r4, #4
 1489 0038 2000     		movs	r0, r4
 1490 003a FFF7FEFF 		bl	CyDelay
 1491              	.LVL183:
 303:main.c        ****     movimiento(2,374);
 1492              		.loc 1 303 0
 1493 003e FFF7FEFF 		bl	Medir_dist
 1494              	.LVL184:
 1495 0042 0600     		movs	r6, r0
 1496 0044 0F00     		movs	r7, r1
 1497              	.LVL185:
 304:main.c        ****     double b=Medir_dist();
 1498              		.loc 1 304 0
 1499 0046 BB21     		movs	r1, #187
 1500 0048 4900     		lsls	r1, r1, #1
 1501 004a 0220     		movs	r0, #2
 1502 004c FFF7FEFF 		bl	movimiento
 1503              	.LVL186:
 305:main.c        ****     CyDelay(4000);
 1504              		.loc 1 305 0
 1505 0050 FFF7FEFF 		bl	Medir_dist
 1506              	.LVL187:
 1507 0054 0090     		str	r0, [sp]
 1508 0056 0191     		str	r1, [sp, #4]
 1509              	.LVL188:
 306:main.c        ****     if(a<b){
 1510              		.loc 1 306 0
 1511 0058 2000     		movs	r0, r4
 1512              	.LVL189:
 1513 005a FFF7FEFF 		bl	CyDelay
 1514              	.LVL190:
 307:main.c        ****         Left_Move();    
 1515              		.loc 1 307 0
 1516 005e 009A     		ldr	r2, [sp]
 1517 0060 019B     		ldr	r3, [sp, #4]
 1518 0062 3000     		movs	r0, r6
 1519 0064 3900     		movs	r1, r7
 1520 0066 FFF7FEFF 		bl	__aeabi_dcmplt
 1521              	.LVL191:
 1522 006a 0028     		cmp	r0, #0
 1523 006c 02D0     		beq	.L101
 308:main.c        ****     }
 1524              		.loc 1 308 0
ARM GAS  C:\Users\HENRYA~1\AppData\Local\Temp\ccq56xEy.s 			page 38


 1525 006e FFF7FEFF 		bl	Left_Move
 1526              	.LVL192:
 1527 0072 01E0     		b	.L94
 1528              	.L101:
 311:main.c        ****     }
 1529              		.loc 1 311 0
 1530 0074 FFF7FEFF 		bl	Right_Move
 1531              	.LVL193:
 1532              	.L94:
 313:main.c        **** 
 1533              		.loc 1 313 0
 1534 0078 02B0     		add	sp, sp, #8
 1535              	.LVL194:
 1536              		@ sp needed
 1537              	.LVL195:
 1538 007a D0BD     		pop	{r4, r6, r7, pc}
 1539              	.L103:
 1540              		.align	2
 1541              	.L102:
 1542 007c 00000000 		.word	.LANCHOR0
 1543 0080 8A020000 		.word	650
 1544              		.cfi_endproc
 1545              	.LFE51:
 1546              		.size	Select_Move, .-Select_Move
 1547              		.section	.text.Temporizador,"ax",%progbits
 1548              		.align	2
 1549              		.global	Temporizador
 1550              		.code	16
 1551              		.thumb_func
 1552              		.type	Temporizador, %function
 1553              	Temporizador:
 1554              	.LFB52:
 316:main.c        ****     conta++;
 1555              		.loc 1 316 0
 1556              		.cfi_startproc
 1557              		@ args = 0, pretend = 0, frame = 0
 1558              		@ frame_needed = 0, uses_anonymous_args = 0
 1559 0000 70B5     		push	{r4, r5, r6, lr}
 1560              		.cfi_def_cfa_offset 16
 1561              		.cfi_offset 4, -16
 1562              		.cfi_offset 5, -12
 1563              		.cfi_offset 6, -8
 1564              		.cfi_offset 14, -4
 317:main.c        ****     if(conta==Max_Conta){     
 1565              		.loc 1 317 0
 1566 0002 2C4A     		ldr	r2, .L112
 1567 0004 938B     		ldrh	r3, [r2, #28]
 1568 0006 0133     		adds	r3, r3, #1
 1569 0008 1BB2     		sxth	r3, r3
 1570 000a 9383     		strh	r3, [r2, #28]
 318:main.c        ****         LED_1_Write(1);
 1571              		.loc 1 318 0
 1572 000c 2A4A     		ldr	r2, .L112+4
 1573 000e D268     		ldr	r2, [r2, #12]
 1574 0010 9342     		cmp	r3, r2
 1575 0012 4BD1     		bne	.L105
 319:main.c        ****         if(Cantidad_Sensores==2&&dist<20){
ARM GAS  C:\Users\HENRYA~1\AppData\Local\Temp\ccq56xEy.s 			page 39


 1576              		.loc 1 319 0
 1577 0014 0120     		movs	r0, #1
 1578 0016 FFF7FEFF 		bl	LED_1_Write
 1579              	.LVL196:
 320:main.c        ****             Select_Move();      
 1580              		.loc 1 320 0
 1581 001a 264B     		ldr	r3, .L112
 1582 001c 9B69     		ldr	r3, [r3, #24]
 1583 001e 022B     		cmp	r3, #2
 1584 0020 06D1     		bne	.L106
 320:main.c        ****             Select_Move();      
 1585              		.loc 1 320 0 is_stmt 0 discriminator 1
 1586 0022 244A     		ldr	r2, .L112
 1587 0024 1278     		ldrb	r2, [r2]
 1588 0026 132A     		cmp	r2, #19
 1589 0028 02D8     		bhi	.L106
 321:main.c        ****         }
 1590              		.loc 1 321 0 is_stmt 1
 1591 002a FFF7FEFF 		bl	Select_Move
 1592              	.LVL197:
 1593 002e 39E0     		b	.L107
 1594              	.L106:
 323:main.c        ****             Left_Move();
 1595              		.loc 1 323 0
 1596 0030 032B     		cmp	r3, #3
 1597 0032 02D1     		bne	.L108
 324:main.c        ****         }
 1598              		.loc 1 324 0
 1599 0034 FFF7FEFF 		bl	Left_Move
 1600              	.LVL198:
 1601 0038 34E0     		b	.L107
 1602              	.L108:
 326:main.c        ****             Right_Move();           
 1603              		.loc 1 326 0
 1604 003a 062B     		cmp	r3, #6
 1605 003c 02D1     		bne	.L109
 327:main.c        ****         }
 1606              		.loc 1 327 0
 1607 003e FFF7FEFF 		bl	Right_Move
 1608              	.LVL199:
 1609 0042 2FE0     		b	.L107
 1610              	.L109:
 329:main.c        ****             Enviar_Parametros(0.8,0.833,0.5,V); 
 1611              		.loc 1 329 0
 1612 0044 072B     		cmp	r3, #7
 1613 0046 16D1     		bne	.L110
 330:main.c        ****             CyDelay(1000);
 1614              		.loc 1 330 0
 1615 0048 FC25     		movs	r5, #252
 1616 004a AD05     		lsls	r5, r5, #22
 1617 004c 1B4C     		ldr	r4, .L112+8
 1618 004e 1A33     		adds	r3, r3, #26
 1619 0050 2A1C     		adds	r2, r5, #0
 1620 0052 211C     		adds	r1, r4, #0
 1621 0054 1A48     		ldr	r0, .L112+12
 1622 0056 FFF7FEFF 		bl	Enviar_Parametros
 1623              	.LVL200:
ARM GAS  C:\Users\HENRYA~1\AppData\Local\Temp\ccq56xEy.s 			page 40


 331:main.c        ****             Enviar_Parametros(0.0,0.833,0.5,H);
 1624              		.loc 1 331 0
 1625 005a FA20     		movs	r0, #250
 1626 005c 8000     		lsls	r0, r0, #2
 1627 005e FFF7FEFF 		bl	CyDelay
 1628              	.LVL201:
 332:main.c        ****             CyDelay(15000);
 1629              		.loc 1 332 0
 1630 0062 2023     		movs	r3, #32
 1631 0064 2A1C     		adds	r2, r5, #0
 1632 0066 211C     		adds	r1, r4, #0
 1633 0068 0020     		movs	r0, #0
 1634 006a FFF7FEFF 		bl	Enviar_Parametros
 1635              	.LVL202:
 333:main.c        ****         }
 1636              		.loc 1 333 0
 1637 006e 1548     		ldr	r0, .L112+16
 1638 0070 FFF7FEFF 		bl	CyDelay
 1639              	.LVL203:
 1640 0074 16E0     		b	.L107
 1641              	.L110:
 336:main.c        ****             Templado();
 1642              		.loc 1 336 0
 1643 0076 0F4A     		ldr	r2, .L112
 1644 0078 9368     		ldr	r3, [r2, #8]
 1645 007a 0133     		adds	r3, r3, #1
 1646 007c 9360     		str	r3, [r2, #8]
 337:main.c        ****             Enviar_Parametros(0.0,fase,offset,H);
 1647              		.loc 1 337 0
 1648 007e FFF7FEFF 		bl	Templado
 1649              	.LVL204:
 338:main.c        ****             CyDelay(1000);
 1650              		.loc 1 338 0
 1651 0082 0D4C     		ldr	r4, .L112+4
 1652 0084 2023     		movs	r3, #32
 1653 0086 2268     		ldr	r2, [r4]
 1654 0088 6168     		ldr	r1, [r4, #4]
 1655 008a 0020     		movs	r0, #0
 1656 008c FFF7FEFF 		bl	Enviar_Parametros
 1657              	.LVL205:
 339:main.c        ****             Enviar_Parametros(amplitud,fase,offset,V);  
 1658              		.loc 1 339 0
 1659 0090 FA20     		movs	r0, #250
 1660 0092 8000     		lsls	r0, r0, #2
 1661 0094 FFF7FEFF 		bl	CyDelay
 1662              	.LVL206:
 340:main.c        ****         }
 1663              		.loc 1 340 0
 1664 0098 2268     		ldr	r2, [r4]
 1665 009a 6168     		ldr	r1, [r4, #4]
 1666 009c A068     		ldr	r0, [r4, #8]
 1667 009e 2123     		movs	r3, #33
 1668 00a0 FFF7FEFF 		bl	Enviar_Parametros
 1669              	.LVL207:
 1670              	.L107:
 342:main.c        ****     }
 1671              		.loc 1 342 0
ARM GAS  C:\Users\HENRYA~1\AppData\Local\Temp\ccq56xEy.s 			page 41


 1672 00a4 0022     		movs	r2, #0
 1673 00a6 034B     		ldr	r3, .L112
 1674 00a8 9A83     		strh	r2, [r3, #28]
 1675 00aa 02E0     		b	.L104
 1676              	.L105:
 345:main.c        ****     }  
 1677              		.loc 1 345 0
 1678 00ac 0020     		movs	r0, #0
 1679 00ae FFF7FEFF 		bl	LED_1_Write
 1680              	.LVL208:
 1681              	.L104:
 347:main.c        **** 
 1682              		.loc 1 347 0
 1683              		@ sp needed
 1684 00b2 70BD     		pop	{r4, r5, r6, pc}
 1685              	.L113:
 1686              		.align	2
 1687              	.L112:
 1688 00b4 00000000 		.word	.LANCHOR0
 1689 00b8 00000000 		.word	.LANCHOR1
 1690 00bc 7D3F553F 		.word	1062551421
 1691 00c0 CDCC4C3F 		.word	1061997773
 1692 00c4 983A0000 		.word	15000
 1693              		.cfi_endproc
 1694              	.LFE52:
 1695              		.size	Temporizador, .-Temporizador
 1696              		.section	.text.main,"ax",%progbits
 1697              		.align	2
 1698              		.global	main
 1699              		.code	16
 1700              		.thumb_func
 1701              		.type	main, %function
 1702              	main:
 1703              	.LFB54:
 352:main.c        **** 
 353:main.c        **** int main()
 354:main.c        **** {
 1704              		.loc 1 354 0
 1705              		.cfi_startproc
 1706              		@ Volatile: function does not return.
 1707              		@ args = 0, pretend = 0, frame = 0
 1708              		@ frame_needed = 0, uses_anonymous_args = 0
 1709 0000 10B5     		push	{r4, lr}
 1710              		.cfi_def_cfa_offset 8
 1711              		.cfi_offset 4, -8
 1712              		.cfi_offset 14, -4
 355:main.c        ****     //Init LED's
 356:main.c        ****     CAN_Start(); ///  start CAN
 1713              		.loc 1 356 0
 1714 0002 FFF7FEFF 		bl	CAN_Start
 1715              	.LVL209:
 357:main.c        ****     Timer_1_Start();
 1716              		.loc 1 357 0
 1717 0006 FFF7FEFF 		bl	Timer_1_Start
 1718              	.LVL210:
 358:main.c        ****     Timer_Start();
 1719              		.loc 1 358 0
ARM GAS  C:\Users\HENRYA~1\AppData\Local\Temp\ccq56xEy.s 			page 42


 1720 000a FFF7FEFF 		bl	Timer_Start
 1721              	.LVL211:
 359:main.c        ****     SENSOR_U_Start();
 1722              		.loc 1 359 0
 1723 000e FFF7FEFF 		bl	SENSOR_U_Start
 1724              	.LVL212:
 360:main.c        ****     CAN_isr_StartEx(interrutcan);
 1725              		.loc 1 360 0
 1726 0012 0848     		ldr	r0, .L116
 1727 0014 FFF7FEFF 		bl	CAN_isr_StartEx
 1728              	.LVL213:
 361:main.c        ****     CAN_GlobalIntEnable();
 1729              		.loc 1 361 0
 1730 0018 FFF7FEFF 		bl	CAN_GlobalIntEnable
 1731              	.LVL214:
 362:main.c        ****     Int_Serial_StartEx(Serial_Interrupt);
 1732              		.loc 1 362 0
 1733 001c 0648     		ldr	r0, .L116+4
 1734 001e FFF7FEFF 		bl	Int_Serial_StartEx
 1735              	.LVL215:
 363:main.c        ****     Timer_StartEx(Temporizador);
 1736              		.loc 1 363 0
 1737 0022 0648     		ldr	r0, .L116+8
 1738 0024 FFF7FEFF 		bl	Timer_StartEx
 1739              	.LVL216:
 364:main.c        ****     LED_1_Write(0);
 1740              		.loc 1 364 0
 1741 0028 0020     		movs	r0, #0
 1742 002a FFF7FEFF 		bl	LED_1_Write
 1743              	.LVL217:
 365:main.c        ****     CyGlobalIntEnable;
 1744              		.loc 1 365 0
 1745              		.syntax divided
 1746              	@ 365 "main.c" 1
 1747 002e 62B6     		CPSIE   i
 1748              	@ 0 "" 2
 1749              		.thumb
 1750              		.syntax unified
 1751              	.L115:
 1752 0030 FEE7     		b	.L115
 1753              	.L117:
 1754 0032 C046     		.align	2
 1755              	.L116:
 1756 0034 00000000 		.word	interrutcan
 1757 0038 00000000 		.word	Serial_Interrupt
 1758 003c 00000000 		.word	Temporizador
 1759              		.cfi_endproc
 1760              	.LFE54:
 1761              		.size	main, .-main
 1762              		.global	Cantidad_Sensores
 1763              		.global	Periodo
 1764              		.global	Sigma
 1765              		.global	L_anterior
 1766              		.global	L_actual
 1767              		.global	flag
 1768              		.global	pha_aux
 1769              		.global	off_aux
ARM GAS  C:\Users\HENRYA~1\AppData\Local\Temp\ccq56xEy.s 			page 43


 1770              		.global	ampli_aux
 1771              		.global	fase
 1772              		.global	offset
 1773              		.global	amplitud
 1774              		.global	Max_Conta
 1775              		.global	cantidadM
 1776              		.global	conta
 1777              		.global	dist
 1778              		.comm	dato_enviado_1,8,4
 1779              		.comm	dato_enviado,8,4
 1780              		.comm	mailbox2,8,4
 1781              		.comm	mailbox1,8,4
 1782              		.comm	mailbox0,8,4
 1783              		.data
 1784              		.align	2
 1785              		.set	.LANCHOR1,. + 0
 1786              		.type	offset, %object
 1787              		.size	offset, 4
 1788              	offset:
 1789 0000 7D3F553F 		.word	1062551421
 1790              		.type	fase, %object
 1791              		.size	fase, 4
 1792              	fase:
 1793 0004 9A99993E 		.word	1050253722
 1794              		.type	amplitud, %object
 1795              		.size	amplitud, 4
 1796              	amplitud:
 1797 0008 0000003F 		.word	1056964608
 1798              		.type	Max_Conta, %object
 1799              		.size	Max_Conta, 4
 1800              	Max_Conta:
 1801 000c 64000000 		.word	100
 1802              		.type	Periodo, %object
 1803              		.size	Periodo, 2
 1804              	Periodo:
 1805 0010 0100     		.short	1
 1806              		.bss
 1807              		.align	2
 1808              		.set	.LANCHOR0,. + 0
 1809              		.type	dist, %object
 1810              		.size	dist, 1
 1811              	dist:
 1812 0000 00       		.space	1
 1813 0001 000000   		.space	3
 1814              		.type	cantidadM, %object
 1815              		.size	cantidadM, 4
 1816              	cantidadM:
 1817 0004 00000000 		.space	4
 1818              		.type	flag, %object
 1819              		.size	flag, 4
 1820              	flag:
 1821 0008 00000000 		.space	4
 1822              		.type	L_actual, %object
 1823              		.size	L_actual, 4
 1824              	L_actual:
 1825 000c 00000000 		.space	4
 1826              		.type	L_anterior, %object
ARM GAS  C:\Users\HENRYA~1\AppData\Local\Temp\ccq56xEy.s 			page 44


 1827              		.size	L_anterior, 4
 1828              	L_anterior:
 1829 0010 00000000 		.space	4
 1830              		.type	Sigma, %object
 1831              		.size	Sigma, 4
 1832              	Sigma:
 1833 0014 00000000 		.space	4
 1834              		.type	Cantidad_Sensores, %object
 1835              		.size	Cantidad_Sensores, 4
 1836              	Cantidad_Sensores:
 1837 0018 00000000 		.space	4
 1838              		.type	conta, %object
 1839              		.size	conta, 2
 1840              	conta:
 1841 001c 0000     		.space	2
 1842 001e 0000     		.space	2
 1843              		.type	pha_aux, %object
 1844              		.size	pha_aux, 4
 1845              	pha_aux:
 1846 0020 00000000 		.space	4
 1847              		.type	off_aux, %object
 1848              		.size	off_aux, 4
 1849              	off_aux:
 1850 0024 00000000 		.space	4
 1851              		.type	ampli_aux, %object
 1852              		.size	ampli_aux, 4
 1853              	ampli_aux:
 1854 0028 00000000 		.space	4
 1855              		.text
 1856              	.Letext0:
 1857              		.file 2 "Generated_Source\\PSoC4/cytypes.h"
 1858              		.file 3 "Generated_Source\\PSoC4/SENSOR_U.h"
 1859              		.file 4 "c:\\program files (x86)\\cypress\\psoc creator\\4.1\\psoc creator\\import\\gnu\\arm\\5.4.
 1860              		.file 5 "Generated_Source\\PSoC4/CAN.h"
 1861              		.file 6 "Generated_Source\\PSoC4/CyLib.h"
 1862              		.file 7 "Generated_Source\\PSoC4/CAN_isr.h"
 1863              		.file 8 "Generated_Source\\PSoC4/LED_1.h"
 1864              		.file 9 "Generated_Source\\PSoC4/Timer_1.h"
 1865              		.file 10 "Generated_Source\\PSoC4/Timer.h"
 1866              		.file 11 "Generated_Source\\PSoC4/Int_Serial.h"