ARM GAS  C:\Users\HENRYA~1\AppData\Local\Temp\ccvNdTvf.s 			page 1


   1              		.syntax unified
   2              		.cpu cortex-m0
   3              		.fpu softvfp
   4              		.eabi_attribute 20, 1
   5              		.eabi_attribute 21, 1
   6              		.eabi_attribute 23, 3
   7              		.eabi_attribute 24, 1
   8              		.eabi_attribute 25, 1
   9              		.eabi_attribute 26, 1
  10              		.eabi_attribute 30, 1
  11              		.eabi_attribute 34, 0
  12              		.eabi_attribute 18, 4
  13              		.thumb
  14              		.syntax unified
  15              		.file	"main.c"
  16              		.text
  17              	.Ltext0:
  18              		.cfi_sections	.debug_frame
  19              		.section	.text.Serial_Interrupt,"ax",%progbits
  20              		.align	2
  21              		.global	Serial_Interrupt
  22              		.code	16
  23              		.thumb_func
  24              		.type	Serial_Interrupt, %function
  25              	Serial_Interrupt:
  26              	.LFB55:
  27              		.file 1 "main.c"
   1:main.c        **** #include <project.h>
   2:main.c        **** #include <stdio.h>
   3:main.c        **** #include <stdlib.h>
   4:main.c        **** #include <math.h>
   5:main.c        **** #include <protocolo can.h>
   6:main.c        **** //Import Libraries
   7:main.c        **** //Global Variables
   8:main.c        **** uint8 mailbox0[8];
   9:main.c        **** uint8 mailbox1[8];
  10:main.c        **** uint8 mailbox2[8];
  11:main.c        **** uint8 dato_enviado[8];
  12:main.c        **** uint8 dato_enviado_1[8];
  13:main.c        **** char dist=0;
  14:main.c        **** int16 conta=0;
  15:main.c        **** int cantidadM=0;
  16:main.c        **** int Cantidad_Sensores=0;
  17:main.c        **** //Variables AE
  18:main.c        **** int Max_Conta=150;
  19:main.c        **** float amplitud=0.0;
  20:main.c        **** float offset=0.833;
  21:main.c        **** float fase=0.0;
  22:main.c        **** float ampli_aux=0.0;
  23:main.c        **** float off_aux=0.833;
  24:main.c        **** float pha_aux=0.0;
  25:main.c        **** float ampli_aux_2=0.0;
  26:main.c        **** float off_aux_2=0.833;
  27:main.c        **** float pha_aux_2=0.0;
  28:main.c        **** int flag=0;
  29:main.c        **** float L_actual=0.0;
  30:main.c        **** float L_anterior=0.0;
ARM GAS  C:\Users\HENRYA~1\AppData\Local\Temp\ccvNdTvf.s 			page 2


  31:main.c        **** int punto_a=0;
  32:main.c        **** int punto_b=0;
  33:main.c        **** int move_s=0;
  34:main.c        **** 
  35:main.c        **** double randd() {
  36:main.c        ****   return (double)rand()/((double)RAND_MAX + 1);
  37:main.c        **** }
  38:main.c        **** 
  39:main.c        **** double random_amplitud(){
  40:main.c        ****     return randd();
  41:main.c        **** }
  42:main.c        **** 
  43:main.c        **** double random_Fase(){
  44:main.c        ****     float r=0.0;
  45:main.c        ****     r=randd();
  46:main.c        ****     r=r*2;
  47:main.c        ****     r=r-1;
  48:main.c        ****     return r;
  49:main.c        **** }
  50:main.c        **** 
  51:main.c        **** double random_Offset(){
  52:main.c        ****     float r=0.0;
  53:main.c        ****     r=randd();
  54:main.c        ****     r=r*0.35;
  55:main.c        ****     r=r+0.65;
  56:main.c        ****     return r;
  57:main.c        **** }
  58:main.c        **** 
  59:main.c        **** void movimiento(unsigned int dirr,int mov){
  60:main.c        ****     char byteh,bytel;
  61:main.c        ****     byteh= mov >> 8;
  62:main.c        ****     bytel=mov;
  63:main.c        ****     dato_enviado[0]=VER ;//verificacion
  64:main.c        ****     dato_enviado[1]=dirr ;//dir
  65:main.c        ****     dato_enviado[2]=ESCRITURA ;//operacion
  66:main.c        ****     dato_enviado[3]=MOTOR;//lugar
  67:main.c        ****     dato_enviado[4]= byteh ;  //dato
  68:main.c        ****     dato_enviado[5]= bytel ;  //dato
  69:main.c        ****     CAN_SendMsg0(); 
  70:main.c        ****     CyDelay(25);    
  71:main.c        **** }
  72:main.c        **** 
  73:main.c        **** void Send_Angle(int datas,int Conta3){ 
  74:main.c        ****     int8 datoL=datas;
  75:main.c        ****     int8 datoH=datas>>8;  
  76:main.c        ****     dato_enviado[0]=VER2;//verificacion
  77:main.c        ****     dato_enviado[1]=Conta3;//dir
  78:main.c        ****     dato_enviado[2]=Conta3;//dir
  79:main.c        ****     dato_enviado[3]=ANGLE;
  80:main.c        ****     dato_enviado[4]=0;//lugar
  81:main.c        ****     dato_enviado[5]=0;  //dato... en este caso direcion para asignar
  82:main.c        ****     dato_enviado[6]=0;
  83:main.c        ****     dato_enviado[7]=Conta3;
  84:main.c        ****     CAN_SendMsg0(); 
  85:main.c        ****     CyDelay(50);
  86:main.c        **** }
  87:main.c        **** 
ARM GAS  C:\Users\HENRYA~1\AppData\Local\Temp\ccvNdTvf.s 			page 3


  88:main.c        **** void Enviar_Parametros(float Amplitud,float Phase,float Offset,int Orientacion){
  89:main.c        ****     //Convertir el Valor a entero para ser enviado
  90:main.c        ****     int Amp_env=(int)fabs(Amplitud*10000);
  91:main.c        ****     int Phase_env=(int)fabs(Phase*10000);
  92:main.c        ****     int Offset_env=(int)fabs(Offset*10000);
  93:main.c        ****     //Enviar datos
  94:main.c        ****     dato_enviado_1[0]=VER_M1;
  95:main.c        ****     dato_enviado_1[1]=Orientacion;
  96:main.c        ****     //Convertir Amplitud
  97:main.c        ****     uint8 datoL=Amp_env;
  98:main.c        ****     uint8 datoH=Amp_env>>8;
  99:main.c        ****     uint8 Aux=0;
 100:main.c        ****     if(Amplitud<0.0){
 101:main.c        ****         Aux=(1<<7);
 102:main.c        ****         datoH=datoH+Aux;
 103:main.c        ****     }
 104:main.c        ****     else{
 105:main.c        ****         Aux=(0<<7);
 106:main.c        ****         datoH=datoH+Aux;    
 107:main.c        ****     }
 108:main.c        ****     dato_enviado_1[2]=datoL;
 109:main.c        ****     dato_enviado_1[3]=datoH;
 110:main.c        ****     //Convertir Fase
 111:main.c        ****     datoL=Phase_env;
 112:main.c        ****     datoH=Phase_env>>8;
 113:main.c        ****     if(Phase<0.0){
 114:main.c        ****         Aux=(1<<7);
 115:main.c        ****         datoH=datoH+Aux;
 116:main.c        ****     }
 117:main.c        ****     else{
 118:main.c        ****         Aux=(0<<7);
 119:main.c        ****         datoH=datoH+Aux;    
 120:main.c        ****     }
 121:main.c        ****     dato_enviado_1[4]=datoL;
 122:main.c        ****     dato_enviado_1[5]=datoH;
 123:main.c        ****     //Convertir Offset
 124:main.c        ****     datoL=Offset_env;
 125:main.c        ****     datoH=Offset_env>>8;
 126:main.c        ****     if(Offset<0.0){
 127:main.c        ****         Aux=(1<<7);
 128:main.c        ****         datoH=datoH+Aux;
 129:main.c        ****     }
 130:main.c        ****     else{
 131:main.c        ****         Aux=(0<<7);
 132:main.c        ****         datoH=datoH+Aux;    
 133:main.c        ****     }
 134:main.c        ****     dato_enviado_1[6]=datoL;
 135:main.c        ****     dato_enviado_1[7]=datoH;    
 136:main.c        ****     CAN_SendMsg1();
 137:main.c        ****     CyDelay(25);
 138:main.c        **** }
 139:main.c        **** 
 140:main.c        **** void Recibe_mail_0(){
 141:main.c        **** if(mailbox0[0]==VER){
 142:main.c        ****             switch(mailbox0[2]){
 143:main.c        ****             ///////////////////////////////////////////////////////
 144:main.c        ****             case ESCRITURA:{ 
ARM GAS  C:\Users\HENRYA~1\AppData\Local\Temp\ccvNdTvf.s 			page 4


 145:main.c        ****                 switch(mailbox0[3]){//////////+6+++++++++++++
 146:main.c        ****                     case CANTIDAD_MOD: 
 147:main.c        ****                             cantidadM=mailbox0[4];
 148:main.c        ****                     break;
 149:main.c        ****                     case START:
 150:main.c        ****                         
 151:main.c        ****                     break;
 152:main.c        ****                 }
 153:main.c        ****             }                                            
 154:main.c        ****         }    
 155:main.c        **** }
 156:main.c        **** if(mailbox0[0]==VER2){
 157:main.c        ****                 switch(mailbox0[3]){
 158:main.c        ****                 ///////////////////////////////////////////////////////
 159:main.c        ****                 case ANGLE:{
 160:main.c        ****                     int Contador=mailbox0[7];
 161:main.c        ****                     if(Contador>=cantidadM){
 162:main.c        ****                         Enviar_Parametros(amplitud,fase,offset,V);
 163:main.c        ****                         CyDelay(10);
 164:main.c        ****                         Enviar_Parametros(0.0,fase,0.833,H);  
 165:main.c        ****                     } 
 166:main.c        ****                 }
 167:main.c        ****                 break;}
 168:main.c        ****             } 
 169:main.c        **** }
 170:main.c        **** 
 171:main.c        **** void Recibe_Mail_2(){
 172:main.c        ****     if(mailbox2[0]==SENSORES){
 173:main.c        ****         //Mailbox2[1] Derecha
 174:main.c        ****         //Mailbox2[2] Frente
 175:main.c        ****         //Mailbox2[3] Izquierda
 176:main.c        ****         if(mailbox2[1]==0&&mailbox2[2]==0&&mailbox2[3]==0)      {Cantidad_Sensores=0;}   //Normal
 177:main.c        ****         else if(mailbox2[1]==0&&mailbox2[2]==0&&mailbox2[3]==1) {Cantidad_Sensores=1;}   //Izquierd
 178:main.c        ****         else if(mailbox2[1]==0&&mailbox2[2]==1&&mailbox2[3]==0) {Cantidad_Sensores=2;}   //Frontal
 179:main.c        ****         else if(mailbox2[1]==0&&mailbox2[2]==1&&mailbox2[3]==1) {Cantidad_Sensores=3;}   //Frontal 
 180:main.c        ****         else if(mailbox2[1]==1&&mailbox2[2]==0&&mailbox2[3]==0) {Cantidad_Sensores=4;}   //Derecha
 181:main.c        ****         else if(mailbox2[1]==1&&mailbox2[2]==0&&mailbox2[3]==1) {Cantidad_Sensores=5;}   //Derecha 
 182:main.c        ****         else if(mailbox2[1]==1&&mailbox2[2]==1&&mailbox2[3]==0) {Cantidad_Sensores=6;}   //Frontal 
 183:main.c        ****         else if(mailbox2[1]==1&&mailbox2[2]==1&&mailbox2[3]==1) {Cantidad_Sensores=7;}   //Todos
 184:main.c        ****         else                                                    {Cantidad_Sensores=0;}   //Normal
 185:main.c        ****     }
 186:main.c        **** }
 187:main.c        **** 
 188:main.c        **** CY_ISR(interrutcan){
 189:main.c        ****     CAN_GlobalIntDisable();
 190:main.c        ****     CAN_MsgRXIsr();  
 191:main.c        ****     Recibe_mail_0();
 192:main.c        ****     Recibe_Mail_2();
 193:main.c        ****     CAN_GlobalIntEnable();
 194:main.c        **** }
 195:main.c        **** 
 196:main.c        **** void Hill(){
 197:main.c        ****     if (flag==1){
 198:main.c        ****         ampli_aux=amplitud;
 199:main.c        ****         off_aux=offset;
 200:main.c        ****         pha_aux=fase;        
 201:main.c        ****         amplitud=0.0;
ARM GAS  C:\Users\HENRYA~1\AppData\Local\Temp\ccvNdTvf.s 			page 5


 202:main.c        ****         fase=0.0;
 203:main.c        ****         offset=0.833;
 204:main.c        ****         Max_Conta=20;
 205:main.c        ****     }
 206:main.c        ****     else if (flag==2){   
 207:main.c        ****         L_anterior=dist;
 208:main.c        ****         amplitud=random_amplitud();
 209:main.c        ****         fase=random_Fase();
 210:main.c        ****         offset=random_Offset();
 211:main.c        ****         ampli_aux_2=amplitud;
 212:main.c        ****         off_aux_2=offset;
 213:main.c        ****         pha_aux_2=fase;         
 214:main.c        ****         Max_Conta=100;
 215:main.c        ****     }
 216:main.c        ****     else if (flag==3){
 217:main.c        ****         amplitud=0.0;
 218:main.c        ****         fase=0.0;
 219:main.c        ****         offset=0.833;
 220:main.c        ****         Max_Conta=20;
 221:main.c        ****     }    
 222:main.c        ****     else if(flag==4){
 223:main.c        ****         L_actual=dist;
 224:main.c        ****         if(L_anterior<L_actual){
 225:main.c        ****             amplitud=ampli_aux;
 226:main.c        ****             fase=pha_aux; 
 227:main.c        ****             offset=off_aux;
 228:main.c        ****         }
 229:main.c        ****         else{
 230:main.c        ****             amplitud=ampli_aux_2;
 231:main.c        ****             fase=pha_aux_2; 
 232:main.c        ****             offset=off_aux_2;        
 233:main.c        ****         }
 234:main.c        ****         flag=0;
 235:main.c        ****         Max_Conta=100;
 236:main.c        ****     }
 237:main.c        ****     else if(flag>4){flag=0;Max_Conta=5;}  
 238:main.c        **** }
 239:main.c        **** 
 240:main.c        **** void Left_Move(){
 241:main.c        ****     Send_Angle(0,200);
 242:main.c        ****     int  i=0;
 243:main.c        ****     int j=0;
 244:main.c        ****     for(i=0;i<cantidadM;i++){ //Alineación
 245:main.c        ****         movimiento(i,512);
 246:main.c        ****         }
 247:main.c        ****     CyDelay(2000);
 248:main.c        ****     movimiento(cantidadM,675);//Ancla Trasera
 249:main.c        ****     CyDelay(2000);
 250:main.c        ****     //Giro
 251:main.c        ****     for(j=0;j<1;j++){
 252:main.c        ****         for(i=2;i<cantidadM;i=i+4){ 
 253:main.c        ****             movimiento(i,650);
 254:main.c        ****             movimiento(i+1,750);
 255:main.c        ****             }
 256:main.c        ****         movimiento(cantidadM,512);//Ancla Trasera
 257:main.c        ****         CyDelay(2000);
 258:main.c        ****         movimiento(0,350);//Ancla Delantera
ARM GAS  C:\Users\HENRYA~1\AppData\Local\Temp\ccvNdTvf.s 			page 6


 259:main.c        ****         CyDelay(2000);
 260:main.c        ****         for(i=2;i<cantidadM;i=i+4){ //Alineación
 261:main.c        ****             movimiento(i,512);
 262:main.c        ****             movimiento(i+1,512);
 263:main.c        ****         }    
 264:main.c        ****         CyDelay(2000);
 265:main.c        ****     }         
 266:main.c        ****     for(i=0;i<cantidadM;i++){ //Alineación
 267:main.c        ****         movimiento(i,512);
 268:main.c        ****         }
 269:main.c        ****     CyDelay(2000); 
 270:main.c        ****     Send_Angle(0,0);
 271:main.c        **** }
 272:main.c        **** 
 273:main.c        **** void Right_Move(){
 274:main.c        ****     Send_Angle(0,200);
 275:main.c        ****     int  i=0;
 276:main.c        ****     int j=0;
 277:main.c        ****     for(i=0;i<cantidadM;i++){ //Alineación
 278:main.c        ****         movimiento(i,512);
 279:main.c        ****         }
 280:main.c        ****     CyDelay(2000);
 281:main.c        ****     movimiento(cantidadM,675);//Ancla Trasera
 282:main.c        ****     CyDelay(2000);
 283:main.c        ****     //Giro
 284:main.c        ****     for(j=0;j<1;j++){
 285:main.c        ****         for(i=2;i<cantidadM;i=i+4){ 
 286:main.c        ****             movimiento(i,374);
 287:main.c        ****             movimiento(i+1,274);
 288:main.c        ****             }
 289:main.c        ****         movimiento(cantidadM,512);//Ancla Trasera
 290:main.c        ****         CyDelay(2000);
 291:main.c        ****         movimiento(0,350);//Ancla Delantera
 292:main.c        ****         CyDelay(2000);
 293:main.c        ****         for(i=2;i<cantidadM;i=i+4){ //Alineación
 294:main.c        ****             movimiento(i,512);
 295:main.c        ****             movimiento(i+1,512);
 296:main.c        ****         }    
 297:main.c        ****         CyDelay(2000);
 298:main.c        ****     }         
 299:main.c        ****     for(i=0;i<cantidadM;i++){ //Alineación
 300:main.c        ****         movimiento(i,512);
 301:main.c        ****         }
 302:main.c        ****     CyDelay(2000); 
 303:main.c        ****     Send_Angle(0,0);
 304:main.c        **** }
 305:main.c        **** 
 306:main.c        **** void Select_Move(){
 307:main.c        ****     Send_Angle(0,200);
 308:main.c        ****     int  i=0;
 309:main.c        ****     for(i=0;i<6;i++){ //Alineación
 310:main.c        ****         movimiento(i,512);
 311:main.c        ****         }
 312:main.c        ****     CyDelay(2000);
 313:main.c        ****     movimiento(2,750);
 314:main.c        ****     CyDelay(5000);
 315:main.c        ****     move_s=1;
ARM GAS  C:\Users\HENRYA~1\AppData\Local\Temp\ccvNdTvf.s 			page 7


 316:main.c        **** }
 317:main.c        **** 
 318:main.c        **** void Select_Move_2(){
 319:main.c        ****     punto_a=dist;  
 320:main.c        ****     move_s=2;
 321:main.c        **** }
 322:main.c        **** 
 323:main.c        **** void Select_Move_3(){
 324:main.c        ****     movimiento(2,274);
 325:main.c        ****     CyDelay(5000);
 326:main.c        ****     move_s=3;
 327:main.c        **** }
 328:main.c        **** 
 329:main.c        **** void Select_Move_4(){
 330:main.c        ****     punto_b=dist;
 331:main.c        ****     move_s=0;       
 332:main.c        ****     if(punto_a>=punto_b){
 333:main.c        ****         Left_Move();    
 334:main.c        ****     }
 335:main.c        ****     else{
 336:main.c        ****         Right_Move();
 337:main.c        ****     } 
 338:main.c        **** }
 339:main.c        **** 
 340:main.c        **** //Interrupt's
 341:main.c        **** CY_ISR(Temporizador){
 342:main.c        ****     conta++;
 343:main.c        ****     if(conta==Max_Conta){     
 344:main.c        ****         LED_1_Write(1);
 345:main.c        ****         if(move_s==0){
 346:main.c        ****             if(Cantidad_Sensores==2){
 347:main.c        ****                 Select_Move();   
 348:main.c        ****                 Max_Conta=10;
 349:main.c        ****             }
 350:main.c        ****             else if(Cantidad_Sensores==3){//Izquierda
 351:main.c        ****                 Left_Move();
 352:main.c        ****                 Max_Conta=10;
 353:main.c        ****             }
 354:main.c        ****             else if(Cantidad_Sensores==6){//Derecha
 355:main.c        ****                 Right_Move();    
 356:main.c        ****                 Max_Conta=10;
 357:main.c        ****             }
 358:main.c        ****             else if(Cantidad_Sensores==7){//Reversa
 359:main.c        ****                 amplitud=0.8;offset=0.833;fase=-0.5;
 360:main.c        ****                 Enviar_Parametros(amplitud,fase,offset,V); 
 361:main.c        ****                 CyDelay(1000);
 362:main.c        ****                 Enviar_Parametros(0.0,fase,offset,H);
 363:main.c        ****                 CyDelay(15000);
 364:main.c        ****                 Max_Conta=10;
 365:main.c        ****             }
 366:main.c        ****             else{   //Adelante
 367:main.c        ****                 flag++;      
 368:main.c        ****                 Hill();
 369:main.c        ****                 Enviar_Parametros(0.0,fase,0.833,H);
 370:main.c        ****                 CyDelay(1000);
 371:main.c        ****                 Enviar_Parametros(amplitud,fase,offset,V);             
 372:main.c        ****             }
ARM GAS  C:\Users\HENRYA~1\AppData\Local\Temp\ccvNdTvf.s 			page 8


 373:main.c        ****         }
 374:main.c        ****         else if (move_s==1){Select_Move_2();}
 375:main.c        ****         else if (move_s==2){Select_Move_3();}
 376:main.c        ****         else{Select_Move_4();}
 377:main.c        ****         conta=0;
 378:main.c        ****     }
 379:main.c        ****     else{
 380:main.c        ****         LED_1_Write(0);
 381:main.c        ****     }  
 382:main.c        **** }
 383:main.c        **** 
 384:main.c        **** CY_ISR(Serial_Interrupt){
  28              		.loc 1 384 0
  29              		.cfi_startproc
  30              		@ args = 0, pretend = 0, frame = 0
  31              		@ frame_needed = 0, uses_anonymous_args = 0
  32 0000 10B5     		push	{r4, lr}
  33              		.cfi_def_cfa_offset 8
  34              		.cfi_offset 4, -8
  35              		.cfi_offset 14, -4
 385:main.c        ****     dist=SENSOR_U_GetChar();
  36              		.loc 1 385 0
  37 0002 FFF7FEFF 		bl	SENSOR_U_GetChar
  38              	.LVL0:
  39 0006 014B     		ldr	r3, .L2
  40 0008 1870     		strb	r0, [r3]
 386:main.c        **** }
  41              		.loc 1 386 0
  42              		@ sp needed
  43 000a 10BD     		pop	{r4, pc}
  44              	.L3:
  45              		.align	2
  46              	.L2:
  47 000c 00000000 		.word	.LANCHOR0
  48              		.cfi_endproc
  49              	.LFE55:
  50              		.size	Serial_Interrupt, .-Serial_Interrupt
  51              		.global	__aeabi_i2d
  52              		.global	__aeabi_dmul
  53              		.section	.text.randd,"ax",%progbits
  54              		.align	2
  55              		.global	randd
  56              		.code	16
  57              		.thumb_func
  58              		.type	randd, %function
  59              	randd:
  60              	.LFB37:
  35:main.c        ****   return (double)rand()/((double)RAND_MAX + 1);
  61              		.loc 1 35 0
  62              		.cfi_startproc
  63              		@ args = 0, pretend = 0, frame = 0
  64              		@ frame_needed = 0, uses_anonymous_args = 0
  65 0000 10B5     		push	{r4, lr}
  66              		.cfi_def_cfa_offset 8
  67              		.cfi_offset 4, -8
  68              		.cfi_offset 14, -4
  36:main.c        **** }
ARM GAS  C:\Users\HENRYA~1\AppData\Local\Temp\ccvNdTvf.s 			page 9


  69              		.loc 1 36 0
  70 0002 FFF7FEFF 		bl	rand
  71              	.LVL1:
  72 0006 FFF7FEFF 		bl	__aeabi_i2d
  73              	.LVL2:
  74 000a 0022     		movs	r2, #0
  75 000c F823     		movs	r3, #248
  76 000e 9B05     		lsls	r3, r3, #22
  77 0010 FFF7FEFF 		bl	__aeabi_dmul
  78              	.LVL3:
  37:main.c        **** 
  79              		.loc 1 37 0
  80              		@ sp needed
  81 0014 10BD     		pop	{r4, pc}
  82              		.cfi_endproc
  83              	.LFE37:
  84              		.size	randd, .-randd
  85 0016 C046     		.section	.text.random_amplitud,"ax",%progbits
  86              		.align	2
  87              		.global	random_amplitud
  88              		.code	16
  89              		.thumb_func
  90              		.type	random_amplitud, %function
  91              	random_amplitud:
  92              	.LFB38:
  39:main.c        ****     return randd();
  93              		.loc 1 39 0
  94              		.cfi_startproc
  95              		@ args = 0, pretend = 0, frame = 0
  96              		@ frame_needed = 0, uses_anonymous_args = 0
  97 0000 10B5     		push	{r4, lr}
  98              		.cfi_def_cfa_offset 8
  99              		.cfi_offset 4, -8
 100              		.cfi_offset 14, -4
  40:main.c        **** }
 101              		.loc 1 40 0
 102 0002 FFF7FEFF 		bl	randd
 103              	.LVL4:
  41:main.c        **** 
 104              		.loc 1 41 0
 105              		@ sp needed
 106 0006 10BD     		pop	{r4, pc}
 107              		.cfi_endproc
 108              	.LFE38:
 109              		.size	random_amplitud, .-random_amplitud
 110              		.global	__aeabi_d2f
 111              		.global	__aeabi_fadd
 112              		.global	__aeabi_fsub
 113              		.global	__aeabi_f2d
 114              		.section	.text.random_Fase,"ax",%progbits
 115              		.align	2
 116              		.global	random_Fase
 117              		.code	16
 118              		.thumb_func
 119              		.type	random_Fase, %function
 120              	random_Fase:
 121              	.LFB39:
ARM GAS  C:\Users\HENRYA~1\AppData\Local\Temp\ccvNdTvf.s 			page 10


  43:main.c        ****     float r=0.0;
 122              		.loc 1 43 0
 123              		.cfi_startproc
 124              		@ args = 0, pretend = 0, frame = 0
 125              		@ frame_needed = 0, uses_anonymous_args = 0
 126 0000 10B5     		push	{r4, lr}
 127              		.cfi_def_cfa_offset 8
 128              		.cfi_offset 4, -8
 129              		.cfi_offset 14, -4
 130              	.LVL5:
  45:main.c        ****     r=r*2;
 131              		.loc 1 45 0
 132 0002 FFF7FEFF 		bl	randd
 133              	.LVL6:
 134 0006 FFF7FEFF 		bl	__aeabi_d2f
 135              	.LVL7:
  46:main.c        ****     r=r-1;
 136              		.loc 1 46 0
 137 000a 011C     		adds	r1, r0, #0
 138 000c FFF7FEFF 		bl	__aeabi_fadd
 139              	.LVL8:
  47:main.c        ****     return r;
 140              		.loc 1 47 0
 141 0010 FE21     		movs	r1, #254
 142 0012 8905     		lsls	r1, r1, #22
 143 0014 FFF7FEFF 		bl	__aeabi_fsub
 144              	.LVL9:
  48:main.c        **** }
 145              		.loc 1 48 0
 146 0018 FFF7FEFF 		bl	__aeabi_f2d
 147              	.LVL10:
  49:main.c        **** 
 148              		.loc 1 49 0
 149              		@ sp needed
 150 001c 10BD     		pop	{r4, pc}
 151              		.cfi_endproc
 152              	.LFE39:
 153              		.size	random_Fase, .-random_Fase
 154              		.global	__aeabi_dadd
 155 001e C046     		.section	.text.random_Offset,"ax",%progbits
 156              		.align	2
 157              		.global	random_Offset
 158              		.code	16
 159              		.thumb_func
 160              		.type	random_Offset, %function
 161              	random_Offset:
 162              	.LFB40:
  51:main.c        ****     float r=0.0;
 163              		.loc 1 51 0
 164              		.cfi_startproc
 165              		@ args = 0, pretend = 0, frame = 0
 166              		@ frame_needed = 0, uses_anonymous_args = 0
 167 0000 10B5     		push	{r4, lr}
 168              		.cfi_def_cfa_offset 8
 169              		.cfi_offset 4, -8
 170              		.cfi_offset 14, -4
 171              	.LVL11:
ARM GAS  C:\Users\HENRYA~1\AppData\Local\Temp\ccvNdTvf.s 			page 11


  53:main.c        ****     r=r*0.35;
 172              		.loc 1 53 0
 173 0002 FFF7FEFF 		bl	randd
 174              	.LVL12:
 175 0006 FFF7FEFF 		bl	__aeabi_d2f
 176              	.LVL13:
  54:main.c        ****     r=r+0.65;
 177              		.loc 1 54 0
 178 000a FFF7FEFF 		bl	__aeabi_f2d
 179              	.LVL14:
 180 000e 084A     		ldr	r2, .L8
 181 0010 084B     		ldr	r3, .L8+4
 182 0012 FFF7FEFF 		bl	__aeabi_dmul
 183              	.LVL15:
 184 0016 FFF7FEFF 		bl	__aeabi_d2f
 185              	.LVL16:
  55:main.c        ****     return r;
 186              		.loc 1 55 0
 187 001a FFF7FEFF 		bl	__aeabi_f2d
 188              	.LVL17:
 189 001e 064A     		ldr	r2, .L8+8
 190 0020 064B     		ldr	r3, .L8+12
 191 0022 FFF7FEFF 		bl	__aeabi_dadd
 192              	.LVL18:
 193 0026 FFF7FEFF 		bl	__aeabi_d2f
 194              	.LVL19:
  56:main.c        **** }
 195              		.loc 1 56 0
 196 002a FFF7FEFF 		bl	__aeabi_f2d
 197              	.LVL20:
  57:main.c        **** 
 198              		.loc 1 57 0
 199              		@ sp needed
 200 002e 10BD     		pop	{r4, pc}
 201              	.L9:
 202              		.align	2
 203              	.L8:
 204 0030 66666666 		.word	1717986918
 205 0034 6666D63F 		.word	1071015526
 206 0038 CDCCCCCC 		.word	-858993459
 207 003c CCCCE43F 		.word	1071959244
 208              		.cfi_endproc
 209              	.LFE40:
 210              		.size	random_Offset, .-random_Offset
 211              		.section	.text.movimiento,"ax",%progbits
 212              		.align	2
 213              		.global	movimiento
 214              		.code	16
 215              		.thumb_func
 216              		.type	movimiento, %function
 217              	movimiento:
 218              	.LFB41:
  59:main.c        ****     char byteh,bytel;
 219              		.loc 1 59 0
 220              		.cfi_startproc
 221              		@ args = 0, pretend = 0, frame = 0
 222              		@ frame_needed = 0, uses_anonymous_args = 0
ARM GAS  C:\Users\HENRYA~1\AppData\Local\Temp\ccvNdTvf.s 			page 12


 223              	.LVL21:
 224 0000 10B5     		push	{r4, lr}
 225              		.cfi_def_cfa_offset 8
 226              		.cfi_offset 4, -8
 227              		.cfi_offset 14, -4
  61:main.c        ****     bytel=mov;
 228              		.loc 1 61 0
 229 0002 0A12     		asrs	r2, r1, #8
 230              	.LVL22:
  63:main.c        ****     dato_enviado[1]=dirr ;//dir
 231              		.loc 1 63 0
 232 0004 074B     		ldr	r3, .L11
 233 0006 7F24     		movs	r4, #127
 234 0008 1C70     		strb	r4, [r3]
  64:main.c        ****     dato_enviado[2]=ESCRITURA ;//operacion
 235              		.loc 1 64 0
 236 000a 5870     		strb	r0, [r3, #1]
  65:main.c        ****     dato_enviado[3]=MOTOR;//lugar
 237              		.loc 1 65 0
 238 000c 0220     		movs	r0, #2
 239              	.LVL23:
 240 000e 9870     		strb	r0, [r3, #2]
  66:main.c        ****     dato_enviado[4]= byteh ;  //dato
 241              		.loc 1 66 0
 242 0010 0130     		adds	r0, r0, #1
 243 0012 D870     		strb	r0, [r3, #3]
  67:main.c        ****     dato_enviado[5]= bytel ;  //dato
 244              		.loc 1 67 0
 245 0014 1A71     		strb	r2, [r3, #4]
  68:main.c        ****     CAN_SendMsg0(); 
 246              		.loc 1 68 0
 247 0016 5971     		strb	r1, [r3, #5]
  69:main.c        ****     CyDelay(25);    
 248              		.loc 1 69 0
 249 0018 FFF7FEFF 		bl	CAN_SendMsg0
 250              	.LVL24:
  70:main.c        **** }
 251              		.loc 1 70 0
 252 001c 1920     		movs	r0, #25
 253 001e FFF7FEFF 		bl	CyDelay
 254              	.LVL25:
  71:main.c        **** 
 255              		.loc 1 71 0
 256              		@ sp needed
 257 0022 10BD     		pop	{r4, pc}
 258              	.L12:
 259              		.align	2
 260              	.L11:
 261 0024 00000000 		.word	dato_enviado
 262              		.cfi_endproc
 263              	.LFE41:
 264              		.size	movimiento, .-movimiento
 265              		.section	.text.Send_Angle,"ax",%progbits
 266              		.align	2
 267              		.global	Send_Angle
 268              		.code	16
 269              		.thumb_func
ARM GAS  C:\Users\HENRYA~1\AppData\Local\Temp\ccvNdTvf.s 			page 13


 270              		.type	Send_Angle, %function
 271              	Send_Angle:
 272              	.LFB42:
  73:main.c        ****     int8 datoL=datas;
 273              		.loc 1 73 0
 274              		.cfi_startproc
 275              		@ args = 0, pretend = 0, frame = 0
 276              		@ frame_needed = 0, uses_anonymous_args = 0
 277              	.LVL26:
 278 0000 10B5     		push	{r4, lr}
 279              		.cfi_def_cfa_offset 8
 280              		.cfi_offset 4, -8
 281              		.cfi_offset 14, -4
 282              	.LVL27:
  76:main.c        ****     dato_enviado[1]=Conta3;//dir
 283              		.loc 1 76 0
 284 0002 094B     		ldr	r3, .L14
 285 0004 8022     		movs	r2, #128
 286 0006 1A70     		strb	r2, [r3]
  77:main.c        ****     dato_enviado[2]=Conta3;//dir
 287              		.loc 1 77 0
 288 0008 C9B2     		uxtb	r1, r1
 289              	.LVL28:
 290 000a 5970     		strb	r1, [r3, #1]
  78:main.c        ****     dato_enviado[3]=ANGLE;
 291              		.loc 1 78 0
 292 000c 9970     		strb	r1, [r3, #2]
  79:main.c        ****     dato_enviado[4]=0;//lugar
 293              		.loc 1 79 0
 294 000e 653A     		subs	r2, r2, #101
 295 0010 DA70     		strb	r2, [r3, #3]
  80:main.c        ****     dato_enviado[5]=0;  //dato... en este caso direcion para asignar
 296              		.loc 1 80 0
 297 0012 0022     		movs	r2, #0
 298 0014 1A71     		strb	r2, [r3, #4]
  81:main.c        ****     dato_enviado[6]=0;
 299              		.loc 1 81 0
 300 0016 5A71     		strb	r2, [r3, #5]
  82:main.c        ****     dato_enviado[7]=Conta3;
 301              		.loc 1 82 0
 302 0018 9A71     		strb	r2, [r3, #6]
  83:main.c        ****     CAN_SendMsg0(); 
 303              		.loc 1 83 0
 304 001a D971     		strb	r1, [r3, #7]
  84:main.c        ****     CyDelay(50);
 305              		.loc 1 84 0
 306 001c FFF7FEFF 		bl	CAN_SendMsg0
 307              	.LVL29:
  85:main.c        **** }
 308              		.loc 1 85 0
 309 0020 3220     		movs	r0, #50
 310 0022 FFF7FEFF 		bl	CyDelay
 311              	.LVL30:
  86:main.c        **** 
 312              		.loc 1 86 0
 313              		@ sp needed
 314 0026 10BD     		pop	{r4, pc}
ARM GAS  C:\Users\HENRYA~1\AppData\Local\Temp\ccvNdTvf.s 			page 14


 315              	.L15:
 316              		.align	2
 317              	.L14:
 318 0028 00000000 		.word	dato_enviado
 319              		.cfi_endproc
 320              	.LFE42:
 321              		.size	Send_Angle, .-Send_Angle
 322              		.global	__aeabi_fmul
 323              		.global	__aeabi_f2iz
 324              		.global	__aeabi_fcmplt
 325              		.section	.text.Enviar_Parametros,"ax",%progbits
 326              		.align	2
 327              		.global	Enviar_Parametros
 328              		.code	16
 329              		.thumb_func
 330              		.type	Enviar_Parametros, %function
 331              	Enviar_Parametros:
 332              	.LFB43:
  88:main.c        ****     //Convertir el Valor a entero para ser enviado
 333              		.loc 1 88 0
 334              		.cfi_startproc
 335              		@ args = 0, pretend = 0, frame = 16
 336              		@ frame_needed = 0, uses_anonymous_args = 0
 337              	.LVL31:
 338 0000 F0B5     		push	{r4, r5, r6, r7, lr}
 339              		.cfi_def_cfa_offset 20
 340              		.cfi_offset 4, -20
 341              		.cfi_offset 5, -16
 342              		.cfi_offset 6, -12
 343              		.cfi_offset 7, -8
 344              		.cfi_offset 14, -4
 345 0002 85B0     		sub	sp, sp, #20
 346              		.cfi_def_cfa_offset 40
 347 0004 0190     		str	r0, [sp, #4]
 348 0006 0291     		str	r1, [sp, #8]
 349 0008 0392     		str	r2, [sp, #12]
 350 000a 1F00     		movs	r7, r3
  90:main.c        ****     int Phase_env=(int)fabs(Phase*10000);
 351              		.loc 1 90 0
 352 000c 2749     		ldr	r1, .L26
 353              	.LVL32:
 354 000e FFF7FEFF 		bl	__aeabi_fmul
 355              	.LVL33:
 356 0012 4000     		lsls	r0, r0, #1
 357 0014 4008     		lsrs	r0, r0, #1
 358 0016 FFF7FEFF 		bl	__aeabi_f2iz
 359              	.LVL34:
 360 001a 0600     		movs	r6, r0
 361              	.LVL35:
  91:main.c        ****     int Offset_env=(int)fabs(Offset*10000);
 362              		.loc 1 91 0
 363 001c 2349     		ldr	r1, .L26
 364 001e 0298     		ldr	r0, [sp, #8]
 365              	.LVL36:
 366 0020 FFF7FEFF 		bl	__aeabi_fmul
 367              	.LVL37:
 368 0024 4000     		lsls	r0, r0, #1
ARM GAS  C:\Users\HENRYA~1\AppData\Local\Temp\ccvNdTvf.s 			page 15


 369 0026 4008     		lsrs	r0, r0, #1
 370 0028 FFF7FEFF 		bl	__aeabi_f2iz
 371              	.LVL38:
 372 002c 0500     		movs	r5, r0
 373              	.LVL39:
  92:main.c        ****     //Enviar datos
 374              		.loc 1 92 0
 375 002e 1F49     		ldr	r1, .L26
 376 0030 0398     		ldr	r0, [sp, #12]
 377              	.LVL40:
 378 0032 FFF7FEFF 		bl	__aeabi_fmul
 379              	.LVL41:
 380 0036 4000     		lsls	r0, r0, #1
 381 0038 4008     		lsrs	r0, r0, #1
 382 003a FFF7FEFF 		bl	__aeabi_f2iz
 383              	.LVL42:
 384 003e 0400     		movs	r4, r0
 385              	.LVL43:
  94:main.c        ****     dato_enviado_1[1]=Orientacion;
 386              		.loc 1 94 0
 387 0040 1B4B     		ldr	r3, .L26+4
 388 0042 8122     		movs	r2, #129
 389 0044 1A70     		strb	r2, [r3]
  95:main.c        ****     //Convertir Amplitud
 390              		.loc 1 95 0
 391 0046 5F70     		strb	r7, [r3, #1]
  97:main.c        ****     uint8 datoH=Amp_env>>8;
 392              		.loc 1 97 0
 393 0048 F7B2     		uxtb	r7, r6
 394              	.LVL44:
  98:main.c        ****     uint8 Aux=0;
 395              		.loc 1 98 0
 396 004a 3612     		asrs	r6, r6, #8
 397              	.LVL45:
 398 004c F6B2     		uxtb	r6, r6
 399              	.LVL46:
 100:main.c        ****         Aux=(1<<7);
 400              		.loc 1 100 0
 401 004e 0021     		movs	r1, #0
 402 0050 0198     		ldr	r0, [sp, #4]
 403              	.LVL47:
 404 0052 FFF7FEFF 		bl	__aeabi_fcmplt
 405              	.LVL48:
 406 0056 0028     		cmp	r0, #0
 407 0058 01D0     		beq	.L17
 408              	.LVL49:
 102:main.c        ****     }
 409              		.loc 1 102 0
 410 005a 803E     		subs	r6, r6, #128
 411              	.LVL50:
 412 005c F6B2     		uxtb	r6, r6
 413              	.LVL51:
 414              	.L17:
 108:main.c        ****     dato_enviado_1[3]=datoH;
 415              		.loc 1 108 0
 416 005e 144B     		ldr	r3, .L26+4
 417 0060 9F70     		strb	r7, [r3, #2]
ARM GAS  C:\Users\HENRYA~1\AppData\Local\Temp\ccvNdTvf.s 			page 16


 109:main.c        ****     //Convertir Fase
 418              		.loc 1 109 0
 419 0062 DE70     		strb	r6, [r3, #3]
 111:main.c        ****     datoH=Phase_env>>8;
 420              		.loc 1 111 0
 421 0064 EEB2     		uxtb	r6, r5
 422              	.LVL52:
 112:main.c        ****     if(Phase<0.0){
 423              		.loc 1 112 0
 424 0066 2D12     		asrs	r5, r5, #8
 425              	.LVL53:
 426 0068 EDB2     		uxtb	r5, r5
 427              	.LVL54:
 113:main.c        ****         Aux=(1<<7);
 428              		.loc 1 113 0
 429 006a 0021     		movs	r1, #0
 430 006c 0298     		ldr	r0, [sp, #8]
 431 006e FFF7FEFF 		bl	__aeabi_fcmplt
 432              	.LVL55:
 433 0072 0028     		cmp	r0, #0
 434 0074 01D0     		beq	.L19
 435              	.LVL56:
 115:main.c        ****     }
 436              		.loc 1 115 0
 437 0076 803D     		subs	r5, r5, #128
 438              	.LVL57:
 439 0078 EDB2     		uxtb	r5, r5
 440              	.LVL58:
 441              	.L19:
 121:main.c        ****     dato_enviado_1[5]=datoH;
 442              		.loc 1 121 0
 443 007a 0D4B     		ldr	r3, .L26+4
 444 007c 1E71     		strb	r6, [r3, #4]
 122:main.c        ****     //Convertir Offset
 445              		.loc 1 122 0
 446 007e 5D71     		strb	r5, [r3, #5]
 124:main.c        ****     datoH=Offset_env>>8;
 447              		.loc 1 124 0
 448 0080 E5B2     		uxtb	r5, r4
 449              	.LVL59:
 125:main.c        ****     if(Offset<0.0){
 450              		.loc 1 125 0
 451 0082 2412     		asrs	r4, r4, #8
 452              	.LVL60:
 453 0084 E4B2     		uxtb	r4, r4
 454              	.LVL61:
 126:main.c        ****         Aux=(1<<7);
 455              		.loc 1 126 0
 456 0086 0021     		movs	r1, #0
 457 0088 0398     		ldr	r0, [sp, #12]
 458 008a FFF7FEFF 		bl	__aeabi_fcmplt
 459              	.LVL62:
 460 008e 0028     		cmp	r0, #0
 461 0090 01D0     		beq	.L21
 462              	.LVL63:
 128:main.c        ****     }
 463              		.loc 1 128 0
ARM GAS  C:\Users\HENRYA~1\AppData\Local\Temp\ccvNdTvf.s 			page 17


 464 0092 803C     		subs	r4, r4, #128
 465              	.LVL64:
 466 0094 E4B2     		uxtb	r4, r4
 467              	.LVL65:
 468              	.L21:
 134:main.c        ****     dato_enviado_1[7]=datoH;    
 469              		.loc 1 134 0
 470 0096 064B     		ldr	r3, .L26+4
 471 0098 9D71     		strb	r5, [r3, #6]
 135:main.c        ****     CAN_SendMsg1();
 472              		.loc 1 135 0
 473 009a DC71     		strb	r4, [r3, #7]
 136:main.c        ****     CyDelay(25);
 474              		.loc 1 136 0
 475 009c FFF7FEFF 		bl	CAN_SendMsg1
 476              	.LVL66:
 137:main.c        **** }
 477              		.loc 1 137 0
 478 00a0 1920     		movs	r0, #25
 479 00a2 FFF7FEFF 		bl	CyDelay
 480              	.LVL67:
 138:main.c        **** 
 481              		.loc 1 138 0
 482 00a6 05B0     		add	sp, sp, #20
 483              		@ sp needed
 484              	.LVL68:
 485              	.LVL69:
 486 00a8 F0BD     		pop	{r4, r5, r6, r7, pc}
 487              	.L27:
 488 00aa C046     		.align	2
 489              	.L26:
 490 00ac 00401C46 		.word	1176256512
 491 00b0 00000000 		.word	dato_enviado_1
 492              		.cfi_endproc
 493              	.LFE43:
 494              		.size	Enviar_Parametros, .-Enviar_Parametros
 495              		.section	.text.Recibe_mail_0,"ax",%progbits
 496              		.align	2
 497              		.global	Recibe_mail_0
 498              		.code	16
 499              		.thumb_func
 500              		.type	Recibe_mail_0, %function
 501              	Recibe_mail_0:
 502              	.LFB44:
 140:main.c        **** if(mailbox0[0]==VER){
 503              		.loc 1 140 0
 504              		.cfi_startproc
 505              		@ args = 0, pretend = 0, frame = 0
 506              		@ frame_needed = 0, uses_anonymous_args = 0
 507 0000 10B5     		push	{r4, lr}
 508              		.cfi_def_cfa_offset 8
 509              		.cfi_offset 4, -8
 510              		.cfi_offset 14, -4
 141:main.c        ****             switch(mailbox0[2]){
 511              		.loc 1 141 0
 512 0002 174B     		ldr	r3, .L34
 513 0004 1B78     		ldrb	r3, [r3]
ARM GAS  C:\Users\HENRYA~1\AppData\Local\Temp\ccvNdTvf.s 			page 18


 514 0006 7F2B     		cmp	r3, #127
 515 0008 0BD1     		bne	.L29
 142:main.c        ****             ///////////////////////////////////////////////////////
 516              		.loc 1 142 0
 517 000a 154A     		ldr	r2, .L34
 518 000c 9278     		ldrb	r2, [r2, #2]
 519 000e 022A     		cmp	r2, #2
 520 0010 07D1     		bne	.L29
 145:main.c        ****                     case CANTIDAD_MOD: 
 521              		.loc 1 145 0
 522 0012 134A     		ldr	r2, .L34
 523 0014 D278     		ldrb	r2, [r2, #3]
 524 0016 2B2A     		cmp	r2, #43
 525 0018 03D1     		bne	.L29
 147:main.c        ****                     break;
 526              		.loc 1 147 0
 527 001a 114A     		ldr	r2, .L34
 528 001c 1179     		ldrb	r1, [r2, #4]
 529 001e 114A     		ldr	r2, .L34+4
 530 0020 5160     		str	r1, [r2, #4]
 531              	.L29:
 156:main.c        ****                 switch(mailbox0[3]){
 532              		.loc 1 156 0
 533 0022 802B     		cmp	r3, #128
 534 0024 1AD1     		bne	.L28
 157:main.c        ****                 ///////////////////////////////////////////////////////
 535              		.loc 1 157 0
 536 0026 0E4B     		ldr	r3, .L34
 537 0028 DB78     		ldrb	r3, [r3, #3]
 538 002a 1B2B     		cmp	r3, #27
 539 002c 16D1     		bne	.L28
 540              	.LBB2:
 160:main.c        ****                     if(Contador>=cantidadM){
 541              		.loc 1 160 0
 542 002e 0C4B     		ldr	r3, .L34
 543 0030 DA79     		ldrb	r2, [r3, #7]
 544              	.LVL70:
 161:main.c        ****                         Enviar_Parametros(amplitud,fase,offset,V);
 545              		.loc 1 161 0
 546 0032 0C4B     		ldr	r3, .L34+4
 547 0034 5B68     		ldr	r3, [r3, #4]
 548 0036 9A42     		cmp	r2, r3
 549 0038 10DB     		blt	.L28
 162:main.c        ****                         CyDelay(10);
 550              		.loc 1 162 0
 551 003a 0B4B     		ldr	r3, .L34+8
 552 003c 1A68     		ldr	r2, [r3]
 553              	.LVL71:
 554 003e 094C     		ldr	r4, .L34+4
 555 0040 2123     		movs	r3, #33
 556 0042 A168     		ldr	r1, [r4, #8]
 557 0044 E068     		ldr	r0, [r4, #12]
 558 0046 FFF7FEFF 		bl	Enviar_Parametros
 559              	.LVL72:
 163:main.c        ****                         Enviar_Parametros(0.0,fase,0.833,H);  
 560              		.loc 1 163 0
 561 004a 0A20     		movs	r0, #10
ARM GAS  C:\Users\HENRYA~1\AppData\Local\Temp\ccvNdTvf.s 			page 19


 562 004c FFF7FEFF 		bl	CyDelay
 563              	.LVL73:
 164:main.c        ****                     } 
 564              		.loc 1 164 0
 565 0050 A168     		ldr	r1, [r4, #8]
 566 0052 2023     		movs	r3, #32
 567 0054 054A     		ldr	r2, .L34+12
 568 0056 0020     		movs	r0, #0
 569 0058 FFF7FEFF 		bl	Enviar_Parametros
 570              	.LVL74:
 571              	.L28:
 572              	.LBE2:
 169:main.c        **** 
 573              		.loc 1 169 0
 574              		@ sp needed
 575 005c 10BD     		pop	{r4, pc}
 576              	.L35:
 577 005e C046     		.align	2
 578              	.L34:
 579 0060 00000000 		.word	mailbox0
 580 0064 00000000 		.word	.LANCHOR0
 581 0068 00000000 		.word	.LANCHOR1
 582 006c 7D3F553F 		.word	1062551421
 583              		.cfi_endproc
 584              	.LFE44:
 585              		.size	Recibe_mail_0, .-Recibe_mail_0
 586              		.section	.text.Recibe_Mail_2,"ax",%progbits
 587              		.align	2
 588              		.global	Recibe_Mail_2
 589              		.code	16
 590              		.thumb_func
 591              		.type	Recibe_Mail_2, %function
 592              	Recibe_Mail_2:
 593              	.LFB45:
 171:main.c        ****     if(mailbox2[0]==SENSORES){
 594              		.loc 1 171 0
 595              		.cfi_startproc
 596              		@ args = 0, pretend = 0, frame = 0
 597              		@ frame_needed = 0, uses_anonymous_args = 0
 598              		@ link register save eliminated.
 172:main.c        ****         //Mailbox2[1] Derecha
 599              		.loc 1 172 0
 600 0000 3B4B     		ldr	r3, .L46
 601 0002 1B78     		ldrb	r3, [r3]
 602 0004 822B     		cmp	r3, #130
 603 0006 72D1     		bne	.L36
 176:main.c        ****         else if(mailbox2[1]==0&&mailbox2[2]==0&&mailbox2[3]==1) {Cantidad_Sensores=1;}   //Izquierd
 604              		.loc 1 176 0
 605 0008 394B     		ldr	r3, .L46
 606 000a 5B78     		ldrb	r3, [r3, #1]
 607 000c 002B     		cmp	r3, #0
 608 000e 0AD1     		bne	.L38
 176:main.c        ****         else if(mailbox2[1]==0&&mailbox2[2]==0&&mailbox2[3]==1) {Cantidad_Sensores=1;}   //Izquierd
 609              		.loc 1 176 0 is_stmt 0 discriminator 1
 610 0010 374A     		ldr	r2, .L46
 611 0012 9278     		ldrb	r2, [r2, #2]
 612 0014 002A     		cmp	r2, #0
ARM GAS  C:\Users\HENRYA~1\AppData\Local\Temp\ccvNdTvf.s 			page 20


 613 0016 06D1     		bne	.L38
 176:main.c        ****         else if(mailbox2[1]==0&&mailbox2[2]==0&&mailbox2[3]==1) {Cantidad_Sensores=1;}   //Izquierd
 614              		.loc 1 176 0 discriminator 2
 615 0018 354A     		ldr	r2, .L46
 616 001a D278     		ldrb	r2, [r2, #3]
 617 001c 002A     		cmp	r2, #0
 618 001e 02D1     		bne	.L38
 176:main.c        ****         else if(mailbox2[1]==0&&mailbox2[2]==0&&mailbox2[3]==1) {Cantidad_Sensores=1;}   //Izquierd
 619              		.loc 1 176 0 discriminator 3
 620 0020 344B     		ldr	r3, .L46+4
 621 0022 1A61     		str	r2, [r3, #16]
 622 0024 63E0     		b	.L36
 623              	.L38:
 177:main.c        ****         else if(mailbox2[1]==0&&mailbox2[2]==1&&mailbox2[3]==0) {Cantidad_Sensores=2;}   //Frontal
 624              		.loc 1 177 0 is_stmt 1
 625 0026 002B     		cmp	r3, #0
 626 0028 0AD1     		bne	.L39
 177:main.c        ****         else if(mailbox2[1]==0&&mailbox2[2]==1&&mailbox2[3]==0) {Cantidad_Sensores=2;}   //Frontal
 627              		.loc 1 177 0 is_stmt 0 discriminator 1
 628 002a 314A     		ldr	r2, .L46
 629 002c 9278     		ldrb	r2, [r2, #2]
 630 002e 002A     		cmp	r2, #0
 631 0030 06D1     		bne	.L39
 177:main.c        ****         else if(mailbox2[1]==0&&mailbox2[2]==1&&mailbox2[3]==0) {Cantidad_Sensores=2;}   //Frontal
 632              		.loc 1 177 0 discriminator 2
 633 0032 2F4A     		ldr	r2, .L46
 634 0034 D278     		ldrb	r2, [r2, #3]
 635 0036 012A     		cmp	r2, #1
 636 0038 02D1     		bne	.L39
 177:main.c        ****         else if(mailbox2[1]==0&&mailbox2[2]==1&&mailbox2[3]==0) {Cantidad_Sensores=2;}   //Frontal
 637              		.loc 1 177 0 discriminator 3
 638 003a 2E4B     		ldr	r3, .L46+4
 639 003c 1A61     		str	r2, [r3, #16]
 640 003e 56E0     		b	.L36
 641              	.L39:
 178:main.c        ****         else if(mailbox2[1]==0&&mailbox2[2]==1&&mailbox2[3]==1) {Cantidad_Sensores=3;}   //Frontal 
 642              		.loc 1 178 0 is_stmt 1
 643 0040 002B     		cmp	r3, #0
 644 0042 0BD1     		bne	.L40
 178:main.c        ****         else if(mailbox2[1]==0&&mailbox2[2]==1&&mailbox2[3]==1) {Cantidad_Sensores=3;}   //Frontal 
 645              		.loc 1 178 0 is_stmt 0 discriminator 1
 646 0044 2A4A     		ldr	r2, .L46
 647 0046 9278     		ldrb	r2, [r2, #2]
 648 0048 012A     		cmp	r2, #1
 649 004a 07D1     		bne	.L40
 178:main.c        ****         else if(mailbox2[1]==0&&mailbox2[2]==1&&mailbox2[3]==1) {Cantidad_Sensores=3;}   //Frontal 
 650              		.loc 1 178 0 discriminator 2
 651 004c 284A     		ldr	r2, .L46
 652 004e D278     		ldrb	r2, [r2, #3]
 653 0050 002A     		cmp	r2, #0
 654 0052 03D1     		bne	.L40
 178:main.c        ****         else if(mailbox2[1]==0&&mailbox2[2]==1&&mailbox2[3]==1) {Cantidad_Sensores=3;}   //Frontal 
 655              		.loc 1 178 0 discriminator 3
 656 0054 0232     		adds	r2, r2, #2
 657 0056 274B     		ldr	r3, .L46+4
 658 0058 1A61     		str	r2, [r3, #16]
 659 005a 48E0     		b	.L36
ARM GAS  C:\Users\HENRYA~1\AppData\Local\Temp\ccvNdTvf.s 			page 21


 660              	.L40:
 179:main.c        ****         else if(mailbox2[1]==1&&mailbox2[2]==0&&mailbox2[3]==0) {Cantidad_Sensores=4;}   //Derecha
 661              		.loc 1 179 0 is_stmt 1
 662 005c 002B     		cmp	r3, #0
 663 005e 0BD1     		bne	.L41
 179:main.c        ****         else if(mailbox2[1]==1&&mailbox2[2]==0&&mailbox2[3]==0) {Cantidad_Sensores=4;}   //Derecha
 664              		.loc 1 179 0 is_stmt 0 discriminator 1
 665 0060 234A     		ldr	r2, .L46
 666 0062 9278     		ldrb	r2, [r2, #2]
 667 0064 012A     		cmp	r2, #1
 668 0066 07D1     		bne	.L41
 179:main.c        ****         else if(mailbox2[1]==1&&mailbox2[2]==0&&mailbox2[3]==0) {Cantidad_Sensores=4;}   //Derecha
 669              		.loc 1 179 0 discriminator 2
 670 0068 214A     		ldr	r2, .L46
 671 006a D278     		ldrb	r2, [r2, #3]
 672 006c 012A     		cmp	r2, #1
 673 006e 03D1     		bne	.L41
 179:main.c        ****         else if(mailbox2[1]==1&&mailbox2[2]==0&&mailbox2[3]==0) {Cantidad_Sensores=4;}   //Derecha
 674              		.loc 1 179 0 discriminator 3
 675 0070 0232     		adds	r2, r2, #2
 676 0072 204B     		ldr	r3, .L46+4
 677 0074 1A61     		str	r2, [r3, #16]
 678 0076 3AE0     		b	.L36
 679              	.L41:
 180:main.c        ****         else if(mailbox2[1]==1&&mailbox2[2]==0&&mailbox2[3]==1) {Cantidad_Sensores=5;}   //Derecha 
 680              		.loc 1 180 0 is_stmt 1
 681 0078 012B     		cmp	r3, #1
 682 007a 0BD1     		bne	.L42
 180:main.c        ****         else if(mailbox2[1]==1&&mailbox2[2]==0&&mailbox2[3]==1) {Cantidad_Sensores=5;}   //Derecha 
 683              		.loc 1 180 0 is_stmt 0 discriminator 1
 684 007c 1C4A     		ldr	r2, .L46
 685 007e 9278     		ldrb	r2, [r2, #2]
 686 0080 002A     		cmp	r2, #0
 687 0082 07D1     		bne	.L42
 180:main.c        ****         else if(mailbox2[1]==1&&mailbox2[2]==0&&mailbox2[3]==1) {Cantidad_Sensores=5;}   //Derecha 
 688              		.loc 1 180 0 discriminator 2
 689 0084 1A4A     		ldr	r2, .L46
 690 0086 D278     		ldrb	r2, [r2, #3]
 691 0088 002A     		cmp	r2, #0
 692 008a 03D1     		bne	.L42
 180:main.c        ****         else if(mailbox2[1]==1&&mailbox2[2]==0&&mailbox2[3]==1) {Cantidad_Sensores=5;}   //Derecha 
 693              		.loc 1 180 0 discriminator 3
 694 008c 0432     		adds	r2, r2, #4
 695 008e 194B     		ldr	r3, .L46+4
 696 0090 1A61     		str	r2, [r3, #16]
 697 0092 2CE0     		b	.L36
 698              	.L42:
 181:main.c        ****         else if(mailbox2[1]==1&&mailbox2[2]==1&&mailbox2[3]==0) {Cantidad_Sensores=6;}   //Frontal 
 699              		.loc 1 181 0 is_stmt 1
 700 0094 012B     		cmp	r3, #1
 701 0096 0BD1     		bne	.L43
 181:main.c        ****         else if(mailbox2[1]==1&&mailbox2[2]==1&&mailbox2[3]==0) {Cantidad_Sensores=6;}   //Frontal 
 702              		.loc 1 181 0 is_stmt 0 discriminator 1
 703 0098 154A     		ldr	r2, .L46
 704 009a 9278     		ldrb	r2, [r2, #2]
 705 009c 002A     		cmp	r2, #0
 706 009e 07D1     		bne	.L43
ARM GAS  C:\Users\HENRYA~1\AppData\Local\Temp\ccvNdTvf.s 			page 22


 181:main.c        ****         else if(mailbox2[1]==1&&mailbox2[2]==1&&mailbox2[3]==0) {Cantidad_Sensores=6;}   //Frontal 
 707              		.loc 1 181 0 discriminator 2
 708 00a0 134A     		ldr	r2, .L46
 709 00a2 D278     		ldrb	r2, [r2, #3]
 710 00a4 012A     		cmp	r2, #1
 711 00a6 03D1     		bne	.L43
 181:main.c        ****         else if(mailbox2[1]==1&&mailbox2[2]==1&&mailbox2[3]==0) {Cantidad_Sensores=6;}   //Frontal 
 712              		.loc 1 181 0 discriminator 3
 713 00a8 0432     		adds	r2, r2, #4
 714 00aa 124B     		ldr	r3, .L46+4
 715 00ac 1A61     		str	r2, [r3, #16]
 716 00ae 1EE0     		b	.L36
 717              	.L43:
 182:main.c        ****         else if(mailbox2[1]==1&&mailbox2[2]==1&&mailbox2[3]==1) {Cantidad_Sensores=7;}   //Todos
 718              		.loc 1 182 0 is_stmt 1
 719 00b0 012B     		cmp	r3, #1
 720 00b2 0BD1     		bne	.L44
 182:main.c        ****         else if(mailbox2[1]==1&&mailbox2[2]==1&&mailbox2[3]==1) {Cantidad_Sensores=7;}   //Todos
 721              		.loc 1 182 0 is_stmt 0 discriminator 1
 722 00b4 0E4A     		ldr	r2, .L46
 723 00b6 9278     		ldrb	r2, [r2, #2]
 724 00b8 012A     		cmp	r2, #1
 725 00ba 07D1     		bne	.L44
 182:main.c        ****         else if(mailbox2[1]==1&&mailbox2[2]==1&&mailbox2[3]==1) {Cantidad_Sensores=7;}   //Todos
 726              		.loc 1 182 0 discriminator 2
 727 00bc 0C4A     		ldr	r2, .L46
 728 00be D278     		ldrb	r2, [r2, #3]
 729 00c0 002A     		cmp	r2, #0
 730 00c2 03D1     		bne	.L44
 182:main.c        ****         else if(mailbox2[1]==1&&mailbox2[2]==1&&mailbox2[3]==1) {Cantidad_Sensores=7;}   //Todos
 731              		.loc 1 182 0 discriminator 3
 732 00c4 0632     		adds	r2, r2, #6
 733 00c6 0B4B     		ldr	r3, .L46+4
 734 00c8 1A61     		str	r2, [r3, #16]
 735 00ca 10E0     		b	.L36
 736              	.L44:
 183:main.c        ****         else                                                    {Cantidad_Sensores=0;}   //Normal
 737              		.loc 1 183 0 is_stmt 1
 738 00cc 012B     		cmp	r3, #1
 739 00ce 0BD1     		bne	.L45
 183:main.c        ****         else                                                    {Cantidad_Sensores=0;}   //Normal
 740              		.loc 1 183 0 is_stmt 0 discriminator 1
 741 00d0 074B     		ldr	r3, .L46
 742 00d2 9B78     		ldrb	r3, [r3, #2]
 743 00d4 012B     		cmp	r3, #1
 744 00d6 07D1     		bne	.L45
 183:main.c        ****         else                                                    {Cantidad_Sensores=0;}   //Normal
 745              		.loc 1 183 0 discriminator 2
 746 00d8 054B     		ldr	r3, .L46
 747 00da DB78     		ldrb	r3, [r3, #3]
 748 00dc 012B     		cmp	r3, #1
 749 00de 03D1     		bne	.L45
 183:main.c        ****         else                                                    {Cantidad_Sensores=0;}   //Normal
 750              		.loc 1 183 0 discriminator 3
 751 00e0 0722     		movs	r2, #7
 752 00e2 044B     		ldr	r3, .L46+4
 753 00e4 1A61     		str	r2, [r3, #16]
ARM GAS  C:\Users\HENRYA~1\AppData\Local\Temp\ccvNdTvf.s 			page 23


 754 00e6 02E0     		b	.L36
 755              	.L45:
 184:main.c        ****     }
 756              		.loc 1 184 0 is_stmt 1
 757 00e8 0022     		movs	r2, #0
 758 00ea 024B     		ldr	r3, .L46+4
 759 00ec 1A61     		str	r2, [r3, #16]
 760              	.L36:
 186:main.c        **** 
 761              		.loc 1 186 0
 762              		@ sp needed
 763 00ee 7047     		bx	lr
 764              	.L47:
 765              		.align	2
 766              	.L46:
 767 00f0 00000000 		.word	mailbox2
 768 00f4 00000000 		.word	.LANCHOR0
 769              		.cfi_endproc
 770              	.LFE45:
 771              		.size	Recibe_Mail_2, .-Recibe_Mail_2
 772              		.section	.text.interrutcan,"ax",%progbits
 773              		.align	2
 774              		.global	interrutcan
 775              		.code	16
 776              		.thumb_func
 777              		.type	interrutcan, %function
 778              	interrutcan:
 779              	.LFB46:
 188:main.c        ****     CAN_GlobalIntDisable();
 780              		.loc 1 188 0
 781              		.cfi_startproc
 782              		@ args = 0, pretend = 0, frame = 0
 783              		@ frame_needed = 0, uses_anonymous_args = 0
 784 0000 10B5     		push	{r4, lr}
 785              		.cfi_def_cfa_offset 8
 786              		.cfi_offset 4, -8
 787              		.cfi_offset 14, -4
 189:main.c        ****     CAN_MsgRXIsr();  
 788              		.loc 1 189 0
 789 0002 FFF7FEFF 		bl	CAN_GlobalIntDisable
 790              	.LVL75:
 190:main.c        ****     Recibe_mail_0();
 791              		.loc 1 190 0
 792 0006 FFF7FEFF 		bl	CAN_MsgRXIsr
 793              	.LVL76:
 191:main.c        ****     Recibe_Mail_2();
 794              		.loc 1 191 0
 795 000a FFF7FEFF 		bl	Recibe_mail_0
 796              	.LVL77:
 192:main.c        ****     CAN_GlobalIntEnable();
 797              		.loc 1 192 0
 798 000e FFF7FEFF 		bl	Recibe_Mail_2
 799              	.LVL78:
 193:main.c        **** }
 800              		.loc 1 193 0
 801 0012 FFF7FEFF 		bl	CAN_GlobalIntEnable
 802              	.LVL79:
ARM GAS  C:\Users\HENRYA~1\AppData\Local\Temp\ccvNdTvf.s 			page 24


 194:main.c        **** 
 803              		.loc 1 194 0
 804              		@ sp needed
 805 0016 10BD     		pop	{r4, pc}
 806              		.cfi_endproc
 807              	.LFE46:
 808              		.size	interrutcan, .-interrutcan
 809              		.global	__aeabi_ui2f
 810              		.global	__aeabi_fcmpgt
 811              		.section	.text.Hill,"ax",%progbits
 812              		.align	2
 813              		.global	Hill
 814              		.code	16
 815              		.thumb_func
 816              		.type	Hill, %function
 817              	Hill:
 818              	.LFB47:
 196:main.c        ****     if (flag==1){
 819              		.loc 1 196 0
 820              		.cfi_startproc
 821              		@ args = 0, pretend = 0, frame = 0
 822              		@ frame_needed = 0, uses_anonymous_args = 0
 823 0000 10B5     		push	{r4, lr}
 824              		.cfi_def_cfa_offset 8
 825              		.cfi_offset 4, -8
 826              		.cfi_offset 14, -4
 197:main.c        ****         ampli_aux=amplitud;
 827              		.loc 1 197 0
 828 0002 354B     		ldr	r3, .L60
 829 0004 5B69     		ldr	r3, [r3, #20]
 830 0006 012B     		cmp	r3, #1
 831 0008 0FD1     		bne	.L50
 198:main.c        ****         off_aux=offset;
 832              		.loc 1 198 0
 833 000a 334B     		ldr	r3, .L60
 834 000c DA68     		ldr	r2, [r3, #12]
 835 000e 9A61     		str	r2, [r3, #24]
 199:main.c        ****         pha_aux=fase;        
 836              		.loc 1 199 0
 837 0010 324A     		ldr	r2, .L60+4
 838 0012 1168     		ldr	r1, [r2]
 839 0014 5160     		str	r1, [r2, #4]
 200:main.c        ****         amplitud=0.0;
 840              		.loc 1 200 0
 841 0016 9968     		ldr	r1, [r3, #8]
 842 0018 D961     		str	r1, [r3, #28]
 201:main.c        ****         fase=0.0;
 843              		.loc 1 201 0
 844 001a 0021     		movs	r1, #0
 845 001c D960     		str	r1, [r3, #12]
 202:main.c        ****         offset=0.833;
 846              		.loc 1 202 0
 847 001e 9960     		str	r1, [r3, #8]
 203:main.c        ****         Max_Conta=20;
 848              		.loc 1 203 0
 849 0020 2F4B     		ldr	r3, .L60+8
 850 0022 1360     		str	r3, [r2]
ARM GAS  C:\Users\HENRYA~1\AppData\Local\Temp\ccvNdTvf.s 			page 25


 204:main.c        ****     }
 851              		.loc 1 204 0
 852 0024 1423     		movs	r3, #20
 853 0026 9360     		str	r3, [r2, #8]
 854 0028 55E0     		b	.L49
 855              	.L50:
 206:main.c        ****         L_anterior=dist;
 856              		.loc 1 206 0
 857 002a 022B     		cmp	r3, #2
 858 002c 1CD1     		bne	.L52
 207:main.c        ****         amplitud=random_amplitud();
 859              		.loc 1 207 0
 860 002e 2A4C     		ldr	r4, .L60
 861 0030 2078     		ldrb	r0, [r4]
 862 0032 FFF7FEFF 		bl	__aeabi_ui2f
 863              	.LVL80:
 864 0036 2062     		str	r0, [r4, #32]
 208:main.c        ****         fase=random_Fase();
 865              		.loc 1 208 0
 866 0038 FFF7FEFF 		bl	random_amplitud
 867              	.LVL81:
 868 003c FFF7FEFF 		bl	__aeabi_d2f
 869              	.LVL82:
 870 0040 E060     		str	r0, [r4, #12]
 209:main.c        ****         offset=random_Offset();
 871              		.loc 1 209 0
 872 0042 FFF7FEFF 		bl	random_Fase
 873              	.LVL83:
 874 0046 FFF7FEFF 		bl	__aeabi_d2f
 875              	.LVL84:
 876 004a A060     		str	r0, [r4, #8]
 210:main.c        ****         ampli_aux_2=amplitud;
 877              		.loc 1 210 0
 878 004c FFF7FEFF 		bl	random_Offset
 879              	.LVL85:
 880 0050 FFF7FEFF 		bl	__aeabi_d2f
 881              	.LVL86:
 882 0054 214B     		ldr	r3, .L60+4
 883 0056 1860     		str	r0, [r3]
 211:main.c        ****         off_aux_2=offset;
 884              		.loc 1 211 0
 885 0058 E268     		ldr	r2, [r4, #12]
 886 005a 6262     		str	r2, [r4, #36]
 212:main.c        ****         pha_aux_2=fase;         
 887              		.loc 1 212 0
 888 005c D860     		str	r0, [r3, #12]
 213:main.c        ****         Max_Conta=100;
 889              		.loc 1 213 0
 890 005e A268     		ldr	r2, [r4, #8]
 891 0060 A262     		str	r2, [r4, #40]
 214:main.c        ****     }
 892              		.loc 1 214 0
 893 0062 6422     		movs	r2, #100
 894 0064 9A60     		str	r2, [r3, #8]
 895 0066 36E0     		b	.L49
 896              	.L52:
 216:main.c        ****         amplitud=0.0;
ARM GAS  C:\Users\HENRYA~1\AppData\Local\Temp\ccvNdTvf.s 			page 26


 897              		.loc 1 216 0
 898 0068 032B     		cmp	r3, #3
 899 006a 09D1     		bne	.L53
 217:main.c        ****         fase=0.0;
 900              		.loc 1 217 0
 901 006c 1A4B     		ldr	r3, .L60
 902 006e 0022     		movs	r2, #0
 903 0070 DA60     		str	r2, [r3, #12]
 218:main.c        ****         offset=0.833;
 904              		.loc 1 218 0
 905 0072 9A60     		str	r2, [r3, #8]
 219:main.c        ****         Max_Conta=20;
 906              		.loc 1 219 0
 907 0074 194B     		ldr	r3, .L60+4
 908 0076 1A4A     		ldr	r2, .L60+8
 909 0078 1A60     		str	r2, [r3]
 220:main.c        ****     }    
 910              		.loc 1 220 0
 911 007a 1422     		movs	r2, #20
 912 007c 9A60     		str	r2, [r3, #8]
 913 007e 2AE0     		b	.L49
 914              	.L53:
 222:main.c        ****         L_actual=dist;
 915              		.loc 1 222 0
 916 0080 042B     		cmp	r3, #4
 917 0082 20D1     		bne	.L54
 223:main.c        ****         if(L_anterior<L_actual){
 918              		.loc 1 223 0
 919 0084 144C     		ldr	r4, .L60
 920 0086 2078     		ldrb	r0, [r4]
 921 0088 FFF7FEFF 		bl	__aeabi_ui2f
 922              	.LVL87:
 923 008c E062     		str	r0, [r4, #44]
 224:main.c        ****             amplitud=ampli_aux;
 924              		.loc 1 224 0
 925 008e 216A     		ldr	r1, [r4, #32]
 926 0090 FFF7FEFF 		bl	__aeabi_fcmpgt
 927              	.LVL88:
 928 0094 0028     		cmp	r0, #0
 929 0096 07D0     		beq	.L59
 225:main.c        ****             fase=pha_aux; 
 930              		.loc 1 225 0
 931 0098 A269     		ldr	r2, [r4, #24]
 932 009a E260     		str	r2, [r4, #12]
 226:main.c        ****             offset=off_aux;
 933              		.loc 1 226 0
 934 009c E269     		ldr	r2, [r4, #28]
 935 009e A260     		str	r2, [r4, #8]
 227:main.c        ****         }
 936              		.loc 1 227 0
 937 00a0 0E4B     		ldr	r3, .L60+4
 938 00a2 5A68     		ldr	r2, [r3, #4]
 939 00a4 1A60     		str	r2, [r3]
 940 00a6 07E0     		b	.L57
 941              	.L59:
 230:main.c        ****             fase=pha_aux_2; 
 942              		.loc 1 230 0
ARM GAS  C:\Users\HENRYA~1\AppData\Local\Temp\ccvNdTvf.s 			page 27


 943 00a8 0B4B     		ldr	r3, .L60
 944 00aa 5A6A     		ldr	r2, [r3, #36]
 945 00ac DA60     		str	r2, [r3, #12]
 231:main.c        ****             offset=off_aux_2;        
 946              		.loc 1 231 0
 947 00ae 9A6A     		ldr	r2, [r3, #40]
 948 00b0 9A60     		str	r2, [r3, #8]
 232:main.c        ****         }
 949              		.loc 1 232 0
 950 00b2 0A4B     		ldr	r3, .L60+4
 951 00b4 DA68     		ldr	r2, [r3, #12]
 952 00b6 1A60     		str	r2, [r3]
 953              	.L57:
 234:main.c        ****         Max_Conta=100;
 954              		.loc 1 234 0
 955 00b8 0022     		movs	r2, #0
 956 00ba 074B     		ldr	r3, .L60
 957 00bc 5A61     		str	r2, [r3, #20]
 235:main.c        ****     }
 958              		.loc 1 235 0
 959 00be 6432     		adds	r2, r2, #100
 960 00c0 064B     		ldr	r3, .L60+4
 961 00c2 9A60     		str	r2, [r3, #8]
 962 00c4 07E0     		b	.L49
 963              	.L54:
 237:main.c        **** }
 964              		.loc 1 237 0
 965 00c6 042B     		cmp	r3, #4
 966 00c8 05DD     		ble	.L49
 237:main.c        **** }
 967              		.loc 1 237 0 is_stmt 0 discriminator 1
 968 00ca 0022     		movs	r2, #0
 969 00cc 024B     		ldr	r3, .L60
 970 00ce 5A61     		str	r2, [r3, #20]
 971 00d0 0532     		adds	r2, r2, #5
 972 00d2 024B     		ldr	r3, .L60+4
 973 00d4 9A60     		str	r2, [r3, #8]
 974              	.L49:
 238:main.c        **** 
 975              		.loc 1 238 0 is_stmt 1
 976              		@ sp needed
 977 00d6 10BD     		pop	{r4, pc}
 978              	.L61:
 979              		.align	2
 980              	.L60:
 981 00d8 00000000 		.word	.LANCHOR0
 982 00dc 00000000 		.word	.LANCHOR1
 983 00e0 7D3F553F 		.word	1062551421
 984              		.cfi_endproc
 985              	.LFE47:
 986              		.size	Hill, .-Hill
 987              		.section	.text.Left_Move,"ax",%progbits
 988              		.align	2
 989              		.global	Left_Move
 990              		.code	16
 991              		.thumb_func
 992              		.type	Left_Move, %function
ARM GAS  C:\Users\HENRYA~1\AppData\Local\Temp\ccvNdTvf.s 			page 28


 993              	Left_Move:
 994              	.LFB48:
 240:main.c        ****     Send_Angle(0,200);
 995              		.loc 1 240 0
 996              		.cfi_startproc
 997              		@ args = 0, pretend = 0, frame = 0
 998              		@ frame_needed = 0, uses_anonymous_args = 0
 999 0000 70B5     		push	{r4, r5, r6, lr}
 1000              		.cfi_def_cfa_offset 16
 1001              		.cfi_offset 4, -16
 1002              		.cfi_offset 5, -12
 1003              		.cfi_offset 6, -8
 1004              		.cfi_offset 14, -4
 241:main.c        ****     int  i=0;
 1005              		.loc 1 241 0
 1006 0002 C821     		movs	r1, #200
 1007 0004 0020     		movs	r0, #0
 1008 0006 FFF7FEFF 		bl	Send_Angle
 1009              	.LVL89:
 244:main.c        ****         movimiento(i,512);
 1010              		.loc 1 244 0
 1011 000a 0024     		movs	r4, #0
 1012 000c 05E0     		b	.L63
 1013              	.LVL90:
 1014              	.L64:
 245:main.c        ****         }
 1015              		.loc 1 245 0 discriminator 3
 1016 000e 8021     		movs	r1, #128
 1017 0010 8900     		lsls	r1, r1, #2
 1018 0012 2000     		movs	r0, r4
 1019 0014 FFF7FEFF 		bl	movimiento
 1020              	.LVL91:
 244:main.c        ****         movimiento(i,512);
 1021              		.loc 1 244 0 discriminator 3
 1022 0018 0134     		adds	r4, r4, #1
 1023              	.LVL92:
 1024              	.L63:
 244:main.c        ****         movimiento(i,512);
 1025              		.loc 1 244 0 is_stmt 0 discriminator 1
 1026 001a 304B     		ldr	r3, .L73
 1027 001c 5B68     		ldr	r3, [r3, #4]
 1028 001e 9C42     		cmp	r4, r3
 1029 0020 F5DB     		blt	.L64
 247:main.c        ****     movimiento(cantidadM,675);//Ancla Trasera
 1030              		.loc 1 247 0 is_stmt 1
 1031 0022 FA24     		movs	r4, #250
 1032              	.LVL93:
 1033 0024 E400     		lsls	r4, r4, #3
 1034 0026 2000     		movs	r0, r4
 1035 0028 FFF7FEFF 		bl	CyDelay
 1036              	.LVL94:
 248:main.c        ****     CyDelay(2000);
 1037              		.loc 1 248 0
 1038 002c 2B4B     		ldr	r3, .L73
 1039 002e 5868     		ldr	r0, [r3, #4]
 1040 0030 2B49     		ldr	r1, .L73+4
 1041 0032 FFF7FEFF 		bl	movimiento
ARM GAS  C:\Users\HENRYA~1\AppData\Local\Temp\ccvNdTvf.s 			page 29


 1042              	.LVL95:
 249:main.c        ****     //Giro
 1043              		.loc 1 249 0
 1044 0036 2000     		movs	r0, r4
 1045 0038 FFF7FEFF 		bl	CyDelay
 1046              	.LVL96:
 251:main.c        ****         for(i=2;i<cantidadM;i=i+4){ 
 1047              		.loc 1 251 0
 1048 003c 0026     		movs	r6, #0
 1049 003e 35E0     		b	.L65
 1050              	.LVL97:
 1051              	.L66:
 253:main.c        ****             movimiento(i+1,750);
 1052              		.loc 1 253 0 discriminator 3
 1053 0040 2849     		ldr	r1, .L73+8
 1054 0042 2000     		movs	r0, r4
 1055 0044 FFF7FEFF 		bl	movimiento
 1056              	.LVL98:
 254:main.c        ****             }
 1057              		.loc 1 254 0 discriminator 3
 1058 0048 601C     		adds	r0, r4, #1
 1059 004a 2749     		ldr	r1, .L73+12
 1060 004c FFF7FEFF 		bl	movimiento
 1061              	.LVL99:
 252:main.c        ****             movimiento(i,650);
 1062              		.loc 1 252 0 discriminator 3
 1063 0050 0434     		adds	r4, r4, #4
 1064              	.LVL100:
 1065 0052 00E0     		b	.L69
 1066              	.LVL101:
 1067              	.L72:
 1068 0054 0224     		movs	r4, #2
 1069              	.L69:
 1070              	.LVL102:
 252:main.c        ****             movimiento(i,650);
 1071              		.loc 1 252 0 is_stmt 0 discriminator 1
 1072 0056 214B     		ldr	r3, .L73
 1073 0058 5868     		ldr	r0, [r3, #4]
 1074 005a 8442     		cmp	r4, r0
 1075 005c F0DB     		blt	.L66
 256:main.c        ****         CyDelay(2000);
 1076              		.loc 1 256 0 is_stmt 1
 1077 005e 8021     		movs	r1, #128
 1078 0060 8900     		lsls	r1, r1, #2
 1079 0062 FFF7FEFF 		bl	movimiento
 1080              	.LVL103:
 257:main.c        ****         movimiento(0,350);//Ancla Delantera
 1081              		.loc 1 257 0
 1082 0066 FA24     		movs	r4, #250
 1083              	.LVL104:
 1084 0068 E400     		lsls	r4, r4, #3
 1085 006a 2000     		movs	r0, r4
 1086 006c FFF7FEFF 		bl	CyDelay
 1087              	.LVL105:
 258:main.c        ****         CyDelay(2000);
 1088              		.loc 1 258 0
 1089 0070 AF21     		movs	r1, #175
ARM GAS  C:\Users\HENRYA~1\AppData\Local\Temp\ccvNdTvf.s 			page 30


 1090 0072 4900     		lsls	r1, r1, #1
 1091 0074 0020     		movs	r0, #0
 1092 0076 FFF7FEFF 		bl	movimiento
 1093              	.LVL106:
 259:main.c        ****         for(i=2;i<cantidadM;i=i+4){ //Alineación
 1094              		.loc 1 259 0
 1095 007a 2000     		movs	r0, r4
 1096 007c FFF7FEFF 		bl	CyDelay
 1097              	.LVL107:
 260:main.c        ****             movimiento(i,512);
 1098              		.loc 1 260 0
 1099 0080 0224     		movs	r4, #2
 1100 0082 0AE0     		b	.L67
 1101              	.LVL108:
 1102              	.L68:
 261:main.c        ****             movimiento(i+1,512);
 1103              		.loc 1 261 0 discriminator 3
 1104 0084 8025     		movs	r5, #128
 1105 0086 AD00     		lsls	r5, r5, #2
 1106 0088 2900     		movs	r1, r5
 1107 008a 2000     		movs	r0, r4
 1108 008c FFF7FEFF 		bl	movimiento
 1109              	.LVL109:
 262:main.c        ****         }    
 1110              		.loc 1 262 0 discriminator 3
 1111 0090 601C     		adds	r0, r4, #1
 1112 0092 2900     		movs	r1, r5
 1113 0094 FFF7FEFF 		bl	movimiento
 1114              	.LVL110:
 260:main.c        ****             movimiento(i,512);
 1115              		.loc 1 260 0 discriminator 3
 1116 0098 0434     		adds	r4, r4, #4
 1117              	.LVL111:
 1118              	.L67:
 260:main.c        ****             movimiento(i,512);
 1119              		.loc 1 260 0 is_stmt 0 discriminator 1
 1120 009a 104B     		ldr	r3, .L73
 1121 009c 5B68     		ldr	r3, [r3, #4]
 1122 009e 9C42     		cmp	r4, r3
 1123 00a0 F0DB     		blt	.L68
 264:main.c        ****     }         
 1124              		.loc 1 264 0 is_stmt 1 discriminator 2
 1125 00a2 FA20     		movs	r0, #250
 1126 00a4 C000     		lsls	r0, r0, #3
 1127 00a6 FFF7FEFF 		bl	CyDelay
 1128              	.LVL112:
 251:main.c        ****         for(i=2;i<cantidadM;i=i+4){ 
 1129              		.loc 1 251 0 discriminator 2
 1130 00aa 0136     		adds	r6, r6, #1
 1131              	.LVL113:
 1132              	.L65:
 251:main.c        ****         for(i=2;i<cantidadM;i=i+4){ 
 1133              		.loc 1 251 0 is_stmt 0 discriminator 1
 1134 00ac 002E     		cmp	r6, #0
 1135 00ae D1DD     		ble	.L72
 1136 00b0 0024     		movs	r4, #0
 1137 00b2 05E0     		b	.L70
ARM GAS  C:\Users\HENRYA~1\AppData\Local\Temp\ccvNdTvf.s 			page 31


 1138              	.LVL114:
 1139              	.L71:
 267:main.c        ****         }
 1140              		.loc 1 267 0 is_stmt 1 discriminator 3
 1141 00b4 8021     		movs	r1, #128
 1142 00b6 8900     		lsls	r1, r1, #2
 1143 00b8 2000     		movs	r0, r4
 1144 00ba FFF7FEFF 		bl	movimiento
 1145              	.LVL115:
 266:main.c        ****         movimiento(i,512);
 1146              		.loc 1 266 0 discriminator 3
 1147 00be 0134     		adds	r4, r4, #1
 1148              	.LVL116:
 1149              	.L70:
 266:main.c        ****         movimiento(i,512);
 1150              		.loc 1 266 0 is_stmt 0 discriminator 1
 1151 00c0 064B     		ldr	r3, .L73
 1152 00c2 5B68     		ldr	r3, [r3, #4]
 1153 00c4 9C42     		cmp	r4, r3
 1154 00c6 F5DB     		blt	.L71
 269:main.c        ****     Send_Angle(0,0);
 1155              		.loc 1 269 0 is_stmt 1
 1156 00c8 FA20     		movs	r0, #250
 1157 00ca C000     		lsls	r0, r0, #3
 1158 00cc FFF7FEFF 		bl	CyDelay
 1159              	.LVL117:
 270:main.c        **** }
 1160              		.loc 1 270 0
 1161 00d0 0021     		movs	r1, #0
 1162 00d2 0020     		movs	r0, #0
 1163 00d4 FFF7FEFF 		bl	Send_Angle
 1164              	.LVL118:
 271:main.c        **** 
 1165              		.loc 1 271 0
 1166              		@ sp needed
 1167              	.LVL119:
 1168              	.LVL120:
 1169 00d8 70BD     		pop	{r4, r5, r6, pc}
 1170              	.L74:
 1171 00da C046     		.align	2
 1172              	.L73:
 1173 00dc 00000000 		.word	.LANCHOR0
 1174 00e0 A3020000 		.word	675
 1175 00e4 8A020000 		.word	650
 1176 00e8 EE020000 		.word	750
 1177              		.cfi_endproc
 1178              	.LFE48:
 1179              		.size	Left_Move, .-Left_Move
 1180              		.section	.text.Right_Move,"ax",%progbits
 1181              		.align	2
 1182              		.global	Right_Move
 1183              		.code	16
 1184              		.thumb_func
 1185              		.type	Right_Move, %function
 1186              	Right_Move:
 1187              	.LFB49:
 273:main.c        ****     Send_Angle(0,200);
ARM GAS  C:\Users\HENRYA~1\AppData\Local\Temp\ccvNdTvf.s 			page 32


 1188              		.loc 1 273 0
 1189              		.cfi_startproc
 1190              		@ args = 0, pretend = 0, frame = 0
 1191              		@ frame_needed = 0, uses_anonymous_args = 0
 1192 0000 70B5     		push	{r4, r5, r6, lr}
 1193              		.cfi_def_cfa_offset 16
 1194              		.cfi_offset 4, -16
 1195              		.cfi_offset 5, -12
 1196              		.cfi_offset 6, -8
 1197              		.cfi_offset 14, -4
 274:main.c        ****     int  i=0;
 1198              		.loc 1 274 0
 1199 0002 C821     		movs	r1, #200
 1200 0004 0020     		movs	r0, #0
 1201 0006 FFF7FEFF 		bl	Send_Angle
 1202              	.LVL121:
 277:main.c        ****         movimiento(i,512);
 1203              		.loc 1 277 0
 1204 000a 0024     		movs	r4, #0
 1205 000c 05E0     		b	.L76
 1206              	.LVL122:
 1207              	.L77:
 278:main.c        ****         }
 1208              		.loc 1 278 0 discriminator 3
 1209 000e 8021     		movs	r1, #128
 1210 0010 8900     		lsls	r1, r1, #2
 1211 0012 2000     		movs	r0, r4
 1212 0014 FFF7FEFF 		bl	movimiento
 1213              	.LVL123:
 277:main.c        ****         movimiento(i,512);
 1214              		.loc 1 277 0 discriminator 3
 1215 0018 0134     		adds	r4, r4, #1
 1216              	.LVL124:
 1217              	.L76:
 277:main.c        ****         movimiento(i,512);
 1218              		.loc 1 277 0 is_stmt 0 discriminator 1
 1219 001a 314B     		ldr	r3, .L86
 1220 001c 5B68     		ldr	r3, [r3, #4]
 1221 001e 9C42     		cmp	r4, r3
 1222 0020 F5DB     		blt	.L77
 280:main.c        ****     movimiento(cantidadM,675);//Ancla Trasera
 1223              		.loc 1 280 0 is_stmt 1
 1224 0022 FA24     		movs	r4, #250
 1225              	.LVL125:
 1226 0024 E400     		lsls	r4, r4, #3
 1227 0026 2000     		movs	r0, r4
 1228 0028 FFF7FEFF 		bl	CyDelay
 1229              	.LVL126:
 281:main.c        ****     CyDelay(2000);
 1230              		.loc 1 281 0
 1231 002c 2C4B     		ldr	r3, .L86
 1232 002e 5868     		ldr	r0, [r3, #4]
 1233 0030 2C49     		ldr	r1, .L86+4
 1234 0032 FFF7FEFF 		bl	movimiento
 1235              	.LVL127:
 282:main.c        ****     //Giro
 1236              		.loc 1 282 0
ARM GAS  C:\Users\HENRYA~1\AppData\Local\Temp\ccvNdTvf.s 			page 33


 1237 0036 2000     		movs	r0, r4
 1238 0038 FFF7FEFF 		bl	CyDelay
 1239              	.LVL128:
 284:main.c        ****         for(i=2;i<cantidadM;i=i+4){ 
 1240              		.loc 1 284 0
 1241 003c 0026     		movs	r6, #0
 1242 003e 37E0     		b	.L78
 1243              	.LVL129:
 1244              	.L79:
 286:main.c        ****             movimiento(i+1,274);
 1245              		.loc 1 286 0 discriminator 3
 1246 0040 BB21     		movs	r1, #187
 1247 0042 4900     		lsls	r1, r1, #1
 1248 0044 2000     		movs	r0, r4
 1249 0046 FFF7FEFF 		bl	movimiento
 1250              	.LVL130:
 287:main.c        ****             }
 1251              		.loc 1 287 0 discriminator 3
 1252 004a 601C     		adds	r0, r4, #1
 1253 004c 8921     		movs	r1, #137
 1254 004e 4900     		lsls	r1, r1, #1
 1255 0050 FFF7FEFF 		bl	movimiento
 1256              	.LVL131:
 285:main.c        ****             movimiento(i,374);
 1257              		.loc 1 285 0 discriminator 3
 1258 0054 0434     		adds	r4, r4, #4
 1259              	.LVL132:
 1260 0056 00E0     		b	.L82
 1261              	.LVL133:
 1262              	.L85:
 1263 0058 0224     		movs	r4, #2
 1264              	.L82:
 1265              	.LVL134:
 285:main.c        ****             movimiento(i,374);
 1266              		.loc 1 285 0 is_stmt 0 discriminator 1
 1267 005a 214B     		ldr	r3, .L86
 1268 005c 5868     		ldr	r0, [r3, #4]
 1269 005e 8442     		cmp	r4, r0
 1270 0060 EEDB     		blt	.L79
 289:main.c        ****         CyDelay(2000);
 1271              		.loc 1 289 0 is_stmt 1
 1272 0062 8021     		movs	r1, #128
 1273 0064 8900     		lsls	r1, r1, #2
 1274 0066 FFF7FEFF 		bl	movimiento
 1275              	.LVL135:
 290:main.c        ****         movimiento(0,350);//Ancla Delantera
 1276              		.loc 1 290 0
 1277 006a FA24     		movs	r4, #250
 1278              	.LVL136:
 1279 006c E400     		lsls	r4, r4, #3
 1280 006e 2000     		movs	r0, r4
 1281 0070 FFF7FEFF 		bl	CyDelay
 1282              	.LVL137:
 291:main.c        ****         CyDelay(2000);
 1283              		.loc 1 291 0
 1284 0074 AF21     		movs	r1, #175
 1285 0076 4900     		lsls	r1, r1, #1
ARM GAS  C:\Users\HENRYA~1\AppData\Local\Temp\ccvNdTvf.s 			page 34


 1286 0078 0020     		movs	r0, #0
 1287 007a FFF7FEFF 		bl	movimiento
 1288              	.LVL138:
 292:main.c        ****         for(i=2;i<cantidadM;i=i+4){ //Alineación
 1289              		.loc 1 292 0
 1290 007e 2000     		movs	r0, r4
 1291 0080 FFF7FEFF 		bl	CyDelay
 1292              	.LVL139:
 293:main.c        ****             movimiento(i,512);
 1293              		.loc 1 293 0
 1294 0084 0224     		movs	r4, #2
 1295 0086 0AE0     		b	.L80
 1296              	.LVL140:
 1297              	.L81:
 294:main.c        ****             movimiento(i+1,512);
 1298              		.loc 1 294 0 discriminator 3
 1299 0088 8025     		movs	r5, #128
 1300 008a AD00     		lsls	r5, r5, #2
 1301 008c 2900     		movs	r1, r5
 1302 008e 2000     		movs	r0, r4
 1303 0090 FFF7FEFF 		bl	movimiento
 1304              	.LVL141:
 295:main.c        ****         }    
 1305              		.loc 1 295 0 discriminator 3
 1306 0094 601C     		adds	r0, r4, #1
 1307 0096 2900     		movs	r1, r5
 1308 0098 FFF7FEFF 		bl	movimiento
 1309              	.LVL142:
 293:main.c        ****             movimiento(i,512);
 1310              		.loc 1 293 0 discriminator 3
 1311 009c 0434     		adds	r4, r4, #4
 1312              	.LVL143:
 1313              	.L80:
 293:main.c        ****             movimiento(i,512);
 1314              		.loc 1 293 0 is_stmt 0 discriminator 1
 1315 009e 104B     		ldr	r3, .L86
 1316 00a0 5B68     		ldr	r3, [r3, #4]
 1317 00a2 9C42     		cmp	r4, r3
 1318 00a4 F0DB     		blt	.L81
 297:main.c        ****     }         
 1319              		.loc 1 297 0 is_stmt 1 discriminator 2
 1320 00a6 FA20     		movs	r0, #250
 1321 00a8 C000     		lsls	r0, r0, #3
 1322 00aa FFF7FEFF 		bl	CyDelay
 1323              	.LVL144:
 284:main.c        ****         for(i=2;i<cantidadM;i=i+4){ 
 1324              		.loc 1 284 0 discriminator 2
 1325 00ae 0136     		adds	r6, r6, #1
 1326              	.LVL145:
 1327              	.L78:
 284:main.c        ****         for(i=2;i<cantidadM;i=i+4){ 
 1328              		.loc 1 284 0 is_stmt 0 discriminator 1
 1329 00b0 002E     		cmp	r6, #0
 1330 00b2 D1DD     		ble	.L85
 1331 00b4 0024     		movs	r4, #0
 1332 00b6 05E0     		b	.L83
 1333              	.LVL146:
ARM GAS  C:\Users\HENRYA~1\AppData\Local\Temp\ccvNdTvf.s 			page 35


 1334              	.L84:
 300:main.c        ****         }
 1335              		.loc 1 300 0 is_stmt 1 discriminator 3
 1336 00b8 8021     		movs	r1, #128
 1337 00ba 8900     		lsls	r1, r1, #2
 1338 00bc 2000     		movs	r0, r4
 1339 00be FFF7FEFF 		bl	movimiento
 1340              	.LVL147:
 299:main.c        ****         movimiento(i,512);
 1341              		.loc 1 299 0 discriminator 3
 1342 00c2 0134     		adds	r4, r4, #1
 1343              	.LVL148:
 1344              	.L83:
 299:main.c        ****         movimiento(i,512);
 1345              		.loc 1 299 0 is_stmt 0 discriminator 1
 1346 00c4 064B     		ldr	r3, .L86
 1347 00c6 5B68     		ldr	r3, [r3, #4]
 1348 00c8 9C42     		cmp	r4, r3
 1349 00ca F5DB     		blt	.L84
 302:main.c        ****     Send_Angle(0,0);
 1350              		.loc 1 302 0 is_stmt 1
 1351 00cc FA20     		movs	r0, #250
 1352 00ce C000     		lsls	r0, r0, #3
 1353 00d0 FFF7FEFF 		bl	CyDelay
 1354              	.LVL149:
 303:main.c        **** }
 1355              		.loc 1 303 0
 1356 00d4 0021     		movs	r1, #0
 1357 00d6 0020     		movs	r0, #0
 1358 00d8 FFF7FEFF 		bl	Send_Angle
 1359              	.LVL150:
 304:main.c        **** 
 1360              		.loc 1 304 0
 1361              		@ sp needed
 1362              	.LVL151:
 1363              	.LVL152:
 1364 00dc 70BD     		pop	{r4, r5, r6, pc}
 1365              	.L87:
 1366 00de C046     		.align	2
 1367              	.L86:
 1368 00e0 00000000 		.word	.LANCHOR0
 1369 00e4 A3020000 		.word	675
 1370              		.cfi_endproc
 1371              	.LFE49:
 1372              		.size	Right_Move, .-Right_Move
 1373              		.section	.text.Select_Move,"ax",%progbits
 1374              		.align	2
 1375              		.global	Select_Move
 1376              		.code	16
 1377              		.thumb_func
 1378              		.type	Select_Move, %function
 1379              	Select_Move:
 1380              	.LFB50:
 306:main.c        ****     Send_Angle(0,200);
 1381              		.loc 1 306 0
 1382              		.cfi_startproc
 1383              		@ args = 0, pretend = 0, frame = 0
ARM GAS  C:\Users\HENRYA~1\AppData\Local\Temp\ccvNdTvf.s 			page 36


 1384              		@ frame_needed = 0, uses_anonymous_args = 0
 1385 0000 10B5     		push	{r4, lr}
 1386              		.cfi_def_cfa_offset 8
 1387              		.cfi_offset 4, -8
 1388              		.cfi_offset 14, -4
 307:main.c        ****     int  i=0;
 1389              		.loc 1 307 0
 1390 0002 C821     		movs	r1, #200
 1391 0004 0020     		movs	r0, #0
 1392 0006 FFF7FEFF 		bl	Send_Angle
 1393              	.LVL153:
 309:main.c        ****         movimiento(i,512);
 1394              		.loc 1 309 0
 1395 000a 0024     		movs	r4, #0
 1396 000c 05E0     		b	.L89
 1397              	.LVL154:
 1398              	.L90:
 310:main.c        ****         }
 1399              		.loc 1 310 0 discriminator 3
 1400 000e 8021     		movs	r1, #128
 1401 0010 8900     		lsls	r1, r1, #2
 1402 0012 2000     		movs	r0, r4
 1403 0014 FFF7FEFF 		bl	movimiento
 1404              	.LVL155:
 309:main.c        ****         movimiento(i,512);
 1405              		.loc 1 309 0 discriminator 3
 1406 0018 0134     		adds	r4, r4, #1
 1407              	.LVL156:
 1408              	.L89:
 309:main.c        ****         movimiento(i,512);
 1409              		.loc 1 309 0 is_stmt 0 discriminator 1
 1410 001a 052C     		cmp	r4, #5
 1411 001c F7DD     		ble	.L90
 312:main.c        ****     movimiento(2,750);
 1412              		.loc 1 312 0 is_stmt 1
 1413 001e FA20     		movs	r0, #250
 1414 0020 C000     		lsls	r0, r0, #3
 1415 0022 FFF7FEFF 		bl	CyDelay
 1416              	.LVL157:
 313:main.c        ****     CyDelay(5000);
 1417              		.loc 1 313 0
 1418 0026 0549     		ldr	r1, .L91
 1419 0028 0220     		movs	r0, #2
 1420 002a FFF7FEFF 		bl	movimiento
 1421              	.LVL158:
 314:main.c        ****     move_s=1;
 1422              		.loc 1 314 0
 1423 002e 0448     		ldr	r0, .L91+4
 1424 0030 FFF7FEFF 		bl	CyDelay
 1425              	.LVL159:
 315:main.c        **** }
 1426              		.loc 1 315 0
 1427 0034 0122     		movs	r2, #1
 1428 0036 034B     		ldr	r3, .L91+8
 1429 0038 1A63     		str	r2, [r3, #48]
 316:main.c        **** 
 1430              		.loc 1 316 0
ARM GAS  C:\Users\HENRYA~1\AppData\Local\Temp\ccvNdTvf.s 			page 37


 1431              		@ sp needed
 1432              	.LVL160:
 1433 003a 10BD     		pop	{r4, pc}
 1434              	.L92:
 1435              		.align	2
 1436              	.L91:
 1437 003c EE020000 		.word	750
 1438 0040 88130000 		.word	5000
 1439 0044 00000000 		.word	.LANCHOR0
 1440              		.cfi_endproc
 1441              	.LFE50:
 1442              		.size	Select_Move, .-Select_Move
 1443              		.section	.text.Select_Move_2,"ax",%progbits
 1444              		.align	2
 1445              		.global	Select_Move_2
 1446              		.code	16
 1447              		.thumb_func
 1448              		.type	Select_Move_2, %function
 1449              	Select_Move_2:
 1450              	.LFB51:
 318:main.c        ****     punto_a=dist;  
 1451              		.loc 1 318 0
 1452              		.cfi_startproc
 1453              		@ args = 0, pretend = 0, frame = 0
 1454              		@ frame_needed = 0, uses_anonymous_args = 0
 1455              		@ link register save eliminated.
 319:main.c        ****     move_s=2;
 1456              		.loc 1 319 0
 1457 0000 024B     		ldr	r3, .L94
 1458 0002 1A78     		ldrb	r2, [r3]
 1459 0004 5A63     		str	r2, [r3, #52]
 320:main.c        **** }
 1460              		.loc 1 320 0
 1461 0006 0222     		movs	r2, #2
 1462 0008 1A63     		str	r2, [r3, #48]
 321:main.c        **** 
 1463              		.loc 1 321 0
 1464              		@ sp needed
 1465 000a 7047     		bx	lr
 1466              	.L95:
 1467              		.align	2
 1468              	.L94:
 1469 000c 00000000 		.word	.LANCHOR0
 1470              		.cfi_endproc
 1471              	.LFE51:
 1472              		.size	Select_Move_2, .-Select_Move_2
 1473              		.section	.text.Select_Move_3,"ax",%progbits
 1474              		.align	2
 1475              		.global	Select_Move_3
 1476              		.code	16
 1477              		.thumb_func
 1478              		.type	Select_Move_3, %function
 1479              	Select_Move_3:
 1480              	.LFB52:
 323:main.c        ****     movimiento(2,274);
 1481              		.loc 1 323 0
 1482              		.cfi_startproc
ARM GAS  C:\Users\HENRYA~1\AppData\Local\Temp\ccvNdTvf.s 			page 38


 1483              		@ args = 0, pretend = 0, frame = 0
 1484              		@ frame_needed = 0, uses_anonymous_args = 0
 1485 0000 10B5     		push	{r4, lr}
 1486              		.cfi_def_cfa_offset 8
 1487              		.cfi_offset 4, -8
 1488              		.cfi_offset 14, -4
 324:main.c        ****     CyDelay(5000);
 1489              		.loc 1 324 0
 1490 0002 8921     		movs	r1, #137
 1491 0004 4900     		lsls	r1, r1, #1
 1492 0006 0220     		movs	r0, #2
 1493 0008 FFF7FEFF 		bl	movimiento
 1494              	.LVL161:
 325:main.c        ****     move_s=3;
 1495              		.loc 1 325 0
 1496 000c 0348     		ldr	r0, .L97
 1497 000e FFF7FEFF 		bl	CyDelay
 1498              	.LVL162:
 326:main.c        **** }
 1499              		.loc 1 326 0
 1500 0012 0322     		movs	r2, #3
 1501 0014 024B     		ldr	r3, .L97+4
 1502 0016 1A63     		str	r2, [r3, #48]
 327:main.c        **** 
 1503              		.loc 1 327 0
 1504              		@ sp needed
 1505 0018 10BD     		pop	{r4, pc}
 1506              	.L98:
 1507 001a C046     		.align	2
 1508              	.L97:
 1509 001c 88130000 		.word	5000
 1510 0020 00000000 		.word	.LANCHOR0
 1511              		.cfi_endproc
 1512              	.LFE52:
 1513              		.size	Select_Move_3, .-Select_Move_3
 1514              		.section	.text.Select_Move_4,"ax",%progbits
 1515              		.align	2
 1516              		.global	Select_Move_4
 1517              		.code	16
 1518              		.thumb_func
 1519              		.type	Select_Move_4, %function
 1520              	Select_Move_4:
 1521              	.LFB53:
 329:main.c        ****     punto_b=dist;
 1522              		.loc 1 329 0
 1523              		.cfi_startproc
 1524              		@ args = 0, pretend = 0, frame = 0
 1525              		@ frame_needed = 0, uses_anonymous_args = 0
 1526 0000 10B5     		push	{r4, lr}
 1527              		.cfi_def_cfa_offset 8
 1528              		.cfi_offset 4, -8
 1529              		.cfi_offset 14, -4
 330:main.c        ****     move_s=0;       
 1530              		.loc 1 330 0
 1531 0002 074B     		ldr	r3, .L102
 1532 0004 1A78     		ldrb	r2, [r3]
 1533 0006 9A63     		str	r2, [r3, #56]
ARM GAS  C:\Users\HENRYA~1\AppData\Local\Temp\ccvNdTvf.s 			page 39


 331:main.c        ****     if(punto_a>=punto_b){
 1534              		.loc 1 331 0
 1535 0008 0021     		movs	r1, #0
 1536 000a 1963     		str	r1, [r3, #48]
 332:main.c        ****         Left_Move();    
 1537              		.loc 1 332 0
 1538 000c 5B6B     		ldr	r3, [r3, #52]
 1539 000e 9A42     		cmp	r2, r3
 1540 0010 02DC     		bgt	.L100
 333:main.c        ****     }
 1541              		.loc 1 333 0
 1542 0012 FFF7FEFF 		bl	Left_Move
 1543              	.LVL163:
 1544 0016 01E0     		b	.L99
 1545              	.L100:
 336:main.c        ****     } 
 1546              		.loc 1 336 0
 1547 0018 FFF7FEFF 		bl	Right_Move
 1548              	.LVL164:
 1549              	.L99:
 338:main.c        **** 
 1550              		.loc 1 338 0
 1551              		@ sp needed
 1552 001c 10BD     		pop	{r4, pc}
 1553              	.L103:
 1554 001e C046     		.align	2
 1555              	.L102:
 1556 0020 00000000 		.word	.LANCHOR0
 1557              		.cfi_endproc
 1558              	.LFE53:
 1559              		.size	Select_Move_4, .-Select_Move_4
 1560              		.section	.text.Temporizador,"ax",%progbits
 1561              		.align	2
 1562              		.global	Temporizador
 1563              		.code	16
 1564              		.thumb_func
 1565              		.type	Temporizador, %function
 1566              	Temporizador:
 1567              	.LFB54:
 341:main.c        ****     conta++;
 1568              		.loc 1 341 0
 1569              		.cfi_startproc
 1570              		@ args = 0, pretend = 0, frame = 0
 1571              		@ frame_needed = 0, uses_anonymous_args = 0
 1572 0000 70B5     		push	{r4, r5, r6, lr}
 1573              		.cfi_def_cfa_offset 16
 1574              		.cfi_offset 4, -16
 1575              		.cfi_offset 5, -12
 1576              		.cfi_offset 6, -8
 1577              		.cfi_offset 14, -4
 342:main.c        ****     if(conta==Max_Conta){     
 1578              		.loc 1 342 0
 1579 0002 3A4A     		ldr	r2, .L115
 1580 0004 938F     		ldrh	r3, [r2, #60]
 1581 0006 0133     		adds	r3, r3, #1
 1582 0008 1BB2     		sxth	r3, r3
 1583 000a 9387     		strh	r3, [r2, #60]
ARM GAS  C:\Users\HENRYA~1\AppData\Local\Temp\ccvNdTvf.s 			page 40


 343:main.c        ****         LED_1_Write(1);
 1584              		.loc 1 343 0
 1585 000c 384A     		ldr	r2, .L115+4
 1586 000e 9268     		ldr	r2, [r2, #8]
 1587 0010 9342     		cmp	r3, r2
 1588 0012 66D1     		bne	.L105
 344:main.c        ****         if(move_s==0){
 1589              		.loc 1 344 0
 1590 0014 0120     		movs	r0, #1
 1591 0016 FFF7FEFF 		bl	LED_1_Write
 1592              	.LVL165:
 345:main.c        ****             if(Cantidad_Sensores==2){
 1593              		.loc 1 345 0
 1594 001a 344B     		ldr	r3, .L115
 1595 001c 1B6B     		ldr	r3, [r3, #48]
 1596 001e 002B     		cmp	r3, #0
 1597 0020 4FD1     		bne	.L106
 346:main.c        ****                 Select_Move();   
 1598              		.loc 1 346 0
 1599 0022 324B     		ldr	r3, .L115
 1600 0024 1B69     		ldr	r3, [r3, #16]
 1601 0026 022B     		cmp	r3, #2
 1602 0028 05D1     		bne	.L107
 347:main.c        ****                 Max_Conta=10;
 1603              		.loc 1 347 0
 1604 002a FFF7FEFF 		bl	Select_Move
 1605              	.LVL166:
 348:main.c        ****             }
 1606              		.loc 1 348 0
 1607 002e 0A22     		movs	r2, #10
 1608 0030 2F4B     		ldr	r3, .L115+4
 1609 0032 9A60     		str	r2, [r3, #8]
 1610 0034 51E0     		b	.L108
 1611              	.L107:
 350:main.c        ****                 Left_Move();
 1612              		.loc 1 350 0
 1613 0036 032B     		cmp	r3, #3
 1614 0038 05D1     		bne	.L109
 351:main.c        ****                 Max_Conta=10;
 1615              		.loc 1 351 0
 1616 003a FFF7FEFF 		bl	Left_Move
 1617              	.LVL167:
 352:main.c        ****             }
 1618              		.loc 1 352 0
 1619 003e 0A22     		movs	r2, #10
 1620 0040 2B4B     		ldr	r3, .L115+4
 1621 0042 9A60     		str	r2, [r3, #8]
 1622 0044 49E0     		b	.L108
 1623              	.L109:
 354:main.c        ****                 Right_Move();    
 1624              		.loc 1 354 0
 1625 0046 062B     		cmp	r3, #6
 1626 0048 05D1     		bne	.L110
 355:main.c        ****                 Max_Conta=10;
 1627              		.loc 1 355 0
 1628 004a FFF7FEFF 		bl	Right_Move
 1629              	.LVL168:
ARM GAS  C:\Users\HENRYA~1\AppData\Local\Temp\ccvNdTvf.s 			page 41


 356:main.c        ****             }
 1630              		.loc 1 356 0
 1631 004e 0A22     		movs	r2, #10
 1632 0050 274B     		ldr	r3, .L115+4
 1633 0052 9A60     		str	r2, [r3, #8]
 1634 0054 41E0     		b	.L108
 1635              	.L110:
 358:main.c        ****                 amplitud=0.8;offset=0.833;fase=-0.5;
 1636              		.loc 1 358 0
 1637 0056 072B     		cmp	r3, #7
 1638 0058 1BD1     		bne	.L111
 359:main.c        ****                 Enviar_Parametros(amplitud,fase,offset,V); 
 1639              		.loc 1 359 0
 1640 005a 244D     		ldr	r5, .L115
 1641 005c 2548     		ldr	r0, .L115+8
 1642 005e E860     		str	r0, [r5, #12]
 1643 0060 234C     		ldr	r4, .L115+4
 1644 0062 254A     		ldr	r2, .L115+12
 1645 0064 2260     		str	r2, [r4]
 1646 0066 BF21     		movs	r1, #191
 1647 0068 0906     		lsls	r1, r1, #24
 1648 006a A960     		str	r1, [r5, #8]
 360:main.c        ****                 CyDelay(1000);
 1649              		.loc 1 360 0
 1650 006c 1A33     		adds	r3, r3, #26
 1651 006e FFF7FEFF 		bl	Enviar_Parametros
 1652              	.LVL169:
 361:main.c        ****                 Enviar_Parametros(0.0,fase,offset,H);
 1653              		.loc 1 361 0
 1654 0072 FA20     		movs	r0, #250
 1655 0074 8000     		lsls	r0, r0, #2
 1656 0076 FFF7FEFF 		bl	CyDelay
 1657              	.LVL170:
 362:main.c        ****                 CyDelay(15000);
 1658              		.loc 1 362 0
 1659 007a A968     		ldr	r1, [r5, #8]
 1660 007c 2023     		movs	r3, #32
 1661 007e 2268     		ldr	r2, [r4]
 1662 0080 0020     		movs	r0, #0
 1663 0082 FFF7FEFF 		bl	Enviar_Parametros
 1664              	.LVL171:
 363:main.c        ****                 Max_Conta=10;
 1665              		.loc 1 363 0
 1666 0086 1D48     		ldr	r0, .L115+16
 1667 0088 FFF7FEFF 		bl	CyDelay
 1668              	.LVL172:
 364:main.c        ****             }
 1669              		.loc 1 364 0
 1670 008c 0A23     		movs	r3, #10
 1671 008e A360     		str	r3, [r4, #8]
 1672 0090 23E0     		b	.L108
 1673              	.L111:
 367:main.c        ****                 Hill();
 1674              		.loc 1 367 0
 1675 0092 164C     		ldr	r4, .L115
 1676 0094 6369     		ldr	r3, [r4, #20]
 1677 0096 0133     		adds	r3, r3, #1
ARM GAS  C:\Users\HENRYA~1\AppData\Local\Temp\ccvNdTvf.s 			page 42


 1678 0098 6361     		str	r3, [r4, #20]
 368:main.c        ****                 Enviar_Parametros(0.0,fase,0.833,H);
 1679              		.loc 1 368 0
 1680 009a FFF7FEFF 		bl	Hill
 1681              	.LVL173:
 369:main.c        ****                 CyDelay(1000);
 1682              		.loc 1 369 0
 1683 009e 2023     		movs	r3, #32
 1684 00a0 154A     		ldr	r2, .L115+12
 1685 00a2 A168     		ldr	r1, [r4, #8]
 1686 00a4 0020     		movs	r0, #0
 1687 00a6 FFF7FEFF 		bl	Enviar_Parametros
 1688              	.LVL174:
 370:main.c        ****                 Enviar_Parametros(amplitud,fase,offset,V);             
 1689              		.loc 1 370 0
 1690 00aa FA20     		movs	r0, #250
 1691 00ac 8000     		lsls	r0, r0, #2
 1692 00ae FFF7FEFF 		bl	CyDelay
 1693              	.LVL175:
 371:main.c        ****             }
 1694              		.loc 1 371 0
 1695 00b2 0F4B     		ldr	r3, .L115+4
 1696 00b4 1A68     		ldr	r2, [r3]
 1697 00b6 A168     		ldr	r1, [r4, #8]
 1698 00b8 E068     		ldr	r0, [r4, #12]
 1699 00ba 2123     		movs	r3, #33
 1700 00bc FFF7FEFF 		bl	Enviar_Parametros
 1701              	.LVL176:
 1702 00c0 0BE0     		b	.L108
 1703              	.L106:
 374:main.c        ****         else if (move_s==2){Select_Move_3();}
 1704              		.loc 1 374 0
 1705 00c2 012B     		cmp	r3, #1
 1706 00c4 02D1     		bne	.L112
 374:main.c        ****         else if (move_s==2){Select_Move_3();}
 1707              		.loc 1 374 0 is_stmt 0 discriminator 1
 1708 00c6 FFF7FEFF 		bl	Select_Move_2
 1709              	.LVL177:
 1710 00ca 06E0     		b	.L108
 1711              	.L112:
 375:main.c        ****         else{Select_Move_4();}
 1712              		.loc 1 375 0 is_stmt 1
 1713 00cc 022B     		cmp	r3, #2
 1714 00ce 02D1     		bne	.L113
 375:main.c        ****         else{Select_Move_4();}
 1715              		.loc 1 375 0 is_stmt 0 discriminator 1
 1716 00d0 FFF7FEFF 		bl	Select_Move_3
 1717              	.LVL178:
 1718 00d4 01E0     		b	.L108
 1719              	.L113:
 376:main.c        ****         conta=0;
 1720              		.loc 1 376 0 is_stmt 1
 1721 00d6 FFF7FEFF 		bl	Select_Move_4
 1722              	.LVL179:
 1723              	.L108:
 377:main.c        ****     }
 1724              		.loc 1 377 0
ARM GAS  C:\Users\HENRYA~1\AppData\Local\Temp\ccvNdTvf.s 			page 43


 1725 00da 0022     		movs	r2, #0
 1726 00dc 034B     		ldr	r3, .L115
 1727 00de 9A87     		strh	r2, [r3, #60]
 1728 00e0 02E0     		b	.L104
 1729              	.L105:
 380:main.c        ****     }  
 1730              		.loc 1 380 0
 1731 00e2 0020     		movs	r0, #0
 1732 00e4 FFF7FEFF 		bl	LED_1_Write
 1733              	.LVL180:
 1734              	.L104:
 382:main.c        **** 
 1735              		.loc 1 382 0
 1736              		@ sp needed
 1737 00e8 70BD     		pop	{r4, r5, r6, pc}
 1738              	.L116:
 1739 00ea C046     		.align	2
 1740              	.L115:
 1741 00ec 00000000 		.word	.LANCHOR0
 1742 00f0 00000000 		.word	.LANCHOR1
 1743 00f4 CDCC4C3F 		.word	1061997773
 1744 00f8 7D3F553F 		.word	1062551421
 1745 00fc 983A0000 		.word	15000
 1746              		.cfi_endproc
 1747              	.LFE54:
 1748              		.size	Temporizador, .-Temporizador
 1749              		.section	.text.main,"ax",%progbits
 1750              		.align	2
 1751              		.global	main
 1752              		.code	16
 1753              		.thumb_func
 1754              		.type	main, %function
 1755              	main:
 1756              	.LFB56:
 387:main.c        **** 
 388:main.c        **** int main()
 389:main.c        **** {
 1757              		.loc 1 389 0
 1758              		.cfi_startproc
 1759              		@ Volatile: function does not return.
 1760              		@ args = 0, pretend = 0, frame = 0
 1761              		@ frame_needed = 0, uses_anonymous_args = 0
 1762 0000 10B5     		push	{r4, lr}
 1763              		.cfi_def_cfa_offset 8
 1764              		.cfi_offset 4, -8
 1765              		.cfi_offset 14, -4
 390:main.c        ****     //Init LED's
 391:main.c        ****     CAN_Start(); ///  start CAN
 1766              		.loc 1 391 0
 1767 0002 FFF7FEFF 		bl	CAN_Start
 1768              	.LVL181:
 392:main.c        ****     Timer_1_Start();
 1769              		.loc 1 392 0
 1770 0006 FFF7FEFF 		bl	Timer_1_Start
 1771              	.LVL182:
 393:main.c        ****     Timer_Start();
 1772              		.loc 1 393 0
ARM GAS  C:\Users\HENRYA~1\AppData\Local\Temp\ccvNdTvf.s 			page 44


 1773 000a FFF7FEFF 		bl	Timer_Start
 1774              	.LVL183:
 394:main.c        ****     SENSOR_U_Start();
 1775              		.loc 1 394 0
 1776 000e FFF7FEFF 		bl	SENSOR_U_Start
 1777              	.LVL184:
 395:main.c        ****     CAN_isr_StartEx(interrutcan);
 1778              		.loc 1 395 0
 1779 0012 0848     		ldr	r0, .L119
 1780 0014 FFF7FEFF 		bl	CAN_isr_StartEx
 1781              	.LVL185:
 396:main.c        ****     CAN_GlobalIntEnable();
 1782              		.loc 1 396 0
 1783 0018 FFF7FEFF 		bl	CAN_GlobalIntEnable
 1784              	.LVL186:
 397:main.c        ****     Int_Serial_StartEx(Serial_Interrupt);
 1785              		.loc 1 397 0
 1786 001c 0648     		ldr	r0, .L119+4
 1787 001e FFF7FEFF 		bl	Int_Serial_StartEx
 1788              	.LVL187:
 398:main.c        ****     Timer_StartEx(Temporizador);
 1789              		.loc 1 398 0
 1790 0022 0648     		ldr	r0, .L119+8
 1791 0024 FFF7FEFF 		bl	Timer_StartEx
 1792              	.LVL188:
 399:main.c        ****     LED_1_Write(0);
 1793              		.loc 1 399 0
 1794 0028 0020     		movs	r0, #0
 1795 002a FFF7FEFF 		bl	LED_1_Write
 1796              	.LVL189:
 400:main.c        ****     CyGlobalIntEnable;
 1797              		.loc 1 400 0
 1798              		.syntax divided
 1799              	@ 400 "main.c" 1
 1800 002e 62B6     		CPSIE   i
 1801              	@ 0 "" 2
 1802              		.thumb
 1803              		.syntax unified
 1804              	.L118:
 1805 0030 FEE7     		b	.L118
 1806              	.L120:
 1807 0032 C046     		.align	2
 1808              	.L119:
 1809 0034 00000000 		.word	interrutcan
 1810 0038 00000000 		.word	Serial_Interrupt
 1811 003c 00000000 		.word	Temporizador
 1812              		.cfi_endproc
 1813              	.LFE56:
 1814              		.size	main, .-main
 1815              		.global	move_s
 1816              		.global	punto_b
 1817              		.global	punto_a
 1818              		.global	L_anterior
 1819              		.global	L_actual
 1820              		.global	flag
 1821              		.global	pha_aux_2
 1822              		.global	off_aux_2
ARM GAS  C:\Users\HENRYA~1\AppData\Local\Temp\ccvNdTvf.s 			page 45


 1823              		.global	ampli_aux_2
 1824              		.global	pha_aux
 1825              		.global	off_aux
 1826              		.global	ampli_aux
 1827              		.global	fase
 1828              		.global	offset
 1829              		.global	amplitud
 1830              		.global	Max_Conta
 1831              		.global	Cantidad_Sensores
 1832              		.global	cantidadM
 1833              		.global	conta
 1834              		.global	dist
 1835              		.comm	dato_enviado_1,8,4
 1836              		.comm	dato_enviado,8,4
 1837              		.comm	mailbox2,8,4
 1838              		.comm	mailbox1,8,4
 1839              		.comm	mailbox0,8,4
 1840              		.data
 1841              		.align	2
 1842              		.set	.LANCHOR1,. + 0
 1843              		.type	offset, %object
 1844              		.size	offset, 4
 1845              	offset:
 1846 0000 7D3F553F 		.word	1062551421
 1847              		.type	off_aux, %object
 1848              		.size	off_aux, 4
 1849              	off_aux:
 1850 0004 7D3F553F 		.word	1062551421
 1851              		.type	Max_Conta, %object
 1852              		.size	Max_Conta, 4
 1853              	Max_Conta:
 1854 0008 96000000 		.word	150
 1855              		.type	off_aux_2, %object
 1856              		.size	off_aux_2, 4
 1857              	off_aux_2:
 1858 000c 7D3F553F 		.word	1062551421
 1859              		.bss
 1860              		.align	2
 1861              		.set	.LANCHOR0,. + 0
 1862              		.type	dist, %object
 1863              		.size	dist, 1
 1864              	dist:
 1865 0000 00       		.space	1
 1866 0001 000000   		.space	3
 1867              		.type	cantidadM, %object
 1868              		.size	cantidadM, 4
 1869              	cantidadM:
 1870 0004 00000000 		.space	4
 1871              		.type	fase, %object
 1872              		.size	fase, 4
 1873              	fase:
 1874 0008 00000000 		.space	4
 1875              		.type	amplitud, %object
 1876              		.size	amplitud, 4
 1877              	amplitud:
 1878 000c 00000000 		.space	4
 1879              		.type	Cantidad_Sensores, %object
ARM GAS  C:\Users\HENRYA~1\AppData\Local\Temp\ccvNdTvf.s 			page 46


 1880              		.size	Cantidad_Sensores, 4
 1881              	Cantidad_Sensores:
 1882 0010 00000000 		.space	4
 1883              		.type	flag, %object
 1884              		.size	flag, 4
 1885              	flag:
 1886 0014 00000000 		.space	4
 1887              		.type	ampli_aux, %object
 1888              		.size	ampli_aux, 4
 1889              	ampli_aux:
 1890 0018 00000000 		.space	4
 1891              		.type	pha_aux, %object
 1892              		.size	pha_aux, 4
 1893              	pha_aux:
 1894 001c 00000000 		.space	4
 1895              		.type	L_anterior, %object
 1896              		.size	L_anterior, 4
 1897              	L_anterior:
 1898 0020 00000000 		.space	4
 1899              		.type	ampli_aux_2, %object
 1900              		.size	ampli_aux_2, 4
 1901              	ampli_aux_2:
 1902 0024 00000000 		.space	4
 1903              		.type	pha_aux_2, %object
 1904              		.size	pha_aux_2, 4
 1905              	pha_aux_2:
 1906 0028 00000000 		.space	4
 1907              		.type	L_actual, %object
 1908              		.size	L_actual, 4
 1909              	L_actual:
 1910 002c 00000000 		.space	4
 1911              		.type	move_s, %object
 1912              		.size	move_s, 4
 1913              	move_s:
 1914 0030 00000000 		.space	4
 1915              		.type	punto_a, %object
 1916              		.size	punto_a, 4
 1917              	punto_a:
 1918 0034 00000000 		.space	4
 1919              		.type	punto_b, %object
 1920              		.size	punto_b, 4
 1921              	punto_b:
 1922 0038 00000000 		.space	4
 1923              		.type	conta, %object
 1924              		.size	conta, 2
 1925              	conta:
 1926 003c 0000     		.space	2
 1927              		.text
 1928              	.Letext0:
 1929              		.file 2 "Generated_Source\\PSoC4/cytypes.h"
 1930              		.file 3 "Generated_Source\\PSoC4/SENSOR_U.h"
 1931              		.file 4 "c:\\program files (x86)\\cypress\\psoc creator\\4.1\\psoc creator\\import\\gnu\\arm\\5.4.
 1932              		.file 5 "Generated_Source\\PSoC4/CAN.h"
 1933              		.file 6 "Generated_Source\\PSoC4/CyLib.h"
 1934              		.file 7 "Generated_Source\\PSoC4/LED_1.h"
 1935              		.file 8 "Generated_Source\\PSoC4/Timer_1.h"
 1936              		.file 9 "Generated_Source\\PSoC4/Timer.h"
ARM GAS  C:\Users\HENRYA~1\AppData\Local\Temp\ccvNdTvf.s 			page 47


 1937              		.file 10 "Generated_Source\\PSoC4/CAN_isr.h"
 1938              		.file 11 "Generated_Source\\PSoC4/Int_Serial.h"