ARM GAS  C:\Users\HENRYA~1\AppData\Local\Temp\cceIRlNf.s 			page 1


   1              		.syntax unified
   2              		.cpu cortex-m0
   3              		.fpu softvfp
   4              		.eabi_attribute 20, 1
   5              		.eabi_attribute 21, 1
   6              		.eabi_attribute 23, 3
   7              		.eabi_attribute 24, 1
   8              		.eabi_attribute 25, 1
   9              		.eabi_attribute 26, 1
  10              		.eabi_attribute 30, 1
  11              		.eabi_attribute 34, 0
  12              		.eabi_attribute 18, 4
  13              		.thumb
  14              		.syntax unified
  15              		.file	"main.c"
  16              		.text
  17              	.Ltext0:
  18              		.cfi_sections	.debug_frame
  19              		.section	.text.writeVCNL_1,"ax",%progbits
  20              		.align	2
  21              		.global	writeVCNL_1
  22              		.code	16
  23              		.thumb_func
  24              		.type	writeVCNL_1, %function
  25              	writeVCNL_1:
  26              	.LFB36:
  27              		.file 1 "./VCNL4010_1.h"
   1:./VCNL4010_1.h **** #include <project.h>
   2:./VCNL4010_1.h **** #define VCNL4010_ADDRESS 0x13
   3:./VCNL4010_1.h **** 
   4:./VCNL4010_1.h **** int i=0;
   5:./VCNL4010_1.h **** //Send Data
   6:./VCNL4010_1.h **** void writeVCNL_1(int address, int data){
  28              		.loc 1 6 0
  29              		.cfi_startproc
  30              		@ args = 0, pretend = 0, frame = 8
  31              		@ frame_needed = 0, uses_anonymous_args = 0
  32              	.LVL0:
  33 0000 10B5     		push	{r4, lr}
  34              		.cfi_def_cfa_offset 8
  35              		.cfi_offset 4, -8
  36              		.cfi_offset 14, -4
  37 0002 82B0     		sub	sp, sp, #8
  38              		.cfi_def_cfa_offset 16
   7:./VCNL4010_1.h ****     uint8 Write_buf[2]={0};
  39              		.loc 1 7 0
  40 0004 01AC     		add	r4, sp, #4
   8:./VCNL4010_1.h ****     Write_buf[0]=address;
  41              		.loc 1 8 0
  42 0006 2070     		strb	r0, [r4]
   9:./VCNL4010_1.h ****     Write_buf[1]=data;
  43              		.loc 1 9 0
  44 0008 6170     		strb	r1, [r4, #1]
  10:./VCNL4010_1.h ****     SENSOR_1_I2CMasterWriteBuf(VCNL4010_ADDRESS,(uint8 *)Write_buf,2,SENSOR_1_I2C_MODE_COMPLETE_XFE
  45              		.loc 1 10 0
  46 000a 0023     		movs	r3, #0
  47 000c 0222     		movs	r2, #2
ARM GAS  C:\Users\HENRYA~1\AppData\Local\Temp\cceIRlNf.s 			page 2


  48 000e 2100     		movs	r1, r4
  49              	.LVL1:
  50 0010 1320     		movs	r0, #19
  51              	.LVL2:
  52 0012 FFF7FEFF 		bl	SENSOR_1_I2CMasterWriteBuf
  53              	.LVL3:
  54              	.L2:
  11:./VCNL4010_1.h ****     while((SENSOR_1_I2CMasterStatus()&SENSOR_1_I2C_MSTAT_WR_CMPLT)==0){}
  55              		.loc 1 11 0 discriminator 1
  56 0016 FFF7FEFF 		bl	SENSOR_1_I2CMasterStatus
  57              	.LVL4:
  58 001a 8307     		lsls	r3, r0, #30
  59 001c FBD5     		bpl	.L2
  12:./VCNL4010_1.h ****     return;
  13:./VCNL4010_1.h **** }
  60              		.loc 1 13 0
  61 001e 02B0     		add	sp, sp, #8
  62              		@ sp needed
  63 0020 10BD     		pop	{r4, pc}
  64              		.cfi_endproc
  65              	.LFE36:
  66              		.size	writeVCNL_1, .-writeVCNL_1
  67 0022 C046     		.section	.text.readVCNL_1,"ax",%progbits
  68              		.align	2
  69              		.global	readVCNL_1
  70              		.code	16
  71              		.thumb_func
  72              		.type	readVCNL_1, %function
  73              	readVCNL_1:
  74              	.LFB37:
  14:./VCNL4010_1.h **** //Read Data
  15:./VCNL4010_1.h **** int readVCNL_1(int address){
  75              		.loc 1 15 0
  76              		.cfi_startproc
  77              		@ args = 0, pretend = 0, frame = 8
  78              		@ frame_needed = 0, uses_anonymous_args = 0
  79              	.LVL5:
  80 0000 00B5     		push	{lr}
  81              		.cfi_def_cfa_offset 4
  82              		.cfi_offset 14, -4
  83 0002 83B0     		sub	sp, sp, #12
  84              		.cfi_def_cfa_offset 16
  16:./VCNL4010_1.h ****     uint8 Write_buf[1]={0};
  85              		.loc 1 16 0
  86 0004 01A9     		add	r1, sp, #4
  17:./VCNL4010_1.h ****     Write_buf[0]=address;
  87              		.loc 1 17 0
  88 0006 0870     		strb	r0, [r1]
  18:./VCNL4010_1.h ****     uint8 read_Buf[1]={0};
  89              		.loc 1 18 0
  90 0008 0023     		movs	r3, #0
  91 000a 6A46     		mov	r2, sp
  92 000c 1370     		strb	r3, [r2]
  19:./VCNL4010_1.h ****     SENSOR_1_I2CMasterWriteBuf(VCNL4010_ADDRESS,(uint8 *)Write_buf,1,SENSOR_1_I2C_MODE_NO_STOP);
  93              		.loc 1 19 0
  94 000e 0233     		adds	r3, r3, #2
  95 0010 0122     		movs	r2, #1
ARM GAS  C:\Users\HENRYA~1\AppData\Local\Temp\cceIRlNf.s 			page 3


  96 0012 1320     		movs	r0, #19
  97              	.LVL6:
  98 0014 FFF7FEFF 		bl	SENSOR_1_I2CMasterWriteBuf
  99              	.LVL7:
 100              	.L4:
  20:./VCNL4010_1.h ****     while((SENSOR_1_I2CMasterStatus()&SENSOR_1_I2C_MSTAT_WR_CMPLT)==0){}
 101              		.loc 1 20 0 discriminator 1
 102 0018 FFF7FEFF 		bl	SENSOR_1_I2CMasterStatus
 103              	.LVL8:
 104 001c 8307     		lsls	r3, r0, #30
 105 001e FBD5     		bpl	.L4
  21:./VCNL4010_1.h ****     SENSOR_1_I2CMasterReadBuf(VCNL4010_ADDRESS,(uint8 *)read_Buf,1,SENSOR_1_I2C_MODE_REPEAT_START);
 106              		.loc 1 21 0
 107 0020 0123     		movs	r3, #1
 108 0022 0122     		movs	r2, #1
 109 0024 6946     		mov	r1, sp
 110 0026 1320     		movs	r0, #19
 111 0028 FFF7FEFF 		bl	SENSOR_1_I2CMasterReadBuf
 112              	.LVL9:
 113              	.L5:
  22:./VCNL4010_1.h ****     while((SENSOR_1_I2CMasterStatus()&SENSOR_1_I2C_MSTAT_RD_CMPLT)==0){}
 114              		.loc 1 22 0 discriminator 1
 115 002c FFF7FEFF 		bl	SENSOR_1_I2CMasterStatus
 116              	.LVL10:
 117 0030 C307     		lsls	r3, r0, #31
 118 0032 FBD5     		bpl	.L5
  23:./VCNL4010_1.h ****     return read_Buf[0];
 119              		.loc 1 23 0
 120 0034 6B46     		mov	r3, sp
 121 0036 1878     		ldrb	r0, [r3]
  24:./VCNL4010_1.h **** }
 122              		.loc 1 24 0
 123 0038 03B0     		add	sp, sp, #12
 124              		@ sp needed
 125 003a 00BD     		pop	{pc}
 126              		.cfi_endproc
 127              	.LFE37:
 128              		.size	readVCNL_1, .-readVCNL_1
 129              		.section	.text.initVCNL_1,"ax",%progbits
 130              		.align	2
 131              		.global	initVCNL_1
 132              		.code	16
 133              		.thumb_func
 134              		.type	initVCNL_1, %function
 135              	initVCNL_1:
 136              	.LFB38:
  25:./VCNL4010_1.h **** //Init Sensor
  26:./VCNL4010_1.h **** void initVCNL_1(){
 137              		.loc 1 26 0
 138              		.cfi_startproc
 139              		@ args = 0, pretend = 0, frame = 0
 140              		@ frame_needed = 0, uses_anonymous_args = 0
 141 0000 10B5     		push	{r4, lr}
 142              		.cfi_def_cfa_offset 8
 143              		.cfi_offset 4, -8
 144              		.cfi_offset 14, -4
  27:./VCNL4010_1.h ****   int temp = readVCNL_1(0x81);
ARM GAS  C:\Users\HENRYA~1\AppData\Local\Temp\cceIRlNf.s 			page 4


 145              		.loc 1 27 0
 146 0002 8120     		movs	r0, #129
 147 0004 FFF7FEFF 		bl	readVCNL_1
 148              	.LVL11:
  28:./VCNL4010_1.h ****   if (temp != 0x21){  
 149              		.loc 1 28 0
 150 0008 2128     		cmp	r0, #33
 151 000a 0ED0     		beq	.L7
  29:./VCNL4010_1.h ****     //Led Sequence Fail
  30:./VCNL4010_1.h ****     LED_1_Write(1);
 152              		.loc 1 30 0
 153 000c 0120     		movs	r0, #1
 154              	.LVL12:
 155 000e FFF7FEFF 		bl	LED_1_Write
 156              	.LVL13:
  31:./VCNL4010_1.h ****     CyDelay(500);
 157              		.loc 1 31 0
 158 0012 FA24     		movs	r4, #250
 159 0014 6400     		lsls	r4, r4, #1
 160 0016 2000     		movs	r0, r4
 161 0018 FFF7FEFF 		bl	CyDelay
 162              	.LVL14:
  32:./VCNL4010_1.h ****     LED_1_Write(0);
 163              		.loc 1 32 0
 164 001c 0020     		movs	r0, #0
 165 001e FFF7FEFF 		bl	LED_1_Write
 166              	.LVL15:
  33:./VCNL4010_1.h ****     CyDelay(500);    
 167              		.loc 1 33 0
 168 0022 2000     		movs	r0, r4
 169 0024 FFF7FEFF 		bl	CyDelay
 170              	.LVL16:
 171 0028 1DE0     		b	.L8
 172              	.LVL17:
 173              	.L7:
  34:./VCNL4010_1.h ****   }
  35:./VCNL4010_1.h ****    else{
  36:./VCNL4010_1.h ****     //Led Sequence Sucess
  37:./VCNL4010_1.h ****     LED_1_Write(0);
 174              		.loc 1 37 0
 175 002a 0020     		movs	r0, #0
 176              	.LVL18:
 177 002c FFF7FEFF 		bl	LED_1_Write
 178              	.LVL19:
  38:./VCNL4010_1.h ****     for(i=1;i<5;i++){
 179              		.loc 1 38 0
 180 0030 0122     		movs	r2, #1
 181 0032 154B     		ldr	r3, .L11
 182 0034 1A60     		str	r2, [r3]
 183 0036 0FE0     		b	.L9
 184              	.L10:
  39:./VCNL4010_1.h ****         LED_1_Write(1);
 185              		.loc 1 39 0 discriminator 3
 186 0038 0120     		movs	r0, #1
 187 003a FFF7FEFF 		bl	LED_1_Write
 188              	.LVL20:
  40:./VCNL4010_1.h ****         CyDelay(200);
ARM GAS  C:\Users\HENRYA~1\AppData\Local\Temp\cceIRlNf.s 			page 5


 189              		.loc 1 40 0 discriminator 3
 190 003e C820     		movs	r0, #200
 191 0040 FFF7FEFF 		bl	CyDelay
 192              	.LVL21:
  41:./VCNL4010_1.h ****         LED_1_Write(0);
 193              		.loc 1 41 0 discriminator 3
 194 0044 0020     		movs	r0, #0
 195 0046 FFF7FEFF 		bl	LED_1_Write
 196              	.LVL22:
  42:./VCNL4010_1.h ****         CyDelay(200); 
 197              		.loc 1 42 0 discriminator 3
 198 004a C820     		movs	r0, #200
 199 004c FFF7FEFF 		bl	CyDelay
 200              	.LVL23:
  38:./VCNL4010_1.h ****         LED_1_Write(1);
 201              		.loc 1 38 0 discriminator 3
 202 0050 0D4A     		ldr	r2, .L11
 203 0052 1368     		ldr	r3, [r2]
 204 0054 0133     		adds	r3, r3, #1
 205 0056 1360     		str	r3, [r2]
 206              	.L9:
  38:./VCNL4010_1.h ****         LED_1_Write(1);
 207              		.loc 1 38 0 is_stmt 0 discriminator 1
 208 0058 0B4B     		ldr	r3, .L11
 209 005a 1B68     		ldr	r3, [r3]
 210 005c 042B     		cmp	r3, #4
 211 005e EBDD     		ble	.L10
  43:./VCNL4010_1.h ****         }
  44:./VCNL4010_1.h ****     LED_1_Write(0);
 212              		.loc 1 44 0 is_stmt 1
 213 0060 0020     		movs	r0, #0
 214 0062 FFF7FEFF 		bl	LED_1_Write
 215              	.LVL24:
 216              	.L8:
  45:./VCNL4010_1.h ****   } 
  46:./VCNL4010_1.h ****   //VCNL Init Params
  47:./VCNL4010_1.h ****   writeVCNL_1(0x84, 0x0F); // Configures ambient light measures - Single conversion mode, 128 avera
 217              		.loc 1 47 0
 218 0066 0F21     		movs	r1, #15
 219 0068 8420     		movs	r0, #132
 220 006a FFF7FEFF 		bl	writeVCNL_1
 221              	.LVL25:
  48:./VCNL4010_1.h ****   writeVCNL_1(0x83, 0x32);   // sets IR current in steps of 10mA 0-200mA --> 200mA
 222              		.loc 1 48 0
 223 006e 3221     		movs	r1, #50
 224 0070 8320     		movs	r0, #131
 225 0072 FFF7FEFF 		bl	writeVCNL_1
 226              	.LVL26:
  49:./VCNL4010_1.h ****   writeVCNL_1(0x89, 0);    // Proximity IR test signal freq, 0-3 - 781.25 kHz
 227              		.loc 1 49 0
 228 0076 0021     		movs	r1, #0
 229 0078 8920     		movs	r0, #137
 230 007a FFF7FEFF 		bl	writeVCNL_1
 231              	.LVL27:
  50:./VCNL4010_1.h ****   writeVCNL_1(0x8A, 0x81); // proximity modulator timing - 129, recommended by Vishay 
 232              		.loc 1 50 0
 233 007e 8121     		movs	r1, #129
ARM GAS  C:\Users\HENRYA~1\AppData\Local\Temp\cceIRlNf.s 			page 6


 234 0080 8A20     		movs	r0, #138
 235 0082 FFF7FEFF 		bl	writeVCNL_1
 236              	.LVL28:
  51:./VCNL4010_1.h **** }
 237              		.loc 1 51 0
 238              		@ sp needed
 239 0086 10BD     		pop	{r4, pc}
 240              	.L12:
 241              		.align	2
 242              	.L11:
 243 0088 00000000 		.word	.LANCHOR0
 244              		.cfi_endproc
 245              	.LFE38:
 246              		.size	initVCNL_1, .-initVCNL_1
 247              		.section	.text.readProximity_1,"ax",%progbits
 248              		.align	2
 249              		.global	readProximity_1
 250              		.code	16
 251              		.thumb_func
 252              		.type	readProximity_1, %function
 253              	readProximity_1:
 254              	.LFB39:
  52:./VCNL4010_1.h **** //Read Distance Signal
  53:./VCNL4010_1.h **** unsigned int readProximity_1(){
 255              		.loc 1 53 0
 256              		.cfi_startproc
 257              		@ args = 0, pretend = 0, frame = 0
 258              		@ frame_needed = 0, uses_anonymous_args = 0
 259 0000 10B5     		push	{r4, lr}
 260              		.cfi_def_cfa_offset 8
 261              		.cfi_offset 4, -8
 262              		.cfi_offset 14, -4
  54:./VCNL4010_1.h ****   int temp = readVCNL_1(0x80);
 263              		.loc 1 54 0
 264 0002 8020     		movs	r0, #128
 265 0004 FFF7FEFF 		bl	readVCNL_1
 266              	.LVL29:
  55:./VCNL4010_1.h ****   writeVCNL_1(0x80, temp | 0x08);             // command the sensor to perform a proximity measure
 267              		.loc 1 55 0
 268 0008 0823     		movs	r3, #8
 269 000a 0100     		movs	r1, r0
 270 000c 1943     		orrs	r1, r3
 271 000e 8020     		movs	r0, #128
 272              	.LVL30:
 273 0010 FFF7FEFF 		bl	writeVCNL_1
 274              	.LVL31:
 275              	.L14:
  56:./VCNL4010_1.h ****   while(!(readVCNL_1(0x80)&0x20));            // Wait for the proximity data ready bit to be set
 276              		.loc 1 56 0 discriminator 1
 277 0014 8020     		movs	r0, #128
 278 0016 FFF7FEFF 		bl	readVCNL_1
 279              	.LVL32:
 280 001a 8306     		lsls	r3, r0, #26
 281 001c FAD5     		bpl	.L14
  57:./VCNL4010_1.h ****   unsigned int data = readVCNL_1(0x87) << 8;
 282              		.loc 1 57 0
 283 001e 8720     		movs	r0, #135
ARM GAS  C:\Users\HENRYA~1\AppData\Local\Temp\cceIRlNf.s 			page 7


 284 0020 FFF7FEFF 		bl	readVCNL_1
 285              	.LVL33:
 286 0024 0402     		lsls	r4, r0, #8
 287              	.LVL34:
  58:./VCNL4010_1.h ****   data |= readVCNL_1(0x88);
 288              		.loc 1 58 0
 289 0026 8820     		movs	r0, #136
 290 0028 FFF7FEFF 		bl	readVCNL_1
 291              	.LVL35:
 292 002c 2043     		orrs	r0, r4
 293              	.LVL36:
  59:./VCNL4010_1.h ****   return data;
  60:./VCNL4010_1.h **** }
 294              		.loc 1 60 0
 295              		@ sp needed
 296 002e 10BD     		pop	{r4, pc}
 297              		.cfi_endproc
 298              	.LFE39:
 299              		.size	readProximity_1, .-readProximity_1
 300              		.section	.text.readAmbient_1,"ax",%progbits
 301              		.align	2
 302              		.global	readAmbient_1
 303              		.code	16
 304              		.thumb_func
 305              		.type	readAmbient_1, %function
 306              	readAmbient_1:
 307              	.LFB40:
  61:./VCNL4010_1.h **** //Read Ambient Signal
  62:./VCNL4010_1.h **** unsigned int readAmbient_1(){
 308              		.loc 1 62 0
 309              		.cfi_startproc
 310              		@ args = 0, pretend = 0, frame = 0
 311              		@ frame_needed = 0, uses_anonymous_args = 0
 312 0000 10B5     		push	{r4, lr}
 313              		.cfi_def_cfa_offset 8
 314              		.cfi_offset 4, -8
 315              		.cfi_offset 14, -4
  63:./VCNL4010_1.h ****   int temp = readVCNL_1(0x80);
 316              		.loc 1 63 0
 317 0002 8020     		movs	r0, #128
 318 0004 FFF7FEFF 		bl	readVCNL_1
 319              	.LVL37:
  64:./VCNL4010_1.h ****   writeVCNL_1(0x80, temp | 0x10);             // command the sensor to perform ambient measure
 320              		.loc 1 64 0
 321 0008 1023     		movs	r3, #16
 322 000a 0100     		movs	r1, r0
 323 000c 1943     		orrs	r1, r3
 324 000e 8020     		movs	r0, #128
 325              	.LVL38:
 326 0010 FFF7FEFF 		bl	writeVCNL_1
 327              	.LVL39:
 328              	.L16:
  65:./VCNL4010_1.h ****   while(!(readVCNL_1(0x80)&0x40));            // wait for the proximity data ready bit to be set
 329              		.loc 1 65 0 discriminator 1
 330 0014 8020     		movs	r0, #128
 331 0016 FFF7FEFF 		bl	readVCNL_1
 332              	.LVL40:
ARM GAS  C:\Users\HENRYA~1\AppData\Local\Temp\cceIRlNf.s 			page 8


 333 001a 4306     		lsls	r3, r0, #25
 334 001c FAD5     		bpl	.L16
  66:./VCNL4010_1.h ****   unsigned int data = readVCNL_1(0x85) << 8;  
 335              		.loc 1 66 0
 336 001e 8520     		movs	r0, #133
 337 0020 FFF7FEFF 		bl	readVCNL_1
 338              	.LVL41:
 339 0024 0402     		lsls	r4, r0, #8
 340              	.LVL42:
  67:./VCNL4010_1.h ****   data |= readVCNL_1(0x86);
 341              		.loc 1 67 0
 342 0026 8620     		movs	r0, #134
 343 0028 FFF7FEFF 		bl	readVCNL_1
 344              	.LVL43:
 345 002c 2043     		orrs	r0, r4
 346              	.LVL44:
  68:./VCNL4010_1.h ****   return data;
  69:./VCNL4010_1.h **** }
 347              		.loc 1 69 0
 348              		@ sp needed
 349 002e 10BD     		pop	{r4, pc}
 350              		.cfi_endproc
 351              	.LFE40:
 352              		.size	readAmbient_1, .-readAmbient_1
 353              		.section	.text.writeVCNL_2,"ax",%progbits
 354              		.align	2
 355              		.global	writeVCNL_2
 356              		.code	16
 357              		.thumb_func
 358              		.type	writeVCNL_2, %function
 359              	writeVCNL_2:
 360              	.LFB41:
 361              		.file 2 "./VCNL4010_2.h"
   1:./VCNL4010_2.h **** #include <project.h>
   2:./VCNL4010_2.h **** #define VCNL4010_ADDRESS 0x13
   3:./VCNL4010_2.h **** 
   4:./VCNL4010_2.h **** int ii=0;
   5:./VCNL4010_2.h **** //Send Data
   6:./VCNL4010_2.h **** void writeVCNL_2(int address, int data){
 362              		.loc 2 6 0
 363              		.cfi_startproc
 364              		@ args = 0, pretend = 0, frame = 8
 365              		@ frame_needed = 0, uses_anonymous_args = 0
 366              	.LVL45:
 367 0000 10B5     		push	{r4, lr}
 368              		.cfi_def_cfa_offset 8
 369              		.cfi_offset 4, -8
 370              		.cfi_offset 14, -4
 371 0002 82B0     		sub	sp, sp, #8
 372              		.cfi_def_cfa_offset 16
   7:./VCNL4010_2.h ****     uint8 Write_buf[2]={0};
 373              		.loc 2 7 0
 374 0004 01AC     		add	r4, sp, #4
   8:./VCNL4010_2.h ****     Write_buf[0]=address;
 375              		.loc 2 8 0
 376 0006 2070     		strb	r0, [r4]
   9:./VCNL4010_2.h ****     Write_buf[1]=data;
ARM GAS  C:\Users\HENRYA~1\AppData\Local\Temp\cceIRlNf.s 			page 9


 377              		.loc 2 9 0
 378 0008 6170     		strb	r1, [r4, #1]
  10:./VCNL4010_2.h ****     SENSOR_2_I2CMasterWriteBuf(VCNL4010_ADDRESS,(uint8 *)Write_buf,2,SENSOR_2_I2C_MODE_COMPLETE_XFE
 379              		.loc 2 10 0
 380 000a 0023     		movs	r3, #0
 381 000c 0222     		movs	r2, #2
 382 000e 2100     		movs	r1, r4
 383              	.LVL46:
 384 0010 1320     		movs	r0, #19
 385              	.LVL47:
 386 0012 FFF7FEFF 		bl	SENSOR_2_I2CMasterWriteBuf
 387              	.LVL48:
 388              	.L18:
  11:./VCNL4010_2.h ****     while((SENSOR_2_I2CMasterStatus()&SENSOR_2_I2C_MSTAT_WR_CMPLT)==0){}
 389              		.loc 2 11 0 discriminator 1
 390 0016 FFF7FEFF 		bl	SENSOR_2_I2CMasterStatus
 391              	.LVL49:
 392 001a 8307     		lsls	r3, r0, #30
 393 001c FBD5     		bpl	.L18
  12:./VCNL4010_2.h ****     return;
  13:./VCNL4010_2.h **** }
 394              		.loc 2 13 0
 395 001e 02B0     		add	sp, sp, #8
 396              		@ sp needed
 397 0020 10BD     		pop	{r4, pc}
 398              		.cfi_endproc
 399              	.LFE41:
 400              		.size	writeVCNL_2, .-writeVCNL_2
 401 0022 C046     		.section	.text.readVCNL_2,"ax",%progbits
 402              		.align	2
 403              		.global	readVCNL_2
 404              		.code	16
 405              		.thumb_func
 406              		.type	readVCNL_2, %function
 407              	readVCNL_2:
 408              	.LFB42:
  14:./VCNL4010_2.h **** //Read Data
  15:./VCNL4010_2.h **** int readVCNL_2(int address){
 409              		.loc 2 15 0
 410              		.cfi_startproc
 411              		@ args = 0, pretend = 0, frame = 8
 412              		@ frame_needed = 0, uses_anonymous_args = 0
 413              	.LVL50:
 414 0000 00B5     		push	{lr}
 415              		.cfi_def_cfa_offset 4
 416              		.cfi_offset 14, -4
 417 0002 83B0     		sub	sp, sp, #12
 418              		.cfi_def_cfa_offset 16
  16:./VCNL4010_2.h ****     uint8 Write_buf[1]={0};
 419              		.loc 2 16 0
 420 0004 01A9     		add	r1, sp, #4
  17:./VCNL4010_2.h ****     Write_buf[0]=address;
 421              		.loc 2 17 0
 422 0006 0870     		strb	r0, [r1]
  18:./VCNL4010_2.h ****     uint8 read_Buf[1]={0};
 423              		.loc 2 18 0
 424 0008 0023     		movs	r3, #0
ARM GAS  C:\Users\HENRYA~1\AppData\Local\Temp\cceIRlNf.s 			page 10


 425 000a 6A46     		mov	r2, sp
 426 000c 1370     		strb	r3, [r2]
  19:./VCNL4010_2.h ****     SENSOR_2_I2CMasterWriteBuf(VCNL4010_ADDRESS,(uint8 *)Write_buf,1,SENSOR_2_I2C_MODE_NO_STOP);
 427              		.loc 2 19 0
 428 000e 0233     		adds	r3, r3, #2
 429 0010 0122     		movs	r2, #1
 430 0012 1320     		movs	r0, #19
 431              	.LVL51:
 432 0014 FFF7FEFF 		bl	SENSOR_2_I2CMasterWriteBuf
 433              	.LVL52:
 434              	.L20:
  20:./VCNL4010_2.h ****     while((SENSOR_2_I2CMasterStatus()&SENSOR_2_I2C_MSTAT_WR_CMPLT)==0){}
 435              		.loc 2 20 0 discriminator 1
 436 0018 FFF7FEFF 		bl	SENSOR_2_I2CMasterStatus
 437              	.LVL53:
 438 001c 8307     		lsls	r3, r0, #30
 439 001e FBD5     		bpl	.L20
  21:./VCNL4010_2.h ****     SENSOR_2_I2CMasterReadBuf(VCNL4010_ADDRESS,(uint8 *)read_Buf,1,SENSOR_2_I2C_MODE_REPEAT_START);
 440              		.loc 2 21 0
 441 0020 0123     		movs	r3, #1
 442 0022 0122     		movs	r2, #1
 443 0024 6946     		mov	r1, sp
 444 0026 1320     		movs	r0, #19
 445 0028 FFF7FEFF 		bl	SENSOR_2_I2CMasterReadBuf
 446              	.LVL54:
 447              	.L21:
  22:./VCNL4010_2.h ****     while((SENSOR_2_I2CMasterStatus()&SENSOR_2_I2C_MSTAT_RD_CMPLT)==0){}
 448              		.loc 2 22 0 discriminator 1
 449 002c FFF7FEFF 		bl	SENSOR_2_I2CMasterStatus
 450              	.LVL55:
 451 0030 C307     		lsls	r3, r0, #31
 452 0032 FBD5     		bpl	.L21
  23:./VCNL4010_2.h ****     return read_Buf[0];
 453              		.loc 2 23 0
 454 0034 6B46     		mov	r3, sp
 455 0036 1878     		ldrb	r0, [r3]
  24:./VCNL4010_2.h **** }
 456              		.loc 2 24 0
 457 0038 03B0     		add	sp, sp, #12
 458              		@ sp needed
 459 003a 00BD     		pop	{pc}
 460              		.cfi_endproc
 461              	.LFE42:
 462              		.size	readVCNL_2, .-readVCNL_2
 463              		.section	.text.initVCNL_2,"ax",%progbits
 464              		.align	2
 465              		.global	initVCNL_2
 466              		.code	16
 467              		.thumb_func
 468              		.type	initVCNL_2, %function
 469              	initVCNL_2:
 470              	.LFB43:
  25:./VCNL4010_2.h **** //Init Sensor
  26:./VCNL4010_2.h **** void initVCNL_2(){
 471              		.loc 2 26 0
 472              		.cfi_startproc
 473              		@ args = 0, pretend = 0, frame = 0
ARM GAS  C:\Users\HENRYA~1\AppData\Local\Temp\cceIRlNf.s 			page 11


 474              		@ frame_needed = 0, uses_anonymous_args = 0
 475 0000 10B5     		push	{r4, lr}
 476              		.cfi_def_cfa_offset 8
 477              		.cfi_offset 4, -8
 478              		.cfi_offset 14, -4
  27:./VCNL4010_2.h ****   int temp = readVCNL_2(0x81);
 479              		.loc 2 27 0
 480 0002 8120     		movs	r0, #129
 481 0004 FFF7FEFF 		bl	readVCNL_2
 482              	.LVL56:
  28:./VCNL4010_2.h ****   if (temp != 0x21){  
 483              		.loc 2 28 0
 484 0008 2128     		cmp	r0, #33
 485 000a 0ED0     		beq	.L23
  29:./VCNL4010_2.h ****     //Led Sequence Fail
  30:./VCNL4010_2.h ****     LED_2_Write(1);
 486              		.loc 2 30 0
 487 000c 0120     		movs	r0, #1
 488              	.LVL57:
 489 000e FFF7FEFF 		bl	LED_2_Write
 490              	.LVL58:
  31:./VCNL4010_2.h ****     CyDelay(500);
 491              		.loc 2 31 0
 492 0012 FA24     		movs	r4, #250
 493 0014 6400     		lsls	r4, r4, #1
 494 0016 2000     		movs	r0, r4
 495 0018 FFF7FEFF 		bl	CyDelay
 496              	.LVL59:
  32:./VCNL4010_2.h ****     LED_2_Write(0);
 497              		.loc 2 32 0
 498 001c 0020     		movs	r0, #0
 499 001e FFF7FEFF 		bl	LED_2_Write
 500              	.LVL60:
  33:./VCNL4010_2.h ****     CyDelay(500);    
 501              		.loc 2 33 0
 502 0022 2000     		movs	r0, r4
 503 0024 FFF7FEFF 		bl	CyDelay
 504              	.LVL61:
 505 0028 1DE0     		b	.L24
 506              	.LVL62:
 507              	.L23:
  34:./VCNL4010_2.h ****   }
  35:./VCNL4010_2.h ****    else{
  36:./VCNL4010_2.h ****     //Led Sequence Sucess
  37:./VCNL4010_2.h ****     LED_2_Write(0);
 508              		.loc 2 37 0
 509 002a 0020     		movs	r0, #0
 510              	.LVL63:
 511 002c FFF7FEFF 		bl	LED_2_Write
 512              	.LVL64:
  38:./VCNL4010_2.h ****     for(ii=1;ii<5;ii++){
 513              		.loc 2 38 0
 514 0030 0122     		movs	r2, #1
 515 0032 154B     		ldr	r3, .L27
 516 0034 5A60     		str	r2, [r3, #4]
 517 0036 0FE0     		b	.L25
 518              	.L26:
ARM GAS  C:\Users\HENRYA~1\AppData\Local\Temp\cceIRlNf.s 			page 12


  39:./VCNL4010_2.h ****         LED_2_Write(1);
 519              		.loc 2 39 0 discriminator 3
 520 0038 0120     		movs	r0, #1
 521 003a FFF7FEFF 		bl	LED_2_Write
 522              	.LVL65:
  40:./VCNL4010_2.h ****         CyDelay(200);
 523              		.loc 2 40 0 discriminator 3
 524 003e C820     		movs	r0, #200
 525 0040 FFF7FEFF 		bl	CyDelay
 526              	.LVL66:
  41:./VCNL4010_2.h ****         LED_2_Write(0);
 527              		.loc 2 41 0 discriminator 3
 528 0044 0020     		movs	r0, #0
 529 0046 FFF7FEFF 		bl	LED_2_Write
 530              	.LVL67:
  42:./VCNL4010_2.h ****         CyDelay(200); 
 531              		.loc 2 42 0 discriminator 3
 532 004a C820     		movs	r0, #200
 533 004c FFF7FEFF 		bl	CyDelay
 534              	.LVL68:
  38:./VCNL4010_2.h ****         LED_2_Write(1);
 535              		.loc 2 38 0 discriminator 3
 536 0050 0D4A     		ldr	r2, .L27
 537 0052 5368     		ldr	r3, [r2, #4]
 538 0054 0133     		adds	r3, r3, #1
 539 0056 5360     		str	r3, [r2, #4]
 540              	.L25:
  38:./VCNL4010_2.h ****         LED_2_Write(1);
 541              		.loc 2 38 0 is_stmt 0 discriminator 1
 542 0058 0B4B     		ldr	r3, .L27
 543 005a 5B68     		ldr	r3, [r3, #4]
 544 005c 042B     		cmp	r3, #4
 545 005e EBDD     		ble	.L26
  43:./VCNL4010_2.h ****         }
  44:./VCNL4010_2.h ****     LED_2_Write(0);
 546              		.loc 2 44 0 is_stmt 1
 547 0060 0020     		movs	r0, #0
 548 0062 FFF7FEFF 		bl	LED_2_Write
 549              	.LVL69:
 550              	.L24:
  45:./VCNL4010_2.h ****   } 
  46:./VCNL4010_2.h ****   //VCNL Init Params
  47:./VCNL4010_2.h ****   writeVCNL_2(0x84, 0x0F); // Configures ambient light measures - Single conversion mode, 128 avera
 551              		.loc 2 47 0
 552 0066 0F21     		movs	r1, #15
 553 0068 8420     		movs	r0, #132
 554 006a FFF7FEFF 		bl	writeVCNL_2
 555              	.LVL70:
  48:./VCNL4010_2.h ****   writeVCNL_2(0x83, 0x32);   // sets IR current in steps of 10mA 0-200mA --> 200mA
 556              		.loc 2 48 0
 557 006e 3221     		movs	r1, #50
 558 0070 8320     		movs	r0, #131
 559 0072 FFF7FEFF 		bl	writeVCNL_2
 560              	.LVL71:
  49:./VCNL4010_2.h ****   writeVCNL_2(0x89, 0);    // Proximity IR test signal freq, 0-3 - 781.25 kHz
 561              		.loc 2 49 0
 562 0076 0021     		movs	r1, #0
ARM GAS  C:\Users\HENRYA~1\AppData\Local\Temp\cceIRlNf.s 			page 13


 563 0078 8920     		movs	r0, #137
 564 007a FFF7FEFF 		bl	writeVCNL_2
 565              	.LVL72:
  50:./VCNL4010_2.h ****   writeVCNL_2(0x8A, 0x81); // proximity modulator timing - 129, recommended by Vishay 
 566              		.loc 2 50 0
 567 007e 8121     		movs	r1, #129
 568 0080 8A20     		movs	r0, #138
 569 0082 FFF7FEFF 		bl	writeVCNL_2
 570              	.LVL73:
  51:./VCNL4010_2.h **** }
 571              		.loc 2 51 0
 572              		@ sp needed
 573 0086 10BD     		pop	{r4, pc}
 574              	.L28:
 575              		.align	2
 576              	.L27:
 577 0088 00000000 		.word	.LANCHOR0
 578              		.cfi_endproc
 579              	.LFE43:
 580              		.size	initVCNL_2, .-initVCNL_2
 581              		.section	.text.readProximity_2,"ax",%progbits
 582              		.align	2
 583              		.global	readProximity_2
 584              		.code	16
 585              		.thumb_func
 586              		.type	readProximity_2, %function
 587              	readProximity_2:
 588              	.LFB44:
  52:./VCNL4010_2.h **** //Read Distance Signal
  53:./VCNL4010_2.h **** unsigned int readProximity_2(){
 589              		.loc 2 53 0
 590              		.cfi_startproc
 591              		@ args = 0, pretend = 0, frame = 0
 592              		@ frame_needed = 0, uses_anonymous_args = 0
 593 0000 10B5     		push	{r4, lr}
 594              		.cfi_def_cfa_offset 8
 595              		.cfi_offset 4, -8
 596              		.cfi_offset 14, -4
  54:./VCNL4010_2.h ****   int temp = readVCNL_2(0x80);
 597              		.loc 2 54 0
 598 0002 8020     		movs	r0, #128
 599 0004 FFF7FEFF 		bl	readVCNL_2
 600              	.LVL74:
  55:./VCNL4010_2.h ****   writeVCNL_2(0x80, temp | 0x08);             // command the sensor to perform a proximity measure
 601              		.loc 2 55 0
 602 0008 0823     		movs	r3, #8
 603 000a 0100     		movs	r1, r0
 604 000c 1943     		orrs	r1, r3
 605 000e 8020     		movs	r0, #128
 606              	.LVL75:
 607 0010 FFF7FEFF 		bl	writeVCNL_2
 608              	.LVL76:
 609              	.L30:
  56:./VCNL4010_2.h ****   while(!(readVCNL_2(0x80)&0x20));            // Wait for the proximity data ready bit to be set
 610              		.loc 2 56 0 discriminator 1
 611 0014 8020     		movs	r0, #128
 612 0016 FFF7FEFF 		bl	readVCNL_2
ARM GAS  C:\Users\HENRYA~1\AppData\Local\Temp\cceIRlNf.s 			page 14


 613              	.LVL77:
 614 001a 8306     		lsls	r3, r0, #26
 615 001c FAD5     		bpl	.L30
  57:./VCNL4010_2.h ****   unsigned int data = readVCNL_2(0x87) << 8;
 616              		.loc 2 57 0
 617 001e 8720     		movs	r0, #135
 618 0020 FFF7FEFF 		bl	readVCNL_2
 619              	.LVL78:
 620 0024 0402     		lsls	r4, r0, #8
 621              	.LVL79:
  58:./VCNL4010_2.h ****   data |= readVCNL_2(0x88);
 622              		.loc 2 58 0
 623 0026 8820     		movs	r0, #136
 624 0028 FFF7FEFF 		bl	readVCNL_2
 625              	.LVL80:
 626 002c 2043     		orrs	r0, r4
 627              	.LVL81:
  59:./VCNL4010_2.h ****   return data;
  60:./VCNL4010_2.h **** }
 628              		.loc 2 60 0
 629              		@ sp needed
 630 002e 10BD     		pop	{r4, pc}
 631              		.cfi_endproc
 632              	.LFE44:
 633              		.size	readProximity_2, .-readProximity_2
 634              		.section	.text.readAmbient_2,"ax",%progbits
 635              		.align	2
 636              		.global	readAmbient_2
 637              		.code	16
 638              		.thumb_func
 639              		.type	readAmbient_2, %function
 640              	readAmbient_2:
 641              	.LFB45:
  61:./VCNL4010_2.h **** //Read Ambient Signal
  62:./VCNL4010_2.h ****  int readAmbient_2(){
 642              		.loc 2 62 0
 643              		.cfi_startproc
 644              		@ args = 0, pretend = 0, frame = 0
 645              		@ frame_needed = 0, uses_anonymous_args = 0
 646 0000 10B5     		push	{r4, lr}
 647              		.cfi_def_cfa_offset 8
 648              		.cfi_offset 4, -8
 649              		.cfi_offset 14, -4
  63:./VCNL4010_2.h ****   int temp = readVCNL_2(0x80);
 650              		.loc 2 63 0
 651 0002 8020     		movs	r0, #128
 652 0004 FFF7FEFF 		bl	readVCNL_2
 653              	.LVL82:
  64:./VCNL4010_2.h ****   writeVCNL_2(0x80, temp | 0x10);             // command the sensor to perform ambient measure
 654              		.loc 2 64 0
 655 0008 1023     		movs	r3, #16
 656 000a 0100     		movs	r1, r0
 657 000c 1943     		orrs	r1, r3
 658 000e 8020     		movs	r0, #128
 659              	.LVL83:
 660 0010 FFF7FEFF 		bl	writeVCNL_2
 661              	.LVL84:
ARM GAS  C:\Users\HENRYA~1\AppData\Local\Temp\cceIRlNf.s 			page 15


 662              	.L32:
  65:./VCNL4010_2.h ****   while(!(readVCNL_2(0x80)&0x40));            // wait for the proximity data ready bit to be set
 663              		.loc 2 65 0 discriminator 1
 664 0014 8020     		movs	r0, #128
 665 0016 FFF7FEFF 		bl	readVCNL_2
 666              	.LVL85:
 667 001a 4306     		lsls	r3, r0, #25
 668 001c FAD5     		bpl	.L32
  66:./VCNL4010_2.h ****   unsigned int data = readVCNL_2(0x85) << 8;  
 669              		.loc 2 66 0
 670 001e 8520     		movs	r0, #133
 671 0020 FFF7FEFF 		bl	readVCNL_2
 672              	.LVL86:
 673 0024 0402     		lsls	r4, r0, #8
 674              	.LVL87:
  67:./VCNL4010_2.h ****   data |= readVCNL_2(0x86);
 675              		.loc 2 67 0
 676 0026 8620     		movs	r0, #134
 677 0028 FFF7FEFF 		bl	readVCNL_2
 678              	.LVL88:
 679 002c 2043     		orrs	r0, r4
 680              	.LVL89:
  68:./VCNL4010_2.h ****   return data;
  69:./VCNL4010_2.h **** }
 681              		.loc 2 69 0
 682              		@ sp needed
 683 002e 10BD     		pop	{r4, pc}
 684              		.cfi_endproc
 685              	.LFE45:
 686              		.size	readAmbient_2, .-readAmbient_2
 687              		.section	.text.writeVCNL_3,"ax",%progbits
 688              		.align	2
 689              		.global	writeVCNL_3
 690              		.code	16
 691              		.thumb_func
 692              		.type	writeVCNL_3, %function
 693              	writeVCNL_3:
 694              	.LFB46:
 695              		.file 3 "./VCNL4010_3.h"
   1:./VCNL4010_3.h **** #include <project.h>
   2:./VCNL4010_3.h **** #define VCNL4010_ADDRESS 0x13
   3:./VCNL4010_3.h **** 
   4:./VCNL4010_3.h **** int iii=0;
   5:./VCNL4010_3.h **** //Send Data
   6:./VCNL4010_3.h **** void writeVCNL_3(int address, int data){
 696              		.loc 3 6 0
 697              		.cfi_startproc
 698              		@ args = 0, pretend = 0, frame = 8
 699              		@ frame_needed = 0, uses_anonymous_args = 0
 700              	.LVL90:
 701 0000 10B5     		push	{r4, lr}
 702              		.cfi_def_cfa_offset 8
 703              		.cfi_offset 4, -8
 704              		.cfi_offset 14, -4
 705 0002 82B0     		sub	sp, sp, #8
 706              		.cfi_def_cfa_offset 16
   7:./VCNL4010_3.h ****     uint8 Write_buf[2]={0};
ARM GAS  C:\Users\HENRYA~1\AppData\Local\Temp\cceIRlNf.s 			page 16


 707              		.loc 3 7 0
 708 0004 01AC     		add	r4, sp, #4
   8:./VCNL4010_3.h ****     Write_buf[0]=address;
 709              		.loc 3 8 0
 710 0006 2070     		strb	r0, [r4]
   9:./VCNL4010_3.h ****     Write_buf[1]=data;
 711              		.loc 3 9 0
 712 0008 6170     		strb	r1, [r4, #1]
  10:./VCNL4010_3.h ****     SENSOR_3_I2CMasterWriteBuf(VCNL4010_ADDRESS,(uint8 *)Write_buf,2,SENSOR_3_I2C_MODE_COMPLETE_XFE
 713              		.loc 3 10 0
 714 000a 0023     		movs	r3, #0
 715 000c 0222     		movs	r2, #2
 716 000e 2100     		movs	r1, r4
 717              	.LVL91:
 718 0010 1320     		movs	r0, #19
 719              	.LVL92:
 720 0012 FFF7FEFF 		bl	SENSOR_3_I2CMasterWriteBuf
 721              	.LVL93:
 722              	.L34:
  11:./VCNL4010_3.h ****     while((SENSOR_3_I2CMasterStatus()&SENSOR_3_I2C_MSTAT_WR_CMPLT)==0){}
 723              		.loc 3 11 0 discriminator 1
 724 0016 FFF7FEFF 		bl	SENSOR_3_I2CMasterStatus
 725              	.LVL94:
 726 001a 8307     		lsls	r3, r0, #30
 727 001c FBD5     		bpl	.L34
  12:./VCNL4010_3.h ****     return;
  13:./VCNL4010_3.h **** }
 728              		.loc 3 13 0
 729 001e 02B0     		add	sp, sp, #8
 730              		@ sp needed
 731 0020 10BD     		pop	{r4, pc}
 732              		.cfi_endproc
 733              	.LFE46:
 734              		.size	writeVCNL_3, .-writeVCNL_3
 735 0022 C046     		.section	.text.readVCNL_3,"ax",%progbits
 736              		.align	2
 737              		.global	readVCNL_3
 738              		.code	16
 739              		.thumb_func
 740              		.type	readVCNL_3, %function
 741              	readVCNL_3:
 742              	.LFB47:
  14:./VCNL4010_3.h **** //Read Data
  15:./VCNL4010_3.h **** int readVCNL_3(int address){
 743              		.loc 3 15 0
 744              		.cfi_startproc
 745              		@ args = 0, pretend = 0, frame = 8
 746              		@ frame_needed = 0, uses_anonymous_args = 0
 747              	.LVL95:
 748 0000 00B5     		push	{lr}
 749              		.cfi_def_cfa_offset 4
 750              		.cfi_offset 14, -4
 751 0002 83B0     		sub	sp, sp, #12
 752              		.cfi_def_cfa_offset 16
  16:./VCNL4010_3.h ****     uint8 Write_buf[1]={0};
 753              		.loc 3 16 0
 754 0004 01A9     		add	r1, sp, #4
ARM GAS  C:\Users\HENRYA~1\AppData\Local\Temp\cceIRlNf.s 			page 17


  17:./VCNL4010_3.h ****     Write_buf[0]=address;
 755              		.loc 3 17 0
 756 0006 0870     		strb	r0, [r1]
  18:./VCNL4010_3.h ****     uint8 read_Buf[1]={0};
 757              		.loc 3 18 0
 758 0008 0023     		movs	r3, #0
 759 000a 6A46     		mov	r2, sp
 760 000c 1370     		strb	r3, [r2]
  19:./VCNL4010_3.h ****     SENSOR_3_I2CMasterWriteBuf(VCNL4010_ADDRESS,(uint8 *)Write_buf,1,SENSOR_3_I2C_MODE_NO_STOP);
 761              		.loc 3 19 0
 762 000e 0233     		adds	r3, r3, #2
 763 0010 0122     		movs	r2, #1
 764 0012 1320     		movs	r0, #19
 765              	.LVL96:
 766 0014 FFF7FEFF 		bl	SENSOR_3_I2CMasterWriteBuf
 767              	.LVL97:
 768              	.L36:
  20:./VCNL4010_3.h ****     while((SENSOR_3_I2CMasterStatus()&SENSOR_3_I2C_MSTAT_WR_CMPLT)==0){}
 769              		.loc 3 20 0 discriminator 1
 770 0018 FFF7FEFF 		bl	SENSOR_3_I2CMasterStatus
 771              	.LVL98:
 772 001c 8307     		lsls	r3, r0, #30
 773 001e FBD5     		bpl	.L36
  21:./VCNL4010_3.h ****     SENSOR_3_I2CMasterReadBuf(VCNL4010_ADDRESS,(uint8 *)read_Buf,1,SENSOR_3_I2C_MODE_REPEAT_START);
 774              		.loc 3 21 0
 775 0020 0123     		movs	r3, #1
 776 0022 0122     		movs	r2, #1
 777 0024 6946     		mov	r1, sp
 778 0026 1320     		movs	r0, #19
 779 0028 FFF7FEFF 		bl	SENSOR_3_I2CMasterReadBuf
 780              	.LVL99:
 781              	.L37:
  22:./VCNL4010_3.h ****     while((SENSOR_3_I2CMasterStatus()&SENSOR_3_I2C_MSTAT_RD_CMPLT)==0){}
 782              		.loc 3 22 0 discriminator 1
 783 002c FFF7FEFF 		bl	SENSOR_3_I2CMasterStatus
 784              	.LVL100:
 785 0030 C307     		lsls	r3, r0, #31
 786 0032 FBD5     		bpl	.L37
  23:./VCNL4010_3.h ****     return read_Buf[0];
 787              		.loc 3 23 0
 788 0034 6B46     		mov	r3, sp
 789 0036 1878     		ldrb	r0, [r3]
  24:./VCNL4010_3.h **** }
 790              		.loc 3 24 0
 791 0038 03B0     		add	sp, sp, #12
 792              		@ sp needed
 793 003a 00BD     		pop	{pc}
 794              		.cfi_endproc
 795              	.LFE47:
 796              		.size	readVCNL_3, .-readVCNL_3
 797              		.section	.text.initVCNL_3,"ax",%progbits
 798              		.align	2
 799              		.global	initVCNL_3
 800              		.code	16
 801              		.thumb_func
 802              		.type	initVCNL_3, %function
 803              	initVCNL_3:
ARM GAS  C:\Users\HENRYA~1\AppData\Local\Temp\cceIRlNf.s 			page 18


 804              	.LFB48:
  25:./VCNL4010_3.h **** //Init Sensor
  26:./VCNL4010_3.h **** void initVCNL_3(){
 805              		.loc 3 26 0
 806              		.cfi_startproc
 807              		@ args = 0, pretend = 0, frame = 0
 808              		@ frame_needed = 0, uses_anonymous_args = 0
 809 0000 10B5     		push	{r4, lr}
 810              		.cfi_def_cfa_offset 8
 811              		.cfi_offset 4, -8
 812              		.cfi_offset 14, -4
  27:./VCNL4010_3.h ****   int temp = readVCNL_3(0x81);
 813              		.loc 3 27 0
 814 0002 8120     		movs	r0, #129
 815 0004 FFF7FEFF 		bl	readVCNL_3
 816              	.LVL101:
  28:./VCNL4010_3.h ****   if (temp != 0x21){  
 817              		.loc 3 28 0
 818 0008 2128     		cmp	r0, #33
 819 000a 0ED0     		beq	.L39
  29:./VCNL4010_3.h ****     //Led Sequence Fail
  30:./VCNL4010_3.h ****     LED_3_Write(1);
 820              		.loc 3 30 0
 821 000c 0120     		movs	r0, #1
 822              	.LVL102:
 823 000e FFF7FEFF 		bl	LED_3_Write
 824              	.LVL103:
  31:./VCNL4010_3.h ****     CyDelay(500);
 825              		.loc 3 31 0
 826 0012 FA24     		movs	r4, #250
 827 0014 6400     		lsls	r4, r4, #1
 828 0016 2000     		movs	r0, r4
 829 0018 FFF7FEFF 		bl	CyDelay
 830              	.LVL104:
  32:./VCNL4010_3.h ****     LED_3_Write(0);
 831              		.loc 3 32 0
 832 001c 0020     		movs	r0, #0
 833 001e FFF7FEFF 		bl	LED_3_Write
 834              	.LVL105:
  33:./VCNL4010_3.h ****     CyDelay(500);    
 835              		.loc 3 33 0
 836 0022 2000     		movs	r0, r4
 837 0024 FFF7FEFF 		bl	CyDelay
 838              	.LVL106:
 839 0028 1DE0     		b	.L40
 840              	.LVL107:
 841              	.L39:
  34:./VCNL4010_3.h ****   }
  35:./VCNL4010_3.h ****    else{
  36:./VCNL4010_3.h ****     //Led Sequence Sucess
  37:./VCNL4010_3.h ****     LED_3_Write(0);
 842              		.loc 3 37 0
 843 002a 0020     		movs	r0, #0
 844              	.LVL108:
 845 002c FFF7FEFF 		bl	LED_3_Write
 846              	.LVL109:
  38:./VCNL4010_3.h ****     for(iii=1;iii<5;iii++){
ARM GAS  C:\Users\HENRYA~1\AppData\Local\Temp\cceIRlNf.s 			page 19


 847              		.loc 3 38 0
 848 0030 0122     		movs	r2, #1
 849 0032 154B     		ldr	r3, .L43
 850 0034 9A60     		str	r2, [r3, #8]
 851 0036 0FE0     		b	.L41
 852              	.L42:
  39:./VCNL4010_3.h ****         LED_3_Write(1);
 853              		.loc 3 39 0 discriminator 3
 854 0038 0120     		movs	r0, #1
 855 003a FFF7FEFF 		bl	LED_3_Write
 856              	.LVL110:
  40:./VCNL4010_3.h ****         CyDelay(200);
 857              		.loc 3 40 0 discriminator 3
 858 003e C820     		movs	r0, #200
 859 0040 FFF7FEFF 		bl	CyDelay
 860              	.LVL111:
  41:./VCNL4010_3.h ****         LED_3_Write(0);
 861              		.loc 3 41 0 discriminator 3
 862 0044 0020     		movs	r0, #0
 863 0046 FFF7FEFF 		bl	LED_3_Write
 864              	.LVL112:
  42:./VCNL4010_3.h ****         CyDelay(200); 
 865              		.loc 3 42 0 discriminator 3
 866 004a C820     		movs	r0, #200
 867 004c FFF7FEFF 		bl	CyDelay
 868              	.LVL113:
  38:./VCNL4010_3.h ****         LED_3_Write(1);
 869              		.loc 3 38 0 discriminator 3
 870 0050 0D4A     		ldr	r2, .L43
 871 0052 9368     		ldr	r3, [r2, #8]
 872 0054 0133     		adds	r3, r3, #1
 873 0056 9360     		str	r3, [r2, #8]
 874              	.L41:
  38:./VCNL4010_3.h ****         LED_3_Write(1);
 875              		.loc 3 38 0 is_stmt 0 discriminator 1
 876 0058 0B4B     		ldr	r3, .L43
 877 005a 9B68     		ldr	r3, [r3, #8]
 878 005c 042B     		cmp	r3, #4
 879 005e EBDD     		ble	.L42
  43:./VCNL4010_3.h ****         }
  44:./VCNL4010_3.h ****     LED_2_Write(0);
 880              		.loc 3 44 0 is_stmt 1
 881 0060 0020     		movs	r0, #0
 882 0062 FFF7FEFF 		bl	LED_2_Write
 883              	.LVL114:
 884              	.L40:
  45:./VCNL4010_3.h ****   } 
  46:./VCNL4010_3.h ****   //VCNL Init Params
  47:./VCNL4010_3.h ****   writeVCNL_3(0x84, 0x0F); // Configures ambient light measures - Single conversion mode, 128 avera
 885              		.loc 3 47 0
 886 0066 0F21     		movs	r1, #15
 887 0068 8420     		movs	r0, #132
 888 006a FFF7FEFF 		bl	writeVCNL_3
 889              	.LVL115:
  48:./VCNL4010_3.h ****   writeVCNL_3(0x83, 0x32);   // sets IR current in steps of 10mA 0-200mA --> 200mA
 890              		.loc 3 48 0
 891 006e 3221     		movs	r1, #50
ARM GAS  C:\Users\HENRYA~1\AppData\Local\Temp\cceIRlNf.s 			page 20


 892 0070 8320     		movs	r0, #131
 893 0072 FFF7FEFF 		bl	writeVCNL_3
 894              	.LVL116:
  49:./VCNL4010_3.h ****   writeVCNL_3(0x89, 0);    // Proximity IR test signal freq, 0-3 - 781.25 kHz
 895              		.loc 3 49 0
 896 0076 0021     		movs	r1, #0
 897 0078 8920     		movs	r0, #137
 898 007a FFF7FEFF 		bl	writeVCNL_3
 899              	.LVL117:
  50:./VCNL4010_3.h ****   writeVCNL_3(0x8A, 0x81); // proximity modulator timing - 129, recommended by Vishay 
 900              		.loc 3 50 0
 901 007e 8121     		movs	r1, #129
 902 0080 8A20     		movs	r0, #138
 903 0082 FFF7FEFF 		bl	writeVCNL_3
 904              	.LVL118:
  51:./VCNL4010_3.h **** }
 905              		.loc 3 51 0
 906              		@ sp needed
 907 0086 10BD     		pop	{r4, pc}
 908              	.L44:
 909              		.align	2
 910              	.L43:
 911 0088 00000000 		.word	.LANCHOR0
 912              		.cfi_endproc
 913              	.LFE48:
 914              		.size	initVCNL_3, .-initVCNL_3
 915              		.section	.text.readProximity_3,"ax",%progbits
 916              		.align	2
 917              		.global	readProximity_3
 918              		.code	16
 919              		.thumb_func
 920              		.type	readProximity_3, %function
 921              	readProximity_3:
 922              	.LFB49:
  52:./VCNL4010_3.h **** //Read Distance Signal
  53:./VCNL4010_3.h **** unsigned int readProximity_3(){
 923              		.loc 3 53 0
 924              		.cfi_startproc
 925              		@ args = 0, pretend = 0, frame = 0
 926              		@ frame_needed = 0, uses_anonymous_args = 0
 927 0000 10B5     		push	{r4, lr}
 928              		.cfi_def_cfa_offset 8
 929              		.cfi_offset 4, -8
 930              		.cfi_offset 14, -4
  54:./VCNL4010_3.h ****   int temp = readVCNL_3(0x80);
 931              		.loc 3 54 0
 932 0002 8020     		movs	r0, #128
 933 0004 FFF7FEFF 		bl	readVCNL_3
 934              	.LVL119:
  55:./VCNL4010_3.h ****   writeVCNL_3(0x80, temp | 0x08);             // command the sensor to perform a proximity measure
 935              		.loc 3 55 0
 936 0008 0823     		movs	r3, #8
 937 000a 0100     		movs	r1, r0
 938 000c 1943     		orrs	r1, r3
 939 000e 8020     		movs	r0, #128
 940              	.LVL120:
 941 0010 FFF7FEFF 		bl	writeVCNL_3
ARM GAS  C:\Users\HENRYA~1\AppData\Local\Temp\cceIRlNf.s 			page 21


 942              	.LVL121:
 943              	.L46:
  56:./VCNL4010_3.h ****   while(!(readVCNL_3(0x80)&0x20));            // Wait for the proximity data ready bit to be set
 944              		.loc 3 56 0 discriminator 1
 945 0014 8020     		movs	r0, #128
 946 0016 FFF7FEFF 		bl	readVCNL_3
 947              	.LVL122:
 948 001a 8306     		lsls	r3, r0, #26
 949 001c FAD5     		bpl	.L46
  57:./VCNL4010_3.h ****   unsigned int data = readVCNL_3(0x87) << 8;
 950              		.loc 3 57 0
 951 001e 8720     		movs	r0, #135
 952 0020 FFF7FEFF 		bl	readVCNL_3
 953              	.LVL123:
 954 0024 0402     		lsls	r4, r0, #8
 955              	.LVL124:
  58:./VCNL4010_3.h ****   data |= readVCNL_3(0x88);
 956              		.loc 3 58 0
 957 0026 8820     		movs	r0, #136
 958 0028 FFF7FEFF 		bl	readVCNL_3
 959              	.LVL125:
 960 002c 2043     		orrs	r0, r4
 961              	.LVL126:
  59:./VCNL4010_3.h ****   return data;
  60:./VCNL4010_3.h **** }
 962              		.loc 3 60 0
 963              		@ sp needed
 964 002e 10BD     		pop	{r4, pc}
 965              		.cfi_endproc
 966              	.LFE49:
 967              		.size	readProximity_3, .-readProximity_3
 968              		.section	.text.readAmbient_3,"ax",%progbits
 969              		.align	2
 970              		.global	readAmbient_3
 971              		.code	16
 972              		.thumb_func
 973              		.type	readAmbient_3, %function
 974              	readAmbient_3:
 975              	.LFB50:
  61:./VCNL4010_3.h **** //Read Ambient Signal
  62:./VCNL4010_3.h **** unsigned int readAmbient_3(){
 976              		.loc 3 62 0
 977              		.cfi_startproc
 978              		@ args = 0, pretend = 0, frame = 0
 979              		@ frame_needed = 0, uses_anonymous_args = 0
 980 0000 10B5     		push	{r4, lr}
 981              		.cfi_def_cfa_offset 8
 982              		.cfi_offset 4, -8
 983              		.cfi_offset 14, -4
  63:./VCNL4010_3.h ****   int temp = readVCNL_3(0x80);
 984              		.loc 3 63 0
 985 0002 8020     		movs	r0, #128
 986 0004 FFF7FEFF 		bl	readVCNL_3
 987              	.LVL127:
  64:./VCNL4010_3.h ****   writeVCNL_3(0x80, temp | 0x10);             // command the sensor to perform ambient measure
 988              		.loc 3 64 0
 989 0008 1023     		movs	r3, #16
ARM GAS  C:\Users\HENRYA~1\AppData\Local\Temp\cceIRlNf.s 			page 22


 990 000a 0100     		movs	r1, r0
 991 000c 1943     		orrs	r1, r3
 992 000e 8020     		movs	r0, #128
 993              	.LVL128:
 994 0010 FFF7FEFF 		bl	writeVCNL_3
 995              	.LVL129:
 996              	.L48:
  65:./VCNL4010_3.h ****   while(!(readVCNL_3(0x80)&0x40));            // wait for the proximity data ready bit to be set
 997              		.loc 3 65 0 discriminator 1
 998 0014 8020     		movs	r0, #128
 999 0016 FFF7FEFF 		bl	readVCNL_3
 1000              	.LVL130:
 1001 001a 4306     		lsls	r3, r0, #25
 1002 001c FAD5     		bpl	.L48
  66:./VCNL4010_3.h ****   unsigned int data = readVCNL_3(0x85) << 8;  
 1003              		.loc 3 66 0
 1004 001e 8520     		movs	r0, #133
 1005 0020 FFF7FEFF 		bl	readVCNL_3
 1006              	.LVL131:
 1007 0024 0402     		lsls	r4, r0, #8
 1008              	.LVL132:
  67:./VCNL4010_3.h ****   data |= readVCNL_3(0x86);
 1009              		.loc 3 67 0
 1010 0026 8620     		movs	r0, #134
 1011 0028 FFF7FEFF 		bl	readVCNL_3
 1012              	.LVL133:
 1013 002c 2043     		orrs	r0, r4
 1014              	.LVL134:
  68:./VCNL4010_3.h ****   return data;
  69:./VCNL4010_3.h **** }
 1015              		.loc 3 69 0
 1016              		@ sp needed
 1017 002e 10BD     		pop	{r4, pc}
 1018              		.cfi_endproc
 1019              	.LFE50:
 1020              		.size	readAmbient_3, .-readAmbient_3
 1021              		.section	.text.error_data,"ax",%progbits
 1022              		.align	2
 1023              		.global	error_data
 1024              		.code	16
 1025              		.thumb_func
 1026              		.type	error_data, %function
 1027              	error_data:
 1028              	.LFB51:
 1029              		.file 4 "./AX12.h"
   1:./AX12.h      **** #include <DynamixelSerial1.h>
   2:./AX12.h      **** #include <project.h>
   3:./AX12.h      **** 
   4:./AX12.h      **** //////actualizado 2.0     <---------------------------------------------
   5:./AX12.h      **** unsigned char Checksum;
   6:./AX12.h      **** unsigned char Incoming_Byte,Temperature_Byte,Error_Byte,Incoming_Byte2,Position_Long_Byte, Position
   7:./AX12.h      **** int Time_Counter;
   8:./AX12.h      **** //The functions are based on the arduino library
   9:./AX12.h      **** 
  10:./AX12.h      **** 
  11:./AX12.h      **** int error_data (){
 1030              		.loc 4 11 0
ARM GAS  C:\Users\HENRYA~1\AppData\Local\Temp\cceIRlNf.s 			page 23


 1031              		.cfi_startproc
 1032              		@ args = 0, pretend = 0, frame = 0
 1033              		@ frame_needed = 0, uses_anonymous_args = 0
 1034 0000 10B5     		push	{r4, lr}
 1035              		.cfi_def_cfa_offset 8
 1036              		.cfi_offset 4, -8
 1037              		.cfi_offset 14, -4
  12:./AX12.h      ****     Time_Counter=0;
 1038              		.loc 4 12 0
 1039 0002 0022     		movs	r2, #0
 1040 0004 224B     		ldr	r3, .L55
 1041 0006 1A60     		str	r2, [r3]
  13:./AX12.h      ****     CyDelay(20); ///// delay para recibir
 1042              		.loc 4 13 0
 1043 0008 1420     		movs	r0, #20
 1044 000a FFF7FEFF 		bl	CyDelay
 1045              	.LVL135:
  14:./AX12.h      ****     while((RX_GetRxBufferSize() < 6) & (Time_Counter==TIME_OUT))
 1046              		.loc 4 14 0
 1047 000e 06E0     		b	.L50
 1048              	.L51:
  15:./AX12.h      ****     {Time_Counter++;
 1049              		.loc 4 15 0
 1050 0010 0132     		adds	r2, r2, #1
 1051 0012 1F4B     		ldr	r3, .L55
 1052 0014 1A60     		str	r2, [r3]
  16:./AX12.h      ****     CyDelayUs(1000);
 1053              		.loc 4 16 0
 1054 0016 FA20     		movs	r0, #250
 1055 0018 8000     		lsls	r0, r0, #2
 1056 001a FFF7FEFF 		bl	CyDelayUs
 1057              	.LVL136:
 1058              	.L50:
  14:./AX12.h      ****     while((RX_GetRxBufferSize() < 6) & (Time_Counter==TIME_OUT))
 1059              		.loc 4 14 0
 1060 001e FFF7FEFF 		bl	RX_GetRxBufferSize
 1061              	.LVL137:
 1062 0022 1B4B     		ldr	r3, .L55
 1063 0024 1A68     		ldr	r2, [r3]
 1064 0026 0023     		movs	r3, #0
 1065 0028 0521     		movs	r1, #5
 1066 002a 8142     		cmp	r1, r0
 1067 002c 5B41     		adcs	r3, r3, r3
 1068 002e 1100     		movs	r1, r2
 1069 0030 0A39     		subs	r1, r1, #10
 1070 0032 4842     		rsbs	r0, r1, #0
 1071 0034 4141     		adcs	r1, r1, r0
 1072 0036 1942     		tst	r1, r3
 1073 0038 EAD1     		bne	.L51
 1074 003a 21E0     		b	.L52
 1075              	.L54:
  17:./AX12.h      ****         }
  18:./AX12.h      ****     while (RX_GetRxBufferSize() > 0){ 
  19:./AX12.h      ****         Incoming_Byte =    RX_GetChar();
 1076              		.loc 4 19 0
 1077 003c FFF7FEFF 		bl	RX_GetChar
 1078              	.LVL138:
ARM GAS  C:\Users\HENRYA~1\AppData\Local\Temp\cceIRlNf.s 			page 24


 1079 0040 144C     		ldr	r4, .L55+4
 1080 0042 2070     		strb	r0, [r4]
  20:./AX12.h      ****         Incoming_Byte2 =    RX_GetChar();
 1081              		.loc 4 20 0
 1082 0044 FFF7FEFF 		bl	RX_GetChar
 1083              	.LVL139:
 1084 0048 134B     		ldr	r3, .L55+8
 1085 004a 1870     		strb	r0, [r3]
  21:./AX12.h      **** 		if ( (Incoming_Byte == 255) & (Incoming_Byte2 == 255) ){
 1086              		.loc 4 21 0
 1087 004c 2378     		ldrb	r3, [r4]
 1088 004e FF3B     		subs	r3, r3, #255
 1089 0050 5A42     		rsbs	r2, r3, #0
 1090 0052 5341     		adcs	r3, r3, r2
 1091 0054 FF38     		subs	r0, r0, #255
 1092 0056 4242     		rsbs	r2, r0, #0
 1093 0058 5041     		adcs	r0, r0, r2
 1094 005a 1842     		tst	r0, r3
 1095 005c 10D0     		beq	.L52
  22:./AX12.h      ****             RX_GetChar();    //ID motor
 1096              		.loc 4 22 0
 1097 005e FFF7FEFF 		bl	RX_GetChar
 1098              	.LVL140:
  23:./AX12.h      ****             RX_GetChar();   // Length                                                              
 1099              		.loc 4 23 0
 1100 0062 FFF7FEFF 		bl	RX_GetChar
 1101              	.LVL141:
  24:./AX12.h      **** 	        Error_Byte =   RX_GetChar();   // Error                    
 1102              		.loc 4 24 0
 1103 0066 FFF7FEFF 		bl	RX_GetChar
 1104              	.LVL142:
 1105 006a 0C4C     		ldr	r4, .L55+12
 1106 006c 2070     		strb	r0, [r4]
  25:./AX12.h      **** 		    RX_GetChar(); ///check
 1107              		.loc 4 25 0
 1108 006e FFF7FEFF 		bl	RX_GetChar
 1109              	.LVL143:
  26:./AX12.h      **** 	        RX_ClearRxBuffer(); //limpia buffer 
 1110              		.loc 4 26 0
 1111 0072 FFF7FEFF 		bl	RX_ClearRxBuffer
 1112              	.LVL144:
  27:./AX12.h      ****             CyDelay(10);
 1113              		.loc 4 27 0
 1114 0076 0A20     		movs	r0, #10
 1115 0078 FFF7FEFF 		bl	CyDelay
 1116              	.LVL145:
  28:./AX12.h      ****             return (Error_Byte);        
 1117              		.loc 4 28 0
 1118 007c 2078     		ldrb	r0, [r4]
 1119 007e 05E0     		b	.L53
 1120              	.L52:
  18:./AX12.h      ****         Incoming_Byte =    RX_GetChar();
 1121              		.loc 4 18 0
 1122 0080 FFF7FEFF 		bl	RX_GetRxBufferSize
 1123              	.LVL146:
 1124 0084 0028     		cmp	r0, #0
 1125 0086 D9D1     		bne	.L54
ARM GAS  C:\Users\HENRYA~1\AppData\Local\Temp\cceIRlNf.s 			page 25


  29:./AX12.h      **** 		} 
  30:./AX12.h      ****    }
  31:./AX12.h      ****     return (Error_Byte);  //ax no responde
 1126              		.loc 4 31 0
 1127 0088 044B     		ldr	r3, .L55+12
 1128 008a 1878     		ldrb	r0, [r3]
 1129              	.L53:
  32:./AX12.h      **** }
 1130              		.loc 4 32 0
 1131              		@ sp needed
 1132 008c 10BD     		pop	{r4, pc}
 1133              	.L56:
 1134 008e C046     		.align	2
 1135              	.L55:
 1136 0090 00000000 		.word	Time_Counter
 1137 0094 00000000 		.word	Incoming_Byte
 1138 0098 00000000 		.word	Incoming_Byte2
 1139 009c 00000000 		.word	Error_Byte
 1140              		.cfi_endproc
 1141              	.LFE51:
 1142              		.size	error_data, .-error_data
 1143              		.section	.text.readtemperature,"ax",%progbits
 1144              		.align	2
 1145              		.global	readtemperature
 1146              		.code	16
 1147              		.thumb_func
 1148              		.type	readtemperature, %function
 1149              	readtemperature:
 1150              	.LFB52:
  33:./AX12.h      **** 
  34:./AX12.h      **** 
  35:./AX12.h      **** int readtemperature(unsigned char ID){
 1151              		.loc 4 35 0
 1152              		.cfi_startproc
 1153              		@ args = 0, pretend = 0, frame = 0
 1154              		@ frame_needed = 0, uses_anonymous_args = 0
 1155              	.LVL147:
 1156 0000 70B5     		push	{r4, r5, r6, lr}
 1157              		.cfi_def_cfa_offset 16
 1158              		.cfi_offset 4, -16
 1159              		.cfi_offset 5, -12
 1160              		.cfi_offset 6, -8
 1161              		.cfi_offset 14, -4
 1162 0002 0500     		movs	r5, r0
  36:./AX12.h      ****     Checksum = (~(ID + AX_TEM_LENGTH  + AX_READ_DATA + AX_PRESENT_TEMPERATURE + AX_BYTE_READ))&0xFF
 1163              		.loc 4 36 0
 1164 0004 384C     		ldr	r4, .L63
 1165 0006 0300     		movs	r3, r0
 1166 0008 3233     		adds	r3, r3, #50
 1167 000a DB43     		mvns	r3, r3
 1168 000c 2370     		strb	r3, [r4]
  37:./AX12.h      ****     TXC_Write(2); ////habilita tx  2 
 1169              		.loc 4 37 0
 1170 000e 0220     		movs	r0, #2
 1171              	.LVL148:
 1172 0010 FFF7FEFF 		bl	TXC_Write
 1173              	.LVL149:
ARM GAS  C:\Users\HENRYA~1\AppData\Local\Temp\cceIRlNf.s 			page 26


  38:./AX12.h      ****     MOTOR_PutChar(AX_START);
 1174              		.loc 4 38 0
 1175 0014 FF20     		movs	r0, #255
 1176 0016 FFF7FEFF 		bl	MOTOR_PutChar
 1177              	.LVL150:
  39:./AX12.h      ****     MOTOR_PutChar(AX_START);
 1178              		.loc 4 39 0
 1179 001a FF20     		movs	r0, #255
 1180 001c FFF7FEFF 		bl	MOTOR_PutChar
 1181              	.LVL151:
  40:./AX12.h      ****     MOTOR_PutChar(ID);
 1182              		.loc 4 40 0
 1183 0020 2800     		movs	r0, r5
 1184 0022 FFF7FEFF 		bl	MOTOR_PutChar
 1185              	.LVL152:
  41:./AX12.h      ****     MOTOR_PutChar(AX_TEM_LENGTH);
 1186              		.loc 4 41 0
 1187 0026 0420     		movs	r0, #4
 1188 0028 FFF7FEFF 		bl	MOTOR_PutChar
 1189              	.LVL153:
  42:./AX12.h      ****     MOTOR_PutChar(AX_READ_DATA);
 1190              		.loc 4 42 0
 1191 002c 0220     		movs	r0, #2
 1192 002e FFF7FEFF 		bl	MOTOR_PutChar
 1193              	.LVL154:
  43:./AX12.h      ****     MOTOR_PutChar(AX_PRESENT_TEMPERATURE);
 1194              		.loc 4 43 0
 1195 0032 2B20     		movs	r0, #43
 1196 0034 FFF7FEFF 		bl	MOTOR_PutChar
 1197              	.LVL155:
  44:./AX12.h      ****     MOTOR_PutChar(AX_BYTE_READ);
 1198              		.loc 4 44 0
 1199 0038 0120     		movs	r0, #1
 1200 003a FFF7FEFF 		bl	MOTOR_PutChar
 1201              	.LVL156:
  45:./AX12.h      ****     MOTOR_PutChar(Checksum);
 1202              		.loc 4 45 0
 1203 003e 2078     		ldrb	r0, [r4]
 1204 0040 FFF7FEFF 		bl	MOTOR_PutChar
 1205              	.LVL157:
  46:./AX12.h      ****     CyDelayUs(TX_DELAY_TIME);
 1206              		.loc 4 46 0
 1207 0044 C820     		movs	r0, #200
 1208 0046 4000     		lsls	r0, r0, #1
 1209 0048 FFF7FEFF 		bl	CyDelayUs
 1210              	.LVL158:
  47:./AX12.h      ****     CyDelay(5);  /// cambio de estado delay para buffer de salida
 1211              		.loc 4 47 0
 1212 004c 0520     		movs	r0, #5
 1213 004e FFF7FEFF 		bl	CyDelay
 1214              	.LVL159:
  48:./AX12.h      ****     TXC_Write(1); ///habilita rx 1 
 1215              		.loc 4 48 0
 1216 0052 0120     		movs	r0, #1
 1217 0054 FFF7FEFF 		bl	TXC_Write
 1218              	.LVL160:
  49:./AX12.h      ****     Time_Counter=0;
ARM GAS  C:\Users\HENRYA~1\AppData\Local\Temp\cceIRlNf.s 			page 27


 1219              		.loc 4 49 0
 1220 0058 0022     		movs	r2, #0
 1221 005a 244B     		ldr	r3, .L63+4
 1222 005c 1A60     		str	r2, [r3]
  50:./AX12.h      ****     CyDelay(20);/// delay para recibir
 1223              		.loc 4 50 0
 1224 005e 1420     		movs	r0, #20
 1225 0060 FFF7FEFF 		bl	CyDelay
 1226              	.LVL161:
  51:./AX12.h      ****     while((RX_GetRxBufferSize() < 6) & (Time_Counter==TIME_OUT))
 1227              		.loc 4 51 0
 1228 0064 06E0     		b	.L58
 1229              	.L59:
  52:./AX12.h      ****     {
  53:./AX12.h      ****         Time_Counter++;
 1230              		.loc 4 53 0
 1231 0066 0132     		adds	r2, r2, #1
 1232 0068 204B     		ldr	r3, .L63+4
 1233 006a 1A60     		str	r2, [r3]
  54:./AX12.h      ****         CyDelayUs(1000);    
 1234              		.loc 4 54 0
 1235 006c FA20     		movs	r0, #250
 1236 006e 8000     		lsls	r0, r0, #2
 1237 0070 FFF7FEFF 		bl	CyDelayUs
 1238              	.LVL162:
 1239              	.L58:
  51:./AX12.h      ****     while((RX_GetRxBufferSize() < 6) & (Time_Counter==TIME_OUT))
 1240              		.loc 4 51 0
 1241 0074 FFF7FEFF 		bl	RX_GetRxBufferSize
 1242              	.LVL163:
 1243 0078 1C4B     		ldr	r3, .L63+4
 1244 007a 1A68     		ldr	r2, [r3]
 1245 007c 0023     		movs	r3, #0
 1246 007e 0521     		movs	r1, #5
 1247 0080 8142     		cmp	r1, r0
 1248 0082 5B41     		adcs	r3, r3, r3
 1249 0084 1100     		movs	r1, r2
 1250 0086 0A39     		subs	r1, r1, #10
 1251 0088 4842     		rsbs	r0, r1, #0
 1252 008a 4141     		adcs	r1, r1, r0
 1253 008c 1942     		tst	r1, r3
 1254 008e EAD1     		bne	.L59
 1255 0090 23E0     		b	.L60
 1256              	.L62:
  55:./AX12.h      ****     }
  56:./AX12.h      ****     while (RX_GetRxBufferSize() > 0){
  57:./AX12.h      ****         Incoming_Byte = RX_ReadRxData();
 1257              		.loc 4 57 0
 1258 0092 FFF7FEFF 		bl	RX_ReadRxData
 1259              	.LVL164:
 1260 0096 164C     		ldr	r4, .L63+8
 1261 0098 2070     		strb	r0, [r4]
  58:./AX12.h      ****         Incoming_Byte2= RX_ReadRxData();
 1262              		.loc 4 58 0
 1263 009a FFF7FEFF 		bl	RX_ReadRxData
 1264              	.LVL165:
 1265 009e 154B     		ldr	r3, .L63+12
ARM GAS  C:\Users\HENRYA~1\AppData\Local\Temp\cceIRlNf.s 			page 28


 1266 00a0 1870     		strb	r0, [r3]
  59:./AX12.h      **** 		if ( (Incoming_Byte == 255) & (Incoming_Byte2  == 255) ){
 1267              		.loc 4 59 0
 1268 00a2 2378     		ldrb	r3, [r4]
 1269 00a4 FF3B     		subs	r3, r3, #255
 1270 00a6 5A42     		rsbs	r2, r3, #0
 1271 00a8 5341     		adcs	r3, r3, r2
 1272 00aa FF38     		subs	r0, r0, #255
 1273 00ac 4242     		rsbs	r2, r0, #0
 1274 00ae 5041     		adcs	r0, r0, r2
 1275 00b0 1842     		tst	r0, r3
 1276 00b2 12D0     		beq	.L60
  60:./AX12.h      **** 	        RX_ReadRxData();       // Ax-12 ID
 1277              		.loc 4 60 0
 1278 00b4 FFF7FEFF 		bl	RX_ReadRxData
 1279              	.LVL166:
  61:./AX12.h      **** 			RX_ReadRxData();       // Length
 1280              		.loc 4 61 0
 1281 00b8 FFF7FEFF 		bl	RX_ReadRxData
 1282              	.LVL167:
  62:./AX12.h      **** 	    	RX_ReadRxData();       //error
 1283              		.loc 4 62 0
 1284 00bc FFF7FEFF 		bl	RX_ReadRxData
 1285              	.LVL168:
  63:./AX12.h      ****         	Temperature_Byte= 	RX_ReadRxData(); ///dato
 1286              		.loc 4 63 0
 1287 00c0 FFF7FEFF 		bl	RX_ReadRxData
 1288              	.LVL169:
 1289 00c4 0C4C     		ldr	r4, .L63+16
 1290 00c6 2070     		strb	r0, [r4]
  64:./AX12.h      **** 	        RX_ReadRxData();            //cheaksum           
 1291              		.loc 4 64 0
 1292 00c8 FFF7FEFF 		bl	RX_ReadRxData
 1293              	.LVL170:
  65:./AX12.h      ****             RX_ClearRxBuffer(); //limpia buffer
 1294              		.loc 4 65 0
 1295 00cc FFF7FEFF 		bl	RX_ClearRxBuffer
 1296              	.LVL171:
  66:./AX12.h      ****             CyDelay(10);
 1297              		.loc 4 66 0
 1298 00d0 0A20     		movs	r0, #10
 1299 00d2 FFF7FEFF 		bl	CyDelay
 1300              	.LVL172:
  67:./AX12.h      ****             return (Temperature_Byte);
 1301              		.loc 4 67 0
 1302 00d6 2078     		ldrb	r0, [r4]
 1303 00d8 05E0     		b	.L61
 1304              	.L60:
  56:./AX12.h      ****         Incoming_Byte = RX_ReadRxData();
 1305              		.loc 4 56 0
 1306 00da FFF7FEFF 		bl	RX_GetRxBufferSize
 1307              	.LVL173:
 1308 00de 0028     		cmp	r0, #0
 1309 00e0 D7D1     		bne	.L62
  68:./AX12.h      **** 		}
  69:./AX12.h      ****    }
  70:./AX12.h      **** return (Temperature_Byte);
ARM GAS  C:\Users\HENRYA~1\AppData\Local\Temp\cceIRlNf.s 			page 29


 1310              		.loc 4 70 0
 1311 00e2 054B     		ldr	r3, .L63+16
 1312 00e4 1878     		ldrb	r0, [r3]
 1313              	.L61:
  71:./AX12.h      **** }
 1314              		.loc 4 71 0
 1315              		@ sp needed
 1316 00e6 70BD     		pop	{r4, r5, r6, pc}
 1317              	.L64:
 1318              		.align	2
 1319              	.L63:
 1320 00e8 00000000 		.word	Checksum
 1321 00ec 00000000 		.word	Time_Counter
 1322 00f0 00000000 		.word	Incoming_Byte
 1323 00f4 00000000 		.word	Incoming_Byte2
 1324 00f8 00000000 		.word	Temperature_Byte
 1325              		.cfi_endproc
 1326              	.LFE52:
 1327              		.size	readtemperature, .-readtemperature
 1328              		.section	.text.setID,"ax",%progbits
 1329              		.align	2
 1330              		.global	setID
 1331              		.code	16
 1332              		.thumb_func
 1333              		.type	setID, %function
 1334              	setID:
 1335              	.LFB53:
  72:./AX12.h      **** 
  73:./AX12.h      **** int setID (unsigned char ID,unsigned char newID){
 1336              		.loc 4 73 0
 1337              		.cfi_startproc
 1338              		@ args = 0, pretend = 0, frame = 0
 1339              		@ frame_needed = 0, uses_anonymous_args = 0
 1340              	.LVL174:
 1341 0000 70B5     		push	{r4, r5, r6, lr}
 1342              		.cfi_def_cfa_offset 16
 1343              		.cfi_offset 4, -16
 1344              		.cfi_offset 5, -12
 1345              		.cfi_offset 6, -8
 1346              		.cfi_offset 14, -4
 1347 0002 0500     		movs	r5, r0
 1348 0004 0C00     		movs	r4, r1
  74:./AX12.h      ****     Checksum = (~(ID + AX_ID_LENGTH + AX_WRITE_DATA + AX_ID + newID))&0xFF;
 1349              		.loc 4 74 0
 1350 0006 164E     		ldr	r6, .L66
 1351 0008 4318     		adds	r3, r0, r1
 1352 000a 0A33     		adds	r3, r3, #10
 1353 000c DB43     		mvns	r3, r3
 1354 000e 3370     		strb	r3, [r6]
  75:./AX12.h      ****     TXC_Write(2); ////habilita tx
 1355              		.loc 4 75 0
 1356 0010 0220     		movs	r0, #2
 1357              	.LVL175:
 1358 0012 FFF7FEFF 		bl	TXC_Write
 1359              	.LVL176:
  76:./AX12.h      ****     MOTOR_PutChar(AX_START);              
 1360              		.loc 4 76 0
ARM GAS  C:\Users\HENRYA~1\AppData\Local\Temp\cceIRlNf.s 			page 30


 1361 0016 FF20     		movs	r0, #255
 1362 0018 FFF7FEFF 		bl	MOTOR_PutChar
 1363              	.LVL177:
  77:./AX12.h      ****     MOTOR_PutChar(AX_START);
 1364              		.loc 4 77 0
 1365 001c FF20     		movs	r0, #255
 1366 001e FFF7FEFF 		bl	MOTOR_PutChar
 1367              	.LVL178:
  78:./AX12.h      ****     MOTOR_PutChar(ID);
 1368              		.loc 4 78 0
 1369 0022 2800     		movs	r0, r5
 1370 0024 FFF7FEFF 		bl	MOTOR_PutChar
 1371              	.LVL179:
  79:./AX12.h      ****     MOTOR_PutChar(AX_ID_LENGTH);
 1372              		.loc 4 79 0
 1373 0028 0420     		movs	r0, #4
 1374 002a FFF7FEFF 		bl	MOTOR_PutChar
 1375              	.LVL180:
  80:./AX12.h      ****     MOTOR_PutChar(AX_WRITE_DATA);
 1376              		.loc 4 80 0
 1377 002e 0320     		movs	r0, #3
 1378 0030 FFF7FEFF 		bl	MOTOR_PutChar
 1379              	.LVL181:
  81:./AX12.h      ****     MOTOR_PutChar(AX_ID);
 1380              		.loc 4 81 0
 1381 0034 0320     		movs	r0, #3
 1382 0036 FFF7FEFF 		bl	MOTOR_PutChar
 1383              	.LVL182:
  82:./AX12.h      ****     MOTOR_PutChar(newID);
 1384              		.loc 4 82 0
 1385 003a 2000     		movs	r0, r4
 1386 003c FFF7FEFF 		bl	MOTOR_PutChar
 1387              	.LVL183:
  83:./AX12.h      ****     MOTOR_PutChar(Checksum);
 1388              		.loc 4 83 0
 1389 0040 3078     		ldrb	r0, [r6]
 1390 0042 FFF7FEFF 		bl	MOTOR_PutChar
 1391              	.LVL184:
  84:./AX12.h      ****     CyDelayUs(TX_DELAY_TIME);
 1392              		.loc 4 84 0
 1393 0046 C820     		movs	r0, #200
 1394 0048 4000     		lsls	r0, r0, #1
 1395 004a FFF7FEFF 		bl	CyDelayUs
 1396              	.LVL185:
  85:./AX12.h      ****     CyDelay(5);  /// cambio de estado delay para buffer de salida
 1397              		.loc 4 85 0
 1398 004e 0520     		movs	r0, #5
 1399 0050 FFF7FEFF 		bl	CyDelay
 1400              	.LVL186:
  86:./AX12.h      ****     TXC_Write(1); ///habilita rx 1
 1401              		.loc 4 86 0
 1402 0054 0120     		movs	r0, #1
 1403 0056 FFF7FEFF 		bl	TXC_Write
 1404              	.LVL187:
  87:./AX12.h      ****     return (error_data()); 
 1405              		.loc 4 87 0
 1406 005a FFF7FEFF 		bl	error_data
ARM GAS  C:\Users\HENRYA~1\AppData\Local\Temp\cceIRlNf.s 			page 31


 1407              	.LVL188:
  88:./AX12.h      **** }
 1408              		.loc 4 88 0
 1409              		@ sp needed
 1410 005e 70BD     		pop	{r4, r5, r6, pc}
 1411              	.L67:
 1412              		.align	2
 1413              	.L66:
 1414 0060 00000000 		.word	Checksum
 1415              		.cfi_endproc
 1416              	.LFE53:
 1417              		.size	setID, .-setID
 1418              		.section	.text.ping,"ax",%progbits
 1419              		.align	2
 1420              		.global	ping
 1421              		.code	16
 1422              		.thumb_func
 1423              		.type	ping, %function
 1424              	ping:
 1425              	.LFB54:
  89:./AX12.h      **** 
  90:./AX12.h      **** int ping (unsigned char ID){
 1426              		.loc 4 90 0
 1427              		.cfi_startproc
 1428              		@ args = 0, pretend = 0, frame = 0
 1429              		@ frame_needed = 0, uses_anonymous_args = 0
 1430              	.LVL189:
 1431 0000 70B5     		push	{r4, r5, r6, lr}
 1432              		.cfi_def_cfa_offset 16
 1433              		.cfi_offset 4, -16
 1434              		.cfi_offset 5, -12
 1435              		.cfi_offset 6, -8
 1436              		.cfi_offset 14, -4
 1437 0002 0500     		movs	r5, r0
  91:./AX12.h      ****     Checksum = (~(ID + AX_READ_DATA + AX_PING))&0xFF;
 1438              		.loc 4 91 0
 1439 0004 124C     		ldr	r4, .L69
 1440 0006 C31C     		adds	r3, r0, #3
 1441 0008 DB43     		mvns	r3, r3
 1442 000a 2370     		strb	r3, [r4]
  92:./AX12.h      ****     TXC_Write(2); ////habilita tx
 1443              		.loc 4 92 0
 1444 000c 0220     		movs	r0, #2
 1445              	.LVL190:
 1446 000e FFF7FEFF 		bl	TXC_Write
 1447              	.LVL191:
  93:./AX12.h      ****     MOTOR_PutChar(AX_START);
 1448              		.loc 4 93 0
 1449 0012 FF20     		movs	r0, #255
 1450 0014 FFF7FEFF 		bl	MOTOR_PutChar
 1451              	.LVL192:
  94:./AX12.h      ****     MOTOR_PutChar(AX_START);
 1452              		.loc 4 94 0
 1453 0018 FF20     		movs	r0, #255
 1454 001a FFF7FEFF 		bl	MOTOR_PutChar
 1455              	.LVL193:
  95:./AX12.h      ****     MOTOR_PutChar(ID);
ARM GAS  C:\Users\HENRYA~1\AppData\Local\Temp\cceIRlNf.s 			page 32


 1456              		.loc 4 95 0
 1457 001e 2800     		movs	r0, r5
 1458 0020 FFF7FEFF 		bl	MOTOR_PutChar
 1459              	.LVL194:
  96:./AX12.h      ****     MOTOR_PutChar(AX_READ_DATA);
 1460              		.loc 4 96 0
 1461 0024 0220     		movs	r0, #2
 1462 0026 FFF7FEFF 		bl	MOTOR_PutChar
 1463              	.LVL195:
  97:./AX12.h      ****     MOTOR_PutChar(AX_PING);
 1464              		.loc 4 97 0
 1465 002a 0120     		movs	r0, #1
 1466 002c FFF7FEFF 		bl	MOTOR_PutChar
 1467              	.LVL196:
  98:./AX12.h      ****     MOTOR_PutChar(Checksum);
 1468              		.loc 4 98 0
 1469 0030 2078     		ldrb	r0, [r4]
 1470 0032 FFF7FEFF 		bl	MOTOR_PutChar
 1471              	.LVL197:
  99:./AX12.h      ****     CyDelayUs(TX_DELAY_TIME);
 1472              		.loc 4 99 0
 1473 0036 C820     		movs	r0, #200
 1474 0038 4000     		lsls	r0, r0, #1
 1475 003a FFF7FEFF 		bl	CyDelayUs
 1476              	.LVL198:
 100:./AX12.h      ****     CyDelay(5);  /// cambio de estado delay para buffer de salida
 1477              		.loc 4 100 0
 1478 003e 0520     		movs	r0, #5
 1479 0040 FFF7FEFF 		bl	CyDelay
 1480              	.LVL199:
 101:./AX12.h      ****     TXC_Write(1); ///habilita rx 1
 1481              		.loc 4 101 0
 1482 0044 0120     		movs	r0, #1
 1483 0046 FFF7FEFF 		bl	TXC_Write
 1484              	.LVL200:
 102:./AX12.h      ****     return(error_data()) ; 
 1485              		.loc 4 102 0
 1486 004a FFF7FEFF 		bl	error_data
 1487              	.LVL201:
 103:./AX12.h      **** }
 1488              		.loc 4 103 0
 1489              		@ sp needed
 1490 004e 70BD     		pop	{r4, r5, r6, pc}
 1491              	.L70:
 1492              		.align	2
 1493              	.L69:
 1494 0050 00000000 		.word	Checksum
 1495              		.cfi_endproc
 1496              	.LFE54:
 1497              		.size	ping, .-ping
 1498              		.section	.text.reset,"ax",%progbits
 1499              		.align	2
 1500              		.global	reset
 1501              		.code	16
 1502              		.thumb_func
 1503              		.type	reset, %function
 1504              	reset:
ARM GAS  C:\Users\HENRYA~1\AppData\Local\Temp\cceIRlNf.s 			page 33


 1505              	.LFB55:
 104:./AX12.h      **** 
 105:./AX12.h      **** int reset (unsigned char ID ){
 1506              		.loc 4 105 0
 1507              		.cfi_startproc
 1508              		@ args = 0, pretend = 0, frame = 0
 1509              		@ frame_needed = 0, uses_anonymous_args = 0
 1510              	.LVL202:
 1511 0000 70B5     		push	{r4, r5, r6, lr}
 1512              		.cfi_def_cfa_offset 16
 1513              		.cfi_offset 4, -16
 1514              		.cfi_offset 5, -12
 1515              		.cfi_offset 6, -8
 1516              		.cfi_offset 14, -4
 1517 0002 0500     		movs	r5, r0
 106:./AX12.h      ****     Checksum = (~(ID + AX_RESET_LENGTH + AX_RESET))&0xFF;
 1518              		.loc 4 106 0
 1519 0004 134C     		ldr	r4, .L72
 1520 0006 0300     		movs	r3, r0
 1521 0008 0833     		adds	r3, r3, #8
 1522 000a DB43     		mvns	r3, r3
 1523 000c 2370     		strb	r3, [r4]
 107:./AX12.h      ****     TXC_Write(2); ////habilita tx
 1524              		.loc 4 107 0
 1525 000e 0220     		movs	r0, #2
 1526              	.LVL203:
 1527 0010 FFF7FEFF 		bl	TXC_Write
 1528              	.LVL204:
 108:./AX12.h      ****     MOTOR_PutChar(AX_START);              
 1529              		.loc 4 108 0
 1530 0014 FF20     		movs	r0, #255
 1531 0016 FFF7FEFF 		bl	MOTOR_PutChar
 1532              	.LVL205:
 109:./AX12.h      ****     MOTOR_PutChar(AX_START);
 1533              		.loc 4 109 0
 1534 001a FF20     		movs	r0, #255
 1535 001c FFF7FEFF 		bl	MOTOR_PutChar
 1536              	.LVL206:
 110:./AX12.h      ****     MOTOR_PutChar(ID);
 1537              		.loc 4 110 0
 1538 0020 2800     		movs	r0, r5
 1539 0022 FFF7FEFF 		bl	MOTOR_PutChar
 1540              	.LVL207:
 111:./AX12.h      ****     MOTOR_PutChar(AX_RESET_LENGTH);	
 1541              		.loc 4 111 0
 1542 0026 0220     		movs	r0, #2
 1543 0028 FFF7FEFF 		bl	MOTOR_PutChar
 1544              	.LVL208:
 112:./AX12.h      ****     MOTOR_PutChar(AX_RESET);
 1545              		.loc 4 112 0
 1546 002c 0620     		movs	r0, #6
 1547 002e FFF7FEFF 		bl	MOTOR_PutChar
 1548              	.LVL209:
 113:./AX12.h      ****     MOTOR_PutChar(Checksum);	
 1549              		.loc 4 113 0
 1550 0032 2078     		ldrb	r0, [r4]
 1551 0034 FFF7FEFF 		bl	MOTOR_PutChar
ARM GAS  C:\Users\HENRYA~1\AppData\Local\Temp\cceIRlNf.s 			page 34


 1552              	.LVL210:
 114:./AX12.h      ****     CyDelayUs(TX_DELAY_TIME);
 1553              		.loc 4 114 0
 1554 0038 C820     		movs	r0, #200
 1555 003a 4000     		lsls	r0, r0, #1
 1556 003c FFF7FEFF 		bl	CyDelayUs
 1557              	.LVL211:
 115:./AX12.h      ****     CyDelay(5);  /// cambio de estado delay para buffer de salida
 1558              		.loc 4 115 0
 1559 0040 0520     		movs	r0, #5
 1560 0042 FFF7FEFF 		bl	CyDelay
 1561              	.LVL212:
 116:./AX12.h      ****     TXC_Write(1); ///habilita rx 1
 1562              		.loc 4 116 0
 1563 0046 0120     		movs	r0, #1
 1564 0048 FFF7FEFF 		bl	TXC_Write
 1565              	.LVL213:
 117:./AX12.h      ****     return (error_data()); 
 1566              		.loc 4 117 0
 1567 004c FFF7FEFF 		bl	error_data
 1568              	.LVL214:
 118:./AX12.h      **** }
 1569              		.loc 4 118 0
 1570              		@ sp needed
 1571 0050 70BD     		pop	{r4, r5, r6, pc}
 1572              	.L73:
 1573 0052 C046     		.align	2
 1574              	.L72:
 1575 0054 00000000 		.word	Checksum
 1576              		.cfi_endproc
 1577              	.LFE55:
 1578              		.size	reset, .-reset
 1579              		.section	.text.LED,"ax",%progbits
 1580              		.align	2
 1581              		.global	LED
 1582              		.code	16
 1583              		.thumb_func
 1584              		.type	LED, %function
 1585              	LED:
 1586              	.LFB56:
 119:./AX12.h      **** 
 120:./AX12.h      **** int LED(unsigned char ID, int Status){    
 1587              		.loc 4 120 0
 1588              		.cfi_startproc
 1589              		@ args = 0, pretend = 0, frame = 0
 1590              		@ frame_needed = 0, uses_anonymous_args = 0
 1591              	.LVL215:
 1592 0000 70B5     		push	{r4, r5, r6, lr}
 1593              		.cfi_def_cfa_offset 16
 1594              		.cfi_offset 4, -16
 1595              		.cfi_offset 5, -12
 1596              		.cfi_offset 6, -8
 1597              		.cfi_offset 14, -4
 1598 0002 0400     		movs	r4, r0
 121:./AX12.h      ****     //Checksum for verification data to send
 122:./AX12.h      ****     Checksum = (~(ID + AX_LED_LENGTH + AX_WRITE_DATA + AX_LED + Status))&0xFF;
 1599              		.loc 4 122 0
ARM GAS  C:\Users\HENRYA~1\AppData\Local\Temp\cceIRlNf.s 			page 35


 1600 0004 CDB2     		uxtb	r5, r1
 1601 0006 164E     		ldr	r6, .L75
 1602 0008 2B18     		adds	r3, r5, r0
 1603 000a 2033     		adds	r3, r3, #32
 1604 000c DB43     		mvns	r3, r3
 1605 000e 3370     		strb	r3, [r6]
 123:./AX12.h      ****     // Send Instructions over Serial
 124:./AX12.h      ****     TXC_Write(2); ////habilita tx
 1606              		.loc 4 124 0
 1607 0010 0220     		movs	r0, #2
 1608              	.LVL216:
 1609 0012 FFF7FEFF 		bl	TXC_Write
 1610              	.LVL217:
 125:./AX12.h      ****     MOTOR_PutChar(AX_START);              
 1611              		.loc 4 125 0
 1612 0016 FF20     		movs	r0, #255
 1613 0018 FFF7FEFF 		bl	MOTOR_PutChar
 1614              	.LVL218:
 126:./AX12.h      ****     MOTOR_PutChar(AX_START);
 1615              		.loc 4 126 0
 1616 001c FF20     		movs	r0, #255
 1617 001e FFF7FEFF 		bl	MOTOR_PutChar
 1618              	.LVL219:
 127:./AX12.h      ****     MOTOR_PutChar(ID);
 1619              		.loc 4 127 0
 1620 0022 2000     		movs	r0, r4
 1621 0024 FFF7FEFF 		bl	MOTOR_PutChar
 1622              	.LVL220:
 128:./AX12.h      ****     MOTOR_PutChar(AX_LED_LENGTH);
 1623              		.loc 4 128 0
 1624 0028 0420     		movs	r0, #4
 1625 002a FFF7FEFF 		bl	MOTOR_PutChar
 1626              	.LVL221:
 129:./AX12.h      ****     MOTOR_PutChar(AX_WRITE_DATA);
 1627              		.loc 4 129 0
 1628 002e 0320     		movs	r0, #3
 1629 0030 FFF7FEFF 		bl	MOTOR_PutChar
 1630              	.LVL222:
 130:./AX12.h      ****     MOTOR_PutChar(AX_LED);
 1631              		.loc 4 130 0
 1632 0034 1920     		movs	r0, #25
 1633 0036 FFF7FEFF 		bl	MOTOR_PutChar
 1634              	.LVL223:
 131:./AX12.h      ****     MOTOR_PutChar(Status);
 1635              		.loc 4 131 0
 1636 003a 2800     		movs	r0, r5
 1637 003c FFF7FEFF 		bl	MOTOR_PutChar
 1638              	.LVL224:
 132:./AX12.h      ****     MOTOR_PutChar(Checksum);
 1639              		.loc 4 132 0
 1640 0040 3078     		ldrb	r0, [r6]
 1641 0042 FFF7FEFF 		bl	MOTOR_PutChar
 1642              	.LVL225:
 133:./AX12.h      ****     CyDelayUs(TX_DELAY_TIME);
 1643              		.loc 4 133 0
 1644 0046 C820     		movs	r0, #200
 1645 0048 4000     		lsls	r0, r0, #1
ARM GAS  C:\Users\HENRYA~1\AppData\Local\Temp\cceIRlNf.s 			page 36


 1646 004a FFF7FEFF 		bl	CyDelayUs
 1647              	.LVL226:
 134:./AX12.h      ****     CyDelay(5);  /// cambio de estado delay para buffer de salida
 1648              		.loc 4 134 0
 1649 004e 0520     		movs	r0, #5
 1650 0050 FFF7FEFF 		bl	CyDelay
 1651              	.LVL227:
 135:./AX12.h      ****     TXC_Write(1);
 1652              		.loc 4 135 0
 1653 0054 0120     		movs	r0, #1
 1654 0056 FFF7FEFF 		bl	TXC_Write
 1655              	.LVL228:
 136:./AX12.h      ****     //Finish Function
 137:./AX12.h      ****     return(error_data());
 1656              		.loc 4 137 0
 1657 005a FFF7FEFF 		bl	error_data
 1658              	.LVL229:
 138:./AX12.h      **** }
 1659              		.loc 4 138 0
 1660              		@ sp needed
 1661 005e 70BD     		pop	{r4, r5, r6, pc}
 1662              	.L76:
 1663              		.align	2
 1664              	.L75:
 1665 0060 00000000 		.word	Checksum
 1666              		.cfi_endproc
 1667              	.LFE56:
 1668              		.size	LED, .-LED
 1669              		.section	.text.Move,"ax",%progbits
 1670              		.align	2
 1671              		.global	Move
 1672              		.code	16
 1673              		.thumb_func
 1674              		.type	Move, %function
 1675              	Move:
 1676              	.LFB57:
 139:./AX12.h      **** 
 140:./AX12.h      **** int Move(unsigned char ID, int Position){
 1677              		.loc 4 140 0
 1678              		.cfi_startproc
 1679              		@ args = 0, pretend = 0, frame = 0
 1680              		@ frame_needed = 0, uses_anonymous_args = 0
 1681              	.LVL230:
 1682 0000 F8B5     		push	{r3, r4, r5, r6, r7, lr}
 1683              		.cfi_def_cfa_offset 24
 1684              		.cfi_offset 3, -24
 1685              		.cfi_offset 4, -20
 1686              		.cfi_offset 5, -16
 1687              		.cfi_offset 6, -12
 1688              		.cfi_offset 7, -8
 1689              		.cfi_offset 14, -4
 1690 0002 0400     		movs	r4, r0
 141:./AX12.h      ****     char Position_H,Position_L;
 142:./AX12.h      ****     //Shift register 16 bits
 143:./AX12.h      ****     Position_H = Position >> 8;           
 1691              		.loc 4 143 0
 1692 0004 0E12     		asrs	r6, r1, #8
ARM GAS  C:\Users\HENRYA~1\AppData\Local\Temp\cceIRlNf.s 			page 37


 1693 0006 F6B2     		uxtb	r6, r6
 1694              	.LVL231:
 144:./AX12.h      ****     Position_L = Position;
 1695              		.loc 4 144 0
 1696 0008 CDB2     		uxtb	r5, r1
 1697              	.LVL232:
 145:./AX12.h      **** 	Checksum = (~(ID + AX_GOAL_LENGTH + AX_WRITE_DATA + AX_GOAL_POSITION_L + Position_L + Position_H))
 1698              		.loc 4 145 0
 1699 000a 184F     		ldr	r7, .L78
 1700 000c 2B18     		adds	r3, r5, r0
 1701 000e F318     		adds	r3, r6, r3
 1702 0010 2633     		adds	r3, r3, #38
 1703 0012 DB43     		mvns	r3, r3
 1704 0014 3B70     		strb	r3, [r7]
 146:./AX12.h      ****     // Send Instructions over Serial
 147:./AX12.h      ****     TXC_Write(2); ////habilita tx
 1705              		.loc 4 147 0
 1706 0016 0220     		movs	r0, #2
 1707              	.LVL233:
 1708 0018 FFF7FEFF 		bl	TXC_Write
 1709              	.LVL234:
 148:./AX12.h      ****     MOTOR_PutChar(AX_START);                 
 1710              		.loc 4 148 0
 1711 001c FF20     		movs	r0, #255
 1712 001e FFF7FEFF 		bl	MOTOR_PutChar
 1713              	.LVL235:
 149:./AX12.h      ****     MOTOR_PutChar(AX_START);
 1714              		.loc 4 149 0
 1715 0022 FF20     		movs	r0, #255
 1716 0024 FFF7FEFF 		bl	MOTOR_PutChar
 1717              	.LVL236:
 150:./AX12.h      ****     MOTOR_PutChar(ID);
 1718              		.loc 4 150 0
 1719 0028 2000     		movs	r0, r4
 1720 002a FFF7FEFF 		bl	MOTOR_PutChar
 1721              	.LVL237:
 151:./AX12.h      ****     MOTOR_PutChar(AX_GOAL_LENGTH);
 1722              		.loc 4 151 0
 1723 002e 0520     		movs	r0, #5
 1724 0030 FFF7FEFF 		bl	MOTOR_PutChar
 1725              	.LVL238:
 152:./AX12.h      ****     MOTOR_PutChar(AX_WRITE_DATA);
 1726              		.loc 4 152 0
 1727 0034 0320     		movs	r0, #3
 1728 0036 FFF7FEFF 		bl	MOTOR_PutChar
 1729              	.LVL239:
 153:./AX12.h      ****     MOTOR_PutChar(AX_GOAL_POSITION_L);
 1730              		.loc 4 153 0
 1731 003a 1E20     		movs	r0, #30
 1732 003c FFF7FEFF 		bl	MOTOR_PutChar
 1733              	.LVL240:
 154:./AX12.h      ****     MOTOR_PutChar(Position_L);
 1734              		.loc 4 154 0
 1735 0040 2800     		movs	r0, r5
 1736 0042 FFF7FEFF 		bl	MOTOR_PutChar
 1737              	.LVL241:
 155:./AX12.h      ****     MOTOR_PutChar(Position_H);
ARM GAS  C:\Users\HENRYA~1\AppData\Local\Temp\cceIRlNf.s 			page 38


 1738              		.loc 4 155 0
 1739 0046 3000     		movs	r0, r6
 1740 0048 FFF7FEFF 		bl	MOTOR_PutChar
 1741              	.LVL242:
 156:./AX12.h      ****     MOTOR_PutChar(Checksum);
 1742              		.loc 4 156 0
 1743 004c 3878     		ldrb	r0, [r7]
 1744 004e FFF7FEFF 		bl	MOTOR_PutChar
 1745              	.LVL243:
 157:./AX12.h      **** 	CyDelayUs(TX_DELAY_TIME);
 1746              		.loc 4 157 0
 1747 0052 C820     		movs	r0, #200
 1748 0054 4000     		lsls	r0, r0, #1
 1749 0056 FFF7FEFF 		bl	CyDelayUs
 1750              	.LVL244:
 158:./AX12.h      ****     CyDelay(5);  /// cambio de estado delay para buffer de salida
 1751              		.loc 4 158 0
 1752 005a 0520     		movs	r0, #5
 1753 005c FFF7FEFF 		bl	CyDelay
 1754              	.LVL245:
 159:./AX12.h      ****     TXC_Write(1); ///habilita rx 1
 1755              		.loc 4 159 0
 1756 0060 0120     		movs	r0, #1
 1757 0062 FFF7FEFF 		bl	TXC_Write
 1758              	.LVL246:
 160:./AX12.h      ****     return (error_data());                 
 1759              		.loc 4 160 0
 1760 0066 FFF7FEFF 		bl	error_data
 1761              	.LVL247:
 161:./AX12.h      **** }
 1762              		.loc 4 161 0
 1763              		@ sp needed
 1764              	.LVL248:
 1765              	.LVL249:
 1766 006a F8BD     		pop	{r3, r4, r5, r6, r7, pc}
 1767              	.L79:
 1768              		.align	2
 1769              	.L78:
 1770 006c 00000000 		.word	Checksum
 1771              		.cfi_endproc
 1772              	.LFE57:
 1773              		.size	Move, .-Move
 1774              		.section	.text.setEndless,"ax",%progbits
 1775              		.align	2
 1776              		.global	setEndless
 1777              		.code	16
 1778              		.thumb_func
 1779              		.type	setEndless, %function
 1780              	setEndless:
 1781              	.LFB58:
 162:./AX12.h      **** 
 163:./AX12.h      **** int setEndless(unsigned char ID, int Status,int rag){
 1782              		.loc 4 163 0
 1783              		.cfi_startproc
 1784              		@ args = 0, pretend = 0, frame = 0
 1785              		@ frame_needed = 0, uses_anonymous_args = 0
 1786              	.LVL250:
ARM GAS  C:\Users\HENRYA~1\AppData\Local\Temp\cceIRlNf.s 			page 39


 1787 0000 70B5     		push	{r4, r5, r6, lr}
 1788              		.cfi_def_cfa_offset 16
 1789              		.cfi_offset 4, -16
 1790              		.cfi_offset 5, -12
 1791              		.cfi_offset 6, -8
 1792              		.cfi_offset 14, -4
 1793 0002 0400     		movs	r4, r0
 164:./AX12.h      ****     if (Status){	
 1794              		.loc 4 164 0
 1795 0004 0029     		cmp	r1, #0
 1796 0006 29D0     		beq	.L81
 165:./AX12.h      ****         // Changing the CCW Angle Limits for Full Rotation.
 166:./AX12.h      ****         Checksum = (~(ID + AX_GOAL_LENGTH + AX_WRITE_DATA + AX_CCW_ANGLE_LIMIT_L))&0xFF;
 1797              		.loc 4 166 0
 1798 0008 2C4D     		ldr	r5, .L83
 1799 000a 0300     		movs	r3, r0
 1800 000c 1033     		adds	r3, r3, #16
 1801 000e DB43     		mvns	r3, r3
 1802 0010 2B70     		strb	r3, [r5]
 167:./AX12.h      ****         // Send Instructions over Serial
 168:./AX12.h      ****         //Checksum for verification data to send
 169:./AX12.h      ****         TXC_Write(2); ////habilita tx
 1803              		.loc 4 169 0
 1804 0012 0220     		movs	r0, #2
 1805              	.LVL251:
 1806 0014 FFF7FEFF 		bl	TXC_Write
 1807              	.LVL252:
 170:./AX12.h      ****         MOTOR_PutChar(AX_START);                
 1808              		.loc 4 170 0
 1809 0018 FF20     		movs	r0, #255
 1810 001a FFF7FEFF 		bl	MOTOR_PutChar
 1811              	.LVL253:
 171:./AX12.h      ****         MOTOR_PutChar(AX_START);
 1812              		.loc 4 171 0
 1813 001e FF20     		movs	r0, #255
 1814 0020 FFF7FEFF 		bl	MOTOR_PutChar
 1815              	.LVL254:
 172:./AX12.h      ****         MOTOR_PutChar(ID);
 1816              		.loc 4 172 0
 1817 0024 2000     		movs	r0, r4
 1818 0026 FFF7FEFF 		bl	MOTOR_PutChar
 1819              	.LVL255:
 173:./AX12.h      ****         MOTOR_PutChar(AX_GOAL_LENGTH);
 1820              		.loc 4 173 0
 1821 002a 0520     		movs	r0, #5
 1822 002c FFF7FEFF 		bl	MOTOR_PutChar
 1823              	.LVL256:
 174:./AX12.h      ****         MOTOR_PutChar(AX_WRITE_DATA);
 1824              		.loc 4 174 0
 1825 0030 0320     		movs	r0, #3
 1826 0032 FFF7FEFF 		bl	MOTOR_PutChar
 1827              	.LVL257:
 175:./AX12.h      ****         MOTOR_PutChar(AX_CCW_ANGLE_LIMIT_L );
 1828              		.loc 4 175 0
 1829 0036 0820     		movs	r0, #8
 1830 0038 FFF7FEFF 		bl	MOTOR_PutChar
 1831              	.LVL258:
ARM GAS  C:\Users\HENRYA~1\AppData\Local\Temp\cceIRlNf.s 			page 40


 176:./AX12.h      ****         MOTOR_PutChar(Checksum);
 1832              		.loc 4 176 0
 1833 003c 2878     		ldrb	r0, [r5]
 1834 003e FFF7FEFF 		bl	MOTOR_PutChar
 1835              	.LVL259:
 177:./AX12.h      ****         CyDelayUs(TX_DELAY_TIME);
 1836              		.loc 4 177 0
 1837 0042 C820     		movs	r0, #200
 1838 0044 4000     		lsls	r0, r0, #1
 1839 0046 FFF7FEFF 		bl	CyDelayUs
 1840              	.LVL260:
 178:./AX12.h      ****         CyDelay(5);  /// cambio de estado delay para buffer de salida
 1841              		.loc 4 178 0
 1842 004a 0520     		movs	r0, #5
 1843 004c FFF7FEFF 		bl	CyDelay
 1844              	.LVL261:
 179:./AX12.h      ****         TXC_Write(1); ///habilita rx 1
 1845              		.loc 4 179 0
 1846 0050 0120     		movs	r0, #1
 1847 0052 FFF7FEFF 		bl	TXC_Write
 1848              	.LVL262:
 180:./AX12.h      ****     	return (error_data()); 
 1849              		.loc 4 180 0
 1850 0056 FFF7FEFF 		bl	error_data
 1851              	.LVL263:
 1852 005a 2EE0     		b	.L82
 1853              	.LVL264:
 1854              	.L81:
 181:./AX12.h      ****     }
 182:./AX12.h      ****     else{
 183:./AX12.h      ****         Checksum = (~(ID + AX_GOAL_LENGTH + AX_WRITE_DATA + AX_CCW_ANGLE_LIMIT_L + AX_CCW_AL_L + AX
 1855              		.loc 4 183 0
 1856 005c 174D     		ldr	r5, .L83
 1857 005e 0300     		movs	r3, r0
 1858 0060 1233     		adds	r3, r3, #18
 1859 0062 DB43     		mvns	r3, r3
 1860 0064 2B70     		strb	r3, [r5]
 184:./AX12.h      **** 	    // Send Instructions over Serial
 185:./AX12.h      ****         //Checksum for verification data to send
 186:./AX12.h      ****         TXC_Write(2); ////habilita tx
 1861              		.loc 4 186 0
 1862 0066 0220     		movs	r0, #2
 1863              	.LVL265:
 1864 0068 FFF7FEFF 		bl	TXC_Write
 1865              	.LVL266:
 187:./AX12.h      ****     	MOTOR_PutChar(AX_START);                 
 1866              		.loc 4 187 0
 1867 006c FF20     		movs	r0, #255
 1868 006e FFF7FEFF 		bl	MOTOR_PutChar
 1869              	.LVL267:
 188:./AX12.h      ****     	MOTOR_PutChar(AX_START);
 1870              		.loc 4 188 0
 1871 0072 FF20     		movs	r0, #255
 1872 0074 FFF7FEFF 		bl	MOTOR_PutChar
 1873              	.LVL268:
 189:./AX12.h      ****     	MOTOR_PutChar(ID);
 1874              		.loc 4 189 0
ARM GAS  C:\Users\HENRYA~1\AppData\Local\Temp\cceIRlNf.s 			page 41


 1875 0078 2000     		movs	r0, r4
 1876 007a FFF7FEFF 		bl	MOTOR_PutChar
 1877              	.LVL269:
 190:./AX12.h      ****     	MOTOR_PutChar(AX_GOAL_LENGTH);
 1878              		.loc 4 190 0
 1879 007e 0520     		movs	r0, #5
 1880 0080 FFF7FEFF 		bl	MOTOR_PutChar
 1881              	.LVL270:
 191:./AX12.h      ****     	MOTOR_PutChar(AX_WRITE_DATA);
 1882              		.loc 4 191 0
 1883 0084 0320     		movs	r0, #3
 1884 0086 FFF7FEFF 		bl	MOTOR_PutChar
 1885              	.LVL271:
 192:./AX12.h      ****     	MOTOR_PutChar(AX_CCW_ANGLE_LIMIT_L);
 1886              		.loc 4 192 0
 1887 008a 0820     		movs	r0, #8
 1888 008c FFF7FEFF 		bl	MOTOR_PutChar
 1889              	.LVL272:
 193:./AX12.h      ****     	MOTOR_PutChar(AX_CCW_AL_L);
 1890              		.loc 4 193 0
 1891 0090 FF20     		movs	r0, #255
 1892 0092 FFF7FEFF 		bl	MOTOR_PutChar
 1893              	.LVL273:
 194:./AX12.h      ****     	MOTOR_PutChar(AX_CCW_AL_H);
 1894              		.loc 4 194 0
 1895 0096 0320     		movs	r0, #3
 1896 0098 FFF7FEFF 		bl	MOTOR_PutChar
 1897              	.LVL274:
 195:./AX12.h      ****     	MOTOR_PutChar(Checksum);
 1898              		.loc 4 195 0
 1899 009c 2878     		ldrb	r0, [r5]
 1900 009e FFF7FEFF 		bl	MOTOR_PutChar
 1901              	.LVL275:
 196:./AX12.h      ****     	CyDelayUs(TX_DELAY_TIME);
 1902              		.loc 4 196 0
 1903 00a2 C820     		movs	r0, #200
 1904 00a4 4000     		lsls	r0, r0, #1
 1905 00a6 FFF7FEFF 		bl	CyDelayUs
 1906              	.LVL276:
 197:./AX12.h      ****         CyDelay(5);  /// cambio de estado delay para buffer de salida
 1907              		.loc 4 197 0
 1908 00aa 0520     		movs	r0, #5
 1909 00ac FFF7FEFF 		bl	CyDelay
 1910              	.LVL277:
 198:./AX12.h      ****         TXC_Write(1); ///habilita rx 1
 1911              		.loc 4 198 0
 1912 00b0 0120     		movs	r0, #1
 1913 00b2 FFF7FEFF 		bl	TXC_Write
 1914              	.LVL278:
 199:./AX12.h      ****     	return (error_data());                 
 1915              		.loc 4 199 0
 1916 00b6 FFF7FEFF 		bl	error_data
 1917              	.LVL279:
 1918              	.L82:
 200:./AX12.h      ****     }
 201:./AX12.h      **** } 
 1919              		.loc 4 201 0
ARM GAS  C:\Users\HENRYA~1\AppData\Local\Temp\cceIRlNf.s 			page 42


 1920              		@ sp needed
 1921 00ba 70BD     		pop	{r4, r5, r6, pc}
 1922              	.L84:
 1923              		.align	2
 1924              	.L83:
 1925 00bc 00000000 		.word	Checksum
 1926              		.cfi_endproc
 1927              	.LFE58:
 1928              		.size	setEndless, .-setEndless
 1929              		.section	.text.torqueStatus,"ax",%progbits
 1930              		.align	2
 1931              		.global	torqueStatus
 1932              		.code	16
 1933              		.thumb_func
 1934              		.type	torqueStatus, %function
 1935              	torqueStatus:
 1936              	.LFB59:
 202:./AX12.h      **** 
 203:./AX12.h      **** int torqueStatus( unsigned char ID, int Status){
 1937              		.loc 4 203 0
 1938              		.cfi_startproc
 1939              		@ args = 0, pretend = 0, frame = 0
 1940              		@ frame_needed = 0, uses_anonymous_args = 0
 1941              	.LVL280:
 1942 0000 70B5     		push	{r4, r5, r6, lr}
 1943              		.cfi_def_cfa_offset 16
 1944              		.cfi_offset 4, -16
 1945              		.cfi_offset 5, -12
 1946              		.cfi_offset 6, -8
 1947              		.cfi_offset 14, -4
 1948 0002 0400     		movs	r4, r0
 204:./AX12.h      ****     Checksum = (~(ID + AX_TORQUE_LENGTH + AX_WRITE_DATA + AX_TORQUE_ENABLE + Status))&0xFF;
 1949              		.loc 4 204 0
 1950 0004 CDB2     		uxtb	r5, r1
 1951 0006 164E     		ldr	r6, .L86
 1952 0008 2B18     		adds	r3, r5, r0
 1953 000a 1F33     		adds	r3, r3, #31
 1954 000c DB43     		mvns	r3, r3
 1955 000e 3370     		strb	r3, [r6]
 205:./AX12.h      ****     // Send Instructions over Serial
 206:./AX12.h      ****     //Checksum for verification data to send
 207:./AX12.h      ****     TXC_Write(2); ////habilita tx
 1956              		.loc 4 207 0
 1957 0010 0220     		movs	r0, #2
 1958              	.LVL281:
 1959 0012 FFF7FEFF 		bl	TXC_Write
 1960              	.LVL282:
 208:./AX12.h      ****     MOTOR_PutChar(AX_START); 
 1961              		.loc 4 208 0
 1962 0016 FF20     		movs	r0, #255
 1963 0018 FFF7FEFF 		bl	MOTOR_PutChar
 1964              	.LVL283:
 209:./AX12.h      ****     MOTOR_PutChar(AX_START);
 1965              		.loc 4 209 0
 1966 001c FF20     		movs	r0, #255
 1967 001e FFF7FEFF 		bl	MOTOR_PutChar
 1968              	.LVL284:
ARM GAS  C:\Users\HENRYA~1\AppData\Local\Temp\cceIRlNf.s 			page 43


 210:./AX12.h      ****     MOTOR_PutChar(ID);
 1969              		.loc 4 210 0
 1970 0022 2000     		movs	r0, r4
 1971 0024 FFF7FEFF 		bl	MOTOR_PutChar
 1972              	.LVL285:
 211:./AX12.h      ****     MOTOR_PutChar(AX_TORQUE_LENGTH);
 1973              		.loc 4 211 0
 1974 0028 0420     		movs	r0, #4
 1975 002a FFF7FEFF 		bl	MOTOR_PutChar
 1976              	.LVL286:
 212:./AX12.h      ****     MOTOR_PutChar(AX_WRITE_DATA);
 1977              		.loc 4 212 0
 1978 002e 0320     		movs	r0, #3
 1979 0030 FFF7FEFF 		bl	MOTOR_PutChar
 1980              	.LVL287:
 213:./AX12.h      ****     MOTOR_PutChar(AX_TORQUE_ENABLE);
 1981              		.loc 4 213 0
 1982 0034 1820     		movs	r0, #24
 1983 0036 FFF7FEFF 		bl	MOTOR_PutChar
 1984              	.LVL288:
 214:./AX12.h      ****     MOTOR_PutChar(Status);
 1985              		.loc 4 214 0
 1986 003a 2800     		movs	r0, r5
 1987 003c FFF7FEFF 		bl	MOTOR_PutChar
 1988              	.LVL289:
 215:./AX12.h      ****     MOTOR_PutChar(Checksum);
 1989              		.loc 4 215 0
 1990 0040 3078     		ldrb	r0, [r6]
 1991 0042 FFF7FEFF 		bl	MOTOR_PutChar
 1992              	.LVL290:
 216:./AX12.h      ****     CyDelayUs(TX_DELAY_TIME);
 1993              		.loc 4 216 0
 1994 0046 C820     		movs	r0, #200
 1995 0048 4000     		lsls	r0, r0, #1
 1996 004a FFF7FEFF 		bl	CyDelayUs
 1997              	.LVL291:
 217:./AX12.h      ****     CyDelay(5);  /// cambio de estado delay para buffer de salida
 1998              		.loc 4 217 0
 1999 004e 0520     		movs	r0, #5
 2000 0050 FFF7FEFF 		bl	CyDelay
 2001              	.LVL292:
 218:./AX12.h      ****     TXC_Write(1); ///habilita rx 1
 2002              		.loc 4 218 0
 2003 0054 0120     		movs	r0, #1
 2004 0056 FFF7FEFF 		bl	TXC_Write
 2005              	.LVL293:
 219:./AX12.h      ****     // Return the read error
 220:./AX12.h      ****     return (error_data());               
 2006              		.loc 4 220 0
 2007 005a FFF7FEFF 		bl	error_data
 2008              	.LVL294:
 221:./AX12.h      **** }
 2009              		.loc 4 221 0
 2010              		@ sp needed
 2011 005e 70BD     		pop	{r4, r5, r6, pc}
 2012              	.L87:
 2013              		.align	2
ARM GAS  C:\Users\HENRYA~1\AppData\Local\Temp\cceIRlNf.s 			page 44


 2014              	.L86:
 2015 0060 00000000 		.word	Checksum
 2016              		.cfi_endproc
 2017              	.LFE59:
 2018              		.size	torqueStatus, .-torqueStatus
 2019              		.section	.text.MoveSpeed,"ax",%progbits
 2020              		.align	2
 2021              		.global	MoveSpeed
 2022              		.code	16
 2023              		.thumb_func
 2024              		.type	MoveSpeed, %function
 2025              	MoveSpeed:
 2026              	.LFB60:
 222:./AX12.h      **** 
 223:./AX12.h      **** int MoveSpeed(unsigned char ID, int Position, int Speed){
 2027              		.loc 4 223 0
 2028              		.cfi_startproc
 2029              		@ args = 0, pretend = 0, frame = 8
 2030              		@ frame_needed = 0, uses_anonymous_args = 0
 2031              	.LVL295:
 2032 0000 F0B5     		push	{r4, r5, r6, r7, lr}
 2033              		.cfi_def_cfa_offset 20
 2034              		.cfi_offset 4, -20
 2035              		.cfi_offset 5, -16
 2036              		.cfi_offset 6, -12
 2037              		.cfi_offset 7, -8
 2038              		.cfi_offset 14, -4
 2039 0002 4746     		mov	r7, r8
 2040 0004 80B4     		push	{r7}
 2041              		.cfi_def_cfa_offset 24
 2042              		.cfi_offset 8, -24
 2043 0006 82B0     		sub	sp, sp, #8
 2044              		.cfi_def_cfa_offset 32
 224:./AX12.h      ****     char Position_H,Position_L,Speed_H,Speed_L;
 225:./AX12.h      ****     //Shift register 16 bits
 226:./AX12.h      ****     Position_H = Position >> 8;    
 2045              		.loc 4 226 0
 2046 0008 0B12     		asrs	r3, r1, #8
 2047 000a DBB2     		uxtb	r3, r3
 2048 000c 9846     		mov	r8, r3
 2049              	.LVL296:
 227:./AX12.h      ****     Position_L = Position;                
 2050              		.loc 4 227 0
 2051 000e CEB2     		uxtb	r6, r1
 2052              	.LVL297:
 228:./AX12.h      ****     //Shift register 16 bits
 229:./AX12.h      ****     Speed_H = Speed >> 8;
 2053              		.loc 4 229 0
 2054 0010 1712     		asrs	r7, r2, #8
 2055 0012 FFB2     		uxtb	r7, r7
 2056              	.LVL298:
 230:./AX12.h      ****     Speed_L = Speed;        
 2057              		.loc 4 230 0
 2058 0014 D4B2     		uxtb	r4, r2
 2059              	.LVL299:
 231:./AX12.h      ****     //Checksum for verification data to send
 232:./AX12.h      **** 	Checksum = (~(ID + AX_GOAL_SP_LENGTH + AX_WRITE_DATA + AX_GOAL_POSITION_L + Position_L + Position_
ARM GAS  C:\Users\HENRYA~1\AppData\Local\Temp\cceIRlNf.s 			page 45


 2060              		.loc 4 232 0
 2061 0016 1E4D     		ldr	r5, .L89
 2062 0018 0190     		str	r0, [sp, #4]
 2063 001a 3318     		adds	r3, r6, r0
 2064 001c 4344     		add	r3, r3, r8
 2065 001e E318     		adds	r3, r4, r3
 2066 0020 FB18     		adds	r3, r7, r3
 2067 0022 2833     		adds	r3, r3, #40
 2068 0024 DB43     		mvns	r3, r3
 2069 0026 2B70     		strb	r3, [r5]
 233:./AX12.h      ****     // Send Instructions over Serial
 234:./AX12.h      ****     TXC_Write(2); ////habilita tx
 2070              		.loc 4 234 0
 2071 0028 0220     		movs	r0, #2
 2072              	.LVL300:
 2073 002a FFF7FEFF 		bl	TXC_Write
 2074              	.LVL301:
 235:./AX12.h      ****     MOTOR_PutChar(AX_START);
 2075              		.loc 4 235 0
 2076 002e FF20     		movs	r0, #255
 2077 0030 FFF7FEFF 		bl	MOTOR_PutChar
 2078              	.LVL302:
 236:./AX12.h      ****     MOTOR_PutChar(AX_START);
 2079              		.loc 4 236 0
 2080 0034 FF20     		movs	r0, #255
 2081 0036 FFF7FEFF 		bl	MOTOR_PutChar
 2082              	.LVL303:
 237:./AX12.h      ****     MOTOR_PutChar(ID);
 2083              		.loc 4 237 0
 2084 003a 0198     		ldr	r0, [sp, #4]
 2085 003c FFF7FEFF 		bl	MOTOR_PutChar
 2086              	.LVL304:
 238:./AX12.h      ****     MOTOR_PutChar(AX_GOAL_SP_LENGTH);
 2087              		.loc 4 238 0
 2088 0040 0720     		movs	r0, #7
 2089 0042 FFF7FEFF 		bl	MOTOR_PutChar
 2090              	.LVL305:
 239:./AX12.h      ****     MOTOR_PutChar(AX_WRITE_DATA);
 2091              		.loc 4 239 0
 2092 0046 0320     		movs	r0, #3
 2093 0048 FFF7FEFF 		bl	MOTOR_PutChar
 2094              	.LVL306:
 240:./AX12.h      ****     MOTOR_PutChar(AX_GOAL_POSITION_L);
 2095              		.loc 4 240 0
 2096 004c 1E20     		movs	r0, #30
 2097 004e FFF7FEFF 		bl	MOTOR_PutChar
 2098              	.LVL307:
 241:./AX12.h      ****     MOTOR_PutChar(Position_L);
 2099              		.loc 4 241 0
 2100 0052 3000     		movs	r0, r6
 2101 0054 FFF7FEFF 		bl	MOTOR_PutChar
 2102              	.LVL308:
 242:./AX12.h      ****     MOTOR_PutChar(Position_H);
 2103              		.loc 4 242 0
 2104 0058 4046     		mov	r0, r8
 2105 005a FFF7FEFF 		bl	MOTOR_PutChar
 2106              	.LVL309:
ARM GAS  C:\Users\HENRYA~1\AppData\Local\Temp\cceIRlNf.s 			page 46


 243:./AX12.h      ****     MOTOR_PutChar(Speed_L);
 2107              		.loc 4 243 0
 2108 005e 2000     		movs	r0, r4
 2109 0060 FFF7FEFF 		bl	MOTOR_PutChar
 2110              	.LVL310:
 244:./AX12.h      ****     MOTOR_PutChar(Speed_H);
 2111              		.loc 4 244 0
 2112 0064 3800     		movs	r0, r7
 2113 0066 FFF7FEFF 		bl	MOTOR_PutChar
 2114              	.LVL311:
 245:./AX12.h      ****     MOTOR_PutChar(Checksum);
 2115              		.loc 4 245 0
 2116 006a 2878     		ldrb	r0, [r5]
 2117 006c FFF7FEFF 		bl	MOTOR_PutChar
 2118              	.LVL312:
 246:./AX12.h      ****     CyDelayUs(TX_DELAY_TIME);
 2119              		.loc 4 246 0
 2120 0070 C820     		movs	r0, #200
 2121 0072 4000     		lsls	r0, r0, #1
 2122 0074 FFF7FEFF 		bl	CyDelayUs
 2123              	.LVL313:
 247:./AX12.h      ****     CyDelay(5);  /// cambio de estado delay para buffer de salida
 2124              		.loc 4 247 0
 2125 0078 0520     		movs	r0, #5
 2126 007a FFF7FEFF 		bl	CyDelay
 2127              	.LVL314:
 248:./AX12.h      ****     TXC_Write(1); ///habilita rx 1
 2128              		.loc 4 248 0
 2129 007e 0120     		movs	r0, #1
 2130 0080 FFF7FEFF 		bl	TXC_Write
 2131              	.LVL315:
 249:./AX12.h      ****     return (error_data());                
 2132              		.loc 4 249 0
 2133 0084 FFF7FEFF 		bl	error_data
 2134              	.LVL316:
 250:./AX12.h      **** }
 2135              		.loc 4 250 0
 2136 0088 02B0     		add	sp, sp, #8
 2137              		@ sp needed
 2138              	.LVL317:
 2139              	.LVL318:
 2140              	.LVL319:
 2141              	.LVL320:
 2142 008a 04BC     		pop	{r2}
 2143 008c 9046     		mov	r8, r2
 2144 008e F0BD     		pop	{r4, r5, r6, r7, pc}
 2145              	.L90:
 2146              		.align	2
 2147              	.L89:
 2148 0090 00000000 		.word	Checksum
 2149              		.cfi_endproc
 2150              	.LFE60:
 2151              		.size	MoveSpeed, .-MoveSpeed
 2152              		.section	.text.moveRW,"ax",%progbits
 2153              		.align	2
 2154              		.global	moveRW
 2155              		.code	16
ARM GAS  C:\Users\HENRYA~1\AppData\Local\Temp\cceIRlNf.s 			page 47


 2156              		.thumb_func
 2157              		.type	moveRW, %function
 2158              	moveRW:
 2159              	.LFB61:
 251:./AX12.h      **** 
 252:./AX12.h      **** int moveRW(unsigned char ID, int Position){
 2160              		.loc 4 252 0
 2161              		.cfi_startproc
 2162              		@ args = 0, pretend = 0, frame = 0
 2163              		@ frame_needed = 0, uses_anonymous_args = 0
 2164              	.LVL321:
 2165 0000 F8B5     		push	{r3, r4, r5, r6, r7, lr}
 2166              		.cfi_def_cfa_offset 24
 2167              		.cfi_offset 3, -24
 2168              		.cfi_offset 4, -20
 2169              		.cfi_offset 5, -16
 2170              		.cfi_offset 6, -12
 2171              		.cfi_offset 7, -8
 2172              		.cfi_offset 14, -4
 2173 0002 0400     		movs	r4, r0
 253:./AX12.h      ****     char Position_H,Position_L;
 254:./AX12.h      ****     //Shift register 16 bits
 255:./AX12.h      ****     Position_H = Position >> 8;           
 2174              		.loc 4 255 0
 2175 0004 0E12     		asrs	r6, r1, #8
 2176 0006 F6B2     		uxtb	r6, r6
 2177              	.LVL322:
 256:./AX12.h      ****     Position_L = Position;
 2178              		.loc 4 256 0
 2179 0008 CDB2     		uxtb	r5, r1
 2180              	.LVL323:
 257:./AX12.h      ****     //Checksum for verification data to send
 258:./AX12.h      ****     Checksum = (~(ID + AX_GOAL_LENGTH + AX_REG_WRITE + AX_GOAL_POSITION_L + Position_L + Position_H
 2181              		.loc 4 258 0
 2182 000a 184F     		ldr	r7, .L92
 2183 000c 2B18     		adds	r3, r5, r0
 2184 000e F318     		adds	r3, r6, r3
 2185 0010 2733     		adds	r3, r3, #39
 2186 0012 DB43     		mvns	r3, r3
 2187 0014 3B70     		strb	r3, [r7]
 259:./AX12.h      ****     // Send Instructions over Serial
 260:./AX12.h      ****     TXC_Write(2); ////habilita tx
 2188              		.loc 4 260 0
 2189 0016 0220     		movs	r0, #2
 2190              	.LVL324:
 2191 0018 FFF7FEFF 		bl	TXC_Write
 2192              	.LVL325:
 261:./AX12.h      ****     MOTOR_PutChar(AX_START); 
 2193              		.loc 4 261 0
 2194 001c FF20     		movs	r0, #255
 2195 001e FFF7FEFF 		bl	MOTOR_PutChar
 2196              	.LVL326:
 262:./AX12.h      ****     MOTOR_PutChar(AX_START);
 2197              		.loc 4 262 0
 2198 0022 FF20     		movs	r0, #255
 2199 0024 FFF7FEFF 		bl	MOTOR_PutChar
 2200              	.LVL327:
ARM GAS  C:\Users\HENRYA~1\AppData\Local\Temp\cceIRlNf.s 			page 48


 263:./AX12.h      ****     MOTOR_PutChar(ID);
 2201              		.loc 4 263 0
 2202 0028 2000     		movs	r0, r4
 2203 002a FFF7FEFF 		bl	MOTOR_PutChar
 2204              	.LVL328:
 264:./AX12.h      ****     MOTOR_PutChar(AX_GOAL_LENGTH);
 2205              		.loc 4 264 0
 2206 002e 0520     		movs	r0, #5
 2207 0030 FFF7FEFF 		bl	MOTOR_PutChar
 2208              	.LVL329:
 265:./AX12.h      ****     MOTOR_PutChar(AX_REG_WRITE);
 2209              		.loc 4 265 0
 2210 0034 0420     		movs	r0, #4
 2211 0036 FFF7FEFF 		bl	MOTOR_PutChar
 2212              	.LVL330:
 266:./AX12.h      ****     MOTOR_PutChar(AX_GOAL_POSITION_L);
 2213              		.loc 4 266 0
 2214 003a 1E20     		movs	r0, #30
 2215 003c FFF7FEFF 		bl	MOTOR_PutChar
 2216              	.LVL331:
 267:./AX12.h      ****     MOTOR_PutChar(Position_L);
 2217              		.loc 4 267 0
 2218 0040 2800     		movs	r0, r5
 2219 0042 FFF7FEFF 		bl	MOTOR_PutChar
 2220              	.LVL332:
 268:./AX12.h      ****     MOTOR_PutChar(Position_H);
 2221              		.loc 4 268 0
 2222 0046 3000     		movs	r0, r6
 2223 0048 FFF7FEFF 		bl	MOTOR_PutChar
 2224              	.LVL333:
 269:./AX12.h      ****     MOTOR_PutChar(Checksum);
 2225              		.loc 4 269 0
 2226 004c 3878     		ldrb	r0, [r7]
 2227 004e FFF7FEFF 		bl	MOTOR_PutChar
 2228              	.LVL334:
 270:./AX12.h      **** 	CyDelayUs(TX_DELAY_TIME);
 2229              		.loc 4 270 0
 2230 0052 C820     		movs	r0, #200
 2231 0054 4000     		lsls	r0, r0, #1
 2232 0056 FFF7FEFF 		bl	CyDelayUs
 2233              	.LVL335:
 271:./AX12.h      ****     CyDelay(5);  /// cambio de estado delay para buffer de salida
 2234              		.loc 4 271 0
 2235 005a 0520     		movs	r0, #5
 2236 005c FFF7FEFF 		bl	CyDelay
 2237              	.LVL336:
 272:./AX12.h      ****     TXC_Write(1); ///habilita rx 1
 2238              		.loc 4 272 0
 2239 0060 0120     		movs	r0, #1
 2240 0062 FFF7FEFF 		bl	TXC_Write
 2241              	.LVL337:
 273:./AX12.h      ****     return (error_data());                  
 2242              		.loc 4 273 0
 2243 0066 FFF7FEFF 		bl	error_data
 2244              	.LVL338:
 274:./AX12.h      **** }
 2245              		.loc 4 274 0
ARM GAS  C:\Users\HENRYA~1\AppData\Local\Temp\cceIRlNf.s 			page 49


 2246              		@ sp needed
 2247              	.LVL339:
 2248              	.LVL340:
 2249 006a F8BD     		pop	{r3, r4, r5, r6, r7, pc}
 2250              	.L93:
 2251              		.align	2
 2252              	.L92:
 2253 006c 00000000 		.word	Checksum
 2254              		.cfi_endproc
 2255              	.LFE61:
 2256              		.size	moveRW, .-moveRW
 2257              		.section	.text.action,"ax",%progbits
 2258              		.align	2
 2259              		.global	action
 2260              		.code	16
 2261              		.thumb_func
 2262              		.type	action, %function
 2263              	action:
 2264              	.LFB62:
 275:./AX12.h      **** 
 276:./AX12.h      **** void action(){
 2265              		.loc 4 276 0
 2266              		.cfi_startproc
 2267              		@ args = 0, pretend = 0, frame = 0
 2268              		@ frame_needed = 0, uses_anonymous_args = 0
 2269 0000 10B5     		push	{r4, lr}
 2270              		.cfi_def_cfa_offset 8
 2271              		.cfi_offset 4, -8
 2272              		.cfi_offset 14, -4
 277:./AX12.h      **** 	// Send Instructions over Serial
 278:./AX12.h      ****     TXC_Write(2); ////habilita tx
 2273              		.loc 4 278 0
 2274 0002 0220     		movs	r0, #2
 2275 0004 FFF7FEFF 		bl	TXC_Write
 2276              	.LVL341:
 279:./AX12.h      ****     MOTOR_PutChar(AX_START);                
 2277              		.loc 4 279 0
 2278 0008 FF20     		movs	r0, #255
 2279 000a FFF7FEFF 		bl	MOTOR_PutChar
 2280              	.LVL342:
 280:./AX12.h      ****     MOTOR_PutChar(AX_START);
 2281              		.loc 4 280 0
 2282 000e FF20     		movs	r0, #255
 2283 0010 FFF7FEFF 		bl	MOTOR_PutChar
 2284              	.LVL343:
 281:./AX12.h      ****     MOTOR_PutChar(BROADCAST_ID);
 2285              		.loc 4 281 0
 2286 0014 FE20     		movs	r0, #254
 2287 0016 FFF7FEFF 		bl	MOTOR_PutChar
 2288              	.LVL344:
 282:./AX12.h      ****     MOTOR_PutChar(AX_ACTION_LENGTH);
 2289              		.loc 4 282 0
 2290 001a 0220     		movs	r0, #2
 2291 001c FFF7FEFF 		bl	MOTOR_PutChar
 2292              	.LVL345:
 283:./AX12.h      ****     MOTOR_PutChar(AX_ACTION);
 2293              		.loc 4 283 0
ARM GAS  C:\Users\HENRYA~1\AppData\Local\Temp\cceIRlNf.s 			page 50


 2294 0020 0520     		movs	r0, #5
 2295 0022 FFF7FEFF 		bl	MOTOR_PutChar
 2296              	.LVL346:
 284:./AX12.h      ****     MOTOR_PutChar(AX_ACTION_CHECKSUM);
 2297              		.loc 4 284 0
 2298 0026 FA20     		movs	r0, #250
 2299 0028 FFF7FEFF 		bl	MOTOR_PutChar
 2300              	.LVL347:
 285:./AX12.h      **** 	CyDelayUs(TX_DELAY_TIME);
 2301              		.loc 4 285 0
 2302 002c C820     		movs	r0, #200
 2303 002e 4000     		lsls	r0, r0, #1
 2304 0030 FFF7FEFF 		bl	CyDelayUs
 2305              	.LVL348:
 286:./AX12.h      ****     CyDelay(5);  /// cambio de estado delay para buffer de salida
 2306              		.loc 4 286 0
 2307 0034 0520     		movs	r0, #5
 2308 0036 FFF7FEFF 		bl	CyDelay
 2309              	.LVL349:
 287:./AX12.h      ****     TXC_Write(1); ///habilita rx 1
 2310              		.loc 4 287 0
 2311 003a 0120     		movs	r0, #1
 2312 003c FFF7FEFF 		bl	TXC_Write
 2313              	.LVL350:
 288:./AX12.h      **** }
 2314              		.loc 4 288 0
 2315              		@ sp needed
 2316 0040 10BD     		pop	{r4, pc}
 2317              		.cfi_endproc
 2318              	.LFE62:
 2319              		.size	action, .-action
 2320 0042 C046     		.section	.text.turn,"ax",%progbits
 2321              		.align	2
 2322              		.global	turn
 2323              		.code	16
 2324              		.thumb_func
 2325              		.type	turn, %function
 2326              	turn:
 2327              	.LFB63:
 289:./AX12.h      **** 
 290:./AX12.h      **** int turn(unsigned char ID, int SIDE, int Speed){	
 2328              		.loc 4 290 0
 2329              		.cfi_startproc
 2330              		@ args = 0, pretend = 0, frame = 0
 2331              		@ frame_needed = 0, uses_anonymous_args = 0
 2332              	.LVL351:
 2333 0000 F8B5     		push	{r3, r4, r5, r6, r7, lr}
 2334              		.cfi_def_cfa_offset 24
 2335              		.cfi_offset 3, -24
 2336              		.cfi_offset 4, -20
 2337              		.cfi_offset 5, -16
 2338              		.cfi_offset 6, -12
 2339              		.cfi_offset 7, -8
 2340              		.cfi_offset 14, -4
 2341 0002 0500     		movs	r5, r0
 291:./AX12.h      ****     if (SIDE == 0){    
 2342              		.loc 4 291 0
ARM GAS  C:\Users\HENRYA~1\AppData\Local\Temp\cceIRlNf.s 			page 51


 2343 0004 0029     		cmp	r1, #0
 2344 0006 33D1     		bne	.L96
 2345              	.LBB2:
 292:./AX12.h      ****         //Left Move
 293:./AX12.h      **** 		char Speed_H,Speed_L;
 294:./AX12.h      ****         //Shift register 16 bits
 295:./AX12.h      **** 		Speed_H = Speed >> 8;
 2346              		.loc 4 295 0
 2347 0008 1612     		asrs	r6, r2, #8
 2348 000a F6B2     		uxtb	r6, r6
 2349              	.LVL352:
 296:./AX12.h      **** 		Speed_L = Speed;        
 2350              		.loc 4 296 0
 2351 000c D4B2     		uxtb	r4, r2
 2352              	.LVL353:
 297:./AX12.h      ****         //Checksum for verification data to send
 298:./AX12.h      **** 		Checksum = (~(ID + AX_SPEED_LENGTH + AX_WRITE_DATA + AX_GOAL_SPEED_L + Speed_L + Speed_H))&0xFF;
 2353              		.loc 4 298 0
 2354 000e 334F     		ldr	r7, .L98
 2355 0010 2318     		adds	r3, r4, r0
 2356 0012 F318     		adds	r3, r6, r3
 2357 0014 2833     		adds	r3, r3, #40
 2358 0016 DB43     		mvns	r3, r3
 2359 0018 3B70     		strb	r3, [r7]
 299:./AX12.h      **** 		// Send Instructions over Serial
 300:./AX12.h      ****         TXC_Write(2); ////habilita tx
 2360              		.loc 4 300 0
 2361 001a 0220     		movs	r0, #2
 2362              	.LVL354:
 2363 001c FFF7FEFF 		bl	TXC_Write
 2364              	.LVL355:
 301:./AX12.h      **** 		MOTOR_PutChar(AX_START);                
 2365              		.loc 4 301 0
 2366 0020 FF20     		movs	r0, #255
 2367 0022 FFF7FEFF 		bl	MOTOR_PutChar
 2368              	.LVL356:
 302:./AX12.h      **** 		MOTOR_PutChar(AX_START);
 2369              		.loc 4 302 0
 2370 0026 FF20     		movs	r0, #255
 2371 0028 FFF7FEFF 		bl	MOTOR_PutChar
 2372              	.LVL357:
 303:./AX12.h      **** 		MOTOR_PutChar(ID);
 2373              		.loc 4 303 0
 2374 002c 2800     		movs	r0, r5
 2375 002e FFF7FEFF 		bl	MOTOR_PutChar
 2376              	.LVL358:
 304:./AX12.h      **** 		MOTOR_PutChar(AX_SPEED_LENGTH);
 2377              		.loc 4 304 0
 2378 0032 0520     		movs	r0, #5
 2379 0034 FFF7FEFF 		bl	MOTOR_PutChar
 2380              	.LVL359:
 305:./AX12.h      **** 		MOTOR_PutChar(AX_WRITE_DATA);
 2381              		.loc 4 305 0
 2382 0038 0320     		movs	r0, #3
 2383 003a FFF7FEFF 		bl	MOTOR_PutChar
 2384              	.LVL360:
 306:./AX12.h      **** 		MOTOR_PutChar(AX_GOAL_SPEED_L);
ARM GAS  C:\Users\HENRYA~1\AppData\Local\Temp\cceIRlNf.s 			page 52


 2385              		.loc 4 306 0
 2386 003e 2020     		movs	r0, #32
 2387 0040 FFF7FEFF 		bl	MOTOR_PutChar
 2388              	.LVL361:
 307:./AX12.h      **** 		MOTOR_PutChar(Speed_L);
 2389              		.loc 4 307 0
 2390 0044 2000     		movs	r0, r4
 2391 0046 FFF7FEFF 		bl	MOTOR_PutChar
 2392              	.LVL362:
 308:./AX12.h      **** 		MOTOR_PutChar(Speed_H);
 2393              		.loc 4 308 0
 2394 004a 3000     		movs	r0, r6
 2395 004c FFF7FEFF 		bl	MOTOR_PutChar
 2396              	.LVL363:
 309:./AX12.h      **** 		MOTOR_PutChar(Checksum);
 2397              		.loc 4 309 0
 2398 0050 3878     		ldrb	r0, [r7]
 2399 0052 FFF7FEFF 		bl	MOTOR_PutChar
 2400              	.LVL364:
 310:./AX12.h      **** 		CyDelayUs(TX_DELAY_TIME);
 2401              		.loc 4 310 0
 2402 0056 C820     		movs	r0, #200
 2403 0058 4000     		lsls	r0, r0, #1
 2404 005a FFF7FEFF 		bl	CyDelayUs
 2405              	.LVL365:
 311:./AX12.h      ****         CyDelay(5);  /// cambio de estado delay para buffer de salida
 2406              		.loc 4 311 0
 2407 005e 0520     		movs	r0, #5
 2408 0060 FFF7FEFF 		bl	CyDelay
 2409              	.LVL366:
 312:./AX12.h      ****         TXC_Write(1); ///habilita rx 1
 2410              		.loc 4 312 0
 2411 0064 0120     		movs	r0, #1
 2412 0066 FFF7FEFF 		bl	TXC_Write
 2413              	.LVL367:
 313:./AX12.h      **** 		return (error_data()); 
 2414              		.loc 4 313 0
 2415 006a FFF7FEFF 		bl	error_data
 2416              	.LVL368:
 2417 006e 33E0     		b	.L97
 2418              	.LVL369:
 2419              	.L96:
 2420              	.LBE2:
 2421              	.LBB3:
 314:./AX12.h      ****         }
 315:./AX12.h      **** 		else{ 
 316:./AX12.h      ****             // Rigth Move
 317:./AX12.h      **** 			char Speed_H,Speed_L;
 318:./AX12.h      ****             //Shift register 16 bits
 319:./AX12.h      **** 			Speed_H = (Speed >> 8) + 4;
 2422              		.loc 4 319 0
 2423 0070 1612     		asrs	r6, r2, #8
 2424 0072 0436     		adds	r6, r6, #4
 2425 0074 F6B2     		uxtb	r6, r6
 2426              	.LVL370:
 320:./AX12.h      **** 			Speed_L = Speed;              
 2427              		.loc 4 320 0
ARM GAS  C:\Users\HENRYA~1\AppData\Local\Temp\cceIRlNf.s 			page 53


 2428 0076 D4B2     		uxtb	r4, r2
 2429              	.LVL371:
 321:./AX12.h      ****             //Checksum for verification data to send
 322:./AX12.h      **** 			Checksum = (~(ID + AX_SPEED_LENGTH + AX_WRITE_DATA + AX_GOAL_SPEED_L + Speed_L + Speed_H))&0xFF;
 2430              		.loc 4 322 0
 2431 0078 184F     		ldr	r7, .L98
 2432 007a 0319     		adds	r3, r0, r4
 2433 007c F318     		adds	r3, r6, r3
 2434 007e 2833     		adds	r3, r3, #40
 2435 0080 DB43     		mvns	r3, r3
 2436 0082 3B70     		strb	r3, [r7]
 323:./AX12.h      **** 			// Send Instructions over Serial
 324:./AX12.h      ****             TXC_Write(2); ////habilita tx
 2437              		.loc 4 324 0
 2438 0084 0220     		movs	r0, #2
 2439              	.LVL372:
 2440 0086 FFF7FEFF 		bl	TXC_Write
 2441              	.LVL373:
 325:./AX12.h      **** 			MOTOR_PutChar(AX_START);                
 2442              		.loc 4 325 0
 2443 008a FF20     		movs	r0, #255
 2444 008c FFF7FEFF 		bl	MOTOR_PutChar
 2445              	.LVL374:
 326:./AX12.h      **** 			MOTOR_PutChar(AX_START);
 2446              		.loc 4 326 0
 2447 0090 FF20     		movs	r0, #255
 2448 0092 FFF7FEFF 		bl	MOTOR_PutChar
 2449              	.LVL375:
 327:./AX12.h      **** 			MOTOR_PutChar(ID);
 2450              		.loc 4 327 0
 2451 0096 2800     		movs	r0, r5
 2452 0098 FFF7FEFF 		bl	MOTOR_PutChar
 2453              	.LVL376:
 328:./AX12.h      **** 			MOTOR_PutChar(AX_SPEED_LENGTH);
 2454              		.loc 4 328 0
 2455 009c 0520     		movs	r0, #5
 2456 009e FFF7FEFF 		bl	MOTOR_PutChar
 2457              	.LVL377:
 329:./AX12.h      **** 			MOTOR_PutChar(AX_WRITE_DATA);
 2458              		.loc 4 329 0
 2459 00a2 0320     		movs	r0, #3
 2460 00a4 FFF7FEFF 		bl	MOTOR_PutChar
 2461              	.LVL378:
 330:./AX12.h      **** 			MOTOR_PutChar(AX_GOAL_SPEED_L);
 2462              		.loc 4 330 0
 2463 00a8 2020     		movs	r0, #32
 2464 00aa FFF7FEFF 		bl	MOTOR_PutChar
 2465              	.LVL379:
 331:./AX12.h      **** 			MOTOR_PutChar(Speed_L);
 2466              		.loc 4 331 0
 2467 00ae 2000     		movs	r0, r4
 2468 00b0 FFF7FEFF 		bl	MOTOR_PutChar
 2469              	.LVL380:
 332:./AX12.h      **** 			MOTOR_PutChar(Speed_H);
 2470              		.loc 4 332 0
 2471 00b4 3000     		movs	r0, r6
 2472 00b6 FFF7FEFF 		bl	MOTOR_PutChar
ARM GAS  C:\Users\HENRYA~1\AppData\Local\Temp\cceIRlNf.s 			page 54


 2473              	.LVL381:
 333:./AX12.h      **** 			MOTOR_PutChar(Checksum);
 2474              		.loc 4 333 0
 2475 00ba 3878     		ldrb	r0, [r7]
 2476 00bc FFF7FEFF 		bl	MOTOR_PutChar
 2477              	.LVL382:
 334:./AX12.h      **** 			CyDelayUs(TX_DELAY_TIME);
 2478              		.loc 4 334 0
 2479 00c0 C820     		movs	r0, #200
 2480 00c2 4000     		lsls	r0, r0, #1
 2481 00c4 FFF7FEFF 		bl	CyDelayUs
 2482              	.LVL383:
 335:./AX12.h      ****             CyDelay(5);  /// cambio de estado delay para buffer de salida
 2483              		.loc 4 335 0
 2484 00c8 0520     		movs	r0, #5
 2485 00ca FFF7FEFF 		bl	CyDelay
 2486              	.LVL384:
 336:./AX12.h      ****             TXC_Write(1); ///habilita rx 1	
 2487              		.loc 4 336 0
 2488 00ce 0120     		movs	r0, #1
 2489 00d0 FFF7FEFF 		bl	TXC_Write
 2490              	.LVL385:
 337:./AX12.h      **** 			return (error_data());                	
 2491              		.loc 4 337 0
 2492 00d4 FFF7FEFF 		bl	error_data
 2493              	.LVL386:
 2494              	.L97:
 2495              	.LBE3:
 338:./AX12.h      **** 		}
 339:./AX12.h      **** }
 2496              		.loc 4 339 0
 2497              		@ sp needed
 2498 00d8 F8BD     		pop	{r3, r4, r5, r6, r7, pc}
 2499              	.L99:
 2500 00da C046     		.align	2
 2501              	.L98:
 2502 00dc 00000000 		.word	Checksum
 2503              		.cfi_endproc
 2504              	.LFE63:
 2505              		.size	turn, .-turn
 2506              		.section	.text.readPosition,"ax",%progbits
 2507              		.align	2
 2508              		.global	readPosition
 2509              		.code	16
 2510              		.thumb_func
 2511              		.type	readPosition, %function
 2512              	readPosition:
 2513              	.LFB64:
 340:./AX12.h      **** 
 341:./AX12.h      **** int readPosition (unsigned char ID){
 2514              		.loc 4 341 0
 2515              		.cfi_startproc
 2516              		@ args = 0, pretend = 0, frame = 0
 2517              		@ frame_needed = 0, uses_anonymous_args = 0
 2518              	.LVL387:
 2519 0000 70B5     		push	{r4, r5, r6, lr}
 2520              		.cfi_def_cfa_offset 16
ARM GAS  C:\Users\HENRYA~1\AppData\Local\Temp\cceIRlNf.s 			page 55


 2521              		.cfi_offset 4, -16
 2522              		.cfi_offset 5, -12
 2523              		.cfi_offset 6, -8
 2524              		.cfi_offset 14, -4
 2525 0002 0500     		movs	r5, r0
 2526              	.LVL388:
 342:./AX12.h      ****     int data=0;
 343:./AX12.h      ****     RX_ClearRxBuffer();
 2527              		.loc 4 343 0
 2528 0004 FFF7FEFF 		bl	RX_ClearRxBuffer
 2529              	.LVL389:
 344:./AX12.h      ****     Checksum = (~(ID + AX_POS_LENGTH  + AX_READ_DATA + AX_PRESENT_POSITION_L + AX_BYTE_READ_POS))&0
 2530              		.loc 4 344 0
 2531 0008 404C     		ldr	r4, .L106
 2532 000a 2B00     		movs	r3, r5
 2533 000c 2C33     		adds	r3, r3, #44
 2534 000e DB43     		mvns	r3, r3
 2535 0010 2370     		strb	r3, [r4]
 345:./AX12.h      ****     TXC_Write(2); ////habilita tx
 2536              		.loc 4 345 0
 2537 0012 0220     		movs	r0, #2
 2538 0014 FFF7FEFF 		bl	TXC_Write
 2539              	.LVL390:
 346:./AX12.h      ****     MOTOR_PutChar(AX_START);
 2540              		.loc 4 346 0
 2541 0018 FF20     		movs	r0, #255
 2542 001a FFF7FEFF 		bl	MOTOR_PutChar
 2543              	.LVL391:
 347:./AX12.h      ****     MOTOR_PutChar(AX_START);
 2544              		.loc 4 347 0
 2545 001e FF20     		movs	r0, #255
 2546 0020 FFF7FEFF 		bl	MOTOR_PutChar
 2547              	.LVL392:
 348:./AX12.h      ****     MOTOR_PutChar(ID);
 2548              		.loc 4 348 0
 2549 0024 2800     		movs	r0, r5
 2550 0026 FFF7FEFF 		bl	MOTOR_PutChar
 2551              	.LVL393:
 349:./AX12.h      ****     MOTOR_PutChar(AX_POS_LENGTH);
 2552              		.loc 4 349 0
 2553 002a 0420     		movs	r0, #4
 2554 002c FFF7FEFF 		bl	MOTOR_PutChar
 2555              	.LVL394:
 350:./AX12.h      ****     MOTOR_PutChar(AX_READ_DATA);
 2556              		.loc 4 350 0
 2557 0030 0220     		movs	r0, #2
 2558 0032 FFF7FEFF 		bl	MOTOR_PutChar
 2559              	.LVL395:
 351:./AX12.h      ****     MOTOR_PutChar(AX_PRESENT_POSITION_L);
 2560              		.loc 4 351 0
 2561 0036 2420     		movs	r0, #36
 2562 0038 FFF7FEFF 		bl	MOTOR_PutChar
 2563              	.LVL396:
 352:./AX12.h      ****     MOTOR_PutChar(AX_BYTE_READ_POS);
 2564              		.loc 4 352 0
 2565 003c 0220     		movs	r0, #2
 2566 003e FFF7FEFF 		bl	MOTOR_PutChar
ARM GAS  C:\Users\HENRYA~1\AppData\Local\Temp\cceIRlNf.s 			page 56


 2567              	.LVL397:
 353:./AX12.h      ****     MOTOR_PutChar(Checksum);
 2568              		.loc 4 353 0
 2569 0042 2078     		ldrb	r0, [r4]
 2570 0044 FFF7FEFF 		bl	MOTOR_PutChar
 2571              	.LVL398:
 354:./AX12.h      ****     CyDelayUs(TX_DELAY_TIME);
 2572              		.loc 4 354 0
 2573 0048 C820     		movs	r0, #200
 2574 004a 4000     		lsls	r0, r0, #1
 2575 004c FFF7FEFF 		bl	CyDelayUs
 2576              	.LVL399:
 355:./AX12.h      ****     CyDelay(5);  /// cambio de estado delay para buffer de salida
 2577              		.loc 4 355 0
 2578 0050 0520     		movs	r0, #5
 2579 0052 FFF7FEFF 		bl	CyDelay
 2580              	.LVL400:
 356:./AX12.h      ****     TXC_Write(1); ///habilita rx 1	   
 2581              		.loc 4 356 0
 2582 0056 0120     		movs	r0, #1
 2583 0058 FFF7FEFF 		bl	TXC_Write
 2584              	.LVL401:
 357:./AX12.h      ****     Position_Long_Byte = -1;
 2585              		.loc 4 357 0
 2586 005c FF22     		movs	r2, #255
 2587 005e 2C4B     		ldr	r3, .L106+4
 2588 0060 1A70     		strb	r2, [r3]
 358:./AX12.h      ****     Time_Counter = 0;
 2589              		.loc 4 358 0
 2590 0062 0022     		movs	r2, #0
 2591 0064 2B4B     		ldr	r3, .L106+8
 2592 0066 1A60     		str	r2, [r3]
 359:./AX12.h      ****     CyDelay(20);/// delay de espera 
 2593              		.loc 4 359 0
 2594 0068 1420     		movs	r0, #20
 2595 006a FFF7FEFF 		bl	CyDelay
 2596              	.LVL402:
 360:./AX12.h      ****     while((RX_GetRxBufferSize() < 7) & (Time_Counter < TIME_OUT)){
 2597              		.loc 4 360 0
 2598 006e 06E0     		b	.L101
 2599              	.L102:
 361:./AX12.h      **** 		Time_Counter++;
 2600              		.loc 4 361 0
 2601 0070 0131     		adds	r1, r1, #1
 2602 0072 284B     		ldr	r3, .L106+8
 2603 0074 1960     		str	r1, [r3]
 362:./AX12.h      **** 		CyDelayUs(1000);
 2604              		.loc 4 362 0
 2605 0076 FA20     		movs	r0, #250
 2606 0078 8000     		lsls	r0, r0, #2
 2607 007a FFF7FEFF 		bl	CyDelayUs
 2608              	.LVL403:
 2609              	.L101:
 360:./AX12.h      ****     while((RX_GetRxBufferSize() < 7) & (Time_Counter < TIME_OUT)){
 2610              		.loc 4 360 0
 2611 007e FFF7FEFF 		bl	RX_GetRxBufferSize
 2612              	.LVL404:
ARM GAS  C:\Users\HENRYA~1\AppData\Local\Temp\cceIRlNf.s 			page 57


 2613 0082 244B     		ldr	r3, .L106+8
 2614 0084 1968     		ldr	r1, [r3]
 2615 0086 0023     		movs	r3, #0
 2616 0088 0622     		movs	r2, #6
 2617 008a 1C00     		movs	r4, r3
 2618 008c 8242     		cmp	r2, r0
 2619 008e 5C41     		adcs	r4, r4, r3
 2620 0090 2200     		movs	r2, r4
 2621 0092 CC0F     		lsrs	r4, r1, #31
 2622 0094 0920     		movs	r0, #9
 2623 0096 8842     		cmp	r0, r1
 2624 0098 6341     		adcs	r3, r3, r4
 2625 009a 1340     		ands	r3, r2
 2626 009c DBB2     		uxtb	r3, r3
 2627 009e 002B     		cmp	r3, #0
 2628 00a0 E6D1     		bne	.L102
 2629 00a2 0025     		movs	r5, #0
 2630 00a4 2BE0     		b	.L104
 2631              	.LVL405:
 2632              	.L105:
 363:./AX12.h      ****     }
 364:./AX12.h      ****     while (RX_GetRxBufferSize() > 0){
 365:./AX12.h      **** 		Incoming_Byte = RX_ReadRxData();
 2633              		.loc 4 365 0
 2634 00a6 FFF7FEFF 		bl	RX_ReadRxData
 2635              	.LVL406:
 2636 00aa 1B4C     		ldr	r4, .L106+12
 2637 00ac 2070     		strb	r0, [r4]
 366:./AX12.h      ****         Incoming_Byte2 = RX_ReadRxData();
 2638              		.loc 4 366 0
 2639 00ae FFF7FEFF 		bl	RX_ReadRxData
 2640              	.LVL407:
 2641 00b2 1A4B     		ldr	r3, .L106+16
 2642 00b4 1870     		strb	r0, [r3]
 367:./AX12.h      **** 		if ( (Incoming_Byte == 255) & (Incoming_Byte2 == 255) ){                         
 2643              		.loc 4 367 0
 2644 00b6 2378     		ldrb	r3, [r4]
 2645 00b8 FF3B     		subs	r3, r3, #255
 2646 00ba 5A42     		rsbs	r2, r3, #0
 2647 00bc 5341     		adcs	r3, r3, r2
 2648 00be FF38     		subs	r0, r0, #255
 2649 00c0 4242     		rsbs	r2, r0, #0
 2650 00c2 5041     		adcs	r0, r0, r2
 2651 00c4 1842     		tst	r0, r3
 2652 00c6 1AD0     		beq	.L104
 368:./AX12.h      **** 			RX_ReadRxData();                            // Ax-12 ID
 2653              		.loc 4 368 0
 2654 00c8 FFF7FEFF 		bl	RX_ReadRxData
 2655              	.LVL408:
 369:./AX12.h      **** 			RX_ReadRxData();                            // Length
 2656              		.loc 4 369 0
 2657 00cc FFF7FEFF 		bl	RX_ReadRxData
 2658              	.LVL409:
 370:./AX12.h      **** 			Error_Byte = RX_ReadRxData();    //error
 2659              		.loc 4 370 0
 2660 00d0 FFF7FEFF 		bl	RX_ReadRxData
 2661              	.LVL410:
ARM GAS  C:\Users\HENRYA~1\AppData\Local\Temp\cceIRlNf.s 			page 58


 2662 00d4 124B     		ldr	r3, .L106+20
 2663 00d6 1870     		strb	r0, [r3]
 371:./AX12.h      ****    			Position_Low_Byte = RX_ReadRxData();            // Position Bytes
 2664              		.loc 4 371 0
 2665 00d8 FFF7FEFF 		bl	RX_ReadRxData
 2666              	.LVL411:
 2667 00dc 114C     		ldr	r4, .L106+24
 2668 00de 2070     		strb	r0, [r4]
 372:./AX12.h      **** 			Position_High_Byte = RX_ReadRxData();           // Position Bytes  
 2669              		.loc 4 372 0
 2670 00e0 FFF7FEFF 		bl	RX_ReadRxData
 2671              	.LVL412:
 2672 00e4 104D     		ldr	r5, .L106+28
 2673              	.LVL413:
 2674 00e6 2870     		strb	r0, [r5]
 373:./AX12.h      ****             RX_ReadRxData();
 2675              		.loc 4 373 0
 2676 00e8 FFF7FEFF 		bl	RX_ReadRxData
 2677              	.LVL414:
 374:./AX12.h      **** 			data = Position_High_Byte << 8; 
 2678              		.loc 4 374 0
 2679 00ec 2D78     		ldrb	r5, [r5]
 2680 00ee 2D02     		lsls	r5, r5, #8
 2681              	.LVL415:
 375:./AX12.h      **** 			data = data + Position_Low_Byte;
 2682              		.loc 4 375 0
 2683 00f0 2378     		ldrb	r3, [r4]
 2684 00f2 ED18     		adds	r5, r5, r3
 2685              	.LVL416:
 376:./AX12.h      **** 		    RX_ClearRxBuffer();
 2686              		.loc 4 376 0
 2687 00f4 FFF7FEFF 		bl	RX_ClearRxBuffer
 2688              	.LVL417:
 377:./AX12.h      ****             CyDelay(10);
 2689              		.loc 4 377 0
 2690 00f8 0A20     		movs	r0, #10
 2691 00fa FFF7FEFF 		bl	CyDelay
 2692              	.LVL418:
 2693              	.L104:
 364:./AX12.h      **** 		Incoming_Byte = RX_ReadRxData();
 2694              		.loc 4 364 0
 2695 00fe FFF7FEFF 		bl	RX_GetRxBufferSize
 2696              	.LVL419:
 2697 0102 0028     		cmp	r0, #0
 2698 0104 CFD1     		bne	.L105
 378:./AX12.h      ****         }    
 379:./AX12.h      ****     }
 380:./AX12.h      **** 	return (data);     // Returns the read position   
 381:./AX12.h      **** }
 2699              		.loc 4 381 0
 2700 0106 2800     		movs	r0, r5
 2701              		@ sp needed
 2702              	.LVL420:
 2703 0108 70BD     		pop	{r4, r5, r6, pc}
 2704              	.L107:
 2705 010a C046     		.align	2
 2706              	.L106:
ARM GAS  C:\Users\HENRYA~1\AppData\Local\Temp\cceIRlNf.s 			page 59


 2707 010c 00000000 		.word	Checksum
 2708 0110 00000000 		.word	Position_Long_Byte
 2709 0114 00000000 		.word	Time_Counter
 2710 0118 00000000 		.word	Incoming_Byte
 2711 011c 00000000 		.word	Incoming_Byte2
 2712 0120 00000000 		.word	Error_Byte
 2713 0124 00000000 		.word	Position_Low_Byte
 2714 0128 00000000 		.word	Position_High_Byte
 2715              		.cfi_endproc
 2716              	.LFE64:
 2717              		.size	readPosition, .-readPosition
 2718              		.section	.text.setAngleLimit,"ax",%progbits
 2719              		.align	2
 2720              		.global	setAngleLimit
 2721              		.code	16
 2722              		.thumb_func
 2723              		.type	setAngleLimit, %function
 2724              	setAngleLimit:
 2725              	.LFB65:
 382:./AX12.h      **** 
 383:./AX12.h      **** int setAngleLimit(unsigned char ID, int CWLimit, int CCWLimit){
 2726              		.loc 4 383 0
 2727              		.cfi_startproc
 2728              		@ args = 0, pretend = 0, frame = 8
 2729              		@ frame_needed = 0, uses_anonymous_args = 0
 2730              	.LVL421:
 2731 0000 F0B5     		push	{r4, r5, r6, r7, lr}
 2732              		.cfi_def_cfa_offset 20
 2733              		.cfi_offset 4, -20
 2734              		.cfi_offset 5, -16
 2735              		.cfi_offset 6, -12
 2736              		.cfi_offset 7, -8
 2737              		.cfi_offset 14, -4
 2738 0002 4746     		mov	r7, r8
 2739 0004 80B4     		push	{r7}
 2740              		.cfi_def_cfa_offset 24
 2741              		.cfi_offset 8, -24
 2742 0006 82B0     		sub	sp, sp, #8
 2743              		.cfi_def_cfa_offset 32
 384:./AX12.h      **** 	char CW_H,CW_L,CCW_H,CCW_L;
 385:./AX12.h      ****     CW_H = CWLimit >> 8;    
 2744              		.loc 4 385 0
 2745 0008 0B12     		asrs	r3, r1, #8
 2746 000a DBB2     		uxtb	r3, r3
 2747 000c 9846     		mov	r8, r3
 2748              	.LVL422:
 386:./AX12.h      ****     CW_L = CWLimit;                // 16 bits - 2 x 8 bits variables
 2749              		.loc 4 386 0
 2750 000e CEB2     		uxtb	r6, r1
 2751              	.LVL423:
 387:./AX12.h      ****     CCW_H = CCWLimit >> 8;
 2752              		.loc 4 387 0
 2753 0010 1712     		asrs	r7, r2, #8
 2754 0012 FFB2     		uxtb	r7, r7
 2755              	.LVL424:
 388:./AX12.h      ****     CCW_L = CCWLimit;  
 2756              		.loc 4 388 0
ARM GAS  C:\Users\HENRYA~1\AppData\Local\Temp\cceIRlNf.s 			page 60


 2757 0014 D4B2     		uxtb	r4, r2
 2758              	.LVL425:
 389:./AX12.h      **** 	Checksum = (~(ID + AX_VL_LENGTH +AX_WRITE_DATA+ AX_CW_ANGLE_LIMIT_L + CW_H + CW_L + AX_CCW_ANGLE_L
 2759              		.loc 4 389 0
 2760 0016 204D     		ldr	r5, .L109
 2761 0018 0190     		str	r0, [sp, #4]
 2762 001a 0300     		movs	r3, r0
 2763 001c 4344     		add	r3, r3, r8
 2764 001e F318     		adds	r3, r6, r3
 2765 0020 FB18     		adds	r3, r7, r3
 2766 0022 E318     		adds	r3, r4, r3
 2767 0024 1733     		adds	r3, r3, #23
 2768 0026 DB43     		mvns	r3, r3
 2769 0028 2B70     		strb	r3, [r5]
 390:./AX12.h      ****     TXC_Write(2); ////habilita tx	 
 2770              		.loc 4 390 0
 2771 002a 0220     		movs	r0, #2
 2772              	.LVL426:
 2773 002c FFF7FEFF 		bl	TXC_Write
 2774              	.LVL427:
 391:./AX12.h      ****     MOTOR_PutChar(AX_START);
 2775              		.loc 4 391 0
 2776 0030 FF20     		movs	r0, #255
 2777 0032 FFF7FEFF 		bl	MOTOR_PutChar
 2778              	.LVL428:
 392:./AX12.h      **** 	MOTOR_PutChar(AX_START);
 2779              		.loc 4 392 0
 2780 0036 FF20     		movs	r0, #255
 2781 0038 FFF7FEFF 		bl	MOTOR_PutChar
 2782              	.LVL429:
 393:./AX12.h      ****     MOTOR_PutChar(ID);
 2783              		.loc 4 393 0
 2784 003c 0198     		ldr	r0, [sp, #4]
 2785 003e FFF7FEFF 		bl	MOTOR_PutChar
 2786              	.LVL430:
 394:./AX12.h      **** 	MOTOR_PutChar(AX_CCW_CW_LENGTH);
 2787              		.loc 4 394 0
 2788 0042 0820     		movs	r0, #8
 2789 0044 FFF7FEFF 		bl	MOTOR_PutChar
 2790              	.LVL431:
 395:./AX12.h      **** 	MOTOR_PutChar(AX_WRITE_DATA);
 2791              		.loc 4 395 0
 2792 0048 0320     		movs	r0, #3
 2793 004a FFF7FEFF 		bl	MOTOR_PutChar
 2794              	.LVL432:
 396:./AX12.h      **** 	MOTOR_PutChar(AX_CW_ANGLE_LIMIT_L);
 2795              		.loc 4 396 0
 2796 004e 0620     		movs	r0, #6
 2797 0050 FFF7FEFF 		bl	MOTOR_PutChar
 2798              	.LVL433:
 397:./AX12.h      ****     MOTOR_PutChar(CW_L);
 2799              		.loc 4 397 0
 2800 0054 3000     		movs	r0, r6
 2801 0056 FFF7FEFF 		bl	MOTOR_PutChar
 2802              	.LVL434:
 398:./AX12.h      ****     MOTOR_PutChar(CW_H);
 2803              		.loc 4 398 0
ARM GAS  C:\Users\HENRYA~1\AppData\Local\Temp\cceIRlNf.s 			page 61


 2804 005a 4046     		mov	r0, r8
 2805 005c FFF7FEFF 		bl	MOTOR_PutChar
 2806              	.LVL435:
 399:./AX12.h      **** 	MOTOR_PutChar(AX_CCW_ANGLE_LIMIT_L);
 2807              		.loc 4 399 0
 2808 0060 0820     		movs	r0, #8
 2809 0062 FFF7FEFF 		bl	MOTOR_PutChar
 2810              	.LVL436:
 400:./AX12.h      ****     MOTOR_PutChar(CCW_L);
 2811              		.loc 4 400 0
 2812 0066 2000     		movs	r0, r4
 2813 0068 FFF7FEFF 		bl	MOTOR_PutChar
 2814              	.LVL437:
 401:./AX12.h      **** 	MOTOR_PutChar(CCW_H);
 2815              		.loc 4 401 0
 2816 006c 3800     		movs	r0, r7
 2817 006e FFF7FEFF 		bl	MOTOR_PutChar
 2818              	.LVL438:
 402:./AX12.h      **** 	MOTOR_PutChar(Checksum);
 2819              		.loc 4 402 0
 2820 0072 2878     		ldrb	r0, [r5]
 2821 0074 FFF7FEFF 		bl	MOTOR_PutChar
 2822              	.LVL439:
 403:./AX12.h      **** 	CyDelayUs(TX_DELAY_TIME);
 2823              		.loc 4 403 0
 2824 0078 C820     		movs	r0, #200
 2825 007a 4000     		lsls	r0, r0, #1
 2826 007c FFF7FEFF 		bl	CyDelayUs
 2827              	.LVL440:
 404:./AX12.h      **** 	CyDelay(5);
 2828              		.loc 4 404 0
 2829 0080 0520     		movs	r0, #5
 2830 0082 FFF7FEFF 		bl	CyDelay
 2831              	.LVL441:
 405:./AX12.h      **** 	TXC_Write(1); ////habilita rx	 
 2832              		.loc 4 405 0
 2833 0086 0120     		movs	r0, #1
 2834 0088 FFF7FEFF 		bl	TXC_Write
 2835              	.LVL442:
 406:./AX12.h      ****     return (error_data()); 
 2836              		.loc 4 406 0
 2837 008c FFF7FEFF 		bl	error_data
 2838              	.LVL443:
 407:./AX12.h      **** }
 2839              		.loc 4 407 0
 2840 0090 02B0     		add	sp, sp, #8
 2841              		@ sp needed
 2842              	.LVL444:
 2843              	.LVL445:
 2844              	.LVL446:
 2845              	.LVL447:
 2846 0092 04BC     		pop	{r2}
 2847 0094 9046     		mov	r8, r2
 2848 0096 F0BD     		pop	{r4, r5, r6, r7, pc}
 2849              	.L110:
 2850              		.align	2
 2851              	.L109:
ARM GAS  C:\Users\HENRYA~1\AppData\Local\Temp\cceIRlNf.s 			page 62


 2852 0098 00000000 		.word	Checksum
 2853              		.cfi_endproc
 2854              	.LFE65:
 2855              		.size	setAngleLimit, .-setAngleLimit
 2856              		.global	__aeabi_i2d
 2857              		.global	__aeabi_dmul
 2858              		.section	.text.randd,"ax",%progbits
 2859              		.align	2
 2860              		.global	randd
 2861              		.code	16
 2862              		.thumb_func
 2863              		.type	randd, %function
 2864              	randd:
 2865              	.LFB66:
 2866              		.file 5 "./inicio.h"
   1:./inicio.h    **** #include <VCNL4010_1.h>
   2:./inicio.h    **** #include <VCNL4010_2.h>
   3:./inicio.h    **** #include <VCNL4010_3.h>
   4:./inicio.h    **** //#include <VCNL4010_4.h>
   5:./inicio.h    **** #include <AX12.h>
   6:./inicio.h    **** #include <math.h>
   7:./inicio.h    **** #include <stdlib.h>
   8:./inicio.h    **** #include <protocolo can.h>
   9:./inicio.h    **** 
  10:./inicio.h    **** float pi=M_PI;
  11:./inicio.h    **** float teta = 0.0;
  12:./inicio.h    **** float teta2 = 0.0;
  13:./inicio.h    **** float teta3 = 0.0;
  14:./inicio.h    **** float phase =0.0;
  15:./inicio.h    **** float ampli = 0.0;
  16:./inicio.h    **** float amp2 = 0.0;
  17:./inicio.h    **** float dampli = 0;
  18:./inicio.h    **** float of2 = (0.8333)*M_PI;
  19:./inicio.h    **** float offset = (0.8333)*M_PI;
  20:./inicio.h    **** float doffset = 0.0;
  21:./inicio.h    **** float dt = 0.05;
  22:./inicio.h    **** float sal = 0.0;
  23:./inicio.h    **** float vel = 0.0;
  24:./inicio.h    **** float theta,theta_velocidad,x,y;
  25:./inicio.h    **** int f,v,almacena_salida;
  26:./inicio.h    **** int Seleccion=0;
  27:./inicio.h    **** int Condicion_Start=0;
  28:./inicio.h    **** int  ant,t,Pd,Pt,cstatus,M,Pta,errc,PositionM,Teta_Can_l,Teta_Can_r,cantidadM,Contador,Orientacion_
  29:./inicio.h    **** unsigned char dir=1; //////dir motor
  30:./inicio.h    **** unsigned int Pda;
  31:./inicio.h    **** uint8 Mydir=250;
  32:./inicio.h    **** uint8 dirasig ;
  33:./inicio.h    **** uint8 sumadir;
  34:./inicio.h    **** uint8 dato_enviado[8];
  35:./inicio.h    **** uint8 dato_enviado_2[8];
  36:./inicio.h    **** uint8 mailbox0[8];
  37:./inicio.h    **** uint8 mailbox1[8];
  38:./inicio.h    **** uint8 mailbox2[8];
  39:./inicio.h    **** float srf;
  40:./inicio.h    **** unsigned char dir,tem,tes,error,Error_Byte,Incoming_Byte2;
  41:./inicio.h    **** int amb,posicion,posicionh,posicionl;
  42:./inicio.h    **** int S1=0;
ARM GAS  C:\Users\HENRYA~1\AppData\Local\Temp\cceIRlNf.s 			page 63


  43:./inicio.h    **** 
  44:./inicio.h    **** double randd() {
 2867              		.loc 5 44 0
 2868              		.cfi_startproc
 2869              		@ args = 0, pretend = 0, frame = 0
 2870              		@ frame_needed = 0, uses_anonymous_args = 0
 2871 0000 10B5     		push	{r4, lr}
 2872              		.cfi_def_cfa_offset 8
 2873              		.cfi_offset 4, -8
 2874              		.cfi_offset 14, -4
  45:./inicio.h    ****   return (double)rand()/((double)RAND_MAX + 1);
 2875              		.loc 5 45 0
 2876 0002 FFF7FEFF 		bl	rand
 2877              	.LVL448:
 2878 0006 FFF7FEFF 		bl	__aeabi_i2d
 2879              	.LVL449:
 2880 000a 0022     		movs	r2, #0
 2881 000c F823     		movs	r3, #248
 2882 000e 9B05     		lsls	r3, r3, #22
 2883 0010 FFF7FEFF 		bl	__aeabi_dmul
 2884              	.LVL450:
  46:./inicio.h    **** }
 2885              		.loc 5 46 0
 2886              		@ sp needed
 2887 0014 10BD     		pop	{r4, pc}
 2888              		.cfi_endproc
 2889              	.LFE66:
 2890              		.size	randd, .-randd
 2891              		.global	__aeabi_fadd
 2892              		.global	__aeabi_fmul
 2893              		.global	__aeabi_fsub
 2894              		.global	__aeabi_f2d
 2895              		.global	__aeabi_dadd
 2896              		.global	__aeabi_d2f
 2897 0016 C046     		.section	.text.dteta,"ax",%progbits
 2898              		.align	2
 2899              		.global	dteta
 2900              		.code	16
 2901              		.thumb_func
 2902              		.type	dteta, %function
 2903              	dteta:
 2904              	.LFB67:
  47:./inicio.h    **** 
  48:./inicio.h    **** float dteta(float teta, float teta2, float teta3, float phase){
 2905              		.loc 5 48 0
 2906              		.cfi_startproc
 2907              		@ args = 0, pretend = 0, frame = 16
 2908              		@ frame_needed = 0, uses_anonymous_args = 0
 2909              	.LVL451:
 2910 0000 F0B5     		push	{r4, r5, r6, r7, lr}
 2911              		.cfi_def_cfa_offset 20
 2912              		.cfi_offset 4, -20
 2913              		.cfi_offset 5, -16
 2914              		.cfi_offset 6, -12
 2915              		.cfi_offset 7, -8
 2916              		.cfi_offset 14, -4
 2917 0002 85B0     		sub	sp, sp, #20
ARM GAS  C:\Users\HENRYA~1\AppData\Local\Temp\cceIRlNf.s 			page 64


 2918              		.cfi_def_cfa_offset 40
 2919 0004 051C     		adds	r5, r0, #0
 2920 0006 0F1C     		adds	r7, r1, #0
 2921 0008 161C     		adds	r6, r2, #0
 2922 000a 1C1C     		adds	r4, r3, #0
 2923              	.LVL452:
  49:./inicio.h    ****     float wij = 0.8; //0.8 Se mueve
  50:./inicio.h    ****     float v = 0.4;//0.4 Se mueve
  51:./inicio.h    ****     switch (Seleccion){
 2924              		.loc 5 51 0
 2925 000c 4D4B     		ldr	r3, .L119
 2926              	.LVL453:
 2927 000e DB68     		ldr	r3, [r3, #12]
 2928 0010 022B     		cmp	r3, #2
 2929 0012 29D0     		beq	.L114
 2930 0014 032B     		cmp	r3, #3
 2931 0016 4DD0     		beq	.L115
 2932 0018 012B     		cmp	r3, #1
 2933 001a 00D0     		beq	.LCB2459
 2934 001c 88E0     		b	.L118	@long jump
 2935              	.LCB2459:
  52:./inicio.h    ****         case 1:
  53:./inicio.h    ****             return (2*pi*v)+(wij*sin(teta2-teta-phase));
 2936              		.loc 5 53 0
 2937 001e 4A4B     		ldr	r3, .L119+4
 2938 0020 1868     		ldr	r0, [r3]
 2939              	.LVL454:
 2940 0022 011C     		adds	r1, r0, #0
 2941              	.LVL455:
 2942 0024 FFF7FEFF 		bl	__aeabi_fadd
 2943              	.LVL456:
 2944 0028 4849     		ldr	r1, .L119+8
 2945 002a FFF7FEFF 		bl	__aeabi_fmul
 2946              	.LVL457:
 2947 002e 061C     		adds	r6, r0, #0
 2948              	.LVL458:
 2949 0030 291C     		adds	r1, r5, #0
 2950 0032 381C     		adds	r0, r7, #0
 2951 0034 FFF7FEFF 		bl	__aeabi_fsub
 2952              	.LVL459:
 2953 0038 211C     		adds	r1, r4, #0
 2954 003a FFF7FEFF 		bl	__aeabi_fsub
 2955              	.LVL460:
 2956 003e FFF7FEFF 		bl	__aeabi_f2d
 2957              	.LVL461:
 2958 0042 FFF7FEFF 		bl	sin
 2959              	.LVL462:
 2960 0046 A022     		movs	r2, #160
 2961 0048 1206     		lsls	r2, r2, #24
 2962 004a 414B     		ldr	r3, .L119+12
 2963 004c FFF7FEFF 		bl	__aeabi_dmul
 2964              	.LVL463:
 2965 0050 0400     		movs	r4, r0
 2966              	.LVL464:
 2967 0052 0D00     		movs	r5, r1
 2968              	.LVL465:
 2969 0054 301C     		adds	r0, r6, #0
ARM GAS  C:\Users\HENRYA~1\AppData\Local\Temp\cceIRlNf.s 			page 65


 2970 0056 FFF7FEFF 		bl	__aeabi_f2d
 2971              	.LVL466:
 2972 005a 2200     		movs	r2, r4
 2973 005c 2B00     		movs	r3, r5
 2974 005e FFF7FEFF 		bl	__aeabi_dadd
 2975              	.LVL467:
 2976 0062 FFF7FEFF 		bl	__aeabi_d2f
 2977              	.LVL468:
 2978 0066 6BE0     		b	.L117
 2979              	.LVL469:
 2980              	.L114:
  54:./inicio.h    ****         break;
  55:./inicio.h    ****         case 2:
  56:./inicio.h    ****             return (2*pi*v)+(wij*sin(teta3-teta+phase));
 2981              		.loc 5 56 0
 2982 0068 374B     		ldr	r3, .L119+4
 2983 006a 1868     		ldr	r0, [r3]
 2984              	.LVL470:
 2985 006c 011C     		adds	r1, r0, #0
 2986              	.LVL471:
 2987 006e FFF7FEFF 		bl	__aeabi_fadd
 2988              	.LVL472:
 2989 0072 3649     		ldr	r1, .L119+8
 2990 0074 FFF7FEFF 		bl	__aeabi_fmul
 2991              	.LVL473:
 2992 0078 071C     		adds	r7, r0, #0
 2993              	.LVL474:
 2994 007a 291C     		adds	r1, r5, #0
 2995 007c 301C     		adds	r0, r6, #0
 2996 007e FFF7FEFF 		bl	__aeabi_fsub
 2997              	.LVL475:
 2998 0082 011C     		adds	r1, r0, #0
 2999 0084 201C     		adds	r0, r4, #0
 3000 0086 FFF7FEFF 		bl	__aeabi_fadd
 3001              	.LVL476:
 3002 008a FFF7FEFF 		bl	__aeabi_f2d
 3003              	.LVL477:
 3004 008e FFF7FEFF 		bl	sin
 3005              	.LVL478:
 3006 0092 A022     		movs	r2, #160
 3007 0094 1206     		lsls	r2, r2, #24
 3008 0096 2E4B     		ldr	r3, .L119+12
 3009 0098 FFF7FEFF 		bl	__aeabi_dmul
 3010              	.LVL479:
 3011 009c 0400     		movs	r4, r0
 3012              	.LVL480:
 3013 009e 0D00     		movs	r5, r1
 3014              	.LVL481:
 3015 00a0 381C     		adds	r0, r7, #0
 3016 00a2 FFF7FEFF 		bl	__aeabi_f2d
 3017              	.LVL482:
 3018 00a6 2200     		movs	r2, r4
 3019 00a8 2B00     		movs	r3, r5
 3020 00aa FFF7FEFF 		bl	__aeabi_dadd
 3021              	.LVL483:
 3022 00ae FFF7FEFF 		bl	__aeabi_d2f
 3023              	.LVL484:
ARM GAS  C:\Users\HENRYA~1\AppData\Local\Temp\cceIRlNf.s 			page 66


 3024 00b2 45E0     		b	.L117
 3025              	.LVL485:
 3026              	.L115:
  57:./inicio.h    ****         break;
  58:./inicio.h    ****         case 3:
  59:./inicio.h    ****             return (2*pi*v)+(wij*sin(teta2-teta-phase))+(wij*sin(teta3-teta+phase));
 3027              		.loc 5 59 0
 3028 00b4 244B     		ldr	r3, .L119+4
 3029 00b6 1868     		ldr	r0, [r3]
 3030              	.LVL486:
 3031 00b8 011C     		adds	r1, r0, #0
 3032              	.LVL487:
 3033 00ba FFF7FEFF 		bl	__aeabi_fadd
 3034              	.LVL488:
 3035 00be 2349     		ldr	r1, .L119+8
 3036 00c0 FFF7FEFF 		bl	__aeabi_fmul
 3037              	.LVL489:
 3038 00c4 0090     		str	r0, [sp]
 3039 00c6 291C     		adds	r1, r5, #0
 3040 00c8 381C     		adds	r0, r7, #0
 3041 00ca FFF7FEFF 		bl	__aeabi_fsub
 3042              	.LVL490:
 3043 00ce 211C     		adds	r1, r4, #0
 3044 00d0 FFF7FEFF 		bl	__aeabi_fsub
 3045              	.LVL491:
 3046 00d4 FFF7FEFF 		bl	__aeabi_f2d
 3047              	.LVL492:
 3048 00d8 FFF7FEFF 		bl	sin
 3049              	.LVL493:
 3050 00dc A022     		movs	r2, #160
 3051 00de 1206     		lsls	r2, r2, #24
 3052 00e0 1B4B     		ldr	r3, .L119+12
 3053 00e2 FFF7FEFF 		bl	__aeabi_dmul
 3054              	.LVL494:
 3055 00e6 0290     		str	r0, [sp, #8]
 3056 00e8 0391     		str	r1, [sp, #12]
 3057 00ea 0098     		ldr	r0, [sp]
 3058 00ec FFF7FEFF 		bl	__aeabi_f2d
 3059              	.LVL495:
 3060 00f0 029A     		ldr	r2, [sp, #8]
 3061 00f2 039B     		ldr	r3, [sp, #12]
 3062 00f4 FFF7FEFF 		bl	__aeabi_dadd
 3063              	.LVL496:
 3064 00f8 0090     		str	r0, [sp]
 3065 00fa 0191     		str	r1, [sp, #4]
 3066 00fc 291C     		adds	r1, r5, #0
 3067 00fe 301C     		adds	r0, r6, #0
 3068 0100 FFF7FEFF 		bl	__aeabi_fsub
 3069              	.LVL497:
 3070 0104 011C     		adds	r1, r0, #0
 3071 0106 201C     		adds	r0, r4, #0
 3072 0108 FFF7FEFF 		bl	__aeabi_fadd
 3073              	.LVL498:
 3074 010c FFF7FEFF 		bl	__aeabi_f2d
 3075              	.LVL499:
 3076 0110 FFF7FEFF 		bl	sin
 3077              	.LVL500:
ARM GAS  C:\Users\HENRYA~1\AppData\Local\Temp\cceIRlNf.s 			page 67


 3078 0114 A022     		movs	r2, #160
 3079 0116 1206     		lsls	r2, r2, #24
 3080 0118 0D4B     		ldr	r3, .L119+12
 3081 011a FFF7FEFF 		bl	__aeabi_dmul
 3082              	.LVL501:
 3083 011e 0200     		movs	r2, r0
 3084 0120 0B00     		movs	r3, r1
 3085 0122 0098     		ldr	r0, [sp]
 3086 0124 0199     		ldr	r1, [sp, #4]
 3087 0126 FFF7FEFF 		bl	__aeabi_dadd
 3088              	.LVL502:
 3089 012a FFF7FEFF 		bl	__aeabi_d2f
 3090              	.LVL503:
 3091 012e 07E0     		b	.L117
 3092              	.LVL504:
 3093              	.L118:
  60:./inicio.h    ****         break;    
  61:./inicio.h    ****         default:
  62:./inicio.h    ****             return 2*pi*v;
 3094              		.loc 5 62 0
 3095 0130 054B     		ldr	r3, .L119+4
 3096 0132 1868     		ldr	r0, [r3]
 3097              	.LVL505:
 3098 0134 011C     		adds	r1, r0, #0
 3099              	.LVL506:
 3100 0136 FFF7FEFF 		bl	__aeabi_fadd
 3101              	.LVL507:
 3102 013a 0449     		ldr	r1, .L119+8
 3103 013c FFF7FEFF 		bl	__aeabi_fmul
 3104              	.LVL508:
 3105              	.L117:
  63:./inicio.h    ****         break;
  64:./inicio.h    ****             }
  65:./inicio.h    **** }
 3106              		.loc 5 65 0
 3107 0140 05B0     		add	sp, sp, #20
 3108              		@ sp needed
 3109 0142 F0BD     		pop	{r4, r5, r6, r7, pc}
 3110              	.L120:
 3111              		.align	2
 3112              	.L119:
 3113 0144 00000000 		.word	.LANCHOR0
 3114 0148 00000000 		.word	.LANCHOR1
 3115 014c CDCCCC3E 		.word	1053609165
 3116 0150 9999E93F 		.word	1072273817
 3117              		.cfi_endproc
 3118              	.LFE67:
 3119              		.size	dteta, .-dteta
 3120              		.section	.text.ddampli,"ax",%progbits
 3121              		.align	2
 3122              		.global	ddampli
 3123              		.code	16
 3124              		.thumb_func
 3125              		.type	ddampli, %function
 3126              	ddampli:
 3127              	.LFB68:
  66:./inicio.h    **** 
ARM GAS  C:\Users\HENRYA~1\AppData\Local\Temp\cceIRlNf.s 			page 68


  67:./inicio.h    **** float ddampli(float dampli, float ampli, float amp){
 3128              		.loc 5 67 0
 3129              		.cfi_startproc
 3130              		@ args = 0, pretend = 0, frame = 0
 3131              		@ frame_needed = 0, uses_anonymous_args = 0
 3132              	.LVL509:
 3133 0000 10B5     		push	{r4, lr}
 3134              		.cfi_def_cfa_offset 8
 3135              		.cfi_offset 4, -8
 3136              		.cfi_offset 14, -4
 3137 0002 041C     		adds	r4, r0, #0
 3138              	.LVL510:
  68:./inicio.h    ****   float ar = 30;
  69:./inicio.h    ****   return ar*((ar/4)*(amp-ampli)-dampli);
 3139              		.loc 5 69 0
 3140 0004 101C     		adds	r0, r2, #0
 3141              	.LVL511:
 3142 0006 FFF7FEFF 		bl	__aeabi_fsub
 3143              	.LVL512:
 3144 000a 0549     		ldr	r1, .L122
 3145 000c FFF7FEFF 		bl	__aeabi_fmul
 3146              	.LVL513:
 3147 0010 211C     		adds	r1, r4, #0
 3148 0012 FFF7FEFF 		bl	__aeabi_fsub
 3149              	.LVL514:
 3150 0016 0349     		ldr	r1, .L122+4
 3151 0018 FFF7FEFF 		bl	__aeabi_fmul
 3152              	.LVL515:
  70:./inicio.h    **** }
 3153              		.loc 5 70 0
 3154              		@ sp needed
 3155              	.LVL516:
 3156 001c 10BD     		pop	{r4, pc}
 3157              	.L123:
 3158 001e C046     		.align	2
 3159              	.L122:
 3160 0020 0000F040 		.word	1089470464
 3161 0024 0000F041 		.word	1106247680
 3162              		.cfi_endproc
 3163              	.LFE68:
 3164              		.size	ddampli, .-ddampli
 3165              		.section	.text.ddoffset,"ax",%progbits
 3166              		.align	2
 3167              		.global	ddoffset
 3168              		.code	16
 3169              		.thumb_func
 3170              		.type	ddoffset, %function
 3171              	ddoffset:
 3172              	.LFB69:
  71:./inicio.h    **** 
  72:./inicio.h    **** float ddoffset(float doffset, float offset, float of){
 3173              		.loc 5 72 0
 3174              		.cfi_startproc
 3175              		@ args = 0, pretend = 0, frame = 0
 3176              		@ frame_needed = 0, uses_anonymous_args = 0
 3177              	.LVL517:
 3178 0000 10B5     		push	{r4, lr}
ARM GAS  C:\Users\HENRYA~1\AppData\Local\Temp\cceIRlNf.s 			page 69


 3179              		.cfi_def_cfa_offset 8
 3180              		.cfi_offset 4, -8
 3181              		.cfi_offset 14, -4
 3182 0002 041C     		adds	r4, r0, #0
 3183              	.LVL518:
  73:./inicio.h    ****  float ax = 30;
  74:./inicio.h    **** return ax*((ax/4)*(of-offset)-doffset); 
 3184              		.loc 5 74 0
 3185 0004 101C     		adds	r0, r2, #0
 3186              	.LVL519:
 3187 0006 FFF7FEFF 		bl	__aeabi_fsub
 3188              	.LVL520:
 3189 000a 0549     		ldr	r1, .L125
 3190 000c FFF7FEFF 		bl	__aeabi_fmul
 3191              	.LVL521:
 3192 0010 211C     		adds	r1, r4, #0
 3193 0012 FFF7FEFF 		bl	__aeabi_fsub
 3194              	.LVL522:
 3195 0016 0349     		ldr	r1, .L125+4
 3196 0018 FFF7FEFF 		bl	__aeabi_fmul
 3197              	.LVL523:
  75:./inicio.h    **** }
 3198              		.loc 5 75 0
 3199              		@ sp needed
 3200              	.LVL524:
 3201 001c 10BD     		pop	{r4, pc}
 3202              	.L126:
 3203 001e C046     		.align	2
 3204              	.L125:
 3205 0020 0000F040 		.word	1089470464
 3206 0024 0000F041 		.word	1106247680
 3207              		.cfi_endproc
 3208              	.LFE69:
 3209              		.size	ddoffset, .-ddoffset
 3210              		.global	__aeabi_ddiv
 3211              		.global	__aeabi_f2iz
 3212              		.section	.text.CPG,"ax",%progbits
 3213              		.align	2
 3214              		.global	CPG
 3215              		.code	16
 3216              		.thumb_func
 3217              		.type	CPG, %function
 3218              	CPG:
 3219              	.LFB70:
  76:./inicio.h    **** 
  77:./inicio.h    **** void CPG(){
 3220              		.loc 5 77 0
 3221              		.cfi_startproc
 3222              		@ args = 0, pretend = 0, frame = 16
 3223              		@ frame_needed = 0, uses_anonymous_args = 0
 3224 0000 F0B5     		push	{r4, r5, r6, r7, lr}
 3225              		.cfi_def_cfa_offset 20
 3226              		.cfi_offset 4, -20
 3227              		.cfi_offset 5, -16
 3228              		.cfi_offset 6, -12
 3229              		.cfi_offset 7, -8
 3230              		.cfi_offset 14, -4
ARM GAS  C:\Users\HENRYA~1\AppData\Local\Temp\cceIRlNf.s 			page 70


 3231 0002 85B0     		sub	sp, sp, #20
 3232              		.cfi_def_cfa_offset 40
  78:./inicio.h    ****     //Calculate CPG 
  79:./inicio.h    ****     teta2=(Teta_Can_l*0.001);
 3233              		.loc 5 79 0
 3234 0004 464B     		ldr	r3, .L128
 3235 0006 1868     		ldr	r0, [r3]
 3236 0008 FFF7FEFF 		bl	__aeabi_i2d
 3237              	.LVL525:
 3238 000c 454A     		ldr	r2, .L128+4
 3239 000e 464B     		ldr	r3, .L128+8
 3240 0010 FFF7FEFF 		bl	__aeabi_dmul
 3241              	.LVL526:
 3242 0014 FFF7FEFF 		bl	__aeabi_d2f
 3243              	.LVL527:
 3244 0018 041C     		adds	r4, r0, #0
 3245 001a 444F     		ldr	r7, .L128+12
 3246 001c 3861     		str	r0, [r7, #16]
  80:./inicio.h    ****     teta3=(Teta_Can_r*0.001);
 3247              		.loc 5 80 0
 3248 001e 444B     		ldr	r3, .L128+16
 3249 0020 1868     		ldr	r0, [r3]
 3250 0022 FFF7FEFF 		bl	__aeabi_i2d
 3251              	.LVL528:
 3252 0026 3F4A     		ldr	r2, .L128+4
 3253 0028 3F4B     		ldr	r3, .L128+8
 3254 002a FFF7FEFF 		bl	__aeabi_dmul
 3255              	.LVL529:
 3256 002e FFF7FEFF 		bl	__aeabi_d2f
 3257              	.LVL530:
 3258 0032 021C     		adds	r2, r0, #0
 3259 0034 7861     		str	r0, [r7, #20]
  81:./inicio.h    ****     teta = teta + dteta(teta,teta2,teta3,phase)*dt;
 3260              		.loc 5 81 0
 3261 0036 BD69     		ldr	r5, [r7, #24]
 3262 0038 FB69     		ldr	r3, [r7, #28]
 3263 003a 211C     		adds	r1, r4, #0
 3264 003c 281C     		adds	r0, r5, #0
 3265 003e FFF7FEFF 		bl	dteta
 3266              	.LVL531:
 3267 0042 3C4E     		ldr	r6, .L128+20
 3268 0044 7468     		ldr	r4, [r6, #4]
 3269 0046 211C     		adds	r1, r4, #0
 3270 0048 FFF7FEFF 		bl	__aeabi_fmul
 3271              	.LVL532:
 3272 004c 011C     		adds	r1, r0, #0
 3273 004e 281C     		adds	r0, r5, #0
 3274 0050 FFF7FEFF 		bl	__aeabi_fadd
 3275              	.LVL533:
 3276 0054 0290     		str	r0, [sp, #8]
 3277 0056 B861     		str	r0, [r7, #24]
  82:./inicio.h    ****     ampli = ampli + dampli*dt;
 3278              		.loc 5 82 0
 3279 0058 3D6A     		ldr	r5, [r7, #32]
 3280 005a 291C     		adds	r1, r5, #0
 3281 005c 201C     		adds	r0, r4, #0
 3282 005e FFF7FEFF 		bl	__aeabi_fmul
ARM GAS  C:\Users\HENRYA~1\AppData\Local\Temp\cceIRlNf.s 			page 71


 3283              	.LVL534:
 3284 0062 796A     		ldr	r1, [r7, #36]
 3285 0064 FFF7FEFF 		bl	__aeabi_fadd
 3286              	.LVL535:
 3287 0068 7862     		str	r0, [r7, #36]
  83:./inicio.h    ****     dampli = dampli + ddampli(dampli,ampli,amp2)*dt;
 3288              		.loc 5 83 0
 3289 006a BA6A     		ldr	r2, [r7, #40]
 3290 006c 0390     		str	r0, [sp, #12]
 3291 006e 011C     		adds	r1, r0, #0
 3292 0070 281C     		adds	r0, r5, #0
 3293 0072 FFF7FEFF 		bl	ddampli
 3294              	.LVL536:
 3295 0076 011C     		adds	r1, r0, #0
 3296 0078 201C     		adds	r0, r4, #0
 3297 007a FFF7FEFF 		bl	__aeabi_fmul
 3298              	.LVL537:
 3299 007e 011C     		adds	r1, r0, #0
 3300 0080 281C     		adds	r0, r5, #0
 3301 0082 FFF7FEFF 		bl	__aeabi_fadd
 3302              	.LVL538:
 3303 0086 3862     		str	r0, [r7, #32]
  84:./inicio.h    ****     offset = offset + doffset*dt;
 3304              		.loc 5 84 0
 3305 0088 FA6A     		ldr	r2, [r7, #44]
 3306 008a 0092     		str	r2, [sp]
 3307 008c 111C     		adds	r1, r2, #0
 3308 008e 201C     		adds	r0, r4, #0
 3309 0090 FFF7FEFF 		bl	__aeabi_fmul
 3310              	.LVL539:
 3311 0094 B168     		ldr	r1, [r6, #8]
 3312 0096 FFF7FEFF 		bl	__aeabi_fadd
 3313              	.LVL540:
 3314 009a 051C     		adds	r5, r0, #0
 3315 009c B060     		str	r0, [r6, #8]
  85:./inicio.h    ****     doffset = doffset + ddoffset(doffset,offset,of2)*dt;    
 3316              		.loc 5 85 0
 3317 009e F268     		ldr	r2, [r6, #12]
 3318 00a0 011C     		adds	r1, r0, #0
 3319 00a2 009E     		ldr	r6, [sp]
 3320 00a4 301C     		adds	r0, r6, #0
 3321 00a6 FFF7FEFF 		bl	ddoffset
 3322              	.LVL541:
 3323 00aa 011C     		adds	r1, r0, #0
 3324 00ac 201C     		adds	r0, r4, #0
 3325 00ae FFF7FEFF 		bl	__aeabi_fmul
 3326              	.LVL542:
 3327 00b2 011C     		adds	r1, r0, #0
 3328 00b4 301C     		adds	r0, r6, #0
 3329 00b6 FFF7FEFF 		bl	__aeabi_fadd
 3330              	.LVL543:
 3331 00ba F862     		str	r0, [r7, #44]
  86:./inicio.h    ****     sal = offset + ampli*cos(teta);
 3332              		.loc 5 86 0
 3333 00bc 0298     		ldr	r0, [sp, #8]
 3334 00be FFF7FEFF 		bl	__aeabi_f2d
 3335              	.LVL544:
ARM GAS  C:\Users\HENRYA~1\AppData\Local\Temp\cceIRlNf.s 			page 72


 3336 00c2 FFF7FEFF 		bl	cos
 3337              	.LVL545:
 3338 00c6 0090     		str	r0, [sp]
 3339 00c8 0191     		str	r1, [sp, #4]
 3340 00ca 0398     		ldr	r0, [sp, #12]
 3341 00cc FFF7FEFF 		bl	__aeabi_f2d
 3342              	.LVL546:
 3343 00d0 009A     		ldr	r2, [sp]
 3344 00d2 019B     		ldr	r3, [sp, #4]
 3345 00d4 FFF7FEFF 		bl	__aeabi_dmul
 3346              	.LVL547:
 3347 00d8 0090     		str	r0, [sp]
 3348 00da 0191     		str	r1, [sp, #4]
 3349 00dc 281C     		adds	r0, r5, #0
 3350 00de FFF7FEFF 		bl	__aeabi_f2d
 3351              	.LVL548:
 3352 00e2 009A     		ldr	r2, [sp]
 3353 00e4 019B     		ldr	r3, [sp, #4]
 3354 00e6 FFF7FEFF 		bl	__aeabi_dadd
 3355              	.LVL549:
 3356 00ea FFF7FEFF 		bl	__aeabi_d2f
 3357              	.LVL550:
 3358 00ee 3863     		str	r0, [r7, #48]
  87:./inicio.h    ****     x=(sal*1023)/(1.66666*M_PI); // covercion a bit
 3359              		.loc 5 87 0
 3360 00f0 1149     		ldr	r1, .L128+24
 3361 00f2 FFF7FEFF 		bl	__aeabi_fmul
 3362              	.LVL551:
 3363 00f6 FFF7FEFF 		bl	__aeabi_f2d
 3364              	.LVL552:
 3365 00fa 104A     		ldr	r2, .L128+28
 3366 00fc 104B     		ldr	r3, .L128+32
 3367 00fe FFF7FEFF 		bl	__aeabi_ddiv
 3368              	.LVL553:
 3369 0102 FFF7FEFF 		bl	__aeabi_d2f
 3370              	.LVL554:
 3371 0106 0F4B     		ldr	r3, .L128+36
 3372 0108 1860     		str	r0, [r3]
  88:./inicio.h    ****     f=(int)x;                    //funcion pso
 3373              		.loc 5 88 0
 3374 010a FFF7FEFF 		bl	__aeabi_f2iz
 3375              	.LVL555:
 3376 010e 0100     		movs	r1, r0
 3377 0110 0D4B     		ldr	r3, .L128+40
 3378 0112 1860     		str	r0, [r3]
  89:./inicio.h    ****     MoveSpeed(1,f,100);
 3379              		.loc 5 89 0
 3380 0114 6422     		movs	r2, #100
 3381 0116 0120     		movs	r0, #1
 3382 0118 FFF7FEFF 		bl	MoveSpeed
 3383              	.LVL556:
  90:./inicio.h    **** }
 3384              		.loc 5 90 0
 3385 011c 05B0     		add	sp, sp, #20
 3386              		@ sp needed
 3387 011e F0BD     		pop	{r4, r5, r6, r7, pc}
 3388              	.L129:
ARM GAS  C:\Users\HENRYA~1\AppData\Local\Temp\cceIRlNf.s 			page 73


 3389              		.align	2
 3390              	.L128:
 3391 0120 00000000 		.word	Teta_Can_l
 3392 0124 FCA9F1D2 		.word	-755914244
 3393 0128 4D62503F 		.word	1062232653
 3394 012c 00000000 		.word	.LANCHOR0
 3395 0130 00000000 		.word	Teta_Can_r
 3396 0134 00000000 		.word	.LANCHOR1
 3397 0138 00C07F44 		.word	1149222912
 3398 013c 8479B248 		.word	1219656068
 3399 0140 A1F11440 		.word	1075114401
 3400 0144 00000000 		.word	x
 3401 0148 00000000 		.word	f
 3402              		.cfi_endproc
 3403              	.LFE70:
 3404              		.size	CPG, .-CPG
 3405              		.section	.text.cantidad_m,"ax",%progbits
 3406              		.align	2
 3407              		.global	cantidad_m
 3408              		.code	16
 3409              		.thumb_func
 3410              		.type	cantidad_m, %function
 3411              	cantidad_m:
 3412              	.LFB71:
  91:./inicio.h    **** 
  92:./inicio.h    **** /////////////////////////////////////codigo para identificar//////////////////////////
  93:./inicio.h    **** void  cantidad_m(){
 3413              		.loc 5 93 0
 3414              		.cfi_startproc
 3415              		@ args = 0, pretend = 0, frame = 0
 3416              		@ frame_needed = 0, uses_anonymous_args = 0
 3417 0000 10B5     		push	{r4, lr}
 3418              		.cfi_def_cfa_offset 8
 3419              		.cfi_offset 4, -8
 3420              		.cfi_offset 14, -4
  94:./inicio.h    ****     dato_enviado[0]=VER ;//verificacion
 3421              		.loc 5 94 0
 3422 0002 094B     		ldr	r3, .L131
 3423 0004 7F22     		movs	r2, #127
 3424 0006 1A70     		strb	r2, [r3]
  95:./inicio.h    ****     dato_enviado[1]=DIRM;//dir
 3425              		.loc 5 95 0
 3426 0008 4932     		adds	r2, r2, #73
 3427 000a 5A70     		strb	r2, [r3, #1]
  96:./inicio.h    ****     dato_enviado[2]=ESCRITURA ;//operacion
 3428              		.loc 5 96 0
 3429 000c C63A     		subs	r2, r2, #198
 3430 000e 9A70     		strb	r2, [r3, #2]
  97:./inicio.h    ****     dato_enviado[3]=CANTIDAD_MOD;//lugar
 3431              		.loc 5 97 0
 3432 0010 2932     		adds	r2, r2, #41
 3433 0012 DA70     		strb	r2, [r3, #3]
  98:./inicio.h    ****     dato_enviado[4]=dirasig;  //dato... en este caso direcion para asignar
 3434              		.loc 5 98 0
 3435 0014 054A     		ldr	r2, .L131+4
 3436 0016 1278     		ldrb	r2, [r2]
 3437 0018 1A71     		strb	r2, [r3, #4]
ARM GAS  C:\Users\HENRYA~1\AppData\Local\Temp\cceIRlNf.s 			page 74


  99:./inicio.h    ****     CAN_SendMsg0(); 
 3438              		.loc 5 99 0
 3439 001a FFF7FEFF 		bl	CAN_SendMsg0
 3440              	.LVL557:
 100:./inicio.h    ****     CyDelay(25);
 3441              		.loc 5 100 0
 3442 001e 1920     		movs	r0, #25
 3443 0020 FFF7FEFF 		bl	CyDelay
 3444              	.LVL558:
 101:./inicio.h    **** }
 3445              		.loc 5 101 0
 3446              		@ sp needed
 3447 0024 10BD     		pop	{r4, pc}
 3448              	.L132:
 3449 0026 C046     		.align	2
 3450              	.L131:
 3451 0028 00000000 		.word	dato_enviado
 3452 002c 00000000 		.word	dirasig
 3453              		.cfi_endproc
 3454              	.LFE71:
 3455              		.size	cantidad_m, .-cantidad_m
 3456              		.section	.text.asignacion,"ax",%progbits
 3457              		.align	2
 3458              		.global	asignacion
 3459              		.code	16
 3460              		.thumb_func
 3461              		.type	asignacion, %function
 3462              	asignacion:
 3463              	.LFB72:
 102:./inicio.h    **** 
 103:./inicio.h    **** void asignacion(){
 3464              		.loc 5 103 0
 3465              		.cfi_startproc
 3466              		@ args = 0, pretend = 0, frame = 0
 3467              		@ frame_needed = 0, uses_anonymous_args = 0
 3468 0000 10B5     		push	{r4, lr}
 3469              		.cfi_def_cfa_offset 8
 3470              		.cfi_offset 4, -8
 3471              		.cfi_offset 14, -4
 104:./inicio.h    ****     dato_enviado[0]=VER ;//verificacion
 3472              		.loc 5 104 0
 3473 0002 094B     		ldr	r3, .L134
 3474 0004 7F22     		movs	r2, #127
 3475 0006 1A70     		strb	r2, [r3]
 105:./inicio.h    ****     dato_enviado[1]=DIRCS ;//dir
 3476              		.loc 5 105 0
 3477 0008 7B32     		adds	r2, r2, #123
 3478 000a 5A70     		strb	r2, [r3, #1]
 106:./inicio.h    ****     dato_enviado[2]=ESCRITURA ;//operacion
 3479              		.loc 5 106 0
 3480 000c F83A     		subs	r2, r2, #248
 3481 000e 9A70     		strb	r2, [r3, #2]
 107:./inicio.h    ****     dato_enviado[3]=MEC;//lugar
 3482              		.loc 5 107 0
 3483 0010 0832     		adds	r2, r2, #8
 3484 0012 DA70     		strb	r2, [r3, #3]
 108:./inicio.h    ****     dato_enviado[4]=dirasig ;  //dato... en este caso direcion para asignar
ARM GAS  C:\Users\HENRYA~1\AppData\Local\Temp\cceIRlNf.s 			page 75


 3485              		.loc 5 108 0
 3486 0014 054A     		ldr	r2, .L134+4
 3487 0016 1278     		ldrb	r2, [r2]
 3488 0018 1A71     		strb	r2, [r3, #4]
 109:./inicio.h    ****     CAN_SendMsg0(); 
 3489              		.loc 5 109 0
 3490 001a FFF7FEFF 		bl	CAN_SendMsg0
 3491              	.LVL559:
 110:./inicio.h    ****     CyDelay(25);
 3492              		.loc 5 110 0
 3493 001e 1920     		movs	r0, #25
 3494 0020 FFF7FEFF 		bl	CyDelay
 3495              	.LVL560:
 111:./inicio.h    **** }
 3496              		.loc 5 111 0
 3497              		@ sp needed
 3498 0024 10BD     		pop	{r4, pc}
 3499              	.L135:
 3500 0026 C046     		.align	2
 3501              	.L134:
 3502 0028 00000000 		.word	dato_enviado
 3503 002c 00000000 		.word	dirasig
 3504              		.cfi_endproc
 3505              	.LFE72:
 3506              		.size	asignacion, .-asignacion
 3507              		.section	.text.ledoff,"ax",%progbits
 3508              		.align	2
 3509              		.global	ledoff
 3510              		.code	16
 3511              		.thumb_func
 3512              		.type	ledoff, %function
 3513              	ledoff:
 3514              	.LFB73:
 112:./inicio.h    **** 
 113:./inicio.h    **** void ledoff(int datas,int direccion,int led){
 3515              		.loc 5 113 0
 3516              		.cfi_startproc
 3517              		@ args = 0, pretend = 0, frame = 0
 3518              		@ frame_needed = 0, uses_anonymous_args = 0
 3519              	.LVL561:
 3520 0000 10B5     		push	{r4, lr}
 3521              		.cfi_def_cfa_offset 8
 3522              		.cfi_offset 4, -8
 3523              		.cfi_offset 14, -4
 114:./inicio.h    ****     dato_enviado[0]=VER ;//verificacion
 3524              		.loc 5 114 0
 3525 0002 074B     		ldr	r3, .L137
 3526 0004 7F24     		movs	r4, #127
 3527 0006 1C70     		strb	r4, [r3]
 115:./inicio.h    ****     dato_enviado[1]=direccion ;//dir
 3528              		.loc 5 115 0
 3529 0008 5970     		strb	r1, [r3, #1]
 116:./inicio.h    ****     dato_enviado[2]=ESCRITURA ;//operacion
 3530              		.loc 5 116 0
 3531 000a 0221     		movs	r1, #2
 3532              	.LVL562:
 3533 000c 9970     		strb	r1, [r3, #2]
ARM GAS  C:\Users\HENRYA~1\AppData\Local\Temp\cceIRlNf.s 			page 76


 117:./inicio.h    ****     dato_enviado[3]=led;//lugar
 3534              		.loc 5 117 0
 3535 000e DA70     		strb	r2, [r3, #3]
 118:./inicio.h    ****     dato_enviado[4]= datas ;  //dato... en este caso direcion para asignar
 3536              		.loc 5 118 0
 3537 0010 1871     		strb	r0, [r3, #4]
 119:./inicio.h    ****     CAN_SendMsg0(); 
 3538              		.loc 5 119 0
 3539 0012 FFF7FEFF 		bl	CAN_SendMsg0
 3540              	.LVL563:
 120:./inicio.h    ****     CyDelay(25);
 3541              		.loc 5 120 0
 3542 0016 1920     		movs	r0, #25
 3543 0018 FFF7FEFF 		bl	CyDelay
 3544              	.LVL564:
 121:./inicio.h    **** }
 3545              		.loc 5 121 0
 3546              		@ sp needed
 3547 001c 10BD     		pop	{r4, pc}
 3548              	.L138:
 3549 001e C046     		.align	2
 3550              	.L137:
 3551 0020 00000000 		.word	dato_enviado
 3552              		.cfi_endproc
 3553              	.LFE73:
 3554              		.size	ledoff, .-ledoff
 3555              		.global	__aeabi_d2iz
 3556              		.section	.text.Send_Angle,"ax",%progbits
 3557              		.align	2
 3558              		.global	Send_Angle
 3559              		.code	16
 3560              		.thumb_func
 3561              		.type	Send_Angle, %function
 3562              	Send_Angle:
 3563              	.LFB74:
 122:./inicio.h    **** 
 123:./inicio.h    **** void Send_Angle(int datas,int Conta){ 
 3564              		.loc 5 123 0
 3565              		.cfi_startproc
 3566              		@ args = 0, pretend = 0, frame = 0
 3567              		@ frame_needed = 0, uses_anonymous_args = 0
 3568              	.LVL565:
 3569 0000 70B5     		push	{r4, r5, r6, lr}
 3570              		.cfi_def_cfa_offset 16
 3571              		.cfi_offset 4, -16
 3572              		.cfi_offset 5, -12
 3573              		.cfi_offset 6, -8
 3574              		.cfi_offset 14, -4
 3575              	.LVL566:
 124:./inicio.h    ****     int8 datoL=datas;
 125:./inicio.h    ****     int8 datoH=datas>>8;  
 3576              		.loc 5 125 0
 3577 0002 0412     		asrs	r4, r0, #8
 3578              	.LVL567:
 126:./inicio.h    ****     dato_enviado[0]=VER2;//verificacion
 3579              		.loc 5 126 0
 3580 0004 104B     		ldr	r3, .L141
ARM GAS  C:\Users\HENRYA~1\AppData\Local\Temp\cceIRlNf.s 			page 77


 3581 0006 8022     		movs	r2, #128
 3582 0008 1A70     		strb	r2, [r3]
 127:./inicio.h    ****     dato_enviado[1]=Mydir+1;//dir
 3583              		.loc 5 127 0
 3584 000a 104A     		ldr	r2, .L141+4
 3585 000c 127C     		ldrb	r2, [r2, #16]
 3586 000e 551C     		adds	r5, r2, #1
 3587 0010 5D70     		strb	r5, [r3, #1]
 128:./inicio.h    ****     if(Mydir==cantidadM){dato_enviado[1]=0;}
 3588              		.loc 5 128 0
 3589 0012 0F4B     		ldr	r3, .L141+8
 3590 0014 1B68     		ldr	r3, [r3]
 3591 0016 9A42     		cmp	r2, r3
 3592 0018 02D1     		bne	.L140
 3593              		.loc 5 128 0 is_stmt 0 discriminator 1
 3594 001a 0025     		movs	r5, #0
 3595 001c 0A4B     		ldr	r3, .L141
 3596 001e 5D70     		strb	r5, [r3, #1]
 3597              	.L140:
 129:./inicio.h    ****     dato_enviado[2]=Mydir-1;//dir
 3598              		.loc 5 129 0 is_stmt 1
 3599 0020 094B     		ldr	r3, .L141
 3600 0022 551E     		subs	r5, r2, #1
 3601 0024 9D70     		strb	r5, [r3, #2]
 130:./inicio.h    ****     dato_enviado[3]=ANGLE;
 3602              		.loc 5 130 0
 3603 0026 1B25     		movs	r5, #27
 3604 0028 DD70     		strb	r5, [r3, #3]
 131:./inicio.h    ****     dato_enviado[4]=datoL;//dato
 3605              		.loc 5 131 0
 3606 002a 1871     		strb	r0, [r3, #4]
 132:./inicio.h    ****     dato_enviado[5]=datoH;  //dato... en este caso direcion para asignar
 3607              		.loc 5 132 0
 3608 002c 5C71     		strb	r4, [r3, #5]
 133:./inicio.h    ****     dato_enviado[6]=Mydir;
 3609              		.loc 5 133 0
 3610 002e 9A71     		strb	r2, [r3, #6]
 134:./inicio.h    ****     dato_enviado[7]=Conta;
 3611              		.loc 5 134 0
 3612 0030 D971     		strb	r1, [r3, #7]
 135:./inicio.h    ****     CAN_SendMsg0();
 3613              		.loc 5 135 0
 3614 0032 FFF7FEFF 		bl	CAN_SendMsg0
 3615              	.LVL568:
 136:./inicio.h    ****     int retardo=0;
 137:./inicio.h    ****     retardo=(int)randd()*100;
 3616              		.loc 5 137 0
 3617 0036 FFF7FEFF 		bl	randd
 3618              	.LVL569:
 3619 003a FFF7FEFF 		bl	__aeabi_d2iz
 3620              	.LVL570:
 3621 003e 6423     		movs	r3, #100
 3622 0040 5843     		muls	r0, r3
 3623              	.LVL571:
 138:./inicio.h    ****     CyDelay(retardo);
 3624              		.loc 5 138 0
 3625 0042 FFF7FEFF 		bl	CyDelay
ARM GAS  C:\Users\HENRYA~1\AppData\Local\Temp\cceIRlNf.s 			page 78


 3626              	.LVL572:
 139:./inicio.h    **** }
 3627              		.loc 5 139 0
 3628              		@ sp needed
 3629              	.LVL573:
 3630 0046 70BD     		pop	{r4, r5, r6, pc}
 3631              	.L142:
 3632              		.align	2
 3633              	.L141:
 3634 0048 00000000 		.word	dato_enviado
 3635 004c 00000000 		.word	.LANCHOR1
 3636 0050 00000000 		.word	cantidadM
 3637              		.cfi_endproc
 3638              	.LFE74:
 3639              		.size	Send_Angle, .-Send_Angle
 3640              		.section	.text.inicio,"ax",%progbits
 3641              		.align	2
 3642              		.global	inicio
 3643              		.code	16
 3644              		.thumb_func
 3645              		.type	inicio, %function
 3646              	inicio:
 3647              	.LFB75:
 140:./inicio.h    **** 
 141:./inicio.h    **** void inicio(){
 3648              		.loc 5 141 0
 3649              		.cfi_startproc
 3650              		@ args = 0, pretend = 0, frame = 0
 3651              		@ frame_needed = 0, uses_anonymous_args = 0
 3652 0000 70B5     		push	{r4, r5, r6, lr}
 3653              		.cfi_def_cfa_offset 16
 3654              		.cfi_offset 4, -16
 3655              		.cfi_offset 5, -12
 3656              		.cfi_offset 6, -8
 3657              		.cfi_offset 14, -4
 3658              	.L146:
 142:./inicio.h    ****     ini:
 143:./inicio.h    ****     Pd=readProximity_2();
 3659              		.loc 5 143 0
 3660 0002 FFF7FEFF 		bl	readProximity_2
 3661              	.LVL574:
 3662 0006 474B     		ldr	r3, .L154
 3663 0008 1860     		str	r0, [r3]
 144:./inicio.h    ****     if(Mydir!=DIRCS){
 3664              		.loc 5 144 0
 3665 000a 474B     		ldr	r3, .L154+4
 3666 000c 1B7C     		ldrb	r3, [r3, #16]
 3667 000e FA2B     		cmp	r3, #250
 3668 0010 00D0     		beq	.LCB3140
 3669 0012 85E0     		b	.L143	@long jump
 3670              	.LCB3140:
 145:./inicio.h    ****        goto end;
 146:./inicio.h    ****     }else{
 147:./inicio.h    ****     errc=CAN_GetErrorState();  ///////////status can
 3671              		.loc 5 147 0
 3672 0014 FFF7FEFF 		bl	CAN_GetErrorState
 3673              	.LVL575:
ARM GAS  C:\Users\HENRYA~1\AppData\Local\Temp\cceIRlNf.s 			page 79


 3674 0018 444B     		ldr	r3, .L154+8
 3675 001a 1860     		str	r0, [r3]
 148:./inicio.h    ****         if(errc==0){  
 3676              		.loc 5 148 0
 3677 001c 0028     		cmp	r0, #0
 3678 001e F0D1     		bne	.L146
 149:./inicio.h    ****             if(Pd>=3000){
 3679              		.loc 5 149 0
 3680 0020 404B     		ldr	r3, .L154
 3681 0022 1A68     		ldr	r2, [r3]
 3682 0024 424B     		ldr	r3, .L154+12
 3683 0026 9A42     		cmp	r2, r3
 3684 0028 19DD     		ble	.L147
 150:./inicio.h    ****                 Pda=readAmbient_2(); 
 3685              		.loc 5 150 0
 3686 002a FFF7FEFF 		bl	readAmbient_2
 3687              	.LVL576:
 3688 002e 414C     		ldr	r4, .L154+16
 3689 0030 2060     		str	r0, [r4]
 151:./inicio.h    ****                 LED_3_Write(1); 
 3690              		.loc 5 151 0
 3691 0032 0120     		movs	r0, #1
 3692 0034 FFF7FEFF 		bl	LED_3_Write
 3693              	.LVL577:
 152:./inicio.h    ****                 Pda=readAmbient_2(); 
 3694              		.loc 5 152 0
 3695 0038 FFF7FEFF 		bl	readAmbient_2
 3696              	.LVL578:
 3697 003c 2060     		str	r0, [r4]
 153:./inicio.h    ****                 CyDelay(4);  
 3698              		.loc 5 153 0
 3699 003e 0420     		movs	r0, #4
 3700 0040 FFF7FEFF 		bl	CyDelay
 3701              	.LVL579:
 154:./inicio.h    ****                 LED_3_Write(0);
 3702              		.loc 5 154 0
 3703 0044 0020     		movs	r0, #0
 3704 0046 FFF7FEFF 		bl	LED_3_Write
 3705              	.LVL580:
 155:./inicio.h    ****                 Pda=readAmbient_2(); 
 3706              		.loc 5 155 0
 3707 004a FFF7FEFF 		bl	readAmbient_2
 3708              	.LVL581:
 3709 004e 2060     		str	r0, [r4]
 156:./inicio.h    ****                 CyDelay(4); 
 3710              		.loc 5 156 0
 3711 0050 0420     		movs	r0, #4
 3712 0052 FFF7FEFF 		bl	CyDelay
 3713              	.LVL582:
 157:./inicio.h    ****                 Pda=readAmbient_2(); 
 3714              		.loc 5 157 0
 3715 0056 FFF7FEFF 		bl	readAmbient_2
 3716              	.LVL583:
 3717 005a 2060     		str	r0, [r4]
 3718              	.L144:
 158:./inicio.h    ****                 goto ini;     
 3719              		.loc 5 158 0
ARM GAS  C:\Users\HENRYA~1\AppData\Local\Temp\cceIRlNf.s 			page 80


 3720 005c D1E7     		b	.L146
 3721              	.L147:
 159:./inicio.h    ****         }else{
 160:./inicio.h    ****             Mydir=0;
 3722              		.loc 5 160 0
 3723 005e 0022     		movs	r2, #0
 3724 0060 314B     		ldr	r3, .L154+4
 3725 0062 1A74     		strb	r2, [r3, #16]
 161:./inicio.h    ****             LED_2_Write(1);  ///identificador
 3726              		.loc 5 161 0
 3727 0064 0120     		movs	r0, #1
 3728 0066 FFF7FEFF 		bl	LED_2_Write
 3729              	.LVL584:
 162:./inicio.h    ****             LED_4_Write(1);///led trasero 
 3730              		.loc 5 162 0
 3731 006a 0120     		movs	r0, #1
 3732 006c FFF7FEFF 		bl	LED_4_Write
 3733              	.LVL585:
 3734              	.L148:
 163:./inicio.h    ****             asig:
 164:./inicio.h    ****             CyDelay(2000);///t para lectura amb         ///
 3735              		.loc 5 164 0
 3736 0070 FA20     		movs	r0, #250
 3737 0072 C000     		lsls	r0, r0, #3
 3738 0074 FFF7FEFF 		bl	CyDelay
 3739              	.LVL586:
 165:./inicio.h    ****             dirasig=sumadir+1;
 3740              		.loc 5 165 0
 3741 0078 2F4A     		ldr	r2, .L154+20
 3742 007a 1378     		ldrb	r3, [r2]
 3743 007c 0133     		adds	r3, r3, #1
 3744 007e 2F49     		ldr	r1, .L154+24
 3745 0080 0B70     		strb	r3, [r1]
 166:./inicio.h    ****             sumadir=0;
 3746              		.loc 5 166 0
 3747 0082 0023     		movs	r3, #0
 3748 0084 1370     		strb	r3, [r2]
 167:./inicio.h    ****             asignacion();/////envio1
 3749              		.loc 5 167 0
 3750 0086 FFF7FEFF 		bl	asignacion
 3751              	.LVL587:
 168:./inicio.h    ****             while(sumadir!=dirasig){
 3752              		.loc 5 168 0
 3753 008a 2AE0     		b	.L150
 3754              	.L152:
 169:./inicio.h    ****                 //// espera de verificacion de llegada
 170:./inicio.h    ****                 CyDelay(75);       
 3755              		.loc 5 170 0
 3756 008c 4B20     		movs	r0, #75
 3757 008e FFF7FEFF 		bl	CyDelay
 3758              	.LVL588:
 171:./inicio.h    ****                 if(t==20){ 
 3759              		.loc 5 171 0
 3760 0092 2B4B     		ldr	r3, .L154+28
 3761 0094 1B68     		ldr	r3, [r3]
 3762 0096 142B     		cmp	r3, #20
 3763 0098 20D1     		bne	.L151
ARM GAS  C:\Users\HENRYA~1\AppData\Local\Temp\cceIRlNf.s 			page 81


 172:./inicio.h    ****                     LED_4_Write(0);
 3764              		.loc 5 172 0
 3765 009a 0020     		movs	r0, #0
 3766 009c FFF7FEFF 		bl	LED_4_Write
 3767              	.LVL589:
 173:./inicio.h    ****                     dirasig= dirasig-1;
 3768              		.loc 5 173 0
 3769 00a0 264C     		ldr	r4, .L154+24
 3770 00a2 2178     		ldrb	r1, [r4]
 3771 00a4 0139     		subs	r1, r1, #1
 3772 00a6 C9B2     		uxtb	r1, r1
 3773 00a8 2170     		strb	r1, [r4]
 174:./inicio.h    ****                     ledoff(0,dirasig,LEDF);
 3774              		.loc 5 174 0
 3775 00aa 0E22     		movs	r2, #14
 3776 00ac 0020     		movs	r0, #0
 3777 00ae FFF7FEFF 		bl	ledoff
 3778              	.LVL590:
 175:./inicio.h    ****                     ant=dirasig; ///valor real de numero de modulos
 3779              		.loc 5 175 0
 3780 00b2 2378     		ldrb	r3, [r4]
 3781 00b4 234D     		ldr	r5, .L154+32
 176:./inicio.h    ****                     ant=dirasig-1;
 3782              		.loc 5 176 0
 3783 00b6 013B     		subs	r3, r3, #1
 3784 00b8 2B60     		str	r3, [r5]
 177:./inicio.h    ****                     CyDelay(5);
 3785              		.loc 5 177 0
 3786 00ba 0520     		movs	r0, #5
 3787 00bc FFF7FEFF 		bl	CyDelay
 3788              	.LVL591:
 178:./inicio.h    ****                     ledoff(0,ant,LEDF);
 3789              		.loc 5 178 0
 3790 00c0 2968     		ldr	r1, [r5]
 3791 00c2 0E22     		movs	r2, #14
 3792 00c4 0020     		movs	r0, #0
 3793 00c6 FFF7FEFF 		bl	ledoff
 3794              	.LVL592:
 179:./inicio.h    ****                     cantidad_m();
 3795              		.loc 5 179 0
 3796 00ca FFF7FEFF 		bl	cantidad_m
 3797              	.LVL593:
 180:./inicio.h    ****                     cantidadM=dirasig;
 3798              		.loc 5 180 0
 3799 00ce 2278     		ldrb	r2, [r4]
 3800 00d0 1D4B     		ldr	r3, .L154+36
 3801 00d2 1A60     		str	r2, [r3]
 181:./inicio.h    ****                     Condicion_Start=1;
 3802              		.loc 5 181 0
 3803 00d4 0122     		movs	r2, #1
 3804 00d6 1D4B     		ldr	r3, .L154+40
 3805 00d8 5A63     		str	r2, [r3, #52]
 182:./inicio.h    ****                     goto end;
 3806              		.loc 5 182 0
 3807 00da 21E0     		b	.L143
 3808              	.L151:
 183:./inicio.h    ****                 }else t++;
ARM GAS  C:\Users\HENRYA~1\AppData\Local\Temp\cceIRlNf.s 			page 82


 3809              		.loc 5 183 0
 3810 00dc 0133     		adds	r3, r3, #1
 3811 00de 184A     		ldr	r2, .L154+28
 3812 00e0 1360     		str	r3, [r2]
 3813              	.L150:
 168:./inicio.h    ****                 //// espera de verificacion de llegada
 3814              		.loc 5 168 0
 3815 00e2 154B     		ldr	r3, .L154+20
 3816 00e4 1978     		ldrb	r1, [r3]
 3817 00e6 154B     		ldr	r3, .L154+24
 3818 00e8 1B78     		ldrb	r3, [r3]
 3819 00ea 9942     		cmp	r1, r3
 3820 00ec CED1     		bne	.L152
 184:./inicio.h    ****             }t=0;  
 3821              		.loc 5 184 0
 3822 00ee 0022     		movs	r2, #0
 3823 00f0 134B     		ldr	r3, .L154+28
 3824 00f2 1A60     		str	r2, [r3]
 185:./inicio.h    ****             ledoff(1,sumadir,LEDF);
 3825              		.loc 5 185 0
 3826 00f4 0E32     		adds	r2, r2, #14
 3827 00f6 0120     		movs	r0, #1
 3828 00f8 FFF7FEFF 		bl	ledoff
 3829              	.LVL594:
 186:./inicio.h    ****             if(sumadir>1){
 3830              		.loc 5 186 0
 3831 00fc 0E4B     		ldr	r3, .L154+20
 3832 00fe 1B78     		ldrb	r3, [r3]
 3833 0100 012B     		cmp	r3, #1
 3834 0102 09D9     		bls	.L153
 187:./inicio.h    ****                 ant=dirasig-1;
 3835              		.loc 5 187 0
 3836 0104 0D4B     		ldr	r3, .L154+24
 3837 0106 1978     		ldrb	r1, [r3]
 3838 0108 0139     		subs	r1, r1, #1
 3839 010a 0E4B     		ldr	r3, .L154+32
 3840 010c 1960     		str	r1, [r3]
 188:./inicio.h    ****                 ledoff(0,ant,LEDF);
 3841              		.loc 5 188 0
 3842 010e 0E22     		movs	r2, #14
 3843 0110 0020     		movs	r0, #0
 3844 0112 FFF7FEFF 		bl	ledoff
 3845              	.LVL595:
 3846 0116 ABE7     		b	.L148
 3847              	.L153:
 189:./inicio.h    ****             }else LED_4_Write(0);      
 3848              		.loc 5 189 0
 3849 0118 0020     		movs	r0, #0
 3850 011a FFF7FEFF 		bl	LED_4_Write
 3851              	.LVL596:
 3852              	.L149:
 3853 011e A7E7     		b	.L148
 3854              	.L145:
 3855              	.L143:
 190:./inicio.h    ****             goto asig;
 191:./inicio.h    ****             }      
 192:./inicio.h    ****         } else goto ini;
ARM GAS  C:\Users\HENRYA~1\AppData\Local\Temp\cceIRlNf.s 			page 83


 193:./inicio.h    ****     }        
 194:./inicio.h    ****     end:;           
 195:./inicio.h    **** }
 3856              		.loc 5 195 0
 3857              		@ sp needed
 3858 0120 70BD     		pop	{r4, r5, r6, pc}
 3859              	.L155:
 3860 0122 C046     		.align	2
 3861              	.L154:
 3862 0124 00000000 		.word	Pd
 3863 0128 00000000 		.word	.LANCHOR1
 3864 012c 00000000 		.word	errc
 3865 0130 B70B0000 		.word	2999
 3866 0134 00000000 		.word	Pda
 3867 0138 00000000 		.word	sumadir
 3868 013c 00000000 		.word	dirasig
 3869 0140 00000000 		.word	t
 3870 0144 00000000 		.word	ant
 3871 0148 00000000 		.word	cantidadM
 3872 014c 00000000 		.word	.LANCHOR0
 3873              		.cfi_endproc
 3874              	.LFE75:
 3875              		.size	inicio, .-inicio
 3876              		.section	.text.recibmail,"ax",%progbits
 3877              		.align	2
 3878              		.global	recibmail
 3879              		.code	16
 3880              		.thumb_func
 3881              		.type	recibmail, %function
 3882              	recibmail:
 3883              	.LFB76:
 196:./inicio.h    **** 
 197:./inicio.h    **** void recibmail(){
 3884              		.loc 5 197 0
 3885              		.cfi_startproc
 3886              		@ args = 0, pretend = 0, frame = 0
 3887              		@ frame_needed = 0, uses_anonymous_args = 0
 3888 0000 70B5     		push	{r4, r5, r6, lr}
 3889              		.cfi_def_cfa_offset 16
 3890              		.cfi_offset 4, -16
 3891              		.cfi_offset 5, -12
 3892              		.cfi_offset 6, -8
 3893              		.cfi_offset 14, -4
 198:./inicio.h    ****     if((mailbox0[0]==VER)&(mailbox0[1]==Mydir)){
 3894              		.loc 5 198 0
 3895 0002 854A     		ldr	r2, .L187
 3896 0004 1478     		ldrb	r4, [r2]
 3897 0006 2300     		movs	r3, r4
 3898 0008 7F3B     		subs	r3, r3, #127
 3899 000a 5942     		rsbs	r1, r3, #0
 3900 000c 4B41     		adcs	r3, r3, r1
 3901 000e DBB2     		uxtb	r3, r3
 3902 0010 5178     		ldrb	r1, [r2, #1]
 3903 0012 824A     		ldr	r2, .L187+4
 3904 0014 107C     		ldrb	r0, [r2, #16]
 3905 0016 0A1A     		subs	r2, r1, r0
 3906 0018 5542     		rsbs	r5, r2, #0
ARM GAS  C:\Users\HENRYA~1\AppData\Local\Temp\cceIRlNf.s 			page 84


 3907 001a 6A41     		adcs	r2, r2, r5
 3908 001c 1A42     		tst	r2, r3
 3909 001e 00D1     		bne	.LCB3344
 3910 0020 99E0     		b	.L157	@long jump
 3911              	.LCB3344:
 199:./inicio.h    ****         switch(mailbox0[2]){
 3912              		.loc 5 199 0
 3913 0022 7D4B     		ldr	r3, .L187
 3914 0024 9B78     		ldrb	r3, [r3, #2]
 3915 0026 022B     		cmp	r3, #2
 3916 0028 03D0     		beq	.L159
 3917 002a 282B     		cmp	r3, #40
 3918 002c 00D0     		beq	.LCB3350
 3919 002e F1E0     		b	.L156	@long jump
 3920              	.LCB3350:
 3921 0030 8CE0     		b	.L160
 3922              	.L159:
 200:./inicio.h    ****             ///////////////////////////////////////////////////////
 201:./inicio.h    ****             case LECM:{ 
 202:./inicio.h    ****                 switch(mailbox0[3]){//////////+6+++++++++++++
 203:./inicio.h    ****                     case MOTOR:
 204:./inicio.h    ****                     break;
 205:./inicio.h    ****                     case SENSOR1:
 206:./inicio.h    ****                     switch(mailbox0[4]){
 207:./inicio.h    ****                         case SAMB:
 208:./inicio.h    ****                         //code
 209:./inicio.h    ****                         break;
 210:./inicio.h    ****                         case SPROX: 
 211:./inicio.h    ****                         //code 
 212:./inicio.h    ****                         break; 
 213:./inicio.h    ****                     }break;
 214:./inicio.h    ****                     case SENSOR2: 
 215:./inicio.h    ****                     break;
 216:./inicio.h    ****                     case SENSOR3:  
 217:./inicio.h    ****                     break;
 218:./inicio.h    ****                     case SENSOR4: 
 219:./inicio.h    ****                     break; 
 220:./inicio.h    ****                 }break;  
 221:./inicio.h    ****                 }break;   
 222:./inicio.h    ****             case ESCRITURA:{
 223:./inicio.h    ****                 switch(mailbox0[3]){////+++++++++++++++++++++++++++++++++++
 3923              		.loc 5 223 0
 3924 0032 794B     		ldr	r3, .L187
 3925 0034 DB78     		ldrb	r3, [r3, #3]
 3926 0036 033B     		subs	r3, r3, #3
 3927 0038 DAB2     		uxtb	r2, r3
 3928 003a 182A     		cmp	r2, #24
 3929 003c 00D9     		bls	.LCB3360
 3930 003e E9E0     		b	.L156	@long jump
 3931              	.LCB3360:
 3932 0040 9300     		lsls	r3, r2, #2
 3933 0042 774A     		ldr	r2, .L187+8
 3934 0044 D358     		ldr	r3, [r2, r3]
 3935 0046 9F46     		mov	pc, r3
 3936              		.section	.rodata
 3937              		.align	2
 3938              	.L162:
ARM GAS  C:\Users\HENRYA~1\AppData\Local\Temp\cceIRlNf.s 			page 85


 3939 0000 94000000 		.word	.L161
 3940 0004 14020000 		.word	.L156
 3941 0008 14020000 		.word	.L156
 3942 000c 14020000 		.word	.L156
 3943 0010 14020000 		.word	.L156
 3944 0014 14020000 		.word	.L156
 3945 0018 14020000 		.word	.L156
 3946 001c 48000000 		.word	.L163
 3947 0020 AE000000 		.word	.L164
 3948 0024 CC000000 		.word	.L165
 3949 0028 EA000000 		.word	.L166
 3950 002c 08010000 		.word	.L167
 3951 0030 14020000 		.word	.L156
 3952 0034 14020000 		.word	.L156
 3953 0038 14020000 		.word	.L156
 3954 003c 14020000 		.word	.L156
 3955 0040 14020000 		.word	.L156
 3956 0044 14020000 		.word	.L156
 3957 0048 14020000 		.word	.L156
 3958 004c 14020000 		.word	.L156
 3959 0050 14020000 		.word	.L156
 3960 0054 14020000 		.word	.L156
 3961 0058 14020000 		.word	.L156
 3962 005c 14020000 		.word	.L156
 3963 0060 24010000 		.word	.L168
 3964              		.section	.text.recibmail
 3965              	.L163:
 224:./inicio.h    ****                     case MEC:{
 225:./inicio.h    ****                         CyDelay(100);
 3966              		.loc 5 225 0
 3967 0048 6420     		movs	r0, #100
 3968 004a FFF7FEFF 		bl	CyDelay
 3969              	.LVL597:
 226:./inicio.h    ****                         LED_1_Write(1);
 3970              		.loc 5 226 0
 3971 004e 0120     		movs	r0, #1
 3972 0050 FFF7FEFF 		bl	LED_1_Write
 3973              	.LVL598:
 227:./inicio.h    ****                         CyDelay(100);
 3974              		.loc 5 227 0
 3975 0054 6420     		movs	r0, #100
 3976 0056 FFF7FEFF 		bl	CyDelay
 3977              	.LVL599:
 228:./inicio.h    ****                         LED_1_Write(0);
 3978              		.loc 5 228 0
 3979 005a 0020     		movs	r0, #0
 3980 005c FFF7FEFF 		bl	LED_1_Write
 3981              	.LVL600:
 229:./inicio.h    ****                         if(Pda>=1700){
 3982              		.loc 5 229 0
 3983 0060 704B     		ldr	r3, .L187+12
 3984 0062 1A68     		ldr	r2, [r3]
 3985 0064 704B     		ldr	r3, .L187+16
 3986 0066 9A42     		cmp	r2, r3
 3987 0068 00D8     		bhi	.LCB3388
 3988 006a D3E0     		b	.L156	@long jump
 3989              	.LCB3388:
ARM GAS  C:\Users\HENRYA~1\AppData\Local\Temp\cceIRlNf.s 			page 86


 230:./inicio.h    ****                             Mydir=mailbox0[4];
 3990              		.loc 5 230 0
 3991 006c 6A4B     		ldr	r3, .L187
 3992 006e 1979     		ldrb	r1, [r3, #4]
 3993 0070 6A4B     		ldr	r3, .L187+4
 3994 0072 1974     		strb	r1, [r3, #16]
 231:./inicio.h    ****                             dato_enviado[0]=VER;
 3995              		.loc 5 231 0
 3996 0074 6D4B     		ldr	r3, .L187+20
 3997 0076 7F22     		movs	r2, #127
 3998 0078 1A70     		strb	r2, [r3]
 232:./inicio.h    ****                             dato_enviado[1]=0;//Direccion del Maestro
 3999              		.loc 5 232 0
 4000 007a 0022     		movs	r2, #0
 4001 007c 5A70     		strb	r2, [r3, #1]
 233:./inicio.h    ****                             dato_enviado[2]=OK;
 4002              		.loc 5 233 0
 4003 007e 2820     		movs	r0, #40
 4004 0080 9870     		strb	r0, [r3, #2]
 234:./inicio.h    ****                             dato_enviado[3]=Mydir;
 4005              		.loc 5 234 0
 4006 0082 D970     		strb	r1, [r3, #3]
 235:./inicio.h    ****                             dato_enviado[4]=0;
 4007              		.loc 5 235 0
 4008 0084 1A71     		strb	r2, [r3, #4]
 236:./inicio.h    ****                             dato_enviado[5]=0;
 4009              		.loc 5 236 0
 4010 0086 5A71     		strb	r2, [r3, #5]
 237:./inicio.h    ****                             CAN_SendMsg0();
 4011              		.loc 5 237 0
 4012 0088 FFF7FEFF 		bl	CAN_SendMsg0
 4013              	.LVL601:
 238:./inicio.h    ****                             LED_1_Write(1); 
 4014              		.loc 5 238 0
 4015 008c 0120     		movs	r0, #1
 4016 008e FFF7FEFF 		bl	LED_1_Write
 4017              	.LVL602:
 4018 0092 BFE0     		b	.L156
 4019              	.L161:
 239:./inicio.h    ****                             }
 240:./inicio.h    ****                         else;}break;
 241:./inicio.h    ****                     case MOTOR:   
 242:./inicio.h    ****                     PositionM = mailbox0[4] << 8;  
 4020              		.loc 5 242 0
 4021 0094 604B     		ldr	r3, .L187
 4022 0096 1979     		ldrb	r1, [r3, #4]
 4023 0098 0902     		lsls	r1, r1, #8
 243:./inicio.h    ****                     PositionM = PositionM+mailbox0[5];
 4024              		.loc 5 243 0
 4025 009a 5B79     		ldrb	r3, [r3, #5]
 4026 009c 5918     		adds	r1, r3, r1
 4027 009e 644B     		ldr	r3, .L187+24
 4028 00a0 1960     		str	r1, [r3]
 244:./inicio.h    ****                     MoveSpeed(dir,PositionM,100);
 4029              		.loc 5 244 0
 4030 00a2 5E4B     		ldr	r3, .L187+4
 4031 00a4 587C     		ldrb	r0, [r3, #17]
ARM GAS  C:\Users\HENRYA~1\AppData\Local\Temp\cceIRlNf.s 			page 87


 4032 00a6 6422     		movs	r2, #100
 4033 00a8 FFF7FEFF 		bl	MoveSpeed
 4034              	.LVL603:
 245:./inicio.h    ****                     break;
 4035              		.loc 5 245 0
 4036 00ac B2E0     		b	.L156
 4037              	.L164:
 246:./inicio.h    ****                     case LED1:
 247:./inicio.h    ****                     switch(mailbox0[4]){
 4038              		.loc 5 247 0
 4039 00ae 5A4B     		ldr	r3, .L187
 4040 00b0 1B79     		ldrb	r3, [r3, #4]
 4041 00b2 002B     		cmp	r3, #0
 4042 00b4 06D0     		beq	.L169
 4043 00b6 012B     		cmp	r3, #1
 4044 00b8 00D0     		beq	.LCB3433
 4045 00ba ABE0     		b	.L156	@long jump
 4046              	.LCB3433:
 248:./inicio.h    ****                         case ONM:  LED_1_Write(1);  break;
 4047              		.loc 5 248 0
 4048 00bc 0120     		movs	r0, #1
 4049 00be FFF7FEFF 		bl	LED_1_Write
 4050              	.LVL604:
 4051 00c2 A7E0     		b	.L156
 4052              	.L169:
 249:./inicio.h    ****                         case OFFM: LED_1_Write(0);  break;
 4053              		.loc 5 249 0
 4054 00c4 0020     		movs	r0, #0
 4055 00c6 FFF7FEFF 		bl	LED_1_Write
 4056              	.LVL605:
 4057 00ca A3E0     		b	.L156
 4058              	.L165:
 250:./inicio.h    ****                         }break;
 251:./inicio.h    ****                     case LED2:
 252:./inicio.h    ****                     switch(mailbox0[4]){
 4059              		.loc 5 252 0
 4060 00cc 524B     		ldr	r3, .L187
 4061 00ce 1B79     		ldrb	r3, [r3, #4]
 4062 00d0 002B     		cmp	r3, #0
 4063 00d2 06D0     		beq	.L171
 4064 00d4 012B     		cmp	r3, #1
 4065 00d6 00D0     		beq	.LCB3453
 4066 00d8 9CE0     		b	.L156	@long jump
 4067              	.LCB3453:
 253:./inicio.h    ****                         case ONM:  LED_2_Write(1);  break;
 4068              		.loc 5 253 0
 4069 00da 0120     		movs	r0, #1
 4070 00dc FFF7FEFF 		bl	LED_2_Write
 4071              	.LVL606:
 4072 00e0 98E0     		b	.L156
 4073              	.L171:
 254:./inicio.h    ****                         case OFFM: LED_2_Write(0);  break;
 4074              		.loc 5 254 0
 4075 00e2 0020     		movs	r0, #0
 4076 00e4 FFF7FEFF 		bl	LED_2_Write
 4077              	.LVL607:
 4078 00e8 94E0     		b	.L156
ARM GAS  C:\Users\HENRYA~1\AppData\Local\Temp\cceIRlNf.s 			page 88


 4079              	.L166:
 255:./inicio.h    ****                         }break;
 256:./inicio.h    ****                     case LED3:
 257:./inicio.h    ****                     switch(mailbox0[4]){
 4080              		.loc 5 257 0
 4081 00ea 4B4B     		ldr	r3, .L187
 4082 00ec 1B79     		ldrb	r3, [r3, #4]
 4083 00ee 002B     		cmp	r3, #0
 4084 00f0 06D0     		beq	.L173
 4085 00f2 012B     		cmp	r3, #1
 4086 00f4 00D0     		beq	.LCB3473
 4087 00f6 8DE0     		b	.L156	@long jump
 4088              	.LCB3473:
 258:./inicio.h    ****                         case ONM:  LED_3_Write(1);  break;
 4089              		.loc 5 258 0
 4090 00f8 0120     		movs	r0, #1
 4091 00fa FFF7FEFF 		bl	LED_3_Write
 4092              	.LVL608:
 4093 00fe 89E0     		b	.L156
 4094              	.L173:
 259:./inicio.h    ****                         case OFFM: LED_3_Write(0);  break;
 4095              		.loc 5 259 0
 4096 0100 0020     		movs	r0, #0
 4097 0102 FFF7FEFF 		bl	LED_3_Write
 4098              	.LVL609:
 4099 0106 85E0     		b	.L156
 4100              	.L167:
 260:./inicio.h    ****                         }
 261:./inicio.h    ****                     break;
 262:./inicio.h    ****                     case LED4:
 263:./inicio.h    ****                     switch(mailbox0[4]){
 4101              		.loc 5 263 0
 4102 0108 434B     		ldr	r3, .L187
 4103 010a 1B79     		ldrb	r3, [r3, #4]
 4104 010c 002B     		cmp	r3, #0
 4105 010e 05D0     		beq	.L175
 4106 0110 012B     		cmp	r3, #1
 4107 0112 7FD1     		bne	.L156
 264:./inicio.h    ****                         case ONM:  LED_4_Write(1);  break;
 4108              		.loc 5 264 0
 4109 0114 0120     		movs	r0, #1
 4110 0116 FFF7FEFF 		bl	LED_4_Write
 4111              	.LVL610:
 4112 011a 7BE0     		b	.L156
 4113              	.L175:
 265:./inicio.h    ****                         case OFFM: LED_4_Write(0);  break;
 4114              		.loc 5 265 0
 4115 011c 0020     		movs	r0, #0
 4116 011e FFF7FEFF 		bl	LED_4_Write
 4117              	.LVL611:
 4118 0122 77E0     		b	.L156
 4119              	.L168:
 266:./inicio.h    ****                         }
 267:./inicio.h    ****                     break;
 268:./inicio.h    ****                     case ANGLE:{
 269:./inicio.h    ****                         if(mailbox0[4]<Mydir){
 4120              		.loc 5 269 0
ARM GAS  C:\Users\HENRYA~1\AppData\Local\Temp\cceIRlNf.s 			page 89


 4121 0124 3C4B     		ldr	r3, .L187
 4122 0126 1B79     		ldrb	r3, [r3, #4]
 4123 0128 9842     		cmp	r0, r3
 4124 012a 07D9     		bls	.L177
 270:./inicio.h    ****                             Teta_Can_r = mailbox0[6]<<8;    
 4125              		.loc 5 270 0
 4126 012c 3A4A     		ldr	r2, .L187
 4127 012e 9379     		ldrb	r3, [r2, #6]
 4128 0130 1B02     		lsls	r3, r3, #8
 271:./inicio.h    ****                             Teta_Can_r = Teta_Can_r+mailbox0[5]; 
 4129              		.loc 5 271 0
 4130 0132 5279     		ldrb	r2, [r2, #5]
 4131 0134 D318     		adds	r3, r2, r3
 4132 0136 3F4A     		ldr	r2, .L187+28
 4133 0138 1360     		str	r3, [r2]
 4134 013a 6BE0     		b	.L156
 4135              	.L177:
 272:./inicio.h    ****                         }
 273:./inicio.h    ****                         else{
 274:./inicio.h    ****                             Teta_Can_l = mailbox0[6]<<8;    
 4136              		.loc 5 274 0
 4137 013c 364A     		ldr	r2, .L187
 4138 013e 9379     		ldrb	r3, [r2, #6]
 4139 0140 1B02     		lsls	r3, r3, #8
 275:./inicio.h    ****                             Teta_Can_l = Teta_Can_l+mailbox0[5];                                   
 4140              		.loc 5 275 0
 4141 0142 5279     		ldrb	r2, [r2, #5]
 4142 0144 D318     		adds	r3, r2, r3
 4143 0146 3C4A     		ldr	r2, .L187+32
 4144 0148 1360     		str	r3, [r2]
 4145 014a 63E0     		b	.L156
 4146              	.L160:
 276:./inicio.h    ****                         }
 277:./inicio.h    ****                         }break;
 278:./inicio.h    ****                 }//////++++++++++++++++++++++++++++++++
 279:./inicio.h    ****                 }break;
 280:./inicio.h    ****             case OK:{sumadir=mailbox0[3]; }break;
 4147              		.loc 5 280 0
 4148 014c 324B     		ldr	r3, .L187
 4149 014e DA78     		ldrb	r2, [r3, #3]
 4150 0150 3A4B     		ldr	r3, .L187+36
 4151 0152 1A70     		strb	r2, [r3]
 4152 0154 5EE0     		b	.L156
 4153              	.L157:
 281:./inicio.h    ****             /////////////////////////////////////////////////////
 282:./inicio.h    ****             }
 283:./inicio.h    ****         //////
 284:./inicio.h    ****         }
 285:./inicio.h    ****     else{          
 286:./inicio.h    ****         if((mailbox0[0]==VER)&(mailbox0[1]==DIRM)){
 4154              		.loc 5 286 0
 4155 0156 0A00     		movs	r2, r1
 4156 0158 C83A     		subs	r2, r2, #200
 4157 015a 5542     		rsbs	r5, r2, #0
 4158 015c 6A41     		adcs	r2, r2, r5
 4159 015e 1A42     		tst	r2, r3
 4160 0160 0FD0     		beq	.L178
ARM GAS  C:\Users\HENRYA~1\AppData\Local\Temp\cceIRlNf.s 			page 90


 287:./inicio.h    ****             switch(mailbox0[2]){
 4161              		.loc 5 287 0
 4162 0162 2D4B     		ldr	r3, .L187
 4163 0164 9B78     		ldrb	r3, [r3, #2]
 4164 0166 022B     		cmp	r3, #2
 4165 0168 54D1     		bne	.L156
 288:./inicio.h    ****             ///////////////////////////////////////////////////////
 289:./inicio.h    ****             case ESCRITURA:{ 
 290:./inicio.h    ****                 switch(mailbox0[3]){//////////+6+++++++++++++
 4166              		.loc 5 290 0
 4167 016a 2B4B     		ldr	r3, .L187
 4168 016c DB78     		ldrb	r3, [r3, #3]
 4169 016e 2B2B     		cmp	r3, #43
 4170 0170 50D1     		bne	.L156
 291:./inicio.h    ****                     case CANTIDAD_MOD: 
 292:./inicio.h    ****                             cantidadM=mailbox0[4];
 4171              		.loc 5 292 0
 4172 0172 294B     		ldr	r3, .L187
 4173 0174 1A79     		ldrb	r2, [r3, #4]
 4174 0176 324B     		ldr	r3, .L187+40
 4175 0178 1A60     		str	r2, [r3]
 293:./inicio.h    ****                             Condicion_Start=1;
 4176              		.loc 5 293 0
 4177 017a 0122     		movs	r2, #1
 4178 017c 314B     		ldr	r3, .L187+44
 4179 017e 5A63     		str	r2, [r3, #52]
 294:./inicio.h    ****                     break;
 4180              		.loc 5 294 0
 4181 0180 48E0     		b	.L156
 4182              	.L178:
 295:./inicio.h    ****                     case START:
 296:./inicio.h    ****                         
 297:./inicio.h    ****                     break;
 298:./inicio.h    ****                 }
 299:./inicio.h    ****             }                                            
 300:./inicio.h    ****         }
 301:./inicio.h    ****     }
 302:./inicio.h    ****         else{
 303:./inicio.h    ****             if((mailbox0[0]==VER2)&&((mailbox0[1]==Mydir)||(mailbox0[2]==Mydir))){
 4183              		.loc 5 303 0
 4184 0182 802C     		cmp	r4, #128
 4185 0184 46D1     		bne	.L156
 4186              		.loc 5 303 0 is_stmt 0 discriminator 1
 4187 0186 8142     		cmp	r1, r0
 4188 0188 03D0     		beq	.L181
 4189              		.loc 5 303 0 discriminator 2
 4190 018a 234B     		ldr	r3, .L187
 4191 018c 9B78     		ldrb	r3, [r3, #2]
 4192 018e 9842     		cmp	r0, r3
 4193 0190 40D1     		bne	.L156
 4194              	.L181:
 304:./inicio.h    ****                 switch(mailbox0[3]){
 4195              		.loc 5 304 0 is_stmt 1
 4196 0192 214B     		ldr	r3, .L187
 4197 0194 DB78     		ldrb	r3, [r3, #3]
 4198 0196 1B2B     		cmp	r3, #27
 4199 0198 3CD1     		bne	.L156
ARM GAS  C:\Users\HENRYA~1\AppData\Local\Temp\cceIRlNf.s 			page 91


 305:./inicio.h    ****                 ///////////////////////////////////////////////////////
 306:./inicio.h    ****                 case ANGLE:{
 307:./inicio.h    ****                     if(S1==1){goto salto2;}
 4200              		.loc 5 307 0
 4201 019a 2A4B     		ldr	r3, .L187+44
 4202 019c 9B6B     		ldr	r3, [r3, #56]
 4203 019e 012B     		cmp	r3, #1
 4204 01a0 38D0     		beq	.L156
 308:./inicio.h    ****                     else{
 309:./inicio.h    ****                     CyDelay(100+Mydir);                       
 4205              		.loc 5 309 0
 4206 01a2 6430     		adds	r0, r0, #100
 4207 01a4 FFF7FEFF 		bl	CyDelay
 4208              	.LVL612:
 310:./inicio.h    ****                     Contador=mailbox0[7];
 4209              		.loc 5 310 0
 4210 01a8 1B4B     		ldr	r3, .L187
 4211 01aa D979     		ldrb	r1, [r3, #7]
 4212 01ac 264A     		ldr	r2, .L187+48
 4213 01ae 1160     		str	r1, [r2]
 311:./inicio.h    ****                         if(mailbox0[6]<Mydir){
 4214              		.loc 5 311 0
 4215 01b0 9A79     		ldrb	r2, [r3, #6]
 4216 01b2 1A4B     		ldr	r3, .L187+4
 4217 01b4 1B7C     		ldrb	r3, [r3, #16]
 4218 01b6 9A42     		cmp	r2, r3
 4219 01b8 07D2     		bcs	.L183
 312:./inicio.h    ****                             Teta_Can_r = mailbox0[5]<<8;    
 4220              		.loc 5 312 0
 4221 01ba 174A     		ldr	r2, .L187
 4222 01bc 5379     		ldrb	r3, [r2, #5]
 4223 01be 1B02     		lsls	r3, r3, #8
 313:./inicio.h    ****                             Teta_Can_r = Teta_Can_r+mailbox0[4]; 
 4224              		.loc 5 313 0
 4225 01c0 1279     		ldrb	r2, [r2, #4]
 4226 01c2 D318     		adds	r3, r2, r3
 4227 01c4 1B4A     		ldr	r2, .L187+28
 4228 01c6 1360     		str	r3, [r2]
 4229 01c8 06E0     		b	.L184
 4230              	.L183:
 314:./inicio.h    ****                         }
 315:./inicio.h    ****                         else{
 316:./inicio.h    ****                             Teta_Can_l = mailbox0[5]<<8;    
 4231              		.loc 5 316 0
 4232 01ca 134A     		ldr	r2, .L187
 4233 01cc 5379     		ldrb	r3, [r2, #5]
 4234 01ce 1B02     		lsls	r3, r3, #8
 317:./inicio.h    ****                             Teta_Can_l = Teta_Can_l+mailbox0[4];                                   
 4235              		.loc 5 317 0
 4236 01d0 1279     		ldrb	r2, [r2, #4]
 4237 01d2 D318     		adds	r3, r2, r3
 4238 01d4 184A     		ldr	r2, .L187+32
 4239 01d6 1360     		str	r3, [r2]
 4240              	.L184:
 318:./inicio.h    ****                         }      
 319:./inicio.h    ****                         if(Contador==Mydir){ 
 4241              		.loc 5 319 0
ARM GAS  C:\Users\HENRYA~1\AppData\Local\Temp\cceIRlNf.s 			page 92


 4242 01d8 104B     		ldr	r3, .L187+4
 4243 01da 1B7C     		ldrb	r3, [r3, #16]
 4244 01dc 1A4A     		ldr	r2, .L187+48
 4245 01de 1268     		ldr	r2, [r2]
 4246 01e0 9342     		cmp	r3, r2
 4247 01e2 17D1     		bne	.L156
 320:./inicio.h    ****                             if(Contador>=cantidadM){Contador=0;}
 4248              		.loc 5 320 0
 4249 01e4 1649     		ldr	r1, .L187+40
 4250 01e6 0968     		ldr	r1, [r1]
 4251 01e8 8A42     		cmp	r2, r1
 4252 01ea 03DB     		blt	.L185
 4253              		.loc 5 320 0 is_stmt 0 discriminator 1
 4254 01ec 0022     		movs	r2, #0
 4255 01ee 164B     		ldr	r3, .L187+48
 4256 01f0 1A60     		str	r2, [r3]
 4257 01f2 02E0     		b	.L186
 4258              	.L185:
 321:./inicio.h    ****                             else{Contador=Mydir+1;}
 4259              		.loc 5 321 0 is_stmt 1
 4260 01f4 0133     		adds	r3, r3, #1
 4261 01f6 144A     		ldr	r2, .L187+48
 4262 01f8 1360     		str	r3, [r2]
 4263              	.L186:
 322:./inicio.h    ****                             Send_Angle((int)sal*1000,Contador);
 4264              		.loc 5 322 0
 4265 01fa 124B     		ldr	r3, .L187+44
 4266 01fc 186B     		ldr	r0, [r3, #48]
 4267 01fe FFF7FEFF 		bl	__aeabi_f2iz
 4268              	.LVL613:
 4269 0202 114B     		ldr	r3, .L187+48
 4270 0204 1968     		ldr	r1, [r3]
 4271 0206 FA23     		movs	r3, #250
 4272 0208 9B00     		lsls	r3, r3, #2
 4273 020a 5843     		muls	r0, r3
 4274 020c FFF7FEFF 		bl	Send_Angle
 4275              	.LVL614:
 323:./inicio.h    ****                             CPG();
 4276              		.loc 5 323 0
 4277 0210 FFF7FEFF 		bl	CPG
 4278              	.LVL615:
 4279              	.L158:
 4280              	.L156:
 324:./inicio.h    ****                         }}
 325:./inicio.h    ****                 }salto2:
 326:./inicio.h    ****                 break;
 327:./inicio.h    ****                 
 328:./inicio.h    ****             }            
 329:./inicio.h    ****         } 
 330:./inicio.h    ****         }
 331:./inicio.h    ****     }
 332:./inicio.h    **** }
 4281              		.loc 5 332 0
 4282              		@ sp needed
 4283 0214 70BD     		pop	{r4, r5, r6, pc}
 4284              	.L188:
 4285 0216 C046     		.align	2
ARM GAS  C:\Users\HENRYA~1\AppData\Local\Temp\cceIRlNf.s 			page 93


 4286              	.L187:
 4287 0218 00000000 		.word	mailbox0
 4288 021c 00000000 		.word	.LANCHOR1
 4289 0220 00000000 		.word	.L162
 4290 0224 00000000 		.word	Pda
 4291 0228 A3060000 		.word	1699
 4292 022c 00000000 		.word	dato_enviado
 4293 0230 00000000 		.word	PositionM
 4294 0234 00000000 		.word	Teta_Can_r
 4295 0238 00000000 		.word	Teta_Can_l
 4296 023c 00000000 		.word	sumadir
 4297 0240 00000000 		.word	cantidadM
 4298 0244 00000000 		.word	.LANCHOR0
 4299 0248 00000000 		.word	Contador
 4300              		.cfi_endproc
 4301              	.LFE76:
 4302              		.size	recibmail, .-recibmail
 4303              		.section	.text.Condicion,"ax",%progbits
 4304              		.align	2
 4305              		.global	Condicion
 4306              		.code	16
 4307              		.thumb_func
 4308              		.type	Condicion, %function
 4309              	Condicion:
 4310              	.LFB77:
 333:./inicio.h    **** 
 334:./inicio.h    **** void Condicion (){
 4311              		.loc 5 334 0
 4312              		.cfi_startproc
 4313              		@ args = 0, pretend = 0, frame = 0
 4314              		@ frame_needed = 0, uses_anonymous_args = 0
 4315 0000 10B5     		push	{r4, lr}
 4316              		.cfi_def_cfa_offset 8
 4317              		.cfi_offset 4, -8
 4318              		.cfi_offset 14, -4
 335:./inicio.h    ****     while(Condicion_Start==0){
 4319              		.loc 5 335 0
 4320 0002 0BE0     		b	.L190
 4321              	.L191:
 336:./inicio.h    ****         LED_1_Write(0);
 4322              		.loc 5 336 0
 4323 0004 0020     		movs	r0, #0
 4324 0006 FFF7FEFF 		bl	LED_1_Write
 4325              	.LVL616:
 337:./inicio.h    ****         CyDelay(50);
 4326              		.loc 5 337 0
 4327 000a 3220     		movs	r0, #50
 4328 000c FFF7FEFF 		bl	CyDelay
 4329              	.LVL617:
 338:./inicio.h    ****         LED_1_Write(1);
 4330              		.loc 5 338 0
 4331 0010 0120     		movs	r0, #1
 4332 0012 FFF7FEFF 		bl	LED_1_Write
 4333              	.LVL618:
 339:./inicio.h    ****         CyDelay(50);}
 4334              		.loc 5 339 0
 4335 0016 3220     		movs	r0, #50
ARM GAS  C:\Users\HENRYA~1\AppData\Local\Temp\cceIRlNf.s 			page 94


 4336 0018 FFF7FEFF 		bl	CyDelay
 4337              	.LVL619:
 4338              	.L190:
 335:./inicio.h    ****         LED_1_Write(0);
 4339              		.loc 5 335 0
 4340 001c 144B     		ldr	r3, .L196
 4341 001e 5B6B     		ldr	r3, [r3, #52]
 4342 0020 002B     		cmp	r3, #0
 4343 0022 EFD0     		beq	.L191
 340:./inicio.h    ****     LED_1_Write(0);
 4344              		.loc 5 340 0
 4345 0024 0020     		movs	r0, #0
 4346 0026 FFF7FEFF 		bl	LED_1_Write
 4347              	.LVL620:
 341:./inicio.h    ****     if(Mydir==0&&cantidadM!=0){Seleccion=1;}
 4348              		.loc 5 341 0
 4349 002a 124B     		ldr	r3, .L196+4
 4350 002c 1B7C     		ldrb	r3, [r3, #16]
 4351 002e 002B     		cmp	r3, #0
 4352 0030 07D1     		bne	.L192
 4353              		.loc 5 341 0 is_stmt 0 discriminator 1
 4354 0032 114A     		ldr	r2, .L196+8
 4355 0034 1268     		ldr	r2, [r2]
 4356 0036 002A     		cmp	r2, #0
 4357 0038 03D0     		beq	.L192
 4358              		.loc 5 341 0 discriminator 2
 4359 003a 0122     		movs	r2, #1
 4360 003c 0C4B     		ldr	r3, .L196
 4361 003e DA60     		str	r2, [r3, #12]
 4362 0040 14E0     		b	.L189
 4363              	.L192:
 342:./inicio.h    ****     else if(Mydir==cantidadM&&cantidadM!=0){Seleccion=2;}
 4364              		.loc 5 342 0 is_stmt 1
 4365 0042 0D4A     		ldr	r2, .L196+8
 4366 0044 1268     		ldr	r2, [r2]
 4367 0046 9342     		cmp	r3, r2
 4368 0048 05D1     		bne	.L194
 4369              		.loc 5 342 0 is_stmt 0 discriminator 1
 4370 004a 002A     		cmp	r2, #0
 4371 004c 03D0     		beq	.L194
 4372              		.loc 5 342 0 discriminator 2
 4373 004e 0222     		movs	r2, #2
 4374 0050 074B     		ldr	r3, .L196
 4375 0052 DA60     		str	r2, [r3, #12]
 4376 0054 0AE0     		b	.L189
 4377              	.L194:
 343:./inicio.h    ****     else if(Mydir==0&&cantidadM==0){Seleccion=4;}
 4378              		.loc 5 343 0 is_stmt 1
 4379 0056 002B     		cmp	r3, #0
 4380 0058 05D1     		bne	.L195
 4381              		.loc 5 343 0 is_stmt 0 discriminator 1
 4382 005a 002A     		cmp	r2, #0
 4383 005c 03D1     		bne	.L195
 4384              		.loc 5 343 0 discriminator 2
 4385 005e 0432     		adds	r2, r2, #4
 4386 0060 034B     		ldr	r3, .L196
 4387 0062 DA60     		str	r2, [r3, #12]
ARM GAS  C:\Users\HENRYA~1\AppData\Local\Temp\cceIRlNf.s 			page 95


 4388 0064 02E0     		b	.L189
 4389              	.L195:
 344:./inicio.h    ****     else{Seleccion=3;}
 4390              		.loc 5 344 0 is_stmt 1
 4391 0066 0322     		movs	r2, #3
 4392 0068 014B     		ldr	r3, .L196
 4393 006a DA60     		str	r2, [r3, #12]
 4394              	.L189:
 345:./inicio.h    **** }
 4395              		.loc 5 345 0
 4396              		@ sp needed
 4397 006c 10BD     		pop	{r4, pc}
 4398              	.L197:
 4399 006e C046     		.align	2
 4400              	.L196:
 4401 0070 00000000 		.word	.LANCHOR0
 4402 0074 00000000 		.word	.LANCHOR1
 4403 0078 00000000 		.word	cantidadM
 4404              		.cfi_endproc
 4405              	.LFE77:
 4406              		.size	Condicion, .-Condicion
 4407              		.section	.text.Orientacion_Modulo,"ax",%progbits
 4408              		.align	2
 4409              		.global	Orientacion_Modulo
 4410              		.code	16
 4411              		.thumb_func
 4412              		.type	Orientacion_Modulo, %function
 4413              	Orientacion_Modulo:
 4414              	.LFB78:
 346:./inicio.h    **** 
 347:./inicio.h    **** void Orientacion_Modulo(){
 4415              		.loc 5 347 0
 4416              		.cfi_startproc
 4417              		@ args = 0, pretend = 0, frame = 0
 4418              		@ frame_needed = 0, uses_anonymous_args = 0
 4419 0000 10B5     		push	{r4, lr}
 4420              		.cfi_def_cfa_offset 8
 4421              		.cfi_offset 4, -8
 4422              		.cfi_offset 14, -4
 348:./inicio.h    ****     int pos=readProximity_3();
 4423              		.loc 5 348 0
 4424 0002 FFF7FEFF 		bl	readProximity_3
 4425              	.LVL621:
 349:./inicio.h    ****     if(pos<10000){
 4426              		.loc 5 349 0
 4427 0006 054B     		ldr	r3, .L201
 4428 0008 9842     		cmp	r0, r3
 4429 000a 03DC     		bgt	.L199
 350:./inicio.h    ****         Orientacion_H=0;
 4430              		.loc 5 350 0
 4431 000c 0022     		movs	r2, #0
 4432 000e 044B     		ldr	r3, .L201+4
 4433 0010 1A60     		str	r2, [r3]
 4434 0012 02E0     		b	.L198
 4435              	.L199:
 351:./inicio.h    ****     }
 352:./inicio.h    ****     else{
ARM GAS  C:\Users\HENRYA~1\AppData\Local\Temp\cceIRlNf.s 			page 96


 353:./inicio.h    ****         Orientacion_H=1;   
 4436              		.loc 5 353 0
 4437 0014 0122     		movs	r2, #1
 4438 0016 024B     		ldr	r3, .L201+4
 4439 0018 1A60     		str	r2, [r3]
 4440              	.L198:
 354:./inicio.h    ****     }
 355:./inicio.h    **** }
 4441              		.loc 5 355 0
 4442              		@ sp needed
 4443 001a 10BD     		pop	{r4, pc}
 4444              	.L202:
 4445              		.align	2
 4446              	.L201:
 4447 001c 0F270000 		.word	9999
 4448 0020 00000000 		.word	Orientacion_H
 4449              		.cfi_endproc
 4450              	.LFE78:
 4451              		.size	Orientacion_Modulo, .-Orientacion_Modulo
 4452              		.section	.text.Adquirir_Parametros,"ax",%progbits
 4453              		.align	2
 4454              		.global	Adquirir_Parametros
 4455              		.code	16
 4456              		.thumb_func
 4457              		.type	Adquirir_Parametros, %function
 4458              	Adquirir_Parametros:
 4459              	.LFB79:
 356:./inicio.h    **** 
 357:./inicio.h    **** void Adquirir_Parametros(){
 4460              		.loc 5 357 0
 4461              		.cfi_startproc
 4462              		@ args = 0, pretend = 0, frame = 0
 4463              		@ frame_needed = 0, uses_anonymous_args = 0
 4464 0000 10B5     		push	{r4, lr}
 4465              		.cfi_def_cfa_offset 8
 4466              		.cfi_offset 4, -8
 4467              		.cfi_offset 14, -4
 358:./inicio.h    ****                         int dato_L = mailbox1[2];
 4468              		.loc 5 358 0
 4469 0002 2C4A     		ldr	r2, .L210
 4470 0004 9078     		ldrb	r0, [r2, #2]
 4471              	.LVL622:
 359:./inicio.h    ****                         int dato_H = mailbox1[3];
 4472              		.loc 5 359 0
 4473 0006 D378     		ldrb	r3, [r2, #3]
 4474              	.LVL623:
 360:./inicio.h    ****                         int signo_can=0;
 361:./inicio.h    ****                         signo_can=dato_H>>7;
 4475              		.loc 5 361 0
 4476 0008 DA11     		asrs	r2, r3, #7
 4477              	.LVL624:
 362:./inicio.h    ****                         if(signo_can==1){
 4478              		.loc 5 362 0
 4479 000a 012A     		cmp	r2, #1
 4480 000c 04D1     		bne	.L204
 363:./inicio.h    ****                             dato_H=dato_H-128;
 4481              		.loc 5 363 0
ARM GAS  C:\Users\HENRYA~1\AppData\Local\Temp\cceIRlNf.s 			page 97


 4482 000e 803B     		subs	r3, r3, #128
 4483              	.LVL625:
 364:./inicio.h    ****                             dato_H=dato_H<<8;
 4484              		.loc 5 364 0
 4485 0010 1A02     		lsls	r2, r3, #8
 4486              	.LVL626:
 365:./inicio.h    ****                             dato_H=dato_H+dato_L;
 4487              		.loc 5 365 0
 4488 0012 8018     		adds	r0, r0, r2
 4489              	.LVL627:
 366:./inicio.h    ****                             dato_H=dato_H*-1;
 4490              		.loc 5 366 0
 4491 0014 4042     		rsbs	r0, r0, #0
 4492              	.LVL628:
 4493 0016 01E0     		b	.L205
 4494              	.LVL629:
 4495              	.L204:
 367:./inicio.h    ****                         }
 368:./inicio.h    ****                         else{
 369:./inicio.h    ****                             dato_H=dato_H<<8;
 4496              		.loc 5 369 0
 4497 0018 1B02     		lsls	r3, r3, #8
 4498              	.LVL630:
 370:./inicio.h    ****                             dato_H=dato_H+dato_L;                       
 4499              		.loc 5 370 0
 4500 001a C018     		adds	r0, r0, r3
 4501              	.LVL631:
 4502              	.L205:
 371:./inicio.h    ****                         }
 372:./inicio.h    ****                         ampli=(float)((dato_H)*0.0001);
 4503              		.loc 5 372 0
 4504 001c FFF7FEFF 		bl	__aeabi_i2d
 4505              	.LVL632:
 4506 0020 254A     		ldr	r2, .L210+4
 4507 0022 264B     		ldr	r3, .L210+8
 4508 0024 FFF7FEFF 		bl	__aeabi_dmul
 4509              	.LVL633:
 4510 0028 FFF7FEFF 		bl	__aeabi_d2f
 4511              	.LVL634:
 4512 002c 244B     		ldr	r3, .L210+12
 4513 002e 5862     		str	r0, [r3, #36]
 373:./inicio.h    ****                         amp2=ampli;
 4514              		.loc 5 373 0
 4515 0030 9862     		str	r0, [r3, #40]
 374:./inicio.h    ****                         dato_L = mailbox1[4];
 4516              		.loc 5 374 0
 4517 0032 204A     		ldr	r2, .L210
 4518 0034 1079     		ldrb	r0, [r2, #4]
 4519              	.LVL635:
 375:./inicio.h    ****                         dato_H = mailbox1[5];
 4520              		.loc 5 375 0
 4521 0036 5379     		ldrb	r3, [r2, #5]
 4522              	.LVL636:
 376:./inicio.h    ****                         signo_can=0;
 377:./inicio.h    ****                         signo_can=dato_H>>7;
 4523              		.loc 5 377 0
 4524 0038 DA11     		asrs	r2, r3, #7
ARM GAS  C:\Users\HENRYA~1\AppData\Local\Temp\cceIRlNf.s 			page 98


 4525              	.LVL637:
 378:./inicio.h    ****                         if(signo_can==1){
 4526              		.loc 5 378 0
 4527 003a 012A     		cmp	r2, #1
 4528 003c 04D1     		bne	.L206
 379:./inicio.h    ****                             dato_H=dato_H-128;
 4529              		.loc 5 379 0
 4530 003e 803B     		subs	r3, r3, #128
 4531              	.LVL638:
 380:./inicio.h    ****                             dato_H=dato_H<<8;
 4532              		.loc 5 380 0
 4533 0040 1A02     		lsls	r2, r3, #8
 4534              	.LVL639:
 381:./inicio.h    ****                             dato_H=dato_H+dato_L;
 4535              		.loc 5 381 0
 4536 0042 8018     		adds	r0, r0, r2
 4537              	.LVL640:
 382:./inicio.h    ****                             dato_H=dato_H*-1;
 4538              		.loc 5 382 0
 4539 0044 4042     		rsbs	r0, r0, #0
 4540              	.LVL641:
 4541 0046 01E0     		b	.L207
 4542              	.LVL642:
 4543              	.L206:
 383:./inicio.h    ****                         }
 384:./inicio.h    ****                         else{
 385:./inicio.h    ****                             dato_H=dato_H<<8;
 4544              		.loc 5 385 0
 4545 0048 1B02     		lsls	r3, r3, #8
 4546              	.LVL643:
 386:./inicio.h    ****                             dato_H=dato_H+dato_L;                       
 4547              		.loc 5 386 0
 4548 004a C018     		adds	r0, r0, r3
 4549              	.LVL644:
 4550              	.L207:
 387:./inicio.h    ****                         }
 388:./inicio.h    ****                         phase=(float)((dato_H)*0.0001); 
 4551              		.loc 5 388 0
 4552 004c FFF7FEFF 		bl	__aeabi_i2d
 4553              	.LVL645:
 4554 0050 194A     		ldr	r2, .L210+4
 4555 0052 1A4B     		ldr	r3, .L210+8
 4556 0054 FFF7FEFF 		bl	__aeabi_dmul
 4557              	.LVL646:
 4558 0058 FFF7FEFF 		bl	__aeabi_d2f
 4559              	.LVL647:
 389:./inicio.h    ****                         phase=phase*M_PI;
 4560              		.loc 5 389 0
 4561 005c FFF7FEFF 		bl	__aeabi_f2d
 4562              	.LVL648:
 4563 0060 184A     		ldr	r2, .L210+16
 4564 0062 194B     		ldr	r3, .L210+20
 4565 0064 FFF7FEFF 		bl	__aeabi_dmul
 4566              	.LVL649:
 4567 0068 FFF7FEFF 		bl	__aeabi_d2f
 4568              	.LVL650:
 4569 006c 144B     		ldr	r3, .L210+12
ARM GAS  C:\Users\HENRYA~1\AppData\Local\Temp\cceIRlNf.s 			page 99


 4570 006e D861     		str	r0, [r3, #28]
 390:./inicio.h    ****                         dato_L = mailbox1[6];
 4571              		.loc 5 390 0
 4572 0070 104A     		ldr	r2, .L210
 4573 0072 9079     		ldrb	r0, [r2, #6]
 4574              	.LVL651:
 391:./inicio.h    ****                         dato_H = mailbox1[7];
 4575              		.loc 5 391 0
 4576 0074 D379     		ldrb	r3, [r2, #7]
 4577              	.LVL652:
 392:./inicio.h    ****                         signo_can=0;
 393:./inicio.h    ****                         signo_can=dato_H>>7;
 4578              		.loc 5 393 0
 4579 0076 DA11     		asrs	r2, r3, #7
 4580              	.LVL653:
 394:./inicio.h    ****                         if(signo_can==1){
 4581              		.loc 5 394 0
 4582 0078 012A     		cmp	r2, #1
 4583 007a 04D1     		bne	.L208
 395:./inicio.h    ****                             dato_H=dato_H-128;
 4584              		.loc 5 395 0
 4585 007c 803B     		subs	r3, r3, #128
 4586              	.LVL654:
 396:./inicio.h    ****                             dato_H=dato_H<<8;
 4587              		.loc 5 396 0
 4588 007e 1A02     		lsls	r2, r3, #8
 4589              	.LVL655:
 397:./inicio.h    ****                             dato_H=dato_H+dato_L;
 4590              		.loc 5 397 0
 4591 0080 8018     		adds	r0, r0, r2
 4592              	.LVL656:
 398:./inicio.h    ****                             dato_H=dato_H*-1;
 4593              		.loc 5 398 0
 4594 0082 4042     		rsbs	r0, r0, #0
 4595              	.LVL657:
 4596 0084 01E0     		b	.L209
 4597              	.LVL658:
 4598              	.L208:
 399:./inicio.h    ****                         }
 400:./inicio.h    ****                         else{
 401:./inicio.h    ****                             dato_H=dato_H<<8;
 4599              		.loc 5 401 0
 4600 0086 1B02     		lsls	r3, r3, #8
 4601              	.LVL659:
 402:./inicio.h    ****                             dato_H=dato_H+dato_L;                       
 4602              		.loc 5 402 0
 4603 0088 C018     		adds	r0, r0, r3
 4604              	.LVL660:
 4605              	.L209:
 403:./inicio.h    ****                         }
 404:./inicio.h    ****                         offset=(float)((dato_H)*0.0001);
 4606              		.loc 5 404 0
 4607 008a FFF7FEFF 		bl	__aeabi_i2d
 4608              	.LVL661:
 4609 008e 0A4A     		ldr	r2, .L210+4
 4610 0090 0A4B     		ldr	r3, .L210+8
 4611 0092 FFF7FEFF 		bl	__aeabi_dmul
ARM GAS  C:\Users\HENRYA~1\AppData\Local\Temp\cceIRlNf.s 			page 100


 4612              	.LVL662:
 4613 0096 FFF7FEFF 		bl	__aeabi_d2f
 4614              	.LVL663:
 4615 009a 0C4C     		ldr	r4, .L210+24
 405:./inicio.h    ****                         offset=M_PI*offset;
 4616              		.loc 5 405 0
 4617 009c FFF7FEFF 		bl	__aeabi_f2d
 4618              	.LVL664:
 4619 00a0 084A     		ldr	r2, .L210+16
 4620 00a2 094B     		ldr	r3, .L210+20
 4621 00a4 FFF7FEFF 		bl	__aeabi_dmul
 4622              	.LVL665:
 4623 00a8 FFF7FEFF 		bl	__aeabi_d2f
 4624              	.LVL666:
 4625 00ac A060     		str	r0, [r4, #8]
 406:./inicio.h    ****                         of2=offset;
 4626              		.loc 5 406 0
 4627 00ae E060     		str	r0, [r4, #12]
 407:./inicio.h    **** }
 4628              		.loc 5 407 0
 4629              		@ sp needed
 4630 00b0 10BD     		pop	{r4, pc}
 4631              	.L211:
 4632 00b2 C046     		.align	2
 4633              	.L210:
 4634 00b4 00000000 		.word	mailbox1
 4635 00b8 2D431CEB 		.word	-350469331
 4636 00bc E2361A3F 		.word	1058682594
 4637 00c0 00000000 		.word	.LANCHOR0
 4638 00c4 182D4454 		.word	1413754136
 4639 00c8 FB210940 		.word	1074340347
 4640 00cc 00000000 		.word	.LANCHOR1
 4641              		.cfi_endproc
 4642              	.LFE79:
 4643              		.size	Adquirir_Parametros, .-Adquirir_Parametros
 4644              		.section	.text.recibmail_1,"ax",%progbits
 4645              		.align	2
 4646              		.global	recibmail_1
 4647              		.code	16
 4648              		.thumb_func
 4649              		.type	recibmail_1, %function
 4650              	recibmail_1:
 4651              	.LFB80:
 408:./inicio.h    **** 
 409:./inicio.h    **** void recibmail_1(){
 4652              		.loc 5 409 0
 4653              		.cfi_startproc
 4654              		@ args = 0, pretend = 0, frame = 0
 4655              		@ frame_needed = 0, uses_anonymous_args = 0
 4656 0000 10B5     		push	{r4, lr}
 4657              		.cfi_def_cfa_offset 8
 4658              		.cfi_offset 4, -8
 4659              		.cfi_offset 14, -4
 410:./inicio.h    ****     if(mailbox1[0]==VER_M1){
 4660              		.loc 5 410 0
 4661 0002 0E4B     		ldr	r3, .L217
 4662 0004 1B78     		ldrb	r3, [r3]
ARM GAS  C:\Users\HENRYA~1\AppData\Local\Temp\cceIRlNf.s 			page 101


 4663 0006 812B     		cmp	r3, #129
 4664 0008 16D1     		bne	.L212
 411:./inicio.h    ****         switch(mailbox1[1]){
 4665              		.loc 5 411 0
 4666 000a 0C4B     		ldr	r3, .L217
 4667 000c 5B78     		ldrb	r3, [r3, #1]
 4668 000e 202B     		cmp	r3, #32
 4669 0010 02D0     		beq	.L215
 4670 0012 212B     		cmp	r3, #33
 4671 0014 07D0     		beq	.L216
 4672 0016 0CE0     		b	.L214
 4673              	.L215:
 412:./inicio.h    ****             case H:{
 413:./inicio.h    ****                 if(Orientacion_H==1){
 4674              		.loc 5 413 0
 4675 0018 094B     		ldr	r3, .L217+4
 4676 001a 1B68     		ldr	r3, [r3]
 4677 001c 012B     		cmp	r3, #1
 4678 001e 08D1     		bne	.L214
 414:./inicio.h    ****                     Adquirir_Parametros();
 4679              		.loc 5 414 0
 4680 0020 FFF7FEFF 		bl	Adquirir_Parametros
 4681              	.LVL667:
 4682 0024 05E0     		b	.L214
 4683              	.L216:
 415:./inicio.h    ****                 }
 416:./inicio.h    ****             }break;        
 417:./inicio.h    ****             case V:{
 418:./inicio.h    ****                 if(Orientacion_H==0){
 4684              		.loc 5 418 0
 4685 0026 064B     		ldr	r3, .L217+4
 4686 0028 1B68     		ldr	r3, [r3]
 4687 002a 002B     		cmp	r3, #0
 4688 002c 01D1     		bne	.L214
 419:./inicio.h    ****                     Adquirir_Parametros();
 4689              		.loc 5 419 0
 4690 002e FFF7FEFF 		bl	Adquirir_Parametros
 4691              	.LVL668:
 4692              	.L214:
 420:./inicio.h    ****                 }
 421:./inicio.h    ****             }break;
 422:./inicio.h    ****             }
 423:./inicio.h    ****         mailbox1[0]=0;
 4693              		.loc 5 423 0
 4694 0032 0022     		movs	r2, #0
 4695 0034 014B     		ldr	r3, .L217
 4696 0036 1A70     		strb	r2, [r3]
 4697              	.L212:
 424:./inicio.h    ****     }    
 425:./inicio.h    **** }
 4698              		.loc 5 425 0
 4699              		@ sp needed
 4700 0038 10BD     		pop	{r4, pc}
 4701              	.L218:
 4702 003a C046     		.align	2
 4703              	.L217:
 4704 003c 00000000 		.word	mailbox1
ARM GAS  C:\Users\HENRYA~1\AppData\Local\Temp\cceIRlNf.s 			page 102


 4705 0040 00000000 		.word	Orientacion_H
 4706              		.cfi_endproc
 4707              	.LFE80:
 4708              		.size	recibmail_1, .-recibmail_1
 4709              		.section	.text.interrutcan,"ax",%progbits
 4710              		.align	2
 4711              		.global	interrutcan
 4712              		.code	16
 4713              		.thumb_func
 4714              		.type	interrutcan, %function
 4715              	interrutcan:
 4716              	.LFB82:
 4717              		.file 6 "main.c"
   1:main.c        **** #include <project.h>
   2:main.c        **** #include <inicio.h>
   3:main.c        **** int conta=0;
   4:main.c        **** 
   5:main.c        **** CY_ISR(interrutcan){
 4718              		.loc 6 5 0
 4719              		.cfi_startproc
 4720              		@ args = 0, pretend = 0, frame = 0
 4721              		@ frame_needed = 0, uses_anonymous_args = 0
 4722 0000 10B5     		push	{r4, lr}
 4723              		.cfi_def_cfa_offset 8
 4724              		.cfi_offset 4, -8
 4725              		.cfi_offset 14, -4
   6:main.c        ****     LED_3_Write(1);
 4726              		.loc 6 6 0
 4727 0002 0120     		movs	r0, #1
 4728 0004 FFF7FEFF 		bl	LED_3_Write
 4729              	.LVL669:
   7:main.c        ****     CAN_MsgRXIsr();///para marcar la interrucion como leida y resive msm
 4730              		.loc 6 7 0
 4731 0008 FFF7FEFF 		bl	CAN_MsgRXIsr
 4732              	.LVL670:
   8:main.c        ****     recibmail();
 4733              		.loc 6 8 0
 4734 000c FFF7FEFF 		bl	recibmail
 4735              	.LVL671:
   9:main.c        ****     recibmail_1();
 4736              		.loc 6 9 0
 4737 0010 FFF7FEFF 		bl	recibmail_1
 4738              	.LVL672:
  10:main.c        ****     LED_3_Write(0);
 4739              		.loc 6 10 0
 4740 0014 0020     		movs	r0, #0
 4741 0016 FFF7FEFF 		bl	LED_3_Write
 4742              	.LVL673:
  11:main.c        **** }
 4743              		.loc 6 11 0
 4744              		@ sp needed
 4745 001a 10BD     		pop	{r4, pc}
 4746              		.cfi_endproc
 4747              	.LFE82:
 4748              		.size	interrutcan, .-interrutcan
 4749              		.section	.text.movimiento,"ax",%progbits
 4750              		.align	2
ARM GAS  C:\Users\HENRYA~1\AppData\Local\Temp\cceIRlNf.s 			page 103


 4751              		.global	movimiento
 4752              		.code	16
 4753              		.thumb_func
 4754              		.type	movimiento, %function
 4755              	movimiento:
 4756              	.LFB81:
 426:./inicio.h    **** 
 427:./inicio.h    **** void movimiento(unsigned int dirr,int mov){
 4757              		.loc 5 427 0
 4758              		.cfi_startproc
 4759              		@ args = 0, pretend = 0, frame = 0
 4760              		@ frame_needed = 0, uses_anonymous_args = 0
 4761              	.LVL674:
 4762 0000 10B5     		push	{r4, lr}
 4763              		.cfi_def_cfa_offset 8
 4764              		.cfi_offset 4, -8
 4765              		.cfi_offset 14, -4
 428:./inicio.h    ****     char byteh,bytel;
 429:./inicio.h    ****     byteh= mov >> 8;
 4766              		.loc 5 429 0
 4767 0002 0B12     		asrs	r3, r1, #8
 4768 0004 DAB2     		uxtb	r2, r3
 4769              	.LVL675:
 430:./inicio.h    ****     bytel=mov; 
 4770              		.loc 5 430 0
 4771 0006 CCB2     		uxtb	r4, r1
 4772              	.LVL676:
 431:./inicio.h    ****     if(dirr==0){
 4773              		.loc 5 431 0
 4774 0008 0028     		cmp	r0, #0
 4775 000a 04D1     		bne	.L221
 432:./inicio.h    ****         MoveSpeed(1,mov,100);
 4776              		.loc 5 432 0
 4777 000c 6422     		movs	r2, #100
 4778              	.LVL677:
 4779 000e 0130     		adds	r0, r0, #1
 4780              	.LVL678:
 4781 0010 FFF7FEFF 		bl	MoveSpeed
 4782              	.LVL679:
 4783 0014 0EE0     		b	.L220
 4784              	.LVL680:
 4785              	.L221:
 433:./inicio.h    ****     }else{   
 434:./inicio.h    ****         dato_enviado[0]=VER ;       //verificacion
 4786              		.loc 5 434 0
 4787 0016 084B     		ldr	r3, .L223
 4788 0018 7F21     		movs	r1, #127
 4789              	.LVL681:
 4790 001a 1970     		strb	r1, [r3]
 435:./inicio.h    ****         dato_enviado[1]=dirr ;      //dir
 4791              		.loc 5 435 0
 4792 001c 5870     		strb	r0, [r3, #1]
 436:./inicio.h    ****         dato_enviado[2]=ESCRITURA ; //operacion
 4793              		.loc 5 436 0
 4794 001e 7D39     		subs	r1, r1, #125
 4795 0020 9970     		strb	r1, [r3, #2]
 437:./inicio.h    ****         dato_enviado[3]=MOTOR;      //lugar
ARM GAS  C:\Users\HENRYA~1\AppData\Local\Temp\cceIRlNf.s 			page 104


 4796              		.loc 5 437 0
 4797 0022 0131     		adds	r1, r1, #1
 4798 0024 D970     		strb	r1, [r3, #3]
 438:./inicio.h    ****         dato_enviado[4]= byteh ;    //dato
 4799              		.loc 5 438 0
 4800 0026 1A71     		strb	r2, [r3, #4]
 439:./inicio.h    ****         dato_enviado[5]= bytel ;    //dato
 4801              		.loc 5 439 0
 4802 0028 5C71     		strb	r4, [r3, #5]
 440:./inicio.h    ****         CAN_SendMsg0(); 
 4803              		.loc 5 440 0
 4804 002a FFF7FEFF 		bl	CAN_SendMsg0
 4805              	.LVL682:
 441:./inicio.h    ****         CyDelay(25);
 4806              		.loc 5 441 0
 4807 002e 1920     		movs	r0, #25
 4808 0030 FFF7FEFF 		bl	CyDelay
 4809              	.LVL683:
 4810              	.L220:
 442:./inicio.h    ****         }
 443:./inicio.h    **** }...
 4811              		.loc 5 443 0
 4812              		@ sp needed
 4813              	.LVL684:
 4814 0034 10BD     		pop	{r4, pc}
 4815              	.L224:
 4816 0036 C046     		.align	2
 4817              	.L223:
 4818 0038 00000000 		.word	dato_enviado
 4819              		.cfi_endproc
 4820              	.LFE81:
 4821              		.size	movimiento, .-movimiento
 4822              		.section	.text.Estado_COM,"ax",%progbits
 4823              		.align	2
 4824              		.global	Estado_COM
 4825              		.code	16
 4826              		.thumb_func
 4827              		.type	Estado_COM, %function
 4828              	Estado_COM:
 4829              	.LFB83:
  12:main.c        **** 
  13:main.c        **** int Estado_COM(int a,int b, int c){
 4830              		.loc 6 13 0
 4831              		.cfi_startproc
 4832              		@ args = 0, pretend = 0, frame = 0
 4833              		@ frame_needed = 0, uses_anonymous_args = 0
 4834              	.LVL685:
 4835 0000 10B5     		push	{r4, lr}
 4836              		.cfi_def_cfa_offset 8
 4837              		.cfi_offset 4, -8
 4838              		.cfi_offset 14, -4
 4839 0002 0300     		movs	r3, r0
  14:main.c        ****         if(a==0&&b==0&&c==0)      {return 0;}   //Normal
 4840              		.loc 6 14 0
 4841 0004 0400     		movs	r4, r0
 4842 0006 0C43     		orrs	r4, r1
 4843 0008 2000     		movs	r0, r4
ARM GAS  C:\Users\HENRYA~1\AppData\Local\Temp\cceIRlNf.s 			page 105


 4844              	.LVL686:
 4845 000a 1043     		orrs	r0, r2
 4846 000c 2FD0     		beq	.L226
  15:main.c        ****         else if(a==0&&b==0&&c==1) {return 0;}   //Izquierda
 4847              		.loc 6 15 0
 4848 000e 002C     		cmp	r4, #0
 4849 0010 01D1     		bne	.L227
 4850              		.loc 6 15 0 is_stmt 0 discriminator 1
 4851 0012 012A     		cmp	r2, #1
 4852 0014 1ED0     		beq	.L232
 4853              	.L227:
  16:main.c        ****         else if(a==0&&b==1&&c==0) {return 0;}   //Frontal
 4854              		.loc 6 16 0 is_stmt 1
 4855 0016 002B     		cmp	r3, #0
 4856 0018 03D1     		bne	.L228
 4857              		.loc 6 16 0 is_stmt 0 discriminator 1
 4858 001a 0129     		cmp	r1, #1
 4859 001c 01D1     		bne	.L228
 4860              		.loc 6 16 0 discriminator 2
 4861 001e 002A     		cmp	r2, #0
 4862 0020 1AD0     		beq	.L233
 4863              	.L228:
  17:main.c        ****         else if(a==0&&b==1&&c==1) {return 1;}   //Frontal e Izquierda
 4864              		.loc 6 17 0 is_stmt 1
 4865 0022 002B     		cmp	r3, #0
 4866 0024 03D1     		bne	.L229
 4867              		.loc 6 17 0 is_stmt 0 discriminator 1
 4868 0026 0129     		cmp	r1, #1
 4869 0028 01D1     		bne	.L229
 4870              		.loc 6 17 0 discriminator 2
 4871 002a 012A     		cmp	r2, #1
 4872 002c 16D0     		beq	.L234
 4873              	.L229:
  18:main.c        ****         else if(a==1&&b==0&&c==0) {return 0;}   //Derecha
 4874              		.loc 6 18 0 is_stmt 1
 4875 002e 012B     		cmp	r3, #1
 4876 0030 02D1     		bne	.L230
 4877              		.loc 6 18 0 is_stmt 0 discriminator 1
 4878 0032 0800     		movs	r0, r1
 4879 0034 1043     		orrs	r0, r2
 4880 0036 1AD0     		beq	.L226
 4881              	.L230:
  19:main.c        ****         else if(a==1&&b==0&&c==1) {return 0;}   //Derecha e Izquierda
 4882              		.loc 6 19 0 is_stmt 1
 4883 0038 012B     		cmp	r3, #1
 4884 003a 03D1     		bne	.L231
 4885              		.loc 6 19 0 is_stmt 0 discriminator 1
 4886 003c 0029     		cmp	r1, #0
 4887 003e 01D1     		bne	.L231
 4888              		.loc 6 19 0 discriminator 2
 4889 0040 012A     		cmp	r2, #1
 4890 0042 0DD0     		beq	.L235
 4891              	.L231:
  20:main.c        ****         else if(a==1&&b==1&&c==0) {return 1;}   //Frontal y Derecha
 4892              		.loc 6 20 0 is_stmt 1
 4893 0044 012B     		cmp	r3, #1
 4894 0046 0DD1     		bne	.L236
ARM GAS  C:\Users\HENRYA~1\AppData\Local\Temp\cceIRlNf.s 			page 106


 4895              		.loc 6 20 0 is_stmt 0 discriminator 1
 4896 0048 0129     		cmp	r1, #1
 4897 004a 0DD1     		bne	.L237
 4898              		.loc 6 20 0 discriminator 2
 4899 004c 002A     		cmp	r2, #0
 4900 004e 0DD0     		beq	.L238
  21:main.c        ****         else if(a==1&&b==1&&c==1) {return 0;}   //Todos
  22:main.c        ****         else                      {return 0;}   //Normal
 4901              		.loc 6 22 0 is_stmt 1
 4902 0050 0020     		movs	r0, #0
 4903 0052 0CE0     		b	.L226
 4904              	.L232:
  15:main.c        ****         else if(a==0&&b==1&&c==0) {return 0;}   //Frontal
 4905              		.loc 6 15 0
 4906 0054 2000     		movs	r0, r4
 4907 0056 0AE0     		b	.L226
 4908              	.L233:
  16:main.c        ****         else if(a==0&&b==1&&c==1) {return 1;}   //Frontal e Izquierda
 4909              		.loc 6 16 0
 4910 0058 0020     		movs	r0, #0
 4911 005a 08E0     		b	.L226
 4912              	.L234:
  17:main.c        ****         else if(a==1&&b==0&&c==0) {return 0;}   //Derecha
 4913              		.loc 6 17 0
 4914 005c 0120     		movs	r0, #1
 4915 005e 06E0     		b	.L226
 4916              	.L235:
  19:main.c        ****         else if(a==1&&b==1&&c==0) {return 1;}   //Frontal y Derecha
 4917              		.loc 6 19 0
 4918 0060 0020     		movs	r0, #0
 4919 0062 04E0     		b	.L226
 4920              	.L236:
 4921              		.loc 6 22 0
 4922 0064 0020     		movs	r0, #0
 4923 0066 02E0     		b	.L226
 4924              	.L237:
 4925 0068 0020     		movs	r0, #0
 4926 006a 00E0     		b	.L226
 4927              	.L238:
  20:main.c        ****         else if(a==1&&b==1&&c==1) {return 0;}   //Todos
 4928              		.loc 6 20 0
 4929 006c 0120     		movs	r0, #1
 4930              	.L226:
  23:main.c        **** }
 4931              		.loc 6 23 0
 4932              		@ sp needed
 4933 006e 10BD     		pop	{r4, pc}
 4934              		.cfi_endproc
 4935              	.LFE83:
 4936              		.size	Estado_COM, .-Estado_COM
 4937              		.section	.text.main,"ax",%progbits
 4938              		.align	2
 4939              		.global	main
 4940              		.code	16
 4941              		.thumb_func
 4942              		.type	main, %function
 4943              	main:
ARM GAS  C:\Users\HENRYA~1\AppData\Local\Temp\cceIRlNf.s 			page 107


 4944              	.LFB84:
  24:main.c        **** 
  25:main.c        **** int main()
  26:main.c        **** {  
 4945              		.loc 6 26 0
 4946              		.cfi_startproc
 4947              		@ Volatile: function does not return.
 4948              		@ args = 0, pretend = 0, frame = 0
 4949              		@ frame_needed = 0, uses_anonymous_args = 0
 4950 0000 10B5     		push	{r4, lr}
 4951              		.cfi_def_cfa_offset 8
 4952              		.cfi_offset 4, -8
 4953              		.cfi_offset 14, -4
  27:main.c        ****     CyGlobalIntEnable; /* Enable global interrupts. */
 4954              		.loc 6 27 0
 4955              		.syntax divided
 4956              	@ 27 "main.c" 1
 4957 0002 62B6     		CPSIE   i
 4958              	@ 0 "" 2
  28:main.c        ****     //Init LED's
  29:main.c        ****     LED_1_Write(0);
 4959              		.loc 6 29 0
 4960              		.thumb
 4961              		.syntax unified
 4962 0004 0020     		movs	r0, #0
 4963 0006 FFF7FEFF 		bl	LED_1_Write
 4964              	.LVL687:
  30:main.c        ****     LED_2_Write(0);
 4965              		.loc 6 30 0
 4966 000a 0020     		movs	r0, #0
 4967 000c FFF7FEFF 		bl	LED_2_Write
 4968              	.LVL688:
  31:main.c        ****     LED_3_Write(0);
 4969              		.loc 6 31 0
 4970 0010 0020     		movs	r0, #0
 4971 0012 FFF7FEFF 		bl	LED_3_Write
 4972              	.LVL689:
  32:main.c        ****     LED_4_Write(0);
 4973              		.loc 6 32 0
 4974 0016 0020     		movs	r0, #0
 4975 0018 FFF7FEFF 		bl	LED_4_Write
 4976              	.LVL690:
  33:main.c        ****     //Init Sensor's
  34:main.c        ****     SENSOR_1_Start();
 4977              		.loc 6 34 0
 4978 001c FFF7FEFF 		bl	SENSOR_1_Start
 4979              	.LVL691:
  35:main.c        ****     SENSOR_1_Enable();
 4980              		.loc 6 35 0
 4981 0020 FFF7FEFF 		bl	SENSOR_1_Enable
 4982              	.LVL692:
  36:main.c        ****     SENSOR_2_Start();
 4983              		.loc 6 36 0
 4984 0024 FFF7FEFF 		bl	SENSOR_2_Start
 4985              	.LVL693:
  37:main.c        ****     SENSOR_2_Enable();
 4986              		.loc 6 37 0
ARM GAS  C:\Users\HENRYA~1\AppData\Local\Temp\cceIRlNf.s 			page 108


 4987 0028 FFF7FEFF 		bl	SENSOR_2_Enable
 4988              	.LVL694:
  38:main.c        ****     SENSOR_3_Start();
 4989              		.loc 6 38 0
 4990 002c FFF7FEFF 		bl	SENSOR_3_Start
 4991              	.LVL695:
  39:main.c        ****     SENSOR_3_Enable();
 4992              		.loc 6 39 0
 4993 0030 FFF7FEFF 		bl	SENSOR_3_Enable
 4994              	.LVL696:
  40:main.c        ****     SENSOR_4_Start();
 4995              		.loc 6 40 0
 4996 0034 FFF7FEFF 		bl	SENSOR_4_Start
 4997              	.LVL697:
  41:main.c        ****     SENSOR_4_Enable();    
 4998              		.loc 6 41 0
 4999 0038 FFF7FEFF 		bl	SENSOR_4_Enable
 5000              	.LVL698:
  42:main.c        ****     CyDelay(100);
 5001              		.loc 6 42 0
 5002 003c 6420     		movs	r0, #100
 5003 003e FFF7FEFF 		bl	CyDelay
 5004              	.LVL699:
  43:main.c        ****     initVCNL_1();
 5005              		.loc 6 43 0
 5006 0042 FFF7FEFF 		bl	initVCNL_1
 5007              	.LVL700:
  44:main.c        ****     initVCNL_2();
 5008              		.loc 6 44 0
 5009 0046 FFF7FEFF 		bl	initVCNL_2
 5010              	.LVL701:
  45:main.c        ****     initVCNL_3();
 5011              		.loc 6 45 0
 5012 004a FFF7FEFF 		bl	initVCNL_3
 5013              	.LVL702:
  46:main.c        ****     Orientacion_Modulo();    
 5014              		.loc 6 46 0
 5015 004e FFF7FEFF 		bl	Orientacion_Modulo
 5016              	.LVL703:
  47:main.c        ****     CAN_Start();                    //  start CAN
 5017              		.loc 6 47 0
 5018 0052 FFF7FEFF 		bl	CAN_Start
 5019              	.LVL704:
  48:main.c        ****     CAN_isr_StartEx(interrutcan);   //interrucion can
 5020              		.loc 6 48 0
 5021 0056 3148     		ldr	r0, .L249
 5022 0058 FFF7FEFF 		bl	CAN_isr_StartEx
 5023              	.LVL705:
  49:main.c        ****     dir=1;                          //direcion del motor
 5024              		.loc 6 49 0
 5025 005c 304C     		ldr	r4, .L249+4
 5026 005e 0123     		movs	r3, #1
 5027 0060 6374     		strb	r3, [r4, #17]
  50:main.c        ****     RX_Start();                     //rx motor
 5028              		.loc 6 50 0
 5029 0062 FFF7FEFF 		bl	RX_Start
 5030              	.LVL706:
ARM GAS  C:\Users\HENRYA~1\AppData\Local\Temp\cceIRlNf.s 			page 109


  51:main.c        ****     MOTOR_Start();                  //tx motor
 5031              		.loc 6 51 0
 5032 0066 FFF7FEFF 		bl	MOTOR_Start
 5033              	.LVL707:
  52:main.c        ****     TXC_Write(3);                   // rx y tx desabilitados
 5034              		.loc 6 52 0
 5035 006a 0320     		movs	r0, #3
 5036 006c FFF7FEFF 		bl	TXC_Write
 5037              	.LVL708:
  53:main.c        ****     CAN_GlobalIntEnable();
 5038              		.loc 6 53 0
 5039 0070 FFF7FEFF 		bl	CAN_GlobalIntEnable
 5040              	.LVL709:
  54:main.c        ****     inicio();
 5041              		.loc 6 54 0
 5042 0074 FFF7FEFF 		bl	inicio
 5043              	.LVL710:
  55:main.c        ****     Condicion();
 5044              		.loc 6 55 0
 5045 0078 FFF7FEFF 		bl	Condicion
 5046              	.LVL711:
  56:main.c        ****     if(Mydir==0){Send_Angle(0,1);}
 5047              		.loc 6 56 0
 5048 007c 237C     		ldrb	r3, [r4, #16]
 5049 007e 002B     		cmp	r3, #0
 5050 0080 03D1     		bne	.L240
 5051              		.loc 6 56 0 is_stmt 0 discriminator 1
 5052 0082 0121     		movs	r1, #1
 5053 0084 0020     		movs	r0, #0
 5054 0086 FFF7FEFF 		bl	Send_Angle
 5055              	.LVL712:
 5056              	.L240:
  57:main.c        ****     dt=0.1*cantidadM;
 5057              		.loc 6 57 0 is_stmt 1
 5058 008a 264B     		ldr	r3, .L249+8
 5059 008c 1868     		ldr	r0, [r3]
 5060 008e FFF7FEFF 		bl	__aeabi_i2d
 5061              	.LVL713:
 5062 0092 254A     		ldr	r2, .L249+12
 5063 0094 254B     		ldr	r3, .L249+16
 5064 0096 FFF7FEFF 		bl	__aeabi_dmul
 5065              	.LVL714:
 5066 009a FFF7FEFF 		bl	__aeabi_d2f
 5067              	.LVL715:
 5068 009e 204B     		ldr	r3, .L249+4
 5069 00a0 5860     		str	r0, [r3, #4]
 5070              	.L241:
  58:main.c        ****     for(;;){
  59:main.c        ****     //Bucle Infinito
  60:main.c        ****         if(Mydir==0){
 5071              		.loc 6 60 0
 5072 00a2 1F4B     		ldr	r3, .L249+4
 5073 00a4 1B7C     		ldrb	r3, [r3, #16]
 5074 00a6 002B     		cmp	r3, #0
 5075 00a8 FBD1     		bne	.L241
  61:main.c        ****             dato_enviado_2[0]=SENSORES;
 5076              		.loc 6 61 0
ARM GAS  C:\Users\HENRYA~1\AppData\Local\Temp\cceIRlNf.s 			page 110


 5077 00aa 8222     		movs	r2, #130
 5078 00ac 204B     		ldr	r3, .L249+20
 5079 00ae 1A70     		strb	r2, [r3]
  62:main.c        ****             if(readProximity_1()>3000){
 5080              		.loc 6 62 0
 5081 00b0 FFF7FEFF 		bl	readProximity_1
 5082              	.LVL716:
 5083 00b4 1F4B     		ldr	r3, .L249+24
 5084 00b6 9842     		cmp	r0, r3
 5085 00b8 03D9     		bls	.L242
  63:main.c        ****                 dato_enviado_2[1]=1;
 5086              		.loc 6 63 0
 5087 00ba 0122     		movs	r2, #1
 5088 00bc 1C4B     		ldr	r3, .L249+20
 5089 00be 5A70     		strb	r2, [r3, #1]
 5090 00c0 02E0     		b	.L243
 5091              	.L242:
  64:main.c        ****             }
  65:main.c        ****             else{dato_enviado_2[1]=0;}
 5092              		.loc 6 65 0
 5093 00c2 0022     		movs	r2, #0
 5094 00c4 1A4B     		ldr	r3, .L249+20
 5095 00c6 5A70     		strb	r2, [r3, #1]
 5096              	.L243:
  66:main.c        ****             if(readProximity_2()>3000&&readPosition(1)<=500){
 5097              		.loc 6 66 0
 5098 00c8 FFF7FEFF 		bl	readProximity_2
 5099              	.LVL717:
 5100 00cc 194B     		ldr	r3, .L249+24
 5101 00ce 9842     		cmp	r0, r3
 5102 00d0 0AD9     		bls	.L244
 5103              		.loc 6 66 0 is_stmt 0 discriminator 1
 5104 00d2 0120     		movs	r0, #1
 5105 00d4 FFF7FEFF 		bl	readPosition
 5106              	.LVL718:
 5107 00d8 FA23     		movs	r3, #250
 5108 00da 5B00     		lsls	r3, r3, #1
 5109 00dc 9842     		cmp	r0, r3
 5110 00de 03DC     		bgt	.L244
  67:main.c        ****                 dato_enviado_2[2]=1;
 5111              		.loc 6 67 0 is_stmt 1
 5112 00e0 0122     		movs	r2, #1
 5113 00e2 134B     		ldr	r3, .L249+20
 5114 00e4 9A70     		strb	r2, [r3, #2]
 5115 00e6 02E0     		b	.L245
 5116              	.L244:
  68:main.c        ****             }
  69:main.c        ****             else{dato_enviado_2[2]=0;}
 5117              		.loc 6 69 0
 5118 00e8 0022     		movs	r2, #0
 5119 00ea 114B     		ldr	r3, .L249+20
 5120 00ec 9A70     		strb	r2, [r3, #2]
 5121              	.L245:
  70:main.c        ****             if(readProximity_3()>3000){
 5122              		.loc 6 70 0
 5123 00ee FFF7FEFF 		bl	readProximity_3
 5124              	.LVL719:
ARM GAS  C:\Users\HENRYA~1\AppData\Local\Temp\cceIRlNf.s 			page 111


 5125 00f2 104B     		ldr	r3, .L249+24
 5126 00f4 9842     		cmp	r0, r3
 5127 00f6 03D9     		bls	.L246
  71:main.c        ****                 dato_enviado_2[3]=1;
 5128              		.loc 6 71 0
 5129 00f8 0122     		movs	r2, #1
 5130 00fa 0D4B     		ldr	r3, .L249+20
 5131 00fc DA70     		strb	r2, [r3, #3]
 5132 00fe 02E0     		b	.L247
 5133              	.L246:
  72:main.c        ****             }
  73:main.c        ****             else{dato_enviado_2[3]=0;}
 5134              		.loc 6 73 0
 5135 0100 0022     		movs	r2, #0
 5136 0102 0B4B     		ldr	r3, .L249+20
 5137 0104 DA70     		strb	r2, [r3, #3]
 5138              	.L247:
  74:main.c        ****             S1=Estado_COM(dato_enviado_2[1],dato_enviado_2[2],dato_enviado_2[3]);
 5139              		.loc 6 74 0
 5140 0106 0A4B     		ldr	r3, .L249+20
 5141 0108 5878     		ldrb	r0, [r3, #1]
 5142 010a 9978     		ldrb	r1, [r3, #2]
 5143 010c DA78     		ldrb	r2, [r3, #3]
 5144 010e FFF7FEFF 		bl	Estado_COM
 5145              	.LVL720:
 5146 0112 094B     		ldr	r3, .L249+28
 5147 0114 9863     		str	r0, [r3, #56]
  75:main.c        ****             CAN_SendMsg2();
 5148              		.loc 6 75 0
 5149 0116 FFF7FEFF 		bl	CAN_SendMsg2
 5150              	.LVL721:
 5151 011a C2E7     		b	.L241
 5152              	.L250:
 5153              		.align	2
 5154              	.L249:
 5155 011c 00000000 		.word	interrutcan
 5156 0120 00000000 		.word	.LANCHOR1
 5157 0124 00000000 		.word	cantidadM
 5158 0128 9A999999 		.word	-1717986918
 5159 012c 9999B93F 		.word	1069128089
 5160 0130 00000000 		.word	dato_enviado_2
 5161 0134 B80B0000 		.word	3000
 5162 0138 00000000 		.word	.LANCHOR0
 5163              		.cfi_endproc
 5164              	.LFE84:
 5165              		.size	main, .-main
 5166              		.global	conta
 5167              		.global	S1
 5168              		.comm	posicionl,4,4
 5169              		.comm	posicionh,4,4
 5170              		.comm	posicion,4,4
 5171              		.comm	amb,4,4
 5172              		.comm	error,1,1
 5173              		.comm	tes,1,1
 5174              		.comm	tem,1,1
 5175              		.comm	srf,4,4
 5176              		.comm	mailbox2,8,4
ARM GAS  C:\Users\HENRYA~1\AppData\Local\Temp\cceIRlNf.s 			page 112


 5177              		.comm	mailbox1,8,4
 5178              		.comm	mailbox0,8,4
 5179              		.comm	dato_enviado_2,8,4
 5180              		.comm	dato_enviado,8,4
 5181              		.comm	sumadir,1,1
 5182              		.comm	dirasig,1,1
 5183              		.global	Mydir
 5184              		.comm	Pda,4,4
 5185              		.global	dir
 5186              		.comm	Orientacion_V,4,4
 5187              		.comm	Orientacion_H,4,4
 5188              		.comm	Contador,4,4
 5189              		.comm	cantidadM,4,4
 5190              		.comm	Teta_Can_r,4,4
 5191              		.comm	Teta_Can_l,4,4
 5192              		.comm	PositionM,4,4
 5193              		.comm	errc,4,4
 5194              		.comm	Pta,4,4
 5195              		.comm	M,4,4
 5196              		.comm	cstatus,4,4
 5197              		.comm	Pt,4,4
 5198              		.comm	Pd,4,4
 5199              		.comm	t,4,4
 5200              		.comm	ant,4,4
 5201              		.global	Condicion_Start
 5202              		.global	Seleccion
 5203              		.comm	almacena_salida,4,4
 5204              		.comm	v,4,4
 5205              		.comm	f,4,4
 5206              		.comm	y,4,4
 5207              		.comm	x,4,4
 5208              		.comm	theta_velocidad,4,4
 5209              		.comm	theta,4,4
 5210              		.global	vel
 5211              		.global	sal
 5212              		.global	dt
 5213              		.global	doffset
 5214              		.global	offset
 5215              		.global	of2
 5216              		.global	dampli
 5217              		.global	amp2
 5218              		.global	ampli
 5219              		.global	phase
 5220              		.global	teta3
 5221              		.global	teta2
 5222              		.global	teta
 5223              		.global	pi
 5224              		.comm	Time_Counter,4,4
 5225              		.comm	Position_Low_Byte,1,1
 5226              		.comm	Position_High_Byte,1,1
 5227              		.comm	Position_Long_Byte,1,1
 5228              		.comm	Incoming_Byte2,1,1
 5229              		.comm	Error_Byte,1,1
 5230              		.comm	Temperature_Byte,1,1
 5231              		.comm	Incoming_Byte,1,1
 5232              		.comm	Checksum,1,1
 5233              		.global	iii
ARM GAS  C:\Users\HENRYA~1\AppData\Local\Temp\cceIRlNf.s 			page 113


 5234              		.global	ii
 5235              		.global	i
 5236              		.data
 5237              		.align	2
 5238              		.set	.LANCHOR1,. + 0
 5239              		.type	pi, %object
 5240              		.size	pi, 4
 5241              	pi:
 5242 0000 DB0F4940 		.word	1078530011
 5243              		.type	dt, %object
 5244              		.size	dt, 4
 5245              	dt:
 5246 0004 CDCC4C3D 		.word	1028443341
 5247              		.type	offset, %object
 5248              		.size	offset, 4
 5249              	offset:
 5250 0008 7F8B2740 		.word	1076333439
 5251              		.type	of2, %object
 5252              		.size	of2, 4
 5253              	of2:
 5254 000c 7F8B2740 		.word	1076333439
 5255              		.type	Mydir, %object
 5256              		.size	Mydir, 1
 5257              	Mydir:
 5258 0010 FA       		.byte	-6
 5259              		.type	dir, %object
 5260              		.size	dir, 1
 5261              	dir:
 5262 0011 01       		.byte	1
 5263              		.bss
 5264              		.align	2
 5265              		.set	.LANCHOR0,. + 0
 5266              		.type	i, %object
 5267              		.size	i, 4
 5268              	i:
 5269 0000 00000000 		.space	4
 5270              		.type	ii, %object
 5271              		.size	ii, 4
 5272              	ii:
 5273 0004 00000000 		.space	4
 5274              		.type	iii, %object
 5275              		.size	iii, 4
 5276              	iii:
 5277 0008 00000000 		.space	4
 5278              		.type	Seleccion, %object
 5279              		.size	Seleccion, 4
 5280              	Seleccion:
 5281 000c 00000000 		.space	4
 5282              		.type	teta2, %object
 5283              		.size	teta2, 4
 5284              	teta2:
 5285 0010 00000000 		.space	4
 5286              		.type	teta3, %object
 5287              		.size	teta3, 4
 5288              	teta3:
 5289 0014 00000000 		.space	4
 5290              		.type	teta, %object
ARM GAS  C:\Users\HENRYA~1\AppData\Local\Temp\cceIRlNf.s 			page 114


 5291              		.size	teta, 4
 5292              	teta:
 5293 0018 00000000 		.space	4
 5294              		.type	phase, %object
 5295              		.size	phase, 4
 5296              	phase:
 5297 001c 00000000 		.space	4
 5298              		.type	dampli, %object
 5299              		.size	dampli, 4
 5300              	dampli:
 5301 0020 00000000 		.space	4
 5302              		.type	ampli, %object
 5303              		.size	ampli, 4
 5304              	ampli:
 5305 0024 00000000 		.space	4
 5306              		.type	amp2, %object
 5307              		.size	amp2, 4
 5308              	amp2:
 5309 0028 00000000 		.space	4
 5310              		.type	doffset, %object
 5311              		.size	doffset, 4
 5312              	doffset:
 5313 002c 00000000 		.space	4
 5314              		.type	sal, %object
 5315              		.size	sal, 4
 5316              	sal:
 5317 0030 00000000 		.space	4
 5318              		.type	Condicion_Start, %object
 5319              		.size	Condicion_Start, 4
 5320              	Condicion_Start:
 5321 0034 00000000 		.space	4
 5322              		.type	S1, %object
 5323              		.size	S1, 4
 5324              	S1:
 5325 0038 00000000 		.space	4
 5326              		.type	conta, %object
 5327              		.size	conta, 4
 5328              	conta:
 5329 003c 00000000 		.space	4
 5330              		.type	vel, %object
 5331              		.size	vel, 4
 5332              	vel:
 5333 0040 00000000 		.space	4
 5334              		.text
 5335              	.Letext0:
 5336              		.file 7 "Generated_Source\\PSoC4/cytypes.h"
 5337              		.file 8 "Generated_Source\\PSoC4/SENSOR_1_I2C.h"
 5338              		.file 9 "Generated_Source\\PSoC4/LED_1.h"
 5339              		.file 10 "Generated_Source\\PSoC4/CyLib.h"
 5340              		.file 11 "Generated_Source\\PSoC4/SENSOR_2_I2C.h"
 5341              		.file 12 "Generated_Source\\PSoC4/LED_2.h"
 5342              		.file 13 "Generated_Source\\PSoC4/SENSOR_3_I2C.h"
 5343              		.file 14 "Generated_Source\\PSoC4/LED_3.h"
 5344              		.file 15 "Generated_Source\\PSoC4/RX.h"
 5345              		.file 16 "Generated_Source\\PSoC4/TXC.h"
 5346              		.file 17 "Generated_Source\\PSoC4/MOTOR.h"
 5347              		.file 18 "c:\\program files (x86)\\cypress\\psoc creator\\4.1\\psoc creator\\import\\gnu\\arm\\5.4
ARM GAS  C:\Users\HENRYA~1\AppData\Local\Temp\cceIRlNf.s 			page 115


 5348              		.file 19 "c:\\program files (x86)\\cypress\\psoc creator\\4.1\\psoc creator\\import\\gnu\\arm\\5.4
 5349              		.file 20 "Generated_Source\\PSoC4/CAN.h"
 5350              		.file 21 "Generated_Source\\PSoC4/LED_4.h"
 5351              		.file 22 "Generated_Source\\PSoC4/SENSOR_1.h"
 5352              		.file 23 "Generated_Source\\PSoC4/SENSOR_2.h"
 5353              		.file 24 "Generated_Source\\PSoC4/SENSOR_3.h"
 5354              		.file 25 "Generated_Source\\PSoC4/SENSOR_4.h"
 5355              		.file 26 "Generated_Source\\PSoC4/CAN_isr.h"
 5356              		.section	.debug_info,"",%progbits
 5357              	.Ldebug_info0:
 5358 0000 D5300000 		.4byte	0x30d5
 5359 0004 0400     		.2byte	0x4
 5360 0006 00000000 		.4byte	.Ldebug_abbrev0
 5361 000a 04       		.byte	0x4
 5362 000b 01       		.uleb128 0x1
 5363 000c FA020000 		.4byte	.LASF182
 5364 0010 0C       		.byte	0xc
 5365 0011 44000000 		.4byte	.LASF183
 5366 0015 41010000 		.4byte	.LASF184
 5367 0019 00000000 		.4byte	.Ldebug_ranges0+0
 5368 001d 00000000 		.4byte	0
 5369 0021 00000000 		.4byte	.Ldebug_line0
 5370 0025 02       		.uleb128 0x2
 5371 0026 04       		.byte	0x4
 5372 0027 04       		.byte	0x4
 5373 0028 1D020000 		.4byte	.LASF0
 5374 002c 02       		.uleb128 0x2
 5375 002d 01       		.byte	0x1
 5376 002e 06       		.byte	0x6
 5377 002f DC070000 		.4byte	.LASF1
 5378 0033 02       		.uleb128 0x2
 5379 0034 01       		.byte	0x1
 5380 0035 08       		.byte	0x8
 5381 0036 75070000 		.4byte	.LASF2
 5382 003a 02       		.uleb128 0x2
 5383 003b 02       		.byte	0x2
 5384 003c 05       		.byte	0x5
 5385 003d 10060000 		.4byte	.LASF3
 5386 0041 02       		.uleb128 0x2
 5387 0042 02       		.byte	0x2
 5388 0043 07       		.byte	0x7
 5389 0044 E8070000 		.4byte	.LASF4
 5390 0048 02       		.uleb128 0x2
 5391 0049 04       		.byte	0x4
 5392 004a 05       		.byte	0x5
 5393 004b 36060000 		.4byte	.LASF5
 5394 004f 02       		.uleb128 0x2
 5395 0050 04       		.byte	0x4
 5396 0051 07       		.byte	0x7
 5397 0052 DB060000 		.4byte	.LASF6
 5398 0056 02       		.uleb128 0x2
 5399 0057 08       		.byte	0x8
 5400 0058 05       		.byte	0x5
 5401 0059 D5040000 		.4byte	.LASF7
 5402 005d 02       		.uleb128 0x2
 5403 005e 08       		.byte	0x8
 5404 005f 07       		.byte	0x7
ARM GAS  C:\Users\HENRYA~1\AppData\Local\Temp\cceIRlNf.s 			page 116


 5405 0060 70020000 		.4byte	.LASF8
 5406 0064 03       		.uleb128 0x3
 5407 0065 04       		.byte	0x4
 5408 0066 05       		.byte	0x5
 5409 0067 696E7400 		.ascii	"int\000"
 5410 006b 02       		.uleb128 0x2
 5411 006c 04       		.byte	0x4
 5412 006d 07       		.byte	0x7
 5413 006e B6000000 		.4byte	.LASF9
 5414 0072 04       		.uleb128 0x4
 5415 0073 0B080000 		.4byte	.LASF10
 5416 0077 07       		.byte	0x7
 5417 0078 9801     		.2byte	0x198
 5418 007a 33000000 		.4byte	0x33
 5419 007e 04       		.uleb128 0x4
 5420 007f A3040000 		.4byte	.LASF11
 5421 0083 07       		.byte	0x7
 5422 0084 9901     		.2byte	0x199
 5423 0086 41000000 		.4byte	0x41
 5424 008a 04       		.uleb128 0x4
 5425 008b AF040000 		.4byte	.LASF12
 5426 008f 07       		.byte	0x7
 5427 0090 9B01     		.2byte	0x19b
 5428 0092 2C000000 		.4byte	0x2c
 5429 0096 02       		.uleb128 0x2
 5430 0097 08       		.byte	0x8
 5431 0098 04       		.byte	0x4
 5432 0099 11080000 		.4byte	.LASF13
 5433 009d 02       		.uleb128 0x2
 5434 009e 01       		.byte	0x1
 5435 009f 08       		.byte	0x8
 5436 00a0 2E040000 		.4byte	.LASF14
 5437 00a4 02       		.uleb128 0x2
 5438 00a5 08       		.byte	0x8
 5439 00a6 04       		.byte	0x4
 5440 00a7 9F050000 		.4byte	.LASF15
 5441 00ab 02       		.uleb128 0x2
 5442 00ac 04       		.byte	0x4
 5443 00ad 07       		.byte	0x7
 5444 00ae C7060000 		.4byte	.LASF16
 5445 00b2 05       		.uleb128 0x5
 5446 00b3 72000000 		.4byte	0x72
 5447 00b7 C2000000 		.4byte	0xc2
 5448 00bb 06       		.uleb128 0x6
 5449 00bc AB000000 		.4byte	0xab
 5450 00c0 07       		.byte	0x7
 5451 00c1 00       		.byte	0
 5452 00c2 07       		.uleb128 0x7
 5453 00c3 88080000 		.4byte	.LASF22
 5454 00c7 01       		.byte	0x1
 5455 00c8 06       		.byte	0x6
 5456 00c9 00000000 		.4byte	.LFB36
 5457 00cd 22000000 		.4byte	.LFE36-.LFB36
 5458 00d1 01       		.uleb128 0x1
 5459 00d2 9C       		.byte	0x9c
 5460 00d3 30010000 		.4byte	0x130
 5461 00d7 08       		.uleb128 0x8
ARM GAS  C:\Users\HENRYA~1\AppData\Local\Temp\cceIRlNf.s 			page 117


 5462 00d8 ED060000 		.4byte	.LASF17
 5463 00dc 01       		.byte	0x1
 5464 00dd 06       		.byte	0x6
 5465 00de 64000000 		.4byte	0x64
 5466 00e2 00000000 		.4byte	.LLST0
 5467 00e6 08       		.uleb128 0x8
 5468 00e7 AA040000 		.4byte	.LASF18
 5469 00eb 01       		.byte	0x1
 5470 00ec 06       		.byte	0x6
 5471 00ed 64000000 		.4byte	0x64
 5472 00f1 21000000 		.4byte	.LLST1
 5473 00f5 09       		.uleb128 0x9
 5474 00f6 4C040000 		.4byte	.LASF19
 5475 00fa 01       		.byte	0x1
 5476 00fb 07       		.byte	0x7
 5477 00fc 30010000 		.4byte	0x130
 5478 0100 02       		.uleb128 0x2
 5479 0101 91       		.byte	0x91
 5480 0102 74       		.sleb128 -12
 5481 0103 0A       		.uleb128 0xa
 5482 0104 16000000 		.4byte	.LVL3
 5483 0108 092F0000 		.4byte	0x2f09
 5484 010c 26010000 		.4byte	0x126
 5485 0110 0B       		.uleb128 0xb
 5486 0111 01       		.uleb128 0x1
 5487 0112 50       		.byte	0x50
 5488 0113 01       		.uleb128 0x1
 5489 0114 43       		.byte	0x43
 5490 0115 0B       		.uleb128 0xb
 5491 0116 01       		.uleb128 0x1
 5492 0117 51       		.byte	0x51
 5493 0118 02       		.uleb128 0x2
 5494 0119 74       		.byte	0x74
 5495 011a 00       		.sleb128 0
 5496 011b 0B       		.uleb128 0xb
 5497 011c 01       		.uleb128 0x1
 5498 011d 52       		.byte	0x52
 5499 011e 01       		.uleb128 0x1
 5500 011f 32       		.byte	0x32
 5501 0120 0B       		.uleb128 0xb
 5502 0121 01       		.uleb128 0x1
 5503 0122 53       		.byte	0x53
 5504 0123 01       		.uleb128 0x1
 5505 0124 30       		.byte	0x30
 5506 0125 00       		.byte	0
 5507 0126 0C       		.uleb128 0xc
 5508 0127 1A000000 		.4byte	.LVL4
 5509 012b 152F0000 		.4byte	0x2f15
 5510 012f 00       		.byte	0
 5511 0130 05       		.uleb128 0x5
 5512 0131 72000000 		.4byte	0x72
 5513 0135 40010000 		.4byte	0x140
 5514 0139 06       		.uleb128 0x6
 5515 013a AB000000 		.4byte	0xab
 5516 013e 01       		.byte	0x1
 5517 013f 00       		.byte	0
 5518 0140 0D       		.uleb128 0xd
ARM GAS  C:\Users\HENRYA~1\AppData\Local\Temp\cceIRlNf.s 			page 118


 5519 0141 04040000 		.4byte	.LASF26
 5520 0145 01       		.byte	0x1
 5521 0146 0F       		.byte	0xf
 5522 0147 64000000 		.4byte	0x64
 5523 014b 00000000 		.4byte	.LFB37
 5524 014f 3C000000 		.4byte	.LFE37-.LFB37
 5525 0153 01       		.uleb128 0x1
 5526 0154 9C       		.byte	0x9c
 5527 0155 DD010000 		.4byte	0x1dd
 5528 0159 08       		.uleb128 0x8
 5529 015a ED060000 		.4byte	.LASF17
 5530 015e 01       		.byte	0x1
 5531 015f 0F       		.byte	0xf
 5532 0160 64000000 		.4byte	0x64
 5533 0164 42000000 		.4byte	.LLST2
 5534 0168 09       		.uleb128 0x9
 5535 0169 4C040000 		.4byte	.LASF19
 5536 016d 01       		.byte	0x1
 5537 016e 10       		.byte	0x10
 5538 016f DD010000 		.4byte	0x1dd
 5539 0173 02       		.uleb128 0x2
 5540 0174 91       		.byte	0x91
 5541 0175 74       		.sleb128 -12
 5542 0176 09       		.uleb128 0x9
 5543 0177 BE060000 		.4byte	.LASF20
 5544 017b 01       		.byte	0x1
 5545 017c 12       		.byte	0x12
 5546 017d DD010000 		.4byte	0x1dd
 5547 0181 02       		.uleb128 0x2
 5548 0182 91       		.byte	0x91
 5549 0183 70       		.sleb128 -16
 5550 0184 0A       		.uleb128 0xa
 5551 0185 18000000 		.4byte	.LVL7
 5552 0189 092F0000 		.4byte	0x2f09
 5553 018d A7010000 		.4byte	0x1a7
 5554 0191 0B       		.uleb128 0xb
 5555 0192 01       		.uleb128 0x1
 5556 0193 50       		.byte	0x50
 5557 0194 01       		.uleb128 0x1
 5558 0195 43       		.byte	0x43
 5559 0196 0B       		.uleb128 0xb
 5560 0197 01       		.uleb128 0x1
 5561 0198 51       		.byte	0x51
 5562 0199 02       		.uleb128 0x2
 5563 019a 91       		.byte	0x91
 5564 019b 74       		.sleb128 -12
 5565 019c 0B       		.uleb128 0xb
 5566 019d 01       		.uleb128 0x1
 5567 019e 52       		.byte	0x52
 5568 019f 01       		.uleb128 0x1
 5569 01a0 31       		.byte	0x31
 5570 01a1 0B       		.uleb128 0xb
 5571 01a2 01       		.uleb128 0x1
 5572 01a3 53       		.byte	0x53
 5573 01a4 01       		.uleb128 0x1
 5574 01a5 32       		.byte	0x32
 5575 01a6 00       		.byte	0
ARM GAS  C:\Users\HENRYA~1\AppData\Local\Temp\cceIRlNf.s 			page 119


 5576 01a7 0C       		.uleb128 0xc
 5577 01a8 1C000000 		.4byte	.LVL8
 5578 01ac 152F0000 		.4byte	0x2f15
 5579 01b0 0A       		.uleb128 0xa
 5580 01b1 2C000000 		.4byte	.LVL9
 5581 01b5 212F0000 		.4byte	0x2f21
 5582 01b9 D3010000 		.4byte	0x1d3
 5583 01bd 0B       		.uleb128 0xb
 5584 01be 01       		.uleb128 0x1
 5585 01bf 50       		.byte	0x50
 5586 01c0 01       		.uleb128 0x1
 5587 01c1 43       		.byte	0x43
 5588 01c2 0B       		.uleb128 0xb
 5589 01c3 01       		.uleb128 0x1
 5590 01c4 51       		.byte	0x51
 5591 01c5 02       		.uleb128 0x2
 5592 01c6 7D       		.byte	0x7d
 5593 01c7 00       		.sleb128 0
 5594 01c8 0B       		.uleb128 0xb
 5595 01c9 01       		.uleb128 0x1
 5596 01ca 52       		.byte	0x52
 5597 01cb 01       		.uleb128 0x1
 5598 01cc 31       		.byte	0x31
 5599 01cd 0B       		.uleb128 0xb
 5600 01ce 01       		.uleb128 0x1
 5601 01cf 53       		.byte	0x53
 5602 01d0 01       		.uleb128 0x1
 5603 01d1 31       		.byte	0x31
 5604 01d2 00       		.byte	0
 5605 01d3 0C       		.uleb128 0xc
 5606 01d4 30000000 		.4byte	.LVL10
 5607 01d8 152F0000 		.4byte	0x2f15
 5608 01dc 00       		.byte	0
 5609 01dd 05       		.uleb128 0x5
 5610 01de 72000000 		.4byte	0x72
 5611 01e2 ED010000 		.4byte	0x1ed
 5612 01e6 06       		.uleb128 0x6
 5613 01e7 AB000000 		.4byte	0xab
 5614 01eb 00       		.byte	0
 5615 01ec 00       		.byte	0
 5616 01ed 0E       		.uleb128 0xe
 5617 01ee DF050000 		.4byte	.LASF28
 5618 01f2 01       		.byte	0x1
 5619 01f3 1A       		.byte	0x1a
 5620 01f4 00000000 		.4byte	.LFB38
 5621 01f8 8C000000 		.4byte	.LFE38-.LFB38
 5622 01fc 01       		.uleb128 0x1
 5623 01fd 9C       		.byte	0x9c
 5624 01fe 4A030000 		.4byte	0x34a
 5625 0202 0F       		.uleb128 0xf
 5626 0203 53060000 		.4byte	.LASF21
 5627 0207 01       		.byte	0x1
 5628 0208 1B       		.byte	0x1b
 5629 0209 64000000 		.4byte	0x64
 5630 020d 63000000 		.4byte	.LLST3
 5631 0211 0A       		.uleb128 0xa
 5632 0212 08000000 		.4byte	.LVL11
ARM GAS  C:\Users\HENRYA~1\AppData\Local\Temp\cceIRlNf.s 			page 120


 5633 0216 40010000 		.4byte	0x140
 5634 021a 25020000 		.4byte	0x225
 5635 021e 0B       		.uleb128 0xb
 5636 021f 01       		.uleb128 0x1
 5637 0220 50       		.byte	0x50
 5638 0221 02       		.uleb128 0x2
 5639 0222 08       		.byte	0x8
 5640 0223 81       		.byte	0x81
 5641 0224 00       		.byte	0
 5642 0225 0A       		.uleb128 0xa
 5643 0226 12000000 		.4byte	.LVL13
 5644 022a 2D2F0000 		.4byte	0x2f2d
 5645 022e 38020000 		.4byte	0x238
 5646 0232 0B       		.uleb128 0xb
 5647 0233 01       		.uleb128 0x1
 5648 0234 50       		.byte	0x50
 5649 0235 01       		.uleb128 0x1
 5650 0236 31       		.byte	0x31
 5651 0237 00       		.byte	0
 5652 0238 0A       		.uleb128 0xa
 5653 0239 1C000000 		.4byte	.LVL14
 5654 023d 382F0000 		.4byte	0x2f38
 5655 0241 4C020000 		.4byte	0x24c
 5656 0245 0B       		.uleb128 0xb
 5657 0246 01       		.uleb128 0x1
 5658 0247 50       		.byte	0x50
 5659 0248 02       		.uleb128 0x2
 5660 0249 74       		.byte	0x74
 5661 024a 00       		.sleb128 0
 5662 024b 00       		.byte	0
 5663 024c 0A       		.uleb128 0xa
 5664 024d 22000000 		.4byte	.LVL15
 5665 0251 2D2F0000 		.4byte	0x2f2d
 5666 0255 5F020000 		.4byte	0x25f
 5667 0259 0B       		.uleb128 0xb
 5668 025a 01       		.uleb128 0x1
 5669 025b 50       		.byte	0x50
 5670 025c 01       		.uleb128 0x1
 5671 025d 30       		.byte	0x30
 5672 025e 00       		.byte	0
 5673 025f 0A       		.uleb128 0xa
 5674 0260 28000000 		.4byte	.LVL16
 5675 0264 382F0000 		.4byte	0x2f38
 5676 0268 73020000 		.4byte	0x273
 5677 026c 0B       		.uleb128 0xb
 5678 026d 01       		.uleb128 0x1
 5679 026e 50       		.byte	0x50
 5680 026f 02       		.uleb128 0x2
 5681 0270 74       		.byte	0x74
 5682 0271 00       		.sleb128 0
 5683 0272 00       		.byte	0
 5684 0273 0A       		.uleb128 0xa
 5685 0274 30000000 		.4byte	.LVL19
 5686 0278 2D2F0000 		.4byte	0x2f2d
 5687 027c 86020000 		.4byte	0x286
 5688 0280 0B       		.uleb128 0xb
 5689 0281 01       		.uleb128 0x1
ARM GAS  C:\Users\HENRYA~1\AppData\Local\Temp\cceIRlNf.s 			page 121


 5690 0282 50       		.byte	0x50
 5691 0283 01       		.uleb128 0x1
 5692 0284 30       		.byte	0x30
 5693 0285 00       		.byte	0
 5694 0286 0A       		.uleb128 0xa
 5695 0287 3E000000 		.4byte	.LVL20
 5696 028b 2D2F0000 		.4byte	0x2f2d
 5697 028f 99020000 		.4byte	0x299
 5698 0293 0B       		.uleb128 0xb
 5699 0294 01       		.uleb128 0x1
 5700 0295 50       		.byte	0x50
 5701 0296 01       		.uleb128 0x1
 5702 0297 31       		.byte	0x31
 5703 0298 00       		.byte	0
 5704 0299 0A       		.uleb128 0xa
 5705 029a 44000000 		.4byte	.LVL21
 5706 029e 382F0000 		.4byte	0x2f38
 5707 02a2 AD020000 		.4byte	0x2ad
 5708 02a6 0B       		.uleb128 0xb
 5709 02a7 01       		.uleb128 0x1
 5710 02a8 50       		.byte	0x50
 5711 02a9 02       		.uleb128 0x2
 5712 02aa 08       		.byte	0x8
 5713 02ab C8       		.byte	0xc8
 5714 02ac 00       		.byte	0
 5715 02ad 0A       		.uleb128 0xa
 5716 02ae 4A000000 		.4byte	.LVL22
 5717 02b2 2D2F0000 		.4byte	0x2f2d
 5718 02b6 C0020000 		.4byte	0x2c0
 5719 02ba 0B       		.uleb128 0xb
 5720 02bb 01       		.uleb128 0x1
 5721 02bc 50       		.byte	0x50
 5722 02bd 01       		.uleb128 0x1
 5723 02be 30       		.byte	0x30
 5724 02bf 00       		.byte	0
 5725 02c0 0A       		.uleb128 0xa
 5726 02c1 50000000 		.4byte	.LVL23
 5727 02c5 382F0000 		.4byte	0x2f38
 5728 02c9 D4020000 		.4byte	0x2d4
 5729 02cd 0B       		.uleb128 0xb
 5730 02ce 01       		.uleb128 0x1
 5731 02cf 50       		.byte	0x50
 5732 02d0 02       		.uleb128 0x2
 5733 02d1 08       		.byte	0x8
 5734 02d2 C8       		.byte	0xc8
 5735 02d3 00       		.byte	0
 5736 02d4 0A       		.uleb128 0xa
 5737 02d5 66000000 		.4byte	.LVL24
 5738 02d9 2D2F0000 		.4byte	0x2f2d
 5739 02dd E7020000 		.4byte	0x2e7
 5740 02e1 0B       		.uleb128 0xb
 5741 02e2 01       		.uleb128 0x1
 5742 02e3 50       		.byte	0x50
 5743 02e4 01       		.uleb128 0x1
 5744 02e5 30       		.byte	0x30
 5745 02e6 00       		.byte	0
 5746 02e7 0A       		.uleb128 0xa
ARM GAS  C:\Users\HENRYA~1\AppData\Local\Temp\cceIRlNf.s 			page 122


 5747 02e8 6E000000 		.4byte	.LVL25
 5748 02ec C2000000 		.4byte	0xc2
 5749 02f0 00030000 		.4byte	0x300
 5750 02f4 0B       		.uleb128 0xb
 5751 02f5 01       		.uleb128 0x1
 5752 02f6 50       		.byte	0x50
 5753 02f7 02       		.uleb128 0x2
 5754 02f8 08       		.byte	0x8
 5755 02f9 84       		.byte	0x84
 5756 02fa 0B       		.uleb128 0xb
 5757 02fb 01       		.uleb128 0x1
 5758 02fc 51       		.byte	0x51
 5759 02fd 01       		.uleb128 0x1
 5760 02fe 3F       		.byte	0x3f
 5761 02ff 00       		.byte	0
 5762 0300 0A       		.uleb128 0xa
 5763 0301 76000000 		.4byte	.LVL26
 5764 0305 C2000000 		.4byte	0xc2
 5765 0309 1A030000 		.4byte	0x31a
 5766 030d 0B       		.uleb128 0xb
 5767 030e 01       		.uleb128 0x1
 5768 030f 50       		.byte	0x50
 5769 0310 02       		.uleb128 0x2
 5770 0311 08       		.byte	0x8
 5771 0312 83       		.byte	0x83
 5772 0313 0B       		.uleb128 0xb
 5773 0314 01       		.uleb128 0x1
 5774 0315 51       		.byte	0x51
 5775 0316 02       		.uleb128 0x2
 5776 0317 08       		.byte	0x8
 5777 0318 32       		.byte	0x32
 5778 0319 00       		.byte	0
 5779 031a 0A       		.uleb128 0xa
 5780 031b 7E000000 		.4byte	.LVL27
 5781 031f C2000000 		.4byte	0xc2
 5782 0323 33030000 		.4byte	0x333
 5783 0327 0B       		.uleb128 0xb
 5784 0328 01       		.uleb128 0x1
 5785 0329 50       		.byte	0x50
 5786 032a 02       		.uleb128 0x2
 5787 032b 08       		.byte	0x8
 5788 032c 89       		.byte	0x89
 5789 032d 0B       		.uleb128 0xb
 5790 032e 01       		.uleb128 0x1
 5791 032f 51       		.byte	0x51
 5792 0330 01       		.uleb128 0x1
 5793 0331 30       		.byte	0x30
 5794 0332 00       		.byte	0
 5795 0333 10       		.uleb128 0x10
 5796 0334 86000000 		.4byte	.LVL28
 5797 0338 C2000000 		.4byte	0xc2
 5798 033c 0B       		.uleb128 0xb
 5799 033d 01       		.uleb128 0x1
 5800 033e 50       		.byte	0x50
 5801 033f 02       		.uleb128 0x2
 5802 0340 08       		.byte	0x8
 5803 0341 8A       		.byte	0x8a
ARM GAS  C:\Users\HENRYA~1\AppData\Local\Temp\cceIRlNf.s 			page 123


 5804 0342 0B       		.uleb128 0xb
 5805 0343 01       		.uleb128 0x1
 5806 0344 51       		.byte	0x51
 5807 0345 02       		.uleb128 0x2
 5808 0346 08       		.byte	0x8
 5809 0347 81       		.byte	0x81
 5810 0348 00       		.byte	0
 5811 0349 00       		.byte	0
 5812 034a 11       		.uleb128 0x11
 5813 034b BF020000 		.4byte	.LASF23
 5814 034f 01       		.byte	0x1
 5815 0350 35       		.byte	0x35
 5816 0351 6B000000 		.4byte	0x6b
 5817 0355 00000000 		.4byte	.LFB39
 5818 0359 30000000 		.4byte	.LFE39-.LFB39
 5819 035d 01       		.uleb128 0x1
 5820 035e 9C       		.byte	0x9c
 5821 035f E2030000 		.4byte	0x3e2
 5822 0363 0F       		.uleb128 0xf
 5823 0364 53060000 		.4byte	.LASF21
 5824 0368 01       		.byte	0x1
 5825 0369 36       		.byte	0x36
 5826 036a 64000000 		.4byte	0x64
 5827 036e 81000000 		.4byte	.LLST4
 5828 0372 0F       		.uleb128 0xf
 5829 0373 AA040000 		.4byte	.LASF18
 5830 0377 01       		.byte	0x1
 5831 0378 39       		.byte	0x39
 5832 0379 6B000000 		.4byte	0x6b
 5833 037d 94000000 		.4byte	.LLST5
 5834 0381 0A       		.uleb128 0xa
 5835 0382 08000000 		.4byte	.LVL29
 5836 0386 40010000 		.4byte	0x140
 5837 038a 95030000 		.4byte	0x395
 5838 038e 0B       		.uleb128 0xb
 5839 038f 01       		.uleb128 0x1
 5840 0390 50       		.byte	0x50
 5841 0391 02       		.uleb128 0x2
 5842 0392 08       		.byte	0x8
 5843 0393 80       		.byte	0x80
 5844 0394 00       		.byte	0
 5845 0395 0A       		.uleb128 0xa
 5846 0396 14000000 		.4byte	.LVL31
 5847 039a C2000000 		.4byte	0xc2
 5848 039e A9030000 		.4byte	0x3a9
 5849 03a2 0B       		.uleb128 0xb
 5850 03a3 01       		.uleb128 0x1
 5851 03a4 50       		.byte	0x50
 5852 03a5 02       		.uleb128 0x2
 5853 03a6 08       		.byte	0x8
 5854 03a7 80       		.byte	0x80
 5855 03a8 00       		.byte	0
 5856 03a9 0A       		.uleb128 0xa
 5857 03aa 1A000000 		.4byte	.LVL32
 5858 03ae 40010000 		.4byte	0x140
 5859 03b2 BD030000 		.4byte	0x3bd
 5860 03b6 0B       		.uleb128 0xb
ARM GAS  C:\Users\HENRYA~1\AppData\Local\Temp\cceIRlNf.s 			page 124


 5861 03b7 01       		.uleb128 0x1
 5862 03b8 50       		.byte	0x50
 5863 03b9 02       		.uleb128 0x2
 5864 03ba 08       		.byte	0x8
 5865 03bb 80       		.byte	0x80
 5866 03bc 00       		.byte	0
 5867 03bd 0A       		.uleb128 0xa
 5868 03be 24000000 		.4byte	.LVL33
 5869 03c2 40010000 		.4byte	0x140
 5870 03c6 D1030000 		.4byte	0x3d1
 5871 03ca 0B       		.uleb128 0xb
 5872 03cb 01       		.uleb128 0x1
 5873 03cc 50       		.byte	0x50
 5874 03cd 02       		.uleb128 0x2
 5875 03ce 08       		.byte	0x8
 5876 03cf 87       		.byte	0x87
 5877 03d0 00       		.byte	0
 5878 03d1 10       		.uleb128 0x10
 5879 03d2 2C000000 		.4byte	.LVL35
 5880 03d6 40010000 		.4byte	0x140
 5881 03da 0B       		.uleb128 0xb
 5882 03db 01       		.uleb128 0x1
 5883 03dc 50       		.byte	0x50
 5884 03dd 02       		.uleb128 0x2
 5885 03de 08       		.byte	0x8
 5886 03df 88       		.byte	0x88
 5887 03e0 00       		.byte	0
 5888 03e1 00       		.byte	0
 5889 03e2 11       		.uleb128 0x11
 5890 03e3 57080000 		.4byte	.LASF24
 5891 03e7 01       		.byte	0x1
 5892 03e8 3E       		.byte	0x3e
 5893 03e9 6B000000 		.4byte	0x6b
 5894 03ed 00000000 		.4byte	.LFB40
 5895 03f1 30000000 		.4byte	.LFE40-.LFB40
 5896 03f5 01       		.uleb128 0x1
 5897 03f6 9C       		.byte	0x9c
 5898 03f7 7A040000 		.4byte	0x47a
 5899 03fb 0F       		.uleb128 0xf
 5900 03fc 53060000 		.4byte	.LASF21
 5901 0400 01       		.byte	0x1
 5902 0401 3F       		.byte	0x3f
 5903 0402 64000000 		.4byte	0x64
 5904 0406 B2000000 		.4byte	.LLST6
 5905 040a 0F       		.uleb128 0xf
 5906 040b AA040000 		.4byte	.LASF18
 5907 040f 01       		.byte	0x1
 5908 0410 42       		.byte	0x42
 5909 0411 6B000000 		.4byte	0x6b
 5910 0415 C5000000 		.4byte	.LLST7
 5911 0419 0A       		.uleb128 0xa
 5912 041a 08000000 		.4byte	.LVL37
 5913 041e 40010000 		.4byte	0x140
 5914 0422 2D040000 		.4byte	0x42d
 5915 0426 0B       		.uleb128 0xb
 5916 0427 01       		.uleb128 0x1
 5917 0428 50       		.byte	0x50
ARM GAS  C:\Users\HENRYA~1\AppData\Local\Temp\cceIRlNf.s 			page 125


 5918 0429 02       		.uleb128 0x2
 5919 042a 08       		.byte	0x8
 5920 042b 80       		.byte	0x80
 5921 042c 00       		.byte	0
 5922 042d 0A       		.uleb128 0xa
 5923 042e 14000000 		.4byte	.LVL39
 5924 0432 C2000000 		.4byte	0xc2
 5925 0436 41040000 		.4byte	0x441
 5926 043a 0B       		.uleb128 0xb
 5927 043b 01       		.uleb128 0x1
 5928 043c 50       		.byte	0x50
 5929 043d 02       		.uleb128 0x2
 5930 043e 08       		.byte	0x8
 5931 043f 80       		.byte	0x80
 5932 0440 00       		.byte	0
 5933 0441 0A       		.uleb128 0xa
 5934 0442 1A000000 		.4byte	.LVL40
 5935 0446 40010000 		.4byte	0x140
 5936 044a 55040000 		.4byte	0x455
 5937 044e 0B       		.uleb128 0xb
 5938 044f 01       		.uleb128 0x1
 5939 0450 50       		.byte	0x50
 5940 0451 02       		.uleb128 0x2
 5941 0452 08       		.byte	0x8
 5942 0453 80       		.byte	0x80
 5943 0454 00       		.byte	0
 5944 0455 0A       		.uleb128 0xa
 5945 0456 24000000 		.4byte	.LVL41
 5946 045a 40010000 		.4byte	0x140
 5947 045e 69040000 		.4byte	0x469
 5948 0462 0B       		.uleb128 0xb
 5949 0463 01       		.uleb128 0x1
 5950 0464 50       		.byte	0x50
 5951 0465 02       		.uleb128 0x2
 5952 0466 08       		.byte	0x8
 5953 0467 85       		.byte	0x85
 5954 0468 00       		.byte	0
 5955 0469 10       		.uleb128 0x10
 5956 046a 2C000000 		.4byte	.LVL43
 5957 046e 40010000 		.4byte	0x140
 5958 0472 0B       		.uleb128 0xb
 5959 0473 01       		.uleb128 0x1
 5960 0474 50       		.byte	0x50
 5961 0475 02       		.uleb128 0x2
 5962 0476 08       		.byte	0x8
 5963 0477 86       		.byte	0x86
 5964 0478 00       		.byte	0
 5965 0479 00       		.byte	0
 5966 047a 07       		.uleb128 0x7
 5967 047b 94080000 		.4byte	.LASF25
 5968 047f 02       		.byte	0x2
 5969 0480 06       		.byte	0x6
 5970 0481 00000000 		.4byte	.LFB41
 5971 0485 22000000 		.4byte	.LFE41-.LFB41
 5972 0489 01       		.uleb128 0x1
 5973 048a 9C       		.byte	0x9c
 5974 048b E8040000 		.4byte	0x4e8
ARM GAS  C:\Users\HENRYA~1\AppData\Local\Temp\cceIRlNf.s 			page 126


 5975 048f 08       		.uleb128 0x8
 5976 0490 ED060000 		.4byte	.LASF17
 5977 0494 02       		.byte	0x2
 5978 0495 06       		.byte	0x6
 5979 0496 64000000 		.4byte	0x64
 5980 049a E3000000 		.4byte	.LLST8
 5981 049e 08       		.uleb128 0x8
 5982 049f AA040000 		.4byte	.LASF18
 5983 04a3 02       		.byte	0x2
 5984 04a4 06       		.byte	0x6
 5985 04a5 64000000 		.4byte	0x64
 5986 04a9 04010000 		.4byte	.LLST9
 5987 04ad 09       		.uleb128 0x9
 5988 04ae 4C040000 		.4byte	.LASF19
 5989 04b2 02       		.byte	0x2
 5990 04b3 07       		.byte	0x7
 5991 04b4 30010000 		.4byte	0x130
 5992 04b8 02       		.uleb128 0x2
 5993 04b9 91       		.byte	0x91
 5994 04ba 74       		.sleb128 -12
 5995 04bb 0A       		.uleb128 0xa
 5996 04bc 16000000 		.4byte	.LVL48
 5997 04c0 432F0000 		.4byte	0x2f43
 5998 04c4 DE040000 		.4byte	0x4de
 5999 04c8 0B       		.uleb128 0xb
 6000 04c9 01       		.uleb128 0x1
 6001 04ca 50       		.byte	0x50
 6002 04cb 01       		.uleb128 0x1
 6003 04cc 43       		.byte	0x43
 6004 04cd 0B       		.uleb128 0xb
 6005 04ce 01       		.uleb128 0x1
 6006 04cf 51       		.byte	0x51
 6007 04d0 02       		.uleb128 0x2
 6008 04d1 74       		.byte	0x74
 6009 04d2 00       		.sleb128 0
 6010 04d3 0B       		.uleb128 0xb
 6011 04d4 01       		.uleb128 0x1
 6012 04d5 52       		.byte	0x52
 6013 04d6 01       		.uleb128 0x1
 6014 04d7 32       		.byte	0x32
 6015 04d8 0B       		.uleb128 0xb
 6016 04d9 01       		.uleb128 0x1
 6017 04da 53       		.byte	0x53
 6018 04db 01       		.uleb128 0x1
 6019 04dc 30       		.byte	0x30
 6020 04dd 00       		.byte	0
 6021 04de 0C       		.uleb128 0xc
 6022 04df 1A000000 		.4byte	.LVL49
 6023 04e3 4F2F0000 		.4byte	0x2f4f
 6024 04e7 00       		.byte	0
 6025 04e8 0D       		.uleb128 0xd
 6026 04e9 0F040000 		.4byte	.LASF27
 6027 04ed 02       		.byte	0x2
 6028 04ee 0F       		.byte	0xf
 6029 04ef 64000000 		.4byte	0x64
 6030 04f3 00000000 		.4byte	.LFB42
 6031 04f7 3C000000 		.4byte	.LFE42-.LFB42
ARM GAS  C:\Users\HENRYA~1\AppData\Local\Temp\cceIRlNf.s 			page 127


 6032 04fb 01       		.uleb128 0x1
 6033 04fc 9C       		.byte	0x9c
 6034 04fd 85050000 		.4byte	0x585
 6035 0501 08       		.uleb128 0x8
 6036 0502 ED060000 		.4byte	.LASF17
 6037 0506 02       		.byte	0x2
 6038 0507 0F       		.byte	0xf
 6039 0508 64000000 		.4byte	0x64
 6040 050c 25010000 		.4byte	.LLST10
 6041 0510 09       		.uleb128 0x9
 6042 0511 4C040000 		.4byte	.LASF19
 6043 0515 02       		.byte	0x2
 6044 0516 10       		.byte	0x10
 6045 0517 DD010000 		.4byte	0x1dd
 6046 051b 02       		.uleb128 0x2
 6047 051c 91       		.byte	0x91
 6048 051d 74       		.sleb128 -12
 6049 051e 09       		.uleb128 0x9
 6050 051f BE060000 		.4byte	.LASF20
 6051 0523 02       		.byte	0x2
 6052 0524 12       		.byte	0x12
 6053 0525 DD010000 		.4byte	0x1dd
 6054 0529 02       		.uleb128 0x2
 6055 052a 91       		.byte	0x91
 6056 052b 70       		.sleb128 -16
 6057 052c 0A       		.uleb128 0xa
 6058 052d 18000000 		.4byte	.LVL52
 6059 0531 432F0000 		.4byte	0x2f43
 6060 0535 4F050000 		.4byte	0x54f
 6061 0539 0B       		.uleb128 0xb
 6062 053a 01       		.uleb128 0x1
 6063 053b 50       		.byte	0x50
 6064 053c 01       		.uleb128 0x1
 6065 053d 43       		.byte	0x43
 6066 053e 0B       		.uleb128 0xb
 6067 053f 01       		.uleb128 0x1
 6068 0540 51       		.byte	0x51
 6069 0541 02       		.uleb128 0x2
 6070 0542 91       		.byte	0x91
 6071 0543 74       		.sleb128 -12
 6072 0544 0B       		.uleb128 0xb
 6073 0545 01       		.uleb128 0x1
 6074 0546 52       		.byte	0x52
 6075 0547 01       		.uleb128 0x1
 6076 0548 31       		.byte	0x31
 6077 0549 0B       		.uleb128 0xb
 6078 054a 01       		.uleb128 0x1
 6079 054b 53       		.byte	0x53
 6080 054c 01       		.uleb128 0x1
 6081 054d 32       		.byte	0x32
 6082 054e 00       		.byte	0
 6083 054f 0C       		.uleb128 0xc
 6084 0550 1C000000 		.4byte	.LVL53
 6085 0554 4F2F0000 		.4byte	0x2f4f
 6086 0558 0A       		.uleb128 0xa
 6087 0559 2C000000 		.4byte	.LVL54
 6088 055d 5B2F0000 		.4byte	0x2f5b
ARM GAS  C:\Users\HENRYA~1\AppData\Local\Temp\cceIRlNf.s 			page 128


 6089 0561 7B050000 		.4byte	0x57b
 6090 0565 0B       		.uleb128 0xb
 6091 0566 01       		.uleb128 0x1
 6092 0567 50       		.byte	0x50
 6093 0568 01       		.uleb128 0x1
 6094 0569 43       		.byte	0x43
 6095 056a 0B       		.uleb128 0xb
 6096 056b 01       		.uleb128 0x1
 6097 056c 51       		.byte	0x51
 6098 056d 02       		.uleb128 0x2
 6099 056e 7D       		.byte	0x7d
 6100 056f 00       		.sleb128 0
 6101 0570 0B       		.uleb128 0xb
 6102 0571 01       		.uleb128 0x1
 6103 0572 52       		.byte	0x52
 6104 0573 01       		.uleb128 0x1
 6105 0574 31       		.byte	0x31
 6106 0575 0B       		.uleb128 0xb
 6107 0576 01       		.uleb128 0x1
 6108 0577 53       		.byte	0x53
 6109 0578 01       		.uleb128 0x1
 6110 0579 31       		.byte	0x31
 6111 057a 00       		.byte	0
 6112 057b 0C       		.uleb128 0xc
 6113 057c 30000000 		.4byte	.LVL55
 6114 0580 4F2F0000 		.4byte	0x2f4f
 6115 0584 00       		.byte	0
 6116 0585 0E       		.uleb128 0xe
 6117 0586 EA050000 		.4byte	.LASF29
 6118 058a 02       		.byte	0x2
 6119 058b 1A       		.byte	0x1a
 6120 058c 00000000 		.4byte	.LFB43
 6121 0590 8C000000 		.4byte	.LFE43-.LFB43
 6122 0594 01       		.uleb128 0x1
 6123 0595 9C       		.byte	0x9c
 6124 0596 E2060000 		.4byte	0x6e2
 6125 059a 0F       		.uleb128 0xf
 6126 059b 53060000 		.4byte	.LASF21
 6127 059f 02       		.byte	0x2
 6128 05a0 1B       		.byte	0x1b
 6129 05a1 64000000 		.4byte	0x64
 6130 05a5 46010000 		.4byte	.LLST11
 6131 05a9 0A       		.uleb128 0xa
 6132 05aa 08000000 		.4byte	.LVL56
 6133 05ae E8040000 		.4byte	0x4e8
 6134 05b2 BD050000 		.4byte	0x5bd
 6135 05b6 0B       		.uleb128 0xb
 6136 05b7 01       		.uleb128 0x1
 6137 05b8 50       		.byte	0x50
 6138 05b9 02       		.uleb128 0x2
 6139 05ba 08       		.byte	0x8
 6140 05bb 81       		.byte	0x81
 6141 05bc 00       		.byte	0
 6142 05bd 0A       		.uleb128 0xa
 6143 05be 12000000 		.4byte	.LVL58
 6144 05c2 672F0000 		.4byte	0x2f67
 6145 05c6 D0050000 		.4byte	0x5d0
ARM GAS  C:\Users\HENRYA~1\AppData\Local\Temp\cceIRlNf.s 			page 129


 6146 05ca 0B       		.uleb128 0xb
 6147 05cb 01       		.uleb128 0x1
 6148 05cc 50       		.byte	0x50
 6149 05cd 01       		.uleb128 0x1
 6150 05ce 31       		.byte	0x31
 6151 05cf 00       		.byte	0
 6152 05d0 0A       		.uleb128 0xa
 6153 05d1 1C000000 		.4byte	.LVL59
 6154 05d5 382F0000 		.4byte	0x2f38
 6155 05d9 E4050000 		.4byte	0x5e4
 6156 05dd 0B       		.uleb128 0xb
 6157 05de 01       		.uleb128 0x1
 6158 05df 50       		.byte	0x50
 6159 05e0 02       		.uleb128 0x2
 6160 05e1 74       		.byte	0x74
 6161 05e2 00       		.sleb128 0
 6162 05e3 00       		.byte	0
 6163 05e4 0A       		.uleb128 0xa
 6164 05e5 22000000 		.4byte	.LVL60
 6165 05e9 672F0000 		.4byte	0x2f67
 6166 05ed F7050000 		.4byte	0x5f7
 6167 05f1 0B       		.uleb128 0xb
 6168 05f2 01       		.uleb128 0x1
 6169 05f3 50       		.byte	0x50
 6170 05f4 01       		.uleb128 0x1
 6171 05f5 30       		.byte	0x30
 6172 05f6 00       		.byte	0
 6173 05f7 0A       		.uleb128 0xa
 6174 05f8 28000000 		.4byte	.LVL61
 6175 05fc 382F0000 		.4byte	0x2f38
 6176 0600 0B060000 		.4byte	0x60b
 6177 0604 0B       		.uleb128 0xb
 6178 0605 01       		.uleb128 0x1
 6179 0606 50       		.byte	0x50
 6180 0607 02       		.uleb128 0x2
 6181 0608 74       		.byte	0x74
 6182 0609 00       		.sleb128 0
 6183 060a 00       		.byte	0
 6184 060b 0A       		.uleb128 0xa
 6185 060c 30000000 		.4byte	.LVL64
 6186 0610 672F0000 		.4byte	0x2f67
 6187 0614 1E060000 		.4byte	0x61e
 6188 0618 0B       		.uleb128 0xb
 6189 0619 01       		.uleb128 0x1
 6190 061a 50       		.byte	0x50
 6191 061b 01       		.uleb128 0x1
 6192 061c 30       		.byte	0x30
 6193 061d 00       		.byte	0
 6194 061e 0A       		.uleb128 0xa
 6195 061f 3E000000 		.4byte	.LVL65
 6196 0623 672F0000 		.4byte	0x2f67
 6197 0627 31060000 		.4byte	0x631
 6198 062b 0B       		.uleb128 0xb
 6199 062c 01       		.uleb128 0x1
 6200 062d 50       		.byte	0x50
 6201 062e 01       		.uleb128 0x1
 6202 062f 31       		.byte	0x31
ARM GAS  C:\Users\HENRYA~1\AppData\Local\Temp\cceIRlNf.s 			page 130


 6203 0630 00       		.byte	0
 6204 0631 0A       		.uleb128 0xa
 6205 0632 44000000 		.4byte	.LVL66
 6206 0636 382F0000 		.4byte	0x2f38
 6207 063a 45060000 		.4byte	0x645
 6208 063e 0B       		.uleb128 0xb
 6209 063f 01       		.uleb128 0x1
 6210 0640 50       		.byte	0x50
 6211 0641 02       		.uleb128 0x2
 6212 0642 08       		.byte	0x8
 6213 0643 C8       		.byte	0xc8
 6214 0644 00       		.byte	0
 6215 0645 0A       		.uleb128 0xa
 6216 0646 4A000000 		.4byte	.LVL67
 6217 064a 672F0000 		.4byte	0x2f67
 6218 064e 58060000 		.4byte	0x658
 6219 0652 0B       		.uleb128 0xb
 6220 0653 01       		.uleb128 0x1
 6221 0654 50       		.byte	0x50
 6222 0655 01       		.uleb128 0x1
 6223 0656 30       		.byte	0x30
 6224 0657 00       		.byte	0
 6225 0658 0A       		.uleb128 0xa
 6226 0659 50000000 		.4byte	.LVL68
 6227 065d 382F0000 		.4byte	0x2f38
 6228 0661 6C060000 		.4byte	0x66c
 6229 0665 0B       		.uleb128 0xb
 6230 0666 01       		.uleb128 0x1
 6231 0667 50       		.byte	0x50
 6232 0668 02       		.uleb128 0x2
 6233 0669 08       		.byte	0x8
 6234 066a C8       		.byte	0xc8
 6235 066b 00       		.byte	0
 6236 066c 0A       		.uleb128 0xa
 6237 066d 66000000 		.4byte	.LVL69
 6238 0671 672F0000 		.4byte	0x2f67
 6239 0675 7F060000 		.4byte	0x67f
 6240 0679 0B       		.uleb128 0xb
 6241 067a 01       		.uleb128 0x1
 6242 067b 50       		.byte	0x50
 6243 067c 01       		.uleb128 0x1
 6244 067d 30       		.byte	0x30
 6245 067e 00       		.byte	0
 6246 067f 0A       		.uleb128 0xa
 6247 0680 6E000000 		.4byte	.LVL70
 6248 0684 7A040000 		.4byte	0x47a
 6249 0688 98060000 		.4byte	0x698
 6250 068c 0B       		.uleb128 0xb
 6251 068d 01       		.uleb128 0x1
 6252 068e 50       		.byte	0x50
 6253 068f 02       		.uleb128 0x2
 6254 0690 08       		.byte	0x8
 6255 0691 84       		.byte	0x84
 6256 0692 0B       		.uleb128 0xb
 6257 0693 01       		.uleb128 0x1
 6258 0694 51       		.byte	0x51
 6259 0695 01       		.uleb128 0x1
ARM GAS  C:\Users\HENRYA~1\AppData\Local\Temp\cceIRlNf.s 			page 131


 6260 0696 3F       		.byte	0x3f
 6261 0697 00       		.byte	0
 6262 0698 0A       		.uleb128 0xa
 6263 0699 76000000 		.4byte	.LVL71
 6264 069d 7A040000 		.4byte	0x47a
 6265 06a1 B2060000 		.4byte	0x6b2
 6266 06a5 0B       		.uleb128 0xb
 6267 06a6 01       		.uleb128 0x1
 6268 06a7 50       		.byte	0x50
 6269 06a8 02       		.uleb128 0x2
 6270 06a9 08       		.byte	0x8
 6271 06aa 83       		.byte	0x83
 6272 06ab 0B       		.uleb128 0xb
 6273 06ac 01       		.uleb128 0x1
 6274 06ad 51       		.byte	0x51
 6275 06ae 02       		.uleb128 0x2
 6276 06af 08       		.byte	0x8
 6277 06b0 32       		.byte	0x32
 6278 06b1 00       		.byte	0
 6279 06b2 0A       		.uleb128 0xa
 6280 06b3 7E000000 		.4byte	.LVL72
 6281 06b7 7A040000 		.4byte	0x47a
 6282 06bb CB060000 		.4byte	0x6cb
 6283 06bf 0B       		.uleb128 0xb
 6284 06c0 01       		.uleb128 0x1
 6285 06c1 50       		.byte	0x50
 6286 06c2 02       		.uleb128 0x2
 6287 06c3 08       		.byte	0x8
 6288 06c4 89       		.byte	0x89
 6289 06c5 0B       		.uleb128 0xb
 6290 06c6 01       		.uleb128 0x1
 6291 06c7 51       		.byte	0x51
 6292 06c8 01       		.uleb128 0x1
 6293 06c9 30       		.byte	0x30
 6294 06ca 00       		.byte	0
 6295 06cb 10       		.uleb128 0x10
 6296 06cc 86000000 		.4byte	.LVL73
 6297 06d0 7A040000 		.4byte	0x47a
 6298 06d4 0B       		.uleb128 0xb
 6299 06d5 01       		.uleb128 0x1
 6300 06d6 50       		.byte	0x50
 6301 06d7 02       		.uleb128 0x2
 6302 06d8 08       		.byte	0x8
 6303 06d9 8A       		.byte	0x8a
 6304 06da 0B       		.uleb128 0xb
 6305 06db 01       		.uleb128 0x1
 6306 06dc 51       		.byte	0x51
 6307 06dd 02       		.uleb128 0x2
 6308 06de 08       		.byte	0x8
 6309 06df 81       		.byte	0x81
 6310 06e0 00       		.byte	0
 6311 06e1 00       		.byte	0
 6312 06e2 11       		.uleb128 0x11
 6313 06e3 CF020000 		.4byte	.LASF30
 6314 06e7 02       		.byte	0x2
 6315 06e8 35       		.byte	0x35
 6316 06e9 6B000000 		.4byte	0x6b
ARM GAS  C:\Users\HENRYA~1\AppData\Local\Temp\cceIRlNf.s 			page 132


 6317 06ed 00000000 		.4byte	.LFB44
 6318 06f1 30000000 		.4byte	.LFE44-.LFB44
 6319 06f5 01       		.uleb128 0x1
 6320 06f6 9C       		.byte	0x9c
 6321 06f7 7A070000 		.4byte	0x77a
 6322 06fb 0F       		.uleb128 0xf
 6323 06fc 53060000 		.4byte	.LASF21
 6324 0700 02       		.byte	0x2
 6325 0701 36       		.byte	0x36
 6326 0702 64000000 		.4byte	0x64
 6327 0706 64010000 		.4byte	.LLST12
 6328 070a 0F       		.uleb128 0xf
 6329 070b AA040000 		.4byte	.LASF18
 6330 070f 02       		.byte	0x2
 6331 0710 39       		.byte	0x39
 6332 0711 6B000000 		.4byte	0x6b
 6333 0715 77010000 		.4byte	.LLST13
 6334 0719 0A       		.uleb128 0xa
 6335 071a 08000000 		.4byte	.LVL74
 6336 071e E8040000 		.4byte	0x4e8
 6337 0722 2D070000 		.4byte	0x72d
 6338 0726 0B       		.uleb128 0xb
 6339 0727 01       		.uleb128 0x1
 6340 0728 50       		.byte	0x50
 6341 0729 02       		.uleb128 0x2
 6342 072a 08       		.byte	0x8
 6343 072b 80       		.byte	0x80
 6344 072c 00       		.byte	0
 6345 072d 0A       		.uleb128 0xa
 6346 072e 14000000 		.4byte	.LVL76
 6347 0732 7A040000 		.4byte	0x47a
 6348 0736 41070000 		.4byte	0x741
 6349 073a 0B       		.uleb128 0xb
 6350 073b 01       		.uleb128 0x1
 6351 073c 50       		.byte	0x50
 6352 073d 02       		.uleb128 0x2
 6353 073e 08       		.byte	0x8
 6354 073f 80       		.byte	0x80
 6355 0740 00       		.byte	0
 6356 0741 0A       		.uleb128 0xa
 6357 0742 1A000000 		.4byte	.LVL77
 6358 0746 E8040000 		.4byte	0x4e8
 6359 074a 55070000 		.4byte	0x755
 6360 074e 0B       		.uleb128 0xb
 6361 074f 01       		.uleb128 0x1
 6362 0750 50       		.byte	0x50
 6363 0751 02       		.uleb128 0x2
 6364 0752 08       		.byte	0x8
 6365 0753 80       		.byte	0x80
 6366 0754 00       		.byte	0
 6367 0755 0A       		.uleb128 0xa
 6368 0756 24000000 		.4byte	.LVL78
 6369 075a E8040000 		.4byte	0x4e8
 6370 075e 69070000 		.4byte	0x769
 6371 0762 0B       		.uleb128 0xb
 6372 0763 01       		.uleb128 0x1
 6373 0764 50       		.byte	0x50
ARM GAS  C:\Users\HENRYA~1\AppData\Local\Temp\cceIRlNf.s 			page 133


 6374 0765 02       		.uleb128 0x2
 6375 0766 08       		.byte	0x8
 6376 0767 87       		.byte	0x87
 6377 0768 00       		.byte	0
 6378 0769 10       		.uleb128 0x10
 6379 076a 2C000000 		.4byte	.LVL80
 6380 076e E8040000 		.4byte	0x4e8
 6381 0772 0B       		.uleb128 0xb
 6382 0773 01       		.uleb128 0x1
 6383 0774 50       		.byte	0x50
 6384 0775 02       		.uleb128 0x2
 6385 0776 08       		.byte	0x8
 6386 0777 88       		.byte	0x88
 6387 0778 00       		.byte	0
 6388 0779 00       		.byte	0
 6389 077a 11       		.uleb128 0x11
 6390 077b 65080000 		.4byte	.LASF31
 6391 077f 02       		.byte	0x2
 6392 0780 3E       		.byte	0x3e
 6393 0781 64000000 		.4byte	0x64
 6394 0785 00000000 		.4byte	.LFB45
 6395 0789 30000000 		.4byte	.LFE45-.LFB45
 6396 078d 01       		.uleb128 0x1
 6397 078e 9C       		.byte	0x9c
 6398 078f 12080000 		.4byte	0x812
 6399 0793 0F       		.uleb128 0xf
 6400 0794 53060000 		.4byte	.LASF21
 6401 0798 02       		.byte	0x2
 6402 0799 3F       		.byte	0x3f
 6403 079a 64000000 		.4byte	0x64
 6404 079e 95010000 		.4byte	.LLST14
 6405 07a2 0F       		.uleb128 0xf
 6406 07a3 AA040000 		.4byte	.LASF18
 6407 07a7 02       		.byte	0x2
 6408 07a8 42       		.byte	0x42
 6409 07a9 6B000000 		.4byte	0x6b
 6410 07ad A8010000 		.4byte	.LLST15
 6411 07b1 0A       		.uleb128 0xa
 6412 07b2 08000000 		.4byte	.LVL82
 6413 07b6 E8040000 		.4byte	0x4e8
 6414 07ba C5070000 		.4byte	0x7c5
 6415 07be 0B       		.uleb128 0xb
 6416 07bf 01       		.uleb128 0x1
 6417 07c0 50       		.byte	0x50
 6418 07c1 02       		.uleb128 0x2
 6419 07c2 08       		.byte	0x8
 6420 07c3 80       		.byte	0x80
 6421 07c4 00       		.byte	0
 6422 07c5 0A       		.uleb128 0xa
 6423 07c6 14000000 		.4byte	.LVL84
 6424 07ca 7A040000 		.4byte	0x47a
 6425 07ce D9070000 		.4byte	0x7d9
 6426 07d2 0B       		.uleb128 0xb
 6427 07d3 01       		.uleb128 0x1
 6428 07d4 50       		.byte	0x50
 6429 07d5 02       		.uleb128 0x2
 6430 07d6 08       		.byte	0x8
ARM GAS  C:\Users\HENRYA~1\AppData\Local\Temp\cceIRlNf.s 			page 134


 6431 07d7 80       		.byte	0x80
 6432 07d8 00       		.byte	0
 6433 07d9 0A       		.uleb128 0xa
 6434 07da 1A000000 		.4byte	.LVL85
 6435 07de E8040000 		.4byte	0x4e8
 6436 07e2 ED070000 		.4byte	0x7ed
 6437 07e6 0B       		.uleb128 0xb
 6438 07e7 01       		.uleb128 0x1
 6439 07e8 50       		.byte	0x50
 6440 07e9 02       		.uleb128 0x2
 6441 07ea 08       		.byte	0x8
 6442 07eb 80       		.byte	0x80
 6443 07ec 00       		.byte	0
 6444 07ed 0A       		.uleb128 0xa
 6445 07ee 24000000 		.4byte	.LVL86
 6446 07f2 E8040000 		.4byte	0x4e8
 6447 07f6 01080000 		.4byte	0x801
 6448 07fa 0B       		.uleb128 0xb
 6449 07fb 01       		.uleb128 0x1
 6450 07fc 50       		.byte	0x50
 6451 07fd 02       		.uleb128 0x2
 6452 07fe 08       		.byte	0x8
 6453 07ff 85       		.byte	0x85
 6454 0800 00       		.byte	0
 6455 0801 10       		.uleb128 0x10
 6456 0802 2C000000 		.4byte	.LVL88
 6457 0806 E8040000 		.4byte	0x4e8
 6458 080a 0B       		.uleb128 0xb
 6459 080b 01       		.uleb128 0x1
 6460 080c 50       		.byte	0x50
 6461 080d 02       		.uleb128 0x2
 6462 080e 08       		.byte	0x8
 6463 080f 86       		.byte	0x86
 6464 0810 00       		.byte	0
 6465 0811 00       		.byte	0
 6466 0812 07       		.uleb128 0x7
 6467 0813 A0080000 		.4byte	.LASF32
 6468 0817 03       		.byte	0x3
 6469 0818 06       		.byte	0x6
 6470 0819 00000000 		.4byte	.LFB46
 6471 081d 22000000 		.4byte	.LFE46-.LFB46
 6472 0821 01       		.uleb128 0x1
 6473 0822 9C       		.byte	0x9c
 6474 0823 80080000 		.4byte	0x880
 6475 0827 08       		.uleb128 0x8
 6476 0828 ED060000 		.4byte	.LASF17
 6477 082c 03       		.byte	0x3
 6478 082d 06       		.byte	0x6
 6479 082e 64000000 		.4byte	0x64
 6480 0832 C6010000 		.4byte	.LLST16
 6481 0836 08       		.uleb128 0x8
 6482 0837 AA040000 		.4byte	.LASF18
 6483 083b 03       		.byte	0x3
 6484 083c 06       		.byte	0x6
 6485 083d 64000000 		.4byte	0x64
 6486 0841 E7010000 		.4byte	.LLST17
 6487 0845 09       		.uleb128 0x9
ARM GAS  C:\Users\HENRYA~1\AppData\Local\Temp\cceIRlNf.s 			page 135


 6488 0846 4C040000 		.4byte	.LASF19
 6489 084a 03       		.byte	0x3
 6490 084b 07       		.byte	0x7
 6491 084c 30010000 		.4byte	0x130
 6492 0850 02       		.uleb128 0x2
 6493 0851 91       		.byte	0x91
 6494 0852 74       		.sleb128 -12
 6495 0853 0A       		.uleb128 0xa
 6496 0854 16000000 		.4byte	.LVL93
 6497 0858 722F0000 		.4byte	0x2f72
 6498 085c 76080000 		.4byte	0x876
 6499 0860 0B       		.uleb128 0xb
 6500 0861 01       		.uleb128 0x1
 6501 0862 50       		.byte	0x50
 6502 0863 01       		.uleb128 0x1
 6503 0864 43       		.byte	0x43
 6504 0865 0B       		.uleb128 0xb
 6505 0866 01       		.uleb128 0x1
 6506 0867 51       		.byte	0x51
 6507 0868 02       		.uleb128 0x2
 6508 0869 74       		.byte	0x74
 6509 086a 00       		.sleb128 0
 6510 086b 0B       		.uleb128 0xb
 6511 086c 01       		.uleb128 0x1
 6512 086d 52       		.byte	0x52
 6513 086e 01       		.uleb128 0x1
 6514 086f 32       		.byte	0x32
 6515 0870 0B       		.uleb128 0xb
 6516 0871 01       		.uleb128 0x1
 6517 0872 53       		.byte	0x53
 6518 0873 01       		.uleb128 0x1
 6519 0874 30       		.byte	0x30
 6520 0875 00       		.byte	0
 6521 0876 0C       		.uleb128 0xc
 6522 0877 1A000000 		.4byte	.LVL94
 6523 087b 7E2F0000 		.4byte	0x2f7e
 6524 087f 00       		.byte	0
 6525 0880 0D       		.uleb128 0xd
 6526 0881 1A040000 		.4byte	.LASF33
 6527 0885 03       		.byte	0x3
 6528 0886 0F       		.byte	0xf
 6529 0887 64000000 		.4byte	0x64
 6530 088b 00000000 		.4byte	.LFB47
 6531 088f 3C000000 		.4byte	.LFE47-.LFB47
 6532 0893 01       		.uleb128 0x1
 6533 0894 9C       		.byte	0x9c
 6534 0895 1D090000 		.4byte	0x91d
 6535 0899 08       		.uleb128 0x8
 6536 089a ED060000 		.4byte	.LASF17
 6537 089e 03       		.byte	0x3
 6538 089f 0F       		.byte	0xf
 6539 08a0 64000000 		.4byte	0x64
 6540 08a4 08020000 		.4byte	.LLST18
 6541 08a8 09       		.uleb128 0x9
 6542 08a9 4C040000 		.4byte	.LASF19
 6543 08ad 03       		.byte	0x3
 6544 08ae 10       		.byte	0x10
ARM GAS  C:\Users\HENRYA~1\AppData\Local\Temp\cceIRlNf.s 			page 136


 6545 08af DD010000 		.4byte	0x1dd
 6546 08b3 02       		.uleb128 0x2
 6547 08b4 91       		.byte	0x91
 6548 08b5 74       		.sleb128 -12
 6549 08b6 09       		.uleb128 0x9
 6550 08b7 BE060000 		.4byte	.LASF20
 6551 08bb 03       		.byte	0x3
 6552 08bc 12       		.byte	0x12
 6553 08bd DD010000 		.4byte	0x1dd
 6554 08c1 02       		.uleb128 0x2
 6555 08c2 91       		.byte	0x91
 6556 08c3 70       		.sleb128 -16
 6557 08c4 0A       		.uleb128 0xa
 6558 08c5 18000000 		.4byte	.LVL97
 6559 08c9 722F0000 		.4byte	0x2f72
 6560 08cd E7080000 		.4byte	0x8e7
 6561 08d1 0B       		.uleb128 0xb
 6562 08d2 01       		.uleb128 0x1
 6563 08d3 50       		.byte	0x50
 6564 08d4 01       		.uleb128 0x1
 6565 08d5 43       		.byte	0x43
 6566 08d6 0B       		.uleb128 0xb
 6567 08d7 01       		.uleb128 0x1
 6568 08d8 51       		.byte	0x51
 6569 08d9 02       		.uleb128 0x2
 6570 08da 91       		.byte	0x91
 6571 08db 74       		.sleb128 -12
 6572 08dc 0B       		.uleb128 0xb
 6573 08dd 01       		.uleb128 0x1
 6574 08de 52       		.byte	0x52
 6575 08df 01       		.uleb128 0x1
 6576 08e0 31       		.byte	0x31
 6577 08e1 0B       		.uleb128 0xb
 6578 08e2 01       		.uleb128 0x1
 6579 08e3 53       		.byte	0x53
 6580 08e4 01       		.uleb128 0x1
 6581 08e5 32       		.byte	0x32
 6582 08e6 00       		.byte	0
 6583 08e7 0C       		.uleb128 0xc
 6584 08e8 1C000000 		.4byte	.LVL98
 6585 08ec 7E2F0000 		.4byte	0x2f7e
 6586 08f0 0A       		.uleb128 0xa
 6587 08f1 2C000000 		.4byte	.LVL99
 6588 08f5 8A2F0000 		.4byte	0x2f8a
 6589 08f9 13090000 		.4byte	0x913
 6590 08fd 0B       		.uleb128 0xb
 6591 08fe 01       		.uleb128 0x1
 6592 08ff 50       		.byte	0x50
 6593 0900 01       		.uleb128 0x1
 6594 0901 43       		.byte	0x43
 6595 0902 0B       		.uleb128 0xb
 6596 0903 01       		.uleb128 0x1
 6597 0904 51       		.byte	0x51
 6598 0905 02       		.uleb128 0x2
 6599 0906 7D       		.byte	0x7d
 6600 0907 00       		.sleb128 0
 6601 0908 0B       		.uleb128 0xb
ARM GAS  C:\Users\HENRYA~1\AppData\Local\Temp\cceIRlNf.s 			page 137


 6602 0909 01       		.uleb128 0x1
 6603 090a 52       		.byte	0x52
 6604 090b 01       		.uleb128 0x1
 6605 090c 31       		.byte	0x31
 6606 090d 0B       		.uleb128 0xb
 6607 090e 01       		.uleb128 0x1
 6608 090f 53       		.byte	0x53
 6609 0910 01       		.uleb128 0x1
 6610 0911 31       		.byte	0x31
 6611 0912 00       		.byte	0
 6612 0913 0C       		.uleb128 0xc
 6613 0914 30000000 		.4byte	.LVL100
 6614 0918 7E2F0000 		.4byte	0x2f7e
 6615 091c 00       		.byte	0
 6616 091d 0E       		.uleb128 0xe
 6617 091e F5050000 		.4byte	.LASF34
 6618 0922 03       		.byte	0x3
 6619 0923 1A       		.byte	0x1a
 6620 0924 00000000 		.4byte	.LFB48
 6621 0928 8C000000 		.4byte	.LFE48-.LFB48
 6622 092c 01       		.uleb128 0x1
 6623 092d 9C       		.byte	0x9c
 6624 092e 7A0A0000 		.4byte	0xa7a
 6625 0932 0F       		.uleb128 0xf
 6626 0933 53060000 		.4byte	.LASF21
 6627 0937 03       		.byte	0x3
 6628 0938 1B       		.byte	0x1b
 6629 0939 64000000 		.4byte	0x64
 6630 093d 29020000 		.4byte	.LLST19
 6631 0941 0A       		.uleb128 0xa
 6632 0942 08000000 		.4byte	.LVL101
 6633 0946 80080000 		.4byte	0x880
 6634 094a 55090000 		.4byte	0x955
 6635 094e 0B       		.uleb128 0xb
 6636 094f 01       		.uleb128 0x1
 6637 0950 50       		.byte	0x50
 6638 0951 02       		.uleb128 0x2
 6639 0952 08       		.byte	0x8
 6640 0953 81       		.byte	0x81
 6641 0954 00       		.byte	0
 6642 0955 0A       		.uleb128 0xa
 6643 0956 12000000 		.4byte	.LVL103
 6644 095a 962F0000 		.4byte	0x2f96
 6645 095e 68090000 		.4byte	0x968
 6646 0962 0B       		.uleb128 0xb
 6647 0963 01       		.uleb128 0x1
 6648 0964 50       		.byte	0x50
 6649 0965 01       		.uleb128 0x1
 6650 0966 31       		.byte	0x31
 6651 0967 00       		.byte	0
 6652 0968 0A       		.uleb128 0xa
 6653 0969 1C000000 		.4byte	.LVL104
 6654 096d 382F0000 		.4byte	0x2f38
 6655 0971 7C090000 		.4byte	0x97c
 6656 0975 0B       		.uleb128 0xb
 6657 0976 01       		.uleb128 0x1
 6658 0977 50       		.byte	0x50
ARM GAS  C:\Users\HENRYA~1\AppData\Local\Temp\cceIRlNf.s 			page 138


 6659 0978 02       		.uleb128 0x2
 6660 0979 74       		.byte	0x74
 6661 097a 00       		.sleb128 0
 6662 097b 00       		.byte	0
 6663 097c 0A       		.uleb128 0xa
 6664 097d 22000000 		.4byte	.LVL105
 6665 0981 962F0000 		.4byte	0x2f96
 6666 0985 8F090000 		.4byte	0x98f
 6667 0989 0B       		.uleb128 0xb
 6668 098a 01       		.uleb128 0x1
 6669 098b 50       		.byte	0x50
 6670 098c 01       		.uleb128 0x1
 6671 098d 30       		.byte	0x30
 6672 098e 00       		.byte	0
 6673 098f 0A       		.uleb128 0xa
 6674 0990 28000000 		.4byte	.LVL106
 6675 0994 382F0000 		.4byte	0x2f38
 6676 0998 A3090000 		.4byte	0x9a3
 6677 099c 0B       		.uleb128 0xb
 6678 099d 01       		.uleb128 0x1
 6679 099e 50       		.byte	0x50
 6680 099f 02       		.uleb128 0x2
 6681 09a0 74       		.byte	0x74
 6682 09a1 00       		.sleb128 0
 6683 09a2 00       		.byte	0
 6684 09a3 0A       		.uleb128 0xa
 6685 09a4 30000000 		.4byte	.LVL109
 6686 09a8 962F0000 		.4byte	0x2f96
 6687 09ac B6090000 		.4byte	0x9b6
 6688 09b0 0B       		.uleb128 0xb
 6689 09b1 01       		.uleb128 0x1
 6690 09b2 50       		.byte	0x50
 6691 09b3 01       		.uleb128 0x1
 6692 09b4 30       		.byte	0x30
 6693 09b5 00       		.byte	0
 6694 09b6 0A       		.uleb128 0xa
 6695 09b7 3E000000 		.4byte	.LVL110
 6696 09bb 962F0000 		.4byte	0x2f96
 6697 09bf C9090000 		.4byte	0x9c9
 6698 09c3 0B       		.uleb128 0xb
 6699 09c4 01       		.uleb128 0x1
 6700 09c5 50       		.byte	0x50
 6701 09c6 01       		.uleb128 0x1
 6702 09c7 31       		.byte	0x31
 6703 09c8 00       		.byte	0
 6704 09c9 0A       		.uleb128 0xa
 6705 09ca 44000000 		.4byte	.LVL111
 6706 09ce 382F0000 		.4byte	0x2f38
 6707 09d2 DD090000 		.4byte	0x9dd
 6708 09d6 0B       		.uleb128 0xb
 6709 09d7 01       		.uleb128 0x1
 6710 09d8 50       		.byte	0x50
 6711 09d9 02       		.uleb128 0x2
 6712 09da 08       		.byte	0x8
 6713 09db C8       		.byte	0xc8
 6714 09dc 00       		.byte	0
 6715 09dd 0A       		.uleb128 0xa
ARM GAS  C:\Users\HENRYA~1\AppData\Local\Temp\cceIRlNf.s 			page 139


 6716 09de 4A000000 		.4byte	.LVL112
 6717 09e2 962F0000 		.4byte	0x2f96
 6718 09e6 F0090000 		.4byte	0x9f0
 6719 09ea 0B       		.uleb128 0xb
 6720 09eb 01       		.uleb128 0x1
 6721 09ec 50       		.byte	0x50
 6722 09ed 01       		.uleb128 0x1
 6723 09ee 30       		.byte	0x30
 6724 09ef 00       		.byte	0
 6725 09f0 0A       		.uleb128 0xa
 6726 09f1 50000000 		.4byte	.LVL113
 6727 09f5 382F0000 		.4byte	0x2f38
 6728 09f9 040A0000 		.4byte	0xa04
 6729 09fd 0B       		.uleb128 0xb
 6730 09fe 01       		.uleb128 0x1
 6731 09ff 50       		.byte	0x50
 6732 0a00 02       		.uleb128 0x2
 6733 0a01 08       		.byte	0x8
 6734 0a02 C8       		.byte	0xc8
 6735 0a03 00       		.byte	0
 6736 0a04 0A       		.uleb128 0xa
 6737 0a05 66000000 		.4byte	.LVL114
 6738 0a09 672F0000 		.4byte	0x2f67
 6739 0a0d 170A0000 		.4byte	0xa17
 6740 0a11 0B       		.uleb128 0xb
 6741 0a12 01       		.uleb128 0x1
 6742 0a13 50       		.byte	0x50
 6743 0a14 01       		.uleb128 0x1
 6744 0a15 30       		.byte	0x30
 6745 0a16 00       		.byte	0
 6746 0a17 0A       		.uleb128 0xa
 6747 0a18 6E000000 		.4byte	.LVL115
 6748 0a1c 12080000 		.4byte	0x812
 6749 0a20 300A0000 		.4byte	0xa30
 6750 0a24 0B       		.uleb128 0xb
 6751 0a25 01       		.uleb128 0x1
 6752 0a26 50       		.byte	0x50
 6753 0a27 02       		.uleb128 0x2
 6754 0a28 08       		.byte	0x8
 6755 0a29 84       		.byte	0x84
 6756 0a2a 0B       		.uleb128 0xb
 6757 0a2b 01       		.uleb128 0x1
 6758 0a2c 51       		.byte	0x51
 6759 0a2d 01       		.uleb128 0x1
 6760 0a2e 3F       		.byte	0x3f
 6761 0a2f 00       		.byte	0
 6762 0a30 0A       		.uleb128 0xa
 6763 0a31 76000000 		.4byte	.LVL116
 6764 0a35 12080000 		.4byte	0x812
 6765 0a39 4A0A0000 		.4byte	0xa4a
 6766 0a3d 0B       		.uleb128 0xb
 6767 0a3e 01       		.uleb128 0x1
 6768 0a3f 50       		.byte	0x50
 6769 0a40 02       		.uleb128 0x2
 6770 0a41 08       		.byte	0x8
 6771 0a42 83       		.byte	0x83
 6772 0a43 0B       		.uleb128 0xb
ARM GAS  C:\Users\HENRYA~1\AppData\Local\Temp\cceIRlNf.s 			page 140


 6773 0a44 01       		.uleb128 0x1
 6774 0a45 51       		.byte	0x51
 6775 0a46 02       		.uleb128 0x2
 6776 0a47 08       		.byte	0x8
 6777 0a48 32       		.byte	0x32
 6778 0a49 00       		.byte	0
 6779 0a4a 0A       		.uleb128 0xa
 6780 0a4b 7E000000 		.4byte	.LVL117
 6781 0a4f 12080000 		.4byte	0x812
 6782 0a53 630A0000 		.4byte	0xa63
 6783 0a57 0B       		.uleb128 0xb
 6784 0a58 01       		.uleb128 0x1
 6785 0a59 50       		.byte	0x50
 6786 0a5a 02       		.uleb128 0x2
 6787 0a5b 08       		.byte	0x8
 6788 0a5c 89       		.byte	0x89
 6789 0a5d 0B       		.uleb128 0xb
 6790 0a5e 01       		.uleb128 0x1
 6791 0a5f 51       		.byte	0x51
 6792 0a60 01       		.uleb128 0x1
 6793 0a61 30       		.byte	0x30
 6794 0a62 00       		.byte	0
 6795 0a63 10       		.uleb128 0x10
 6796 0a64 86000000 		.4byte	.LVL118
 6797 0a68 12080000 		.4byte	0x812
 6798 0a6c 0B       		.uleb128 0xb
 6799 0a6d 01       		.uleb128 0x1
 6800 0a6e 50       		.byte	0x50
 6801 0a6f 02       		.uleb128 0x2
 6802 0a70 08       		.byte	0x8
 6803 0a71 8A       		.byte	0x8a
 6804 0a72 0B       		.uleb128 0xb
 6805 0a73 01       		.uleb128 0x1
 6806 0a74 51       		.byte	0x51
 6807 0a75 02       		.uleb128 0x2
 6808 0a76 08       		.byte	0x8
 6809 0a77 81       		.byte	0x81
 6810 0a78 00       		.byte	0
 6811 0a79 00       		.byte	0
 6812 0a7a 11       		.uleb128 0x11
 6813 0a7b DF020000 		.4byte	.LASF35
 6814 0a7f 03       		.byte	0x3
 6815 0a80 35       		.byte	0x35
 6816 0a81 6B000000 		.4byte	0x6b
 6817 0a85 00000000 		.4byte	.LFB49
 6818 0a89 30000000 		.4byte	.LFE49-.LFB49
 6819 0a8d 01       		.uleb128 0x1
 6820 0a8e 9C       		.byte	0x9c
 6821 0a8f 120B0000 		.4byte	0xb12
 6822 0a93 0F       		.uleb128 0xf
 6823 0a94 53060000 		.4byte	.LASF21
 6824 0a98 03       		.byte	0x3
 6825 0a99 36       		.byte	0x36
 6826 0a9a 64000000 		.4byte	0x64
 6827 0a9e 47020000 		.4byte	.LLST20
 6828 0aa2 0F       		.uleb128 0xf
 6829 0aa3 AA040000 		.4byte	.LASF18
ARM GAS  C:\Users\HENRYA~1\AppData\Local\Temp\cceIRlNf.s 			page 141


 6830 0aa7 03       		.byte	0x3
 6831 0aa8 39       		.byte	0x39
 6832 0aa9 6B000000 		.4byte	0x6b
 6833 0aad 5A020000 		.4byte	.LLST21
 6834 0ab1 0A       		.uleb128 0xa
 6835 0ab2 08000000 		.4byte	.LVL119
 6836 0ab6 80080000 		.4byte	0x880
 6837 0aba C50A0000 		.4byte	0xac5
 6838 0abe 0B       		.uleb128 0xb
 6839 0abf 01       		.uleb128 0x1
 6840 0ac0 50       		.byte	0x50
 6841 0ac1 02       		.uleb128 0x2
 6842 0ac2 08       		.byte	0x8
 6843 0ac3 80       		.byte	0x80
 6844 0ac4 00       		.byte	0
 6845 0ac5 0A       		.uleb128 0xa
 6846 0ac6 14000000 		.4byte	.LVL121
 6847 0aca 12080000 		.4byte	0x812
 6848 0ace D90A0000 		.4byte	0xad9
 6849 0ad2 0B       		.uleb128 0xb
 6850 0ad3 01       		.uleb128 0x1
 6851 0ad4 50       		.byte	0x50
 6852 0ad5 02       		.uleb128 0x2
 6853 0ad6 08       		.byte	0x8
 6854 0ad7 80       		.byte	0x80
 6855 0ad8 00       		.byte	0
 6856 0ad9 0A       		.uleb128 0xa
 6857 0ada 1A000000 		.4byte	.LVL122
 6858 0ade 80080000 		.4byte	0x880
 6859 0ae2 ED0A0000 		.4byte	0xaed
 6860 0ae6 0B       		.uleb128 0xb
 6861 0ae7 01       		.uleb128 0x1
 6862 0ae8 50       		.byte	0x50
 6863 0ae9 02       		.uleb128 0x2
 6864 0aea 08       		.byte	0x8
 6865 0aeb 80       		.byte	0x80
 6866 0aec 00       		.byte	0
 6867 0aed 0A       		.uleb128 0xa
 6868 0aee 24000000 		.4byte	.LVL123
 6869 0af2 80080000 		.4byte	0x880
 6870 0af6 010B0000 		.4byte	0xb01
 6871 0afa 0B       		.uleb128 0xb
 6872 0afb 01       		.uleb128 0x1
 6873 0afc 50       		.byte	0x50
 6874 0afd 02       		.uleb128 0x2
 6875 0afe 08       		.byte	0x8
 6876 0aff 87       		.byte	0x87
 6877 0b00 00       		.byte	0
 6878 0b01 10       		.uleb128 0x10
 6879 0b02 2C000000 		.4byte	.LVL125
 6880 0b06 80080000 		.4byte	0x880
 6881 0b0a 0B       		.uleb128 0xb
 6882 0b0b 01       		.uleb128 0x1
 6883 0b0c 50       		.byte	0x50
 6884 0b0d 02       		.uleb128 0x2
 6885 0b0e 08       		.byte	0x8
 6886 0b0f 88       		.byte	0x88
ARM GAS  C:\Users\HENRYA~1\AppData\Local\Temp\cceIRlNf.s 			page 142


 6887 0b10 00       		.byte	0
 6888 0b11 00       		.byte	0
 6889 0b12 11       		.uleb128 0x11
 6890 0b13 73080000 		.4byte	.LASF36
 6891 0b17 03       		.byte	0x3
 6892 0b18 3E       		.byte	0x3e
 6893 0b19 6B000000 		.4byte	0x6b
 6894 0b1d 00000000 		.4byte	.LFB50
 6895 0b21 30000000 		.4byte	.LFE50-.LFB50
 6896 0b25 01       		.uleb128 0x1
 6897 0b26 9C       		.byte	0x9c
 6898 0b27 AA0B0000 		.4byte	0xbaa
 6899 0b2b 0F       		.uleb128 0xf
 6900 0b2c 53060000 		.4byte	.LASF21
 6901 0b30 03       		.byte	0x3
 6902 0b31 3F       		.byte	0x3f
 6903 0b32 64000000 		.4byte	0x64
 6904 0b36 78020000 		.4byte	.LLST22
 6905 0b3a 0F       		.uleb128 0xf
 6906 0b3b AA040000 		.4byte	.LASF18
 6907 0b3f 03       		.byte	0x3
 6908 0b40 42       		.byte	0x42
 6909 0b41 6B000000 		.4byte	0x6b
 6910 0b45 8B020000 		.4byte	.LLST23
 6911 0b49 0A       		.uleb128 0xa
 6912 0b4a 08000000 		.4byte	.LVL127
 6913 0b4e 80080000 		.4byte	0x880
 6914 0b52 5D0B0000 		.4byte	0xb5d
 6915 0b56 0B       		.uleb128 0xb
 6916 0b57 01       		.uleb128 0x1
 6917 0b58 50       		.byte	0x50
 6918 0b59 02       		.uleb128 0x2
 6919 0b5a 08       		.byte	0x8
 6920 0b5b 80       		.byte	0x80
 6921 0b5c 00       		.byte	0
 6922 0b5d 0A       		.uleb128 0xa
 6923 0b5e 14000000 		.4byte	.LVL129
 6924 0b62 12080000 		.4byte	0x812
 6925 0b66 710B0000 		.4byte	0xb71
 6926 0b6a 0B       		.uleb128 0xb
 6927 0b6b 01       		.uleb128 0x1
 6928 0b6c 50       		.byte	0x50
 6929 0b6d 02       		.uleb128 0x2
 6930 0b6e 08       		.byte	0x8
 6931 0b6f 80       		.byte	0x80
 6932 0b70 00       		.byte	0
 6933 0b71 0A       		.uleb128 0xa
 6934 0b72 1A000000 		.4byte	.LVL130
 6935 0b76 80080000 		.4byte	0x880
 6936 0b7a 850B0000 		.4byte	0xb85
 6937 0b7e 0B       		.uleb128 0xb
 6938 0b7f 01       		.uleb128 0x1
 6939 0b80 50       		.byte	0x50
 6940 0b81 02       		.uleb128 0x2
 6941 0b82 08       		.byte	0x8
 6942 0b83 80       		.byte	0x80
 6943 0b84 00       		.byte	0
ARM GAS  C:\Users\HENRYA~1\AppData\Local\Temp\cceIRlNf.s 			page 143


 6944 0b85 0A       		.uleb128 0xa
 6945 0b86 24000000 		.4byte	.LVL131
 6946 0b8a 80080000 		.4byte	0x880
 6947 0b8e 990B0000 		.4byte	0xb99
 6948 0b92 0B       		.uleb128 0xb
 6949 0b93 01       		.uleb128 0x1
 6950 0b94 50       		.byte	0x50
 6951 0b95 02       		.uleb128 0x2
 6952 0b96 08       		.byte	0x8
 6953 0b97 85       		.byte	0x85
 6954 0b98 00       		.byte	0
 6955 0b99 10       		.uleb128 0x10
 6956 0b9a 2C000000 		.4byte	.LVL133
 6957 0b9e 80080000 		.4byte	0x880
 6958 0ba2 0B       		.uleb128 0xb
 6959 0ba3 01       		.uleb128 0x1
 6960 0ba4 50       		.byte	0x50
 6961 0ba5 02       		.uleb128 0x2
 6962 0ba6 08       		.byte	0x8
 6963 0ba7 86       		.byte	0x86
 6964 0ba8 00       		.byte	0
 6965 0ba9 00       		.byte	0
 6966 0baa 11       		.uleb128 0x11
 6967 0bab 30080000 		.4byte	.LASF37
 6968 0baf 04       		.byte	0x4
 6969 0bb0 0B       		.byte	0xb
 6970 0bb1 64000000 		.4byte	0x64
 6971 0bb5 00000000 		.4byte	.LFB51
 6972 0bb9 A0000000 		.4byte	.LFE51-.LFB51
 6973 0bbd 01       		.uleb128 0x1
 6974 0bbe 9C       		.byte	0x9c
 6975 0bbf 500C0000 		.4byte	0xc50
 6976 0bc3 0A       		.uleb128 0xa
 6977 0bc4 0E000000 		.4byte	.LVL135
 6978 0bc8 382F0000 		.4byte	0x2f38
 6979 0bcc D60B0000 		.4byte	0xbd6
 6980 0bd0 0B       		.uleb128 0xb
 6981 0bd1 01       		.uleb128 0x1
 6982 0bd2 50       		.byte	0x50
 6983 0bd3 01       		.uleb128 0x1
 6984 0bd4 44       		.byte	0x44
 6985 0bd5 00       		.byte	0
 6986 0bd6 0A       		.uleb128 0xa
 6987 0bd7 1E000000 		.4byte	.LVL136
 6988 0bdb A12F0000 		.4byte	0x2fa1
 6989 0bdf EB0B0000 		.4byte	0xbeb
 6990 0be3 0B       		.uleb128 0xb
 6991 0be4 01       		.uleb128 0x1
 6992 0be5 50       		.byte	0x50
 6993 0be6 03       		.uleb128 0x3
 6994 0be7 0A       		.byte	0xa
 6995 0be8 E803     		.2byte	0x3e8
 6996 0bea 00       		.byte	0
 6997 0beb 0C       		.uleb128 0xc
 6998 0bec 22000000 		.4byte	.LVL137
 6999 0bf0 AC2F0000 		.4byte	0x2fac
 7000 0bf4 0C       		.uleb128 0xc
ARM GAS  C:\Users\HENRYA~1\AppData\Local\Temp\cceIRlNf.s 			page 144


 7001 0bf5 40000000 		.4byte	.LVL138
 7002 0bf9 B72F0000 		.4byte	0x2fb7
 7003 0bfd 0C       		.uleb128 0xc
 7004 0bfe 48000000 		.4byte	.LVL139
 7005 0c02 B72F0000 		.4byte	0x2fb7
 7006 0c06 0C       		.uleb128 0xc
 7007 0c07 62000000 		.4byte	.LVL140
 7008 0c0b B72F0000 		.4byte	0x2fb7
 7009 0c0f 0C       		.uleb128 0xc
 7010 0c10 66000000 		.4byte	.LVL141
 7011 0c14 B72F0000 		.4byte	0x2fb7
 7012 0c18 0C       		.uleb128 0xc
 7013 0c19 6A000000 		.4byte	.LVL142
 7014 0c1d B72F0000 		.4byte	0x2fb7
 7015 0c21 0C       		.uleb128 0xc
 7016 0c22 72000000 		.4byte	.LVL143
 7017 0c26 B72F0000 		.4byte	0x2fb7
 7018 0c2a 0C       		.uleb128 0xc
 7019 0c2b 76000000 		.4byte	.LVL144
 7020 0c2f C22F0000 		.4byte	0x2fc2
 7021 0c33 0A       		.uleb128 0xa
 7022 0c34 7C000000 		.4byte	.LVL145
 7023 0c38 382F0000 		.4byte	0x2f38
 7024 0c3c 460C0000 		.4byte	0xc46
 7025 0c40 0B       		.uleb128 0xb
 7026 0c41 01       		.uleb128 0x1
 7027 0c42 50       		.byte	0x50
 7028 0c43 01       		.uleb128 0x1
 7029 0c44 3A       		.byte	0x3a
 7030 0c45 00       		.byte	0
 7031 0c46 0C       		.uleb128 0xc
 7032 0c47 84000000 		.4byte	.LVL146
 7033 0c4b AC2F0000 		.4byte	0x2fac
 7034 0c4f 00       		.byte	0
 7035 0c50 0D       		.uleb128 0xd
 7036 0c51 58060000 		.4byte	.LASF38
 7037 0c55 04       		.byte	0x4
 7038 0c56 23       		.byte	0x23
 7039 0c57 64000000 		.4byte	0x64
 7040 0c5b 00000000 		.4byte	.LFB52
 7041 0c5f FC000000 		.4byte	.LFE52-.LFB52
 7042 0c63 01       		.uleb128 0x1
 7043 0c64 9C       		.byte	0x9c
 7044 0c65 ED0D0000 		.4byte	0xded
 7045 0c69 12       		.uleb128 0x12
 7046 0c6a 494400   		.ascii	"ID\000"
 7047 0c6d 04       		.byte	0x4
 7048 0c6e 23       		.byte	0x23
 7049 0c6f 33000000 		.4byte	0x33
 7050 0c73 A9020000 		.4byte	.LLST24
 7051 0c77 0A       		.uleb128 0xa
 7052 0c78 14000000 		.4byte	.LVL149
 7053 0c7c CD2F0000 		.4byte	0x2fcd
 7054 0c80 8A0C0000 		.4byte	0xc8a
 7055 0c84 0B       		.uleb128 0xb
 7056 0c85 01       		.uleb128 0x1
 7057 0c86 50       		.byte	0x50
ARM GAS  C:\Users\HENRYA~1\AppData\Local\Temp\cceIRlNf.s 			page 145


 7058 0c87 01       		.uleb128 0x1
 7059 0c88 32       		.byte	0x32
 7060 0c89 00       		.byte	0
 7061 0c8a 0A       		.uleb128 0xa
 7062 0c8b 1A000000 		.4byte	.LVL150
 7063 0c8f D82F0000 		.4byte	0x2fd8
 7064 0c93 9E0C0000 		.4byte	0xc9e
 7065 0c97 0B       		.uleb128 0xb
 7066 0c98 01       		.uleb128 0x1
 7067 0c99 50       		.byte	0x50
 7068 0c9a 02       		.uleb128 0x2
 7069 0c9b 09       		.byte	0x9
 7070 0c9c FF       		.byte	0xff
 7071 0c9d 00       		.byte	0
 7072 0c9e 0A       		.uleb128 0xa
 7073 0c9f 20000000 		.4byte	.LVL151
 7074 0ca3 D82F0000 		.4byte	0x2fd8
 7075 0ca7 B20C0000 		.4byte	0xcb2
 7076 0cab 0B       		.uleb128 0xb
 7077 0cac 01       		.uleb128 0x1
 7078 0cad 50       		.byte	0x50
 7079 0cae 02       		.uleb128 0x2
 7080 0caf 09       		.byte	0x9
 7081 0cb0 FF       		.byte	0xff
 7082 0cb1 00       		.byte	0
 7083 0cb2 0A       		.uleb128 0xa
 7084 0cb3 26000000 		.4byte	.LVL152
 7085 0cb7 D82F0000 		.4byte	0x2fd8
 7086 0cbb C60C0000 		.4byte	0xcc6
 7087 0cbf 0B       		.uleb128 0xb
 7088 0cc0 01       		.uleb128 0x1
 7089 0cc1 50       		.byte	0x50
 7090 0cc2 02       		.uleb128 0x2
 7091 0cc3 75       		.byte	0x75
 7092 0cc4 00       		.sleb128 0
 7093 0cc5 00       		.byte	0
 7094 0cc6 0A       		.uleb128 0xa
 7095 0cc7 2C000000 		.4byte	.LVL153
 7096 0ccb D82F0000 		.4byte	0x2fd8
 7097 0ccf D90C0000 		.4byte	0xcd9
 7098 0cd3 0B       		.uleb128 0xb
 7099 0cd4 01       		.uleb128 0x1
 7100 0cd5 50       		.byte	0x50
 7101 0cd6 01       		.uleb128 0x1
 7102 0cd7 34       		.byte	0x34
 7103 0cd8 00       		.byte	0
 7104 0cd9 0A       		.uleb128 0xa
 7105 0cda 32000000 		.4byte	.LVL154
 7106 0cde D82F0000 		.4byte	0x2fd8
 7107 0ce2 EC0C0000 		.4byte	0xcec
 7108 0ce6 0B       		.uleb128 0xb
 7109 0ce7 01       		.uleb128 0x1
 7110 0ce8 50       		.byte	0x50
 7111 0ce9 01       		.uleb128 0x1
 7112 0cea 32       		.byte	0x32
 7113 0ceb 00       		.byte	0
 7114 0cec 0A       		.uleb128 0xa
ARM GAS  C:\Users\HENRYA~1\AppData\Local\Temp\cceIRlNf.s 			page 146


 7115 0ced 38000000 		.4byte	.LVL155
 7116 0cf1 D82F0000 		.4byte	0x2fd8
 7117 0cf5 000D0000 		.4byte	0xd00
 7118 0cf9 0B       		.uleb128 0xb
 7119 0cfa 01       		.uleb128 0x1
 7120 0cfb 50       		.byte	0x50
 7121 0cfc 02       		.uleb128 0x2
 7122 0cfd 08       		.byte	0x8
 7123 0cfe 2B       		.byte	0x2b
 7124 0cff 00       		.byte	0
 7125 0d00 0A       		.uleb128 0xa
 7126 0d01 3E000000 		.4byte	.LVL156
 7127 0d05 D82F0000 		.4byte	0x2fd8
 7128 0d09 130D0000 		.4byte	0xd13
 7129 0d0d 0B       		.uleb128 0xb
 7130 0d0e 01       		.uleb128 0x1
 7131 0d0f 50       		.byte	0x50
 7132 0d10 01       		.uleb128 0x1
 7133 0d11 31       		.byte	0x31
 7134 0d12 00       		.byte	0
 7135 0d13 0C       		.uleb128 0xc
 7136 0d14 44000000 		.4byte	.LVL157
 7137 0d18 D82F0000 		.4byte	0x2fd8
 7138 0d1c 0A       		.uleb128 0xa
 7139 0d1d 4C000000 		.4byte	.LVL158
 7140 0d21 A12F0000 		.4byte	0x2fa1
 7141 0d25 310D0000 		.4byte	0xd31
 7142 0d29 0B       		.uleb128 0xb
 7143 0d2a 01       		.uleb128 0x1
 7144 0d2b 50       		.byte	0x50
 7145 0d2c 03       		.uleb128 0x3
 7146 0d2d 0A       		.byte	0xa
 7147 0d2e 9001     		.2byte	0x190
 7148 0d30 00       		.byte	0
 7149 0d31 0A       		.uleb128 0xa
 7150 0d32 52000000 		.4byte	.LVL159
 7151 0d36 382F0000 		.4byte	0x2f38
 7152 0d3a 440D0000 		.4byte	0xd44
 7153 0d3e 0B       		.uleb128 0xb
 7154 0d3f 01       		.uleb128 0x1
 7155 0d40 50       		.byte	0x50
 7156 0d41 01       		.uleb128 0x1
 7157 0d42 35       		.byte	0x35
 7158 0d43 00       		.byte	0
 7159 0d44 0A       		.uleb128 0xa
 7160 0d45 58000000 		.4byte	.LVL160
 7161 0d49 CD2F0000 		.4byte	0x2fcd
 7162 0d4d 570D0000 		.4byte	0xd57
 7163 0d51 0B       		.uleb128 0xb
 7164 0d52 01       		.uleb128 0x1
 7165 0d53 50       		.byte	0x50
 7166 0d54 01       		.uleb128 0x1
 7167 0d55 31       		.byte	0x31
 7168 0d56 00       		.byte	0
 7169 0d57 0A       		.uleb128 0xa
 7170 0d58 64000000 		.4byte	.LVL161
 7171 0d5c 382F0000 		.4byte	0x2f38
ARM GAS  C:\Users\HENRYA~1\AppData\Local\Temp\cceIRlNf.s 			page 147


 7172 0d60 6A0D0000 		.4byte	0xd6a
 7173 0d64 0B       		.uleb128 0xb
 7174 0d65 01       		.uleb128 0x1
 7175 0d66 50       		.byte	0x50
 7176 0d67 01       		.uleb128 0x1
 7177 0d68 44       		.byte	0x44
 7178 0d69 00       		.byte	0
 7179 0d6a 0A       		.uleb128 0xa
 7180 0d6b 74000000 		.4byte	.LVL162
 7181 0d6f A12F0000 		.4byte	0x2fa1
 7182 0d73 7F0D0000 		.4byte	0xd7f
 7183 0d77 0B       		.uleb128 0xb
 7184 0d78 01       		.uleb128 0x1
 7185 0d79 50       		.byte	0x50
 7186 0d7a 03       		.uleb128 0x3
 7187 0d7b 0A       		.byte	0xa
 7188 0d7c E803     		.2byte	0x3e8
 7189 0d7e 00       		.byte	0
 7190 0d7f 0C       		.uleb128 0xc
 7191 0d80 78000000 		.4byte	.LVL163
 7192 0d84 AC2F0000 		.4byte	0x2fac
 7193 0d88 0C       		.uleb128 0xc
 7194 0d89 96000000 		.4byte	.LVL164
 7195 0d8d E32F0000 		.4byte	0x2fe3
 7196 0d91 0C       		.uleb128 0xc
 7197 0d92 9E000000 		.4byte	.LVL165
 7198 0d96 E32F0000 		.4byte	0x2fe3
 7199 0d9a 0C       		.uleb128 0xc
 7200 0d9b B8000000 		.4byte	.LVL166
 7201 0d9f E32F0000 		.4byte	0x2fe3
 7202 0da3 0C       		.uleb128 0xc
 7203 0da4 BC000000 		.4byte	.LVL167
 7204 0da8 E32F0000 		.4byte	0x2fe3
 7205 0dac 0C       		.uleb128 0xc
 7206 0dad C0000000 		.4byte	.LVL168
 7207 0db1 E32F0000 		.4byte	0x2fe3
 7208 0db5 0C       		.uleb128 0xc
 7209 0db6 C4000000 		.4byte	.LVL169
 7210 0dba E32F0000 		.4byte	0x2fe3
 7211 0dbe 0C       		.uleb128 0xc
 7212 0dbf CC000000 		.4byte	.LVL170
 7213 0dc3 E32F0000 		.4byte	0x2fe3
 7214 0dc7 0C       		.uleb128 0xc
 7215 0dc8 D0000000 		.4byte	.LVL171
 7216 0dcc C22F0000 		.4byte	0x2fc2
 7217 0dd0 0A       		.uleb128 0xa
 7218 0dd1 D6000000 		.4byte	.LVL172
 7219 0dd5 382F0000 		.4byte	0x2f38
 7220 0dd9 E30D0000 		.4byte	0xde3
 7221 0ddd 0B       		.uleb128 0xb
 7222 0dde 01       		.uleb128 0x1
 7223 0ddf 50       		.byte	0x50
 7224 0de0 01       		.uleb128 0x1
 7225 0de1 3A       		.byte	0x3a
 7226 0de2 00       		.byte	0
 7227 0de3 0C       		.uleb128 0xc
 7228 0de4 DE000000 		.4byte	.LVL173
ARM GAS  C:\Users\HENRYA~1\AppData\Local\Temp\cceIRlNf.s 			page 148


 7229 0de8 AC2F0000 		.4byte	0x2fac
 7230 0dec 00       		.byte	0
 7231 0ded 0D       		.uleb128 0xd
 7232 0dee D6070000 		.4byte	.LASF39
 7233 0df2 04       		.byte	0x4
 7234 0df3 49       		.byte	0x49
 7235 0df4 64000000 		.4byte	0x64
 7236 0df8 00000000 		.4byte	.LFB53
 7237 0dfc 64000000 		.4byte	.LFE53-.LFB53
 7238 0e00 01       		.uleb128 0x1
 7239 0e01 9C       		.byte	0x9c
 7240 0e02 0D0F0000 		.4byte	0xf0d
 7241 0e06 12       		.uleb128 0x12
 7242 0e07 494400   		.ascii	"ID\000"
 7243 0e0a 04       		.byte	0x4
 7244 0e0b 49       		.byte	0x49
 7245 0e0c 33000000 		.4byte	0x33
 7246 0e10 CA020000 		.4byte	.LLST25
 7247 0e14 08       		.uleb128 0x8
 7248 0e15 05080000 		.4byte	.LASF40
 7249 0e19 04       		.byte	0x4
 7250 0e1a 49       		.byte	0x49
 7251 0e1b 33000000 		.4byte	0x33
 7252 0e1f EB020000 		.4byte	.LLST26
 7253 0e23 0A       		.uleb128 0xa
 7254 0e24 16000000 		.4byte	.LVL176
 7255 0e28 CD2F0000 		.4byte	0x2fcd
 7256 0e2c 360E0000 		.4byte	0xe36
 7257 0e30 0B       		.uleb128 0xb
 7258 0e31 01       		.uleb128 0x1
 7259 0e32 50       		.byte	0x50
 7260 0e33 01       		.uleb128 0x1
 7261 0e34 32       		.byte	0x32
 7262 0e35 00       		.byte	0
 7263 0e36 0A       		.uleb128 0xa
 7264 0e37 1C000000 		.4byte	.LVL177
 7265 0e3b D82F0000 		.4byte	0x2fd8
 7266 0e3f 4A0E0000 		.4byte	0xe4a
 7267 0e43 0B       		.uleb128 0xb
 7268 0e44 01       		.uleb128 0x1
 7269 0e45 50       		.byte	0x50
 7270 0e46 02       		.uleb128 0x2
 7271 0e47 09       		.byte	0x9
 7272 0e48 FF       		.byte	0xff
 7273 0e49 00       		.byte	0
 7274 0e4a 0A       		.uleb128 0xa
 7275 0e4b 22000000 		.4byte	.LVL178
 7276 0e4f D82F0000 		.4byte	0x2fd8
 7277 0e53 5E0E0000 		.4byte	0xe5e
 7278 0e57 0B       		.uleb128 0xb
 7279 0e58 01       		.uleb128 0x1
 7280 0e59 50       		.byte	0x50
 7281 0e5a 02       		.uleb128 0x2
 7282 0e5b 09       		.byte	0x9
 7283 0e5c FF       		.byte	0xff
 7284 0e5d 00       		.byte	0
 7285 0e5e 0A       		.uleb128 0xa
ARM GAS  C:\Users\HENRYA~1\AppData\Local\Temp\cceIRlNf.s 			page 149


 7286 0e5f 28000000 		.4byte	.LVL179
 7287 0e63 D82F0000 		.4byte	0x2fd8
 7288 0e67 720E0000 		.4byte	0xe72
 7289 0e6b 0B       		.uleb128 0xb
 7290 0e6c 01       		.uleb128 0x1
 7291 0e6d 50       		.byte	0x50
 7292 0e6e 02       		.uleb128 0x2
 7293 0e6f 75       		.byte	0x75
 7294 0e70 00       		.sleb128 0
 7295 0e71 00       		.byte	0
 7296 0e72 0A       		.uleb128 0xa
 7297 0e73 2E000000 		.4byte	.LVL180
 7298 0e77 D82F0000 		.4byte	0x2fd8
 7299 0e7b 850E0000 		.4byte	0xe85
 7300 0e7f 0B       		.uleb128 0xb
 7301 0e80 01       		.uleb128 0x1
 7302 0e81 50       		.byte	0x50
 7303 0e82 01       		.uleb128 0x1
 7304 0e83 34       		.byte	0x34
 7305 0e84 00       		.byte	0
 7306 0e85 0A       		.uleb128 0xa
 7307 0e86 34000000 		.4byte	.LVL181
 7308 0e8a D82F0000 		.4byte	0x2fd8
 7309 0e8e 980E0000 		.4byte	0xe98
 7310 0e92 0B       		.uleb128 0xb
 7311 0e93 01       		.uleb128 0x1
 7312 0e94 50       		.byte	0x50
 7313 0e95 01       		.uleb128 0x1
 7314 0e96 33       		.byte	0x33
 7315 0e97 00       		.byte	0
 7316 0e98 0A       		.uleb128 0xa
 7317 0e99 3A000000 		.4byte	.LVL182
 7318 0e9d D82F0000 		.4byte	0x2fd8
 7319 0ea1 AB0E0000 		.4byte	0xeab
 7320 0ea5 0B       		.uleb128 0xb
 7321 0ea6 01       		.uleb128 0x1
 7322 0ea7 50       		.byte	0x50
 7323 0ea8 01       		.uleb128 0x1
 7324 0ea9 33       		.byte	0x33
 7325 0eaa 00       		.byte	0
 7326 0eab 0A       		.uleb128 0xa
 7327 0eac 40000000 		.4byte	.LVL183
 7328 0eb0 D82F0000 		.4byte	0x2fd8
 7329 0eb4 BF0E0000 		.4byte	0xebf
 7330 0eb8 0B       		.uleb128 0xb
 7331 0eb9 01       		.uleb128 0x1
 7332 0eba 50       		.byte	0x50
 7333 0ebb 02       		.uleb128 0x2
 7334 0ebc 74       		.byte	0x74
 7335 0ebd 00       		.sleb128 0
 7336 0ebe 00       		.byte	0
 7337 0ebf 0C       		.uleb128 0xc
 7338 0ec0 46000000 		.4byte	.LVL184
 7339 0ec4 D82F0000 		.4byte	0x2fd8
 7340 0ec8 0A       		.uleb128 0xa
 7341 0ec9 4E000000 		.4byte	.LVL185
 7342 0ecd A12F0000 		.4byte	0x2fa1
ARM GAS  C:\Users\HENRYA~1\AppData\Local\Temp\cceIRlNf.s 			page 150


 7343 0ed1 DD0E0000 		.4byte	0xedd
 7344 0ed5 0B       		.uleb128 0xb
 7345 0ed6 01       		.uleb128 0x1
 7346 0ed7 50       		.byte	0x50
 7347 0ed8 03       		.uleb128 0x3
 7348 0ed9 0A       		.byte	0xa
 7349 0eda 9001     		.2byte	0x190
 7350 0edc 00       		.byte	0
 7351 0edd 0A       		.uleb128 0xa
 7352 0ede 54000000 		.4byte	.LVL186
 7353 0ee2 382F0000 		.4byte	0x2f38
 7354 0ee6 F00E0000 		.4byte	0xef0
 7355 0eea 0B       		.uleb128 0xb
 7356 0eeb 01       		.uleb128 0x1
 7357 0eec 50       		.byte	0x50
 7358 0eed 01       		.uleb128 0x1
 7359 0eee 35       		.byte	0x35
 7360 0eef 00       		.byte	0
 7361 0ef0 0A       		.uleb128 0xa
 7362 0ef1 5A000000 		.4byte	.LVL187
 7363 0ef5 CD2F0000 		.4byte	0x2fcd
 7364 0ef9 030F0000 		.4byte	0xf03
 7365 0efd 0B       		.uleb128 0xb
 7366 0efe 01       		.uleb128 0x1
 7367 0eff 50       		.byte	0x50
 7368 0f00 01       		.uleb128 0x1
 7369 0f01 31       		.byte	0x31
 7370 0f02 00       		.byte	0
 7371 0f03 0C       		.uleb128 0xc
 7372 0f04 5E000000 		.4byte	.LVL188
 7373 0f08 AA0B0000 		.4byte	0xbaa
 7374 0f0c 00       		.byte	0
 7375 0f0d 0D       		.uleb128 0xd
 7376 0f0e 85010000 		.4byte	.LASF41
 7377 0f12 04       		.byte	0x4
 7378 0f13 5A       		.byte	0x5a
 7379 0f14 64000000 		.4byte	0x64
 7380 0f18 00000000 		.4byte	.LFB54
 7381 0f1c 54000000 		.4byte	.LFE54-.LFB54
 7382 0f20 01       		.uleb128 0x1
 7383 0f21 9C       		.byte	0x9c
 7384 0f22 F70F0000 		.4byte	0xff7
 7385 0f26 12       		.uleb128 0x12
 7386 0f27 494400   		.ascii	"ID\000"
 7387 0f2a 04       		.byte	0x4
 7388 0f2b 5A       		.byte	0x5a
 7389 0f2c 33000000 		.4byte	0x33
 7390 0f30 0C030000 		.4byte	.LLST27
 7391 0f34 0A       		.uleb128 0xa
 7392 0f35 12000000 		.4byte	.LVL191
 7393 0f39 CD2F0000 		.4byte	0x2fcd
 7394 0f3d 470F0000 		.4byte	0xf47
 7395 0f41 0B       		.uleb128 0xb
 7396 0f42 01       		.uleb128 0x1
 7397 0f43 50       		.byte	0x50
 7398 0f44 01       		.uleb128 0x1
 7399 0f45 32       		.byte	0x32
ARM GAS  C:\Users\HENRYA~1\AppData\Local\Temp\cceIRlNf.s 			page 151


 7400 0f46 00       		.byte	0
 7401 0f47 0A       		.uleb128 0xa
 7402 0f48 18000000 		.4byte	.LVL192
 7403 0f4c D82F0000 		.4byte	0x2fd8
 7404 0f50 5B0F0000 		.4byte	0xf5b
 7405 0f54 0B       		.uleb128 0xb
 7406 0f55 01       		.uleb128 0x1
 7407 0f56 50       		.byte	0x50
 7408 0f57 02       		.uleb128 0x2
 7409 0f58 09       		.byte	0x9
 7410 0f59 FF       		.byte	0xff
 7411 0f5a 00       		.byte	0
 7412 0f5b 0A       		.uleb128 0xa
 7413 0f5c 1E000000 		.4byte	.LVL193
 7414 0f60 D82F0000 		.4byte	0x2fd8
 7415 0f64 6F0F0000 		.4byte	0xf6f
 7416 0f68 0B       		.uleb128 0xb
 7417 0f69 01       		.uleb128 0x1
 7418 0f6a 50       		.byte	0x50
 7419 0f6b 02       		.uleb128 0x2
 7420 0f6c 09       		.byte	0x9
 7421 0f6d FF       		.byte	0xff
 7422 0f6e 00       		.byte	0
 7423 0f6f 0A       		.uleb128 0xa
 7424 0f70 24000000 		.4byte	.LVL194
 7425 0f74 D82F0000 		.4byte	0x2fd8
 7426 0f78 830F0000 		.4byte	0xf83
 7427 0f7c 0B       		.uleb128 0xb
 7428 0f7d 01       		.uleb128 0x1
 7429 0f7e 50       		.byte	0x50
 7430 0f7f 02       		.uleb128 0x2
 7431 0f80 75       		.byte	0x75
 7432 0f81 00       		.sleb128 0
 7433 0f82 00       		.byte	0
 7434 0f83 0A       		.uleb128 0xa
 7435 0f84 2A000000 		.4byte	.LVL195
 7436 0f88 D82F0000 		.4byte	0x2fd8
 7437 0f8c 960F0000 		.4byte	0xf96
 7438 0f90 0B       		.uleb128 0xb
 7439 0f91 01       		.uleb128 0x1
 7440 0f92 50       		.byte	0x50
 7441 0f93 01       		.uleb128 0x1
 7442 0f94 32       		.byte	0x32
 7443 0f95 00       		.byte	0
 7444 0f96 0A       		.uleb128 0xa
 7445 0f97 30000000 		.4byte	.LVL196
 7446 0f9b D82F0000 		.4byte	0x2fd8
 7447 0f9f A90F0000 		.4byte	0xfa9
 7448 0fa3 0B       		.uleb128 0xb
 7449 0fa4 01       		.uleb128 0x1
 7450 0fa5 50       		.byte	0x50
 7451 0fa6 01       		.uleb128 0x1
 7452 0fa7 31       		.byte	0x31
 7453 0fa8 00       		.byte	0
 7454 0fa9 0C       		.uleb128 0xc
 7455 0faa 36000000 		.4byte	.LVL197
 7456 0fae D82F0000 		.4byte	0x2fd8
ARM GAS  C:\Users\HENRYA~1\AppData\Local\Temp\cceIRlNf.s 			page 152


 7457 0fb2 0A       		.uleb128 0xa
 7458 0fb3 3E000000 		.4byte	.LVL198
 7459 0fb7 A12F0000 		.4byte	0x2fa1
 7460 0fbb C70F0000 		.4byte	0xfc7
 7461 0fbf 0B       		.uleb128 0xb
 7462 0fc0 01       		.uleb128 0x1
 7463 0fc1 50       		.byte	0x50
 7464 0fc2 03       		.uleb128 0x3
 7465 0fc3 0A       		.byte	0xa
 7466 0fc4 9001     		.2byte	0x190
 7467 0fc6 00       		.byte	0
 7468 0fc7 0A       		.uleb128 0xa
 7469 0fc8 44000000 		.4byte	.LVL199
 7470 0fcc 382F0000 		.4byte	0x2f38
 7471 0fd0 DA0F0000 		.4byte	0xfda
 7472 0fd4 0B       		.uleb128 0xb
 7473 0fd5 01       		.uleb128 0x1
 7474 0fd6 50       		.byte	0x50
 7475 0fd7 01       		.uleb128 0x1
 7476 0fd8 35       		.byte	0x35
 7477 0fd9 00       		.byte	0
 7478 0fda 0A       		.uleb128 0xa
 7479 0fdb 4A000000 		.4byte	.LVL200
 7480 0fdf CD2F0000 		.4byte	0x2fcd
 7481 0fe3 ED0F0000 		.4byte	0xfed
 7482 0fe7 0B       		.uleb128 0xb
 7483 0fe8 01       		.uleb128 0x1
 7484 0fe9 50       		.byte	0x50
 7485 0fea 01       		.uleb128 0x1
 7486 0feb 31       		.byte	0x31
 7487 0fec 00       		.byte	0
 7488 0fed 0C       		.uleb128 0xc
 7489 0fee 4E000000 		.4byte	.LVL201
 7490 0ff2 AA0B0000 		.4byte	0xbaa
 7491 0ff6 00       		.byte	0
 7492 0ff7 0D       		.uleb128 0xd
 7493 0ff8 7B060000 		.4byte	.LASF42
 7494 0ffc 04       		.byte	0x4
 7495 0ffd 69       		.byte	0x69
 7496 0ffe 64000000 		.4byte	0x64
 7497 1002 00000000 		.4byte	.LFB55
 7498 1006 58000000 		.4byte	.LFE55-.LFB55
 7499 100a 01       		.uleb128 0x1
 7500 100b 9C       		.byte	0x9c
 7501 100c E1100000 		.4byte	0x10e1
 7502 1010 12       		.uleb128 0x12
 7503 1011 494400   		.ascii	"ID\000"
 7504 1014 04       		.byte	0x4
 7505 1015 69       		.byte	0x69
 7506 1016 33000000 		.4byte	0x33
 7507 101a 2D030000 		.4byte	.LLST28
 7508 101e 0A       		.uleb128 0xa
 7509 101f 14000000 		.4byte	.LVL204
 7510 1023 CD2F0000 		.4byte	0x2fcd
 7511 1027 31100000 		.4byte	0x1031
 7512 102b 0B       		.uleb128 0xb
 7513 102c 01       		.uleb128 0x1
ARM GAS  C:\Users\HENRYA~1\AppData\Local\Temp\cceIRlNf.s 			page 153


 7514 102d 50       		.byte	0x50
 7515 102e 01       		.uleb128 0x1
 7516 102f 32       		.byte	0x32
 7517 1030 00       		.byte	0
 7518 1031 0A       		.uleb128 0xa
 7519 1032 1A000000 		.4byte	.LVL205
 7520 1036 D82F0000 		.4byte	0x2fd8
 7521 103a 45100000 		.4byte	0x1045
 7522 103e 0B       		.uleb128 0xb
 7523 103f 01       		.uleb128 0x1
 7524 1040 50       		.byte	0x50
 7525 1041 02       		.uleb128 0x2
 7526 1042 09       		.byte	0x9
 7527 1043 FF       		.byte	0xff
 7528 1044 00       		.byte	0
 7529 1045 0A       		.uleb128 0xa
 7530 1046 20000000 		.4byte	.LVL206
 7531 104a D82F0000 		.4byte	0x2fd8
 7532 104e 59100000 		.4byte	0x1059
 7533 1052 0B       		.uleb128 0xb
 7534 1053 01       		.uleb128 0x1
 7535 1054 50       		.byte	0x50
 7536 1055 02       		.uleb128 0x2
 7537 1056 09       		.byte	0x9
 7538 1057 FF       		.byte	0xff
 7539 1058 00       		.byte	0
 7540 1059 0A       		.uleb128 0xa
 7541 105a 26000000 		.4byte	.LVL207
 7542 105e D82F0000 		.4byte	0x2fd8
 7543 1062 6D100000 		.4byte	0x106d
 7544 1066 0B       		.uleb128 0xb
 7545 1067 01       		.uleb128 0x1
 7546 1068 50       		.byte	0x50
 7547 1069 02       		.uleb128 0x2
 7548 106a 75       		.byte	0x75
 7549 106b 00       		.sleb128 0
 7550 106c 00       		.byte	0
 7551 106d 0A       		.uleb128 0xa
 7552 106e 2C000000 		.4byte	.LVL208
 7553 1072 D82F0000 		.4byte	0x2fd8
 7554 1076 80100000 		.4byte	0x1080
 7555 107a 0B       		.uleb128 0xb
 7556 107b 01       		.uleb128 0x1
 7557 107c 50       		.byte	0x50
 7558 107d 01       		.uleb128 0x1
 7559 107e 32       		.byte	0x32
 7560 107f 00       		.byte	0
 7561 1080 0A       		.uleb128 0xa
 7562 1081 32000000 		.4byte	.LVL209
 7563 1085 D82F0000 		.4byte	0x2fd8
 7564 1089 93100000 		.4byte	0x1093
 7565 108d 0B       		.uleb128 0xb
 7566 108e 01       		.uleb128 0x1
 7567 108f 50       		.byte	0x50
 7568 1090 01       		.uleb128 0x1
 7569 1091 36       		.byte	0x36
 7570 1092 00       		.byte	0
ARM GAS  C:\Users\HENRYA~1\AppData\Local\Temp\cceIRlNf.s 			page 154


 7571 1093 0C       		.uleb128 0xc
 7572 1094 38000000 		.4byte	.LVL210
 7573 1098 D82F0000 		.4byte	0x2fd8
 7574 109c 0A       		.uleb128 0xa
 7575 109d 40000000 		.4byte	.LVL211
 7576 10a1 A12F0000 		.4byte	0x2fa1
 7577 10a5 B1100000 		.4byte	0x10b1
 7578 10a9 0B       		.uleb128 0xb
 7579 10aa 01       		.uleb128 0x1
 7580 10ab 50       		.byte	0x50
 7581 10ac 03       		.uleb128 0x3
 7582 10ad 0A       		.byte	0xa
 7583 10ae 9001     		.2byte	0x190
 7584 10b0 00       		.byte	0
 7585 10b1 0A       		.uleb128 0xa
 7586 10b2 46000000 		.4byte	.LVL212
 7587 10b6 382F0000 		.4byte	0x2f38
 7588 10ba C4100000 		.4byte	0x10c4
 7589 10be 0B       		.uleb128 0xb
 7590 10bf 01       		.uleb128 0x1
 7591 10c0 50       		.byte	0x50
 7592 10c1 01       		.uleb128 0x1
 7593 10c2 35       		.byte	0x35
 7594 10c3 00       		.byte	0
 7595 10c4 0A       		.uleb128 0xa
 7596 10c5 4C000000 		.4byte	.LVL213
 7597 10c9 CD2F0000 		.4byte	0x2fcd
 7598 10cd D7100000 		.4byte	0x10d7
 7599 10d1 0B       		.uleb128 0xb
 7600 10d2 01       		.uleb128 0x1
 7601 10d3 50       		.byte	0x50
 7602 10d4 01       		.uleb128 0x1
 7603 10d5 31       		.byte	0x31
 7604 10d6 00       		.byte	0
 7605 10d7 0C       		.uleb128 0xc
 7606 10d8 50000000 		.4byte	.LVL214
 7607 10dc AA0B0000 		.4byte	0xbaa
 7608 10e0 00       		.byte	0
 7609 10e1 13       		.uleb128 0x13
 7610 10e2 4C454400 		.ascii	"LED\000"
 7611 10e6 04       		.byte	0x4
 7612 10e7 78       		.byte	0x78
 7613 10e8 64000000 		.4byte	0x64
 7614 10ec 00000000 		.4byte	.LFB56
 7615 10f0 64000000 		.4byte	.LFE56-.LFB56
 7616 10f4 01       		.uleb128 0x1
 7617 10f5 9C       		.byte	0x9c
 7618 10f6 01120000 		.4byte	0x1201
 7619 10fa 12       		.uleb128 0x12
 7620 10fb 494400   		.ascii	"ID\000"
 7621 10fe 04       		.byte	0x4
 7622 10ff 78       		.byte	0x78
 7623 1100 33000000 		.4byte	0x33
 7624 1104 4E030000 		.4byte	.LLST29
 7625 1108 08       		.uleb128 0x8
 7626 1109 C9000000 		.4byte	.LASF43
 7627 110d 04       		.byte	0x4
ARM GAS  C:\Users\HENRYA~1\AppData\Local\Temp\cceIRlNf.s 			page 155


 7628 110e 78       		.byte	0x78
 7629 110f 64000000 		.4byte	0x64
 7630 1113 6F030000 		.4byte	.LLST30
 7631 1117 0A       		.uleb128 0xa
 7632 1118 16000000 		.4byte	.LVL217
 7633 111c CD2F0000 		.4byte	0x2fcd
 7634 1120 2A110000 		.4byte	0x112a
 7635 1124 0B       		.uleb128 0xb
 7636 1125 01       		.uleb128 0x1
 7637 1126 50       		.byte	0x50
 7638 1127 01       		.uleb128 0x1
 7639 1128 32       		.byte	0x32
 7640 1129 00       		.byte	0
 7641 112a 0A       		.uleb128 0xa
 7642 112b 1C000000 		.4byte	.LVL218
 7643 112f D82F0000 		.4byte	0x2fd8
 7644 1133 3E110000 		.4byte	0x113e
 7645 1137 0B       		.uleb128 0xb
 7646 1138 01       		.uleb128 0x1
 7647 1139 50       		.byte	0x50
 7648 113a 02       		.uleb128 0x2
 7649 113b 09       		.byte	0x9
 7650 113c FF       		.byte	0xff
 7651 113d 00       		.byte	0
 7652 113e 0A       		.uleb128 0xa
 7653 113f 22000000 		.4byte	.LVL219
 7654 1143 D82F0000 		.4byte	0x2fd8
 7655 1147 52110000 		.4byte	0x1152
 7656 114b 0B       		.uleb128 0xb
 7657 114c 01       		.uleb128 0x1
 7658 114d 50       		.byte	0x50
 7659 114e 02       		.uleb128 0x2
 7660 114f 09       		.byte	0x9
 7661 1150 FF       		.byte	0xff
 7662 1151 00       		.byte	0
 7663 1152 0A       		.uleb128 0xa
 7664 1153 28000000 		.4byte	.LVL220
 7665 1157 D82F0000 		.4byte	0x2fd8
 7666 115b 66110000 		.4byte	0x1166
 7667 115f 0B       		.uleb128 0xb
 7668 1160 01       		.uleb128 0x1
 7669 1161 50       		.byte	0x50
 7670 1162 02       		.uleb128 0x2
 7671 1163 74       		.byte	0x74
 7672 1164 00       		.sleb128 0
 7673 1165 00       		.byte	0
 7674 1166 0A       		.uleb128 0xa
 7675 1167 2E000000 		.4byte	.LVL221
 7676 116b D82F0000 		.4byte	0x2fd8
 7677 116f 79110000 		.4byte	0x1179
 7678 1173 0B       		.uleb128 0xb
 7679 1174 01       		.uleb128 0x1
 7680 1175 50       		.byte	0x50
 7681 1176 01       		.uleb128 0x1
 7682 1177 34       		.byte	0x34
 7683 1178 00       		.byte	0
 7684 1179 0A       		.uleb128 0xa
ARM GAS  C:\Users\HENRYA~1\AppData\Local\Temp\cceIRlNf.s 			page 156


 7685 117a 34000000 		.4byte	.LVL222
 7686 117e D82F0000 		.4byte	0x2fd8
 7687 1182 8C110000 		.4byte	0x118c
 7688 1186 0B       		.uleb128 0xb
 7689 1187 01       		.uleb128 0x1
 7690 1188 50       		.byte	0x50
 7691 1189 01       		.uleb128 0x1
 7692 118a 33       		.byte	0x33
 7693 118b 00       		.byte	0
 7694 118c 0A       		.uleb128 0xa
 7695 118d 3A000000 		.4byte	.LVL223
 7696 1191 D82F0000 		.4byte	0x2fd8
 7697 1195 9F110000 		.4byte	0x119f
 7698 1199 0B       		.uleb128 0xb
 7699 119a 01       		.uleb128 0x1
 7700 119b 50       		.byte	0x50
 7701 119c 01       		.uleb128 0x1
 7702 119d 49       		.byte	0x49
 7703 119e 00       		.byte	0
 7704 119f 0A       		.uleb128 0xa
 7705 11a0 40000000 		.4byte	.LVL224
 7706 11a4 D82F0000 		.4byte	0x2fd8
 7707 11a8 B3110000 		.4byte	0x11b3
 7708 11ac 0B       		.uleb128 0xb
 7709 11ad 01       		.uleb128 0x1
 7710 11ae 50       		.byte	0x50
 7711 11af 02       		.uleb128 0x2
 7712 11b0 75       		.byte	0x75
 7713 11b1 00       		.sleb128 0
 7714 11b2 00       		.byte	0
 7715 11b3 0C       		.uleb128 0xc
 7716 11b4 46000000 		.4byte	.LVL225
 7717 11b8 D82F0000 		.4byte	0x2fd8
 7718 11bc 0A       		.uleb128 0xa
 7719 11bd 4E000000 		.4byte	.LVL226
 7720 11c1 A12F0000 		.4byte	0x2fa1
 7721 11c5 D1110000 		.4byte	0x11d1
 7722 11c9 0B       		.uleb128 0xb
 7723 11ca 01       		.uleb128 0x1
 7724 11cb 50       		.byte	0x50
 7725 11cc 03       		.uleb128 0x3
 7726 11cd 0A       		.byte	0xa
 7727 11ce 9001     		.2byte	0x190
 7728 11d0 00       		.byte	0
 7729 11d1 0A       		.uleb128 0xa
 7730 11d2 54000000 		.4byte	.LVL227
 7731 11d6 382F0000 		.4byte	0x2f38
 7732 11da E4110000 		.4byte	0x11e4
 7733 11de 0B       		.uleb128 0xb
 7734 11df 01       		.uleb128 0x1
 7735 11e0 50       		.byte	0x50
 7736 11e1 01       		.uleb128 0x1
 7737 11e2 35       		.byte	0x35
 7738 11e3 00       		.byte	0
 7739 11e4 0A       		.uleb128 0xa
 7740 11e5 5A000000 		.4byte	.LVL228
 7741 11e9 CD2F0000 		.4byte	0x2fcd
ARM GAS  C:\Users\HENRYA~1\AppData\Local\Temp\cceIRlNf.s 			page 157


 7742 11ed F7110000 		.4byte	0x11f7
 7743 11f1 0B       		.uleb128 0xb
 7744 11f2 01       		.uleb128 0x1
 7745 11f3 50       		.byte	0x50
 7746 11f4 01       		.uleb128 0x1
 7747 11f5 31       		.byte	0x31
 7748 11f6 00       		.byte	0
 7749 11f7 0C       		.uleb128 0xc
 7750 11f8 5E000000 		.4byte	.LVL229
 7751 11fc AA0B0000 		.4byte	0xbaa
 7752 1200 00       		.byte	0
 7753 1201 0D       		.uleb128 0xd
 7754 1202 A5070000 		.4byte	.LASF44
 7755 1206 04       		.byte	0x4
 7756 1207 8C       		.byte	0x8c
 7757 1208 64000000 		.4byte	0x64
 7758 120c 00000000 		.4byte	.LFB57
 7759 1210 70000000 		.4byte	.LFE57-.LFB57
 7760 1214 01       		.uleb128 0x1
 7761 1215 9C       		.byte	0x9c
 7762 1216 53130000 		.4byte	0x1353
 7763 121a 12       		.uleb128 0x12
 7764 121b 494400   		.ascii	"ID\000"
 7765 121e 04       		.byte	0x4
 7766 121f 8C       		.byte	0x8c
 7767 1220 33000000 		.4byte	0x33
 7768 1224 90030000 		.4byte	.LLST31
 7769 1228 08       		.uleb128 0x8
 7770 1229 25040000 		.4byte	.LASF45
 7771 122d 04       		.byte	0x4
 7772 122e 8C       		.byte	0x8c
 7773 122f 64000000 		.4byte	0x64
 7774 1233 B1030000 		.4byte	.LLST32
 7775 1237 0F       		.uleb128 0xf
 7776 1238 B2080000 		.4byte	.LASF46
 7777 123c 04       		.byte	0x4
 7778 123d 8D       		.byte	0x8d
 7779 123e 9D000000 		.4byte	0x9d
 7780 1242 D2030000 		.4byte	.LLST33
 7781 1246 0F       		.uleb128 0xf
 7782 1247 C7080000 		.4byte	.LASF47
 7783 124b 04       		.byte	0x4
 7784 124c 8D       		.byte	0x8d
 7785 124d 9D000000 		.4byte	0x9d
 7786 1251 F5030000 		.4byte	.LLST34
 7787 1255 0A       		.uleb128 0xa
 7788 1256 1C000000 		.4byte	.LVL234
 7789 125a CD2F0000 		.4byte	0x2fcd
 7790 125e 68120000 		.4byte	0x1268
 7791 1262 0B       		.uleb128 0xb
 7792 1263 01       		.uleb128 0x1
 7793 1264 50       		.byte	0x50
 7794 1265 01       		.uleb128 0x1
 7795 1266 32       		.byte	0x32
 7796 1267 00       		.byte	0
 7797 1268 0A       		.uleb128 0xa
 7798 1269 22000000 		.4byte	.LVL235
ARM GAS  C:\Users\HENRYA~1\AppData\Local\Temp\cceIRlNf.s 			page 158


 7799 126d D82F0000 		.4byte	0x2fd8
 7800 1271 7C120000 		.4byte	0x127c
 7801 1275 0B       		.uleb128 0xb
 7802 1276 01       		.uleb128 0x1
 7803 1277 50       		.byte	0x50
 7804 1278 02       		.uleb128 0x2
 7805 1279 09       		.byte	0x9
 7806 127a FF       		.byte	0xff
 7807 127b 00       		.byte	0
 7808 127c 0A       		.uleb128 0xa
 7809 127d 28000000 		.4byte	.LVL236
 7810 1281 D82F0000 		.4byte	0x2fd8
 7811 1285 90120000 		.4byte	0x1290
 7812 1289 0B       		.uleb128 0xb
 7813 128a 01       		.uleb128 0x1
 7814 128b 50       		.byte	0x50
 7815 128c 02       		.uleb128 0x2
 7816 128d 09       		.byte	0x9
 7817 128e FF       		.byte	0xff
 7818 128f 00       		.byte	0
 7819 1290 0A       		.uleb128 0xa
 7820 1291 2E000000 		.4byte	.LVL237
 7821 1295 D82F0000 		.4byte	0x2fd8
 7822 1299 A4120000 		.4byte	0x12a4
 7823 129d 0B       		.uleb128 0xb
 7824 129e 01       		.uleb128 0x1
 7825 129f 50       		.byte	0x50
 7826 12a0 02       		.uleb128 0x2
 7827 12a1 74       		.byte	0x74
 7828 12a2 00       		.sleb128 0
 7829 12a3 00       		.byte	0
 7830 12a4 0A       		.uleb128 0xa
 7831 12a5 34000000 		.4byte	.LVL238
 7832 12a9 D82F0000 		.4byte	0x2fd8
 7833 12ad B7120000 		.4byte	0x12b7
 7834 12b1 0B       		.uleb128 0xb
 7835 12b2 01       		.uleb128 0x1
 7836 12b3 50       		.byte	0x50
 7837 12b4 01       		.uleb128 0x1
 7838 12b5 35       		.byte	0x35
 7839 12b6 00       		.byte	0
 7840 12b7 0A       		.uleb128 0xa
 7841 12b8 3A000000 		.4byte	.LVL239
 7842 12bc D82F0000 		.4byte	0x2fd8
 7843 12c0 CA120000 		.4byte	0x12ca
 7844 12c4 0B       		.uleb128 0xb
 7845 12c5 01       		.uleb128 0x1
 7846 12c6 50       		.byte	0x50
 7847 12c7 01       		.uleb128 0x1
 7848 12c8 33       		.byte	0x33
 7849 12c9 00       		.byte	0
 7850 12ca 0A       		.uleb128 0xa
 7851 12cb 40000000 		.4byte	.LVL240
 7852 12cf D82F0000 		.4byte	0x2fd8
 7853 12d3 DD120000 		.4byte	0x12dd
 7854 12d7 0B       		.uleb128 0xb
 7855 12d8 01       		.uleb128 0x1
ARM GAS  C:\Users\HENRYA~1\AppData\Local\Temp\cceIRlNf.s 			page 159


 7856 12d9 50       		.byte	0x50
 7857 12da 01       		.uleb128 0x1
 7858 12db 4E       		.byte	0x4e
 7859 12dc 00       		.byte	0
 7860 12dd 0A       		.uleb128 0xa
 7861 12de 46000000 		.4byte	.LVL241
 7862 12e2 D82F0000 		.4byte	0x2fd8
 7863 12e6 F1120000 		.4byte	0x12f1
 7864 12ea 0B       		.uleb128 0xb
 7865 12eb 01       		.uleb128 0x1
 7866 12ec 50       		.byte	0x50
 7867 12ed 02       		.uleb128 0x2
 7868 12ee 75       		.byte	0x75
 7869 12ef 00       		.sleb128 0
 7870 12f0 00       		.byte	0
 7871 12f1 0A       		.uleb128 0xa
 7872 12f2 4C000000 		.4byte	.LVL242
 7873 12f6 D82F0000 		.4byte	0x2fd8
 7874 12fa 05130000 		.4byte	0x1305
 7875 12fe 0B       		.uleb128 0xb
 7876 12ff 01       		.uleb128 0x1
 7877 1300 50       		.byte	0x50
 7878 1301 02       		.uleb128 0x2
 7879 1302 76       		.byte	0x76
 7880 1303 00       		.sleb128 0
 7881 1304 00       		.byte	0
 7882 1305 0C       		.uleb128 0xc
 7883 1306 52000000 		.4byte	.LVL243
 7884 130a D82F0000 		.4byte	0x2fd8
 7885 130e 0A       		.uleb128 0xa
 7886 130f 5A000000 		.4byte	.LVL244
 7887 1313 A12F0000 		.4byte	0x2fa1
 7888 1317 23130000 		.4byte	0x1323
 7889 131b 0B       		.uleb128 0xb
 7890 131c 01       		.uleb128 0x1
 7891 131d 50       		.byte	0x50
 7892 131e 03       		.uleb128 0x3
 7893 131f 0A       		.byte	0xa
 7894 1320 9001     		.2byte	0x190
 7895 1322 00       		.byte	0
 7896 1323 0A       		.uleb128 0xa
 7897 1324 60000000 		.4byte	.LVL245
 7898 1328 382F0000 		.4byte	0x2f38
 7899 132c 36130000 		.4byte	0x1336
 7900 1330 0B       		.uleb128 0xb
 7901 1331 01       		.uleb128 0x1
 7902 1332 50       		.byte	0x50
 7903 1333 01       		.uleb128 0x1
 7904 1334 35       		.byte	0x35
 7905 1335 00       		.byte	0
 7906 1336 0A       		.uleb128 0xa
 7907 1337 66000000 		.4byte	.LVL246
 7908 133b CD2F0000 		.4byte	0x2fcd
 7909 133f 49130000 		.4byte	0x1349
 7910 1343 0B       		.uleb128 0xb
 7911 1344 01       		.uleb128 0x1
 7912 1345 50       		.byte	0x50
ARM GAS  C:\Users\HENRYA~1\AppData\Local\Temp\cceIRlNf.s 			page 160


 7913 1346 01       		.uleb128 0x1
 7914 1347 31       		.byte	0x31
 7915 1348 00       		.byte	0
 7916 1349 0C       		.uleb128 0xc
 7917 134a 6A000000 		.4byte	.LVL247
 7918 134e AA0B0000 		.4byte	0xbaa
 7919 1352 00       		.byte	0
 7920 1353 0D       		.uleb128 0xd
 7921 1354 83070000 		.4byte	.LASF48
 7922 1358 04       		.byte	0x4
 7923 1359 A3       		.byte	0xa3
 7924 135a 64000000 		.4byte	0x64
 7925 135e 00000000 		.4byte	.LFB58
 7926 1362 C0000000 		.4byte	.LFE58-.LFB58
 7927 1366 01       		.uleb128 0x1
 7928 1367 9C       		.byte	0x9c
 7929 1368 6A150000 		.4byte	0x156a
 7930 136c 12       		.uleb128 0x12
 7931 136d 494400   		.ascii	"ID\000"
 7932 1370 04       		.byte	0x4
 7933 1371 A3       		.byte	0xa3
 7934 1372 33000000 		.4byte	0x33
 7935 1376 16040000 		.4byte	.LLST35
 7936 137a 08       		.uleb128 0x8
 7937 137b C9000000 		.4byte	.LASF43
 7938 137f 04       		.byte	0x4
 7939 1380 A3       		.byte	0xa3
 7940 1381 64000000 		.4byte	0x64
 7941 1385 50040000 		.4byte	.LLST36
 7942 1389 12       		.uleb128 0x12
 7943 138a 72616700 		.ascii	"rag\000"
 7944 138e 04       		.byte	0x4
 7945 138f A3       		.byte	0xa3
 7946 1390 64000000 		.4byte	0x64
 7947 1394 8A040000 		.4byte	.LLST37
 7948 1398 0A       		.uleb128 0xa
 7949 1399 18000000 		.4byte	.LVL252
 7950 139d CD2F0000 		.4byte	0x2fcd
 7951 13a1 AB130000 		.4byte	0x13ab
 7952 13a5 0B       		.uleb128 0xb
 7953 13a6 01       		.uleb128 0x1
 7954 13a7 50       		.byte	0x50
 7955 13a8 01       		.uleb128 0x1
 7956 13a9 32       		.byte	0x32
 7957 13aa 00       		.byte	0
 7958 13ab 0A       		.uleb128 0xa
 7959 13ac 1E000000 		.4byte	.LVL253
 7960 13b0 D82F0000 		.4byte	0x2fd8
 7961 13b4 BF130000 		.4byte	0x13bf
 7962 13b8 0B       		.uleb128 0xb
 7963 13b9 01       		.uleb128 0x1
 7964 13ba 50       		.byte	0x50
 7965 13bb 02       		.uleb128 0x2
 7966 13bc 09       		.byte	0x9
 7967 13bd FF       		.byte	0xff
 7968 13be 00       		.byte	0
 7969 13bf 0A       		.uleb128 0xa
ARM GAS  C:\Users\HENRYA~1\AppData\Local\Temp\cceIRlNf.s 			page 161


 7970 13c0 24000000 		.4byte	.LVL254
 7971 13c4 D82F0000 		.4byte	0x2fd8
 7972 13c8 D3130000 		.4byte	0x13d3
 7973 13cc 0B       		.uleb128 0xb
 7974 13cd 01       		.uleb128 0x1
 7975 13ce 50       		.byte	0x50
 7976 13cf 02       		.uleb128 0x2
 7977 13d0 09       		.byte	0x9
 7978 13d1 FF       		.byte	0xff
 7979 13d2 00       		.byte	0
 7980 13d3 0A       		.uleb128 0xa
 7981 13d4 2A000000 		.4byte	.LVL255
 7982 13d8 D82F0000 		.4byte	0x2fd8
 7983 13dc E7130000 		.4byte	0x13e7
 7984 13e0 0B       		.uleb128 0xb
 7985 13e1 01       		.uleb128 0x1
 7986 13e2 50       		.byte	0x50
 7987 13e3 02       		.uleb128 0x2
 7988 13e4 74       		.byte	0x74
 7989 13e5 00       		.sleb128 0
 7990 13e6 00       		.byte	0
 7991 13e7 0A       		.uleb128 0xa
 7992 13e8 30000000 		.4byte	.LVL256
 7993 13ec D82F0000 		.4byte	0x2fd8
 7994 13f0 FA130000 		.4byte	0x13fa
 7995 13f4 0B       		.uleb128 0xb
 7996 13f5 01       		.uleb128 0x1
 7997 13f6 50       		.byte	0x50
 7998 13f7 01       		.uleb128 0x1
 7999 13f8 35       		.byte	0x35
 8000 13f9 00       		.byte	0
 8001 13fa 0A       		.uleb128 0xa
 8002 13fb 36000000 		.4byte	.LVL257
 8003 13ff D82F0000 		.4byte	0x2fd8
 8004 1403 0D140000 		.4byte	0x140d
 8005 1407 0B       		.uleb128 0xb
 8006 1408 01       		.uleb128 0x1
 8007 1409 50       		.byte	0x50
 8008 140a 01       		.uleb128 0x1
 8009 140b 33       		.byte	0x33
 8010 140c 00       		.byte	0
 8011 140d 0A       		.uleb128 0xa
 8012 140e 3C000000 		.4byte	.LVL258
 8013 1412 D82F0000 		.4byte	0x2fd8
 8014 1416 20140000 		.4byte	0x1420
 8015 141a 0B       		.uleb128 0xb
 8016 141b 01       		.uleb128 0x1
 8017 141c 50       		.byte	0x50
 8018 141d 01       		.uleb128 0x1
 8019 141e 38       		.byte	0x38
 8020 141f 00       		.byte	0
 8021 1420 0C       		.uleb128 0xc
 8022 1421 42000000 		.4byte	.LVL259
 8023 1425 D82F0000 		.4byte	0x2fd8
 8024 1429 0A       		.uleb128 0xa
 8025 142a 4A000000 		.4byte	.LVL260
 8026 142e A12F0000 		.4byte	0x2fa1
ARM GAS  C:\Users\HENRYA~1\AppData\Local\Temp\cceIRlNf.s 			page 162


 8027 1432 3E140000 		.4byte	0x143e
 8028 1436 0B       		.uleb128 0xb
 8029 1437 01       		.uleb128 0x1
 8030 1438 50       		.byte	0x50
 8031 1439 03       		.uleb128 0x3
 8032 143a 0A       		.byte	0xa
 8033 143b 9001     		.2byte	0x190
 8034 143d 00       		.byte	0
 8035 143e 0A       		.uleb128 0xa
 8036 143f 50000000 		.4byte	.LVL261
 8037 1443 382F0000 		.4byte	0x2f38
 8038 1447 51140000 		.4byte	0x1451
 8039 144b 0B       		.uleb128 0xb
 8040 144c 01       		.uleb128 0x1
 8041 144d 50       		.byte	0x50
 8042 144e 01       		.uleb128 0x1
 8043 144f 35       		.byte	0x35
 8044 1450 00       		.byte	0
 8045 1451 0A       		.uleb128 0xa
 8046 1452 56000000 		.4byte	.LVL262
 8047 1456 CD2F0000 		.4byte	0x2fcd
 8048 145a 64140000 		.4byte	0x1464
 8049 145e 0B       		.uleb128 0xb
 8050 145f 01       		.uleb128 0x1
 8051 1460 50       		.byte	0x50
 8052 1461 01       		.uleb128 0x1
 8053 1462 31       		.byte	0x31
 8054 1463 00       		.byte	0
 8055 1464 0C       		.uleb128 0xc
 8056 1465 5A000000 		.4byte	.LVL263
 8057 1469 AA0B0000 		.4byte	0xbaa
 8058 146d 0A       		.uleb128 0xa
 8059 146e 6C000000 		.4byte	.LVL266
 8060 1472 CD2F0000 		.4byte	0x2fcd
 8061 1476 80140000 		.4byte	0x1480
 8062 147a 0B       		.uleb128 0xb
 8063 147b 01       		.uleb128 0x1
 8064 147c 50       		.byte	0x50
 8065 147d 01       		.uleb128 0x1
 8066 147e 32       		.byte	0x32
 8067 147f 00       		.byte	0
 8068 1480 0A       		.uleb128 0xa
 8069 1481 72000000 		.4byte	.LVL267
 8070 1485 D82F0000 		.4byte	0x2fd8
 8071 1489 94140000 		.4byte	0x1494
 8072 148d 0B       		.uleb128 0xb
 8073 148e 01       		.uleb128 0x1
 8074 148f 50       		.byte	0x50
 8075 1490 02       		.uleb128 0x2
 8076 1491 09       		.byte	0x9
 8077 1492 FF       		.byte	0xff
 8078 1493 00       		.byte	0
 8079 1494 0A       		.uleb128 0xa
 8080 1495 78000000 		.4byte	.LVL268
 8081 1499 D82F0000 		.4byte	0x2fd8
 8082 149d A8140000 		.4byte	0x14a8
 8083 14a1 0B       		.uleb128 0xb
ARM GAS  C:\Users\HENRYA~1\AppData\Local\Temp\cceIRlNf.s 			page 163


 8084 14a2 01       		.uleb128 0x1
 8085 14a3 50       		.byte	0x50
 8086 14a4 02       		.uleb128 0x2
 8087 14a5 09       		.byte	0x9
 8088 14a6 FF       		.byte	0xff
 8089 14a7 00       		.byte	0
 8090 14a8 0A       		.uleb128 0xa
 8091 14a9 7E000000 		.4byte	.LVL269
 8092 14ad D82F0000 		.4byte	0x2fd8
 8093 14b1 BC140000 		.4byte	0x14bc
 8094 14b5 0B       		.uleb128 0xb
 8095 14b6 01       		.uleb128 0x1
 8096 14b7 50       		.byte	0x50
 8097 14b8 02       		.uleb128 0x2
 8098 14b9 74       		.byte	0x74
 8099 14ba 00       		.sleb128 0
 8100 14bb 00       		.byte	0
 8101 14bc 0A       		.uleb128 0xa
 8102 14bd 84000000 		.4byte	.LVL270
 8103 14c1 D82F0000 		.4byte	0x2fd8
 8104 14c5 CF140000 		.4byte	0x14cf
 8105 14c9 0B       		.uleb128 0xb
 8106 14ca 01       		.uleb128 0x1
 8107 14cb 50       		.byte	0x50
 8108 14cc 01       		.uleb128 0x1
 8109 14cd 35       		.byte	0x35
 8110 14ce 00       		.byte	0
 8111 14cf 0A       		.uleb128 0xa
 8112 14d0 8A000000 		.4byte	.LVL271
 8113 14d4 D82F0000 		.4byte	0x2fd8
 8114 14d8 E2140000 		.4byte	0x14e2
 8115 14dc 0B       		.uleb128 0xb
 8116 14dd 01       		.uleb128 0x1
 8117 14de 50       		.byte	0x50
 8118 14df 01       		.uleb128 0x1
 8119 14e0 33       		.byte	0x33
 8120 14e1 00       		.byte	0
 8121 14e2 0A       		.uleb128 0xa
 8122 14e3 90000000 		.4byte	.LVL272
 8123 14e7 D82F0000 		.4byte	0x2fd8
 8124 14eb F5140000 		.4byte	0x14f5
 8125 14ef 0B       		.uleb128 0xb
 8126 14f0 01       		.uleb128 0x1
 8127 14f1 50       		.byte	0x50
 8128 14f2 01       		.uleb128 0x1
 8129 14f3 38       		.byte	0x38
 8130 14f4 00       		.byte	0
 8131 14f5 0A       		.uleb128 0xa
 8132 14f6 96000000 		.4byte	.LVL273
 8133 14fa D82F0000 		.4byte	0x2fd8
 8134 14fe 09150000 		.4byte	0x1509
 8135 1502 0B       		.uleb128 0xb
 8136 1503 01       		.uleb128 0x1
 8137 1504 50       		.byte	0x50
 8138 1505 02       		.uleb128 0x2
 8139 1506 09       		.byte	0x9
 8140 1507 FF       		.byte	0xff
ARM GAS  C:\Users\HENRYA~1\AppData\Local\Temp\cceIRlNf.s 			page 164


 8141 1508 00       		.byte	0
 8142 1509 0A       		.uleb128 0xa
 8143 150a 9C000000 		.4byte	.LVL274
 8144 150e D82F0000 		.4byte	0x2fd8
 8145 1512 1C150000 		.4byte	0x151c
 8146 1516 0B       		.uleb128 0xb
 8147 1517 01       		.uleb128 0x1
 8148 1518 50       		.byte	0x50
 8149 1519 01       		.uleb128 0x1
 8150 151a 33       		.byte	0x33
 8151 151b 00       		.byte	0
 8152 151c 0C       		.uleb128 0xc
 8153 151d A2000000 		.4byte	.LVL275
 8154 1521 D82F0000 		.4byte	0x2fd8
 8155 1525 0A       		.uleb128 0xa
 8156 1526 AA000000 		.4byte	.LVL276
 8157 152a A12F0000 		.4byte	0x2fa1
 8158 152e 3A150000 		.4byte	0x153a
 8159 1532 0B       		.uleb128 0xb
 8160 1533 01       		.uleb128 0x1
 8161 1534 50       		.byte	0x50
 8162 1535 03       		.uleb128 0x3
 8163 1536 0A       		.byte	0xa
 8164 1537 9001     		.2byte	0x190
 8165 1539 00       		.byte	0
 8166 153a 0A       		.uleb128 0xa
 8167 153b B0000000 		.4byte	.LVL277
 8168 153f 382F0000 		.4byte	0x2f38
 8169 1543 4D150000 		.4byte	0x154d
 8170 1547 0B       		.uleb128 0xb
 8171 1548 01       		.uleb128 0x1
 8172 1549 50       		.byte	0x50
 8173 154a 01       		.uleb128 0x1
 8174 154b 35       		.byte	0x35
 8175 154c 00       		.byte	0
 8176 154d 0A       		.uleb128 0xa
 8177 154e B6000000 		.4byte	.LVL278
 8178 1552 CD2F0000 		.4byte	0x2fcd
 8179 1556 60150000 		.4byte	0x1560
 8180 155a 0B       		.uleb128 0xb
 8181 155b 01       		.uleb128 0x1
 8182 155c 50       		.byte	0x50
 8183 155d 01       		.uleb128 0x1
 8184 155e 31       		.byte	0x31
 8185 155f 00       		.byte	0
 8186 1560 0C       		.uleb128 0xc
 8187 1561 BA000000 		.4byte	.LVL279
 8188 1565 AA0B0000 		.4byte	0xbaa
 8189 1569 00       		.byte	0
 8190 156a 0D       		.uleb128 0xd
 8191 156b 33040000 		.4byte	.LASF49
 8192 156f 04       		.byte	0x4
 8193 1570 CB       		.byte	0xcb
 8194 1571 64000000 		.4byte	0x64
 8195 1575 00000000 		.4byte	.LFB59
 8196 1579 64000000 		.4byte	.LFE59-.LFB59
 8197 157d 01       		.uleb128 0x1
ARM GAS  C:\Users\HENRYA~1\AppData\Local\Temp\cceIRlNf.s 			page 165


 8198 157e 9C       		.byte	0x9c
 8199 157f 8A160000 		.4byte	0x168a
 8200 1583 12       		.uleb128 0x12
 8201 1584 494400   		.ascii	"ID\000"
 8202 1587 04       		.byte	0x4
 8203 1588 CB       		.byte	0xcb
 8204 1589 33000000 		.4byte	0x33
 8205 158d C4040000 		.4byte	.LLST38
 8206 1591 08       		.uleb128 0x8
 8207 1592 C9000000 		.4byte	.LASF43
 8208 1596 04       		.byte	0x4
 8209 1597 CB       		.byte	0xcb
 8210 1598 64000000 		.4byte	0x64
 8211 159c E5040000 		.4byte	.LLST39
 8212 15a0 0A       		.uleb128 0xa
 8213 15a1 16000000 		.4byte	.LVL282
 8214 15a5 CD2F0000 		.4byte	0x2fcd
 8215 15a9 B3150000 		.4byte	0x15b3
 8216 15ad 0B       		.uleb128 0xb
 8217 15ae 01       		.uleb128 0x1
 8218 15af 50       		.byte	0x50
 8219 15b0 01       		.uleb128 0x1
 8220 15b1 32       		.byte	0x32
 8221 15b2 00       		.byte	0
 8222 15b3 0A       		.uleb128 0xa
 8223 15b4 1C000000 		.4byte	.LVL283
 8224 15b8 D82F0000 		.4byte	0x2fd8
 8225 15bc C7150000 		.4byte	0x15c7
 8226 15c0 0B       		.uleb128 0xb
 8227 15c1 01       		.uleb128 0x1
 8228 15c2 50       		.byte	0x50
 8229 15c3 02       		.uleb128 0x2
 8230 15c4 09       		.byte	0x9
 8231 15c5 FF       		.byte	0xff
 8232 15c6 00       		.byte	0
 8233 15c7 0A       		.uleb128 0xa
 8234 15c8 22000000 		.4byte	.LVL284
 8235 15cc D82F0000 		.4byte	0x2fd8
 8236 15d0 DB150000 		.4byte	0x15db
 8237 15d4 0B       		.uleb128 0xb
 8238 15d5 01       		.uleb128 0x1
 8239 15d6 50       		.byte	0x50
 8240 15d7 02       		.uleb128 0x2
 8241 15d8 09       		.byte	0x9
 8242 15d9 FF       		.byte	0xff
 8243 15da 00       		.byte	0
 8244 15db 0A       		.uleb128 0xa
 8245 15dc 28000000 		.4byte	.LVL285
 8246 15e0 D82F0000 		.4byte	0x2fd8
 8247 15e4 EF150000 		.4byte	0x15ef
 8248 15e8 0B       		.uleb128 0xb
 8249 15e9 01       		.uleb128 0x1
 8250 15ea 50       		.byte	0x50
 8251 15eb 02       		.uleb128 0x2
 8252 15ec 74       		.byte	0x74
 8253 15ed 00       		.sleb128 0
 8254 15ee 00       		.byte	0
ARM GAS  C:\Users\HENRYA~1\AppData\Local\Temp\cceIRlNf.s 			page 166


 8255 15ef 0A       		.uleb128 0xa
 8256 15f0 2E000000 		.4byte	.LVL286
 8257 15f4 D82F0000 		.4byte	0x2fd8
 8258 15f8 02160000 		.4byte	0x1602
 8259 15fc 0B       		.uleb128 0xb
 8260 15fd 01       		.uleb128 0x1
 8261 15fe 50       		.byte	0x50
 8262 15ff 01       		.uleb128 0x1
 8263 1600 34       		.byte	0x34
 8264 1601 00       		.byte	0
 8265 1602 0A       		.uleb128 0xa
 8266 1603 34000000 		.4byte	.LVL287
 8267 1607 D82F0000 		.4byte	0x2fd8
 8268 160b 15160000 		.4byte	0x1615
 8269 160f 0B       		.uleb128 0xb
 8270 1610 01       		.uleb128 0x1
 8271 1611 50       		.byte	0x50
 8272 1612 01       		.uleb128 0x1
 8273 1613 33       		.byte	0x33
 8274 1614 00       		.byte	0
 8275 1615 0A       		.uleb128 0xa
 8276 1616 3A000000 		.4byte	.LVL288
 8277 161a D82F0000 		.4byte	0x2fd8
 8278 161e 28160000 		.4byte	0x1628
 8279 1622 0B       		.uleb128 0xb
 8280 1623 01       		.uleb128 0x1
 8281 1624 50       		.byte	0x50
 8282 1625 01       		.uleb128 0x1
 8283 1626 48       		.byte	0x48
 8284 1627 00       		.byte	0
 8285 1628 0A       		.uleb128 0xa
 8286 1629 40000000 		.4byte	.LVL289
 8287 162d D82F0000 		.4byte	0x2fd8
 8288 1631 3C160000 		.4byte	0x163c
 8289 1635 0B       		.uleb128 0xb
 8290 1636 01       		.uleb128 0x1
 8291 1637 50       		.byte	0x50
 8292 1638 02       		.uleb128 0x2
 8293 1639 75       		.byte	0x75
 8294 163a 00       		.sleb128 0
 8295 163b 00       		.byte	0
 8296 163c 0C       		.uleb128 0xc
 8297 163d 46000000 		.4byte	.LVL290
 8298 1641 D82F0000 		.4byte	0x2fd8
 8299 1645 0A       		.uleb128 0xa
 8300 1646 4E000000 		.4byte	.LVL291
 8301 164a A12F0000 		.4byte	0x2fa1
 8302 164e 5A160000 		.4byte	0x165a
 8303 1652 0B       		.uleb128 0xb
 8304 1653 01       		.uleb128 0x1
 8305 1654 50       		.byte	0x50
 8306 1655 03       		.uleb128 0x3
 8307 1656 0A       		.byte	0xa
 8308 1657 9001     		.2byte	0x190
 8309 1659 00       		.byte	0
 8310 165a 0A       		.uleb128 0xa
 8311 165b 54000000 		.4byte	.LVL292
ARM GAS  C:\Users\HENRYA~1\AppData\Local\Temp\cceIRlNf.s 			page 167


 8312 165f 382F0000 		.4byte	0x2f38
 8313 1663 6D160000 		.4byte	0x166d
 8314 1667 0B       		.uleb128 0xb
 8315 1668 01       		.uleb128 0x1
 8316 1669 50       		.byte	0x50
 8317 166a 01       		.uleb128 0x1
 8318 166b 35       		.byte	0x35
 8319 166c 00       		.byte	0
 8320 166d 0A       		.uleb128 0xa
 8321 166e 5A000000 		.4byte	.LVL293
 8322 1672 CD2F0000 		.4byte	0x2fcd
 8323 1676 80160000 		.4byte	0x1680
 8324 167a 0B       		.uleb128 0xb
 8325 167b 01       		.uleb128 0x1
 8326 167c 50       		.byte	0x50
 8327 167d 01       		.uleb128 0x1
 8328 167e 31       		.byte	0x31
 8329 167f 00       		.byte	0
 8330 1680 0C       		.uleb128 0xc
 8331 1681 5E000000 		.4byte	.LVL294
 8332 1685 AA0B0000 		.4byte	0xbaa
 8333 1689 00       		.byte	0
 8334 168a 0D       		.uleb128 0xd
 8335 168b 58070000 		.4byte	.LASF50
 8336 168f 04       		.byte	0x4
 8337 1690 DF       		.byte	0xdf
 8338 1691 64000000 		.4byte	0x64
 8339 1695 00000000 		.4byte	.LFB60
 8340 1699 94000000 		.4byte	.LFE60-.LFB60
 8341 169d 01       		.uleb128 0x1
 8342 169e 9C       		.byte	0x9c
 8343 169f 33180000 		.4byte	0x1833
 8344 16a3 12       		.uleb128 0x12
 8345 16a4 494400   		.ascii	"ID\000"
 8346 16a7 04       		.byte	0x4
 8347 16a8 DF       		.byte	0xdf
 8348 16a9 33000000 		.4byte	0x33
 8349 16ad 06050000 		.4byte	.LLST40
 8350 16b1 08       		.uleb128 0x8
 8351 16b2 25040000 		.4byte	.LASF45
 8352 16b6 04       		.byte	0x4
 8353 16b7 DF       		.byte	0xdf
 8354 16b8 64000000 		.4byte	0x64
 8355 16bc 27050000 		.4byte	.LLST41
 8356 16c0 08       		.uleb128 0x8
 8357 16c1 74040000 		.4byte	.LASF51
 8358 16c5 04       		.byte	0x4
 8359 16c6 DF       		.byte	0xdf
 8360 16c7 64000000 		.4byte	0x64
 8361 16cb 48050000 		.4byte	.LLST42
 8362 16cf 0F       		.uleb128 0xf
 8363 16d0 B2080000 		.4byte	.LASF46
 8364 16d4 04       		.byte	0x4
 8365 16d5 E0       		.byte	0xe0
 8366 16d6 9D000000 		.4byte	0x9d
 8367 16da 69050000 		.4byte	.LLST43
 8368 16de 0F       		.uleb128 0xf
ARM GAS  C:\Users\HENRYA~1\AppData\Local\Temp\cceIRlNf.s 			page 168


 8369 16df C7080000 		.4byte	.LASF47
 8370 16e3 04       		.byte	0x4
 8371 16e4 E0       		.byte	0xe0
 8372 16e5 9D000000 		.4byte	0x9d
 8373 16e9 8C050000 		.4byte	.LLST44
 8374 16ed 0F       		.uleb128 0xf
 8375 16ee C9050000 		.4byte	.LASF52
 8376 16f2 04       		.byte	0x4
 8377 16f3 E0       		.byte	0xe0
 8378 16f4 9D000000 		.4byte	0x9d
 8379 16f8 AD050000 		.4byte	.LLST45
 8380 16fc 0F       		.uleb128 0xf
 8381 16fd D1050000 		.4byte	.LASF53
 8382 1701 04       		.byte	0x4
 8383 1702 E0       		.byte	0xe0
 8384 1703 9D000000 		.4byte	0x9d
 8385 1707 D0050000 		.4byte	.LLST46
 8386 170b 0A       		.uleb128 0xa
 8387 170c 2E000000 		.4byte	.LVL301
 8388 1710 CD2F0000 		.4byte	0x2fcd
 8389 1714 1E170000 		.4byte	0x171e
 8390 1718 0B       		.uleb128 0xb
 8391 1719 01       		.uleb128 0x1
 8392 171a 50       		.byte	0x50
 8393 171b 01       		.uleb128 0x1
 8394 171c 32       		.byte	0x32
 8395 171d 00       		.byte	0
 8396 171e 0A       		.uleb128 0xa
 8397 171f 34000000 		.4byte	.LVL302
 8398 1723 D82F0000 		.4byte	0x2fd8
 8399 1727 32170000 		.4byte	0x1732
 8400 172b 0B       		.uleb128 0xb
 8401 172c 01       		.uleb128 0x1
 8402 172d 50       		.byte	0x50
 8403 172e 02       		.uleb128 0x2
 8404 172f 09       		.byte	0x9
 8405 1730 FF       		.byte	0xff
 8406 1731 00       		.byte	0
 8407 1732 0A       		.uleb128 0xa
 8408 1733 3A000000 		.4byte	.LVL303
 8409 1737 D82F0000 		.4byte	0x2fd8
 8410 173b 46170000 		.4byte	0x1746
 8411 173f 0B       		.uleb128 0xb
 8412 1740 01       		.uleb128 0x1
 8413 1741 50       		.byte	0x50
 8414 1742 02       		.uleb128 0x2
 8415 1743 09       		.byte	0x9
 8416 1744 FF       		.byte	0xff
 8417 1745 00       		.byte	0
 8418 1746 0A       		.uleb128 0xa
 8419 1747 40000000 		.4byte	.LVL304
 8420 174b D82F0000 		.4byte	0x2fd8
 8421 174f 5C170000 		.4byte	0x175c
 8422 1753 0B       		.uleb128 0xb
 8423 1754 01       		.uleb128 0x1
 8424 1755 50       		.byte	0x50
 8425 1756 04       		.uleb128 0x4
ARM GAS  C:\Users\HENRYA~1\AppData\Local\Temp\cceIRlNf.s 			page 169


 8426 1757 91       		.byte	0x91
 8427 1758 64       		.sleb128 -28
 8428 1759 94       		.byte	0x94
 8429 175a 01       		.byte	0x1
 8430 175b 00       		.byte	0
 8431 175c 0A       		.uleb128 0xa
 8432 175d 46000000 		.4byte	.LVL305
 8433 1761 D82F0000 		.4byte	0x2fd8
 8434 1765 6F170000 		.4byte	0x176f
 8435 1769 0B       		.uleb128 0xb
 8436 176a 01       		.uleb128 0x1
 8437 176b 50       		.byte	0x50
 8438 176c 01       		.uleb128 0x1
 8439 176d 37       		.byte	0x37
 8440 176e 00       		.byte	0
 8441 176f 0A       		.uleb128 0xa
 8442 1770 4C000000 		.4byte	.LVL306
 8443 1774 D82F0000 		.4byte	0x2fd8
 8444 1778 82170000 		.4byte	0x1782
 8445 177c 0B       		.uleb128 0xb
 8446 177d 01       		.uleb128 0x1
 8447 177e 50       		.byte	0x50
 8448 177f 01       		.uleb128 0x1
 8449 1780 33       		.byte	0x33
 8450 1781 00       		.byte	0
 8451 1782 0A       		.uleb128 0xa
 8452 1783 52000000 		.4byte	.LVL307
 8453 1787 D82F0000 		.4byte	0x2fd8
 8454 178b 95170000 		.4byte	0x1795
 8455 178f 0B       		.uleb128 0xb
 8456 1790 01       		.uleb128 0x1
 8457 1791 50       		.byte	0x50
 8458 1792 01       		.uleb128 0x1
 8459 1793 4E       		.byte	0x4e
 8460 1794 00       		.byte	0
 8461 1795 0A       		.uleb128 0xa
 8462 1796 58000000 		.4byte	.LVL308
 8463 179a D82F0000 		.4byte	0x2fd8
 8464 179e A9170000 		.4byte	0x17a9
 8465 17a2 0B       		.uleb128 0xb
 8466 17a3 01       		.uleb128 0x1
 8467 17a4 50       		.byte	0x50
 8468 17a5 02       		.uleb128 0x2
 8469 17a6 76       		.byte	0x76
 8470 17a7 00       		.sleb128 0
 8471 17a8 00       		.byte	0
 8472 17a9 0A       		.uleb128 0xa
 8473 17aa 5E000000 		.4byte	.LVL309
 8474 17ae D82F0000 		.4byte	0x2fd8
 8475 17b2 BD170000 		.4byte	0x17bd
 8476 17b6 0B       		.uleb128 0xb
 8477 17b7 01       		.uleb128 0x1
 8478 17b8 50       		.byte	0x50
 8479 17b9 02       		.uleb128 0x2
 8480 17ba 78       		.byte	0x78
 8481 17bb 00       		.sleb128 0
 8482 17bc 00       		.byte	0
ARM GAS  C:\Users\HENRYA~1\AppData\Local\Temp\cceIRlNf.s 			page 170


 8483 17bd 0A       		.uleb128 0xa
 8484 17be 64000000 		.4byte	.LVL310
 8485 17c2 D82F0000 		.4byte	0x2fd8
 8486 17c6 D1170000 		.4byte	0x17d1
 8487 17ca 0B       		.uleb128 0xb
 8488 17cb 01       		.uleb128 0x1
 8489 17cc 50       		.byte	0x50
 8490 17cd 02       		.uleb128 0x2
 8491 17ce 74       		.byte	0x74
 8492 17cf 00       		.sleb128 0
 8493 17d0 00       		.byte	0
 8494 17d1 0A       		.uleb128 0xa
 8495 17d2 6A000000 		.4byte	.LVL311
 8496 17d6 D82F0000 		.4byte	0x2fd8
 8497 17da E5170000 		.4byte	0x17e5
 8498 17de 0B       		.uleb128 0xb
 8499 17df 01       		.uleb128 0x1
 8500 17e0 50       		.byte	0x50
 8501 17e1 02       		.uleb128 0x2
 8502 17e2 77       		.byte	0x77
 8503 17e3 00       		.sleb128 0
 8504 17e4 00       		.byte	0
 8505 17e5 0C       		.uleb128 0xc
 8506 17e6 70000000 		.4byte	.LVL312
 8507 17ea D82F0000 		.4byte	0x2fd8
 8508 17ee 0A       		.uleb128 0xa
 8509 17ef 78000000 		.4byte	.LVL313
 8510 17f3 A12F0000 		.4byte	0x2fa1
 8511 17f7 03180000 		.4byte	0x1803
 8512 17fb 0B       		.uleb128 0xb
 8513 17fc 01       		.uleb128 0x1
 8514 17fd 50       		.byte	0x50
 8515 17fe 03       		.uleb128 0x3
 8516 17ff 0A       		.byte	0xa
 8517 1800 9001     		.2byte	0x190
 8518 1802 00       		.byte	0
 8519 1803 0A       		.uleb128 0xa
 8520 1804 7E000000 		.4byte	.LVL314
 8521 1808 382F0000 		.4byte	0x2f38
 8522 180c 16180000 		.4byte	0x1816
 8523 1810 0B       		.uleb128 0xb
 8524 1811 01       		.uleb128 0x1
 8525 1812 50       		.byte	0x50
 8526 1813 01       		.uleb128 0x1
 8527 1814 35       		.byte	0x35
 8528 1815 00       		.byte	0
 8529 1816 0A       		.uleb128 0xa
 8530 1817 84000000 		.4byte	.LVL315
 8531 181b CD2F0000 		.4byte	0x2fcd
 8532 181f 29180000 		.4byte	0x1829
 8533 1823 0B       		.uleb128 0xb
 8534 1824 01       		.uleb128 0x1
 8535 1825 50       		.byte	0x50
 8536 1826 01       		.uleb128 0x1
 8537 1827 31       		.byte	0x31
 8538 1828 00       		.byte	0
 8539 1829 0C       		.uleb128 0xc
ARM GAS  C:\Users\HENRYA~1\AppData\Local\Temp\cceIRlNf.s 			page 171


 8540 182a 88000000 		.4byte	.LVL316
 8541 182e AA0B0000 		.4byte	0xbaa
 8542 1832 00       		.byte	0
 8543 1833 0D       		.uleb128 0xd
 8544 1834 56040000 		.4byte	.LASF54
 8545 1838 04       		.byte	0x4
 8546 1839 FC       		.byte	0xfc
 8547 183a 64000000 		.4byte	0x64
 8548 183e 00000000 		.4byte	.LFB61
 8549 1842 70000000 		.4byte	.LFE61-.LFB61
 8550 1846 01       		.uleb128 0x1
 8551 1847 9C       		.byte	0x9c
 8552 1848 85190000 		.4byte	0x1985
 8553 184c 12       		.uleb128 0x12
 8554 184d 494400   		.ascii	"ID\000"
 8555 1850 04       		.byte	0x4
 8556 1851 FC       		.byte	0xfc
 8557 1852 33000000 		.4byte	0x33
 8558 1856 F1050000 		.4byte	.LLST47
 8559 185a 08       		.uleb128 0x8
 8560 185b 25040000 		.4byte	.LASF45
 8561 185f 04       		.byte	0x4
 8562 1860 FC       		.byte	0xfc
 8563 1861 64000000 		.4byte	0x64
 8564 1865 12060000 		.4byte	.LLST48
 8565 1869 0F       		.uleb128 0xf
 8566 186a B2080000 		.4byte	.LASF46
 8567 186e 04       		.byte	0x4
 8568 186f FD       		.byte	0xfd
 8569 1870 9D000000 		.4byte	0x9d
 8570 1874 33060000 		.4byte	.LLST49
 8571 1878 0F       		.uleb128 0xf
 8572 1879 C7080000 		.4byte	.LASF47
 8573 187d 04       		.byte	0x4
 8574 187e FD       		.byte	0xfd
 8575 187f 9D000000 		.4byte	0x9d
 8576 1883 56060000 		.4byte	.LLST50
 8577 1887 0A       		.uleb128 0xa
 8578 1888 1C000000 		.4byte	.LVL325
 8579 188c CD2F0000 		.4byte	0x2fcd
 8580 1890 9A180000 		.4byte	0x189a
 8581 1894 0B       		.uleb128 0xb
 8582 1895 01       		.uleb128 0x1
 8583 1896 50       		.byte	0x50
 8584 1897 01       		.uleb128 0x1
 8585 1898 32       		.byte	0x32
 8586 1899 00       		.byte	0
 8587 189a 0A       		.uleb128 0xa
 8588 189b 22000000 		.4byte	.LVL326
 8589 189f D82F0000 		.4byte	0x2fd8
 8590 18a3 AE180000 		.4byte	0x18ae
 8591 18a7 0B       		.uleb128 0xb
 8592 18a8 01       		.uleb128 0x1
 8593 18a9 50       		.byte	0x50
 8594 18aa 02       		.uleb128 0x2
 8595 18ab 09       		.byte	0x9
 8596 18ac FF       		.byte	0xff
ARM GAS  C:\Users\HENRYA~1\AppData\Local\Temp\cceIRlNf.s 			page 172


 8597 18ad 00       		.byte	0
 8598 18ae 0A       		.uleb128 0xa
 8599 18af 28000000 		.4byte	.LVL327
 8600 18b3 D82F0000 		.4byte	0x2fd8
 8601 18b7 C2180000 		.4byte	0x18c2
 8602 18bb 0B       		.uleb128 0xb
 8603 18bc 01       		.uleb128 0x1
 8604 18bd 50       		.byte	0x50
 8605 18be 02       		.uleb128 0x2
 8606 18bf 09       		.byte	0x9
 8607 18c0 FF       		.byte	0xff
 8608 18c1 00       		.byte	0
 8609 18c2 0A       		.uleb128 0xa
 8610 18c3 2E000000 		.4byte	.LVL328
 8611 18c7 D82F0000 		.4byte	0x2fd8
 8612 18cb D6180000 		.4byte	0x18d6
 8613 18cf 0B       		.uleb128 0xb
 8614 18d0 01       		.uleb128 0x1
 8615 18d1 50       		.byte	0x50
 8616 18d2 02       		.uleb128 0x2
 8617 18d3 74       		.byte	0x74
 8618 18d4 00       		.sleb128 0
 8619 18d5 00       		.byte	0
 8620 18d6 0A       		.uleb128 0xa
 8621 18d7 34000000 		.4byte	.LVL329
 8622 18db D82F0000 		.4byte	0x2fd8
 8623 18df E9180000 		.4byte	0x18e9
 8624 18e3 0B       		.uleb128 0xb
 8625 18e4 01       		.uleb128 0x1
 8626 18e5 50       		.byte	0x50
 8627 18e6 01       		.uleb128 0x1
 8628 18e7 35       		.byte	0x35
 8629 18e8 00       		.byte	0
 8630 18e9 0A       		.uleb128 0xa
 8631 18ea 3A000000 		.4byte	.LVL330
 8632 18ee D82F0000 		.4byte	0x2fd8
 8633 18f2 FC180000 		.4byte	0x18fc
 8634 18f6 0B       		.uleb128 0xb
 8635 18f7 01       		.uleb128 0x1
 8636 18f8 50       		.byte	0x50
 8637 18f9 01       		.uleb128 0x1
 8638 18fa 34       		.byte	0x34
 8639 18fb 00       		.byte	0
 8640 18fc 0A       		.uleb128 0xa
 8641 18fd 40000000 		.4byte	.LVL331
 8642 1901 D82F0000 		.4byte	0x2fd8
 8643 1905 0F190000 		.4byte	0x190f
 8644 1909 0B       		.uleb128 0xb
 8645 190a 01       		.uleb128 0x1
 8646 190b 50       		.byte	0x50
 8647 190c 01       		.uleb128 0x1
 8648 190d 4E       		.byte	0x4e
 8649 190e 00       		.byte	0
 8650 190f 0A       		.uleb128 0xa
 8651 1910 46000000 		.4byte	.LVL332
 8652 1914 D82F0000 		.4byte	0x2fd8
 8653 1918 23190000 		.4byte	0x1923
ARM GAS  C:\Users\HENRYA~1\AppData\Local\Temp\cceIRlNf.s 			page 173


 8654 191c 0B       		.uleb128 0xb
 8655 191d 01       		.uleb128 0x1
 8656 191e 50       		.byte	0x50
 8657 191f 02       		.uleb128 0x2
 8658 1920 75       		.byte	0x75
 8659 1921 00       		.sleb128 0
 8660 1922 00       		.byte	0
 8661 1923 0A       		.uleb128 0xa
 8662 1924 4C000000 		.4byte	.LVL333
 8663 1928 D82F0000 		.4byte	0x2fd8
 8664 192c 37190000 		.4byte	0x1937
 8665 1930 0B       		.uleb128 0xb
 8666 1931 01       		.uleb128 0x1
 8667 1932 50       		.byte	0x50
 8668 1933 02       		.uleb128 0x2
 8669 1934 76       		.byte	0x76
 8670 1935 00       		.sleb128 0
 8671 1936 00       		.byte	0
 8672 1937 0C       		.uleb128 0xc
 8673 1938 52000000 		.4byte	.LVL334
 8674 193c D82F0000 		.4byte	0x2fd8
 8675 1940 0A       		.uleb128 0xa
 8676 1941 5A000000 		.4byte	.LVL335
 8677 1945 A12F0000 		.4byte	0x2fa1
 8678 1949 55190000 		.4byte	0x1955
 8679 194d 0B       		.uleb128 0xb
 8680 194e 01       		.uleb128 0x1
 8681 194f 50       		.byte	0x50
 8682 1950 03       		.uleb128 0x3
 8683 1951 0A       		.byte	0xa
 8684 1952 9001     		.2byte	0x190
 8685 1954 00       		.byte	0
 8686 1955 0A       		.uleb128 0xa
 8687 1956 60000000 		.4byte	.LVL336
 8688 195a 382F0000 		.4byte	0x2f38
 8689 195e 68190000 		.4byte	0x1968
 8690 1962 0B       		.uleb128 0xb
 8691 1963 01       		.uleb128 0x1
 8692 1964 50       		.byte	0x50
 8693 1965 01       		.uleb128 0x1
 8694 1966 35       		.byte	0x35
 8695 1967 00       		.byte	0
 8696 1968 0A       		.uleb128 0xa
 8697 1969 66000000 		.4byte	.LVL337
 8698 196d CD2F0000 		.4byte	0x2fcd
 8699 1971 7B190000 		.4byte	0x197b
 8700 1975 0B       		.uleb128 0xb
 8701 1976 01       		.uleb128 0x1
 8702 1977 50       		.byte	0x50
 8703 1978 01       		.uleb128 0x1
 8704 1979 31       		.byte	0x31
 8705 197a 00       		.byte	0
 8706 197b 0C       		.uleb128 0xc
 8707 197c 6A000000 		.4byte	.LVL338
 8708 1980 AA0B0000 		.4byte	0xbaa
 8709 1984 00       		.byte	0
 8710 1985 14       		.uleb128 0x14
ARM GAS  C:\Users\HENRYA~1\AppData\Local\Temp\cceIRlNf.s 			page 174


 8711 1986 68060000 		.4byte	.LASF55
 8712 198a 04       		.byte	0x4
 8713 198b 1401     		.2byte	0x114
 8714 198d 00000000 		.4byte	.LFB62
 8715 1991 42000000 		.4byte	.LFE62-.LFB62
 8716 1995 01       		.uleb128 0x1
 8717 1996 9C       		.byte	0x9c
 8718 1997 5C1A0000 		.4byte	0x1a5c
 8719 199b 0A       		.uleb128 0xa
 8720 199c 08000000 		.4byte	.LVL341
 8721 19a0 CD2F0000 		.4byte	0x2fcd
 8722 19a4 AE190000 		.4byte	0x19ae
 8723 19a8 0B       		.uleb128 0xb
 8724 19a9 01       		.uleb128 0x1
 8725 19aa 50       		.byte	0x50
 8726 19ab 01       		.uleb128 0x1
 8727 19ac 32       		.byte	0x32
 8728 19ad 00       		.byte	0
 8729 19ae 0A       		.uleb128 0xa
 8730 19af 0E000000 		.4byte	.LVL342
 8731 19b3 D82F0000 		.4byte	0x2fd8
 8732 19b7 C2190000 		.4byte	0x19c2
 8733 19bb 0B       		.uleb128 0xb
 8734 19bc 01       		.uleb128 0x1
 8735 19bd 50       		.byte	0x50
 8736 19be 02       		.uleb128 0x2
 8737 19bf 09       		.byte	0x9
 8738 19c0 FF       		.byte	0xff
 8739 19c1 00       		.byte	0
 8740 19c2 0A       		.uleb128 0xa
 8741 19c3 14000000 		.4byte	.LVL343
 8742 19c7 D82F0000 		.4byte	0x2fd8
 8743 19cb D6190000 		.4byte	0x19d6
 8744 19cf 0B       		.uleb128 0xb
 8745 19d0 01       		.uleb128 0x1
 8746 19d1 50       		.byte	0x50
 8747 19d2 02       		.uleb128 0x2
 8748 19d3 09       		.byte	0x9
 8749 19d4 FF       		.byte	0xff
 8750 19d5 00       		.byte	0
 8751 19d6 0A       		.uleb128 0xa
 8752 19d7 1A000000 		.4byte	.LVL344
 8753 19db D82F0000 		.4byte	0x2fd8
 8754 19df EA190000 		.4byte	0x19ea
 8755 19e3 0B       		.uleb128 0xb
 8756 19e4 01       		.uleb128 0x1
 8757 19e5 50       		.byte	0x50
 8758 19e6 02       		.uleb128 0x2
 8759 19e7 09       		.byte	0x9
 8760 19e8 FE       		.byte	0xfe
 8761 19e9 00       		.byte	0
 8762 19ea 0A       		.uleb128 0xa
 8763 19eb 20000000 		.4byte	.LVL345
 8764 19ef D82F0000 		.4byte	0x2fd8
 8765 19f3 FD190000 		.4byte	0x19fd
 8766 19f7 0B       		.uleb128 0xb
 8767 19f8 01       		.uleb128 0x1
ARM GAS  C:\Users\HENRYA~1\AppData\Local\Temp\cceIRlNf.s 			page 175


 8768 19f9 50       		.byte	0x50
 8769 19fa 01       		.uleb128 0x1
 8770 19fb 32       		.byte	0x32
 8771 19fc 00       		.byte	0
 8772 19fd 0A       		.uleb128 0xa
 8773 19fe 26000000 		.4byte	.LVL346
 8774 1a02 D82F0000 		.4byte	0x2fd8
 8775 1a06 101A0000 		.4byte	0x1a10
 8776 1a0a 0B       		.uleb128 0xb
 8777 1a0b 01       		.uleb128 0x1
 8778 1a0c 50       		.byte	0x50
 8779 1a0d 01       		.uleb128 0x1
 8780 1a0e 35       		.byte	0x35
 8781 1a0f 00       		.byte	0
 8782 1a10 0A       		.uleb128 0xa
 8783 1a11 2C000000 		.4byte	.LVL347
 8784 1a15 D82F0000 		.4byte	0x2fd8
 8785 1a19 241A0000 		.4byte	0x1a24
 8786 1a1d 0B       		.uleb128 0xb
 8787 1a1e 01       		.uleb128 0x1
 8788 1a1f 50       		.byte	0x50
 8789 1a20 02       		.uleb128 0x2
 8790 1a21 09       		.byte	0x9
 8791 1a22 FA       		.byte	0xfa
 8792 1a23 00       		.byte	0
 8793 1a24 0A       		.uleb128 0xa
 8794 1a25 34000000 		.4byte	.LVL348
 8795 1a29 A12F0000 		.4byte	0x2fa1
 8796 1a2d 391A0000 		.4byte	0x1a39
 8797 1a31 0B       		.uleb128 0xb
 8798 1a32 01       		.uleb128 0x1
 8799 1a33 50       		.byte	0x50
 8800 1a34 03       		.uleb128 0x3
 8801 1a35 0A       		.byte	0xa
 8802 1a36 9001     		.2byte	0x190
 8803 1a38 00       		.byte	0
 8804 1a39 0A       		.uleb128 0xa
 8805 1a3a 3A000000 		.4byte	.LVL349
 8806 1a3e 382F0000 		.4byte	0x2f38
 8807 1a42 4C1A0000 		.4byte	0x1a4c
 8808 1a46 0B       		.uleb128 0xb
 8809 1a47 01       		.uleb128 0x1
 8810 1a48 50       		.byte	0x50
 8811 1a49 01       		.uleb128 0x1
 8812 1a4a 35       		.byte	0x35
 8813 1a4b 00       		.byte	0
 8814 1a4c 10       		.uleb128 0x10
 8815 1a4d 40000000 		.4byte	.LVL350
 8816 1a51 CD2F0000 		.4byte	0x2fcd
 8817 1a55 0B       		.uleb128 0xb
 8818 1a56 01       		.uleb128 0x1
 8819 1a57 50       		.byte	0x50
 8820 1a58 01       		.uleb128 0x1
 8821 1a59 31       		.byte	0x31
 8822 1a5a 00       		.byte	0
 8823 1a5b 00       		.byte	0
 8824 1a5c 15       		.uleb128 0x15
ARM GAS  C:\Users\HENRYA~1\AppData\Local\Temp\cceIRlNf.s 			page 176


 8825 1a5d E5030000 		.4byte	.LASF56
 8826 1a61 04       		.byte	0x4
 8827 1a62 2201     		.2byte	0x122
 8828 1a64 64000000 		.4byte	0x64
 8829 1a68 00000000 		.4byte	.LFB63
 8830 1a6c E0000000 		.4byte	.LFE63-.LFB63
 8831 1a70 01       		.uleb128 0x1
 8832 1a71 9C       		.byte	0x9c
 8833 1a72 FA1C0000 		.4byte	0x1cfa
 8834 1a76 16       		.uleb128 0x16
 8835 1a77 494400   		.ascii	"ID\000"
 8836 1a7a 04       		.byte	0x4
 8837 1a7b 2201     		.2byte	0x122
 8838 1a7d 33000000 		.4byte	0x33
 8839 1a81 77060000 		.4byte	.LLST51
 8840 1a85 17       		.uleb128 0x17
 8841 1a86 00080000 		.4byte	.LASF57
 8842 1a8a 04       		.byte	0x4
 8843 1a8b 2201     		.2byte	0x122
 8844 1a8d 64000000 		.4byte	0x64
 8845 1a91 B1060000 		.4byte	.LLST52
 8846 1a95 17       		.uleb128 0x17
 8847 1a96 74040000 		.4byte	.LASF51
 8848 1a9a 04       		.byte	0x4
 8849 1a9b 2201     		.2byte	0x122
 8850 1a9d 64000000 		.4byte	0x64
 8851 1aa1 EB060000 		.4byte	.LLST53
 8852 1aa5 18       		.uleb128 0x18
 8853 1aa6 08000000 		.4byte	.LBB2
 8854 1aaa 68000000 		.4byte	.LBE2-.LBB2
 8855 1aae D11B0000 		.4byte	0x1bd1
 8856 1ab2 19       		.uleb128 0x19
 8857 1ab3 C9050000 		.4byte	.LASF52
 8858 1ab7 04       		.byte	0x4
 8859 1ab8 2501     		.2byte	0x125
 8860 1aba 9D000000 		.4byte	0x9d
 8861 1abe 25070000 		.4byte	.LLST54
 8862 1ac2 19       		.uleb128 0x19
 8863 1ac3 D1050000 		.4byte	.LASF53
 8864 1ac7 04       		.byte	0x4
 8865 1ac8 2501     		.2byte	0x125
 8866 1aca 9D000000 		.4byte	0x9d
 8867 1ace 38070000 		.4byte	.LLST55
 8868 1ad2 0A       		.uleb128 0xa
 8869 1ad3 20000000 		.4byte	.LVL355
 8870 1ad7 CD2F0000 		.4byte	0x2fcd
 8871 1adb E51A0000 		.4byte	0x1ae5
 8872 1adf 0B       		.uleb128 0xb
 8873 1ae0 01       		.uleb128 0x1
 8874 1ae1 50       		.byte	0x50
 8875 1ae2 01       		.uleb128 0x1
 8876 1ae3 32       		.byte	0x32
 8877 1ae4 00       		.byte	0
 8878 1ae5 0A       		.uleb128 0xa
 8879 1ae6 26000000 		.4byte	.LVL356
 8880 1aea D82F0000 		.4byte	0x2fd8
 8881 1aee F91A0000 		.4byte	0x1af9
ARM GAS  C:\Users\HENRYA~1\AppData\Local\Temp\cceIRlNf.s 			page 177


 8882 1af2 0B       		.uleb128 0xb
 8883 1af3 01       		.uleb128 0x1
 8884 1af4 50       		.byte	0x50
 8885 1af5 02       		.uleb128 0x2
 8886 1af6 09       		.byte	0x9
 8887 1af7 FF       		.byte	0xff
 8888 1af8 00       		.byte	0
 8889 1af9 0A       		.uleb128 0xa
 8890 1afa 2C000000 		.4byte	.LVL357
 8891 1afe D82F0000 		.4byte	0x2fd8
 8892 1b02 0D1B0000 		.4byte	0x1b0d
 8893 1b06 0B       		.uleb128 0xb
 8894 1b07 01       		.uleb128 0x1
 8895 1b08 50       		.byte	0x50
 8896 1b09 02       		.uleb128 0x2
 8897 1b0a 09       		.byte	0x9
 8898 1b0b FF       		.byte	0xff
 8899 1b0c 00       		.byte	0
 8900 1b0d 0A       		.uleb128 0xa
 8901 1b0e 32000000 		.4byte	.LVL358
 8902 1b12 D82F0000 		.4byte	0x2fd8
 8903 1b16 211B0000 		.4byte	0x1b21
 8904 1b1a 0B       		.uleb128 0xb
 8905 1b1b 01       		.uleb128 0x1
 8906 1b1c 50       		.byte	0x50
 8907 1b1d 02       		.uleb128 0x2
 8908 1b1e 75       		.byte	0x75
 8909 1b1f 00       		.sleb128 0
 8910 1b20 00       		.byte	0
 8911 1b21 0A       		.uleb128 0xa
 8912 1b22 38000000 		.4byte	.LVL359
 8913 1b26 D82F0000 		.4byte	0x2fd8
 8914 1b2a 341B0000 		.4byte	0x1b34
 8915 1b2e 0B       		.uleb128 0xb
 8916 1b2f 01       		.uleb128 0x1
 8917 1b30 50       		.byte	0x50
 8918 1b31 01       		.uleb128 0x1
 8919 1b32 35       		.byte	0x35
 8920 1b33 00       		.byte	0
 8921 1b34 0A       		.uleb128 0xa
 8922 1b35 3E000000 		.4byte	.LVL360
 8923 1b39 D82F0000 		.4byte	0x2fd8
 8924 1b3d 471B0000 		.4byte	0x1b47
 8925 1b41 0B       		.uleb128 0xb
 8926 1b42 01       		.uleb128 0x1
 8927 1b43 50       		.byte	0x50
 8928 1b44 01       		.uleb128 0x1
 8929 1b45 33       		.byte	0x33
 8930 1b46 00       		.byte	0
 8931 1b47 0A       		.uleb128 0xa
 8932 1b48 44000000 		.4byte	.LVL361
 8933 1b4c D82F0000 		.4byte	0x2fd8
 8934 1b50 5B1B0000 		.4byte	0x1b5b
 8935 1b54 0B       		.uleb128 0xb
 8936 1b55 01       		.uleb128 0x1
 8937 1b56 50       		.byte	0x50
 8938 1b57 02       		.uleb128 0x2
ARM GAS  C:\Users\HENRYA~1\AppData\Local\Temp\cceIRlNf.s 			page 178


 8939 1b58 08       		.byte	0x8
 8940 1b59 20       		.byte	0x20
 8941 1b5a 00       		.byte	0
 8942 1b5b 0A       		.uleb128 0xa
 8943 1b5c 4A000000 		.4byte	.LVL362
 8944 1b60 D82F0000 		.4byte	0x2fd8
 8945 1b64 6F1B0000 		.4byte	0x1b6f
 8946 1b68 0B       		.uleb128 0xb
 8947 1b69 01       		.uleb128 0x1
 8948 1b6a 50       		.byte	0x50
 8949 1b6b 02       		.uleb128 0x2
 8950 1b6c 74       		.byte	0x74
 8951 1b6d 00       		.sleb128 0
 8952 1b6e 00       		.byte	0
 8953 1b6f 0A       		.uleb128 0xa
 8954 1b70 50000000 		.4byte	.LVL363
 8955 1b74 D82F0000 		.4byte	0x2fd8
 8956 1b78 831B0000 		.4byte	0x1b83
 8957 1b7c 0B       		.uleb128 0xb
 8958 1b7d 01       		.uleb128 0x1
 8959 1b7e 50       		.byte	0x50
 8960 1b7f 02       		.uleb128 0x2
 8961 1b80 76       		.byte	0x76
 8962 1b81 00       		.sleb128 0
 8963 1b82 00       		.byte	0
 8964 1b83 0C       		.uleb128 0xc
 8965 1b84 56000000 		.4byte	.LVL364
 8966 1b88 D82F0000 		.4byte	0x2fd8
 8967 1b8c 0A       		.uleb128 0xa
 8968 1b8d 5E000000 		.4byte	.LVL365
 8969 1b91 A12F0000 		.4byte	0x2fa1
 8970 1b95 A11B0000 		.4byte	0x1ba1
 8971 1b99 0B       		.uleb128 0xb
 8972 1b9a 01       		.uleb128 0x1
 8973 1b9b 50       		.byte	0x50
 8974 1b9c 03       		.uleb128 0x3
 8975 1b9d 0A       		.byte	0xa
 8976 1b9e 9001     		.2byte	0x190
 8977 1ba0 00       		.byte	0
 8978 1ba1 0A       		.uleb128 0xa
 8979 1ba2 64000000 		.4byte	.LVL366
 8980 1ba6 382F0000 		.4byte	0x2f38
 8981 1baa B41B0000 		.4byte	0x1bb4
 8982 1bae 0B       		.uleb128 0xb
 8983 1baf 01       		.uleb128 0x1
 8984 1bb0 50       		.byte	0x50
 8985 1bb1 01       		.uleb128 0x1
 8986 1bb2 35       		.byte	0x35
 8987 1bb3 00       		.byte	0
 8988 1bb4 0A       		.uleb128 0xa
 8989 1bb5 6A000000 		.4byte	.LVL367
 8990 1bb9 CD2F0000 		.4byte	0x2fcd
 8991 1bbd C71B0000 		.4byte	0x1bc7
 8992 1bc1 0B       		.uleb128 0xb
 8993 1bc2 01       		.uleb128 0x1
 8994 1bc3 50       		.byte	0x50
 8995 1bc4 01       		.uleb128 0x1
ARM GAS  C:\Users\HENRYA~1\AppData\Local\Temp\cceIRlNf.s 			page 179


 8996 1bc5 31       		.byte	0x31
 8997 1bc6 00       		.byte	0
 8998 1bc7 0C       		.uleb128 0xc
 8999 1bc8 6E000000 		.4byte	.LVL368
 9000 1bcc AA0B0000 		.4byte	0xbaa
 9001 1bd0 00       		.byte	0
 9002 1bd1 1A       		.uleb128 0x1a
 9003 1bd2 70000000 		.4byte	.LBB3
 9004 1bd6 68000000 		.4byte	.LBE3-.LBB3
 9005 1bda 19       		.uleb128 0x19
 9006 1bdb C9050000 		.4byte	.LASF52
 9007 1bdf 04       		.byte	0x4
 9008 1be0 3D01     		.2byte	0x13d
 9009 1be2 9D000000 		.4byte	0x9d
 9010 1be6 4B070000 		.4byte	.LLST56
 9011 1bea 19       		.uleb128 0x19
 9012 1beb D1050000 		.4byte	.LASF53
 9013 1bef 04       		.byte	0x4
 9014 1bf0 3D01     		.2byte	0x13d
 9015 1bf2 9D000000 		.4byte	0x9d
 9016 1bf6 5E070000 		.4byte	.LLST57
 9017 1bfa 0A       		.uleb128 0xa
 9018 1bfb 8A000000 		.4byte	.LVL373
 9019 1bff CD2F0000 		.4byte	0x2fcd
 9020 1c03 0D1C0000 		.4byte	0x1c0d
 9021 1c07 0B       		.uleb128 0xb
 9022 1c08 01       		.uleb128 0x1
 9023 1c09 50       		.byte	0x50
 9024 1c0a 01       		.uleb128 0x1
 9025 1c0b 32       		.byte	0x32
 9026 1c0c 00       		.byte	0
 9027 1c0d 0A       		.uleb128 0xa
 9028 1c0e 90000000 		.4byte	.LVL374
 9029 1c12 D82F0000 		.4byte	0x2fd8
 9030 1c16 211C0000 		.4byte	0x1c21
 9031 1c1a 0B       		.uleb128 0xb
 9032 1c1b 01       		.uleb128 0x1
 9033 1c1c 50       		.byte	0x50
 9034 1c1d 02       		.uleb128 0x2
 9035 1c1e 09       		.byte	0x9
 9036 1c1f FF       		.byte	0xff
 9037 1c20 00       		.byte	0
 9038 1c21 0A       		.uleb128 0xa
 9039 1c22 96000000 		.4byte	.LVL375
 9040 1c26 D82F0000 		.4byte	0x2fd8
 9041 1c2a 351C0000 		.4byte	0x1c35
 9042 1c2e 0B       		.uleb128 0xb
 9043 1c2f 01       		.uleb128 0x1
 9044 1c30 50       		.byte	0x50
 9045 1c31 02       		.uleb128 0x2
 9046 1c32 09       		.byte	0x9
 9047 1c33 FF       		.byte	0xff
 9048 1c34 00       		.byte	0
 9049 1c35 0A       		.uleb128 0xa
 9050 1c36 9C000000 		.4byte	.LVL376
 9051 1c3a D82F0000 		.4byte	0x2fd8
 9052 1c3e 491C0000 		.4byte	0x1c49
ARM GAS  C:\Users\HENRYA~1\AppData\Local\Temp\cceIRlNf.s 			page 180


 9053 1c42 0B       		.uleb128 0xb
 9054 1c43 01       		.uleb128 0x1
 9055 1c44 50       		.byte	0x50
 9056 1c45 02       		.uleb128 0x2
 9057 1c46 75       		.byte	0x75
 9058 1c47 00       		.sleb128 0
 9059 1c48 00       		.byte	0
 9060 1c49 0A       		.uleb128 0xa
 9061 1c4a A2000000 		.4byte	.LVL377
 9062 1c4e D82F0000 		.4byte	0x2fd8
 9063 1c52 5C1C0000 		.4byte	0x1c5c
 9064 1c56 0B       		.uleb128 0xb
 9065 1c57 01       		.uleb128 0x1
 9066 1c58 50       		.byte	0x50
 9067 1c59 01       		.uleb128 0x1
 9068 1c5a 35       		.byte	0x35
 9069 1c5b 00       		.byte	0
 9070 1c5c 0A       		.uleb128 0xa
 9071 1c5d A8000000 		.4byte	.LVL378
 9072 1c61 D82F0000 		.4byte	0x2fd8
 9073 1c65 6F1C0000 		.4byte	0x1c6f
 9074 1c69 0B       		.uleb128 0xb
 9075 1c6a 01       		.uleb128 0x1
 9076 1c6b 50       		.byte	0x50
 9077 1c6c 01       		.uleb128 0x1
 9078 1c6d 33       		.byte	0x33
 9079 1c6e 00       		.byte	0
 9080 1c6f 0A       		.uleb128 0xa
 9081 1c70 AE000000 		.4byte	.LVL379
 9082 1c74 D82F0000 		.4byte	0x2fd8
 9083 1c78 831C0000 		.4byte	0x1c83
 9084 1c7c 0B       		.uleb128 0xb
 9085 1c7d 01       		.uleb128 0x1
 9086 1c7e 50       		.byte	0x50
 9087 1c7f 02       		.uleb128 0x2
 9088 1c80 08       		.byte	0x8
 9089 1c81 20       		.byte	0x20
 9090 1c82 00       		.byte	0
 9091 1c83 0A       		.uleb128 0xa
 9092 1c84 B4000000 		.4byte	.LVL380
 9093 1c88 D82F0000 		.4byte	0x2fd8
 9094 1c8c 971C0000 		.4byte	0x1c97
 9095 1c90 0B       		.uleb128 0xb
 9096 1c91 01       		.uleb128 0x1
 9097 1c92 50       		.byte	0x50
 9098 1c93 02       		.uleb128 0x2
 9099 1c94 74       		.byte	0x74
 9100 1c95 00       		.sleb128 0
 9101 1c96 00       		.byte	0
 9102 1c97 0A       		.uleb128 0xa
 9103 1c98 BA000000 		.4byte	.LVL381
 9104 1c9c D82F0000 		.4byte	0x2fd8
 9105 1ca0 AB1C0000 		.4byte	0x1cab
 9106 1ca4 0B       		.uleb128 0xb
 9107 1ca5 01       		.uleb128 0x1
 9108 1ca6 50       		.byte	0x50
 9109 1ca7 02       		.uleb128 0x2
ARM GAS  C:\Users\HENRYA~1\AppData\Local\Temp\cceIRlNf.s 			page 181


 9110 1ca8 76       		.byte	0x76
 9111 1ca9 00       		.sleb128 0
 9112 1caa 00       		.byte	0
 9113 1cab 0C       		.uleb128 0xc
 9114 1cac C0000000 		.4byte	.LVL382
 9115 1cb0 D82F0000 		.4byte	0x2fd8
 9116 1cb4 0A       		.uleb128 0xa
 9117 1cb5 C8000000 		.4byte	.LVL383
 9118 1cb9 A12F0000 		.4byte	0x2fa1
 9119 1cbd C91C0000 		.4byte	0x1cc9
 9120 1cc1 0B       		.uleb128 0xb
 9121 1cc2 01       		.uleb128 0x1
 9122 1cc3 50       		.byte	0x50
 9123 1cc4 03       		.uleb128 0x3
 9124 1cc5 0A       		.byte	0xa
 9125 1cc6 9001     		.2byte	0x190
 9126 1cc8 00       		.byte	0
 9127 1cc9 0A       		.uleb128 0xa
 9128 1cca CE000000 		.4byte	.LVL384
 9129 1cce 382F0000 		.4byte	0x2f38
 9130 1cd2 DC1C0000 		.4byte	0x1cdc
 9131 1cd6 0B       		.uleb128 0xb
 9132 1cd7 01       		.uleb128 0x1
 9133 1cd8 50       		.byte	0x50
 9134 1cd9 01       		.uleb128 0x1
 9135 1cda 35       		.byte	0x35
 9136 1cdb 00       		.byte	0
 9137 1cdc 0A       		.uleb128 0xa
 9138 1cdd D4000000 		.4byte	.LVL385
 9139 1ce1 CD2F0000 		.4byte	0x2fcd
 9140 1ce5 EF1C0000 		.4byte	0x1cef
 9141 1ce9 0B       		.uleb128 0xb
 9142 1cea 01       		.uleb128 0x1
 9143 1ceb 50       		.byte	0x50
 9144 1cec 01       		.uleb128 0x1
 9145 1ced 31       		.byte	0x31
 9146 1cee 00       		.byte	0
 9147 1cef 0C       		.uleb128 0xc
 9148 1cf0 D8000000 		.4byte	.LVL386
 9149 1cf4 AA0B0000 		.4byte	0xbaa
 9150 1cf8 00       		.byte	0
 9151 1cf9 00       		.byte	0
 9152 1cfa 15       		.uleb128 0x15
 9153 1cfb D8030000 		.4byte	.LASF58
 9154 1cff 04       		.byte	0x4
 9155 1d00 5501     		.2byte	0x155
 9156 1d02 64000000 		.4byte	0x64
 9157 1d06 00000000 		.4byte	.LFB64
 9158 1d0a 2C010000 		.4byte	.LFE64-.LFB64
 9159 1d0e 01       		.uleb128 0x1
 9160 1d0f 9C       		.byte	0x9c
 9161 1d10 BB1E0000 		.4byte	0x1ebb
 9162 1d14 16       		.uleb128 0x16
 9163 1d15 494400   		.ascii	"ID\000"
 9164 1d18 04       		.byte	0x4
 9165 1d19 5501     		.2byte	0x155
 9166 1d1b 33000000 		.4byte	0x33
ARM GAS  C:\Users\HENRYA~1\AppData\Local\Temp\cceIRlNf.s 			page 182


 9167 1d1f 71070000 		.4byte	.LLST58
 9168 1d23 19       		.uleb128 0x19
 9169 1d24 AA040000 		.4byte	.LASF18
 9170 1d28 04       		.byte	0x4
 9171 1d29 5601     		.2byte	0x156
 9172 1d2b 64000000 		.4byte	0x64
 9173 1d2f 92070000 		.4byte	.LLST59
 9174 1d33 0C       		.uleb128 0xc
 9175 1d34 08000000 		.4byte	.LVL389
 9176 1d38 C22F0000 		.4byte	0x2fc2
 9177 1d3c 0A       		.uleb128 0xa
 9178 1d3d 18000000 		.4byte	.LVL390
 9179 1d41 CD2F0000 		.4byte	0x2fcd
 9180 1d45 4F1D0000 		.4byte	0x1d4f
 9181 1d49 0B       		.uleb128 0xb
 9182 1d4a 01       		.uleb128 0x1
 9183 1d4b 50       		.byte	0x50
 9184 1d4c 01       		.uleb128 0x1
 9185 1d4d 32       		.byte	0x32
 9186 1d4e 00       		.byte	0
 9187 1d4f 0A       		.uleb128 0xa
 9188 1d50 1E000000 		.4byte	.LVL391
 9189 1d54 D82F0000 		.4byte	0x2fd8
 9190 1d58 631D0000 		.4byte	0x1d63
 9191 1d5c 0B       		.uleb128 0xb
 9192 1d5d 01       		.uleb128 0x1
 9193 1d5e 50       		.byte	0x50
 9194 1d5f 02       		.uleb128 0x2
 9195 1d60 09       		.byte	0x9
 9196 1d61 FF       		.byte	0xff
 9197 1d62 00       		.byte	0
 9198 1d63 0A       		.uleb128 0xa
 9199 1d64 24000000 		.4byte	.LVL392
 9200 1d68 D82F0000 		.4byte	0x2fd8
 9201 1d6c 771D0000 		.4byte	0x1d77
 9202 1d70 0B       		.uleb128 0xb
 9203 1d71 01       		.uleb128 0x1
 9204 1d72 50       		.byte	0x50
 9205 1d73 02       		.uleb128 0x2
 9206 1d74 09       		.byte	0x9
 9207 1d75 FF       		.byte	0xff
 9208 1d76 00       		.byte	0
 9209 1d77 0A       		.uleb128 0xa
 9210 1d78 2A000000 		.4byte	.LVL393
 9211 1d7c D82F0000 		.4byte	0x2fd8
 9212 1d80 8B1D0000 		.4byte	0x1d8b
 9213 1d84 0B       		.uleb128 0xb
 9214 1d85 01       		.uleb128 0x1
 9215 1d86 50       		.byte	0x50
 9216 1d87 02       		.uleb128 0x2
 9217 1d88 75       		.byte	0x75
 9218 1d89 00       		.sleb128 0
 9219 1d8a 00       		.byte	0
 9220 1d8b 0A       		.uleb128 0xa
 9221 1d8c 30000000 		.4byte	.LVL394
 9222 1d90 D82F0000 		.4byte	0x2fd8
 9223 1d94 9E1D0000 		.4byte	0x1d9e
ARM GAS  C:\Users\HENRYA~1\AppData\Local\Temp\cceIRlNf.s 			page 183


 9224 1d98 0B       		.uleb128 0xb
 9225 1d99 01       		.uleb128 0x1
 9226 1d9a 50       		.byte	0x50
 9227 1d9b 01       		.uleb128 0x1
 9228 1d9c 34       		.byte	0x34
 9229 1d9d 00       		.byte	0
 9230 1d9e 0A       		.uleb128 0xa
 9231 1d9f 36000000 		.4byte	.LVL395
 9232 1da3 D82F0000 		.4byte	0x2fd8
 9233 1da7 B11D0000 		.4byte	0x1db1
 9234 1dab 0B       		.uleb128 0xb
 9235 1dac 01       		.uleb128 0x1
 9236 1dad 50       		.byte	0x50
 9237 1dae 01       		.uleb128 0x1
 9238 1daf 32       		.byte	0x32
 9239 1db0 00       		.byte	0
 9240 1db1 0A       		.uleb128 0xa
 9241 1db2 3C000000 		.4byte	.LVL396
 9242 1db6 D82F0000 		.4byte	0x2fd8
 9243 1dba C51D0000 		.4byte	0x1dc5
 9244 1dbe 0B       		.uleb128 0xb
 9245 1dbf 01       		.uleb128 0x1
 9246 1dc0 50       		.byte	0x50
 9247 1dc1 02       		.uleb128 0x2
 9248 1dc2 08       		.byte	0x8
 9249 1dc3 24       		.byte	0x24
 9250 1dc4 00       		.byte	0
 9251 1dc5 0A       		.uleb128 0xa
 9252 1dc6 42000000 		.4byte	.LVL397
 9253 1dca D82F0000 		.4byte	0x2fd8
 9254 1dce D81D0000 		.4byte	0x1dd8
 9255 1dd2 0B       		.uleb128 0xb
 9256 1dd3 01       		.uleb128 0x1
 9257 1dd4 50       		.byte	0x50
 9258 1dd5 01       		.uleb128 0x1
 9259 1dd6 32       		.byte	0x32
 9260 1dd7 00       		.byte	0
 9261 1dd8 0C       		.uleb128 0xc
 9262 1dd9 48000000 		.4byte	.LVL398
 9263 1ddd D82F0000 		.4byte	0x2fd8
 9264 1de1 0A       		.uleb128 0xa
 9265 1de2 50000000 		.4byte	.LVL399
 9266 1de6 A12F0000 		.4byte	0x2fa1
 9267 1dea F61D0000 		.4byte	0x1df6
 9268 1dee 0B       		.uleb128 0xb
 9269 1def 01       		.uleb128 0x1
 9270 1df0 50       		.byte	0x50
 9271 1df1 03       		.uleb128 0x3
 9272 1df2 0A       		.byte	0xa
 9273 1df3 9001     		.2byte	0x190
 9274 1df5 00       		.byte	0
 9275 1df6 0A       		.uleb128 0xa
 9276 1df7 56000000 		.4byte	.LVL400
 9277 1dfb 382F0000 		.4byte	0x2f38
 9278 1dff 091E0000 		.4byte	0x1e09
 9279 1e03 0B       		.uleb128 0xb
 9280 1e04 01       		.uleb128 0x1
ARM GAS  C:\Users\HENRYA~1\AppData\Local\Temp\cceIRlNf.s 			page 184


 9281 1e05 50       		.byte	0x50
 9282 1e06 01       		.uleb128 0x1
 9283 1e07 35       		.byte	0x35
 9284 1e08 00       		.byte	0
 9285 1e09 0A       		.uleb128 0xa
 9286 1e0a 5C000000 		.4byte	.LVL401
 9287 1e0e CD2F0000 		.4byte	0x2fcd
 9288 1e12 1C1E0000 		.4byte	0x1e1c
 9289 1e16 0B       		.uleb128 0xb
 9290 1e17 01       		.uleb128 0x1
 9291 1e18 50       		.byte	0x50
 9292 1e19 01       		.uleb128 0x1
 9293 1e1a 31       		.byte	0x31
 9294 1e1b 00       		.byte	0
 9295 1e1c 0A       		.uleb128 0xa
 9296 1e1d 6E000000 		.4byte	.LVL402
 9297 1e21 382F0000 		.4byte	0x2f38
 9298 1e25 2F1E0000 		.4byte	0x1e2f
 9299 1e29 0B       		.uleb128 0xb
 9300 1e2a 01       		.uleb128 0x1
 9301 1e2b 50       		.byte	0x50
 9302 1e2c 01       		.uleb128 0x1
 9303 1e2d 44       		.byte	0x44
 9304 1e2e 00       		.byte	0
 9305 1e2f 0A       		.uleb128 0xa
 9306 1e30 7E000000 		.4byte	.LVL403
 9307 1e34 A12F0000 		.4byte	0x2fa1
 9308 1e38 441E0000 		.4byte	0x1e44
 9309 1e3c 0B       		.uleb128 0xb
 9310 1e3d 01       		.uleb128 0x1
 9311 1e3e 50       		.byte	0x50
 9312 1e3f 03       		.uleb128 0x3
 9313 1e40 0A       		.byte	0xa
 9314 1e41 E803     		.2byte	0x3e8
 9315 1e43 00       		.byte	0
 9316 1e44 0C       		.uleb128 0xc
 9317 1e45 82000000 		.4byte	.LVL404
 9318 1e49 AC2F0000 		.4byte	0x2fac
 9319 1e4d 0C       		.uleb128 0xc
 9320 1e4e AA000000 		.4byte	.LVL406
 9321 1e52 E32F0000 		.4byte	0x2fe3
 9322 1e56 0C       		.uleb128 0xc
 9323 1e57 B2000000 		.4byte	.LVL407
 9324 1e5b E32F0000 		.4byte	0x2fe3
 9325 1e5f 0C       		.uleb128 0xc
 9326 1e60 CC000000 		.4byte	.LVL408
 9327 1e64 E32F0000 		.4byte	0x2fe3
 9328 1e68 0C       		.uleb128 0xc
 9329 1e69 D0000000 		.4byte	.LVL409
 9330 1e6d E32F0000 		.4byte	0x2fe3
 9331 1e71 0C       		.uleb128 0xc
 9332 1e72 D4000000 		.4byte	.LVL410
 9333 1e76 E32F0000 		.4byte	0x2fe3
 9334 1e7a 0C       		.uleb128 0xc
 9335 1e7b DC000000 		.4byte	.LVL411
 9336 1e7f E32F0000 		.4byte	0x2fe3
 9337 1e83 0C       		.uleb128 0xc
ARM GAS  C:\Users\HENRYA~1\AppData\Local\Temp\cceIRlNf.s 			page 185


 9338 1e84 E4000000 		.4byte	.LVL412
 9339 1e88 E32F0000 		.4byte	0x2fe3
 9340 1e8c 0C       		.uleb128 0xc
 9341 1e8d EC000000 		.4byte	.LVL414
 9342 1e91 E32F0000 		.4byte	0x2fe3
 9343 1e95 0C       		.uleb128 0xc
 9344 1e96 F8000000 		.4byte	.LVL417
 9345 1e9a C22F0000 		.4byte	0x2fc2
 9346 1e9e 0A       		.uleb128 0xa
 9347 1e9f FE000000 		.4byte	.LVL418
 9348 1ea3 382F0000 		.4byte	0x2f38
 9349 1ea7 B11E0000 		.4byte	0x1eb1
 9350 1eab 0B       		.uleb128 0xb
 9351 1eac 01       		.uleb128 0x1
 9352 1ead 50       		.byte	0x50
 9353 1eae 01       		.uleb128 0x1
 9354 1eaf 3A       		.byte	0x3a
 9355 1eb0 00       		.byte	0
 9356 1eb1 0C       		.uleb128 0xc
 9357 1eb2 02010000 		.4byte	.LVL419
 9358 1eb6 AC2F0000 		.4byte	0x2fac
 9359 1eba 00       		.byte	0
 9360 1ebb 15       		.uleb128 0x15
 9361 1ebc 22080000 		.4byte	.LASF59
 9362 1ec0 04       		.byte	0x4
 9363 1ec1 7F01     		.2byte	0x17f
 9364 1ec3 64000000 		.4byte	0x64
 9365 1ec7 00000000 		.4byte	.LFB65
 9366 1ecb 9C000000 		.4byte	.LFE65-.LFB65
 9367 1ecf 01       		.uleb128 0x1
 9368 1ed0 9C       		.byte	0x9c
 9369 1ed1 7F200000 		.4byte	0x207f
 9370 1ed5 16       		.uleb128 0x16
 9371 1ed6 494400   		.ascii	"ID\000"
 9372 1ed9 04       		.byte	0x4
 9373 1eda 7F01     		.2byte	0x17f
 9374 1edc 33000000 		.4byte	0x33
 9375 1ee0 C7070000 		.4byte	.LLST60
 9376 1ee4 17       		.uleb128 0x17
 9377 1ee5 B3070000 		.4byte	.LASF60
 9378 1ee9 04       		.byte	0x4
 9379 1eea 7F01     		.2byte	0x17f
 9380 1eec 64000000 		.4byte	0x64
 9381 1ef0 E8070000 		.4byte	.LLST61
 9382 1ef4 17       		.uleb128 0x17
 9383 1ef5 D7010000 		.4byte	.LASF61
 9384 1ef9 04       		.byte	0x4
 9385 1efa 7F01     		.2byte	0x17f
 9386 1efc 64000000 		.4byte	0x64
 9387 1f00 09080000 		.4byte	.LLST62
 9388 1f04 19       		.uleb128 0x19
 9389 1f05 59000000 		.4byte	.LASF62
 9390 1f09 04       		.byte	0x4
 9391 1f0a 8001     		.2byte	0x180
 9392 1f0c 9D000000 		.4byte	0x9d
 9393 1f10 2A080000 		.4byte	.LLST63
 9394 1f14 19       		.uleb128 0x19
ARM GAS  C:\Users\HENRYA~1\AppData\Local\Temp\cceIRlNf.s 			page 186


 9395 1f15 64000000 		.4byte	.LASF63
 9396 1f19 04       		.byte	0x4
 9397 1f1a 8001     		.2byte	0x180
 9398 1f1c 9D000000 		.4byte	0x9d
 9399 1f20 4D080000 		.4byte	.LLST64
 9400 1f24 19       		.uleb128 0x19
 9401 1f25 B0000000 		.4byte	.LASF64
 9402 1f29 04       		.byte	0x4
 9403 1f2a 8001     		.2byte	0x180
 9404 1f2c 9D000000 		.4byte	0x9d
 9405 1f30 6E080000 		.4byte	.LLST65
 9406 1f34 19       		.uleb128 0x19
 9407 1f35 C3000000 		.4byte	.LASF65
 9408 1f39 04       		.byte	0x4
 9409 1f3a 8001     		.2byte	0x180
 9410 1f3c 9D000000 		.4byte	0x9d
 9411 1f40 91080000 		.4byte	.LLST66
 9412 1f44 0A       		.uleb128 0xa
 9413 1f45 30000000 		.4byte	.LVL427
 9414 1f49 CD2F0000 		.4byte	0x2fcd
 9415 1f4d 571F0000 		.4byte	0x1f57
 9416 1f51 0B       		.uleb128 0xb
 9417 1f52 01       		.uleb128 0x1
 9418 1f53 50       		.byte	0x50
 9419 1f54 01       		.uleb128 0x1
 9420 1f55 32       		.byte	0x32
 9421 1f56 00       		.byte	0
 9422 1f57 0A       		.uleb128 0xa
 9423 1f58 36000000 		.4byte	.LVL428
 9424 1f5c D82F0000 		.4byte	0x2fd8
 9425 1f60 6B1F0000 		.4byte	0x1f6b
 9426 1f64 0B       		.uleb128 0xb
 9427 1f65 01       		.uleb128 0x1
 9428 1f66 50       		.byte	0x50
 9429 1f67 02       		.uleb128 0x2
 9430 1f68 09       		.byte	0x9
 9431 1f69 FF       		.byte	0xff
 9432 1f6a 00       		.byte	0
 9433 1f6b 0A       		.uleb128 0xa
 9434 1f6c 3C000000 		.4byte	.LVL429
 9435 1f70 D82F0000 		.4byte	0x2fd8
 9436 1f74 7F1F0000 		.4byte	0x1f7f
 9437 1f78 0B       		.uleb128 0xb
 9438 1f79 01       		.uleb128 0x1
 9439 1f7a 50       		.byte	0x50
 9440 1f7b 02       		.uleb128 0x2
 9441 1f7c 09       		.byte	0x9
 9442 1f7d FF       		.byte	0xff
 9443 1f7e 00       		.byte	0
 9444 1f7f 0A       		.uleb128 0xa
 9445 1f80 42000000 		.4byte	.LVL430
 9446 1f84 D82F0000 		.4byte	0x2fd8
 9447 1f88 951F0000 		.4byte	0x1f95
 9448 1f8c 0B       		.uleb128 0xb
 9449 1f8d 01       		.uleb128 0x1
 9450 1f8e 50       		.byte	0x50
 9451 1f8f 04       		.uleb128 0x4
ARM GAS  C:\Users\HENRYA~1\AppData\Local\Temp\cceIRlNf.s 			page 187


 9452 1f90 91       		.byte	0x91
 9453 1f91 64       		.sleb128 -28
 9454 1f92 94       		.byte	0x94
 9455 1f93 01       		.byte	0x1
 9456 1f94 00       		.byte	0
 9457 1f95 0A       		.uleb128 0xa
 9458 1f96 48000000 		.4byte	.LVL431
 9459 1f9a D82F0000 		.4byte	0x2fd8
 9460 1f9e A81F0000 		.4byte	0x1fa8
 9461 1fa2 0B       		.uleb128 0xb
 9462 1fa3 01       		.uleb128 0x1
 9463 1fa4 50       		.byte	0x50
 9464 1fa5 01       		.uleb128 0x1
 9465 1fa6 38       		.byte	0x38
 9466 1fa7 00       		.byte	0
 9467 1fa8 0A       		.uleb128 0xa
 9468 1fa9 4E000000 		.4byte	.LVL432
 9469 1fad D82F0000 		.4byte	0x2fd8
 9470 1fb1 BB1F0000 		.4byte	0x1fbb
 9471 1fb5 0B       		.uleb128 0xb
 9472 1fb6 01       		.uleb128 0x1
 9473 1fb7 50       		.byte	0x50
 9474 1fb8 01       		.uleb128 0x1
 9475 1fb9 33       		.byte	0x33
 9476 1fba 00       		.byte	0
 9477 1fbb 0A       		.uleb128 0xa
 9478 1fbc 54000000 		.4byte	.LVL433
 9479 1fc0 D82F0000 		.4byte	0x2fd8
 9480 1fc4 CE1F0000 		.4byte	0x1fce
 9481 1fc8 0B       		.uleb128 0xb
 9482 1fc9 01       		.uleb128 0x1
 9483 1fca 50       		.byte	0x50
 9484 1fcb 01       		.uleb128 0x1
 9485 1fcc 36       		.byte	0x36
 9486 1fcd 00       		.byte	0
 9487 1fce 0A       		.uleb128 0xa
 9488 1fcf 5A000000 		.4byte	.LVL434
 9489 1fd3 D82F0000 		.4byte	0x2fd8
 9490 1fd7 E21F0000 		.4byte	0x1fe2
 9491 1fdb 0B       		.uleb128 0xb
 9492 1fdc 01       		.uleb128 0x1
 9493 1fdd 50       		.byte	0x50
 9494 1fde 02       		.uleb128 0x2
 9495 1fdf 76       		.byte	0x76
 9496 1fe0 00       		.sleb128 0
 9497 1fe1 00       		.byte	0
 9498 1fe2 0A       		.uleb128 0xa
 9499 1fe3 60000000 		.4byte	.LVL435
 9500 1fe7 D82F0000 		.4byte	0x2fd8
 9501 1feb F61F0000 		.4byte	0x1ff6
 9502 1fef 0B       		.uleb128 0xb
 9503 1ff0 01       		.uleb128 0x1
 9504 1ff1 50       		.byte	0x50
 9505 1ff2 02       		.uleb128 0x2
 9506 1ff3 78       		.byte	0x78
 9507 1ff4 00       		.sleb128 0
 9508 1ff5 00       		.byte	0
ARM GAS  C:\Users\HENRYA~1\AppData\Local\Temp\cceIRlNf.s 			page 188


 9509 1ff6 0A       		.uleb128 0xa
 9510 1ff7 66000000 		.4byte	.LVL436
 9511 1ffb D82F0000 		.4byte	0x2fd8
 9512 1fff 09200000 		.4byte	0x2009
 9513 2003 0B       		.uleb128 0xb
 9514 2004 01       		.uleb128 0x1
 9515 2005 50       		.byte	0x50
 9516 2006 01       		.uleb128 0x1
 9517 2007 38       		.byte	0x38
 9518 2008 00       		.byte	0
 9519 2009 0A       		.uleb128 0xa
 9520 200a 6C000000 		.4byte	.LVL437
 9521 200e D82F0000 		.4byte	0x2fd8
 9522 2012 1D200000 		.4byte	0x201d
 9523 2016 0B       		.uleb128 0xb
 9524 2017 01       		.uleb128 0x1
 9525 2018 50       		.byte	0x50
 9526 2019 02       		.uleb128 0x2
 9527 201a 74       		.byte	0x74
 9528 201b 00       		.sleb128 0
 9529 201c 00       		.byte	0
 9530 201d 0A       		.uleb128 0xa
 9531 201e 72000000 		.4byte	.LVL438
 9532 2022 D82F0000 		.4byte	0x2fd8
 9533 2026 31200000 		.4byte	0x2031
 9534 202a 0B       		.uleb128 0xb
 9535 202b 01       		.uleb128 0x1
 9536 202c 50       		.byte	0x50
 9537 202d 02       		.uleb128 0x2
 9538 202e 77       		.byte	0x77
 9539 202f 00       		.sleb128 0
 9540 2030 00       		.byte	0
 9541 2031 0C       		.uleb128 0xc
 9542 2032 78000000 		.4byte	.LVL439
 9543 2036 D82F0000 		.4byte	0x2fd8
 9544 203a 0A       		.uleb128 0xa
 9545 203b 80000000 		.4byte	.LVL440
 9546 203f A12F0000 		.4byte	0x2fa1
 9547 2043 4F200000 		.4byte	0x204f
 9548 2047 0B       		.uleb128 0xb
 9549 2048 01       		.uleb128 0x1
 9550 2049 50       		.byte	0x50
 9551 204a 03       		.uleb128 0x3
 9552 204b 0A       		.byte	0xa
 9553 204c 9001     		.2byte	0x190
 9554 204e 00       		.byte	0
 9555 204f 0A       		.uleb128 0xa
 9556 2050 86000000 		.4byte	.LVL441
 9557 2054 382F0000 		.4byte	0x2f38
 9558 2058 62200000 		.4byte	0x2062
 9559 205c 0B       		.uleb128 0xb
 9560 205d 01       		.uleb128 0x1
 9561 205e 50       		.byte	0x50
 9562 205f 01       		.uleb128 0x1
 9563 2060 35       		.byte	0x35
 9564 2061 00       		.byte	0
 9565 2062 0A       		.uleb128 0xa
ARM GAS  C:\Users\HENRYA~1\AppData\Local\Temp\cceIRlNf.s 			page 189


 9566 2063 8C000000 		.4byte	.LVL442
 9567 2067 CD2F0000 		.4byte	0x2fcd
 9568 206b 75200000 		.4byte	0x2075
 9569 206f 0B       		.uleb128 0xb
 9570 2070 01       		.uleb128 0x1
 9571 2071 50       		.byte	0x50
 9572 2072 01       		.uleb128 0x1
 9573 2073 31       		.byte	0x31
 9574 2074 00       		.byte	0
 9575 2075 0C       		.uleb128 0xc
 9576 2076 90000000 		.4byte	.LVL443
 9577 207a AA0B0000 		.4byte	0xbaa
 9578 207e 00       		.byte	0
 9579 207f 1B       		.uleb128 0x1b
 9580 2080 C3030000 		.4byte	.LASF66
 9581 2084 05       		.byte	0x5
 9582 2085 2C       		.byte	0x2c
 9583 2086 96000000 		.4byte	0x96
 9584 208a 00000000 		.4byte	.LFB66
 9585 208e 16000000 		.4byte	.LFE66-.LFB66
 9586 2092 01       		.uleb128 0x1
 9587 2093 9C       		.byte	0x9c
 9588 2094 A2200000 		.4byte	0x20a2
 9589 2098 0C       		.uleb128 0xc
 9590 2099 06000000 		.4byte	.LVL448
 9591 209d EE2F0000 		.4byte	0x2fee
 9592 20a1 00       		.byte	0
 9593 20a2 1C       		.uleb128 0x1c
 9594 20a3 F5060000 		.4byte	.LASF67
 9595 20a7 05       		.byte	0x5
 9596 20a8 30       		.byte	0x30
 9597 20a9 25000000 		.4byte	0x25
 9598 20ad 00000000 		.4byte	.LFB67
 9599 20b1 54010000 		.4byte	.LFE67-.LFB67
 9600 20b5 01       		.uleb128 0x1
 9601 20b6 9C       		.byte	0x9c
 9602 20b7 3A210000 		.4byte	0x213a
 9603 20bb 08       		.uleb128 0x8
 9604 20bc 8A010000 		.4byte	.LASF68
 9605 20c0 05       		.byte	0x5
 9606 20c1 30       		.byte	0x30
 9607 20c2 25000000 		.4byte	0x25
 9608 20c6 B2080000 		.4byte	.LLST67
 9609 20ca 08       		.uleb128 0x8
 9610 20cb 10010000 		.4byte	.LASF69
 9611 20cf 05       		.byte	0x5
 9612 20d0 30       		.byte	0x30
 9613 20d1 25000000 		.4byte	0x25
 9614 20d5 42090000 		.4byte	.LLST68
 9615 20d9 08       		.uleb128 0x8
 9616 20da 16010000 		.4byte	.LASF70
 9617 20de 05       		.byte	0x5
 9618 20df 30       		.byte	0x30
 9619 20e0 25000000 		.4byte	0x25
 9620 20e4 C2090000 		.4byte	.LLST69
 9621 20e8 08       		.uleb128 0x8
 9622 20e9 5E000000 		.4byte	.LASF71
ARM GAS  C:\Users\HENRYA~1\AppData\Local\Temp\cceIRlNf.s 			page 190


 9623 20ed 05       		.byte	0x5
 9624 20ee 30       		.byte	0x30
 9625 20ef 25000000 		.4byte	0x25
 9626 20f3 420A0000 		.4byte	.LLST70
 9627 20f7 1D       		.uleb128 0x1d
 9628 20f8 77696A00 		.ascii	"wij\000"
 9629 20fc 05       		.byte	0x5
 9630 20fd 31       		.byte	0x31
 9631 20fe 25000000 		.4byte	0x25
 9632 2102 04       		.byte	0x4
 9633 2103 CDCC4C3F 		.4byte	0x3f4ccccd
 9634 2107 1D       		.uleb128 0x1d
 9635 2108 7600     		.ascii	"v\000"
 9636 210a 05       		.byte	0x5
 9637 210b 32       		.byte	0x32
 9638 210c 25000000 		.4byte	0x25
 9639 2110 04       		.byte	0x4
 9640 2111 CDCCCC3E 		.4byte	0x3ecccccd
 9641 2115 0C       		.uleb128 0xc
 9642 2116 46000000 		.4byte	.LVL462
 9643 211a F92F0000 		.4byte	0x2ff9
 9644 211e 0C       		.uleb128 0xc
 9645 211f 92000000 		.4byte	.LVL478
 9646 2123 F92F0000 		.4byte	0x2ff9
 9647 2127 0C       		.uleb128 0xc
 9648 2128 DC000000 		.4byte	.LVL493
 9649 212c F92F0000 		.4byte	0x2ff9
 9650 2130 0C       		.uleb128 0xc
 9651 2131 14010000 		.4byte	.LVL500
 9652 2135 F92F0000 		.4byte	0x2ff9
 9653 2139 00       		.byte	0
 9654 213a 1C       		.uleb128 0x1c
 9655 213b 8A040000 		.4byte	.LASF72
 9656 213f 05       		.byte	0x5
 9657 2140 43       		.byte	0x43
 9658 2141 25000000 		.4byte	0x25
 9659 2145 00000000 		.4byte	.LFB68
 9660 2149 28000000 		.4byte	.LFE68-.LFB68
 9661 214d 01       		.uleb128 0x1
 9662 214e 9C       		.byte	0x9c
 9663 214f 90210000 		.4byte	0x2190
 9664 2153 08       		.uleb128 0x8
 9665 2154 9F060000 		.4byte	.LASF73
 9666 2158 05       		.byte	0x5
 9667 2159 43       		.byte	0x43
 9668 215a 25000000 		.4byte	0x25
 9669 215e A60A0000 		.4byte	.LLST71
 9670 2162 08       		.uleb128 0x8
 9671 2163 D9050000 		.4byte	.LASF74
 9672 2167 05       		.byte	0x5
 9673 2168 43       		.byte	0x43
 9674 2169 25000000 		.4byte	0x25
 9675 216d D40A0000 		.4byte	.LLST72
 9676 2171 12       		.uleb128 0x12
 9677 2172 616D7000 		.ascii	"amp\000"
 9678 2176 05       		.byte	0x5
 9679 2177 43       		.byte	0x43
ARM GAS  C:\Users\HENRYA~1\AppData\Local\Temp\cceIRlNf.s 			page 191


 9680 2178 25000000 		.4byte	0x25
 9681 217c F70A0000 		.4byte	.LLST73
 9682 2180 1D       		.uleb128 0x1d
 9683 2181 617200   		.ascii	"ar\000"
 9684 2184 05       		.byte	0x5
 9685 2185 44       		.byte	0x44
 9686 2186 25000000 		.4byte	0x25
 9687 218a 04       		.byte	0x4
 9688 218b 0000F041 		.4byte	0x41f00000
 9689 218f 00       		.byte	0
 9690 2190 1C       		.uleb128 0x1c
 9691 2191 92040000 		.4byte	.LASF75
 9692 2195 05       		.byte	0x5
 9693 2196 48       		.byte	0x48
 9694 2197 25000000 		.4byte	0x25
 9695 219b 00000000 		.4byte	.LFB69
 9696 219f 28000000 		.4byte	.LFE69-.LFB69
 9697 21a3 01       		.uleb128 0x1
 9698 21a4 9C       		.byte	0x9c
 9699 21a5 E5210000 		.4byte	0x21e5
 9700 21a9 08       		.uleb128 0x8
 9701 21aa EB000000 		.4byte	.LASF76
 9702 21ae 05       		.byte	0x5
 9703 21af 48       		.byte	0x48
 9704 21b0 25000000 		.4byte	0x25
 9705 21b4 1A0B0000 		.4byte	.LLST74
 9706 21b8 08       		.uleb128 0x8
 9707 21b9 93030000 		.4byte	.LASF77
 9708 21bd 05       		.byte	0x5
 9709 21be 48       		.byte	0x48
 9710 21bf 25000000 		.4byte	0x25
 9711 21c3 480B0000 		.4byte	.LLST75
 9712 21c7 12       		.uleb128 0x12
 9713 21c8 6F6600   		.ascii	"of\000"
 9714 21cb 05       		.byte	0x5
 9715 21cc 48       		.byte	0x48
 9716 21cd 25000000 		.4byte	0x25
 9717 21d1 6B0B0000 		.4byte	.LLST76
 9718 21d5 1D       		.uleb128 0x1d
 9719 21d6 617800   		.ascii	"ax\000"
 9720 21d9 05       		.byte	0x5
 9721 21da 49       		.byte	0x49
 9722 21db 25000000 		.4byte	0x25
 9723 21df 04       		.byte	0x4
 9724 21e0 0000F041 		.4byte	0x41f00000
 9725 21e4 00       		.byte	0
 9726 21e5 1E       		.uleb128 0x1e
 9727 21e6 43504700 		.ascii	"CPG\000"
 9728 21ea 05       		.byte	0x5
 9729 21eb 4D       		.byte	0x4d
 9730 21ec 00000000 		.4byte	.LFB70
 9731 21f0 4C010000 		.4byte	.LFE70-.LFB70
 9732 21f4 01       		.uleb128 0x1
 9733 21f5 9C       		.byte	0x9c
 9734 21f6 6F220000 		.4byte	0x226f
 9735 21fa 0A       		.uleb128 0xa
 9736 21fb 42000000 		.4byte	.LVL531
ARM GAS  C:\Users\HENRYA~1\AppData\Local\Temp\cceIRlNf.s 			page 192


 9737 21ff A2200000 		.4byte	0x20a2
 9738 2203 16220000 		.4byte	0x2216
 9739 2207 0B       		.uleb128 0xb
 9740 2208 01       		.uleb128 0x1
 9741 2209 50       		.byte	0x50
 9742 220a 03       		.uleb128 0x3
 9743 220b F5       		.byte	0xf5
 9744 220c 05       		.uleb128 0x5
 9745 220d 25       		.uleb128 0x25
 9746 220e 0B       		.uleb128 0xb
 9747 220f 01       		.uleb128 0x1
 9748 2210 51       		.byte	0x51
 9749 2211 03       		.uleb128 0x3
 9750 2212 F5       		.byte	0xf5
 9751 2213 04       		.uleb128 0x4
 9752 2214 25       		.uleb128 0x25
 9753 2215 00       		.byte	0
 9754 2216 0A       		.uleb128 0xa
 9755 2217 76000000 		.4byte	.LVL536
 9756 221b 3A210000 		.4byte	0x213a
 9757 221f 34220000 		.4byte	0x2234
 9758 2223 0B       		.uleb128 0xb
 9759 2224 01       		.uleb128 0x1
 9760 2225 50       		.byte	0x50
 9761 2226 03       		.uleb128 0x3
 9762 2227 F5       		.byte	0xf5
 9763 2228 05       		.uleb128 0x5
 9764 2229 25       		.uleb128 0x25
 9765 222a 0B       		.uleb128 0xb
 9766 222b 01       		.uleb128 0x1
 9767 222c 51       		.byte	0x51
 9768 222d 05       		.uleb128 0x5
 9769 222e 91       		.byte	0x91
 9770 222f 64       		.sleb128 -28
 9771 2230 F6       		.byte	0xf6
 9772 2231 04       		.byte	0x4
 9773 2232 25       		.uleb128 0x25
 9774 2233 00       		.byte	0
 9775 2234 0A       		.uleb128 0xa
 9776 2235 AA000000 		.4byte	.LVL541
 9777 2239 90210000 		.4byte	0x2190
 9778 223d 50220000 		.4byte	0x2250
 9779 2241 0B       		.uleb128 0xb
 9780 2242 01       		.uleb128 0x1
 9781 2243 50       		.byte	0x50
 9782 2244 03       		.uleb128 0x3
 9783 2245 F5       		.byte	0xf5
 9784 2246 06       		.uleb128 0x6
 9785 2247 25       		.uleb128 0x25
 9786 2248 0B       		.uleb128 0xb
 9787 2249 01       		.uleb128 0x1
 9788 224a 51       		.byte	0x51
 9789 224b 03       		.uleb128 0x3
 9790 224c F5       		.byte	0xf5
 9791 224d 05       		.uleb128 0x5
 9792 224e 25       		.uleb128 0x25
 9793 224f 00       		.byte	0
ARM GAS  C:\Users\HENRYA~1\AppData\Local\Temp\cceIRlNf.s 			page 193


 9794 2250 0C       		.uleb128 0xc
 9795 2251 C6000000 		.4byte	.LVL545
 9796 2255 04300000 		.4byte	0x3004
 9797 2259 10       		.uleb128 0x10
 9798 225a 1C010000 		.4byte	.LVL556
 9799 225e 8A160000 		.4byte	0x168a
 9800 2262 0B       		.uleb128 0xb
 9801 2263 01       		.uleb128 0x1
 9802 2264 50       		.byte	0x50
 9803 2265 01       		.uleb128 0x1
 9804 2266 31       		.byte	0x31
 9805 2267 0B       		.uleb128 0xb
 9806 2268 01       		.uleb128 0x1
 9807 2269 52       		.byte	0x52
 9808 226a 02       		.uleb128 0x2
 9809 226b 08       		.byte	0x8
 9810 226c 64       		.byte	0x64
 9811 226d 00       		.byte	0
 9812 226e 00       		.byte	0
 9813 226f 0E       		.uleb128 0xe
 9814 2270 9A070000 		.4byte	.LASF78
 9815 2274 05       		.byte	0x5
 9816 2275 5D       		.byte	0x5d
 9817 2276 00000000 		.4byte	.LFB71
 9818 227a 30000000 		.4byte	.LFE71-.LFB71
 9819 227e 01       		.uleb128 0x1
 9820 227f 9C       		.byte	0x9c
 9821 2280 9D220000 		.4byte	0x229d
 9822 2284 0C       		.uleb128 0xc
 9823 2285 1E000000 		.4byte	.LVL557
 9824 2289 0F300000 		.4byte	0x300f
 9825 228d 10       		.uleb128 0x10
 9826 228e 24000000 		.4byte	.LVL558
 9827 2292 382F0000 		.4byte	0x2f38
 9828 2296 0B       		.uleb128 0xb
 9829 2297 01       		.uleb128 0x1
 9830 2298 50       		.byte	0x50
 9831 2299 01       		.uleb128 0x1
 9832 229a 49       		.byte	0x49
 9833 229b 00       		.byte	0
 9834 229c 00       		.byte	0
 9835 229d 0E       		.uleb128 0xe
 9836 229e D0060000 		.4byte	.LASF79
 9837 22a2 05       		.byte	0x5
 9838 22a3 67       		.byte	0x67
 9839 22a4 00000000 		.4byte	.LFB72
 9840 22a8 30000000 		.4byte	.LFE72-.LFB72
 9841 22ac 01       		.uleb128 0x1
 9842 22ad 9C       		.byte	0x9c
 9843 22ae CB220000 		.4byte	0x22cb
 9844 22b2 0C       		.uleb128 0xc
 9845 22b3 1E000000 		.4byte	.LVL559
 9846 22b7 0F300000 		.4byte	0x300f
 9847 22bb 10       		.uleb128 0x10
 9848 22bc 24000000 		.4byte	.LVL560
 9849 22c0 382F0000 		.4byte	0x2f38
 9850 22c4 0B       		.uleb128 0xb
ARM GAS  C:\Users\HENRYA~1\AppData\Local\Temp\cceIRlNf.s 			page 194


 9851 22c5 01       		.uleb128 0x1
 9852 22c6 50       		.byte	0x50
 9853 22c7 01       		.uleb128 0x1
 9854 22c8 49       		.byte	0x49
 9855 22c9 00       		.byte	0
 9856 22ca 00       		.byte	0
 9857 22cb 07       		.uleb128 0x7
 9858 22cc EC010000 		.4byte	.LASF80
 9859 22d0 05       		.byte	0x5
 9860 22d1 71       		.byte	0x71
 9861 22d2 00000000 		.4byte	.LFB73
 9862 22d6 24000000 		.4byte	.LFE73-.LFB73
 9863 22da 01       		.uleb128 0x1
 9864 22db 9C       		.byte	0x9c
 9865 22dc 26230000 		.4byte	0x2326
 9866 22e0 08       		.uleb128 0x8
 9867 22e1 45050000 		.4byte	.LASF81
 9868 22e5 05       		.byte	0x5
 9869 22e6 71       		.byte	0x71
 9870 22e7 64000000 		.4byte	0x64
 9871 22eb 8E0B0000 		.4byte	.LLST77
 9872 22ef 08       		.uleb128 0x8
 9873 22f0 13020000 		.4byte	.LASF82
 9874 22f4 05       		.byte	0x5
 9875 22f5 71       		.byte	0x71
 9876 22f6 64000000 		.4byte	0x64
 9877 22fa AF0B0000 		.4byte	.LLST78
 9878 22fe 12       		.uleb128 0x12
 9879 22ff 6C656400 		.ascii	"led\000"
 9880 2303 05       		.byte	0x5
 9881 2304 71       		.byte	0x71
 9882 2305 64000000 		.4byte	0x64
 9883 2309 D00B0000 		.4byte	.LLST79
 9884 230d 0C       		.uleb128 0xc
 9885 230e 16000000 		.4byte	.LVL563
 9886 2312 0F300000 		.4byte	0x300f
 9887 2316 10       		.uleb128 0x10
 9888 2317 1C000000 		.4byte	.LVL564
 9889 231b 382F0000 		.4byte	0x2f38
 9890 231f 0B       		.uleb128 0xb
 9891 2320 01       		.uleb128 0x1
 9892 2321 50       		.byte	0x50
 9893 2322 01       		.uleb128 0x1
 9894 2323 49       		.byte	0x49
 9895 2324 00       		.byte	0
 9896 2325 00       		.byte	0
 9897 2326 1F       		.uleb128 0x1f
 9898 2327 29000000 		.4byte	.LASF83
 9899 232b 05       		.byte	0x5
 9900 232c 7B       		.byte	0x7b
 9901 232d 00000000 		.4byte	.LFB74
 9902 2331 54000000 		.4byte	.LFE74-.LFB74
 9903 2335 01       		.uleb128 0x1
 9904 2336 9C       		.byte	0x9c
 9905 2337 A2230000 		.4byte	0x23a2
 9906 233b 08       		.uleb128 0x8
 9907 233c 45050000 		.4byte	.LASF81
ARM GAS  C:\Users\HENRYA~1\AppData\Local\Temp\cceIRlNf.s 			page 195


 9908 2340 05       		.byte	0x5
 9909 2341 7B       		.byte	0x7b
 9910 2342 64000000 		.4byte	0x64
 9911 2346 F10B0000 		.4byte	.LLST80
 9912 234a 08       		.uleb128 0x8
 9913 234b AC080000 		.4byte	.LASF84
 9914 234f 05       		.byte	0x5
 9915 2350 7B       		.byte	0x7b
 9916 2351 64000000 		.4byte	0x64
 9917 2355 120C0000 		.4byte	.LLST81
 9918 2359 0F       		.uleb128 0xf
 9919 235a 84040000 		.4byte	.LASF85
 9920 235e 05       		.byte	0x5
 9921 235f 7C       		.byte	0x7c
 9922 2360 8A000000 		.4byte	0x8a
 9923 2364 330C0000 		.4byte	.LLST82
 9924 2368 0F       		.uleb128 0xf
 9925 2369 6E040000 		.4byte	.LASF86
 9926 236d 05       		.byte	0x5
 9927 236e 7D       		.byte	0x7d
 9928 236f 8A000000 		.4byte	0x8a
 9929 2373 540C0000 		.4byte	.LLST83
 9930 2377 0F       		.uleb128 0xf
 9931 2378 91050000 		.4byte	.LASF87
 9932 237c 05       		.byte	0x5
 9933 237d 88       		.byte	0x88
 9934 237e 64000000 		.4byte	0x64
 9935 2382 770C0000 		.4byte	.LLST84
 9936 2386 0C       		.uleb128 0xc
 9937 2387 36000000 		.4byte	.LVL568
 9938 238b 0F300000 		.4byte	0x300f
 9939 238f 0C       		.uleb128 0xc
 9940 2390 3A000000 		.4byte	.LVL569
 9941 2394 7F200000 		.4byte	0x207f
 9942 2398 0C       		.uleb128 0xc
 9943 2399 46000000 		.4byte	.LVL572
 9944 239d 382F0000 		.4byte	0x2f38
 9945 23a1 00       		.byte	0
 9946 23a2 0E       		.uleb128 0xe
 9947 23a3 5B050000 		.4byte	.LASF88
 9948 23a7 05       		.byte	0x5
 9949 23a8 8D       		.byte	0x8d
 9950 23a9 00000000 		.4byte	.LFB75
 9951 23ad 50010000 		.4byte	.LFE75-.LFB75
 9952 23b1 01       		.uleb128 0x1
 9953 23b2 9C       		.byte	0x9c
 9954 23b3 51250000 		.4byte	0x2551
 9955 23b7 20       		.uleb128 0x20
 9956 23b8 696E6900 		.ascii	"ini\000"
 9957 23bc 05       		.byte	0x5
 9958 23bd 8E       		.byte	0x8e
 9959 23be 5C000000 		.4byte	.L144
 9960 23c2 20       		.uleb128 0x20
 9961 23c3 656E6400 		.ascii	"end\000"
 9962 23c7 05       		.byte	0x5
 9963 23c8 C2       		.byte	0xc2
 9964 23c9 20010000 		.4byte	.L145
ARM GAS  C:\Users\HENRYA~1\AppData\Local\Temp\cceIRlNf.s 			page 196


 9965 23cd 21       		.uleb128 0x21
 9966 23ce 22010000 		.4byte	.LASF89
 9967 23d2 05       		.byte	0x5
 9968 23d3 A3       		.byte	0xa3
 9969 23d4 1E010000 		.4byte	.L149
 9970 23d8 0C       		.uleb128 0xc
 9971 23d9 06000000 		.4byte	.LVL574
 9972 23dd E2060000 		.4byte	0x6e2
 9973 23e1 0C       		.uleb128 0xc
 9974 23e2 18000000 		.4byte	.LVL575
 9975 23e6 1B300000 		.4byte	0x301b
 9976 23ea 0C       		.uleb128 0xc
 9977 23eb 2E000000 		.4byte	.LVL576
 9978 23ef 7A070000 		.4byte	0x77a
 9979 23f3 0A       		.uleb128 0xa
 9980 23f4 38000000 		.4byte	.LVL577
 9981 23f8 962F0000 		.4byte	0x2f96
 9982 23fc 06240000 		.4byte	0x2406
 9983 2400 0B       		.uleb128 0xb
 9984 2401 01       		.uleb128 0x1
 9985 2402 50       		.byte	0x50
 9986 2403 01       		.uleb128 0x1
 9987 2404 31       		.byte	0x31
 9988 2405 00       		.byte	0
 9989 2406 0C       		.uleb128 0xc
 9990 2407 3C000000 		.4byte	.LVL578
 9991 240b 7A070000 		.4byte	0x77a
 9992 240f 0A       		.uleb128 0xa
 9993 2410 44000000 		.4byte	.LVL579
 9994 2414 382F0000 		.4byte	0x2f38
 9995 2418 22240000 		.4byte	0x2422
 9996 241c 0B       		.uleb128 0xb
 9997 241d 01       		.uleb128 0x1
 9998 241e 50       		.byte	0x50
 9999 241f 01       		.uleb128 0x1
 10000 2420 34       		.byte	0x34
 10001 2421 00       		.byte	0
 10002 2422 0A       		.uleb128 0xa
 10003 2423 4A000000 		.4byte	.LVL580
 10004 2427 962F0000 		.4byte	0x2f96
 10005 242b 35240000 		.4byte	0x2435
 10006 242f 0B       		.uleb128 0xb
 10007 2430 01       		.uleb128 0x1
 10008 2431 50       		.byte	0x50
 10009 2432 01       		.uleb128 0x1
 10010 2433 30       		.byte	0x30
 10011 2434 00       		.byte	0
 10012 2435 0C       		.uleb128 0xc
 10013 2436 4E000000 		.4byte	.LVL581
 10014 243a 7A070000 		.4byte	0x77a
 10015 243e 0A       		.uleb128 0xa
 10016 243f 56000000 		.4byte	.LVL582
 10017 2443 382F0000 		.4byte	0x2f38
 10018 2447 51240000 		.4byte	0x2451
 10019 244b 0B       		.uleb128 0xb
 10020 244c 01       		.uleb128 0x1
 10021 244d 50       		.byte	0x50
ARM GAS  C:\Users\HENRYA~1\AppData\Local\Temp\cceIRlNf.s 			page 197


 10022 244e 01       		.uleb128 0x1
 10023 244f 34       		.byte	0x34
 10024 2450 00       		.byte	0
 10025 2451 0C       		.uleb128 0xc
 10026 2452 5A000000 		.4byte	.LVL583
 10027 2456 7A070000 		.4byte	0x77a
 10028 245a 0A       		.uleb128 0xa
 10029 245b 6A000000 		.4byte	.LVL584
 10030 245f 672F0000 		.4byte	0x2f67
 10031 2463 6D240000 		.4byte	0x246d
 10032 2467 0B       		.uleb128 0xb
 10033 2468 01       		.uleb128 0x1
 10034 2469 50       		.byte	0x50
 10035 246a 01       		.uleb128 0x1
 10036 246b 31       		.byte	0x31
 10037 246c 00       		.byte	0
 10038 246d 0A       		.uleb128 0xa
 10039 246e 70000000 		.4byte	.LVL585
 10040 2472 26300000 		.4byte	0x3026
 10041 2476 80240000 		.4byte	0x2480
 10042 247a 0B       		.uleb128 0xb
 10043 247b 01       		.uleb128 0x1
 10044 247c 50       		.byte	0x50
 10045 247d 01       		.uleb128 0x1
 10046 247e 31       		.byte	0x31
 10047 247f 00       		.byte	0
 10048 2480 0A       		.uleb128 0xa
 10049 2481 78000000 		.4byte	.LVL586
 10050 2485 382F0000 		.4byte	0x2f38
 10051 2489 95240000 		.4byte	0x2495
 10052 248d 0B       		.uleb128 0xb
 10053 248e 01       		.uleb128 0x1
 10054 248f 50       		.byte	0x50
 10055 2490 03       		.uleb128 0x3
 10056 2491 0A       		.byte	0xa
 10057 2492 D007     		.2byte	0x7d0
 10058 2494 00       		.byte	0
 10059 2495 0C       		.uleb128 0xc
 10060 2496 8A000000 		.4byte	.LVL587
 10061 249a 9D220000 		.4byte	0x229d
 10062 249e 0A       		.uleb128 0xa
 10063 249f 92000000 		.4byte	.LVL588
 10064 24a3 382F0000 		.4byte	0x2f38
 10065 24a7 B2240000 		.4byte	0x24b2
 10066 24ab 0B       		.uleb128 0xb
 10067 24ac 01       		.uleb128 0x1
 10068 24ad 50       		.byte	0x50
 10069 24ae 02       		.uleb128 0x2
 10070 24af 08       		.byte	0x8
 10071 24b0 4B       		.byte	0x4b
 10072 24b1 00       		.byte	0
 10073 24b2 0A       		.uleb128 0xa
 10074 24b3 A0000000 		.4byte	.LVL589
 10075 24b7 26300000 		.4byte	0x3026
 10076 24bb C5240000 		.4byte	0x24c5
 10077 24bf 0B       		.uleb128 0xb
 10078 24c0 01       		.uleb128 0x1
ARM GAS  C:\Users\HENRYA~1\AppData\Local\Temp\cceIRlNf.s 			page 198


 10079 24c1 50       		.byte	0x50
 10080 24c2 01       		.uleb128 0x1
 10081 24c3 30       		.byte	0x30
 10082 24c4 00       		.byte	0
 10083 24c5 0A       		.uleb128 0xa
 10084 24c6 B2000000 		.4byte	.LVL590
 10085 24ca CB220000 		.4byte	0x22cb
 10086 24ce DD240000 		.4byte	0x24dd
 10087 24d2 0B       		.uleb128 0xb
 10088 24d3 01       		.uleb128 0x1
 10089 24d4 50       		.byte	0x50
 10090 24d5 01       		.uleb128 0x1
 10091 24d6 30       		.byte	0x30
 10092 24d7 0B       		.uleb128 0xb
 10093 24d8 01       		.uleb128 0x1
 10094 24d9 52       		.byte	0x52
 10095 24da 01       		.uleb128 0x1
 10096 24db 3E       		.byte	0x3e
 10097 24dc 00       		.byte	0
 10098 24dd 0A       		.uleb128 0xa
 10099 24de C0000000 		.4byte	.LVL591
 10100 24e2 382F0000 		.4byte	0x2f38
 10101 24e6 F0240000 		.4byte	0x24f0
 10102 24ea 0B       		.uleb128 0xb
 10103 24eb 01       		.uleb128 0x1
 10104 24ec 50       		.byte	0x50
 10105 24ed 01       		.uleb128 0x1
 10106 24ee 35       		.byte	0x35
 10107 24ef 00       		.byte	0
 10108 24f0 0A       		.uleb128 0xa
 10109 24f1 CA000000 		.4byte	.LVL592
 10110 24f5 CB220000 		.4byte	0x22cb
 10111 24f9 08250000 		.4byte	0x2508
 10112 24fd 0B       		.uleb128 0xb
 10113 24fe 01       		.uleb128 0x1
 10114 24ff 50       		.byte	0x50
 10115 2500 01       		.uleb128 0x1
 10116 2501 30       		.byte	0x30
 10117 2502 0B       		.uleb128 0xb
 10118 2503 01       		.uleb128 0x1
 10119 2504 52       		.byte	0x52
 10120 2505 01       		.uleb128 0x1
 10121 2506 3E       		.byte	0x3e
 10122 2507 00       		.byte	0
 10123 2508 0C       		.uleb128 0xc
 10124 2509 CE000000 		.4byte	.LVL593
 10125 250d 6F220000 		.4byte	0x226f
 10126 2511 0A       		.uleb128 0xa
 10127 2512 FC000000 		.4byte	.LVL594
 10128 2516 CB220000 		.4byte	0x22cb
 10129 251a 29250000 		.4byte	0x2529
 10130 251e 0B       		.uleb128 0xb
 10131 251f 01       		.uleb128 0x1
 10132 2520 50       		.byte	0x50
 10133 2521 01       		.uleb128 0x1
 10134 2522 31       		.byte	0x31
 10135 2523 0B       		.uleb128 0xb
ARM GAS  C:\Users\HENRYA~1\AppData\Local\Temp\cceIRlNf.s 			page 199


 10136 2524 01       		.uleb128 0x1
 10137 2525 52       		.byte	0x52
 10138 2526 01       		.uleb128 0x1
 10139 2527 3E       		.byte	0x3e
 10140 2528 00       		.byte	0
 10141 2529 0A       		.uleb128 0xa
 10142 252a 16010000 		.4byte	.LVL595
 10143 252e CB220000 		.4byte	0x22cb
 10144 2532 41250000 		.4byte	0x2541
 10145 2536 0B       		.uleb128 0xb
 10146 2537 01       		.uleb128 0x1
 10147 2538 50       		.byte	0x50
 10148 2539 01       		.uleb128 0x1
 10149 253a 30       		.byte	0x30
 10150 253b 0B       		.uleb128 0xb
 10151 253c 01       		.uleb128 0x1
 10152 253d 52       		.byte	0x52
 10153 253e 01       		.uleb128 0x1
 10154 253f 3E       		.byte	0x3e
 10155 2540 00       		.byte	0
 10156 2541 10       		.uleb128 0x10
 10157 2542 1E010000 		.4byte	.LVL596
 10158 2546 26300000 		.4byte	0x3026
 10159 254a 0B       		.uleb128 0xb
 10160 254b 01       		.uleb128 0x1
 10161 254c 50       		.byte	0x50
 10162 254d 01       		.uleb128 0x1
 10163 254e 30       		.byte	0x30
 10164 254f 00       		.byte	0
 10165 2550 00       		.byte	0
 10166 2551 22       		.uleb128 0x22
 10167 2552 A6030000 		.4byte	.LASF90
 10168 2556 05       		.byte	0x5
 10169 2557 C5       		.byte	0xc5
 10170 2558 00000000 		.4byte	.LFB76
 10171 255c 4C020000 		.4byte	.LFE76-.LFB76
 10172 2560 01       		.uleb128 0x1
 10173 2561 9C       		.byte	0x9c
 10174 2562 A4260000 		.4byte	0x26a4
 10175 2566 23       		.uleb128 0x23
 10176 2567 81080000 		.4byte	.LASF91
 10177 256b 05       		.byte	0x5
 10178 256c 4501     		.2byte	0x145
 10179 256e 14020000 		.4byte	.L158
 10180 2572 0A       		.uleb128 0xa
 10181 2573 4E000000 		.4byte	.LVL597
 10182 2577 382F0000 		.4byte	0x2f38
 10183 257b 86250000 		.4byte	0x2586
 10184 257f 0B       		.uleb128 0xb
 10185 2580 01       		.uleb128 0x1
 10186 2581 50       		.byte	0x50
 10187 2582 02       		.uleb128 0x2
 10188 2583 08       		.byte	0x8
 10189 2584 64       		.byte	0x64
 10190 2585 00       		.byte	0
 10191 2586 0A       		.uleb128 0xa
 10192 2587 54000000 		.4byte	.LVL598
ARM GAS  C:\Users\HENRYA~1\AppData\Local\Temp\cceIRlNf.s 			page 200


 10193 258b 2D2F0000 		.4byte	0x2f2d
 10194 258f 99250000 		.4byte	0x2599
 10195 2593 0B       		.uleb128 0xb
 10196 2594 01       		.uleb128 0x1
 10197 2595 50       		.byte	0x50
 10198 2596 01       		.uleb128 0x1
 10199 2597 31       		.byte	0x31
 10200 2598 00       		.byte	0
 10201 2599 0A       		.uleb128 0xa
 10202 259a 5A000000 		.4byte	.LVL599
 10203 259e 382F0000 		.4byte	0x2f38
 10204 25a2 AD250000 		.4byte	0x25ad
 10205 25a6 0B       		.uleb128 0xb
 10206 25a7 01       		.uleb128 0x1
 10207 25a8 50       		.byte	0x50
 10208 25a9 02       		.uleb128 0x2
 10209 25aa 08       		.byte	0x8
 10210 25ab 64       		.byte	0x64
 10211 25ac 00       		.byte	0
 10212 25ad 0A       		.uleb128 0xa
 10213 25ae 60000000 		.4byte	.LVL600
 10214 25b2 2D2F0000 		.4byte	0x2f2d
 10215 25b6 C0250000 		.4byte	0x25c0
 10216 25ba 0B       		.uleb128 0xb
 10217 25bb 01       		.uleb128 0x1
 10218 25bc 50       		.byte	0x50
 10219 25bd 01       		.uleb128 0x1
 10220 25be 30       		.byte	0x30
 10221 25bf 00       		.byte	0
 10222 25c0 0C       		.uleb128 0xc
 10223 25c1 8C000000 		.4byte	.LVL601
 10224 25c5 0F300000 		.4byte	0x300f
 10225 25c9 0A       		.uleb128 0xa
 10226 25ca 92000000 		.4byte	.LVL602
 10227 25ce 2D2F0000 		.4byte	0x2f2d
 10228 25d2 DC250000 		.4byte	0x25dc
 10229 25d6 0B       		.uleb128 0xb
 10230 25d7 01       		.uleb128 0x1
 10231 25d8 50       		.byte	0x50
 10232 25d9 01       		.uleb128 0x1
 10233 25da 31       		.byte	0x31
 10234 25db 00       		.byte	0
 10235 25dc 0A       		.uleb128 0xa
 10236 25dd AC000000 		.4byte	.LVL603
 10237 25e1 8A160000 		.4byte	0x168a
 10238 25e5 F0250000 		.4byte	0x25f0
 10239 25e9 0B       		.uleb128 0xb
 10240 25ea 01       		.uleb128 0x1
 10241 25eb 52       		.byte	0x52
 10242 25ec 02       		.uleb128 0x2
 10243 25ed 08       		.byte	0x8
 10244 25ee 64       		.byte	0x64
 10245 25ef 00       		.byte	0
 10246 25f0 0A       		.uleb128 0xa
 10247 25f1 C2000000 		.4byte	.LVL604
 10248 25f5 2D2F0000 		.4byte	0x2f2d
 10249 25f9 03260000 		.4byte	0x2603
ARM GAS  C:\Users\HENRYA~1\AppData\Local\Temp\cceIRlNf.s 			page 201


 10250 25fd 0B       		.uleb128 0xb
 10251 25fe 01       		.uleb128 0x1
 10252 25ff 50       		.byte	0x50
 10253 2600 01       		.uleb128 0x1
 10254 2601 31       		.byte	0x31
 10255 2602 00       		.byte	0
 10256 2603 0A       		.uleb128 0xa
 10257 2604 CA000000 		.4byte	.LVL605
 10258 2608 2D2F0000 		.4byte	0x2f2d
 10259 260c 16260000 		.4byte	0x2616
 10260 2610 0B       		.uleb128 0xb
 10261 2611 01       		.uleb128 0x1
 10262 2612 50       		.byte	0x50
 10263 2613 01       		.uleb128 0x1
 10264 2614 30       		.byte	0x30
 10265 2615 00       		.byte	0
 10266 2616 0A       		.uleb128 0xa
 10267 2617 E0000000 		.4byte	.LVL606
 10268 261b 672F0000 		.4byte	0x2f67
 10269 261f 29260000 		.4byte	0x2629
 10270 2623 0B       		.uleb128 0xb
 10271 2624 01       		.uleb128 0x1
 10272 2625 50       		.byte	0x50
 10273 2626 01       		.uleb128 0x1
 10274 2627 31       		.byte	0x31
 10275 2628 00       		.byte	0
 10276 2629 0A       		.uleb128 0xa
 10277 262a E8000000 		.4byte	.LVL607
 10278 262e 672F0000 		.4byte	0x2f67
 10279 2632 3C260000 		.4byte	0x263c
 10280 2636 0B       		.uleb128 0xb
 10281 2637 01       		.uleb128 0x1
 10282 2638 50       		.byte	0x50
 10283 2639 01       		.uleb128 0x1
 10284 263a 30       		.byte	0x30
 10285 263b 00       		.byte	0
 10286 263c 0A       		.uleb128 0xa
 10287 263d FE000000 		.4byte	.LVL608
 10288 2641 962F0000 		.4byte	0x2f96
 10289 2645 4F260000 		.4byte	0x264f
 10290 2649 0B       		.uleb128 0xb
 10291 264a 01       		.uleb128 0x1
 10292 264b 50       		.byte	0x50
 10293 264c 01       		.uleb128 0x1
 10294 264d 31       		.byte	0x31
 10295 264e 00       		.byte	0
 10296 264f 0A       		.uleb128 0xa
 10297 2650 06010000 		.4byte	.LVL609
 10298 2654 962F0000 		.4byte	0x2f96
 10299 2658 62260000 		.4byte	0x2662
 10300 265c 0B       		.uleb128 0xb
 10301 265d 01       		.uleb128 0x1
 10302 265e 50       		.byte	0x50
 10303 265f 01       		.uleb128 0x1
 10304 2660 30       		.byte	0x30
 10305 2661 00       		.byte	0
 10306 2662 0A       		.uleb128 0xa
ARM GAS  C:\Users\HENRYA~1\AppData\Local\Temp\cceIRlNf.s 			page 202


 10307 2663 1A010000 		.4byte	.LVL610
 10308 2667 26300000 		.4byte	0x3026
 10309 266b 75260000 		.4byte	0x2675
 10310 266f 0B       		.uleb128 0xb
 10311 2670 01       		.uleb128 0x1
 10312 2671 50       		.byte	0x50
 10313 2672 01       		.uleb128 0x1
 10314 2673 31       		.byte	0x31
 10315 2674 00       		.byte	0
 10316 2675 0A       		.uleb128 0xa
 10317 2676 22010000 		.4byte	.LVL611
 10318 267a 26300000 		.4byte	0x3026
 10319 267e 88260000 		.4byte	0x2688
 10320 2682 0B       		.uleb128 0xb
 10321 2683 01       		.uleb128 0x1
 10322 2684 50       		.byte	0x50
 10323 2685 01       		.uleb128 0x1
 10324 2686 30       		.byte	0x30
 10325 2687 00       		.byte	0
 10326 2688 0C       		.uleb128 0xc
 10327 2689 A8010000 		.4byte	.LVL612
 10328 268d 382F0000 		.4byte	0x2f38
 10329 2691 0C       		.uleb128 0xc
 10330 2692 10020000 		.4byte	.LVL614
 10331 2696 26230000 		.4byte	0x2326
 10332 269a 0C       		.uleb128 0xc
 10333 269b 14020000 		.4byte	.LVL615
 10334 269f E5210000 		.4byte	0x21e5
 10335 26a3 00       		.byte	0
 10336 26a4 14       		.uleb128 0x14
 10337 26a5 BD080000 		.4byte	.LASF92
 10338 26a9 05       		.byte	0x5
 10339 26aa 4E01     		.2byte	0x14e
 10340 26ac 00000000 		.4byte	.LFB77
 10341 26b0 7C000000 		.4byte	.LFE77-.LFB77
 10342 26b4 01       		.uleb128 0x1
 10343 26b5 9C       		.byte	0x9c
 10344 26b6 18270000 		.4byte	0x2718
 10345 26ba 0A       		.uleb128 0xa
 10346 26bb 0A000000 		.4byte	.LVL616
 10347 26bf 2D2F0000 		.4byte	0x2f2d
 10348 26c3 CD260000 		.4byte	0x26cd
 10349 26c7 0B       		.uleb128 0xb
 10350 26c8 01       		.uleb128 0x1
 10351 26c9 50       		.byte	0x50
 10352 26ca 01       		.uleb128 0x1
 10353 26cb 30       		.byte	0x30
 10354 26cc 00       		.byte	0
 10355 26cd 0A       		.uleb128 0xa
 10356 26ce 10000000 		.4byte	.LVL617
 10357 26d2 382F0000 		.4byte	0x2f38
 10358 26d6 E1260000 		.4byte	0x26e1
 10359 26da 0B       		.uleb128 0xb
 10360 26db 01       		.uleb128 0x1
 10361 26dc 50       		.byte	0x50
 10362 26dd 02       		.uleb128 0x2
 10363 26de 08       		.byte	0x8
ARM GAS  C:\Users\HENRYA~1\AppData\Local\Temp\cceIRlNf.s 			page 203


 10364 26df 32       		.byte	0x32
 10365 26e0 00       		.byte	0
 10366 26e1 0A       		.uleb128 0xa
 10367 26e2 16000000 		.4byte	.LVL618
 10368 26e6 2D2F0000 		.4byte	0x2f2d
 10369 26ea F4260000 		.4byte	0x26f4
 10370 26ee 0B       		.uleb128 0xb
 10371 26ef 01       		.uleb128 0x1
 10372 26f0 50       		.byte	0x50
 10373 26f1 01       		.uleb128 0x1
 10374 26f2 31       		.byte	0x31
 10375 26f3 00       		.byte	0
 10376 26f4 0A       		.uleb128 0xa
 10377 26f5 1C000000 		.4byte	.LVL619
 10378 26f9 382F0000 		.4byte	0x2f38
 10379 26fd 08270000 		.4byte	0x2708
 10380 2701 0B       		.uleb128 0xb
 10381 2702 01       		.uleb128 0x1
 10382 2703 50       		.byte	0x50
 10383 2704 02       		.uleb128 0x2
 10384 2705 08       		.byte	0x8
 10385 2706 32       		.byte	0x32
 10386 2707 00       		.byte	0
 10387 2708 10       		.uleb128 0x10
 10388 2709 2A000000 		.4byte	.LVL620
 10389 270d 2D2F0000 		.4byte	0x2f2d
 10390 2711 0B       		.uleb128 0xb
 10391 2712 01       		.uleb128 0x1
 10392 2713 50       		.byte	0x50
 10393 2714 01       		.uleb128 0x1
 10394 2715 30       		.byte	0x30
 10395 2716 00       		.byte	0
 10396 2717 00       		.byte	0
 10397 2718 14       		.uleb128 0x14
 10398 2719 A8010000 		.4byte	.LASF93
 10399 271d 05       		.byte	0x5
 10400 271e 5B01     		.2byte	0x15b
 10401 2720 00000000 		.4byte	.LFB78
 10402 2724 24000000 		.4byte	.LFE78-.LFB78
 10403 2728 01       		.uleb128 0x1
 10404 2729 9C       		.byte	0x9c
 10405 272a 46270000 		.4byte	0x2746
 10406 272e 24       		.uleb128 0x24
 10407 272f 706F7300 		.ascii	"pos\000"
 10408 2733 05       		.byte	0x5
 10409 2734 5C01     		.2byte	0x15c
 10410 2736 64000000 		.4byte	0x64
 10411 273a 01       		.uleb128 0x1
 10412 273b 50       		.byte	0x50
 10413 273c 0C       		.uleb128 0xc
 10414 273d 06000000 		.4byte	.LVL621
 10415 2741 7A0A0000 		.4byte	0xa7a
 10416 2745 00       		.byte	0
 10417 2746 25       		.uleb128 0x25
 10418 2747 4D020000 		.4byte	.LASF94
 10419 274b 05       		.byte	0x5
 10420 274c 6501     		.2byte	0x165
ARM GAS  C:\Users\HENRYA~1\AppData\Local\Temp\cceIRlNf.s 			page 204


 10421 274e 00000000 		.4byte	.LFB79
 10422 2752 D0000000 		.4byte	.LFE79-.LFB79
 10423 2756 01       		.uleb128 0x1
 10424 2757 9C       		.byte	0x9c
 10425 2758 8D270000 		.4byte	0x278d
 10426 275c 19       		.uleb128 0x19
 10427 275d 08050000 		.4byte	.LASF95
 10428 2761 05       		.byte	0x5
 10429 2762 6601     		.2byte	0x166
 10430 2764 64000000 		.4byte	0x64
 10431 2768 960C0000 		.4byte	.LLST85
 10432 276c 19       		.uleb128 0x19
 10433 276d 01050000 		.4byte	.LASF96
 10434 2771 05       		.byte	0x5
 10435 2772 6701     		.2byte	0x167
 10436 2774 64000000 		.4byte	0x64
 10437 2778 5E0D0000 		.4byte	.LLST86
 10438 277c 19       		.uleb128 0x19
 10439 277d 69000000 		.4byte	.LASF97
 10440 2781 05       		.byte	0x5
 10441 2782 6801     		.2byte	0x168
 10442 2784 64000000 		.4byte	0x64
 10443 2788 0B0E0000 		.4byte	.LLST87
 10444 278c 00       		.byte	0
 10445 278d 14       		.uleb128 0x14
 10446 278e 73000000 		.4byte	.LASF98
 10447 2792 05       		.byte	0x5
 10448 2793 9901     		.2byte	0x199
 10449 2795 00000000 		.4byte	.LFB80
 10450 2799 44000000 		.4byte	.LFE80-.LFB80
 10451 279d 01       		.uleb128 0x1
 10452 279e 9C       		.byte	0x9c
 10453 279f B6270000 		.4byte	0x27b6
 10454 27a3 0C       		.uleb128 0xc
 10455 27a4 24000000 		.4byte	.LVL667
 10456 27a8 46270000 		.4byte	0x2746
 10457 27ac 0C       		.uleb128 0xc
 10458 27ad 32000000 		.4byte	.LVL668
 10459 27b1 46270000 		.4byte	0x2746
 10460 27b5 00       		.byte	0
 10461 27b6 07       		.uleb128 0x7
 10462 27b7 BB010000 		.4byte	.LASF99
 10463 27bb 06       		.byte	0x6
 10464 27bc 05       		.byte	0x5
 10465 27bd 00000000 		.4byte	.LFB82
 10466 27c1 1C000000 		.4byte	.LFE82-.LFB82
 10467 27c5 01       		.uleb128 0x1
 10468 27c6 9C       		.byte	0x9c
 10469 27c7 09280000 		.4byte	0x2809
 10470 27cb 0A       		.uleb128 0xa
 10471 27cc 08000000 		.4byte	.LVL669
 10472 27d0 962F0000 		.4byte	0x2f96
 10473 27d4 DE270000 		.4byte	0x27de
 10474 27d8 0B       		.uleb128 0xb
 10475 27d9 01       		.uleb128 0x1
 10476 27da 50       		.byte	0x50
 10477 27db 01       		.uleb128 0x1
ARM GAS  C:\Users\HENRYA~1\AppData\Local\Temp\cceIRlNf.s 			page 205


 10478 27dc 31       		.byte	0x31
 10479 27dd 00       		.byte	0
 10480 27de 0C       		.uleb128 0xc
 10481 27df 0C000000 		.4byte	.LVL670
 10482 27e3 31300000 		.4byte	0x3031
 10483 27e7 0C       		.uleb128 0xc
 10484 27e8 10000000 		.4byte	.LVL671
 10485 27ec 51250000 		.4byte	0x2551
 10486 27f0 0C       		.uleb128 0xc
 10487 27f1 14000000 		.4byte	.LVL672
 10488 27f5 8D270000 		.4byte	0x278d
 10489 27f9 10       		.uleb128 0x10
 10490 27fa 1A000000 		.4byte	.LVL673
 10491 27fe 962F0000 		.4byte	0x2f96
 10492 2802 0B       		.uleb128 0xb
 10493 2803 01       		.uleb128 0x1
 10494 2804 50       		.byte	0x50
 10495 2805 01       		.uleb128 0x1
 10496 2806 30       		.byte	0x30
 10497 2807 00       		.byte	0
 10498 2808 00       		.byte	0
 10499 2809 26       		.uleb128 0x26
 10500 280a 88030000 		.4byte	.LASF100
 10501 280e 05       		.byte	0x5
 10502 280f AB01     		.2byte	0x1ab
 10503 2811 00000000 		.4byte	.LFB81
 10504 2815 3C000000 		.4byte	.LFE81-.LFB81
 10505 2819 01       		.uleb128 0x1
 10506 281a 9C       		.byte	0x9c
 10507 281b 9C280000 		.4byte	0x289c
 10508 281f 17       		.uleb128 0x17
 10509 2820 FC040000 		.4byte	.LASF101
 10510 2824 05       		.byte	0x5
 10511 2825 AB01     		.2byte	0x1ab
 10512 2827 6B000000 		.4byte	0x6b
 10513 282b EE0E0000 		.4byte	.LLST88
 10514 282f 16       		.uleb128 0x16
 10515 2830 6D6F7600 		.ascii	"mov\000"
 10516 2834 05       		.byte	0x5
 10517 2835 AB01     		.2byte	0x1ab
 10518 2837 64000000 		.4byte	0x64
 10519 283b 350F0000 		.4byte	.LLST89
 10520 283f 19       		.uleb128 0x19
 10521 2840 9A030000 		.4byte	.LASF102
 10522 2844 05       		.byte	0x5
 10523 2845 AC01     		.2byte	0x1ac
 10524 2847 9D000000 		.4byte	0x9d
 10525 284b 6F0F0000 		.4byte	.LLST90
 10526 284f 19       		.uleb128 0x19
 10527 2850 A0030000 		.4byte	.LASF103
 10528 2854 05       		.byte	0x5
 10529 2855 AC01     		.2byte	0x1ac
 10530 2857 9D000000 		.4byte	0x9d
 10531 285b B80F0000 		.4byte	.LLST91
 10532 285f 0A       		.uleb128 0xa
 10533 2860 14000000 		.4byte	.LVL679
 10534 2864 8A160000 		.4byte	0x168a
ARM GAS  C:\Users\HENRYA~1\AppData\Local\Temp\cceIRlNf.s 			page 206


 10535 2868 83280000 		.4byte	0x2883
 10536 286c 0B       		.uleb128 0xb
 10537 286d 01       		.uleb128 0x1
 10538 286e 50       		.byte	0x50
 10539 286f 05       		.uleb128 0x5
 10540 2870 F3       		.byte	0xf3
 10541 2871 01       		.uleb128 0x1
 10542 2872 50       		.byte	0x50
 10543 2873 23       		.byte	0x23
 10544 2874 01       		.uleb128 0x1
 10545 2875 0B       		.uleb128 0xb
 10546 2876 01       		.uleb128 0x1
 10547 2877 51       		.byte	0x51
 10548 2878 03       		.uleb128 0x3
 10549 2879 F3       		.byte	0xf3
 10550 287a 01       		.uleb128 0x1
 10551 287b 51       		.byte	0x51
 10552 287c 0B       		.uleb128 0xb
 10553 287d 01       		.uleb128 0x1
 10554 287e 52       		.byte	0x52
 10555 287f 02       		.uleb128 0x2
 10556 2880 08       		.byte	0x8
 10557 2881 64       		.byte	0x64
 10558 2882 00       		.byte	0
 10559 2883 0C       		.uleb128 0xc
 10560 2884 2E000000 		.4byte	.LVL682
 10561 2888 0F300000 		.4byte	0x300f
 10562 288c 10       		.uleb128 0x10
 10563 288d 34000000 		.4byte	.LVL683
 10564 2891 382F0000 		.4byte	0x2f38
 10565 2895 0B       		.uleb128 0xb
 10566 2896 01       		.uleb128 0x1
 10567 2897 50       		.byte	0x50
 10568 2898 01       		.uleb128 0x1
 10569 2899 49       		.byte	0x49
 10570 289a 00       		.byte	0
 10571 289b 00       		.byte	0
 10572 289c 0D       		.uleb128 0xd
 10573 289d EF020000 		.4byte	.LASF104
 10574 28a1 06       		.byte	0x6
 10575 28a2 0D       		.byte	0xd
 10576 28a3 64000000 		.4byte	0x64
 10577 28a7 00000000 		.4byte	.LFB83
 10578 28ab 70000000 		.4byte	.LFE83-.LFB83
 10579 28af 01       		.uleb128 0x1
 10580 28b0 9C       		.byte	0x9c
 10581 28b1 D9280000 		.4byte	0x28d9
 10582 28b5 12       		.uleb128 0x12
 10583 28b6 6100     		.ascii	"a\000"
 10584 28b8 06       		.byte	0x6
 10585 28b9 0D       		.byte	0xd
 10586 28ba 64000000 		.4byte	0x64
 10587 28be D90F0000 		.4byte	.LLST92
 10588 28c2 27       		.uleb128 0x27
 10589 28c3 6200     		.ascii	"b\000"
 10590 28c5 06       		.byte	0x6
 10591 28c6 0D       		.byte	0xd
ARM GAS  C:\Users\HENRYA~1\AppData\Local\Temp\cceIRlNf.s 			page 207


 10592 28c7 64000000 		.4byte	0x64
 10593 28cb 01       		.uleb128 0x1
 10594 28cc 51       		.byte	0x51
 10595 28cd 27       		.uleb128 0x27
 10596 28ce 6300     		.ascii	"c\000"
 10597 28d0 06       		.byte	0x6
 10598 28d1 0D       		.byte	0xd
 10599 28d2 64000000 		.4byte	0x64
 10600 28d6 01       		.uleb128 0x1
 10601 28d7 52       		.byte	0x52
 10602 28d8 00       		.byte	0
 10603 28d9 28       		.uleb128 0x28
 10604 28da FB070000 		.4byte	.LASF105
 10605 28de 06       		.byte	0x6
 10606 28df 19       		.byte	0x19
 10607 28e0 64000000 		.4byte	0x64
 10608 28e4 00000000 		.4byte	.LFB84
 10609 28e8 3C010000 		.4byte	.LFE84-.LFB84
 10610 28ec 01       		.uleb128 0x1
 10611 28ed 9C       		.byte	0x9c
 10612 28ee 772A0000 		.4byte	0x2a77
 10613 28f2 0A       		.uleb128 0xa
 10614 28f3 0A000000 		.4byte	.LVL687
 10615 28f7 2D2F0000 		.4byte	0x2f2d
 10616 28fb 05290000 		.4byte	0x2905
 10617 28ff 0B       		.uleb128 0xb
 10618 2900 01       		.uleb128 0x1
 10619 2901 50       		.byte	0x50
 10620 2902 01       		.uleb128 0x1
 10621 2903 30       		.byte	0x30
 10622 2904 00       		.byte	0
 10623 2905 0A       		.uleb128 0xa
 10624 2906 10000000 		.4byte	.LVL688
 10625 290a 672F0000 		.4byte	0x2f67
 10626 290e 18290000 		.4byte	0x2918
 10627 2912 0B       		.uleb128 0xb
 10628 2913 01       		.uleb128 0x1
 10629 2914 50       		.byte	0x50
 10630 2915 01       		.uleb128 0x1
 10631 2916 30       		.byte	0x30
 10632 2917 00       		.byte	0
 10633 2918 0A       		.uleb128 0xa
 10634 2919 16000000 		.4byte	.LVL689
 10635 291d 962F0000 		.4byte	0x2f96
 10636 2921 2B290000 		.4byte	0x292b
 10637 2925 0B       		.uleb128 0xb
 10638 2926 01       		.uleb128 0x1
 10639 2927 50       		.byte	0x50
 10640 2928 01       		.uleb128 0x1
 10641 2929 30       		.byte	0x30
 10642 292a 00       		.byte	0
 10643 292b 0A       		.uleb128 0xa
 10644 292c 1C000000 		.4byte	.LVL690
 10645 2930 26300000 		.4byte	0x3026
 10646 2934 3E290000 		.4byte	0x293e
 10647 2938 0B       		.uleb128 0xb
 10648 2939 01       		.uleb128 0x1
ARM GAS  C:\Users\HENRYA~1\AppData\Local\Temp\cceIRlNf.s 			page 208


 10649 293a 50       		.byte	0x50
 10650 293b 01       		.uleb128 0x1
 10651 293c 30       		.byte	0x30
 10652 293d 00       		.byte	0
 10653 293e 0C       		.uleb128 0xc
 10654 293f 20000000 		.4byte	.LVL691
 10655 2943 3D300000 		.4byte	0x303d
 10656 2947 0C       		.uleb128 0xc
 10657 2948 24000000 		.4byte	.LVL692
 10658 294c 48300000 		.4byte	0x3048
 10659 2950 0C       		.uleb128 0xc
 10660 2951 28000000 		.4byte	.LVL693
 10661 2955 53300000 		.4byte	0x3053
 10662 2959 0C       		.uleb128 0xc
 10663 295a 2C000000 		.4byte	.LVL694
 10664 295e 5E300000 		.4byte	0x305e
 10665 2962 0C       		.uleb128 0xc
 10666 2963 30000000 		.4byte	.LVL695
 10667 2967 69300000 		.4byte	0x3069
 10668 296b 0C       		.uleb128 0xc
 10669 296c 34000000 		.4byte	.LVL696
 10670 2970 74300000 		.4byte	0x3074
 10671 2974 0C       		.uleb128 0xc
 10672 2975 38000000 		.4byte	.LVL697
 10673 2979 7F300000 		.4byte	0x307f
 10674 297d 0C       		.uleb128 0xc
 10675 297e 3C000000 		.4byte	.LVL698
 10676 2982 8A300000 		.4byte	0x308a
 10677 2986 0A       		.uleb128 0xa
 10678 2987 42000000 		.4byte	.LVL699
 10679 298b 382F0000 		.4byte	0x2f38
 10680 298f 9A290000 		.4byte	0x299a
 10681 2993 0B       		.uleb128 0xb
 10682 2994 01       		.uleb128 0x1
 10683 2995 50       		.byte	0x50
 10684 2996 02       		.uleb128 0x2
 10685 2997 08       		.byte	0x8
 10686 2998 64       		.byte	0x64
 10687 2999 00       		.byte	0
 10688 299a 0C       		.uleb128 0xc
 10689 299b 46000000 		.4byte	.LVL700
 10690 299f ED010000 		.4byte	0x1ed
 10691 29a3 0C       		.uleb128 0xc
 10692 29a4 4A000000 		.4byte	.LVL701
 10693 29a8 85050000 		.4byte	0x585
 10694 29ac 0C       		.uleb128 0xc
 10695 29ad 4E000000 		.4byte	.LVL702
 10696 29b1 1D090000 		.4byte	0x91d
 10697 29b5 0C       		.uleb128 0xc
 10698 29b6 52000000 		.4byte	.LVL703
 10699 29ba 18270000 		.4byte	0x2718
 10700 29be 0C       		.uleb128 0xc
 10701 29bf 56000000 		.4byte	.LVL704
 10702 29c3 95300000 		.4byte	0x3095
 10703 29c7 0A       		.uleb128 0xa
 10704 29c8 5C000000 		.4byte	.LVL705
 10705 29cc A0300000 		.4byte	0x30a0
ARM GAS  C:\Users\HENRYA~1\AppData\Local\Temp\cceIRlNf.s 			page 209


 10706 29d0 DE290000 		.4byte	0x29de
 10707 29d4 0B       		.uleb128 0xb
 10708 29d5 01       		.uleb128 0x1
 10709 29d6 50       		.byte	0x50
 10710 29d7 05       		.uleb128 0x5
 10711 29d8 03       		.byte	0x3
 10712 29d9 00000000 		.4byte	interrutcan
 10713 29dd 00       		.byte	0
 10714 29de 0C       		.uleb128 0xc
 10715 29df 66000000 		.4byte	.LVL706
 10716 29e3 AB300000 		.4byte	0x30ab
 10717 29e7 0C       		.uleb128 0xc
 10718 29e8 6A000000 		.4byte	.LVL707
 10719 29ec B6300000 		.4byte	0x30b6
 10720 29f0 0A       		.uleb128 0xa
 10721 29f1 70000000 		.4byte	.LVL708
 10722 29f5 CD2F0000 		.4byte	0x2fcd
 10723 29f9 032A0000 		.4byte	0x2a03
 10724 29fd 0B       		.uleb128 0xb
 10725 29fe 01       		.uleb128 0x1
 10726 29ff 50       		.byte	0x50
 10727 2a00 01       		.uleb128 0x1
 10728 2a01 33       		.byte	0x33
 10729 2a02 00       		.byte	0
 10730 2a03 0C       		.uleb128 0xc
 10731 2a04 74000000 		.4byte	.LVL709
 10732 2a08 C1300000 		.4byte	0x30c1
 10733 2a0c 0C       		.uleb128 0xc
 10734 2a0d 78000000 		.4byte	.LVL710
 10735 2a11 A2230000 		.4byte	0x23a2
 10736 2a15 0C       		.uleb128 0xc
 10737 2a16 7C000000 		.4byte	.LVL711
 10738 2a1a A4260000 		.4byte	0x26a4
 10739 2a1e 0A       		.uleb128 0xa
 10740 2a1f 8A000000 		.4byte	.LVL712
 10741 2a23 26230000 		.4byte	0x2326
 10742 2a27 362A0000 		.4byte	0x2a36
 10743 2a2b 0B       		.uleb128 0xb
 10744 2a2c 01       		.uleb128 0x1
 10745 2a2d 50       		.byte	0x50
 10746 2a2e 01       		.uleb128 0x1
 10747 2a2f 30       		.byte	0x30
 10748 2a30 0B       		.uleb128 0xb
 10749 2a31 01       		.uleb128 0x1
 10750 2a32 51       		.byte	0x51
 10751 2a33 01       		.uleb128 0x1
 10752 2a34 31       		.byte	0x31
 10753 2a35 00       		.byte	0
 10754 2a36 0C       		.uleb128 0xc
 10755 2a37 B4000000 		.4byte	.LVL716
 10756 2a3b 4A030000 		.4byte	0x34a
 10757 2a3f 0C       		.uleb128 0xc
 10758 2a40 CC000000 		.4byte	.LVL717
 10759 2a44 E2060000 		.4byte	0x6e2
 10760 2a48 0A       		.uleb128 0xa
 10761 2a49 D8000000 		.4byte	.LVL718
 10762 2a4d FA1C0000 		.4byte	0x1cfa
ARM GAS  C:\Users\HENRYA~1\AppData\Local\Temp\cceIRlNf.s 			page 210


 10763 2a51 5B2A0000 		.4byte	0x2a5b
 10764 2a55 0B       		.uleb128 0xb
 10765 2a56 01       		.uleb128 0x1
 10766 2a57 50       		.byte	0x50
 10767 2a58 01       		.uleb128 0x1
 10768 2a59 31       		.byte	0x31
 10769 2a5a 00       		.byte	0
 10770 2a5b 0C       		.uleb128 0xc
 10771 2a5c F2000000 		.4byte	.LVL719
 10772 2a60 7A0A0000 		.4byte	0xa7a
 10773 2a64 0C       		.uleb128 0xc
 10774 2a65 12010000 		.4byte	.LVL720
 10775 2a69 9C280000 		.4byte	0x289c
 10776 2a6d 0C       		.uleb128 0xc
 10777 2a6e 1A010000 		.4byte	.LVL721
 10778 2a72 CC300000 		.4byte	0x30cc
 10779 2a76 00       		.byte	0
 10780 2a77 29       		.uleb128 0x29
 10781 2a78 6900     		.ascii	"i\000"
 10782 2a7a 01       		.byte	0x1
 10783 2a7b 04       		.byte	0x4
 10784 2a7c 64000000 		.4byte	0x64
 10785 2a80 05       		.uleb128 0x5
 10786 2a81 03       		.byte	0x3
 10787 2a82 00000000 		.4byte	i
 10788 2a86 29       		.uleb128 0x29
 10789 2a87 696900   		.ascii	"ii\000"
 10790 2a8a 02       		.byte	0x2
 10791 2a8b 04       		.byte	0x4
 10792 2a8c 64000000 		.4byte	0x64
 10793 2a90 05       		.uleb128 0x5
 10794 2a91 03       		.byte	0x3
 10795 2a92 00000000 		.4byte	ii
 10796 2a96 29       		.uleb128 0x29
 10797 2a97 69696900 		.ascii	"iii\000"
 10798 2a9b 03       		.byte	0x3
 10799 2a9c 04       		.byte	0x4
 10800 2a9d 64000000 		.4byte	0x64
 10801 2aa1 05       		.uleb128 0x5
 10802 2aa2 03       		.byte	0x3
 10803 2aa3 00000000 		.4byte	iii
 10804 2aa7 2A       		.uleb128 0x2a
 10805 2aa8 1A050000 		.4byte	.LASF106
 10806 2aac 04       		.byte	0x4
 10807 2aad 05       		.byte	0x5
 10808 2aae 33000000 		.4byte	0x33
 10809 2ab2 05       		.uleb128 0x5
 10810 2ab3 03       		.byte	0x3
 10811 2ab4 00000000 		.4byte	Checksum
 10812 2ab8 2A       		.uleb128 0x2a
 10813 2ab9 A2000000 		.4byte	.LASF107
 10814 2abd 04       		.byte	0x4
 10815 2abe 06       		.byte	0x6
 10816 2abf 33000000 		.4byte	0x33
 10817 2ac3 05       		.uleb128 0x5
 10818 2ac4 03       		.byte	0x3
 10819 2ac5 00000000 		.4byte	Incoming_Byte
ARM GAS  C:\Users\HENRYA~1\AppData\Local\Temp\cceIRlNf.s 			page 211


 10820 2ac9 2A       		.uleb128 0x2a
 10821 2aca 02020000 		.4byte	.LASF108
 10822 2ace 04       		.byte	0x4
 10823 2acf 06       		.byte	0x6
 10824 2ad0 33000000 		.4byte	0x33
 10825 2ad4 05       		.uleb128 0x5
 10826 2ad5 03       		.byte	0x3
 10827 2ad6 00000000 		.4byte	Temperature_Byte
 10828 2ada 2A       		.uleb128 0x2a
 10829 2adb 7F000000 		.4byte	.LASF109
 10830 2adf 05       		.byte	0x5
 10831 2ae0 28       		.byte	0x28
 10832 2ae1 33000000 		.4byte	0x33
 10833 2ae5 05       		.uleb128 0x5
 10834 2ae6 03       		.byte	0x3
 10835 2ae7 00000000 		.4byte	Error_Byte
 10836 2aeb 2A       		.uleb128 0x2a
 10837 2aec 61020000 		.4byte	.LASF110
 10838 2af0 05       		.byte	0x5
 10839 2af1 28       		.byte	0x28
 10840 2af2 33000000 		.4byte	0x33
 10841 2af6 05       		.uleb128 0x5
 10842 2af7 03       		.byte	0x3
 10843 2af8 00000000 		.4byte	Incoming_Byte2
 10844 2afc 2A       		.uleb128 0x2a
 10845 2afd 44080000 		.4byte	.LASF111
 10846 2b01 04       		.byte	0x4
 10847 2b02 06       		.byte	0x6
 10848 2b03 33000000 		.4byte	0x33
 10849 2b07 05       		.uleb128 0x5
 10850 2b08 03       		.byte	0x3
 10851 2b09 00000000 		.4byte	Position_Long_Byte
 10852 2b0d 2A       		.uleb128 0x2a
 10853 2b0e B0030000 		.4byte	.LASF112
 10854 2b12 04       		.byte	0x4
 10855 2b13 06       		.byte	0x6
 10856 2b14 33000000 		.4byte	0x33
 10857 2b18 05       		.uleb128 0x5
 10858 2b19 03       		.byte	0x3
 10859 2b1a 00000000 		.4byte	Position_High_Byte
 10860 2b1e 2A       		.uleb128 0x2a
 10861 2b1f F3000000 		.4byte	.LASF113
 10862 2b23 04       		.byte	0x4
 10863 2b24 06       		.byte	0x6
 10864 2b25 33000000 		.4byte	0x33
 10865 2b29 05       		.uleb128 0x5
 10866 2b2a 03       		.byte	0x3
 10867 2b2b 00000000 		.4byte	Position_Low_Byte
 10868 2b2f 2A       		.uleb128 0x2a
 10869 2b30 92060000 		.4byte	.LASF114
 10870 2b34 04       		.byte	0x4
 10871 2b35 07       		.byte	0x7
 10872 2b36 64000000 		.4byte	0x64
 10873 2b3a 05       		.uleb128 0x5
 10874 2b3b 03       		.byte	0x3
 10875 2b3c 00000000 		.4byte	Time_Counter
 10876 2b40 29       		.uleb128 0x29
ARM GAS  C:\Users\HENRYA~1\AppData\Local\Temp\cceIRlNf.s 			page 212


 10877 2b41 706900   		.ascii	"pi\000"
 10878 2b44 05       		.byte	0x5
 10879 2b45 0A       		.byte	0xa
 10880 2b46 25000000 		.4byte	0x25
 10881 2b4a 05       		.uleb128 0x5
 10882 2b4b 03       		.byte	0x3
 10883 2b4c 00000000 		.4byte	pi
 10884 2b50 2A       		.uleb128 0x2a
 10885 2b51 8A010000 		.4byte	.LASF68
 10886 2b55 05       		.byte	0x5
 10887 2b56 0B       		.byte	0xb
 10888 2b57 25000000 		.4byte	0x25
 10889 2b5b 05       		.uleb128 0x5
 10890 2b5c 03       		.byte	0x3
 10891 2b5d 00000000 		.4byte	teta
 10892 2b61 2A       		.uleb128 0x2a
 10893 2b62 10010000 		.4byte	.LASF69
 10894 2b66 05       		.byte	0x5
 10895 2b67 0C       		.byte	0xc
 10896 2b68 25000000 		.4byte	0x25
 10897 2b6c 05       		.uleb128 0x5
 10898 2b6d 03       		.byte	0x3
 10899 2b6e 00000000 		.4byte	teta2
 10900 2b72 2A       		.uleb128 0x2a
 10901 2b73 16010000 		.4byte	.LASF70
 10902 2b77 05       		.byte	0x5
 10903 2b78 0D       		.byte	0xd
 10904 2b79 25000000 		.4byte	0x25
 10905 2b7d 05       		.uleb128 0x5
 10906 2b7e 03       		.byte	0x3
 10907 2b7f 00000000 		.4byte	teta3
 10908 2b83 2A       		.uleb128 0x2a
 10909 2b84 5E000000 		.4byte	.LASF71
 10910 2b88 05       		.byte	0x5
 10911 2b89 0E       		.byte	0xe
 10912 2b8a 25000000 		.4byte	0x25
 10913 2b8e 05       		.uleb128 0x5
 10914 2b8f 03       		.byte	0x3
 10915 2b90 00000000 		.4byte	phase
 10916 2b94 2A       		.uleb128 0x2a
 10917 2b95 D9050000 		.4byte	.LASF74
 10918 2b99 05       		.byte	0x5
 10919 2b9a 0F       		.byte	0xf
 10920 2b9b 25000000 		.4byte	0x25
 10921 2b9f 05       		.uleb128 0x5
 10922 2ba0 03       		.byte	0x3
 10923 2ba1 00000000 		.4byte	ampli
 10924 2ba5 2A       		.uleb128 0x2a
 10925 2ba6 5D040000 		.4byte	.LASF115
 10926 2baa 05       		.byte	0x5
 10927 2bab 10       		.byte	0x10
 10928 2bac 25000000 		.4byte	0x25
 10929 2bb0 05       		.uleb128 0x5
 10930 2bb1 03       		.byte	0x3
 10931 2bb2 00000000 		.4byte	amp2
 10932 2bb6 2A       		.uleb128 0x2a
 10933 2bb7 9F060000 		.4byte	.LASF73
ARM GAS  C:\Users\HENRYA~1\AppData\Local\Temp\cceIRlNf.s 			page 213


 10934 2bbb 05       		.byte	0x5
 10935 2bbc 11       		.byte	0x11
 10936 2bbd 25000000 		.4byte	0x25
 10937 2bc1 05       		.uleb128 0x5
 10938 2bc2 03       		.byte	0x3
 10939 2bc3 00000000 		.4byte	dampli
 10940 2bc7 29       		.uleb128 0x29
 10941 2bc8 6F663200 		.ascii	"of2\000"
 10942 2bcc 05       		.byte	0x5
 10943 2bcd 12       		.byte	0x12
 10944 2bce 25000000 		.4byte	0x25
 10945 2bd2 05       		.uleb128 0x5
 10946 2bd3 03       		.byte	0x3
 10947 2bd4 00000000 		.4byte	of2
 10948 2bd8 2A       		.uleb128 0x2a
 10949 2bd9 93030000 		.4byte	.LASF77
 10950 2bdd 05       		.byte	0x5
 10951 2bde 13       		.byte	0x13
 10952 2bdf 25000000 		.4byte	0x25
 10953 2be3 05       		.uleb128 0x5
 10954 2be4 03       		.byte	0x3
 10955 2be5 00000000 		.4byte	offset
 10956 2be9 2A       		.uleb128 0x2a
 10957 2bea EB000000 		.4byte	.LASF76
 10958 2bee 05       		.byte	0x5
 10959 2bef 14       		.byte	0x14
 10960 2bf0 25000000 		.4byte	0x25
 10961 2bf4 05       		.uleb128 0x5
 10962 2bf5 03       		.byte	0x3
 10963 2bf6 00000000 		.4byte	doffset
 10964 2bfa 29       		.uleb128 0x29
 10965 2bfb 647400   		.ascii	"dt\000"
 10966 2bfe 05       		.byte	0x5
 10967 2bff 15       		.byte	0x15
 10968 2c00 25000000 		.4byte	0x25
 10969 2c04 05       		.uleb128 0x5
 10970 2c05 03       		.byte	0x3
 10971 2c06 00000000 		.4byte	dt
 10972 2c0a 29       		.uleb128 0x29
 10973 2c0b 73616C00 		.ascii	"sal\000"
 10974 2c0f 05       		.byte	0x5
 10975 2c10 16       		.byte	0x16
 10976 2c11 25000000 		.4byte	0x25
 10977 2c15 05       		.uleb128 0x5
 10978 2c16 03       		.byte	0x3
 10979 2c17 00000000 		.4byte	sal
 10980 2c1b 29       		.uleb128 0x29
 10981 2c1c 76656C00 		.ascii	"vel\000"
 10982 2c20 05       		.byte	0x5
 10983 2c21 17       		.byte	0x17
 10984 2c22 25000000 		.4byte	0x25
 10985 2c26 05       		.uleb128 0x5
 10986 2c27 03       		.byte	0x3
 10987 2c28 00000000 		.4byte	vel
 10988 2c2c 2A       		.uleb128 0x2a
 10989 2c2d FC010000 		.4byte	.LASF116
 10990 2c31 05       		.byte	0x5
ARM GAS  C:\Users\HENRYA~1\AppData\Local\Temp\cceIRlNf.s 			page 214


 10991 2c32 18       		.byte	0x18
 10992 2c33 25000000 		.4byte	0x25
 10993 2c37 05       		.uleb128 0x5
 10994 2c38 03       		.byte	0x3
 10995 2c39 00000000 		.4byte	theta
 10996 2c3d 2A       		.uleb128 0x2a
 10997 2c3e 48070000 		.4byte	.LASF117
 10998 2c42 05       		.byte	0x5
 10999 2c43 18       		.byte	0x18
 11000 2c44 25000000 		.4byte	0x25
 11001 2c48 05       		.uleb128 0x5
 11002 2c49 03       		.byte	0x3
 11003 2c4a 00000000 		.4byte	theta_velocidad
 11004 2c4e 29       		.uleb128 0x29
 11005 2c4f 7800     		.ascii	"x\000"
 11006 2c51 05       		.byte	0x5
 11007 2c52 18       		.byte	0x18
 11008 2c53 25000000 		.4byte	0x25
 11009 2c57 05       		.uleb128 0x5
 11010 2c58 03       		.byte	0x3
 11011 2c59 00000000 		.4byte	x
 11012 2c5d 29       		.uleb128 0x29
 11013 2c5e 7900     		.ascii	"y\000"
 11014 2c60 05       		.byte	0x5
 11015 2c61 18       		.byte	0x18
 11016 2c62 25000000 		.4byte	0x25
 11017 2c66 05       		.uleb128 0x5
 11018 2c67 03       		.byte	0x3
 11019 2c68 00000000 		.4byte	y
 11020 2c6c 29       		.uleb128 0x29
 11021 2c6d 6600     		.ascii	"f\000"
 11022 2c6f 05       		.byte	0x5
 11023 2c70 19       		.byte	0x19
 11024 2c71 64000000 		.4byte	0x64
 11025 2c75 05       		.uleb128 0x5
 11026 2c76 03       		.byte	0x3
 11027 2c77 00000000 		.4byte	f
 11028 2c7b 29       		.uleb128 0x29
 11029 2c7c 7600     		.ascii	"v\000"
 11030 2c7e 05       		.byte	0x5
 11031 2c7f 19       		.byte	0x19
 11032 2c80 64000000 		.4byte	0x64
 11033 2c84 05       		.uleb128 0x5
 11034 2c85 03       		.byte	0x3
 11035 2c86 00000000 		.4byte	v
 11036 2c8a 2A       		.uleb128 0x2a
 11037 2c8b 23020000 		.4byte	.LASF118
 11038 2c8f 05       		.byte	0x5
 11039 2c90 19       		.byte	0x19
 11040 2c91 64000000 		.4byte	0x64
 11041 2c95 05       		.uleb128 0x5
 11042 2c96 03       		.byte	0x3
 11043 2c97 00000000 		.4byte	almacena_salida
 11044 2c9b 2A       		.uleb128 0x2a
 11045 2c9c 23050000 		.4byte	.LASF119
 11046 2ca0 05       		.byte	0x5
 11047 2ca1 1A       		.byte	0x1a
ARM GAS  C:\Users\HENRYA~1\AppData\Local\Temp\cceIRlNf.s 			page 215


 11048 2ca2 64000000 		.4byte	0x64
 11049 2ca6 05       		.uleb128 0x5
 11050 2ca7 03       		.byte	0x3
 11051 2ca8 00000000 		.4byte	Seleccion
 11052 2cac 2A       		.uleb128 0x2a
 11053 2cad 92000000 		.4byte	.LASF120
 11054 2cb1 05       		.byte	0x5
 11055 2cb2 1B       		.byte	0x1b
 11056 2cb3 64000000 		.4byte	0x64
 11057 2cb7 05       		.uleb128 0x5
 11058 2cb8 03       		.byte	0x3
 11059 2cb9 00000000 		.4byte	Condicion_Start
 11060 2cbd 29       		.uleb128 0x29
 11061 2cbe 616E7400 		.ascii	"ant\000"
 11062 2cc2 05       		.byte	0x5
 11063 2cc3 1C       		.byte	0x1c
 11064 2cc4 64000000 		.4byte	0x64
 11065 2cc8 05       		.uleb128 0x5
 11066 2cc9 03       		.byte	0x3
 11067 2cca 00000000 		.4byte	ant
 11068 2cce 29       		.uleb128 0x29
 11069 2ccf 7400     		.ascii	"t\000"
 11070 2cd1 05       		.byte	0x5
 11071 2cd2 1C       		.byte	0x1c
 11072 2cd3 64000000 		.4byte	0x64
 11073 2cd7 05       		.uleb128 0x5
 11074 2cd8 03       		.byte	0x3
 11075 2cd9 00000000 		.4byte	t
 11076 2cdd 29       		.uleb128 0x29
 11077 2cde 506400   		.ascii	"Pd\000"
 11078 2ce1 05       		.byte	0x5
 11079 2ce2 1C       		.byte	0x1c
 11080 2ce3 64000000 		.4byte	0x64
 11081 2ce7 05       		.uleb128 0x5
 11082 2ce8 03       		.byte	0x3
 11083 2ce9 00000000 		.4byte	Pd
 11084 2ced 29       		.uleb128 0x29
 11085 2cee 507400   		.ascii	"Pt\000"
 11086 2cf1 05       		.byte	0x5
 11087 2cf2 1C       		.byte	0x1c
 11088 2cf3 64000000 		.4byte	0x64
 11089 2cf7 05       		.uleb128 0x5
 11090 2cf8 03       		.byte	0x3
 11091 2cf9 00000000 		.4byte	Pt
 11092 2cfd 2A       		.uleb128 0x2a
 11093 2cfe 08060000 		.4byte	.LASF121
 11094 2d02 05       		.byte	0x5
 11095 2d03 1C       		.byte	0x1c
 11096 2d04 64000000 		.4byte	0x64
 11097 2d08 05       		.uleb128 0x5
 11098 2d09 03       		.byte	0x3
 11099 2d0a 00000000 		.4byte	cstatus
 11100 2d0e 29       		.uleb128 0x29
 11101 2d0f 4D00     		.ascii	"M\000"
 11102 2d11 05       		.byte	0x5
 11103 2d12 1C       		.byte	0x1c
 11104 2d13 64000000 		.4byte	0x64
ARM GAS  C:\Users\HENRYA~1\AppData\Local\Temp\cceIRlNf.s 			page 216


 11105 2d17 05       		.uleb128 0x5
 11106 2d18 03       		.byte	0x3
 11107 2d19 00000000 		.4byte	M
 11108 2d1d 29       		.uleb128 0x29
 11109 2d1e 50746100 		.ascii	"Pta\000"
 11110 2d22 05       		.byte	0x5
 11111 2d23 1C       		.byte	0x1c
 11112 2d24 64000000 		.4byte	0x64
 11113 2d28 05       		.uleb128 0x5
 11114 2d29 03       		.byte	0x3
 11115 2d2a 00000000 		.4byte	Pta
 11116 2d2e 2A       		.uleb128 0x2a
 11117 2d2f C4050000 		.4byte	.LASF122
 11118 2d33 05       		.byte	0x5
 11119 2d34 1C       		.byte	0x1c
 11120 2d35 64000000 		.4byte	0x64
 11121 2d39 05       		.uleb128 0x5
 11122 2d3a 03       		.byte	0x3
 11123 2d3b 00000000 		.4byte	errc
 11124 2d3f 2A       		.uleb128 0x2a
 11125 2d40 7A040000 		.4byte	.LASF123
 11126 2d44 05       		.byte	0x5
 11127 2d45 1C       		.byte	0x1c
 11128 2d46 64000000 		.4byte	0x64
 11129 2d4a 05       		.uleb128 0x5
 11130 2d4b 03       		.byte	0x3
 11131 2d4c 00000000 		.4byte	PositionM
 11132 2d50 2A       		.uleb128 0x2a
 11133 2d51 0F050000 		.4byte	.LASF124
 11134 2d55 05       		.byte	0x5
 11135 2d56 1C       		.byte	0x1c
 11136 2d57 64000000 		.4byte	0x64
 11137 2d5b 05       		.uleb128 0x5
 11138 2d5c 03       		.byte	0x3
 11139 2d5d 00000000 		.4byte	Teta_Can_l
 11140 2d61 2A       		.uleb128 0x2a
 11141 2d62 2D050000 		.4byte	.LASF125
 11142 2d66 05       		.byte	0x5
 11143 2d67 1C       		.byte	0x1c
 11144 2d68 64000000 		.4byte	0x64
 11145 2d6c 05       		.uleb128 0x5
 11146 2d6d 03       		.byte	0x3
 11147 2d6e 00000000 		.4byte	Teta_Can_r
 11148 2d72 2A       		.uleb128 0x2a
 11149 2d73 B4040000 		.4byte	.LASF126
 11150 2d77 05       		.byte	0x5
 11151 2d78 1C       		.byte	0x1c
 11152 2d79 64000000 		.4byte	0x64
 11153 2d7d 05       		.uleb128 0x5
 11154 2d7e 03       		.byte	0x3
 11155 2d7f 00000000 		.4byte	cantidadM
 11156 2d83 2A       		.uleb128 0x2a
 11157 2d84 AA070000 		.4byte	.LASF127
 11158 2d88 05       		.byte	0x5
 11159 2d89 1C       		.byte	0x1c
 11160 2d8a 64000000 		.4byte	0x64
 11161 2d8e 05       		.uleb128 0x5
ARM GAS  C:\Users\HENRYA~1\AppData\Local\Temp\cceIRlNf.s 			page 217


 11162 2d8f 03       		.byte	0x3
 11163 2d90 00000000 		.4byte	Contador
 11164 2d94 2A       		.uleb128 0x2a
 11165 2d95 87020000 		.4byte	.LASF128
 11166 2d99 05       		.byte	0x5
 11167 2d9a 1C       		.byte	0x1c
 11168 2d9b 64000000 		.4byte	0x64
 11169 2d9f 05       		.uleb128 0x5
 11170 2da0 03       		.byte	0x3
 11171 2da1 00000000 		.4byte	Orientacion_H
 11172 2da5 2A       		.uleb128 0x2a
 11173 2da6 B1020000 		.4byte	.LASF129
 11174 2daa 05       		.byte	0x5
 11175 2dab 1C       		.byte	0x1c
 11176 2dac 64000000 		.4byte	0x64
 11177 2db0 05       		.uleb128 0x5
 11178 2db1 03       		.byte	0x3
 11179 2db2 00000000 		.4byte	Orientacion_V
 11180 2db6 29       		.uleb128 0x29
 11181 2db7 64697200 		.ascii	"dir\000"
 11182 2dbb 05       		.byte	0x5
 11183 2dbc 1D       		.byte	0x1d
 11184 2dbd 33000000 		.4byte	0x33
 11185 2dc1 05       		.uleb128 0x5
 11186 2dc2 03       		.byte	0x3
 11187 2dc3 00000000 		.4byte	dir
 11188 2dc7 29       		.uleb128 0x29
 11189 2dc8 50646100 		.ascii	"Pda\000"
 11190 2dcc 05       		.byte	0x5
 11191 2dcd 1E       		.byte	0x1e
 11192 2dce 6B000000 		.4byte	0x6b
 11193 2dd2 05       		.uleb128 0x5
 11194 2dd3 03       		.byte	0x3
 11195 2dd4 00000000 		.4byte	Pda
 11196 2dd8 2A       		.uleb128 0x2a
 11197 2dd9 99050000 		.4byte	.LASF130
 11198 2ddd 05       		.byte	0x5
 11199 2dde 1F       		.byte	0x1f
 11200 2ddf 72000000 		.4byte	0x72
 11201 2de3 05       		.uleb128 0x5
 11202 2de4 03       		.byte	0x3
 11203 2de5 00000000 		.4byte	Mydir
 11204 2de9 2A       		.uleb128 0x2a
 11205 2dea 00060000 		.4byte	.LASF131
 11206 2dee 05       		.byte	0x5
 11207 2def 20       		.byte	0x20
 11208 2df0 72000000 		.4byte	0x72
 11209 2df4 05       		.uleb128 0x5
 11210 2df5 03       		.byte	0x3
 11211 2df6 00000000 		.4byte	dirasig
 11212 2dfa 2A       		.uleb128 0x2a
 11213 2dfb 8A000000 		.4byte	.LASF132
 11214 2dff 05       		.byte	0x5
 11215 2e00 21       		.byte	0x21
 11216 2e01 72000000 		.4byte	0x72
 11217 2e05 05       		.uleb128 0x5
 11218 2e06 03       		.byte	0x3
ARM GAS  C:\Users\HENRYA~1\AppData\Local\Temp\cceIRlNf.s 			page 218


 11219 2e07 00000000 		.4byte	sumadir
 11220 2e0b 2A       		.uleb128 0x2a
 11221 2e0c 68070000 		.4byte	.LASF133
 11222 2e10 05       		.byte	0x5
 11223 2e11 22       		.byte	0x22
 11224 2e12 B2000000 		.4byte	0xb2
 11225 2e16 05       		.uleb128 0x5
 11226 2e17 03       		.byte	0x3
 11227 2e18 00000000 		.4byte	dato_enviado
 11228 2e1c 2A       		.uleb128 0x2a
 11229 2e1d 1A000000 		.4byte	.LASF134
 11230 2e21 05       		.byte	0x5
 11231 2e22 23       		.byte	0x23
 11232 2e23 B2000000 		.4byte	0xb2
 11233 2e27 05       		.uleb128 0x5
 11234 2e28 03       		.byte	0x3
 11235 2e29 00000000 		.4byte	dato_enviado_2
 11236 2e2d 2A       		.uleb128 0x2a
 11237 2e2e 76050000 		.4byte	.LASF135
 11238 2e32 05       		.byte	0x5
 11239 2e33 24       		.byte	0x24
 11240 2e34 B2000000 		.4byte	0xb2
 11241 2e38 05       		.uleb128 0x5
 11242 2e39 03       		.byte	0x3
 11243 2e3a 00000000 		.4byte	mailbox0
 11244 2e3e 2A       		.uleb128 0x2a
 11245 2e3f 7F050000 		.4byte	.LASF136
 11246 2e43 05       		.byte	0x5
 11247 2e44 25       		.byte	0x25
 11248 2e45 B2000000 		.4byte	0xb2
 11249 2e49 05       		.uleb128 0x5
 11250 2e4a 03       		.byte	0x3
 11251 2e4b 00000000 		.4byte	mailbox1
 11252 2e4f 2A       		.uleb128 0x2a
 11253 2e50 88050000 		.4byte	.LASF137
 11254 2e54 05       		.byte	0x5
 11255 2e55 26       		.byte	0x26
 11256 2e56 B2000000 		.4byte	0xb2
 11257 2e5a 05       		.uleb128 0x5
 11258 2e5b 03       		.byte	0x3
 11259 2e5c 00000000 		.4byte	mailbox2
 11260 2e60 29       		.uleb128 0x29
 11261 2e61 73726600 		.ascii	"srf\000"
 11262 2e65 05       		.byte	0x5
 11263 2e66 27       		.byte	0x27
 11264 2e67 25000000 		.4byte	0x25
 11265 2e6b 05       		.uleb128 0x5
 11266 2e6c 03       		.byte	0x3
 11267 2e6d 00000000 		.4byte	srf
 11268 2e71 29       		.uleb128 0x29
 11269 2e72 74656D00 		.ascii	"tem\000"
 11270 2e76 05       		.byte	0x5
 11271 2e77 28       		.byte	0x28
 11272 2e78 33000000 		.4byte	0x33
 11273 2e7c 05       		.uleb128 0x5
 11274 2e7d 03       		.byte	0x3
 11275 2e7e 00000000 		.4byte	tem
ARM GAS  C:\Users\HENRYA~1\AppData\Local\Temp\cceIRlNf.s 			page 219


 11276 2e82 29       		.uleb128 0x29
 11277 2e83 74657300 		.ascii	"tes\000"
 11278 2e87 05       		.byte	0x5
 11279 2e88 28       		.byte	0x28
 11280 2e89 33000000 		.4byte	0x33
 11281 2e8d 05       		.uleb128 0x5
 11282 2e8e 03       		.byte	0x3
 11283 2e8f 00000000 		.4byte	tes
 11284 2e93 2A       		.uleb128 0x2a
 11285 2e94 1C010000 		.4byte	.LASF138
 11286 2e98 05       		.byte	0x5
 11287 2e99 28       		.byte	0x28
 11288 2e9a 33000000 		.4byte	0x33
 11289 2e9e 05       		.uleb128 0x5
 11290 2e9f 03       		.byte	0x3
 11291 2ea0 00000000 		.4byte	error
 11292 2ea4 29       		.uleb128 0x29
 11293 2ea5 616D6200 		.ascii	"amb\000"
 11294 2ea9 05       		.byte	0x5
 11295 2eaa 29       		.byte	0x29
 11296 2eab 64000000 		.4byte	0x64
 11297 2eaf 05       		.uleb128 0x5
 11298 2eb0 03       		.byte	0x3
 11299 2eb1 00000000 		.4byte	amb
 11300 2eb5 2A       		.uleb128 0x2a
 11301 2eb6 F3010000 		.4byte	.LASF139
 11302 2eba 05       		.byte	0x5
 11303 2ebb 29       		.byte	0x29
 11304 2ebc 64000000 		.4byte	0x64
 11305 2ec0 05       		.uleb128 0x5
 11306 2ec1 03       		.byte	0x3
 11307 2ec2 00000000 		.4byte	posicion
 11308 2ec6 2A       		.uleb128 0x2a
 11309 2ec7 62050000 		.4byte	.LASF140
 11310 2ecb 05       		.byte	0x5
 11311 2ecc 29       		.byte	0x29
 11312 2ecd 64000000 		.4byte	0x64
 11313 2ed1 05       		.uleb128 0x5
 11314 2ed2 03       		.byte	0x3
 11315 2ed3 00000000 		.4byte	posicionh
 11316 2ed7 2A       		.uleb128 0x2a
 11317 2ed8 6C050000 		.4byte	.LASF141
 11318 2edc 05       		.byte	0x5
 11319 2edd 29       		.byte	0x29
 11320 2ede 64000000 		.4byte	0x64
 11321 2ee2 05       		.uleb128 0x5
 11322 2ee3 03       		.byte	0x3
 11323 2ee4 00000000 		.4byte	posicionl
 11324 2ee8 29       		.uleb128 0x29
 11325 2ee9 533100   		.ascii	"S1\000"
 11326 2eec 05       		.byte	0x5
 11327 2eed 2A       		.byte	0x2a
 11328 2eee 64000000 		.4byte	0x64
 11329 2ef2 05       		.uleb128 0x5
 11330 2ef3 03       		.byte	0x3
 11331 2ef4 00000000 		.4byte	S1
 11332 2ef8 2A       		.uleb128 0x2a
ARM GAS  C:\Users\HENRYA~1\AppData\Local\Temp\cceIRlNf.s 			page 220


 11333 2ef9 62070000 		.4byte	.LASF142
 11334 2efd 06       		.byte	0x6
 11335 2efe 03       		.byte	0x3
 11336 2eff 64000000 		.4byte	0x64
 11337 2f03 05       		.uleb128 0x5
 11338 2f04 03       		.byte	0x3
 11339 2f05 00000000 		.4byte	conta
 11340 2f09 2B       		.uleb128 0x2b
 11341 2f0a BB070000 		.4byte	.LASF143
 11342 2f0e BB070000 		.4byte	.LASF143
 11343 2f12 08       		.byte	0x8
 11344 2f13 1301     		.2byte	0x113
 11345 2f15 2B       		.uleb128 0x2b
 11346 2f16 AB050000 		.4byte	.LASF144
 11347 2f1a AB050000 		.4byte	.LASF144
 11348 2f1e 08       		.byte	0x8
 11349 2f1f 0F01     		.2byte	0x10f
 11350 2f21 2B       		.uleb128 0x2b
 11351 2f22 EA030000 		.4byte	.LASF145
 11352 2f26 EA030000 		.4byte	.LASF145
 11353 2f2a 08       		.byte	0x8
 11354 2f2b 1401     		.2byte	0x114
 11355 2f2d 2C       		.uleb128 0x2c
 11356 2f2e 6F060000 		.4byte	.LASF146
 11357 2f32 6F060000 		.4byte	.LASF146
 11358 2f36 09       		.byte	0x9
 11359 2f37 33       		.byte	0x33
 11360 2f38 2C       		.uleb128 0x2c
 11361 2f39 9B040000 		.4byte	.LASF147
 11362 2f3d 9B040000 		.4byte	.LASF147
 11363 2f41 0A       		.byte	0xa
 11364 2f42 D7       		.byte	0xd7
 11365 2f43 2B       		.uleb128 0x2b
 11366 2f44 2D070000 		.4byte	.LASF148
 11367 2f48 2D070000 		.4byte	.LASF148
 11368 2f4c 0B       		.byte	0xb
 11369 2f4d 1301     		.2byte	0x113
 11370 2f4f 2B       		.uleb128 0x2b
 11371 2f50 E3040000 		.4byte	.LASF149
 11372 2f54 E3040000 		.4byte	.LASF149
 11373 2f58 0B       		.byte	0xb
 11374 2f59 0F01     		.2byte	0x10f
 11375 2f5b 2B       		.uleb128 0x2b
 11376 2f5c 27010000 		.4byte	.LASF150
 11377 2f60 27010000 		.4byte	.LASF150
 11378 2f64 0B       		.byte	0xb
 11379 2f65 1401     		.2byte	0x114
 11380 2f67 2C       		.uleb128 0x2c
 11381 2f68 E0010000 		.4byte	.LASF151
 11382 2f6c E0010000 		.4byte	.LASF151
 11383 2f70 0C       		.byte	0xc
 11384 2f71 33       		.byte	0x33
 11385 2f72 2B       		.uleb128 0x2b
 11386 2f73 D0000000 		.4byte	.LASF152
 11387 2f77 D0000000 		.4byte	.LASF152
 11388 2f7b 0D       		.byte	0xd
 11389 2f7c 1301     		.2byte	0x113
ARM GAS  C:\Users\HENRYA~1\AppData\Local\Temp\cceIRlNf.s 			page 221


 11390 2f7e 2B       		.uleb128 0x2b
 11391 2f7f 8F010000 		.4byte	.LASF153
 11392 2f83 8F010000 		.4byte	.LASF153
 11393 2f87 0D       		.byte	0xd
 11394 2f88 0F01     		.2byte	0x10f
 11395 2f8a 2B       		.uleb128 0x2b
 11396 2f8b 00000000 		.4byte	.LASF154
 11397 2f8f 00000000 		.4byte	.LASF154
 11398 2f93 0D       		.byte	0xd
 11399 2f94 1401     		.2byte	0x114
 11400 2f96 2C       		.uleb128 0x2c
 11401 2f97 8E070000 		.4byte	.LASF155
 11402 2f9b 8E070000 		.4byte	.LASF155
 11403 2f9f 0E       		.byte	0xe
 11404 2fa0 33       		.byte	0x33
 11405 2fa1 2C       		.uleb128 0x2c
 11406 2fa2 43020000 		.4byte	.LASF156
 11407 2fa6 43020000 		.4byte	.LASF156
 11408 2faa 0A       		.byte	0xa
 11409 2fab D8       		.byte	0xd8
 11410 2fac 2C       		.uleb128 0x2c
 11411 2fad 0A070000 		.4byte	.LASF157
 11412 2fb1 0A070000 		.4byte	.LASF157
 11413 2fb5 0F       		.byte	0xf
 11414 2fb6 73       		.byte	0x73
 11415 2fb7 2C       		.uleb128 0x2c
 11416 2fb8 05010000 		.4byte	.LASF158
 11417 2fbc 05010000 		.4byte	.LASF158
 11418 2fc0 0F       		.byte	0xf
 11419 2fc1 71       		.byte	0x71
 11420 2fc2 2C       		.uleb128 0x2c
 11421 2fc3 81060000 		.4byte	.LASF159
 11422 2fc7 81060000 		.4byte	.LASF159
 11423 2fcb 0F       		.byte	0xf
 11424 2fcc 75       		.byte	0x75
 11425 2fcd 2C       		.uleb128 0x2c
 11426 2fce B4060000 		.4byte	.LASF160
 11427 2fd2 B4060000 		.4byte	.LASF160
 11428 2fd6 10       		.byte	0x10
 11429 2fd7 2F       		.byte	0x2f
 11430 2fd8 2C       		.uleb128 0x2c
 11431 2fd9 A6060000 		.4byte	.LASF161
 11432 2fdd A6060000 		.4byte	.LASF161
 11433 2fe1 11       		.byte	0x11
 11434 2fe2 8A       		.byte	0x8a
 11435 2fe3 2C       		.uleb128 0x2c
 11436 2fe4 4B000000 		.4byte	.LASF162
 11437 2fe8 4B000000 		.4byte	.LASF162
 11438 2fec 0F       		.byte	0xf
 11439 2fed 6F       		.byte	0x6f
 11440 2fee 2C       		.uleb128 0x2c
 11441 2fef D0040000 		.4byte	.LASF163
 11442 2ff3 D0040000 		.4byte	.LASF163
 11443 2ff7 12       		.byte	0x12
 11444 2ff8 88       		.byte	0x88
 11445 2ff9 2D       		.uleb128 0x2d
 11446 2ffa 73696E00 		.ascii	"sin\000"
ARM GAS  C:\Users\HENRYA~1\AppData\Local\Temp\cceIRlNf.s 			page 222


 11447 2ffe 73696E00 		.ascii	"sin\000"
 11448 3002 13       		.byte	0x13
 11449 3003 6F       		.byte	0x6f
 11450 3004 2D       		.uleb128 0x2d
 11451 3005 636F7300 		.ascii	"cos\000"
 11452 3009 636F7300 		.ascii	"cos\000"
 11453 300d 13       		.byte	0x13
 11454 300e 6E       		.byte	0x6e
 11455 300f 2B       		.uleb128 0x2b
 11456 3010 A4020000 		.4byte	.LASF164
 11457 3014 A4020000 		.4byte	.LASF164
 11458 3018 14       		.byte	0x14
 11459 3019 1D01     		.2byte	0x11d
 11460 301b 2C       		.uleb128 0x2c
 11461 301c BE040000 		.4byte	.LASF165
 11462 3020 BE040000 		.4byte	.LASF165
 11463 3024 14       		.byte	0x14
 11464 3025 D8       		.byte	0xd8
 11465 3026 2C       		.uleb128 0x2c
 11466 3027 40040000 		.4byte	.LASF166
 11467 302b 40040000 		.4byte	.LASF166
 11468 302f 15       		.byte	0x15
 11469 3030 33       		.byte	0x33
 11470 3031 2B       		.uleb128 0x2b
 11471 3032 29060000 		.4byte	.LASF167
 11472 3036 29060000 		.4byte	.LASF167
 11473 303a 14       		.byte	0x14
 11474 303b 0401     		.2byte	0x104
 11475 303d 2C       		.uleb128 0x2c
 11476 303e 1A060000 		.4byte	.LASF168
 11477 3042 1A060000 		.4byte	.LASF168
 11478 3046 16       		.byte	0x16
 11479 3047 6E       		.byte	0x6e
 11480 3048 2C       		.uleb128 0x2c
 11481 3049 33020000 		.4byte	.LASF169
 11482 304d 33020000 		.4byte	.LASF169
 11483 3051 16       		.byte	0x16
 11484 3052 6D       		.byte	0x6d
 11485 3053 2C       		.uleb128 0x2c
 11486 3054 95020000 		.4byte	.LASF170
 11487 3058 95020000 		.4byte	.LASF170
 11488 305c 17       		.byte	0x17
 11489 305d 6E       		.byte	0x6e
 11490 305e 2C       		.uleb128 0x2c
 11491 305f C7010000 		.4byte	.LASF171
 11492 3063 C7010000 		.4byte	.LASF171
 11493 3067 17       		.byte	0x17
 11494 3068 6D       		.byte	0x6d
 11495 3069 2C       		.uleb128 0x2c
 11496 306a FB060000 		.4byte	.LASF172
 11497 306e FB060000 		.4byte	.LASF172
 11498 3072 18       		.byte	0x18
 11499 3073 6E       		.byte	0x6e
 11500 3074 2C       		.uleb128 0x2c
 11501 3075 4B050000 		.4byte	.LASF173
 11502 3079 4B050000 		.4byte	.LASF173
 11503 307d 18       		.byte	0x18
ARM GAS  C:\Users\HENRYA~1\AppData\Local\Temp\cceIRlNf.s 			page 223


 11504 307e 6D       		.byte	0x6d
 11505 307f 2C       		.uleb128 0x2c
 11506 3080 C9030000 		.4byte	.LASF174
 11507 3084 C9030000 		.4byte	.LASF174
 11508 3088 19       		.byte	0x19
 11509 3089 6E       		.byte	0x6e
 11510 308a 2C       		.uleb128 0x2c
 11511 308b 1D070000 		.4byte	.LASF175
 11512 308f 1D070000 		.4byte	.LASF175
 11513 3093 19       		.byte	0x19
 11514 3094 6D       		.byte	0x6d
 11515 3095 2C       		.uleb128 0x2c
 11516 3096 18080000 		.4byte	.LASF176
 11517 309a 18080000 		.4byte	.LASF176
 11518 309e 14       		.byte	0x14
 11519 309f C5       		.byte	0xc5
 11520 30a0 2C       		.uleb128 0x2c
 11521 30a1 34000000 		.4byte	.LASF177
 11522 30a5 34000000 		.4byte	.LASF177
 11523 30a9 1A       		.byte	0x1a
 11524 30aa 18       		.byte	0x18
 11525 30ab 2C       		.uleb128 0x2c
 11526 30ac 3B080000 		.4byte	.LASF178
 11527 30b0 3B080000 		.4byte	.LASF178
 11528 30b4 0F       		.byte	0xf
 11529 30b5 54       		.byte	0x54
 11530 30b6 2C       		.uleb128 0x2c
 11531 30b7 62040000 		.4byte	.LASF179
 11532 30bb 62040000 		.4byte	.LASF179
 11533 30bf 11       		.byte	0x11
 11534 30c0 54       		.byte	0x54
 11535 30c1 2C       		.uleb128 0x2c
 11536 30c2 3F060000 		.4byte	.LASF180
 11537 30c6 3F060000 		.4byte	.LASF180
 11538 30ca 14       		.byte	0x14
 11539 30cb C8       		.byte	0xc8
 11540 30cc 2B       		.uleb128 0x2b
 11541 30cd 38050000 		.4byte	.LASF181
 11542 30d1 38050000 		.4byte	.LASF181
 11543 30d5 14       		.byte	0x14
 11544 30d6 2301     		.2byte	0x123
 11545 30d8 00       		.byte	0
 11546              		.section	.debug_abbrev,"",%progbits
 11547              	.Ldebug_abbrev0:
 11548 0000 01       		.uleb128 0x1
 11549 0001 11       		.uleb128 0x11
 11550 0002 01       		.byte	0x1
 11551 0003 25       		.uleb128 0x25
 11552 0004 0E       		.uleb128 0xe
 11553 0005 13       		.uleb128 0x13
 11554 0006 0B       		.uleb128 0xb
 11555 0007 03       		.uleb128 0x3
 11556 0008 0E       		.uleb128 0xe
 11557 0009 1B       		.uleb128 0x1b
 11558 000a 0E       		.uleb128 0xe
 11559 000b 55       		.uleb128 0x55
 11560 000c 17       		.uleb128 0x17
ARM GAS  C:\Users\HENRYA~1\AppData\Local\Temp\cceIRlNf.s 			page 224


 11561 000d 11       		.uleb128 0x11
 11562 000e 01       		.uleb128 0x1
 11563 000f 10       		.uleb128 0x10
 11564 0010 17       		.uleb128 0x17
 11565 0011 00       		.byte	0
 11566 0012 00       		.byte	0
 11567 0013 02       		.uleb128 0x2
 11568 0014 24       		.uleb128 0x24
 11569 0015 00       		.byte	0
 11570 0016 0B       		.uleb128 0xb
 11571 0017 0B       		.uleb128 0xb
 11572 0018 3E       		.uleb128 0x3e
 11573 0019 0B       		.uleb128 0xb
 11574 001a 03       		.uleb128 0x3
 11575 001b 0E       		.uleb128 0xe
 11576 001c 00       		.byte	0
 11577 001d 00       		.byte	0
 11578 001e 03       		.uleb128 0x3
 11579 001f 24       		.uleb128 0x24
 11580 0020 00       		.byte	0
 11581 0021 0B       		.uleb128 0xb
 11582 0022 0B       		.uleb128 0xb
 11583 0023 3E       		.uleb128 0x3e
 11584 0024 0B       		.uleb128 0xb
 11585 0025 03       		.uleb128 0x3
 11586 0026 08       		.uleb128 0x8
 11587 0027 00       		.byte	0
 11588 0028 00       		.byte	0
 11589 0029 04       		.uleb128 0x4
 11590 002a 16       		.uleb128 0x16
 11591 002b 00       		.byte	0
 11592 002c 03       		.uleb128 0x3
 11593 002d 0E       		.uleb128 0xe
 11594 002e 3A       		.uleb128 0x3a
 11595 002f 0B       		.uleb128 0xb
 11596 0030 3B       		.uleb128 0x3b
 11597 0031 05       		.uleb128 0x5
 11598 0032 49       		.uleb128 0x49
 11599 0033 13       		.uleb128 0x13
 11600 0034 00       		.byte	0
 11601 0035 00       		.byte	0
 11602 0036 05       		.uleb128 0x5
 11603 0037 01       		.uleb128 0x1
 11604 0038 01       		.byte	0x1
 11605 0039 49       		.uleb128 0x49
 11606 003a 13       		.uleb128 0x13
 11607 003b 01       		.uleb128 0x1
 11608 003c 13       		.uleb128 0x13
 11609 003d 00       		.byte	0
 11610 003e 00       		.byte	0
 11611 003f 06       		.uleb128 0x6
 11612 0040 21       		.uleb128 0x21
 11613 0041 00       		.byte	0
 11614 0042 49       		.uleb128 0x49
 11615 0043 13       		.uleb128 0x13
 11616 0044 2F       		.uleb128 0x2f
 11617 0045 0B       		.uleb128 0xb
ARM GAS  C:\Users\HENRYA~1\AppData\Local\Temp\cceIRlNf.s 			page 225


 11618 0046 00       		.byte	0
 11619 0047 00       		.byte	0
 11620 0048 07       		.uleb128 0x7
 11621 0049 2E       		.uleb128 0x2e
 11622 004a 01       		.byte	0x1
 11623 004b 3F       		.uleb128 0x3f
 11624 004c 19       		.uleb128 0x19
 11625 004d 03       		.uleb128 0x3
 11626 004e 0E       		.uleb128 0xe
 11627 004f 3A       		.uleb128 0x3a
 11628 0050 0B       		.uleb128 0xb
 11629 0051 3B       		.uleb128 0x3b
 11630 0052 0B       		.uleb128 0xb
 11631 0053 27       		.uleb128 0x27
 11632 0054 19       		.uleb128 0x19
 11633 0055 11       		.uleb128 0x11
 11634 0056 01       		.uleb128 0x1
 11635 0057 12       		.uleb128 0x12
 11636 0058 06       		.uleb128 0x6
 11637 0059 40       		.uleb128 0x40
 11638 005a 18       		.uleb128 0x18
 11639 005b 9742     		.uleb128 0x2117
 11640 005d 19       		.uleb128 0x19
 11641 005e 01       		.uleb128 0x1
 11642 005f 13       		.uleb128 0x13
 11643 0060 00       		.byte	0
 11644 0061 00       		.byte	0
 11645 0062 08       		.uleb128 0x8
 11646 0063 05       		.uleb128 0x5
 11647 0064 00       		.byte	0
 11648 0065 03       		.uleb128 0x3
 11649 0066 0E       		.uleb128 0xe
 11650 0067 3A       		.uleb128 0x3a
 11651 0068 0B       		.uleb128 0xb
 11652 0069 3B       		.uleb128 0x3b
 11653 006a 0B       		.uleb128 0xb
 11654 006b 49       		.uleb128 0x49
 11655 006c 13       		.uleb128 0x13
 11656 006d 02       		.uleb128 0x2
 11657 006e 17       		.uleb128 0x17
 11658 006f 00       		.byte	0
 11659 0070 00       		.byte	0
 11660 0071 09       		.uleb128 0x9
 11661 0072 34       		.uleb128 0x34
 11662 0073 00       		.byte	0
 11663 0074 03       		.uleb128 0x3
 11664 0075 0E       		.uleb128 0xe
 11665 0076 3A       		.uleb128 0x3a
 11666 0077 0B       		.uleb128 0xb
 11667 0078 3B       		.uleb128 0x3b
 11668 0079 0B       		.uleb128 0xb
 11669 007a 49       		.uleb128 0x49
 11670 007b 13       		.uleb128 0x13
 11671 007c 02       		.uleb128 0x2
 11672 007d 18       		.uleb128 0x18
 11673 007e 00       		.byte	0
 11674 007f 00       		.byte	0
ARM GAS  C:\Users\HENRYA~1\AppData\Local\Temp\cceIRlNf.s 			page 226


 11675 0080 0A       		.uleb128 0xa
 11676 0081 898201   		.uleb128 0x4109
 11677 0084 01       		.byte	0x1
 11678 0085 11       		.uleb128 0x11
 11679 0086 01       		.uleb128 0x1
 11680 0087 31       		.uleb128 0x31
 11681 0088 13       		.uleb128 0x13
 11682 0089 01       		.uleb128 0x1
 11683 008a 13       		.uleb128 0x13
 11684 008b 00       		.byte	0
 11685 008c 00       		.byte	0
 11686 008d 0B       		.uleb128 0xb
 11687 008e 8A8201   		.uleb128 0x410a
 11688 0091 00       		.byte	0
 11689 0092 02       		.uleb128 0x2
 11690 0093 18       		.uleb128 0x18
 11691 0094 9142     		.uleb128 0x2111
 11692 0096 18       		.uleb128 0x18
 11693 0097 00       		.byte	0
 11694 0098 00       		.byte	0
 11695 0099 0C       		.uleb128 0xc
 11696 009a 898201   		.uleb128 0x4109
 11697 009d 00       		.byte	0
 11698 009e 11       		.uleb128 0x11
 11699 009f 01       		.uleb128 0x1
 11700 00a0 31       		.uleb128 0x31
 11701 00a1 13       		.uleb128 0x13
 11702 00a2 00       		.byte	0
 11703 00a3 00       		.byte	0
 11704 00a4 0D       		.uleb128 0xd
 11705 00a5 2E       		.uleb128 0x2e
 11706 00a6 01       		.byte	0x1
 11707 00a7 3F       		.uleb128 0x3f
 11708 00a8 19       		.uleb128 0x19
 11709 00a9 03       		.uleb128 0x3
 11710 00aa 0E       		.uleb128 0xe
 11711 00ab 3A       		.uleb128 0x3a
 11712 00ac 0B       		.uleb128 0xb
 11713 00ad 3B       		.uleb128 0x3b
 11714 00ae 0B       		.uleb128 0xb
 11715 00af 27       		.uleb128 0x27
 11716 00b0 19       		.uleb128 0x19
 11717 00b1 49       		.uleb128 0x49
 11718 00b2 13       		.uleb128 0x13
 11719 00b3 11       		.uleb128 0x11
 11720 00b4 01       		.uleb128 0x1
 11721 00b5 12       		.uleb128 0x12
 11722 00b6 06       		.uleb128 0x6
 11723 00b7 40       		.uleb128 0x40
 11724 00b8 18       		.uleb128 0x18
 11725 00b9 9742     		.uleb128 0x2117
 11726 00bb 19       		.uleb128 0x19
 11727 00bc 01       		.uleb128 0x1
 11728 00bd 13       		.uleb128 0x13
 11729 00be 00       		.byte	0
 11730 00bf 00       		.byte	0
 11731 00c0 0E       		.uleb128 0xe
ARM GAS  C:\Users\HENRYA~1\AppData\Local\Temp\cceIRlNf.s 			page 227


 11732 00c1 2E       		.uleb128 0x2e
 11733 00c2 01       		.byte	0x1
 11734 00c3 3F       		.uleb128 0x3f
 11735 00c4 19       		.uleb128 0x19
 11736 00c5 03       		.uleb128 0x3
 11737 00c6 0E       		.uleb128 0xe
 11738 00c7 3A       		.uleb128 0x3a
 11739 00c8 0B       		.uleb128 0xb
 11740 00c9 3B       		.uleb128 0x3b
 11741 00ca 0B       		.uleb128 0xb
 11742 00cb 11       		.uleb128 0x11
 11743 00cc 01       		.uleb128 0x1
 11744 00cd 12       		.uleb128 0x12
 11745 00ce 06       		.uleb128 0x6
 11746 00cf 40       		.uleb128 0x40
 11747 00d0 18       		.uleb128 0x18
 11748 00d1 9742     		.uleb128 0x2117
 11749 00d3 19       		.uleb128 0x19
 11750 00d4 01       		.uleb128 0x1
 11751 00d5 13       		.uleb128 0x13
 11752 00d6 00       		.byte	0
 11753 00d7 00       		.byte	0
 11754 00d8 0F       		.uleb128 0xf
 11755 00d9 34       		.uleb128 0x34
 11756 00da 00       		.byte	0
 11757 00db 03       		.uleb128 0x3
 11758 00dc 0E       		.uleb128 0xe
 11759 00dd 3A       		.uleb128 0x3a
 11760 00de 0B       		.uleb128 0xb
 11761 00df 3B       		.uleb128 0x3b
 11762 00e0 0B       		.uleb128 0xb
 11763 00e1 49       		.uleb128 0x49
 11764 00e2 13       		.uleb128 0x13
 11765 00e3 02       		.uleb128 0x2
 11766 00e4 17       		.uleb128 0x17
 11767 00e5 00       		.byte	0
 11768 00e6 00       		.byte	0
 11769 00e7 10       		.uleb128 0x10
 11770 00e8 898201   		.uleb128 0x4109
 11771 00eb 01       		.byte	0x1
 11772 00ec 11       		.uleb128 0x11
 11773 00ed 01       		.uleb128 0x1
 11774 00ee 31       		.uleb128 0x31
 11775 00ef 13       		.uleb128 0x13
 11776 00f0 00       		.byte	0
 11777 00f1 00       		.byte	0
 11778 00f2 11       		.uleb128 0x11
 11779 00f3 2E       		.uleb128 0x2e
 11780 00f4 01       		.byte	0x1
 11781 00f5 3F       		.uleb128 0x3f
 11782 00f6 19       		.uleb128 0x19
 11783 00f7 03       		.uleb128 0x3
 11784 00f8 0E       		.uleb128 0xe
 11785 00f9 3A       		.uleb128 0x3a
 11786 00fa 0B       		.uleb128 0xb
 11787 00fb 3B       		.uleb128 0x3b
 11788 00fc 0B       		.uleb128 0xb
ARM GAS  C:\Users\HENRYA~1\AppData\Local\Temp\cceIRlNf.s 			page 228


 11789 00fd 49       		.uleb128 0x49
 11790 00fe 13       		.uleb128 0x13
 11791 00ff 11       		.uleb128 0x11
 11792 0100 01       		.uleb128 0x1
 11793 0101 12       		.uleb128 0x12
 11794 0102 06       		.uleb128 0x6
 11795 0103 40       		.uleb128 0x40
 11796 0104 18       		.uleb128 0x18
 11797 0105 9742     		.uleb128 0x2117
 11798 0107 19       		.uleb128 0x19
 11799 0108 01       		.uleb128 0x1
 11800 0109 13       		.uleb128 0x13
 11801 010a 00       		.byte	0
 11802 010b 00       		.byte	0
 11803 010c 12       		.uleb128 0x12
 11804 010d 05       		.uleb128 0x5
 11805 010e 00       		.byte	0
 11806 010f 03       		.uleb128 0x3
 11807 0110 08       		.uleb128 0x8
 11808 0111 3A       		.uleb128 0x3a
 11809 0112 0B       		.uleb128 0xb
 11810 0113 3B       		.uleb128 0x3b
 11811 0114 0B       		.uleb128 0xb
 11812 0115 49       		.uleb128 0x49
 11813 0116 13       		.uleb128 0x13
 11814 0117 02       		.uleb128 0x2
 11815 0118 17       		.uleb128 0x17
 11816 0119 00       		.byte	0
 11817 011a 00       		.byte	0
 11818 011b 13       		.uleb128 0x13
 11819 011c 2E       		.uleb128 0x2e
 11820 011d 01       		.byte	0x1
 11821 011e 3F       		.uleb128 0x3f
 11822 011f 19       		.uleb128 0x19
 11823 0120 03       		.uleb128 0x3
 11824 0121 08       		.uleb128 0x8
 11825 0122 3A       		.uleb128 0x3a
 11826 0123 0B       		.uleb128 0xb
 11827 0124 3B       		.uleb128 0x3b
 11828 0125 0B       		.uleb128 0xb
 11829 0126 27       		.uleb128 0x27
 11830 0127 19       		.uleb128 0x19
 11831 0128 49       		.uleb128 0x49
 11832 0129 13       		.uleb128 0x13
 11833 012a 11       		.uleb128 0x11
 11834 012b 01       		.uleb128 0x1
 11835 012c 12       		.uleb128 0x12
 11836 012d 06       		.uleb128 0x6
 11837 012e 40       		.uleb128 0x40
 11838 012f 18       		.uleb128 0x18
 11839 0130 9742     		.uleb128 0x2117
 11840 0132 19       		.uleb128 0x19
 11841 0133 01       		.uleb128 0x1
 11842 0134 13       		.uleb128 0x13
 11843 0135 00       		.byte	0
 11844 0136 00       		.byte	0
 11845 0137 14       		.uleb128 0x14
ARM GAS  C:\Users\HENRYA~1\AppData\Local\Temp\cceIRlNf.s 			page 229


 11846 0138 2E       		.uleb128 0x2e
 11847 0139 01       		.byte	0x1
 11848 013a 3F       		.uleb128 0x3f
 11849 013b 19       		.uleb128 0x19
 11850 013c 03       		.uleb128 0x3
 11851 013d 0E       		.uleb128 0xe
 11852 013e 3A       		.uleb128 0x3a
 11853 013f 0B       		.uleb128 0xb
 11854 0140 3B       		.uleb128 0x3b
 11855 0141 05       		.uleb128 0x5
 11856 0142 11       		.uleb128 0x11
 11857 0143 01       		.uleb128 0x1
 11858 0144 12       		.uleb128 0x12
 11859 0145 06       		.uleb128 0x6
 11860 0146 40       		.uleb128 0x40
 11861 0147 18       		.uleb128 0x18
 11862 0148 9742     		.uleb128 0x2117
 11863 014a 19       		.uleb128 0x19
 11864 014b 01       		.uleb128 0x1
 11865 014c 13       		.uleb128 0x13
 11866 014d 00       		.byte	0
 11867 014e 00       		.byte	0
 11868 014f 15       		.uleb128 0x15
 11869 0150 2E       		.uleb128 0x2e
 11870 0151 01       		.byte	0x1
 11871 0152 3F       		.uleb128 0x3f
 11872 0153 19       		.uleb128 0x19
 11873 0154 03       		.uleb128 0x3
 11874 0155 0E       		.uleb128 0xe
 11875 0156 3A       		.uleb128 0x3a
 11876 0157 0B       		.uleb128 0xb
 11877 0158 3B       		.uleb128 0x3b
 11878 0159 05       		.uleb128 0x5
 11879 015a 27       		.uleb128 0x27
 11880 015b 19       		.uleb128 0x19
 11881 015c 49       		.uleb128 0x49
 11882 015d 13       		.uleb128 0x13
 11883 015e 11       		.uleb128 0x11
 11884 015f 01       		.uleb128 0x1
 11885 0160 12       		.uleb128 0x12
 11886 0161 06       		.uleb128 0x6
 11887 0162 40       		.uleb128 0x40
 11888 0163 18       		.uleb128 0x18
 11889 0164 9742     		.uleb128 0x2117
 11890 0166 19       		.uleb128 0x19
 11891 0167 01       		.uleb128 0x1
 11892 0168 13       		.uleb128 0x13
 11893 0169 00       		.byte	0
 11894 016a 00       		.byte	0
 11895 016b 16       		.uleb128 0x16
 11896 016c 05       		.uleb128 0x5
 11897 016d 00       		.byte	0
 11898 016e 03       		.uleb128 0x3
 11899 016f 08       		.uleb128 0x8
 11900 0170 3A       		.uleb128 0x3a
 11901 0171 0B       		.uleb128 0xb
 11902 0172 3B       		.uleb128 0x3b
ARM GAS  C:\Users\HENRYA~1\AppData\Local\Temp\cceIRlNf.s 			page 230


 11903 0173 05       		.uleb128 0x5
 11904 0174 49       		.uleb128 0x49
 11905 0175 13       		.uleb128 0x13
 11906 0176 02       		.uleb128 0x2
 11907 0177 17       		.uleb128 0x17
 11908 0178 00       		.byte	0
 11909 0179 00       		.byte	0
 11910 017a 17       		.uleb128 0x17
 11911 017b 05       		.uleb128 0x5
 11912 017c 00       		.byte	0
 11913 017d 03       		.uleb128 0x3
 11914 017e 0E       		.uleb128 0xe
 11915 017f 3A       		.uleb128 0x3a
 11916 0180 0B       		.uleb128 0xb
 11917 0181 3B       		.uleb128 0x3b
 11918 0182 05       		.uleb128 0x5
 11919 0183 49       		.uleb128 0x49
 11920 0184 13       		.uleb128 0x13
 11921 0185 02       		.uleb128 0x2
 11922 0186 17       		.uleb128 0x17
 11923 0187 00       		.byte	0
 11924 0188 00       		.byte	0
 11925 0189 18       		.uleb128 0x18
 11926 018a 0B       		.uleb128 0xb
 11927 018b 01       		.byte	0x1
 11928 018c 11       		.uleb128 0x11
 11929 018d 01       		.uleb128 0x1
 11930 018e 12       		.uleb128 0x12
 11931 018f 06       		.uleb128 0x6
 11932 0190 01       		.uleb128 0x1
 11933 0191 13       		.uleb128 0x13
 11934 0192 00       		.byte	0
 11935 0193 00       		.byte	0
 11936 0194 19       		.uleb128 0x19
 11937 0195 34       		.uleb128 0x34
 11938 0196 00       		.byte	0
 11939 0197 03       		.uleb128 0x3
 11940 0198 0E       		.uleb128 0xe
 11941 0199 3A       		.uleb128 0x3a
 11942 019a 0B       		.uleb128 0xb
 11943 019b 3B       		.uleb128 0x3b
 11944 019c 05       		.uleb128 0x5
 11945 019d 49       		.uleb128 0x49
 11946 019e 13       		.uleb128 0x13
 11947 019f 02       		.uleb128 0x2
 11948 01a0 17       		.uleb128 0x17
 11949 01a1 00       		.byte	0
 11950 01a2 00       		.byte	0
 11951 01a3 1A       		.uleb128 0x1a
 11952 01a4 0B       		.uleb128 0xb
 11953 01a5 01       		.byte	0x1
 11954 01a6 11       		.uleb128 0x11
 11955 01a7 01       		.uleb128 0x1
 11956 01a8 12       		.uleb128 0x12
 11957 01a9 06       		.uleb128 0x6
 11958 01aa 00       		.byte	0
 11959 01ab 00       		.byte	0
ARM GAS  C:\Users\HENRYA~1\AppData\Local\Temp\cceIRlNf.s 			page 231


 11960 01ac 1B       		.uleb128 0x1b
 11961 01ad 2E       		.uleb128 0x2e
 11962 01ae 01       		.byte	0x1
 11963 01af 3F       		.uleb128 0x3f
 11964 01b0 19       		.uleb128 0x19
 11965 01b1 03       		.uleb128 0x3
 11966 01b2 0E       		.uleb128 0xe
 11967 01b3 3A       		.uleb128 0x3a
 11968 01b4 0B       		.uleb128 0xb
 11969 01b5 3B       		.uleb128 0x3b
 11970 01b6 0B       		.uleb128 0xb
 11971 01b7 49       		.uleb128 0x49
 11972 01b8 13       		.uleb128 0x13
 11973 01b9 11       		.uleb128 0x11
 11974 01ba 01       		.uleb128 0x1
 11975 01bb 12       		.uleb128 0x12
 11976 01bc 06       		.uleb128 0x6
 11977 01bd 40       		.uleb128 0x40
 11978 01be 18       		.uleb128 0x18
 11979 01bf 9642     		.uleb128 0x2116
 11980 01c1 19       		.uleb128 0x19
 11981 01c2 01       		.uleb128 0x1
 11982 01c3 13       		.uleb128 0x13
 11983 01c4 00       		.byte	0
 11984 01c5 00       		.byte	0
 11985 01c6 1C       		.uleb128 0x1c
 11986 01c7 2E       		.uleb128 0x2e
 11987 01c8 01       		.byte	0x1
 11988 01c9 3F       		.uleb128 0x3f
 11989 01ca 19       		.uleb128 0x19
 11990 01cb 03       		.uleb128 0x3
 11991 01cc 0E       		.uleb128 0xe
 11992 01cd 3A       		.uleb128 0x3a
 11993 01ce 0B       		.uleb128 0xb
 11994 01cf 3B       		.uleb128 0x3b
 11995 01d0 0B       		.uleb128 0xb
 11996 01d1 27       		.uleb128 0x27
 11997 01d2 19       		.uleb128 0x19
 11998 01d3 49       		.uleb128 0x49
 11999 01d4 13       		.uleb128 0x13
 12000 01d5 11       		.uleb128 0x11
 12001 01d6 01       		.uleb128 0x1
 12002 01d7 12       		.uleb128 0x12
 12003 01d8 06       		.uleb128 0x6
 12004 01d9 40       		.uleb128 0x40
 12005 01da 18       		.uleb128 0x18
 12006 01db 9642     		.uleb128 0x2116
 12007 01dd 19       		.uleb128 0x19
 12008 01de 01       		.uleb128 0x1
 12009 01df 13       		.uleb128 0x13
 12010 01e0 00       		.byte	0
 12011 01e1 00       		.byte	0
 12012 01e2 1D       		.uleb128 0x1d
 12013 01e3 34       		.uleb128 0x34
 12014 01e4 00       		.byte	0
 12015 01e5 03       		.uleb128 0x3
 12016 01e6 08       		.uleb128 0x8
ARM GAS  C:\Users\HENRYA~1\AppData\Local\Temp\cceIRlNf.s 			page 232


 12017 01e7 3A       		.uleb128 0x3a
 12018 01e8 0B       		.uleb128 0xb
 12019 01e9 3B       		.uleb128 0x3b
 12020 01ea 0B       		.uleb128 0xb
 12021 01eb 49       		.uleb128 0x49
 12022 01ec 13       		.uleb128 0x13
 12023 01ed 1C       		.uleb128 0x1c
 12024 01ee 0A       		.uleb128 0xa
 12025 01ef 00       		.byte	0
 12026 01f0 00       		.byte	0
 12027 01f1 1E       		.uleb128 0x1e
 12028 01f2 2E       		.uleb128 0x2e
 12029 01f3 01       		.byte	0x1
 12030 01f4 3F       		.uleb128 0x3f
 12031 01f5 19       		.uleb128 0x19
 12032 01f6 03       		.uleb128 0x3
 12033 01f7 08       		.uleb128 0x8
 12034 01f8 3A       		.uleb128 0x3a
 12035 01f9 0B       		.uleb128 0xb
 12036 01fa 3B       		.uleb128 0x3b
 12037 01fb 0B       		.uleb128 0xb
 12038 01fc 11       		.uleb128 0x11
 12039 01fd 01       		.uleb128 0x1
 12040 01fe 12       		.uleb128 0x12
 12041 01ff 06       		.uleb128 0x6
 12042 0200 40       		.uleb128 0x40
 12043 0201 18       		.uleb128 0x18
 12044 0202 9642     		.uleb128 0x2116
 12045 0204 19       		.uleb128 0x19
 12046 0205 01       		.uleb128 0x1
 12047 0206 13       		.uleb128 0x13
 12048 0207 00       		.byte	0
 12049 0208 00       		.byte	0
 12050 0209 1F       		.uleb128 0x1f
 12051 020a 2E       		.uleb128 0x2e
 12052 020b 01       		.byte	0x1
 12053 020c 3F       		.uleb128 0x3f
 12054 020d 19       		.uleb128 0x19
 12055 020e 03       		.uleb128 0x3
 12056 020f 0E       		.uleb128 0xe
 12057 0210 3A       		.uleb128 0x3a
 12058 0211 0B       		.uleb128 0xb
 12059 0212 3B       		.uleb128 0x3b
 12060 0213 0B       		.uleb128 0xb
 12061 0214 27       		.uleb128 0x27
 12062 0215 19       		.uleb128 0x19
 12063 0216 11       		.uleb128 0x11
 12064 0217 01       		.uleb128 0x1
 12065 0218 12       		.uleb128 0x12
 12066 0219 06       		.uleb128 0x6
 12067 021a 40       		.uleb128 0x40
 12068 021b 18       		.uleb128 0x18
 12069 021c 9642     		.uleb128 0x2116
 12070 021e 19       		.uleb128 0x19
 12071 021f 01       		.uleb128 0x1
 12072 0220 13       		.uleb128 0x13
 12073 0221 00       		.byte	0
ARM GAS  C:\Users\HENRYA~1\AppData\Local\Temp\cceIRlNf.s 			page 233


 12074 0222 00       		.byte	0
 12075 0223 20       		.uleb128 0x20
 12076 0224 0A       		.uleb128 0xa
 12077 0225 00       		.byte	0
 12078 0226 03       		.uleb128 0x3
 12079 0227 08       		.uleb128 0x8
 12080 0228 3A       		.uleb128 0x3a
 12081 0229 0B       		.uleb128 0xb
 12082 022a 3B       		.uleb128 0x3b
 12083 022b 0B       		.uleb128 0xb
 12084 022c 11       		.uleb128 0x11
 12085 022d 01       		.uleb128 0x1
 12086 022e 00       		.byte	0
 12087 022f 00       		.byte	0
 12088 0230 21       		.uleb128 0x21
 12089 0231 0A       		.uleb128 0xa
 12090 0232 00       		.byte	0
 12091 0233 03       		.uleb128 0x3
 12092 0234 0E       		.uleb128 0xe
 12093 0235 3A       		.uleb128 0x3a
 12094 0236 0B       		.uleb128 0xb
 12095 0237 3B       		.uleb128 0x3b
 12096 0238 0B       		.uleb128 0xb
 12097 0239 11       		.uleb128 0x11
 12098 023a 01       		.uleb128 0x1
 12099 023b 00       		.byte	0
 12100 023c 00       		.byte	0
 12101 023d 22       		.uleb128 0x22
 12102 023e 2E       		.uleb128 0x2e
 12103 023f 01       		.byte	0x1
 12104 0240 3F       		.uleb128 0x3f
 12105 0241 19       		.uleb128 0x19
 12106 0242 03       		.uleb128 0x3
 12107 0243 0E       		.uleb128 0xe
 12108 0244 3A       		.uleb128 0x3a
 12109 0245 0B       		.uleb128 0xb
 12110 0246 3B       		.uleb128 0x3b
 12111 0247 0B       		.uleb128 0xb
 12112 0248 11       		.uleb128 0x11
 12113 0249 01       		.uleb128 0x1
 12114 024a 12       		.uleb128 0x12
 12115 024b 06       		.uleb128 0x6
 12116 024c 40       		.uleb128 0x40
 12117 024d 18       		.uleb128 0x18
 12118 024e 9642     		.uleb128 0x2116
 12119 0250 19       		.uleb128 0x19
 12120 0251 01       		.uleb128 0x1
 12121 0252 13       		.uleb128 0x13
 12122 0253 00       		.byte	0
 12123 0254 00       		.byte	0
 12124 0255 23       		.uleb128 0x23
 12125 0256 0A       		.uleb128 0xa
 12126 0257 00       		.byte	0
 12127 0258 03       		.uleb128 0x3
 12128 0259 0E       		.uleb128 0xe
 12129 025a 3A       		.uleb128 0x3a
 12130 025b 0B       		.uleb128 0xb
ARM GAS  C:\Users\HENRYA~1\AppData\Local\Temp\cceIRlNf.s 			page 234


 12131 025c 3B       		.uleb128 0x3b
 12132 025d 05       		.uleb128 0x5
 12133 025e 11       		.uleb128 0x11
 12134 025f 01       		.uleb128 0x1
 12135 0260 00       		.byte	0
 12136 0261 00       		.byte	0
 12137 0262 24       		.uleb128 0x24
 12138 0263 34       		.uleb128 0x34
 12139 0264 00       		.byte	0
 12140 0265 03       		.uleb128 0x3
 12141 0266 08       		.uleb128 0x8
 12142 0267 3A       		.uleb128 0x3a
 12143 0268 0B       		.uleb128 0xb
 12144 0269 3B       		.uleb128 0x3b
 12145 026a 05       		.uleb128 0x5
 12146 026b 49       		.uleb128 0x49
 12147 026c 13       		.uleb128 0x13
 12148 026d 02       		.uleb128 0x2
 12149 026e 18       		.uleb128 0x18
 12150 026f 00       		.byte	0
 12151 0270 00       		.byte	0
 12152 0271 25       		.uleb128 0x25
 12153 0272 2E       		.uleb128 0x2e
 12154 0273 01       		.byte	0x1
 12155 0274 3F       		.uleb128 0x3f
 12156 0275 19       		.uleb128 0x19
 12157 0276 03       		.uleb128 0x3
 12158 0277 0E       		.uleb128 0xe
 12159 0278 3A       		.uleb128 0x3a
 12160 0279 0B       		.uleb128 0xb
 12161 027a 3B       		.uleb128 0x3b
 12162 027b 05       		.uleb128 0x5
 12163 027c 11       		.uleb128 0x11
 12164 027d 01       		.uleb128 0x1
 12165 027e 12       		.uleb128 0x12
 12166 027f 06       		.uleb128 0x6
 12167 0280 40       		.uleb128 0x40
 12168 0281 18       		.uleb128 0x18
 12169 0282 9642     		.uleb128 0x2116
 12170 0284 19       		.uleb128 0x19
 12171 0285 01       		.uleb128 0x1
 12172 0286 13       		.uleb128 0x13
 12173 0287 00       		.byte	0
 12174 0288 00       		.byte	0
 12175 0289 26       		.uleb128 0x26
 12176 028a 2E       		.uleb128 0x2e
 12177 028b 01       		.byte	0x1
 12178 028c 3F       		.uleb128 0x3f
 12179 028d 19       		.uleb128 0x19
 12180 028e 03       		.uleb128 0x3
 12181 028f 0E       		.uleb128 0xe
 12182 0290 3A       		.uleb128 0x3a
 12183 0291 0B       		.uleb128 0xb
 12184 0292 3B       		.uleb128 0x3b
 12185 0293 05       		.uleb128 0x5
 12186 0294 27       		.uleb128 0x27
 12187 0295 19       		.uleb128 0x19
ARM GAS  C:\Users\HENRYA~1\AppData\Local\Temp\cceIRlNf.s 			page 235


 12188 0296 11       		.uleb128 0x11
 12189 0297 01       		.uleb128 0x1
 12190 0298 12       		.uleb128 0x12
 12191 0299 06       		.uleb128 0x6
 12192 029a 40       		.uleb128 0x40
 12193 029b 18       		.uleb128 0x18
 12194 029c 9742     		.uleb128 0x2117
 12195 029e 19       		.uleb128 0x19
 12196 029f 01       		.uleb128 0x1
 12197 02a0 13       		.uleb128 0x13
 12198 02a1 00       		.byte	0
 12199 02a2 00       		.byte	0
 12200 02a3 27       		.uleb128 0x27
 12201 02a4 05       		.uleb128 0x5
 12202 02a5 00       		.byte	0
 12203 02a6 03       		.uleb128 0x3
 12204 02a7 08       		.uleb128 0x8
 12205 02a8 3A       		.uleb128 0x3a
 12206 02a9 0B       		.uleb128 0xb
 12207 02aa 3B       		.uleb128 0x3b
 12208 02ab 0B       		.uleb128 0xb
 12209 02ac 49       		.uleb128 0x49
 12210 02ad 13       		.uleb128 0x13
 12211 02ae 02       		.uleb128 0x2
 12212 02af 18       		.uleb128 0x18
 12213 02b0 00       		.byte	0
 12214 02b1 00       		.byte	0
 12215 02b2 28       		.uleb128 0x28
 12216 02b3 2E       		.uleb128 0x2e
 12217 02b4 01       		.byte	0x1
 12218 02b5 3F       		.uleb128 0x3f
 12219 02b6 19       		.uleb128 0x19
 12220 02b7 03       		.uleb128 0x3
 12221 02b8 0E       		.uleb128 0xe
 12222 02b9 3A       		.uleb128 0x3a
 12223 02ba 0B       		.uleb128 0xb
 12224 02bb 3B       		.uleb128 0x3b
 12225 02bc 0B       		.uleb128 0xb
 12226 02bd 49       		.uleb128 0x49
 12227 02be 13       		.uleb128 0x13
 12228 02bf 8701     		.uleb128 0x87
 12229 02c1 19       		.uleb128 0x19
 12230 02c2 11       		.uleb128 0x11
 12231 02c3 01       		.uleb128 0x1
 12232 02c4 12       		.uleb128 0x12
 12233 02c5 06       		.uleb128 0x6
 12234 02c6 40       		.uleb128 0x40
 12235 02c7 18       		.uleb128 0x18
 12236 02c8 9642     		.uleb128 0x2116
 12237 02ca 19       		.uleb128 0x19
 12238 02cb 01       		.uleb128 0x1
 12239 02cc 13       		.uleb128 0x13
 12240 02cd 00       		.byte	0
 12241 02ce 00       		.byte	0
 12242 02cf 29       		.uleb128 0x29
 12243 02d0 34       		.uleb128 0x34
 12244 02d1 00       		.byte	0
ARM GAS  C:\Users\HENRYA~1\AppData\Local\Temp\cceIRlNf.s 			page 236


 12245 02d2 03       		.uleb128 0x3
 12246 02d3 08       		.uleb128 0x8
 12247 02d4 3A       		.uleb128 0x3a
 12248 02d5 0B       		.uleb128 0xb
 12249 02d6 3B       		.uleb128 0x3b
 12250 02d7 0B       		.uleb128 0xb
 12251 02d8 49       		.uleb128 0x49
 12252 02d9 13       		.uleb128 0x13
 12253 02da 3F       		.uleb128 0x3f
 12254 02db 19       		.uleb128 0x19
 12255 02dc 02       		.uleb128 0x2
 12256 02dd 18       		.uleb128 0x18
 12257 02de 00       		.byte	0
 12258 02df 00       		.byte	0
 12259 02e0 2A       		.uleb128 0x2a
 12260 02e1 34       		.uleb128 0x34
 12261 02e2 00       		.byte	0
 12262 02e3 03       		.uleb128 0x3
 12263 02e4 0E       		.uleb128 0xe
 12264 02e5 3A       		.uleb128 0x3a
 12265 02e6 0B       		.uleb128 0xb
 12266 02e7 3B       		.uleb128 0x3b
 12267 02e8 0B       		.uleb128 0xb
 12268 02e9 49       		.uleb128 0x49
 12269 02ea 13       		.uleb128 0x13
 12270 02eb 3F       		.uleb128 0x3f
 12271 02ec 19       		.uleb128 0x19
 12272 02ed 02       		.uleb128 0x2
 12273 02ee 18       		.uleb128 0x18
 12274 02ef 00       		.byte	0
 12275 02f0 00       		.byte	0
 12276 02f1 2B       		.uleb128 0x2b
 12277 02f2 2E       		.uleb128 0x2e
 12278 02f3 00       		.byte	0
 12279 02f4 3F       		.uleb128 0x3f
 12280 02f5 19       		.uleb128 0x19
 12281 02f6 3C       		.uleb128 0x3c
 12282 02f7 19       		.uleb128 0x19
 12283 02f8 6E       		.uleb128 0x6e
 12284 02f9 0E       		.uleb128 0xe
 12285 02fa 03       		.uleb128 0x3
 12286 02fb 0E       		.uleb128 0xe
 12287 02fc 3A       		.uleb128 0x3a
 12288 02fd 0B       		.uleb128 0xb
 12289 02fe 3B       		.uleb128 0x3b
 12290 02ff 05       		.uleb128 0x5
 12291 0300 00       		.byte	0
 12292 0301 00       		.byte	0
 12293 0302 2C       		.uleb128 0x2c
 12294 0303 2E       		.uleb128 0x2e
 12295 0304 00       		.byte	0
 12296 0305 3F       		.uleb128 0x3f
 12297 0306 19       		.uleb128 0x19
 12298 0307 3C       		.uleb128 0x3c
 12299 0308 19       		.uleb128 0x19
 12300 0309 6E       		.uleb128 0x6e
 12301 030a 0E       		.uleb128 0xe
ARM GAS  C:\Users\HENRYA~1\AppData\Local\Temp\cceIRlNf.s 			page 237


 12302 030b 03       		.uleb128 0x3
 12303 030c 0E       		.uleb128 0xe
 12304 030d 3A       		.uleb128 0x3a
 12305 030e 0B       		.uleb128 0xb
 12306 030f 3B       		.uleb128 0x3b
 12307 0310 0B       		.uleb128 0xb
 12308 0311 00       		.byte	0
 12309 0312 00       		.byte	0
 12310 0313 2D       		.uleb128 0x2d
 12311 0314 2E       		.uleb128 0x2e
 12312 0315 00       		.byte	0
 12313 0316 3F       		.uleb128 0x3f
 12314 0317 19       		.uleb128 0x19
 12315 0318 3C       		.uleb128 0x3c
 12316 0319 19       		.uleb128 0x19
 12317 031a 6E       		.uleb128 0x6e
 12318 031b 08       		.uleb128 0x8
 12319 031c 03       		.uleb128 0x3
 12320 031d 08       		.uleb128 0x8
 12321 031e 3A       		.uleb128 0x3a
 12322 031f 0B       		.uleb128 0xb
 12323 0320 3B       		.uleb128 0x3b
 12324 0321 0B       		.uleb128 0xb
 12325 0322 00       		.byte	0
 12326 0323 00       		.byte	0
 12327 0324 00       		.byte	0
 12328              		.section	.debug_loc,"",%progbits
 12329              	.Ldebug_loc0:
 12330              	.LLST0:
 12331 0000 00000000 		.4byte	.LVL0
 12332 0004 12000000 		.4byte	.LVL2
 12333 0008 0100     		.2byte	0x1
 12334 000a 50       		.byte	0x50
 12335 000b 12000000 		.4byte	.LVL2
 12336 000f 22000000 		.4byte	.LFE36
 12337 0013 0400     		.2byte	0x4
 12338 0015 F3       		.byte	0xf3
 12339 0016 01       		.uleb128 0x1
 12340 0017 50       		.byte	0x50
 12341 0018 9F       		.byte	0x9f
 12342 0019 00000000 		.4byte	0
 12343 001d 00000000 		.4byte	0
 12344              	.LLST1:
 12345 0021 00000000 		.4byte	.LVL0
 12346 0025 10000000 		.4byte	.LVL1
 12347 0029 0100     		.2byte	0x1
 12348 002b 51       		.byte	0x51
 12349 002c 10000000 		.4byte	.LVL1
 12350 0030 22000000 		.4byte	.LFE36
 12351 0034 0400     		.2byte	0x4
 12352 0036 F3       		.byte	0xf3
 12353 0037 01       		.uleb128 0x1
 12354 0038 51       		.byte	0x51
 12355 0039 9F       		.byte	0x9f
 12356 003a 00000000 		.4byte	0
 12357 003e 00000000 		.4byte	0
 12358              	.LLST2:
ARM GAS  C:\Users\HENRYA~1\AppData\Local\Temp\cceIRlNf.s 			page 238


 12359 0042 00000000 		.4byte	.LVL5
 12360 0046 14000000 		.4byte	.LVL6
 12361 004a 0100     		.2byte	0x1
 12362 004c 50       		.byte	0x50
 12363 004d 14000000 		.4byte	.LVL6
 12364 0051 3C000000 		.4byte	.LFE37
 12365 0055 0400     		.2byte	0x4
 12366 0057 F3       		.byte	0xf3
 12367 0058 01       		.uleb128 0x1
 12368 0059 50       		.byte	0x50
 12369 005a 9F       		.byte	0x9f
 12370 005b 00000000 		.4byte	0
 12371 005f 00000000 		.4byte	0
 12372              	.LLST3:
 12373 0063 08000000 		.4byte	.LVL11
 12374 0067 0E000000 		.4byte	.LVL12
 12375 006b 0100     		.2byte	0x1
 12376 006d 50       		.byte	0x50
 12377 006e 2A000000 		.4byte	.LVL17
 12378 0072 2C000000 		.4byte	.LVL18
 12379 0076 0100     		.2byte	0x1
 12380 0078 50       		.byte	0x50
 12381 0079 00000000 		.4byte	0
 12382 007d 00000000 		.4byte	0
 12383              	.LLST4:
 12384 0081 08000000 		.4byte	.LVL29
 12385 0085 10000000 		.4byte	.LVL30
 12386 0089 0100     		.2byte	0x1
 12387 008b 50       		.byte	0x50
 12388 008c 00000000 		.4byte	0
 12389 0090 00000000 		.4byte	0
 12390              	.LLST5:
 12391 0094 26000000 		.4byte	.LVL34
 12392 0098 2E000000 		.4byte	.LVL36
 12393 009c 0100     		.2byte	0x1
 12394 009e 54       		.byte	0x54
 12395 009f 2E000000 		.4byte	.LVL36
 12396 00a3 30000000 		.4byte	.LFE39
 12397 00a7 0100     		.2byte	0x1
 12398 00a9 50       		.byte	0x50
 12399 00aa 00000000 		.4byte	0
 12400 00ae 00000000 		.4byte	0
 12401              	.LLST6:
 12402 00b2 08000000 		.4byte	.LVL37
 12403 00b6 10000000 		.4byte	.LVL38
 12404 00ba 0100     		.2byte	0x1
 12405 00bc 50       		.byte	0x50
 12406 00bd 00000000 		.4byte	0
 12407 00c1 00000000 		.4byte	0
 12408              	.LLST7:
 12409 00c5 26000000 		.4byte	.LVL42
 12410 00c9 2E000000 		.4byte	.LVL44
 12411 00cd 0100     		.2byte	0x1
 12412 00cf 54       		.byte	0x54
 12413 00d0 2E000000 		.4byte	.LVL44
 12414 00d4 30000000 		.4byte	.LFE40
 12415 00d8 0100     		.2byte	0x1
ARM GAS  C:\Users\HENRYA~1\AppData\Local\Temp\cceIRlNf.s 			page 239


 12416 00da 50       		.byte	0x50
 12417 00db 00000000 		.4byte	0
 12418 00df 00000000 		.4byte	0
 12419              	.LLST8:
 12420 00e3 00000000 		.4byte	.LVL45
 12421 00e7 12000000 		.4byte	.LVL47
 12422 00eb 0100     		.2byte	0x1
 12423 00ed 50       		.byte	0x50
 12424 00ee 12000000 		.4byte	.LVL47
 12425 00f2 22000000 		.4byte	.LFE41
 12426 00f6 0400     		.2byte	0x4
 12427 00f8 F3       		.byte	0xf3
 12428 00f9 01       		.uleb128 0x1
 12429 00fa 50       		.byte	0x50
 12430 00fb 9F       		.byte	0x9f
 12431 00fc 00000000 		.4byte	0
 12432 0100 00000000 		.4byte	0
 12433              	.LLST9:
 12434 0104 00000000 		.4byte	.LVL45
 12435 0108 10000000 		.4byte	.LVL46
 12436 010c 0100     		.2byte	0x1
 12437 010e 51       		.byte	0x51
 12438 010f 10000000 		.4byte	.LVL46
 12439 0113 22000000 		.4byte	.LFE41
 12440 0117 0400     		.2byte	0x4
 12441 0119 F3       		.byte	0xf3
 12442 011a 01       		.uleb128 0x1
 12443 011b 51       		.byte	0x51
 12444 011c 9F       		.byte	0x9f
 12445 011d 00000000 		.4byte	0
 12446 0121 00000000 		.4byte	0
 12447              	.LLST10:
 12448 0125 00000000 		.4byte	.LVL50
 12449 0129 14000000 		.4byte	.LVL51
 12450 012d 0100     		.2byte	0x1
 12451 012f 50       		.byte	0x50
 12452 0130 14000000 		.4byte	.LVL51
 12453 0134 3C000000 		.4byte	.LFE42
 12454 0138 0400     		.2byte	0x4
 12455 013a F3       		.byte	0xf3
 12456 013b 01       		.uleb128 0x1
 12457 013c 50       		.byte	0x50
 12458 013d 9F       		.byte	0x9f
 12459 013e 00000000 		.4byte	0
 12460 0142 00000000 		.4byte	0
 12461              	.LLST11:
 12462 0146 08000000 		.4byte	.LVL56
 12463 014a 0E000000 		.4byte	.LVL57
 12464 014e 0100     		.2byte	0x1
 12465 0150 50       		.byte	0x50
 12466 0151 2A000000 		.4byte	.LVL62
 12467 0155 2C000000 		.4byte	.LVL63
 12468 0159 0100     		.2byte	0x1
 12469 015b 50       		.byte	0x50
 12470 015c 00000000 		.4byte	0
 12471 0160 00000000 		.4byte	0
 12472              	.LLST12:
ARM GAS  C:\Users\HENRYA~1\AppData\Local\Temp\cceIRlNf.s 			page 240


 12473 0164 08000000 		.4byte	.LVL74
 12474 0168 10000000 		.4byte	.LVL75
 12475 016c 0100     		.2byte	0x1
 12476 016e 50       		.byte	0x50
 12477 016f 00000000 		.4byte	0
 12478 0173 00000000 		.4byte	0
 12479              	.LLST13:
 12480 0177 26000000 		.4byte	.LVL79
 12481 017b 2E000000 		.4byte	.LVL81
 12482 017f 0100     		.2byte	0x1
 12483 0181 54       		.byte	0x54
 12484 0182 2E000000 		.4byte	.LVL81
 12485 0186 30000000 		.4byte	.LFE44
 12486 018a 0100     		.2byte	0x1
 12487 018c 50       		.byte	0x50
 12488 018d 00000000 		.4byte	0
 12489 0191 00000000 		.4byte	0
 12490              	.LLST14:
 12491 0195 08000000 		.4byte	.LVL82
 12492 0199 10000000 		.4byte	.LVL83
 12493 019d 0100     		.2byte	0x1
 12494 019f 50       		.byte	0x50
 12495 01a0 00000000 		.4byte	0
 12496 01a4 00000000 		.4byte	0
 12497              	.LLST15:
 12498 01a8 26000000 		.4byte	.LVL87
 12499 01ac 2E000000 		.4byte	.LVL89
 12500 01b0 0100     		.2byte	0x1
 12501 01b2 54       		.byte	0x54
 12502 01b3 2E000000 		.4byte	.LVL89
 12503 01b7 30000000 		.4byte	.LFE45
 12504 01bb 0100     		.2byte	0x1
 12505 01bd 50       		.byte	0x50
 12506 01be 00000000 		.4byte	0
 12507 01c2 00000000 		.4byte	0
 12508              	.LLST16:
 12509 01c6 00000000 		.4byte	.LVL90
 12510 01ca 12000000 		.4byte	.LVL92
 12511 01ce 0100     		.2byte	0x1
 12512 01d0 50       		.byte	0x50
 12513 01d1 12000000 		.4byte	.LVL92
 12514 01d5 22000000 		.4byte	.LFE46
 12515 01d9 0400     		.2byte	0x4
 12516 01db F3       		.byte	0xf3
 12517 01dc 01       		.uleb128 0x1
 12518 01dd 50       		.byte	0x50
 12519 01de 9F       		.byte	0x9f
 12520 01df 00000000 		.4byte	0
 12521 01e3 00000000 		.4byte	0
 12522              	.LLST17:
 12523 01e7 00000000 		.4byte	.LVL90
 12524 01eb 10000000 		.4byte	.LVL91
 12525 01ef 0100     		.2byte	0x1
 12526 01f1 51       		.byte	0x51
 12527 01f2 10000000 		.4byte	.LVL91
 12528 01f6 22000000 		.4byte	.LFE46
 12529 01fa 0400     		.2byte	0x4
ARM GAS  C:\Users\HENRYA~1\AppData\Local\Temp\cceIRlNf.s 			page 241


 12530 01fc F3       		.byte	0xf3
 12531 01fd 01       		.uleb128 0x1
 12532 01fe 51       		.byte	0x51
 12533 01ff 9F       		.byte	0x9f
 12534 0200 00000000 		.4byte	0
 12535 0204 00000000 		.4byte	0
 12536              	.LLST18:
 12537 0208 00000000 		.4byte	.LVL95
 12538 020c 14000000 		.4byte	.LVL96
 12539 0210 0100     		.2byte	0x1
 12540 0212 50       		.byte	0x50
 12541 0213 14000000 		.4byte	.LVL96
 12542 0217 3C000000 		.4byte	.LFE47
 12543 021b 0400     		.2byte	0x4
 12544 021d F3       		.byte	0xf3
 12545 021e 01       		.uleb128 0x1
 12546 021f 50       		.byte	0x50
 12547 0220 9F       		.byte	0x9f
 12548 0221 00000000 		.4byte	0
 12549 0225 00000000 		.4byte	0
 12550              	.LLST19:
 12551 0229 08000000 		.4byte	.LVL101
 12552 022d 0E000000 		.4byte	.LVL102
 12553 0231 0100     		.2byte	0x1
 12554 0233 50       		.byte	0x50
 12555 0234 2A000000 		.4byte	.LVL107
 12556 0238 2C000000 		.4byte	.LVL108
 12557 023c 0100     		.2byte	0x1
 12558 023e 50       		.byte	0x50
 12559 023f 00000000 		.4byte	0
 12560 0243 00000000 		.4byte	0
 12561              	.LLST20:
 12562 0247 08000000 		.4byte	.LVL119
 12563 024b 10000000 		.4byte	.LVL120
 12564 024f 0100     		.2byte	0x1
 12565 0251 50       		.byte	0x50
 12566 0252 00000000 		.4byte	0
 12567 0256 00000000 		.4byte	0
 12568              	.LLST21:
 12569 025a 26000000 		.4byte	.LVL124
 12570 025e 2E000000 		.4byte	.LVL126
 12571 0262 0100     		.2byte	0x1
 12572 0264 54       		.byte	0x54
 12573 0265 2E000000 		.4byte	.LVL126
 12574 0269 30000000 		.4byte	.LFE49
 12575 026d 0100     		.2byte	0x1
 12576 026f 50       		.byte	0x50
 12577 0270 00000000 		.4byte	0
 12578 0274 00000000 		.4byte	0
 12579              	.LLST22:
 12580 0278 08000000 		.4byte	.LVL127
 12581 027c 10000000 		.4byte	.LVL128
 12582 0280 0100     		.2byte	0x1
 12583 0282 50       		.byte	0x50
 12584 0283 00000000 		.4byte	0
 12585 0287 00000000 		.4byte	0
 12586              	.LLST23:
ARM GAS  C:\Users\HENRYA~1\AppData\Local\Temp\cceIRlNf.s 			page 242


 12587 028b 26000000 		.4byte	.LVL132
 12588 028f 2E000000 		.4byte	.LVL134
 12589 0293 0100     		.2byte	0x1
 12590 0295 54       		.byte	0x54
 12591 0296 2E000000 		.4byte	.LVL134
 12592 029a 30000000 		.4byte	.LFE50
 12593 029e 0100     		.2byte	0x1
 12594 02a0 50       		.byte	0x50
 12595 02a1 00000000 		.4byte	0
 12596 02a5 00000000 		.4byte	0
 12597              	.LLST24:
 12598 02a9 00000000 		.4byte	.LVL147
 12599 02ad 10000000 		.4byte	.LVL148
 12600 02b1 0100     		.2byte	0x1
 12601 02b3 50       		.byte	0x50
 12602 02b4 10000000 		.4byte	.LVL148
 12603 02b8 FC000000 		.4byte	.LFE52
 12604 02bc 0400     		.2byte	0x4
 12605 02be F3       		.byte	0xf3
 12606 02bf 01       		.uleb128 0x1
 12607 02c0 50       		.byte	0x50
 12608 02c1 9F       		.byte	0x9f
 12609 02c2 00000000 		.4byte	0
 12610 02c6 00000000 		.4byte	0
 12611              	.LLST25:
 12612 02ca 00000000 		.4byte	.LVL174
 12613 02ce 12000000 		.4byte	.LVL175
 12614 02d2 0100     		.2byte	0x1
 12615 02d4 50       		.byte	0x50
 12616 02d5 12000000 		.4byte	.LVL175
 12617 02d9 64000000 		.4byte	.LFE53
 12618 02dd 0400     		.2byte	0x4
 12619 02df F3       		.byte	0xf3
 12620 02e0 01       		.uleb128 0x1
 12621 02e1 50       		.byte	0x50
 12622 02e2 9F       		.byte	0x9f
 12623 02e3 00000000 		.4byte	0
 12624 02e7 00000000 		.4byte	0
 12625              	.LLST26:
 12626 02eb 00000000 		.4byte	.LVL174
 12627 02ef 15000000 		.4byte	.LVL176-1
 12628 02f3 0100     		.2byte	0x1
 12629 02f5 51       		.byte	0x51
 12630 02f6 15000000 		.4byte	.LVL176-1
 12631 02fa 64000000 		.4byte	.LFE53
 12632 02fe 0400     		.2byte	0x4
 12633 0300 F3       		.byte	0xf3
 12634 0301 01       		.uleb128 0x1
 12635 0302 51       		.byte	0x51
 12636 0303 9F       		.byte	0x9f
 12637 0304 00000000 		.4byte	0
 12638 0308 00000000 		.4byte	0
 12639              	.LLST27:
 12640 030c 00000000 		.4byte	.LVL189
 12641 0310 0E000000 		.4byte	.LVL190
 12642 0314 0100     		.2byte	0x1
 12643 0316 50       		.byte	0x50
ARM GAS  C:\Users\HENRYA~1\AppData\Local\Temp\cceIRlNf.s 			page 243


 12644 0317 0E000000 		.4byte	.LVL190
 12645 031b 54000000 		.4byte	.LFE54
 12646 031f 0400     		.2byte	0x4
 12647 0321 F3       		.byte	0xf3
 12648 0322 01       		.uleb128 0x1
 12649 0323 50       		.byte	0x50
 12650 0324 9F       		.byte	0x9f
 12651 0325 00000000 		.4byte	0
 12652 0329 00000000 		.4byte	0
 12653              	.LLST28:
 12654 032d 00000000 		.4byte	.LVL202
 12655 0331 10000000 		.4byte	.LVL203
 12656 0335 0100     		.2byte	0x1
 12657 0337 50       		.byte	0x50
 12658 0338 10000000 		.4byte	.LVL203
 12659 033c 58000000 		.4byte	.LFE55
 12660 0340 0400     		.2byte	0x4
 12661 0342 F3       		.byte	0xf3
 12662 0343 01       		.uleb128 0x1
 12663 0344 50       		.byte	0x50
 12664 0345 9F       		.byte	0x9f
 12665 0346 00000000 		.4byte	0
 12666 034a 00000000 		.4byte	0
 12667              	.LLST29:
 12668 034e 00000000 		.4byte	.LVL215
 12669 0352 12000000 		.4byte	.LVL216
 12670 0356 0100     		.2byte	0x1
 12671 0358 50       		.byte	0x50
 12672 0359 12000000 		.4byte	.LVL216
 12673 035d 64000000 		.4byte	.LFE56
 12674 0361 0400     		.2byte	0x4
 12675 0363 F3       		.byte	0xf3
 12676 0364 01       		.uleb128 0x1
 12677 0365 50       		.byte	0x50
 12678 0366 9F       		.byte	0x9f
 12679 0367 00000000 		.4byte	0
 12680 036b 00000000 		.4byte	0
 12681              	.LLST30:
 12682 036f 00000000 		.4byte	.LVL215
 12683 0373 15000000 		.4byte	.LVL217-1
 12684 0377 0100     		.2byte	0x1
 12685 0379 51       		.byte	0x51
 12686 037a 15000000 		.4byte	.LVL217-1
 12687 037e 64000000 		.4byte	.LFE56
 12688 0382 0400     		.2byte	0x4
 12689 0384 F3       		.byte	0xf3
 12690 0385 01       		.uleb128 0x1
 12691 0386 51       		.byte	0x51
 12692 0387 9F       		.byte	0x9f
 12693 0388 00000000 		.4byte	0
 12694 038c 00000000 		.4byte	0
 12695              	.LLST31:
 12696 0390 00000000 		.4byte	.LVL230
 12697 0394 18000000 		.4byte	.LVL233
 12698 0398 0100     		.2byte	0x1
 12699 039a 50       		.byte	0x50
 12700 039b 18000000 		.4byte	.LVL233
ARM GAS  C:\Users\HENRYA~1\AppData\Local\Temp\cceIRlNf.s 			page 244


 12701 039f 70000000 		.4byte	.LFE57
 12702 03a3 0400     		.2byte	0x4
 12703 03a5 F3       		.byte	0xf3
 12704 03a6 01       		.uleb128 0x1
 12705 03a7 50       		.byte	0x50
 12706 03a8 9F       		.byte	0x9f
 12707 03a9 00000000 		.4byte	0
 12708 03ad 00000000 		.4byte	0
 12709              	.LLST32:
 12710 03b1 00000000 		.4byte	.LVL230
 12711 03b5 1B000000 		.4byte	.LVL234-1
 12712 03b9 0100     		.2byte	0x1
 12713 03bb 51       		.byte	0x51
 12714 03bc 1B000000 		.4byte	.LVL234-1
 12715 03c0 70000000 		.4byte	.LFE57
 12716 03c4 0400     		.2byte	0x4
 12717 03c6 F3       		.byte	0xf3
 12718 03c7 01       		.uleb128 0x1
 12719 03c8 51       		.byte	0x51
 12720 03c9 9F       		.byte	0x9f
 12721 03ca 00000000 		.4byte	0
 12722 03ce 00000000 		.4byte	0
 12723              	.LLST33:
 12724 03d2 08000000 		.4byte	.LVL231
 12725 03d6 6A000000 		.4byte	.LVL249
 12726 03da 0100     		.2byte	0x1
 12727 03dc 56       		.byte	0x56
 12728 03dd 6A000000 		.4byte	.LVL249
 12729 03e1 70000000 		.4byte	.LFE57
 12730 03e5 0600     		.2byte	0x6
 12731 03e7 F3       		.byte	0xf3
 12732 03e8 01       		.uleb128 0x1
 12733 03e9 51       		.byte	0x51
 12734 03ea 38       		.byte	0x38
 12735 03eb 26       		.byte	0x26
 12736 03ec 9F       		.byte	0x9f
 12737 03ed 00000000 		.4byte	0
 12738 03f1 00000000 		.4byte	0
 12739              	.LLST34:
 12740 03f5 0A000000 		.4byte	.LVL232
 12741 03f9 6A000000 		.4byte	.LVL248
 12742 03fd 0100     		.2byte	0x1
 12743 03ff 55       		.byte	0x55
 12744 0400 6A000000 		.4byte	.LVL248
 12745 0404 70000000 		.4byte	.LFE57
 12746 0408 0400     		.2byte	0x4
 12747 040a F3       		.byte	0xf3
 12748 040b 01       		.uleb128 0x1
 12749 040c 51       		.byte	0x51
 12750 040d 9F       		.byte	0x9f
 12751 040e 00000000 		.4byte	0
 12752 0412 00000000 		.4byte	0
 12753              	.LLST35:
 12754 0416 00000000 		.4byte	.LVL250
 12755 041a 14000000 		.4byte	.LVL251
 12756 041e 0100     		.2byte	0x1
 12757 0420 50       		.byte	0x50
ARM GAS  C:\Users\HENRYA~1\AppData\Local\Temp\cceIRlNf.s 			page 245


 12758 0421 14000000 		.4byte	.LVL251
 12759 0425 5C000000 		.4byte	.LVL264
 12760 0429 0400     		.2byte	0x4
 12761 042b F3       		.byte	0xf3
 12762 042c 01       		.uleb128 0x1
 12763 042d 50       		.byte	0x50
 12764 042e 9F       		.byte	0x9f
 12765 042f 5C000000 		.4byte	.LVL264
 12766 0433 68000000 		.4byte	.LVL265
 12767 0437 0100     		.2byte	0x1
 12768 0439 50       		.byte	0x50
 12769 043a 68000000 		.4byte	.LVL265
 12770 043e C0000000 		.4byte	.LFE58
 12771 0442 0400     		.2byte	0x4
 12772 0444 F3       		.byte	0xf3
 12773 0445 01       		.uleb128 0x1
 12774 0446 50       		.byte	0x50
 12775 0447 9F       		.byte	0x9f
 12776 0448 00000000 		.4byte	0
 12777 044c 00000000 		.4byte	0
 12778              	.LLST36:
 12779 0450 00000000 		.4byte	.LVL250
 12780 0454 17000000 		.4byte	.LVL252-1
 12781 0458 0100     		.2byte	0x1
 12782 045a 51       		.byte	0x51
 12783 045b 17000000 		.4byte	.LVL252-1
 12784 045f 5C000000 		.4byte	.LVL264
 12785 0463 0400     		.2byte	0x4
 12786 0465 F3       		.byte	0xf3
 12787 0466 01       		.uleb128 0x1
 12788 0467 51       		.byte	0x51
 12789 0468 9F       		.byte	0x9f
 12790 0469 5C000000 		.4byte	.LVL264
 12791 046d 6B000000 		.4byte	.LVL266-1
 12792 0471 0100     		.2byte	0x1
 12793 0473 51       		.byte	0x51
 12794 0474 6B000000 		.4byte	.LVL266-1
 12795 0478 C0000000 		.4byte	.LFE58
 12796 047c 0400     		.2byte	0x4
 12797 047e F3       		.byte	0xf3
 12798 047f 01       		.uleb128 0x1
 12799 0480 51       		.byte	0x51
 12800 0481 9F       		.byte	0x9f
 12801 0482 00000000 		.4byte	0
 12802 0486 00000000 		.4byte	0
 12803              	.LLST37:
 12804 048a 00000000 		.4byte	.LVL250
 12805 048e 17000000 		.4byte	.LVL252-1
 12806 0492 0100     		.2byte	0x1
 12807 0494 52       		.byte	0x52
 12808 0495 17000000 		.4byte	.LVL252-1
 12809 0499 5C000000 		.4byte	.LVL264
 12810 049d 0400     		.2byte	0x4
 12811 049f F3       		.byte	0xf3
 12812 04a0 01       		.uleb128 0x1
 12813 04a1 52       		.byte	0x52
 12814 04a2 9F       		.byte	0x9f
ARM GAS  C:\Users\HENRYA~1\AppData\Local\Temp\cceIRlNf.s 			page 246


 12815 04a3 5C000000 		.4byte	.LVL264
 12816 04a7 6B000000 		.4byte	.LVL266-1
 12817 04ab 0100     		.2byte	0x1
 12818 04ad 52       		.byte	0x52
 12819 04ae 6B000000 		.4byte	.LVL266-1
 12820 04b2 C0000000 		.4byte	.LFE58
 12821 04b6 0400     		.2byte	0x4
 12822 04b8 F3       		.byte	0xf3
 12823 04b9 01       		.uleb128 0x1
 12824 04ba 52       		.byte	0x52
 12825 04bb 9F       		.byte	0x9f
 12826 04bc 00000000 		.4byte	0
 12827 04c0 00000000 		.4byte	0
 12828              	.LLST38:
 12829 04c4 00000000 		.4byte	.LVL280
 12830 04c8 12000000 		.4byte	.LVL281
 12831 04cc 0100     		.2byte	0x1
 12832 04ce 50       		.byte	0x50
 12833 04cf 12000000 		.4byte	.LVL281
 12834 04d3 64000000 		.4byte	.LFE59
 12835 04d7 0400     		.2byte	0x4
 12836 04d9 F3       		.byte	0xf3
 12837 04da 01       		.uleb128 0x1
 12838 04db 50       		.byte	0x50
 12839 04dc 9F       		.byte	0x9f
 12840 04dd 00000000 		.4byte	0
 12841 04e1 00000000 		.4byte	0
 12842              	.LLST39:
 12843 04e5 00000000 		.4byte	.LVL280
 12844 04e9 15000000 		.4byte	.LVL282-1
 12845 04ed 0100     		.2byte	0x1
 12846 04ef 51       		.byte	0x51
 12847 04f0 15000000 		.4byte	.LVL282-1
 12848 04f4 64000000 		.4byte	.LFE59
 12849 04f8 0400     		.2byte	0x4
 12850 04fa F3       		.byte	0xf3
 12851 04fb 01       		.uleb128 0x1
 12852 04fc 51       		.byte	0x51
 12853 04fd 9F       		.byte	0x9f
 12854 04fe 00000000 		.4byte	0
 12855 0502 00000000 		.4byte	0
 12856              	.LLST40:
 12857 0506 00000000 		.4byte	.LVL295
 12858 050a 2A000000 		.4byte	.LVL300
 12859 050e 0100     		.2byte	0x1
 12860 0510 50       		.byte	0x50
 12861 0511 2A000000 		.4byte	.LVL300
 12862 0515 94000000 		.4byte	.LFE60
 12863 0519 0400     		.2byte	0x4
 12864 051b F3       		.byte	0xf3
 12865 051c 01       		.uleb128 0x1
 12866 051d 50       		.byte	0x50
 12867 051e 9F       		.byte	0x9f
 12868 051f 00000000 		.4byte	0
 12869 0523 00000000 		.4byte	0
 12870              	.LLST41:
 12871 0527 00000000 		.4byte	.LVL295
ARM GAS  C:\Users\HENRYA~1\AppData\Local\Temp\cceIRlNf.s 			page 247


 12872 052b 2D000000 		.4byte	.LVL301-1
 12873 052f 0100     		.2byte	0x1
 12874 0531 51       		.byte	0x51
 12875 0532 2D000000 		.4byte	.LVL301-1
 12876 0536 94000000 		.4byte	.LFE60
 12877 053a 0400     		.2byte	0x4
 12878 053c F3       		.byte	0xf3
 12879 053d 01       		.uleb128 0x1
 12880 053e 51       		.byte	0x51
 12881 053f 9F       		.byte	0x9f
 12882 0540 00000000 		.4byte	0
 12883 0544 00000000 		.4byte	0
 12884              	.LLST42:
 12885 0548 00000000 		.4byte	.LVL295
 12886 054c 2D000000 		.4byte	.LVL301-1
 12887 0550 0100     		.2byte	0x1
 12888 0552 52       		.byte	0x52
 12889 0553 2D000000 		.4byte	.LVL301-1
 12890 0557 94000000 		.4byte	.LFE60
 12891 055b 0400     		.2byte	0x4
 12892 055d F3       		.byte	0xf3
 12893 055e 01       		.uleb128 0x1
 12894 055f 52       		.byte	0x52
 12895 0560 9F       		.byte	0x9f
 12896 0561 00000000 		.4byte	0
 12897 0565 00000000 		.4byte	0
 12898              	.LLST43:
 12899 0569 0E000000 		.4byte	.LVL296
 12900 056d 8A000000 		.4byte	.LVL320
 12901 0571 0100     		.2byte	0x1
 12902 0573 58       		.byte	0x58
 12903 0574 8A000000 		.4byte	.LVL320
 12904 0578 94000000 		.4byte	.LFE60
 12905 057c 0600     		.2byte	0x6
 12906 057e F3       		.byte	0xf3
 12907 057f 01       		.uleb128 0x1
 12908 0580 51       		.byte	0x51
 12909 0581 38       		.byte	0x38
 12910 0582 26       		.byte	0x26
 12911 0583 9F       		.byte	0x9f
 12912 0584 00000000 		.4byte	0
 12913 0588 00000000 		.4byte	0
 12914              	.LLST44:
 12915 058c 10000000 		.4byte	.LVL297
 12916 0590 8A000000 		.4byte	.LVL318
 12917 0594 0100     		.2byte	0x1
 12918 0596 56       		.byte	0x56
 12919 0597 8A000000 		.4byte	.LVL318
 12920 059b 94000000 		.4byte	.LFE60
 12921 059f 0400     		.2byte	0x4
 12922 05a1 F3       		.byte	0xf3
 12923 05a2 01       		.uleb128 0x1
 12924 05a3 51       		.byte	0x51
 12925 05a4 9F       		.byte	0x9f
 12926 05a5 00000000 		.4byte	0
 12927 05a9 00000000 		.4byte	0
 12928              	.LLST45:
ARM GAS  C:\Users\HENRYA~1\AppData\Local\Temp\cceIRlNf.s 			page 248


 12929 05ad 14000000 		.4byte	.LVL298
 12930 05b1 8A000000 		.4byte	.LVL319
 12931 05b5 0100     		.2byte	0x1
 12932 05b7 57       		.byte	0x57
 12933 05b8 8A000000 		.4byte	.LVL319
 12934 05bc 94000000 		.4byte	.LFE60
 12935 05c0 0600     		.2byte	0x6
 12936 05c2 F3       		.byte	0xf3
 12937 05c3 01       		.uleb128 0x1
 12938 05c4 52       		.byte	0x52
 12939 05c5 38       		.byte	0x38
 12940 05c6 26       		.byte	0x26
 12941 05c7 9F       		.byte	0x9f
 12942 05c8 00000000 		.4byte	0
 12943 05cc 00000000 		.4byte	0
 12944              	.LLST46:
 12945 05d0 16000000 		.4byte	.LVL299
 12946 05d4 8A000000 		.4byte	.LVL317
 12947 05d8 0100     		.2byte	0x1
 12948 05da 54       		.byte	0x54
 12949 05db 8A000000 		.4byte	.LVL317
 12950 05df 94000000 		.4byte	.LFE60
 12951 05e3 0400     		.2byte	0x4
 12952 05e5 F3       		.byte	0xf3
 12953 05e6 01       		.uleb128 0x1
 12954 05e7 52       		.byte	0x52
 12955 05e8 9F       		.byte	0x9f
 12956 05e9 00000000 		.4byte	0
 12957 05ed 00000000 		.4byte	0
 12958              	.LLST47:
 12959 05f1 00000000 		.4byte	.LVL321
 12960 05f5 18000000 		.4byte	.LVL324
 12961 05f9 0100     		.2byte	0x1
 12962 05fb 50       		.byte	0x50
 12963 05fc 18000000 		.4byte	.LVL324
 12964 0600 70000000 		.4byte	.LFE61
 12965 0604 0400     		.2byte	0x4
 12966 0606 F3       		.byte	0xf3
 12967 0607 01       		.uleb128 0x1
 12968 0608 50       		.byte	0x50
 12969 0609 9F       		.byte	0x9f
 12970 060a 00000000 		.4byte	0
 12971 060e 00000000 		.4byte	0
 12972              	.LLST48:
 12973 0612 00000000 		.4byte	.LVL321
 12974 0616 1B000000 		.4byte	.LVL325-1
 12975 061a 0100     		.2byte	0x1
 12976 061c 51       		.byte	0x51
 12977 061d 1B000000 		.4byte	.LVL325-1
 12978 0621 70000000 		.4byte	.LFE61
 12979 0625 0400     		.2byte	0x4
 12980 0627 F3       		.byte	0xf3
 12981 0628 01       		.uleb128 0x1
 12982 0629 51       		.byte	0x51
 12983 062a 9F       		.byte	0x9f
 12984 062b 00000000 		.4byte	0
 12985 062f 00000000 		.4byte	0
ARM GAS  C:\Users\HENRYA~1\AppData\Local\Temp\cceIRlNf.s 			page 249


 12986              	.LLST49:
 12987 0633 08000000 		.4byte	.LVL322
 12988 0637 6A000000 		.4byte	.LVL340
 12989 063b 0100     		.2byte	0x1
 12990 063d 56       		.byte	0x56
 12991 063e 6A000000 		.4byte	.LVL340
 12992 0642 70000000 		.4byte	.LFE61
 12993 0646 0600     		.2byte	0x6
 12994 0648 F3       		.byte	0xf3
 12995 0649 01       		.uleb128 0x1
 12996 064a 51       		.byte	0x51
 12997 064b 38       		.byte	0x38
 12998 064c 26       		.byte	0x26
 12999 064d 9F       		.byte	0x9f
 13000 064e 00000000 		.4byte	0
 13001 0652 00000000 		.4byte	0
 13002              	.LLST50:
 13003 0656 0A000000 		.4byte	.LVL323
 13004 065a 6A000000 		.4byte	.LVL339
 13005 065e 0100     		.2byte	0x1
 13006 0660 55       		.byte	0x55
 13007 0661 6A000000 		.4byte	.LVL339
 13008 0665 70000000 		.4byte	.LFE61
 13009 0669 0400     		.2byte	0x4
 13010 066b F3       		.byte	0xf3
 13011 066c 01       		.uleb128 0x1
 13012 066d 51       		.byte	0x51
 13013 066e 9F       		.byte	0x9f
 13014 066f 00000000 		.4byte	0
 13015 0673 00000000 		.4byte	0
 13016              	.LLST51:
 13017 0677 00000000 		.4byte	.LVL351
 13018 067b 1C000000 		.4byte	.LVL354
 13019 067f 0100     		.2byte	0x1
 13020 0681 50       		.byte	0x50
 13021 0682 1C000000 		.4byte	.LVL354
 13022 0686 70000000 		.4byte	.LVL369
 13023 068a 0400     		.2byte	0x4
 13024 068c F3       		.byte	0xf3
 13025 068d 01       		.uleb128 0x1
 13026 068e 50       		.byte	0x50
 13027 068f 9F       		.byte	0x9f
 13028 0690 70000000 		.4byte	.LVL369
 13029 0694 86000000 		.4byte	.LVL372
 13030 0698 0100     		.2byte	0x1
 13031 069a 50       		.byte	0x50
 13032 069b 86000000 		.4byte	.LVL372
 13033 069f E0000000 		.4byte	.LFE63
 13034 06a3 0400     		.2byte	0x4
 13035 06a5 F3       		.byte	0xf3
 13036 06a6 01       		.uleb128 0x1
 13037 06a7 50       		.byte	0x50
 13038 06a8 9F       		.byte	0x9f
 13039 06a9 00000000 		.4byte	0
 13040 06ad 00000000 		.4byte	0
 13041              	.LLST52:
 13042 06b1 00000000 		.4byte	.LVL351
ARM GAS  C:\Users\HENRYA~1\AppData\Local\Temp\cceIRlNf.s 			page 250


 13043 06b5 1F000000 		.4byte	.LVL355-1
 13044 06b9 0100     		.2byte	0x1
 13045 06bb 51       		.byte	0x51
 13046 06bc 1F000000 		.4byte	.LVL355-1
 13047 06c0 70000000 		.4byte	.LVL369
 13048 06c4 0400     		.2byte	0x4
 13049 06c6 F3       		.byte	0xf3
 13050 06c7 01       		.uleb128 0x1
 13051 06c8 51       		.byte	0x51
 13052 06c9 9F       		.byte	0x9f
 13053 06ca 70000000 		.4byte	.LVL369
 13054 06ce 89000000 		.4byte	.LVL373-1
 13055 06d2 0100     		.2byte	0x1
 13056 06d4 51       		.byte	0x51
 13057 06d5 89000000 		.4byte	.LVL373-1
 13058 06d9 E0000000 		.4byte	.LFE63
 13059 06dd 0400     		.2byte	0x4
 13060 06df F3       		.byte	0xf3
 13061 06e0 01       		.uleb128 0x1
 13062 06e1 51       		.byte	0x51
 13063 06e2 9F       		.byte	0x9f
 13064 06e3 00000000 		.4byte	0
 13065 06e7 00000000 		.4byte	0
 13066              	.LLST53:
 13067 06eb 00000000 		.4byte	.LVL351
 13068 06ef 1F000000 		.4byte	.LVL355-1
 13069 06f3 0100     		.2byte	0x1
 13070 06f5 52       		.byte	0x52
 13071 06f6 1F000000 		.4byte	.LVL355-1
 13072 06fa 70000000 		.4byte	.LVL369
 13073 06fe 0400     		.2byte	0x4
 13074 0700 F3       		.byte	0xf3
 13075 0701 01       		.uleb128 0x1
 13076 0702 52       		.byte	0x52
 13077 0703 9F       		.byte	0x9f
 13078 0704 70000000 		.4byte	.LVL369
 13079 0708 89000000 		.4byte	.LVL373-1
 13080 070c 0100     		.2byte	0x1
 13081 070e 52       		.byte	0x52
 13082 070f 89000000 		.4byte	.LVL373-1
 13083 0713 E0000000 		.4byte	.LFE63
 13084 0717 0400     		.2byte	0x4
 13085 0719 F3       		.byte	0xf3
 13086 071a 01       		.uleb128 0x1
 13087 071b 52       		.byte	0x52
 13088 071c 9F       		.byte	0x9f
 13089 071d 00000000 		.4byte	0
 13090 0721 00000000 		.4byte	0
 13091              	.LLST54:
 13092 0725 0C000000 		.4byte	.LVL352
 13093 0729 70000000 		.4byte	.LVL369
 13094 072d 0100     		.2byte	0x1
 13095 072f 56       		.byte	0x56
 13096 0730 00000000 		.4byte	0
 13097 0734 00000000 		.4byte	0
 13098              	.LLST55:
 13099 0738 0E000000 		.4byte	.LVL353
ARM GAS  C:\Users\HENRYA~1\AppData\Local\Temp\cceIRlNf.s 			page 251


 13100 073c 70000000 		.4byte	.LVL369
 13101 0740 0100     		.2byte	0x1
 13102 0742 54       		.byte	0x54
 13103 0743 00000000 		.4byte	0
 13104 0747 00000000 		.4byte	0
 13105              	.LLST56:
 13106 074b 76000000 		.4byte	.LVL370
 13107 074f D8000000 		.4byte	.LVL386
 13108 0753 0100     		.2byte	0x1
 13109 0755 56       		.byte	0x56
 13110 0756 00000000 		.4byte	0
 13111 075a 00000000 		.4byte	0
 13112              	.LLST57:
 13113 075e 78000000 		.4byte	.LVL371
 13114 0762 D8000000 		.4byte	.LVL386
 13115 0766 0100     		.2byte	0x1
 13116 0768 54       		.byte	0x54
 13117 0769 00000000 		.4byte	0
 13118 076d 00000000 		.4byte	0
 13119              	.LLST58:
 13120 0771 00000000 		.4byte	.LVL387
 13121 0775 07000000 		.4byte	.LVL389-1
 13122 0779 0100     		.2byte	0x1
 13123 077b 50       		.byte	0x50
 13124 077c 07000000 		.4byte	.LVL389-1
 13125 0780 2C010000 		.4byte	.LFE64
 13126 0784 0400     		.2byte	0x4
 13127 0786 F3       		.byte	0xf3
 13128 0787 01       		.uleb128 0x1
 13129 0788 50       		.byte	0x50
 13130 0789 9F       		.byte	0x9f
 13131 078a 00000000 		.4byte	0
 13132 078e 00000000 		.4byte	0
 13133              	.LLST59:
 13134 0792 04000000 		.4byte	.LVL388
 13135 0796 A6000000 		.4byte	.LVL405
 13136 079a 0200     		.2byte	0x2
 13137 079c 30       		.byte	0x30
 13138 079d 9F       		.byte	0x9f
 13139 079e A6000000 		.4byte	.LVL405
 13140 07a2 E6000000 		.4byte	.LVL413
 13141 07a6 0100     		.2byte	0x1
 13142 07a8 55       		.byte	0x55
 13143 07a9 F0000000 		.4byte	.LVL415
 13144 07ad 08010000 		.4byte	.LVL420
 13145 07b1 0100     		.2byte	0x1
 13146 07b3 55       		.byte	0x55
 13147 07b4 08010000 		.4byte	.LVL420
 13148 07b8 2C010000 		.4byte	.LFE64
 13149 07bc 0100     		.2byte	0x1
 13150 07be 50       		.byte	0x50
 13151 07bf 00000000 		.4byte	0
 13152 07c3 00000000 		.4byte	0
 13153              	.LLST60:
 13154 07c7 00000000 		.4byte	.LVL421
 13155 07cb 2C000000 		.4byte	.LVL426
 13156 07cf 0100     		.2byte	0x1
ARM GAS  C:\Users\HENRYA~1\AppData\Local\Temp\cceIRlNf.s 			page 252


 13157 07d1 50       		.byte	0x50
 13158 07d2 2C000000 		.4byte	.LVL426
 13159 07d6 9C000000 		.4byte	.LFE65
 13160 07da 0400     		.2byte	0x4
 13161 07dc F3       		.byte	0xf3
 13162 07dd 01       		.uleb128 0x1
 13163 07de 50       		.byte	0x50
 13164 07df 9F       		.byte	0x9f
 13165 07e0 00000000 		.4byte	0
 13166 07e4 00000000 		.4byte	0
 13167              	.LLST61:
 13168 07e8 00000000 		.4byte	.LVL421
 13169 07ec 2F000000 		.4byte	.LVL427-1
 13170 07f0 0100     		.2byte	0x1
 13171 07f2 51       		.byte	0x51
 13172 07f3 2F000000 		.4byte	.LVL427-1
 13173 07f7 9C000000 		.4byte	.LFE65
 13174 07fb 0400     		.2byte	0x4
 13175 07fd F3       		.byte	0xf3
 13176 07fe 01       		.uleb128 0x1
 13177 07ff 51       		.byte	0x51
 13178 0800 9F       		.byte	0x9f
 13179 0801 00000000 		.4byte	0
 13180 0805 00000000 		.4byte	0
 13181              	.LLST62:
 13182 0809 00000000 		.4byte	.LVL421
 13183 080d 2F000000 		.4byte	.LVL427-1
 13184 0811 0100     		.2byte	0x1
 13185 0813 52       		.byte	0x52
 13186 0814 2F000000 		.4byte	.LVL427-1
 13187 0818 9C000000 		.4byte	.LFE65
 13188 081c 0400     		.2byte	0x4
 13189 081e F3       		.byte	0xf3
 13190 081f 01       		.uleb128 0x1
 13191 0820 52       		.byte	0x52
 13192 0821 9F       		.byte	0x9f
 13193 0822 00000000 		.4byte	0
 13194 0826 00000000 		.4byte	0
 13195              	.LLST63:
 13196 082a 0E000000 		.4byte	.LVL422
 13197 082e 92000000 		.4byte	.LVL447
 13198 0832 0100     		.2byte	0x1
 13199 0834 58       		.byte	0x58
 13200 0835 92000000 		.4byte	.LVL447
 13201 0839 9C000000 		.4byte	.LFE65
 13202 083d 0600     		.2byte	0x6
 13203 083f F3       		.byte	0xf3
 13204 0840 01       		.uleb128 0x1
 13205 0841 51       		.byte	0x51
 13206 0842 38       		.byte	0x38
 13207 0843 26       		.byte	0x26
 13208 0844 9F       		.byte	0x9f
 13209 0845 00000000 		.4byte	0
 13210 0849 00000000 		.4byte	0
 13211              	.LLST64:
 13212 084d 10000000 		.4byte	.LVL423
 13213 0851 92000000 		.4byte	.LVL445
ARM GAS  C:\Users\HENRYA~1\AppData\Local\Temp\cceIRlNf.s 			page 253


 13214 0855 0100     		.2byte	0x1
 13215 0857 56       		.byte	0x56
 13216 0858 92000000 		.4byte	.LVL445
 13217 085c 9C000000 		.4byte	.LFE65
 13218 0860 0400     		.2byte	0x4
 13219 0862 F3       		.byte	0xf3
 13220 0863 01       		.uleb128 0x1
 13221 0864 51       		.byte	0x51
 13222 0865 9F       		.byte	0x9f
 13223 0866 00000000 		.4byte	0
 13224 086a 00000000 		.4byte	0
 13225              	.LLST65:
 13226 086e 14000000 		.4byte	.LVL424
 13227 0872 92000000 		.4byte	.LVL446
 13228 0876 0100     		.2byte	0x1
 13229 0878 57       		.byte	0x57
 13230 0879 92000000 		.4byte	.LVL446
 13231 087d 9C000000 		.4byte	.LFE65
 13232 0881 0600     		.2byte	0x6
 13233 0883 F3       		.byte	0xf3
 13234 0884 01       		.uleb128 0x1
 13235 0885 52       		.byte	0x52
 13236 0886 38       		.byte	0x38
 13237 0887 26       		.byte	0x26
 13238 0888 9F       		.byte	0x9f
 13239 0889 00000000 		.4byte	0
 13240 088d 00000000 		.4byte	0
 13241              	.LLST66:
 13242 0891 16000000 		.4byte	.LVL425
 13243 0895 92000000 		.4byte	.LVL444
 13244 0899 0100     		.2byte	0x1
 13245 089b 54       		.byte	0x54
 13246 089c 92000000 		.4byte	.LVL444
 13247 08a0 9C000000 		.4byte	.LFE65
 13248 08a4 0400     		.2byte	0x4
 13249 08a6 F3       		.byte	0xf3
 13250 08a7 01       		.uleb128 0x1
 13251 08a8 52       		.byte	0x52
 13252 08a9 9F       		.byte	0x9f
 13253 08aa 00000000 		.4byte	0
 13254 08ae 00000000 		.4byte	0
 13255              	.LLST67:
 13256 08b2 00000000 		.4byte	.LVL451
 13257 08b6 22000000 		.4byte	.LVL454
 13258 08ba 0100     		.2byte	0x1
 13259 08bc 50       		.byte	0x50
 13260 08bd 22000000 		.4byte	.LVL454
 13261 08c1 54000000 		.4byte	.LVL465
 13262 08c5 0100     		.2byte	0x1
 13263 08c7 55       		.byte	0x55
 13264 08c8 54000000 		.4byte	.LVL465
 13265 08cc 68000000 		.4byte	.LVL469
 13266 08d0 0600     		.2byte	0x6
 13267 08d2 F3       		.byte	0xf3
 13268 08d3 03       		.uleb128 0x3
 13269 08d4 F5       		.byte	0xf5
 13270 08d5 00       		.uleb128 0
ARM GAS  C:\Users\HENRYA~1\AppData\Local\Temp\cceIRlNf.s 			page 254


 13271 08d6 25       		.uleb128 0x25
 13272 08d7 9F       		.byte	0x9f
 13273 08d8 68000000 		.4byte	.LVL469
 13274 08dc 6C000000 		.4byte	.LVL470
 13275 08e0 0100     		.2byte	0x1
 13276 08e2 50       		.byte	0x50
 13277 08e3 6C000000 		.4byte	.LVL470
 13278 08e7 A0000000 		.4byte	.LVL481
 13279 08eb 0100     		.2byte	0x1
 13280 08ed 55       		.byte	0x55
 13281 08ee A0000000 		.4byte	.LVL481
 13282 08f2 B4000000 		.4byte	.LVL485
 13283 08f6 0600     		.2byte	0x6
 13284 08f8 F3       		.byte	0xf3
 13285 08f9 03       		.uleb128 0x3
 13286 08fa F5       		.byte	0xf5
 13287 08fb 00       		.uleb128 0
 13288 08fc 25       		.uleb128 0x25
 13289 08fd 9F       		.byte	0x9f
 13290 08fe B4000000 		.4byte	.LVL485
 13291 0902 B8000000 		.4byte	.LVL486
 13292 0906 0100     		.2byte	0x1
 13293 0908 50       		.byte	0x50
 13294 0909 B8000000 		.4byte	.LVL486
 13295 090d 30010000 		.4byte	.LVL504
 13296 0911 0100     		.2byte	0x1
 13297 0913 55       		.byte	0x55
 13298 0914 30010000 		.4byte	.LVL504
 13299 0918 34010000 		.4byte	.LVL505
 13300 091c 0100     		.2byte	0x1
 13301 091e 50       		.byte	0x50
 13302 091f 34010000 		.4byte	.LVL505
 13303 0923 40010000 		.4byte	.LVL508
 13304 0927 0100     		.2byte	0x1
 13305 0929 55       		.byte	0x55
 13306 092a 40010000 		.4byte	.LVL508
 13307 092e 54010000 		.4byte	.LFE67
 13308 0932 0600     		.2byte	0x6
 13309 0934 F3       		.byte	0xf3
 13310 0935 03       		.uleb128 0x3
 13311 0936 F5       		.byte	0xf5
 13312 0937 00       		.uleb128 0
 13313 0938 25       		.uleb128 0x25
 13314 0939 9F       		.byte	0x9f
 13315 093a 00000000 		.4byte	0
 13316 093e 00000000 		.4byte	0
 13317              	.LLST68:
 13318 0942 00000000 		.4byte	.LVL451
 13319 0946 24000000 		.4byte	.LVL455
 13320 094a 0100     		.2byte	0x1
 13321 094c 51       		.byte	0x51
 13322 094d 24000000 		.4byte	.LVL455
 13323 0951 68000000 		.4byte	.LVL469
 13324 0955 0100     		.2byte	0x1
 13325 0957 57       		.byte	0x57
 13326 0958 68000000 		.4byte	.LVL469
 13327 095c 6E000000 		.4byte	.LVL471
ARM GAS  C:\Users\HENRYA~1\AppData\Local\Temp\cceIRlNf.s 			page 255


 13328 0960 0100     		.2byte	0x1
 13329 0962 51       		.byte	0x51
 13330 0963 6E000000 		.4byte	.LVL471
 13331 0967 7A000000 		.4byte	.LVL474
 13332 096b 0100     		.2byte	0x1
 13333 096d 57       		.byte	0x57
 13334 096e 7A000000 		.4byte	.LVL474
 13335 0972 B4000000 		.4byte	.LVL485
 13336 0976 0600     		.2byte	0x6
 13337 0978 F3       		.byte	0xf3
 13338 0979 03       		.uleb128 0x3
 13339 097a F5       		.byte	0xf5
 13340 097b 01       		.uleb128 0x1
 13341 097c 25       		.uleb128 0x25
 13342 097d 9F       		.byte	0x9f
 13343 097e B4000000 		.4byte	.LVL485
 13344 0982 BA000000 		.4byte	.LVL487
 13345 0986 0100     		.2byte	0x1
 13346 0988 51       		.byte	0x51
 13347 0989 BA000000 		.4byte	.LVL487
 13348 098d 30010000 		.4byte	.LVL504
 13349 0991 0100     		.2byte	0x1
 13350 0993 57       		.byte	0x57
 13351 0994 30010000 		.4byte	.LVL504
 13352 0998 36010000 		.4byte	.LVL506
 13353 099c 0100     		.2byte	0x1
 13354 099e 51       		.byte	0x51
 13355 099f 36010000 		.4byte	.LVL506
 13356 09a3 40010000 		.4byte	.LVL508
 13357 09a7 0100     		.2byte	0x1
 13358 09a9 57       		.byte	0x57
 13359 09aa 40010000 		.4byte	.LVL508
 13360 09ae 54010000 		.4byte	.LFE67
 13361 09b2 0600     		.2byte	0x6
 13362 09b4 F3       		.byte	0xf3
 13363 09b5 03       		.uleb128 0x3
 13364 09b6 F5       		.byte	0xf5
 13365 09b7 01       		.uleb128 0x1
 13366 09b8 25       		.uleb128 0x25
 13367 09b9 9F       		.byte	0x9f
 13368 09ba 00000000 		.4byte	0
 13369 09be 00000000 		.4byte	0
 13370              	.LLST69:
 13371 09c2 00000000 		.4byte	.LVL451
 13372 09c6 27000000 		.4byte	.LVL456-1
 13373 09ca 0100     		.2byte	0x1
 13374 09cc 52       		.byte	0x52
 13375 09cd 27000000 		.4byte	.LVL456-1
 13376 09d1 30000000 		.4byte	.LVL458
 13377 09d5 0100     		.2byte	0x1
 13378 09d7 56       		.byte	0x56
 13379 09d8 30000000 		.4byte	.LVL458
 13380 09dc 68000000 		.4byte	.LVL469
 13381 09e0 0600     		.2byte	0x6
 13382 09e2 F3       		.byte	0xf3
 13383 09e3 03       		.uleb128 0x3
 13384 09e4 F5       		.byte	0xf5
ARM GAS  C:\Users\HENRYA~1\AppData\Local\Temp\cceIRlNf.s 			page 256


 13385 09e5 02       		.uleb128 0x2
 13386 09e6 25       		.uleb128 0x25
 13387 09e7 9F       		.byte	0x9f
 13388 09e8 68000000 		.4byte	.LVL469
 13389 09ec 71000000 		.4byte	.LVL472-1
 13390 09f0 0100     		.2byte	0x1
 13391 09f2 52       		.byte	0x52
 13392 09f3 71000000 		.4byte	.LVL472-1
 13393 09f7 B4000000 		.4byte	.LVL485
 13394 09fb 0100     		.2byte	0x1
 13395 09fd 56       		.byte	0x56
 13396 09fe B4000000 		.4byte	.LVL485
 13397 0a02 BD000000 		.4byte	.LVL488-1
 13398 0a06 0100     		.2byte	0x1
 13399 0a08 52       		.byte	0x52
 13400 0a09 BD000000 		.4byte	.LVL488-1
 13401 0a0d 30010000 		.4byte	.LVL504
 13402 0a11 0100     		.2byte	0x1
 13403 0a13 56       		.byte	0x56
 13404 0a14 30010000 		.4byte	.LVL504
 13405 0a18 39010000 		.4byte	.LVL507-1
 13406 0a1c 0100     		.2byte	0x1
 13407 0a1e 52       		.byte	0x52
 13408 0a1f 39010000 		.4byte	.LVL507-1
 13409 0a23 40010000 		.4byte	.LVL508
 13410 0a27 0100     		.2byte	0x1
 13411 0a29 56       		.byte	0x56
 13412 0a2a 40010000 		.4byte	.LVL508
 13413 0a2e 54010000 		.4byte	.LFE67
 13414 0a32 0600     		.2byte	0x6
 13415 0a34 F3       		.byte	0xf3
 13416 0a35 03       		.uleb128 0x3
 13417 0a36 F5       		.byte	0xf5
 13418 0a37 02       		.uleb128 0x2
 13419 0a38 25       		.uleb128 0x25
 13420 0a39 9F       		.byte	0x9f
 13421 0a3a 00000000 		.4byte	0
 13422 0a3e 00000000 		.4byte	0
 13423              	.LLST70:
 13424 0a42 00000000 		.4byte	.LVL451
 13425 0a46 0E000000 		.4byte	.LVL453
 13426 0a4a 0100     		.2byte	0x1
 13427 0a4c 53       		.byte	0x53
 13428 0a4d 0E000000 		.4byte	.LVL453
 13429 0a51 52000000 		.4byte	.LVL464
 13430 0a55 0100     		.2byte	0x1
 13431 0a57 54       		.byte	0x54
 13432 0a58 52000000 		.4byte	.LVL464
 13433 0a5c 68000000 		.4byte	.LVL469
 13434 0a60 0600     		.2byte	0x6
 13435 0a62 F3       		.byte	0xf3
 13436 0a63 03       		.uleb128 0x3
 13437 0a64 F5       		.byte	0xf5
 13438 0a65 03       		.uleb128 0x3
 13439 0a66 25       		.uleb128 0x25
 13440 0a67 9F       		.byte	0x9f
 13441 0a68 68000000 		.4byte	.LVL469
ARM GAS  C:\Users\HENRYA~1\AppData\Local\Temp\cceIRlNf.s 			page 257


 13442 0a6c 9E000000 		.4byte	.LVL480
 13443 0a70 0100     		.2byte	0x1
 13444 0a72 54       		.byte	0x54
 13445 0a73 9E000000 		.4byte	.LVL480
 13446 0a77 B4000000 		.4byte	.LVL485
 13447 0a7b 0600     		.2byte	0x6
 13448 0a7d F3       		.byte	0xf3
 13449 0a7e 03       		.uleb128 0x3
 13450 0a7f F5       		.byte	0xf5
 13451 0a80 03       		.uleb128 0x3
 13452 0a81 25       		.uleb128 0x25
 13453 0a82 9F       		.byte	0x9f
 13454 0a83 B4000000 		.4byte	.LVL485
 13455 0a87 40010000 		.4byte	.LVL508
 13456 0a8b 0100     		.2byte	0x1
 13457 0a8d 54       		.byte	0x54
 13458 0a8e 40010000 		.4byte	.LVL508
 13459 0a92 54010000 		.4byte	.LFE67
 13460 0a96 0600     		.2byte	0x6
 13461 0a98 F3       		.byte	0xf3
 13462 0a99 03       		.uleb128 0x3
 13463 0a9a F5       		.byte	0xf5
 13464 0a9b 03       		.uleb128 0x3
 13465 0a9c 25       		.uleb128 0x25
 13466 0a9d 9F       		.byte	0x9f
 13467 0a9e 00000000 		.4byte	0
 13468 0aa2 00000000 		.4byte	0
 13469              	.LLST71:
 13470 0aa6 00000000 		.4byte	.LVL509
 13471 0aaa 06000000 		.4byte	.LVL511
 13472 0aae 0100     		.2byte	0x1
 13473 0ab0 50       		.byte	0x50
 13474 0ab1 06000000 		.4byte	.LVL511
 13475 0ab5 1C000000 		.4byte	.LVL516
 13476 0ab9 0100     		.2byte	0x1
 13477 0abb 54       		.byte	0x54
 13478 0abc 1C000000 		.4byte	.LVL516
 13479 0ac0 28000000 		.4byte	.LFE68
 13480 0ac4 0600     		.2byte	0x6
 13481 0ac6 F3       		.byte	0xf3
 13482 0ac7 03       		.uleb128 0x3
 13483 0ac8 F5       		.byte	0xf5
 13484 0ac9 00       		.uleb128 0
 13485 0aca 25       		.uleb128 0x25
 13486 0acb 9F       		.byte	0x9f
 13487 0acc 00000000 		.4byte	0
 13488 0ad0 00000000 		.4byte	0
 13489              	.LLST72:
 13490 0ad4 00000000 		.4byte	.LVL509
 13491 0ad8 09000000 		.4byte	.LVL512-1
 13492 0adc 0100     		.2byte	0x1
 13493 0ade 51       		.byte	0x51
 13494 0adf 09000000 		.4byte	.LVL512-1
 13495 0ae3 28000000 		.4byte	.LFE68
 13496 0ae7 0600     		.2byte	0x6
 13497 0ae9 F3       		.byte	0xf3
 13498 0aea 03       		.uleb128 0x3
ARM GAS  C:\Users\HENRYA~1\AppData\Local\Temp\cceIRlNf.s 			page 258


 13499 0aeb F5       		.byte	0xf5
 13500 0aec 01       		.uleb128 0x1
 13501 0aed 25       		.uleb128 0x25
 13502 0aee 9F       		.byte	0x9f
 13503 0aef 00000000 		.4byte	0
 13504 0af3 00000000 		.4byte	0
 13505              	.LLST73:
 13506 0af7 00000000 		.4byte	.LVL509
 13507 0afb 09000000 		.4byte	.LVL512-1
 13508 0aff 0100     		.2byte	0x1
 13509 0b01 52       		.byte	0x52
 13510 0b02 09000000 		.4byte	.LVL512-1
 13511 0b06 28000000 		.4byte	.LFE68
 13512 0b0a 0600     		.2byte	0x6
 13513 0b0c F3       		.byte	0xf3
 13514 0b0d 03       		.uleb128 0x3
 13515 0b0e F5       		.byte	0xf5
 13516 0b0f 02       		.uleb128 0x2
 13517 0b10 25       		.uleb128 0x25
 13518 0b11 9F       		.byte	0x9f
 13519 0b12 00000000 		.4byte	0
 13520 0b16 00000000 		.4byte	0
 13521              	.LLST74:
 13522 0b1a 00000000 		.4byte	.LVL517
 13523 0b1e 06000000 		.4byte	.LVL519
 13524 0b22 0100     		.2byte	0x1
 13525 0b24 50       		.byte	0x50
 13526 0b25 06000000 		.4byte	.LVL519
 13527 0b29 1C000000 		.4byte	.LVL524
 13528 0b2d 0100     		.2byte	0x1
 13529 0b2f 54       		.byte	0x54
 13530 0b30 1C000000 		.4byte	.LVL524
 13531 0b34 28000000 		.4byte	.LFE69
 13532 0b38 0600     		.2byte	0x6
 13533 0b3a F3       		.byte	0xf3
 13534 0b3b 03       		.uleb128 0x3
 13535 0b3c F5       		.byte	0xf5
 13536 0b3d 00       		.uleb128 0
 13537 0b3e 25       		.uleb128 0x25
 13538 0b3f 9F       		.byte	0x9f
 13539 0b40 00000000 		.4byte	0
 13540 0b44 00000000 		.4byte	0
 13541              	.LLST75:
 13542 0b48 00000000 		.4byte	.LVL517
 13543 0b4c 09000000 		.4byte	.LVL520-1
 13544 0b50 0100     		.2byte	0x1
 13545 0b52 51       		.byte	0x51
 13546 0b53 09000000 		.4byte	.LVL520-1
 13547 0b57 28000000 		.4byte	.LFE69
 13548 0b5b 0600     		.2byte	0x6
 13549 0b5d F3       		.byte	0xf3
 13550 0b5e 03       		.uleb128 0x3
 13551 0b5f F5       		.byte	0xf5
 13552 0b60 01       		.uleb128 0x1
 13553 0b61 25       		.uleb128 0x25
 13554 0b62 9F       		.byte	0x9f
 13555 0b63 00000000 		.4byte	0
ARM GAS  C:\Users\HENRYA~1\AppData\Local\Temp\cceIRlNf.s 			page 259


 13556 0b67 00000000 		.4byte	0
 13557              	.LLST76:
 13558 0b6b 00000000 		.4byte	.LVL517
 13559 0b6f 09000000 		.4byte	.LVL520-1
 13560 0b73 0100     		.2byte	0x1
 13561 0b75 52       		.byte	0x52
 13562 0b76 09000000 		.4byte	.LVL520-1
 13563 0b7a 28000000 		.4byte	.LFE69
 13564 0b7e 0600     		.2byte	0x6
 13565 0b80 F3       		.byte	0xf3
 13566 0b81 03       		.uleb128 0x3
 13567 0b82 F5       		.byte	0xf5
 13568 0b83 02       		.uleb128 0x2
 13569 0b84 25       		.uleb128 0x25
 13570 0b85 9F       		.byte	0x9f
 13571 0b86 00000000 		.4byte	0
 13572 0b8a 00000000 		.4byte	0
 13573              	.LLST77:
 13574 0b8e 00000000 		.4byte	.LVL561
 13575 0b92 15000000 		.4byte	.LVL563-1
 13576 0b96 0100     		.2byte	0x1
 13577 0b98 50       		.byte	0x50
 13578 0b99 15000000 		.4byte	.LVL563-1
 13579 0b9d 24000000 		.4byte	.LFE73
 13580 0ba1 0400     		.2byte	0x4
 13581 0ba3 F3       		.byte	0xf3
 13582 0ba4 01       		.uleb128 0x1
 13583 0ba5 50       		.byte	0x50
 13584 0ba6 9F       		.byte	0x9f
 13585 0ba7 00000000 		.4byte	0
 13586 0bab 00000000 		.4byte	0
 13587              	.LLST78:
 13588 0baf 00000000 		.4byte	.LVL561
 13589 0bb3 0C000000 		.4byte	.LVL562
 13590 0bb7 0100     		.2byte	0x1
 13591 0bb9 51       		.byte	0x51
 13592 0bba 0C000000 		.4byte	.LVL562
 13593 0bbe 24000000 		.4byte	.LFE73
 13594 0bc2 0400     		.2byte	0x4
 13595 0bc4 F3       		.byte	0xf3
 13596 0bc5 01       		.uleb128 0x1
 13597 0bc6 51       		.byte	0x51
 13598 0bc7 9F       		.byte	0x9f
 13599 0bc8 00000000 		.4byte	0
 13600 0bcc 00000000 		.4byte	0
 13601              	.LLST79:
 13602 0bd0 00000000 		.4byte	.LVL561
 13603 0bd4 15000000 		.4byte	.LVL563-1
 13604 0bd8 0100     		.2byte	0x1
 13605 0bda 52       		.byte	0x52
 13606 0bdb 15000000 		.4byte	.LVL563-1
 13607 0bdf 24000000 		.4byte	.LFE73
 13608 0be3 0400     		.2byte	0x4
 13609 0be5 F3       		.byte	0xf3
 13610 0be6 01       		.uleb128 0x1
 13611 0be7 52       		.byte	0x52
 13612 0be8 9F       		.byte	0x9f
ARM GAS  C:\Users\HENRYA~1\AppData\Local\Temp\cceIRlNf.s 			page 260


 13613 0be9 00000000 		.4byte	0
 13614 0bed 00000000 		.4byte	0
 13615              	.LLST80:
 13616 0bf1 00000000 		.4byte	.LVL565
 13617 0bf5 35000000 		.4byte	.LVL568-1
 13618 0bf9 0100     		.2byte	0x1
 13619 0bfb 50       		.byte	0x50
 13620 0bfc 35000000 		.4byte	.LVL568-1
 13621 0c00 54000000 		.4byte	.LFE74
 13622 0c04 0400     		.2byte	0x4
 13623 0c06 F3       		.byte	0xf3
 13624 0c07 01       		.uleb128 0x1
 13625 0c08 50       		.byte	0x50
 13626 0c09 9F       		.byte	0x9f
 13627 0c0a 00000000 		.4byte	0
 13628 0c0e 00000000 		.4byte	0
 13629              	.LLST81:
 13630 0c12 00000000 		.4byte	.LVL565
 13631 0c16 35000000 		.4byte	.LVL568-1
 13632 0c1a 0100     		.2byte	0x1
 13633 0c1c 51       		.byte	0x51
 13634 0c1d 35000000 		.4byte	.LVL568-1
 13635 0c21 54000000 		.4byte	.LFE74
 13636 0c25 0400     		.2byte	0x4
 13637 0c27 F3       		.byte	0xf3
 13638 0c28 01       		.uleb128 0x1
 13639 0c29 51       		.byte	0x51
 13640 0c2a 9F       		.byte	0x9f
 13641 0c2b 00000000 		.4byte	0
 13642 0c2f 00000000 		.4byte	0
 13643              	.LLST82:
 13644 0c33 02000000 		.4byte	.LVL566
 13645 0c37 35000000 		.4byte	.LVL568-1
 13646 0c3b 0100     		.2byte	0x1
 13647 0c3d 50       		.byte	0x50
 13648 0c3e 35000000 		.4byte	.LVL568-1
 13649 0c42 54000000 		.4byte	.LFE74
 13650 0c46 0400     		.2byte	0x4
 13651 0c48 F3       		.byte	0xf3
 13652 0c49 01       		.uleb128 0x1
 13653 0c4a 50       		.byte	0x50
 13654 0c4b 9F       		.byte	0x9f
 13655 0c4c 00000000 		.4byte	0
 13656 0c50 00000000 		.4byte	0
 13657              	.LLST83:
 13658 0c54 04000000 		.4byte	.LVL567
 13659 0c58 46000000 		.4byte	.LVL573
 13660 0c5c 0100     		.2byte	0x1
 13661 0c5e 54       		.byte	0x54
 13662 0c5f 46000000 		.4byte	.LVL573
 13663 0c63 54000000 		.4byte	.LFE74
 13664 0c67 0600     		.2byte	0x6
 13665 0c69 F3       		.byte	0xf3
 13666 0c6a 01       		.uleb128 0x1
 13667 0c6b 50       		.byte	0x50
 13668 0c6c 38       		.byte	0x38
 13669 0c6d 26       		.byte	0x26
ARM GAS  C:\Users\HENRYA~1\AppData\Local\Temp\cceIRlNf.s 			page 261


 13670 0c6e 9F       		.byte	0x9f
 13671 0c6f 00000000 		.4byte	0
 13672 0c73 00000000 		.4byte	0
 13673              	.LLST84:
 13674 0c77 36000000 		.4byte	.LVL568
 13675 0c7b 42000000 		.4byte	.LVL571
 13676 0c7f 0200     		.2byte	0x2
 13677 0c81 30       		.byte	0x30
 13678 0c82 9F       		.byte	0x9f
 13679 0c83 42000000 		.4byte	.LVL571
 13680 0c87 45000000 		.4byte	.LVL572-1
 13681 0c8b 0100     		.2byte	0x1
 13682 0c8d 50       		.byte	0x50
 13683 0c8e 00000000 		.4byte	0
 13684 0c92 00000000 		.4byte	0
 13685              	.LLST85:
 13686 0c96 06000000 		.4byte	.LVL622
 13687 0c9a 14000000 		.4byte	.LVL627
 13688 0c9e 0100     		.2byte	0x1
 13689 0ca0 50       		.byte	0x50
 13690 0ca1 14000000 		.4byte	.LVL627
 13691 0ca5 18000000 		.4byte	.LVL629
 13692 0ca9 0B00     		.2byte	0xb
 13693 0cab 03       		.byte	0x3
 13694 0cac 02000000 		.4byte	mailbox1+2
 13695 0cb0 94       		.byte	0x94
 13696 0cb1 01       		.byte	0x1
 13697 0cb2 08       		.byte	0x8
 13698 0cb3 FF       		.byte	0xff
 13699 0cb4 1A       		.byte	0x1a
 13700 0cb5 9F       		.byte	0x9f
 13701 0cb6 18000000 		.4byte	.LVL629
 13702 0cba 1C000000 		.4byte	.LVL631
 13703 0cbe 0100     		.2byte	0x1
 13704 0cc0 50       		.byte	0x50
 13705 0cc1 1C000000 		.4byte	.LVL631
 13706 0cc5 1F000000 		.4byte	.LVL632-1
 13707 0cc9 0B00     		.2byte	0xb
 13708 0ccb 03       		.byte	0x3
 13709 0ccc 02000000 		.4byte	mailbox1+2
 13710 0cd0 94       		.byte	0x94
 13711 0cd1 01       		.byte	0x1
 13712 0cd2 08       		.byte	0x8
 13713 0cd3 FF       		.byte	0xff
 13714 0cd4 1A       		.byte	0x1a
 13715 0cd5 9F       		.byte	0x9f
 13716 0cd6 36000000 		.4byte	.LVL635
 13717 0cda 44000000 		.4byte	.LVL640
 13718 0cde 0100     		.2byte	0x1
 13719 0ce0 50       		.byte	0x50
 13720 0ce1 44000000 		.4byte	.LVL640
 13721 0ce5 48000000 		.4byte	.LVL642
 13722 0ce9 0B00     		.2byte	0xb
 13723 0ceb 03       		.byte	0x3
 13724 0cec 04000000 		.4byte	mailbox1+4
 13725 0cf0 94       		.byte	0x94
 13726 0cf1 01       		.byte	0x1
ARM GAS  C:\Users\HENRYA~1\AppData\Local\Temp\cceIRlNf.s 			page 262


 13727 0cf2 08       		.byte	0x8
 13728 0cf3 FF       		.byte	0xff
 13729 0cf4 1A       		.byte	0x1a
 13730 0cf5 9F       		.byte	0x9f
 13731 0cf6 48000000 		.4byte	.LVL642
 13732 0cfa 4C000000 		.4byte	.LVL644
 13733 0cfe 0100     		.2byte	0x1
 13734 0d00 50       		.byte	0x50
 13735 0d01 4C000000 		.4byte	.LVL644
 13736 0d05 4F000000 		.4byte	.LVL645-1
 13737 0d09 0B00     		.2byte	0xb
 13738 0d0b 03       		.byte	0x3
 13739 0d0c 04000000 		.4byte	mailbox1+4
 13740 0d10 94       		.byte	0x94
 13741 0d11 01       		.byte	0x1
 13742 0d12 08       		.byte	0x8
 13743 0d13 FF       		.byte	0xff
 13744 0d14 1A       		.byte	0x1a
 13745 0d15 9F       		.byte	0x9f
 13746 0d16 74000000 		.4byte	.LVL651
 13747 0d1a 82000000 		.4byte	.LVL656
 13748 0d1e 0100     		.2byte	0x1
 13749 0d20 50       		.byte	0x50
 13750 0d21 82000000 		.4byte	.LVL656
 13751 0d25 86000000 		.4byte	.LVL658
 13752 0d29 0B00     		.2byte	0xb
 13753 0d2b 03       		.byte	0x3
 13754 0d2c 06000000 		.4byte	mailbox1+6
 13755 0d30 94       		.byte	0x94
 13756 0d31 01       		.byte	0x1
 13757 0d32 08       		.byte	0x8
 13758 0d33 FF       		.byte	0xff
 13759 0d34 1A       		.byte	0x1a
 13760 0d35 9F       		.byte	0x9f
 13761 0d36 86000000 		.4byte	.LVL658
 13762 0d3a 8A000000 		.4byte	.LVL660
 13763 0d3e 0100     		.2byte	0x1
 13764 0d40 50       		.byte	0x50
 13765 0d41 8A000000 		.4byte	.LVL660
 13766 0d45 8D000000 		.4byte	.LVL661-1
 13767 0d49 0B00     		.2byte	0xb
 13768 0d4b 03       		.byte	0x3
 13769 0d4c 06000000 		.4byte	mailbox1+6
 13770 0d50 94       		.byte	0x94
 13771 0d51 01       		.byte	0x1
 13772 0d52 08       		.byte	0x8
 13773 0d53 FF       		.byte	0xff
 13774 0d54 1A       		.byte	0x1a
 13775 0d55 9F       		.byte	0x9f
 13776 0d56 00000000 		.4byte	0
 13777 0d5a 00000000 		.4byte	0
 13778              	.LLST86:
 13779 0d5e 08000000 		.4byte	.LVL623
 13780 0d62 12000000 		.4byte	.LVL626
 13781 0d66 0100     		.2byte	0x1
 13782 0d68 53       		.byte	0x53
 13783 0d69 12000000 		.4byte	.LVL626
ARM GAS  C:\Users\HENRYA~1\AppData\Local\Temp\cceIRlNf.s 			page 263


 13784 0d6d 14000000 		.4byte	.LVL627
 13785 0d71 0100     		.2byte	0x1
 13786 0d73 52       		.byte	0x52
 13787 0d74 14000000 		.4byte	.LVL627
 13788 0d78 18000000 		.4byte	.LVL629
 13789 0d7c 0100     		.2byte	0x1
 13790 0d7e 50       		.byte	0x50
 13791 0d7f 18000000 		.4byte	.LVL629
 13792 0d83 1C000000 		.4byte	.LVL631
 13793 0d87 0100     		.2byte	0x1
 13794 0d89 53       		.byte	0x53
 13795 0d8a 1C000000 		.4byte	.LVL631
 13796 0d8e 1F000000 		.4byte	.LVL632-1
 13797 0d92 0100     		.2byte	0x1
 13798 0d94 50       		.byte	0x50
 13799 0d95 38000000 		.4byte	.LVL636
 13800 0d99 42000000 		.4byte	.LVL639
 13801 0d9d 0100     		.2byte	0x1
 13802 0d9f 53       		.byte	0x53
 13803 0da0 42000000 		.4byte	.LVL639
 13804 0da4 44000000 		.4byte	.LVL640
 13805 0da8 0100     		.2byte	0x1
 13806 0daa 52       		.byte	0x52
 13807 0dab 44000000 		.4byte	.LVL640
 13808 0daf 48000000 		.4byte	.LVL642
 13809 0db3 0100     		.2byte	0x1
 13810 0db5 50       		.byte	0x50
 13811 0db6 48000000 		.4byte	.LVL642
 13812 0dba 4C000000 		.4byte	.LVL644
 13813 0dbe 0100     		.2byte	0x1
 13814 0dc0 53       		.byte	0x53
 13815 0dc1 4C000000 		.4byte	.LVL644
 13816 0dc5 4F000000 		.4byte	.LVL645-1
 13817 0dc9 0100     		.2byte	0x1
 13818 0dcb 50       		.byte	0x50
 13819 0dcc 76000000 		.4byte	.LVL652
 13820 0dd0 80000000 		.4byte	.LVL655
 13821 0dd4 0100     		.2byte	0x1
 13822 0dd6 53       		.byte	0x53
 13823 0dd7 80000000 		.4byte	.LVL655
 13824 0ddb 82000000 		.4byte	.LVL656
 13825 0ddf 0100     		.2byte	0x1
 13826 0de1 52       		.byte	0x52
 13827 0de2 82000000 		.4byte	.LVL656
 13828 0de6 86000000 		.4byte	.LVL658
 13829 0dea 0100     		.2byte	0x1
 13830 0dec 50       		.byte	0x50
 13831 0ded 86000000 		.4byte	.LVL658
 13832 0df1 8A000000 		.4byte	.LVL660
 13833 0df5 0100     		.2byte	0x1
 13834 0df7 53       		.byte	0x53
 13835 0df8 8A000000 		.4byte	.LVL660
 13836 0dfc 8D000000 		.4byte	.LVL661-1
 13837 0e00 0100     		.2byte	0x1
 13838 0e02 50       		.byte	0x50
 13839 0e03 00000000 		.4byte	0
 13840 0e07 00000000 		.4byte	0
ARM GAS  C:\Users\HENRYA~1\AppData\Local\Temp\cceIRlNf.s 			page 264


 13841              	.LLST87:
 13842 0e0b 08000000 		.4byte	.LVL623
 13843 0e0f 0A000000 		.4byte	.LVL624
 13844 0e13 0200     		.2byte	0x2
 13845 0e15 30       		.byte	0x30
 13846 0e16 9F       		.byte	0x9f
 13847 0e17 0A000000 		.4byte	.LVL624
 13848 0e1b 12000000 		.4byte	.LVL626
 13849 0e1f 0100     		.2byte	0x1
 13850 0e21 52       		.byte	0x52
 13851 0e22 12000000 		.4byte	.LVL626
 13852 0e26 18000000 		.4byte	.LVL629
 13853 0e2a 0600     		.2byte	0x6
 13854 0e2c 73       		.byte	0x73
 13855 0e2d 8001     		.sleb128 128
 13856 0e2f 37       		.byte	0x37
 13857 0e30 26       		.byte	0x26
 13858 0e31 9F       		.byte	0x9f
 13859 0e32 18000000 		.4byte	.LVL629
 13860 0e36 1C000000 		.4byte	.LVL631
 13861 0e3a 0100     		.2byte	0x1
 13862 0e3c 52       		.byte	0x52
 13863 0e3d 1C000000 		.4byte	.LVL631
 13864 0e41 1F000000 		.4byte	.LVL632-1
 13865 0e45 0D00     		.2byte	0xd
 13866 0e47 03       		.byte	0x3
 13867 0e48 03000000 		.4byte	mailbox1+3
 13868 0e4c 94       		.byte	0x94
 13869 0e4d 01       		.byte	0x1
 13870 0e4e 08       		.byte	0x8
 13871 0e4f FF       		.byte	0xff
 13872 0e50 1A       		.byte	0x1a
 13873 0e51 37       		.byte	0x37
 13874 0e52 26       		.byte	0x26
 13875 0e53 9F       		.byte	0x9f
 13876 0e54 38000000 		.4byte	.LVL636
 13877 0e58 3A000000 		.4byte	.LVL637
 13878 0e5c 0200     		.2byte	0x2
 13879 0e5e 30       		.byte	0x30
 13880 0e5f 9F       		.byte	0x9f
 13881 0e60 3A000000 		.4byte	.LVL637
 13882 0e64 42000000 		.4byte	.LVL639
 13883 0e68 0100     		.2byte	0x1
 13884 0e6a 52       		.byte	0x52
 13885 0e6b 42000000 		.4byte	.LVL639
 13886 0e6f 48000000 		.4byte	.LVL642
 13887 0e73 0600     		.2byte	0x6
 13888 0e75 73       		.byte	0x73
 13889 0e76 8001     		.sleb128 128
 13890 0e78 37       		.byte	0x37
 13891 0e79 26       		.byte	0x26
 13892 0e7a 9F       		.byte	0x9f
 13893 0e7b 48000000 		.4byte	.LVL642
 13894 0e7f 4C000000 		.4byte	.LVL644
 13895 0e83 0100     		.2byte	0x1
 13896 0e85 52       		.byte	0x52
 13897 0e86 4C000000 		.4byte	.LVL644
ARM GAS  C:\Users\HENRYA~1\AppData\Local\Temp\cceIRlNf.s 			page 265


 13898 0e8a 4F000000 		.4byte	.LVL645-1
 13899 0e8e 0D00     		.2byte	0xd
 13900 0e90 03       		.byte	0x3
 13901 0e91 05000000 		.4byte	mailbox1+5
 13902 0e95 94       		.byte	0x94
 13903 0e96 01       		.byte	0x1
 13904 0e97 08       		.byte	0x8
 13905 0e98 FF       		.byte	0xff
 13906 0e99 1A       		.byte	0x1a
 13907 0e9a 37       		.byte	0x37
 13908 0e9b 26       		.byte	0x26
 13909 0e9c 9F       		.byte	0x9f
 13910 0e9d 76000000 		.4byte	.LVL652
 13911 0ea1 78000000 		.4byte	.LVL653
 13912 0ea5 0200     		.2byte	0x2
 13913 0ea7 30       		.byte	0x30
 13914 0ea8 9F       		.byte	0x9f
 13915 0ea9 78000000 		.4byte	.LVL653
 13916 0ead 80000000 		.4byte	.LVL655
 13917 0eb1 0100     		.2byte	0x1
 13918 0eb3 52       		.byte	0x52
 13919 0eb4 80000000 		.4byte	.LVL655
 13920 0eb8 86000000 		.4byte	.LVL658
 13921 0ebc 0600     		.2byte	0x6
 13922 0ebe 73       		.byte	0x73
 13923 0ebf 8001     		.sleb128 128
 13924 0ec1 37       		.byte	0x37
 13925 0ec2 26       		.byte	0x26
 13926 0ec3 9F       		.byte	0x9f
 13927 0ec4 86000000 		.4byte	.LVL658
 13928 0ec8 8A000000 		.4byte	.LVL660
 13929 0ecc 0100     		.2byte	0x1
 13930 0ece 52       		.byte	0x52
 13931 0ecf 8A000000 		.4byte	.LVL660
 13932 0ed3 8D000000 		.4byte	.LVL661-1
 13933 0ed7 0D00     		.2byte	0xd
 13934 0ed9 03       		.byte	0x3
 13935 0eda 07000000 		.4byte	mailbox1+7
 13936 0ede 94       		.byte	0x94
 13937 0edf 01       		.byte	0x1
 13938 0ee0 08       		.byte	0x8
 13939 0ee1 FF       		.byte	0xff
 13940 0ee2 1A       		.byte	0x1a
 13941 0ee3 37       		.byte	0x37
 13942 0ee4 26       		.byte	0x26
 13943 0ee5 9F       		.byte	0x9f
 13944 0ee6 00000000 		.4byte	0
 13945 0eea 00000000 		.4byte	0
 13946              	.LLST88:
 13947 0eee 00000000 		.4byte	.LVL674
 13948 0ef2 10000000 		.4byte	.LVL678
 13949 0ef6 0100     		.2byte	0x1
 13950 0ef8 50       		.byte	0x50
 13951 0ef9 10000000 		.4byte	.LVL678
 13952 0efd 13000000 		.4byte	.LVL679-1
 13953 0f01 0300     		.2byte	0x3
 13954 0f03 70       		.byte	0x70
ARM GAS  C:\Users\HENRYA~1\AppData\Local\Temp\cceIRlNf.s 			page 266


 13955 0f04 7F       		.sleb128 -1
 13956 0f05 9F       		.byte	0x9f
 13957 0f06 13000000 		.4byte	.LVL679-1
 13958 0f0a 16000000 		.4byte	.LVL680
 13959 0f0e 0400     		.2byte	0x4
 13960 0f10 F3       		.byte	0xf3
 13961 0f11 01       		.uleb128 0x1
 13962 0f12 50       		.byte	0x50
 13963 0f13 9F       		.byte	0x9f
 13964 0f14 16000000 		.4byte	.LVL680
 13965 0f18 2D000000 		.4byte	.LVL682-1
 13966 0f1c 0100     		.2byte	0x1
 13967 0f1e 50       		.byte	0x50
 13968 0f1f 2D000000 		.4byte	.LVL682-1
 13969 0f23 3C000000 		.4byte	.LFE81
 13970 0f27 0400     		.2byte	0x4
 13971 0f29 F3       		.byte	0xf3
 13972 0f2a 01       		.uleb128 0x1
 13973 0f2b 50       		.byte	0x50
 13974 0f2c 9F       		.byte	0x9f
 13975 0f2d 00000000 		.4byte	0
 13976 0f31 00000000 		.4byte	0
 13977              	.LLST89:
 13978 0f35 00000000 		.4byte	.LVL674
 13979 0f39 13000000 		.4byte	.LVL679-1
 13980 0f3d 0100     		.2byte	0x1
 13981 0f3f 51       		.byte	0x51
 13982 0f40 13000000 		.4byte	.LVL679-1
 13983 0f44 16000000 		.4byte	.LVL680
 13984 0f48 0400     		.2byte	0x4
 13985 0f4a F3       		.byte	0xf3
 13986 0f4b 01       		.uleb128 0x1
 13987 0f4c 51       		.byte	0x51
 13988 0f4d 9F       		.byte	0x9f
 13989 0f4e 16000000 		.4byte	.LVL680
 13990 0f52 1A000000 		.4byte	.LVL681
 13991 0f56 0100     		.2byte	0x1
 13992 0f58 51       		.byte	0x51
 13993 0f59 1A000000 		.4byte	.LVL681
 13994 0f5d 3C000000 		.4byte	.LFE81
 13995 0f61 0400     		.2byte	0x4
 13996 0f63 F3       		.byte	0xf3
 13997 0f64 01       		.uleb128 0x1
 13998 0f65 51       		.byte	0x51
 13999 0f66 9F       		.byte	0x9f
 14000 0f67 00000000 		.4byte	0
 14001 0f6b 00000000 		.4byte	0
 14002              	.LLST90:
 14003 0f6f 06000000 		.4byte	.LVL675
 14004 0f73 0E000000 		.4byte	.LVL677
 14005 0f77 0100     		.2byte	0x1
 14006 0f79 52       		.byte	0x52
 14007 0f7a 0E000000 		.4byte	.LVL677
 14008 0f7e 13000000 		.4byte	.LVL679-1
 14009 0f82 0100     		.2byte	0x1
 14010 0f84 53       		.byte	0x53
 14011 0f85 13000000 		.4byte	.LVL679-1
ARM GAS  C:\Users\HENRYA~1\AppData\Local\Temp\cceIRlNf.s 			page 267


 14012 0f89 16000000 		.4byte	.LVL680
 14013 0f8d 0600     		.2byte	0x6
 14014 0f8f F3       		.byte	0xf3
 14015 0f90 01       		.uleb128 0x1
 14016 0f91 51       		.byte	0x51
 14017 0f92 38       		.byte	0x38
 14018 0f93 26       		.byte	0x26
 14019 0f94 9F       		.byte	0x9f
 14020 0f95 16000000 		.4byte	.LVL680
 14021 0f99 2D000000 		.4byte	.LVL682-1
 14022 0f9d 0100     		.2byte	0x1
 14023 0f9f 52       		.byte	0x52
 14024 0fa0 2D000000 		.4byte	.LVL682-1
 14025 0fa4 3C000000 		.4byte	.LFE81
 14026 0fa8 0600     		.2byte	0x6
 14027 0faa F3       		.byte	0xf3
 14028 0fab 01       		.uleb128 0x1
 14029 0fac 51       		.byte	0x51
 14030 0fad 38       		.byte	0x38
 14031 0fae 26       		.byte	0x26
 14032 0faf 9F       		.byte	0x9f
 14033 0fb0 00000000 		.4byte	0
 14034 0fb4 00000000 		.4byte	0
 14035              	.LLST91:
 14036 0fb8 08000000 		.4byte	.LVL676
 14037 0fbc 34000000 		.4byte	.LVL684
 14038 0fc0 0100     		.2byte	0x1
 14039 0fc2 54       		.byte	0x54
 14040 0fc3 34000000 		.4byte	.LVL684
 14041 0fc7 3C000000 		.4byte	.LFE81
 14042 0fcb 0400     		.2byte	0x4
 14043 0fcd F3       		.byte	0xf3
 14044 0fce 01       		.uleb128 0x1
 14045 0fcf 51       		.byte	0x51
 14046 0fd0 9F       		.byte	0x9f
 14047 0fd1 00000000 		.4byte	0
 14048 0fd5 00000000 		.4byte	0
 14049              	.LLST92:
 14050 0fd9 00000000 		.4byte	.LVL685
 14051 0fdd 0A000000 		.4byte	.LVL686
 14052 0fe1 0100     		.2byte	0x1
 14053 0fe3 50       		.byte	0x50
 14054 0fe4 0A000000 		.4byte	.LVL686
 14055 0fe8 70000000 		.4byte	.LFE83
 14056 0fec 0100     		.2byte	0x1
 14057 0fee 53       		.byte	0x53
 14058 0fef 00000000 		.4byte	0
 14059 0ff3 00000000 		.4byte	0
 14060              		.section	.debug_aranges,"",%progbits
 14061 0000 9C010000 		.4byte	0x19c
 14062 0004 0200     		.2byte	0x2
 14063 0006 00000000 		.4byte	.Ldebug_info0
 14064 000a 04       		.byte	0x4
 14065 000b 00       		.byte	0
 14066 000c 0000     		.2byte	0
 14067 000e 0000     		.2byte	0
 14068 0010 00000000 		.4byte	.LFB36
ARM GAS  C:\Users\HENRYA~1\AppData\Local\Temp\cceIRlNf.s 			page 268


 14069 0014 22000000 		.4byte	.LFE36-.LFB36
 14070 0018 00000000 		.4byte	.LFB37
 14071 001c 3C000000 		.4byte	.LFE37-.LFB37
 14072 0020 00000000 		.4byte	.LFB38
 14073 0024 8C000000 		.4byte	.LFE38-.LFB38
 14074 0028 00000000 		.4byte	.LFB39
 14075 002c 30000000 		.4byte	.LFE39-.LFB39
 14076 0030 00000000 		.4byte	.LFB40
 14077 0034 30000000 		.4byte	.LFE40-.LFB40
 14078 0038 00000000 		.4byte	.LFB41
 14079 003c 22000000 		.4byte	.LFE41-.LFB41
 14080 0040 00000000 		.4byte	.LFB42
 14081 0044 3C000000 		.4byte	.LFE42-.LFB42
 14082 0048 00000000 		.4byte	.LFB43
 14083 004c 8C000000 		.4byte	.LFE43-.LFB43
 14084 0050 00000000 		.4byte	.LFB44
 14085 0054 30000000 		.4byte	.LFE44-.LFB44
 14086 0058 00000000 		.4byte	.LFB45
 14087 005c 30000000 		.4byte	.LFE45-.LFB45
 14088 0060 00000000 		.4byte	.LFB46
 14089 0064 22000000 		.4byte	.LFE46-.LFB46
 14090 0068 00000000 		.4byte	.LFB47
 14091 006c 3C000000 		.4byte	.LFE47-.LFB47
 14092 0070 00000000 		.4byte	.LFB48
 14093 0074 8C000000 		.4byte	.LFE48-.LFB48
 14094 0078 00000000 		.4byte	.LFB49
 14095 007c 30000000 		.4byte	.LFE49-.LFB49
 14096 0080 00000000 		.4byte	.LFB50
 14097 0084 30000000 		.4byte	.LFE50-.LFB50
 14098 0088 00000000 		.4byte	.LFB51
 14099 008c A0000000 		.4byte	.LFE51-.LFB51
 14100 0090 00000000 		.4byte	.LFB52
 14101 0094 FC000000 		.4byte	.LFE52-.LFB52
 14102 0098 00000000 		.4byte	.LFB53
 14103 009c 64000000 		.4byte	.LFE53-.LFB53
 14104 00a0 00000000 		.4byte	.LFB54
 14105 00a4 54000000 		.4byte	.LFE54-.LFB54
 14106 00a8 00000000 		.4byte	.LFB55
 14107 00ac 58000000 		.4byte	.LFE55-.LFB55
 14108 00b0 00000000 		.4byte	.LFB56
 14109 00b4 64000000 		.4byte	.LFE56-.LFB56
 14110 00b8 00000000 		.4byte	.LFB57
 14111 00bc 70000000 		.4byte	.LFE57-.LFB57
 14112 00c0 00000000 		.4byte	.LFB58
 14113 00c4 C0000000 		.4byte	.LFE58-.LFB58
 14114 00c8 00000000 		.4byte	.LFB59
 14115 00cc 64000000 		.4byte	.LFE59-.LFB59
 14116 00d0 00000000 		.4byte	.LFB60
 14117 00d4 94000000 		.4byte	.LFE60-.LFB60
 14118 00d8 00000000 		.4byte	.LFB61
 14119 00dc 70000000 		.4byte	.LFE61-.LFB61
 14120 00e0 00000000 		.4byte	.LFB62
 14121 00e4 42000000 		.4byte	.LFE62-.LFB62
 14122 00e8 00000000 		.4byte	.LFB63
 14123 00ec E0000000 		.4byte	.LFE63-.LFB63
 14124 00f0 00000000 		.4byte	.LFB64
 14125 00f4 2C010000 		.4byte	.LFE64-.LFB64
ARM GAS  C:\Users\HENRYA~1\AppData\Local\Temp\cceIRlNf.s 			page 269


 14126 00f8 00000000 		.4byte	.LFB65
 14127 00fc 9C000000 		.4byte	.LFE65-.LFB65
 14128 0100 00000000 		.4byte	.LFB66
 14129 0104 16000000 		.4byte	.LFE66-.LFB66
 14130 0108 00000000 		.4byte	.LFB67
 14131 010c 54010000 		.4byte	.LFE67-.LFB67
 14132 0110 00000000 		.4byte	.LFB68
 14133 0114 28000000 		.4byte	.LFE68-.LFB68
 14134 0118 00000000 		.4byte	.LFB69
 14135 011c 28000000 		.4byte	.LFE69-.LFB69
 14136 0120 00000000 		.4byte	.LFB70
 14137 0124 4C010000 		.4byte	.LFE70-.LFB70
 14138 0128 00000000 		.4byte	.LFB71
 14139 012c 30000000 		.4byte	.LFE71-.LFB71
 14140 0130 00000000 		.4byte	.LFB72
 14141 0134 30000000 		.4byte	.LFE72-.LFB72
 14142 0138 00000000 		.4byte	.LFB73
 14143 013c 24000000 		.4byte	.LFE73-.LFB73
 14144 0140 00000000 		.4byte	.LFB74
 14145 0144 54000000 		.4byte	.LFE74-.LFB74
 14146 0148 00000000 		.4byte	.LFB75
 14147 014c 50010000 		.4byte	.LFE75-.LFB75
 14148 0150 00000000 		.4byte	.LFB76
 14149 0154 4C020000 		.4byte	.LFE76-.LFB76
 14150 0158 00000000 		.4byte	.LFB77
 14151 015c 7C000000 		.4byte	.LFE77-.LFB77
 14152 0160 00000000 		.4byte	.LFB78
 14153 0164 24000000 		.4byte	.LFE78-.LFB78
 14154 0168 00000000 		.4byte	.LFB79
 14155 016c D0000000 		.4byte	.LFE79-.LFB79
 14156 0170 00000000 		.4byte	.LFB80
 14157 0174 44000000 		.4byte	.LFE80-.LFB80
 14158 0178 00000000 		.4byte	.LFB82
 14159 017c 1C000000 		.4byte	.LFE82-.LFB82
 14160 0180 00000000 		.4byte	.LFB81
 14161 0184 3C000000 		.4byte	.LFE81-.LFB81
 14162 0188 00000000 		.4byte	.LFB83
 14163 018c 70000000 		.4byte	.LFE83-.LFB83
 14164 0190 00000000 		.4byte	.LFB84
 14165 0194 3C010000 		.4byte	.LFE84-.LFB84
 14166 0198 00000000 		.4byte	0
 14167 019c 00000000 		.4byte	0
 14168              		.section	.debug_ranges,"",%progbits
 14169              	.Ldebug_ranges0:
 14170 0000 00000000 		.4byte	.LFB36
 14171 0004 22000000 		.4byte	.LFE36
 14172 0008 00000000 		.4byte	.LFB37
 14173 000c 3C000000 		.4byte	.LFE37
 14174 0010 00000000 		.4byte	.LFB38
 14175 0014 8C000000 		.4byte	.LFE38
 14176 0018 00000000 		.4byte	.LFB39
 14177 001c 30000000 		.4byte	.LFE39
 14178 0020 00000000 		.4byte	.LFB40
 14179 0024 30000000 		.4byte	.LFE40
 14180 0028 00000000 		.4byte	.LFB41
 14181 002c 22000000 		.4byte	.LFE41
 14182 0030 00000000 		.4byte	.LFB42
ARM GAS  C:\Users\HENRYA~1\AppData\Local\Temp\cceIRlNf.s 			page 270


 14183 0034 3C000000 		.4byte	.LFE42
 14184 0038 00000000 		.4byte	.LFB43
 14185 003c 8C000000 		.4byte	.LFE43
 14186 0040 00000000 		.4byte	.LFB44
 14187 0044 30000000 		.4byte	.LFE44
 14188 0048 00000000 		.4byte	.LFB45
 14189 004c 30000000 		.4byte	.LFE45
 14190 0050 00000000 		.4byte	.LFB46
 14191 0054 22000000 		.4byte	.LFE46
 14192 0058 00000000 		.4byte	.LFB47
 14193 005c 3C000000 		.4byte	.LFE47
 14194 0060 00000000 		.4byte	.LFB48
 14195 0064 8C000000 		.4byte	.LFE48
 14196 0068 00000000 		.4byte	.LFB49
 14197 006c 30000000 		.4byte	.LFE49
 14198 0070 00000000 		.4byte	.LFB50
 14199 0074 30000000 		.4byte	.LFE50
 14200 0078 00000000 		.4byte	.LFB51
 14201 007c A0000000 		.4byte	.LFE51
 14202 0080 00000000 		.4byte	.LFB52
 14203 0084 FC000000 		.4byte	.LFE52
 14204 0088 00000000 		.4byte	.LFB53
 14205 008c 64000000 		.4byte	.LFE53
 14206 0090 00000000 		.4byte	.LFB54
 14207 0094 54000000 		.4byte	.LFE54
 14208 0098 00000000 		.4byte	.LFB55
 14209 009c 58000000 		.4byte	.LFE55
 14210 00a0 00000000 		.4byte	.LFB56
 14211 00a4 64000000 		.4byte	.LFE56
 14212 00a8 00000000 		.4byte	.LFB57
 14213 00ac 70000000 		.4byte	.LFE57
 14214 00b0 00000000 		.4byte	.LFB58
 14215 00b4 C0000000 		.4byte	.LFE58
 14216 00b8 00000000 		.4byte	.LFB59
 14217 00bc 64000000 		.4byte	.LFE59
 14218 00c0 00000000 		.4byte	.LFB60
 14219 00c4 94000000 		.4byte	.LFE60
 14220 00c8 00000000 		.4byte	.LFB61
 14221 00cc 70000000 		.4byte	.LFE61
 14222 00d0 00000000 		.4byte	.LFB62
 14223 00d4 42000000 		.4byte	.LFE62
 14224 00d8 00000000 		.4byte	.LFB63
 14225 00dc E0000000 		.4byte	.LFE63
 14226 00e0 00000000 		.4byte	.LFB64
 14227 00e4 2C010000 		.4byte	.LFE64
 14228 00e8 00000000 		.4byte	.LFB65
 14229 00ec 9C000000 		.4byte	.LFE65
 14230 00f0 00000000 		.4byte	.LFB66
 14231 00f4 16000000 		.4byte	.LFE66
 14232 00f8 00000000 		.4byte	.LFB67
 14233 00fc 54010000 		.4byte	.LFE67
 14234 0100 00000000 		.4byte	.LFB68
 14235 0104 28000000 		.4byte	.LFE68
 14236 0108 00000000 		.4byte	.LFB69
 14237 010c 28000000 		.4byte	.LFE69
 14238 0110 00000000 		.4byte	.LFB70
 14239 0114 4C010000 		.4byte	.LFE70
ARM GAS  C:\Users\HENRYA~1\AppData\Local\Temp\cceIRlNf.s 			page 271


 14240 0118 00000000 		.4byte	.LFB71
 14241 011c 30000000 		.4byte	.LFE71
 14242 0120 00000000 		.4byte	.LFB72
 14243 0124 30000000 		.4byte	.LFE72
 14244 0128 00000000 		.4byte	.LFB73
 14245 012c 24000000 		.4byte	.LFE73
 14246 0130 00000000 		.4byte	.LFB74
 14247 0134 54000000 		.4byte	.LFE74
 14248 0138 00000000 		.4byte	.LFB75
 14249 013c 50010000 		.4byte	.LFE75
 14250 0140 00000000 		.4byte	.LFB76
 14251 0144 4C020000 		.4byte	.LFE76
 14252 0148 00000000 		.4byte	.LFB77
 14253 014c 7C000000 		.4byte	.LFE77
 14254 0150 00000000 		.4byte	.LFB78
 14255 0154 24000000 		.4byte	.LFE78
 14256 0158 00000000 		.4byte	.LFB79
 14257 015c D0000000 		.4byte	.LFE79
 14258 0160 00000000 		.4byte	.LFB80
 14259 0164 44000000 		.4byte	.LFE80
 14260 0168 00000000 		.4byte	.LFB82
 14261 016c 1C000000 		.4byte	.LFE82
 14262 0170 00000000 		.4byte	.LFB81
 14263 0174 3C000000 		.4byte	.LFE81
 14264 0178 00000000 		.4byte	.LFB83
 14265 017c 70000000 		.4byte	.LFE83
 14266 0180 00000000 		.4byte	.LFB84
 14267 0184 3C010000 		.4byte	.LFE84
 14268 0188 00000000 		.4byte	0
 14269 018c 00000000 		.4byte	0
 14270              		.section	.debug_line,"",%progbits
 14271              	.Ldebug_line0:
 14272 0000 67090000 		.section	.debug_str,"MS",%progbits,1
 14272      0200E601 
 14272      00000201 
 14272      FB0E0D00 
 14272      01010101 
 14273              	.LASF154:
 14274 0000 53454E53 		.ascii	"SENSOR_3_I2CMasterReadBuf\000"
 14274      4F525F33 
 14274      5F493243 
 14274      4D617374 
 14274      65725265 
 14275              	.LASF134:
 14276 001a 6461746F 		.ascii	"dato_enviado_2\000"
 14276      5F656E76 
 14276      6961646F 
 14276      5F3200
 14277              	.LASF83:
 14278 0029 53656E64 		.ascii	"Send_Angle\000"
 14278      5F416E67 
 14278      6C6500
 14279              	.LASF177:
 14280 0034 43414E5F 		.ascii	"CAN_isr_StartEx\000"
 14280      6973725F 
 14280      53746172 
 14280      74457800 
ARM GAS  C:\Users\HENRYA~1\AppData\Local\Temp\cceIRlNf.s 			page 272


 14281              	.LASF183:
 14282 0044 6D61696E 		.ascii	"main.c\000"
 14282      2E6300
 14283              	.LASF162:
 14284 004b 52585F52 		.ascii	"RX_ReadRxData\000"
 14284      65616452 
 14284      78446174 
 14284      6100
 14285              	.LASF62:
 14286 0059 43575F48 		.ascii	"CW_H\000"
 14286      00
 14287              	.LASF71:
 14288 005e 70686173 		.ascii	"phase\000"
 14288      6500
 14289              	.LASF63:
 14290 0064 43575F4C 		.ascii	"CW_L\000"
 14290      00
 14291              	.LASF97:
 14292 0069 7369676E 		.ascii	"signo_can\000"
 14292      6F5F6361 
 14292      6E00
 14293              	.LASF98:
 14294 0073 72656369 		.ascii	"recibmail_1\000"
 14294      626D6169 
 14294      6C5F3100 
 14295              	.LASF109:
 14296 007f 4572726F 		.ascii	"Error_Byte\000"
 14296      725F4279 
 14296      746500
 14297              	.LASF132:
 14298 008a 73756D61 		.ascii	"sumadir\000"
 14298      64697200 
 14299              	.LASF120:
 14300 0092 436F6E64 		.ascii	"Condicion_Start\000"
 14300      6963696F 
 14300      6E5F5374 
 14300      61727400 
 14301              	.LASF107:
 14302 00a2 496E636F 		.ascii	"Incoming_Byte\000"
 14302      6D696E67 
 14302      5F427974 
 14302      6500
 14303              	.LASF64:
 14304 00b0 4343575F 		.ascii	"CCW_H\000"
 14304      4800
 14305              	.LASF9:
 14306 00b6 756E7369 		.ascii	"unsigned int\000"
 14306      676E6564 
 14306      20696E74 
 14306      00
 14307              	.LASF65:
 14308 00c3 4343575F 		.ascii	"CCW_L\000"
 14308      4C00
 14309              	.LASF43:
 14310 00c9 53746174 		.ascii	"Status\000"
 14310      757300
 14311              	.LASF152:
ARM GAS  C:\Users\HENRYA~1\AppData\Local\Temp\cceIRlNf.s 			page 273


 14312 00d0 53454E53 		.ascii	"SENSOR_3_I2CMasterWriteBuf\000"
 14312      4F525F33 
 14312      5F493243 
 14312      4D617374 
 14312      65725772 
 14313              	.LASF76:
 14314 00eb 646F6666 		.ascii	"doffset\000"
 14314      73657400 
 14315              	.LASF113:
 14316 00f3 506F7369 		.ascii	"Position_Low_Byte\000"
 14316      74696F6E 
 14316      5F4C6F77 
 14316      5F427974 
 14316      6500
 14317              	.LASF158:
 14318 0105 52585F47 		.ascii	"RX_GetChar\000"
 14318      65744368 
 14318      617200
 14319              	.LASF69:
 14320 0110 74657461 		.ascii	"teta2\000"
 14320      3200
 14321              	.LASF70:
 14322 0116 74657461 		.ascii	"teta3\000"
 14322      3300
 14323              	.LASF138:
 14324 011c 6572726F 		.ascii	"error\000"
 14324      7200
 14325              	.LASF89:
 14326 0122 61736967 		.ascii	"asig\000"
 14326      00
 14327              	.LASF150:
 14328 0127 53454E53 		.ascii	"SENSOR_2_I2CMasterReadBuf\000"
 14328      4F525F32 
 14328      5F493243 
 14328      4D617374 
 14328      65725265 
 14329              	.LASF184:
 14330 0141 433A5C55 		.ascii	"C:\\Users\\Henry Alberto\\Desktop\\Algoritmos_Optim"
 14330      73657273 
 14330      5C48656E 
 14330      72792041 
 14330      6C626572 
 14331 0170 697A6163 		.ascii	"izacion\\Modulo.cydsn\000"
 14331      696F6E5C 
 14331      4D6F6475 
 14331      6C6F2E63 
 14331      7964736E 
 14332              	.LASF41:
 14333 0185 70696E67 		.ascii	"ping\000"
 14333      00
 14334              	.LASF68:
 14335 018a 74657461 		.ascii	"teta\000"
 14335      00
 14336              	.LASF153:
 14337 018f 53454E53 		.ascii	"SENSOR_3_I2CMasterStatus\000"
 14337      4F525F33 
 14337      5F493243 
ARM GAS  C:\Users\HENRYA~1\AppData\Local\Temp\cceIRlNf.s 			page 274


 14337      4D617374 
 14337      65725374 
 14338              	.LASF93:
 14339 01a8 4F726965 		.ascii	"Orientacion_Modulo\000"
 14339      6E746163 
 14339      696F6E5F 
 14339      4D6F6475 
 14339      6C6F00
 14340              	.LASF99:
 14341 01bb 696E7465 		.ascii	"interrutcan\000"
 14341      72727574 
 14341      63616E00 
 14342              	.LASF171:
 14343 01c7 53454E53 		.ascii	"SENSOR_2_Enable\000"
 14343      4F525F32 
 14343      5F456E61 
 14343      626C6500 
 14344              	.LASF61:
 14345 01d7 4343574C 		.ascii	"CCWLimit\000"
 14345      696D6974 
 14345      00
 14346              	.LASF151:
 14347 01e0 4C45445F 		.ascii	"LED_2_Write\000"
 14347      325F5772 
 14347      69746500 
 14348              	.LASF80:
 14349 01ec 6C65646F 		.ascii	"ledoff\000"
 14349      666600
 14350              	.LASF139:
 14351 01f3 706F7369 		.ascii	"posicion\000"
 14351      63696F6E 
 14351      00
 14352              	.LASF116:
 14353 01fc 74686574 		.ascii	"theta\000"
 14353      6100
 14354              	.LASF108:
 14355 0202 54656D70 		.ascii	"Temperature_Byte\000"
 14355      65726174 
 14355      7572655F 
 14355      42797465 
 14355      00
 14356              	.LASF82:
 14357 0213 64697265 		.ascii	"direccion\000"
 14357      6363696F 
 14357      6E00
 14358              	.LASF0:
 14359 021d 666C6F61 		.ascii	"float\000"
 14359      7400
 14360              	.LASF118:
 14361 0223 616C6D61 		.ascii	"almacena_salida\000"
 14361      63656E61 
 14361      5F73616C 
 14361      69646100 
 14362              	.LASF169:
 14363 0233 53454E53 		.ascii	"SENSOR_1_Enable\000"
 14363      4F525F31 
 14363      5F456E61 
ARM GAS  C:\Users\HENRYA~1\AppData\Local\Temp\cceIRlNf.s 			page 275


 14363      626C6500 
 14364              	.LASF156:
 14365 0243 43794465 		.ascii	"CyDelayUs\000"
 14365      6C617955 
 14365      7300
 14366              	.LASF94:
 14367 024d 41647175 		.ascii	"Adquirir_Parametros\000"
 14367      69726972 
 14367      5F506172 
 14367      616D6574 
 14367      726F7300 
 14368              	.LASF110:
 14369 0261 496E636F 		.ascii	"Incoming_Byte2\000"
 14369      6D696E67 
 14369      5F427974 
 14369      653200
 14370              	.LASF8:
 14371 0270 6C6F6E67 		.ascii	"long long unsigned int\000"
 14371      206C6F6E 
 14371      6720756E 
 14371      7369676E 
 14371      65642069 
 14372              	.LASF128:
 14373 0287 4F726965 		.ascii	"Orientacion_H\000"
 14373      6E746163 
 14373      696F6E5F 
 14373      4800
 14374              	.LASF170:
 14375 0295 53454E53 		.ascii	"SENSOR_2_Start\000"
 14375      4F525F32 
 14375      5F537461 
 14375      727400
 14376              	.LASF164:
 14377 02a4 43414E5F 		.ascii	"CAN_SendMsg0\000"
 14377      53656E64 
 14377      4D736730 
 14377      00
 14378              	.LASF129:
 14379 02b1 4F726965 		.ascii	"Orientacion_V\000"
 14379      6E746163 
 14379      696F6E5F 
 14379      5600
 14380              	.LASF23:
 14381 02bf 72656164 		.ascii	"readProximity_1\000"
 14381      50726F78 
 14381      696D6974 
 14381      795F3100 
 14382              	.LASF30:
 14383 02cf 72656164 		.ascii	"readProximity_2\000"
 14383      50726F78 
 14383      696D6974 
 14383      795F3200 
 14384              	.LASF35:
 14385 02df 72656164 		.ascii	"readProximity_3\000"
 14385      50726F78 
 14385      696D6974 
 14385      795F3300 
ARM GAS  C:\Users\HENRYA~1\AppData\Local\Temp\cceIRlNf.s 			page 276


 14386              	.LASF104:
 14387 02ef 45737461 		.ascii	"Estado_COM\000"
 14387      646F5F43 
 14387      4F4D00
 14388              	.LASF182:
 14389 02fa 474E5520 		.ascii	"GNU C11 5.4.1 20160609 (release) [ARM/embedded-5-br"
 14389      43313120 
 14389      352E342E 
 14389      31203230 
 14389      31363036 
 14390 032d 616E6368 		.ascii	"anch revision 237715] -mcpu=cortex-m0 -mthumb -g -O"
 14390      20726576 
 14390      6973696F 
 14390      6E203233 
 14390      37373135 
 14391 0360 67202D66 		.ascii	"g -ffunction-sections -ffat-lto-objects\000"
 14391      66756E63 
 14391      74696F6E 
 14391      2D736563 
 14391      74696F6E 
 14392              	.LASF100:
 14393 0388 6D6F7669 		.ascii	"movimiento\000"
 14393      6D69656E 
 14393      746F00
 14394              	.LASF77:
 14395 0393 6F666673 		.ascii	"offset\000"
 14395      657400
 14396              	.LASF102:
 14397 039a 62797465 		.ascii	"byteh\000"
 14397      6800
 14398              	.LASF103:
 14399 03a0 62797465 		.ascii	"bytel\000"
 14399      6C00
 14400              	.LASF90:
 14401 03a6 72656369 		.ascii	"recibmail\000"
 14401      626D6169 
 14401      6C00
 14402              	.LASF112:
 14403 03b0 506F7369 		.ascii	"Position_High_Byte\000"
 14403      74696F6E 
 14403      5F486967 
 14403      685F4279 
 14403      746500
 14404              	.LASF66:
 14405 03c3 72616E64 		.ascii	"randd\000"
 14405      6400
 14406              	.LASF174:
 14407 03c9 53454E53 		.ascii	"SENSOR_4_Start\000"
 14407      4F525F34 
 14407      5F537461 
 14407      727400
 14408              	.LASF58:
 14409 03d8 72656164 		.ascii	"readPosition\000"
 14409      506F7369 
 14409      74696F6E 
 14409      00
 14410              	.LASF56:
ARM GAS  C:\Users\HENRYA~1\AppData\Local\Temp\cceIRlNf.s 			page 277


 14411 03e5 7475726E 		.ascii	"turn\000"
 14411      00
 14412              	.LASF145:
 14413 03ea 53454E53 		.ascii	"SENSOR_1_I2CMasterReadBuf\000"
 14413      4F525F31 
 14413      5F493243 
 14413      4D617374 
 14413      65725265 
 14414              	.LASF26:
 14415 0404 72656164 		.ascii	"readVCNL_1\000"
 14415      56434E4C 
 14415      5F3100
 14416              	.LASF27:
 14417 040f 72656164 		.ascii	"readVCNL_2\000"
 14417      56434E4C 
 14417      5F3200
 14418              	.LASF33:
 14419 041a 72656164 		.ascii	"readVCNL_3\000"
 14419      56434E4C 
 14419      5F3300
 14420              	.LASF45:
 14421 0425 506F7369 		.ascii	"Position\000"
 14421      74696F6E 
 14421      00
 14422              	.LASF14:
 14423 042e 63686172 		.ascii	"char\000"
 14423      00
 14424              	.LASF49:
 14425 0433 746F7271 		.ascii	"torqueStatus\000"
 14425      75655374 
 14425      61747573 
 14425      00
 14426              	.LASF166:
 14427 0440 4C45445F 		.ascii	"LED_4_Write\000"
 14427      345F5772 
 14427      69746500 
 14428              	.LASF19:
 14429 044c 57726974 		.ascii	"Write_buf\000"
 14429      655F6275 
 14429      6600
 14430              	.LASF54:
 14431 0456 6D6F7665 		.ascii	"moveRW\000"
 14431      525700
 14432              	.LASF115:
 14433 045d 616D7032 		.ascii	"amp2\000"
 14433      00
 14434              	.LASF179:
 14435 0462 4D4F544F 		.ascii	"MOTOR_Start\000"
 14435      525F5374 
 14435      61727400 
 14436              	.LASF86:
 14437 046e 6461746F 		.ascii	"datoH\000"
 14437      4800
 14438              	.LASF51:
 14439 0474 53706565 		.ascii	"Speed\000"
 14439      6400
 14440              	.LASF123:
ARM GAS  C:\Users\HENRYA~1\AppData\Local\Temp\cceIRlNf.s 			page 278


 14441 047a 506F7369 		.ascii	"PositionM\000"
 14441      74696F6E 
 14441      4D00
 14442              	.LASF85:
 14443 0484 6461746F 		.ascii	"datoL\000"
 14443      4C00
 14444              	.LASF72:
 14445 048a 6464616D 		.ascii	"ddampli\000"
 14445      706C6900 
 14446              	.LASF75:
 14447 0492 64646F66 		.ascii	"ddoffset\000"
 14447      66736574 
 14447      00
 14448              	.LASF147:
 14449 049b 43794465 		.ascii	"CyDelay\000"
 14449      6C617900 
 14450              	.LASF11:
 14451 04a3 75696E74 		.ascii	"uint16\000"
 14451      313600
 14452              	.LASF18:
 14453 04aa 64617461 		.ascii	"data\000"
 14453      00
 14454              	.LASF12:
 14455 04af 696E7438 		.ascii	"int8\000"
 14455      00
 14456              	.LASF126:
 14457 04b4 63616E74 		.ascii	"cantidadM\000"
 14457      69646164 
 14457      4D00
 14458              	.LASF165:
 14459 04be 43414E5F 		.ascii	"CAN_GetErrorState\000"
 14459      47657445 
 14459      72726F72 
 14459      53746174 
 14459      6500
 14460              	.LASF163:
 14461 04d0 72616E64 		.ascii	"rand\000"
 14461      00
 14462              	.LASF7:
 14463 04d5 6C6F6E67 		.ascii	"long long int\000"
 14463      206C6F6E 
 14463      6720696E 
 14463      7400
 14464              	.LASF149:
 14465 04e3 53454E53 		.ascii	"SENSOR_2_I2CMasterStatus\000"
 14465      4F525F32 
 14465      5F493243 
 14465      4D617374 
 14465      65725374 
 14466              	.LASF101:
 14467 04fc 64697272 		.ascii	"dirr\000"
 14467      00
 14468              	.LASF96:
 14469 0501 6461746F 		.ascii	"dato_H\000"
 14469      5F4800
 14470              	.LASF95:
 14471 0508 6461746F 		.ascii	"dato_L\000"
ARM GAS  C:\Users\HENRYA~1\AppData\Local\Temp\cceIRlNf.s 			page 279


 14471      5F4C00
 14472              	.LASF124:
 14473 050f 54657461 		.ascii	"Teta_Can_l\000"
 14473      5F43616E 
 14473      5F6C00
 14474              	.LASF106:
 14475 051a 43686563 		.ascii	"Checksum\000"
 14475      6B73756D 
 14475      00
 14476              	.LASF119:
 14477 0523 53656C65 		.ascii	"Seleccion\000"
 14477      6363696F 
 14477      6E00
 14478              	.LASF125:
 14479 052d 54657461 		.ascii	"Teta_Can_r\000"
 14479      5F43616E 
 14479      5F7200
 14480              	.LASF181:
 14481 0538 43414E5F 		.ascii	"CAN_SendMsg2\000"
 14481      53656E64 
 14481      4D736732 
 14481      00
 14482              	.LASF81:
 14483 0545 64617461 		.ascii	"datas\000"
 14483      7300
 14484              	.LASF173:
 14485 054b 53454E53 		.ascii	"SENSOR_3_Enable\000"
 14485      4F525F33 
 14485      5F456E61 
 14485      626C6500 
 14486              	.LASF88:
 14487 055b 696E6963 		.ascii	"inicio\000"
 14487      696F00
 14488              	.LASF140:
 14489 0562 706F7369 		.ascii	"posicionh\000"
 14489      63696F6E 
 14489      6800
 14490              	.LASF141:
 14491 056c 706F7369 		.ascii	"posicionl\000"
 14491      63696F6E 
 14491      6C00
 14492              	.LASF135:
 14493 0576 6D61696C 		.ascii	"mailbox0\000"
 14493      626F7830 
 14493      00
 14494              	.LASF136:
 14495 057f 6D61696C 		.ascii	"mailbox1\000"
 14495      626F7831 
 14495      00
 14496              	.LASF137:
 14497 0588 6D61696C 		.ascii	"mailbox2\000"
 14497      626F7832 
 14497      00
 14498              	.LASF87:
 14499 0591 72657461 		.ascii	"retardo\000"
 14499      72646F00 
 14500              	.LASF130:
ARM GAS  C:\Users\HENRYA~1\AppData\Local\Temp\cceIRlNf.s 			page 280


 14501 0599 4D796469 		.ascii	"Mydir\000"
 14501      7200
 14502              	.LASF15:
 14503 059f 6C6F6E67 		.ascii	"long double\000"
 14503      20646F75 
 14503      626C6500 
 14504              	.LASF144:
 14505 05ab 53454E53 		.ascii	"SENSOR_1_I2CMasterStatus\000"
 14505      4F525F31 
 14505      5F493243 
 14505      4D617374 
 14505      65725374 
 14506              	.LASF122:
 14507 05c4 65727263 		.ascii	"errc\000"
 14507      00
 14508              	.LASF52:
 14509 05c9 53706565 		.ascii	"Speed_H\000"
 14509      645F4800 
 14510              	.LASF53:
 14511 05d1 53706565 		.ascii	"Speed_L\000"
 14511      645F4C00 
 14512              	.LASF74:
 14513 05d9 616D706C 		.ascii	"ampli\000"
 14513      6900
 14514              	.LASF28:
 14515 05df 696E6974 		.ascii	"initVCNL_1\000"
 14515      56434E4C 
 14515      5F3100
 14516              	.LASF29:
 14517 05ea 696E6974 		.ascii	"initVCNL_2\000"
 14517      56434E4C 
 14517      5F3200
 14518              	.LASF34:
 14519 05f5 696E6974 		.ascii	"initVCNL_3\000"
 14519      56434E4C 
 14519      5F3300
 14520              	.LASF131:
 14521 0600 64697261 		.ascii	"dirasig\000"
 14521      73696700 
 14522              	.LASF121:
 14523 0608 63737461 		.ascii	"cstatus\000"
 14523      74757300 
 14524              	.LASF3:
 14525 0610 73686F72 		.ascii	"short int\000"
 14525      7420696E 
 14525      7400
 14526              	.LASF168:
 14527 061a 53454E53 		.ascii	"SENSOR_1_Start\000"
 14527      4F525F31 
 14527      5F537461 
 14527      727400
 14528              	.LASF167:
 14529 0629 43414E5F 		.ascii	"CAN_MsgRXIsr\000"
 14529      4D736752 
 14529      58497372 
 14529      00
 14530              	.LASF5:
ARM GAS  C:\Users\HENRYA~1\AppData\Local\Temp\cceIRlNf.s 			page 281


 14531 0636 6C6F6E67 		.ascii	"long int\000"
 14531      20696E74 
 14531      00
 14532              	.LASF180:
 14533 063f 43414E5F 		.ascii	"CAN_GlobalIntEnable\000"
 14533      476C6F62 
 14533      616C496E 
 14533      74456E61 
 14533      626C6500 
 14534              	.LASF21:
 14535 0653 74656D70 		.ascii	"temp\000"
 14535      00
 14536              	.LASF38:
 14537 0658 72656164 		.ascii	"readtemperature\000"
 14537      74656D70 
 14537      65726174 
 14537      75726500 
 14538              	.LASF55:
 14539 0668 61637469 		.ascii	"action\000"
 14539      6F6E00
 14540              	.LASF146:
 14541 066f 4C45445F 		.ascii	"LED_1_Write\000"
 14541      315F5772 
 14541      69746500 
 14542              	.LASF42:
 14543 067b 72657365 		.ascii	"reset\000"
 14543      7400
 14544              	.LASF159:
 14545 0681 52585F43 		.ascii	"RX_ClearRxBuffer\000"
 14545      6C656172 
 14545      52784275 
 14545      66666572 
 14545      00
 14546              	.LASF114:
 14547 0692 54696D65 		.ascii	"Time_Counter\000"
 14547      5F436F75 
 14547      6E746572 
 14547      00
 14548              	.LASF73:
 14549 069f 64616D70 		.ascii	"dampli\000"
 14549      6C6900
 14550              	.LASF161:
 14551 06a6 4D4F544F 		.ascii	"MOTOR_PutChar\000"
 14551      525F5075 
 14551      74436861 
 14551      7200
 14552              	.LASF160:
 14553 06b4 5458435F 		.ascii	"TXC_Write\000"
 14553      57726974 
 14553      6500
 14554              	.LASF20:
 14555 06be 72656164 		.ascii	"read_Buf\000"
 14555      5F427566 
 14555      00
 14556              	.LASF16:
 14557 06c7 73697A65 		.ascii	"sizetype\000"
 14557      74797065 
ARM GAS  C:\Users\HENRYA~1\AppData\Local\Temp\cceIRlNf.s 			page 282


 14557      00
 14558              	.LASF79:
 14559 06d0 61736967 		.ascii	"asignacion\000"
 14559      6E616369 
 14559      6F6E00
 14560              	.LASF6:
 14561 06db 6C6F6E67 		.ascii	"long unsigned int\000"
 14561      20756E73 
 14561      69676E65 
 14561      6420696E 
 14561      7400
 14562              	.LASF17:
 14563 06ed 61646472 		.ascii	"address\000"
 14563      65737300 
 14564              	.LASF67:
 14565 06f5 64746574 		.ascii	"dteta\000"
 14565      6100
 14566              	.LASF172:
 14567 06fb 53454E53 		.ascii	"SENSOR_3_Start\000"
 14567      4F525F33 
 14567      5F537461 
 14567      727400
 14568              	.LASF157:
 14569 070a 52585F47 		.ascii	"RX_GetRxBufferSize\000"
 14569      65745278 
 14569      42756666 
 14569      65725369 
 14569      7A6500
 14570              	.LASF175:
 14571 071d 53454E53 		.ascii	"SENSOR_4_Enable\000"
 14571      4F525F34 
 14571      5F456E61 
 14571      626C6500 
 14572              	.LASF148:
 14573 072d 53454E53 		.ascii	"SENSOR_2_I2CMasterWriteBuf\000"
 14573      4F525F32 
 14573      5F493243 
 14573      4D617374 
 14573      65725772 
 14574              	.LASF117:
 14575 0748 74686574 		.ascii	"theta_velocidad\000"
 14575      615F7665 
 14575      6C6F6369 
 14575      64616400 
 14576              	.LASF50:
 14577 0758 4D6F7665 		.ascii	"MoveSpeed\000"
 14577      53706565 
 14577      6400
 14578              	.LASF142:
 14579 0762 636F6E74 		.ascii	"conta\000"
 14579      6100
 14580              	.LASF133:
 14581 0768 6461746F 		.ascii	"dato_enviado\000"
 14581      5F656E76 
 14581      6961646F 
 14581      00
 14582              	.LASF2:
ARM GAS  C:\Users\HENRYA~1\AppData\Local\Temp\cceIRlNf.s 			page 283


 14583 0775 756E7369 		.ascii	"unsigned char\000"
 14583      676E6564 
 14583      20636861 
 14583      7200
 14584              	.LASF48:
 14585 0783 73657445 		.ascii	"setEndless\000"
 14585      6E646C65 
 14585      737300
 14586              	.LASF155:
 14587 078e 4C45445F 		.ascii	"LED_3_Write\000"
 14587      335F5772 
 14587      69746500 
 14588              	.LASF78:
 14589 079a 63616E74 		.ascii	"cantidad_m\000"
 14589      69646164 
 14589      5F6D00
 14590              	.LASF44:
 14591 07a5 4D6F7665 		.ascii	"Move\000"
 14591      00
 14592              	.LASF127:
 14593 07aa 436F6E74 		.ascii	"Contador\000"
 14593      61646F72 
 14593      00
 14594              	.LASF60:
 14595 07b3 43574C69 		.ascii	"CWLimit\000"
 14595      6D697400 
 14596              	.LASF143:
 14597 07bb 53454E53 		.ascii	"SENSOR_1_I2CMasterWriteBuf\000"
 14597      4F525F31 
 14597      5F493243 
 14597      4D617374 
 14597      65725772 
 14598              	.LASF39:
 14599 07d6 73657449 		.ascii	"setID\000"
 14599      4400
 14600              	.LASF1:
 14601 07dc 7369676E 		.ascii	"signed char\000"
 14601      65642063 
 14601      68617200 
 14602              	.LASF4:
 14603 07e8 73686F72 		.ascii	"short unsigned int\000"
 14603      7420756E 
 14603      7369676E 
 14603      65642069 
 14603      6E7400
 14604              	.LASF105:
 14605 07fb 6D61696E 		.ascii	"main\000"
 14605      00
 14606              	.LASF57:
 14607 0800 53494445 		.ascii	"SIDE\000"
 14607      00
 14608              	.LASF40:
 14609 0805 6E657749 		.ascii	"newID\000"
 14609      4400
 14610              	.LASF10:
 14611 080b 75696E74 		.ascii	"uint8\000"
 14611      3800
ARM GAS  C:\Users\HENRYA~1\AppData\Local\Temp\cceIRlNf.s 			page 284


 14612              	.LASF13:
 14613 0811 646F7562 		.ascii	"double\000"
 14613      6C6500
 14614              	.LASF176:
 14615 0818 43414E5F 		.ascii	"CAN_Start\000"
 14615      53746172 
 14615      7400
 14616              	.LASF59:
 14617 0822 73657441 		.ascii	"setAngleLimit\000"
 14617      6E676C65 
 14617      4C696D69 
 14617      7400
 14618              	.LASF37:
 14619 0830 6572726F 		.ascii	"error_data\000"
 14619      725F6461 
 14619      746100
 14620              	.LASF178:
 14621 083b 52585F53 		.ascii	"RX_Start\000"
 14621      74617274 
 14621      00
 14622              	.LASF111:
 14623 0844 506F7369 		.ascii	"Position_Long_Byte\000"
 14623      74696F6E 
 14623      5F4C6F6E 
 14623      675F4279 
 14623      746500
 14624              	.LASF24:
 14625 0857 72656164 		.ascii	"readAmbient_1\000"
 14625      416D6269 
 14625      656E745F 
 14625      3100
 14626              	.LASF31:
 14627 0865 72656164 		.ascii	"readAmbient_2\000"
 14627      416D6269 
 14627      656E745F 
 14627      3200
 14628              	.LASF36:
 14629 0873 72656164 		.ascii	"readAmbient_3\000"
 14629      416D6269 
 14629      656E745F 
 14629      3300
 14630              	.LASF91:
 14631 0881 73616C74 		.ascii	"salto2\000"
 14631      6F3200
 14632              	.LASF22:
 14633 0888 77726974 		.ascii	"writeVCNL_1\000"
 14633      6556434E 
 14633      4C5F3100 
 14634              	.LASF25:
 14635 0894 77726974 		.ascii	"writeVCNL_2\000"
 14635      6556434E 
 14635      4C5F3200 
 14636              	.LASF32:
 14637 08a0 77726974 		.ascii	"writeVCNL_3\000"
 14637      6556434E 
 14637      4C5F3300 
 14638              	.LASF84:
ARM GAS  C:\Users\HENRYA~1\AppData\Local\Temp\cceIRlNf.s 			page 285


 14639 08ac 436F6E74 		.ascii	"Conta\000"
 14639      6100
 14640              	.LASF46:
 14641 08b2 506F7369 		.ascii	"Position_H\000"
 14641      74696F6E 
 14641      5F4800
 14642              	.LASF92:
 14643 08bd 436F6E64 		.ascii	"Condicion\000"
 14643      6963696F 
 14643      6E00
 14644              	.LASF47:
 14645 08c7 506F7369 		.ascii	"Position_L\000"
 14645      74696F6E 
 14645      5F4C00
 14646              		.ident	"GCC: (GNU Tools for ARM Embedded Processors) 5.4.1 20160609 (release) [ARM/embedded-5-bran
