ARM GAS  C:\Users\HENRYA~1\AppData\Local\Temp\cceIRlNf.s 			page 1


   1              		.syntax unified
   2              		.cpu cortex-m0
   3              		.fpu softvfp
   4              		.eabi_attribute 20, 1
   5              		.eabi_attribute 21, 1
   6              		.eabi_attribute 23, 3
   7              		.eabi_attribute 24, 1
   8              		.eabi_attribute 25, 1
   9              		.eabi_attribute 26, 1
  10              		.eabi_attribute 30, 1
  11              		.eabi_attribute 34, 0
  12              		.eabi_attribute 18, 4
  13              		.thumb
  14              		.syntax unified
  15              		.file	"main.c"
  16              		.text
  17              	.Ltext0:
  18              		.cfi_sections	.debug_frame
  19              		.section	.text.writeVCNL_1,"ax",%progbits
  20              		.align	2
  21              		.global	writeVCNL_1
  22              		.code	16
  23              		.thumb_func
  24              		.type	writeVCNL_1, %function
  25              	writeVCNL_1:
  26              	.LFB36:
  27              		.file 1 "./VCNL4010_1.h"
   1:./VCNL4010_1.h **** #include <project.h>
   2:./VCNL4010_1.h **** #define VCNL4010_ADDRESS 0x13
   3:./VCNL4010_1.h **** 
   4:./VCNL4010_1.h **** int i=0;
   5:./VCNL4010_1.h **** //Send Data
   6:./VCNL4010_1.h **** void writeVCNL_1(int address, int data){
  28              		.loc 1 6 0
  29              		.cfi_startproc
  30              		@ args = 0, pretend = 0, frame = 8
  31              		@ frame_needed = 0, uses_anonymous_args = 0
  32              	.LVL0:
  33 0000 10B5     		push	{r4, lr}
  34              		.cfi_def_cfa_offset 8
  35              		.cfi_offset 4, -8
  36              		.cfi_offset 14, -4
  37 0002 82B0     		sub	sp, sp, #8
  38              		.cfi_def_cfa_offset 16
   7:./VCNL4010_1.h ****     uint8 Write_buf[2]={0};
  39              		.loc 1 7 0
  40 0004 01AC     		add	r4, sp, #4
   8:./VCNL4010_1.h ****     Write_buf[0]=address;
  41              		.loc 1 8 0
  42 0006 2070     		strb	r0, [r4]
   9:./VCNL4010_1.h ****     Write_buf[1]=data;
  43              		.loc 1 9 0
  44 0008 6170     		strb	r1, [r4, #1]
  10:./VCNL4010_1.h ****     SENSOR_1_I2CMasterWriteBuf(VCNL4010_ADDRESS,(uint8 *)Write_buf,2,SENSOR_1_I2C_MODE_COMPLETE_XFE
  45              		.loc 1 10 0
  46 000a 0023     		movs	r3, #0
  47 000c 0222     		movs	r2, #2
ARM GAS  C:\Users\HENRYA~1\AppData\Local\Temp\cceIRlNf.s 			page 2


  48 000e 2100     		movs	r1, r4
  49              	.LVL1:
  50 0010 1320     		movs	r0, #19
  51              	.LVL2:
  52 0012 FFF7FEFF 		bl	SENSOR_1_I2CMasterWriteBuf
  53              	.LVL3:
  54              	.L2:
  11:./VCNL4010_1.h ****     while((SENSOR_1_I2CMasterStatus()&SENSOR_1_I2C_MSTAT_WR_CMPLT)==0){}
  55              		.loc 1 11 0 discriminator 1
  56 0016 FFF7FEFF 		bl	SENSOR_1_I2CMasterStatus
  57              	.LVL4:
  58 001a 8307     		lsls	r3, r0, #30
  59 001c FBD5     		bpl	.L2
  12:./VCNL4010_1.h ****     return;
  13:./VCNL4010_1.h **** }
  60              		.loc 1 13 0
  61 001e 02B0     		add	sp, sp, #8
  62              		@ sp needed
  63 0020 10BD     		pop	{r4, pc}
  64              		.cfi_endproc
  65              	.LFE36:
  66              		.size	writeVCNL_1, .-writeVCNL_1
  67 0022 C046     		.section	.text.readVCNL_1,"ax",%progbits
  68              		.align	2
  69              		.global	readVCNL_1
  70              		.code	16
  71              		.thumb_func
  72              		.type	readVCNL_1, %function
  73              	readVCNL_1:
  74              	.LFB37:
  14:./VCNL4010_1.h **** //Read Data
  15:./VCNL4010_1.h **** int readVCNL_1(int address){
  75              		.loc 1 15 0
  76              		.cfi_startproc
  77              		@ args = 0, pretend = 0, frame = 8
  78              		@ frame_needed = 0, uses_anonymous_args = 0
  79              	.LVL5:
  80 0000 00B5     		push	{lr}
  81              		.cfi_def_cfa_offset 4
  82              		.cfi_offset 14, -4
  83 0002 83B0     		sub	sp, sp, #12
  84              		.cfi_def_cfa_offset 16
  16:./VCNL4010_1.h ****     uint8 Write_buf[1]={0};
  85              		.loc 1 16 0
  86 0004 01A9     		add	r1, sp, #4
  17:./VCNL4010_1.h ****     Write_buf[0]=address;
  87              		.loc 1 17 0
  88 0006 0870     		strb	r0, [r1]
  18:./VCNL4010_1.h ****     uint8 read_Buf[1]={0};
  89              		.loc 1 18 0
  90 0008 0023     		movs	r3, #0
  91 000a 6A46     		mov	r2, sp
  92 000c 1370     		strb	r3, [r2]
  19:./VCNL4010_1.h ****     SENSOR_1_I2CMasterWriteBuf(VCNL4010_ADDRESS,(uint8 *)Write_buf,1,SENSOR_1_I2C_MODE_NO_STOP);
  93              		.loc 1 19 0
  94 000e 0233     		adds	r3, r3, #2
  95 0010 0122     		movs	r2, #1
ARM GAS  C:\Users\HENRYA~1\AppData\Local\Temp\cceIRlNf.s 			page 3


  96 0012 1320     		movs	r0, #19
  97              	.LVL6:
  98 0014 FFF7FEFF 		bl	SENSOR_1_I2CMasterWriteBuf
  99              	.LVL7:
 100              	.L4:
  20:./VCNL4010_1.h ****     while((SENSOR_1_I2CMasterStatus()&SENSOR_1_I2C_MSTAT_WR_CMPLT)==0){}
 101              		.loc 1 20 0 discriminator 1
 102 0018 FFF7FEFF 		bl	SENSOR_1_I2CMasterStatus
 103              	.LVL8:
 104 001c 8307     		lsls	r3, r0, #30
 105 001e FBD5     		bpl	.L4
  21:./VCNL4010_1.h ****     SENSOR_1_I2CMasterReadBuf(VCNL4010_ADDRESS,(uint8 *)read_Buf,1,SENSOR_1_I2C_MODE_REPEAT_START);
 106              		.loc 1 21 0
 107 0020 0123     		movs	r3, #1
 108 0022 0122     		movs	r2, #1
 109 0024 6946     		mov	r1, sp
 110 0026 1320     		movs	r0, #19
 111 0028 FFF7FEFF 		bl	SENSOR_1_I2CMasterReadBuf
 112              	.LVL9:
 113              	.L5:
  22:./VCNL4010_1.h ****     while((SENSOR_1_I2CMasterStatus()&SENSOR_1_I2C_MSTAT_RD_CMPLT)==0){}
 114              		.loc 1 22 0 discriminator 1
 115 002c FFF7FEFF 		bl	SENSOR_1_I2CMasterStatus
 116              	.LVL10:
 117 0030 C307     		lsls	r3, r0, #31
 118 0032 FBD5     		bpl	.L5
  23:./VCNL4010_1.h ****     return read_Buf[0];
 119              		.loc 1 23 0
 120 0034 6B46     		mov	r3, sp
 121 0036 1878     		ldrb	r0, [r3]
  24:./VCNL4010_1.h **** }
 122              		.loc 1 24 0
 123 0038 03B0     		add	sp, sp, #12
 124              		@ sp needed
 125 003a 00BD     		pop	{pc}
 126              		.cfi_endproc
 127              	.LFE37:
 128              		.size	readVCNL_1, .-readVCNL_1
 129              		.section	.text.initVCNL_1,"ax",%progbits
 130              		.align	2
 131              		.global	initVCNL_1
 132              		.code	16
 133              		.thumb_func
 134              		.type	initVCNL_1, %function
 135              	initVCNL_1:
 136              	.LFB38:
  25:./VCNL4010_1.h **** //Init Sensor
  26:./VCNL4010_1.h **** void initVCNL_1(){
 137              		.loc 1 26 0
 138              		.cfi_startproc
 139              		@ args = 0, pretend = 0, frame = 0
 140              		@ frame_needed = 0, uses_anonymous_args = 0
 141 0000 10B5     		push	{r4, lr}
 142              		.cfi_def_cfa_offset 8
 143              		.cfi_offset 4, -8
 144              		.cfi_offset 14, -4
  27:./VCNL4010_1.h ****   int temp = readVCNL_1(0x81);
ARM GAS  C:\Users\HENRYA~1\AppData\Local\Temp\cceIRlNf.s 			page 4


 145              		.loc 1 27 0
 146 0002 8120     		movs	r0, #129
 147 0004 FFF7FEFF 		bl	readVCNL_1
 148              	.LVL11:
  28:./VCNL4010_1.h ****   if (temp != 0x21){  
 149              		.loc 1 28 0
 150 0008 2128     		cmp	r0, #33
 151 000a 0ED0     		beq	.L7
  29:./VCNL4010_1.h ****     //Led Sequence Fail
  30:./VCNL4010_1.h ****     LED_1_Write(1);
 152              		.loc 1 30 0
 153 000c 0120     		movs	r0, #1
 154              	.LVL12:
 155 000e FFF7FEFF 		bl	LED_1_Write
 156              	.LVL13:
  31:./VCNL4010_1.h ****     CyDelay(500);
 157              		.loc 1 31 0
 158 0012 FA24     		movs	r4, #250
 159 0014 6400     		lsls	r4, r4, #1
 160 0016 2000     		movs	r0, r4
 161 0018 FFF7FEFF 		bl	CyDelay
 162              	.LVL14:
  32:./VCNL4010_1.h ****     LED_1_Write(0);
 163              		.loc 1 32 0
 164 001c 0020     		movs	r0, #0
 165 001e FFF7FEFF 		bl	LED_1_Write
 166              	.LVL15:
  33:./VCNL4010_1.h ****     CyDelay(500);    
 167              		.loc 1 33 0
 168 0022 2000     		movs	r0, r4
 169 0024 FFF7FEFF 		bl	CyDelay
 170              	.LVL16:
 171 0028 1DE0     		b	.L8
 172              	.LVL17:
 173              	.L7:
  34:./VCNL4010_1.h ****   }
  35:./VCNL4010_1.h ****    else{
  36:./VCNL4010_1.h ****     //Led Sequence Sucess
  37:./VCNL4010_1.h ****     LED_1_Write(0);
 174              		.loc 1 37 0
 175 002a 0020     		movs	r0, #0
 176              	.LVL18:
 177 002c FFF7FEFF 		bl	LED_1_Write
 178              	.LVL19:
  38:./VCNL4010_1.h ****     for(i=1;i<5;i++){
 179              		.loc 1 38 0
 180 0030 0122     		movs	r2, #1
 181 0032 154B     		ldr	r3, .L11
 182 0034 1A60     		str	r2, [r3]
 183 0036 0FE0     		b	.L9
 184              	.L10:
  39:./VCNL4010_1.h ****         LED_1_Write(1);
 185              		.loc 1 39 0 discriminator 3
 186 0038 0120     		movs	r0, #1
 187 003a FFF7FEFF 		bl	LED_1_Write
 188              	.LVL20:
  40:./VCNL4010_1.h ****         CyDelay(200);
ARM GAS  C:\Users\HENRYA~1\AppData\Local\Temp\cceIRlNf.s 			page 5


 189              		.loc 1 40 0 discriminator 3
 190 003e C820     		movs	r0, #200
 191 0040 FFF7FEFF 		bl	CyDelay
 192              	.LVL21:
  41:./VCNL4010_1.h ****         LED_1_Write(0);
 193              		.loc 1 41 0 discriminator 3
 194 0044 0020     		movs	r0, #0
 195 0046 FFF7FEFF 		bl	LED_1_Write
 196              	.LVL22:
  42:./VCNL4010_1.h ****         CyDelay(200); 
 197              		.loc 1 42 0 discriminator 3
 198 004a C820     		movs	r0, #200
 199 004c FFF7FEFF 		bl	CyDelay
 200              	.LVL23:
  38:./VCNL4010_1.h ****         LED_1_Write(1);
 201              		.loc 1 38 0 discriminator 3
 202 0050 0D4A     		ldr	r2, .L11
 203 0052 1368     		ldr	r3, [r2]
 204 0054 0133     		adds	r3, r3, #1
 205 0056 1360     		str	r3, [r2]
 206              	.L9:
  38:./VCNL4010_1.h ****         LED_1_Write(1);
 207              		.loc 1 38 0 is_stmt 0 discriminator 1
 208 0058 0B4B     		ldr	r3, .L11
 209 005a 1B68     		ldr	r3, [r3]
 210 005c 042B     		cmp	r3, #4
 211 005e EBDD     		ble	.L10
  43:./VCNL4010_1.h ****         }
  44:./VCNL4010_1.h ****     LED_1_Write(0);
 212              		.loc 1 44 0 is_stmt 1
 213 0060 0020     		movs	r0, #0
 214 0062 FFF7FEFF 		bl	LED_1_Write
 215              	.LVL24:
 216              	.L8:
  45:./VCNL4010_1.h ****   } 
  46:./VCNL4010_1.h ****   //VCNL Init Params
  47:./VCNL4010_1.h ****   writeVCNL_1(0x84, 0x0F); // Configures ambient light measures - Single conversion mode, 128 avera
 217              		.loc 1 47 0
 218 0066 0F21     		movs	r1, #15
 219 0068 8420     		movs	r0, #132
 220 006a FFF7FEFF 		bl	writeVCNL_1
 221              	.LVL25:
  48:./VCNL4010_1.h ****   writeVCNL_1(0x83, 0x32);   // sets IR current in steps of 10mA 0-200mA --> 200mA
 222              		.loc 1 48 0
 223 006e 3221     		movs	r1, #50
 224 0070 8320     		movs	r0, #131
 225 0072 FFF7FEFF 		bl	writeVCNL_1
 226              	.LVL26:
  49:./VCNL4010_1.h ****   writeVCNL_1(0x89, 0);    // Proximity IR test signal freq, 0-3 - 781.25 kHz
 227              		.loc 1 49 0
 228 0076 0021     		movs	r1, #0
 229 0078 8920     		movs	r0, #137
 230 007a FFF7FEFF 		bl	writeVCNL_1
 231              	.LVL27:
  50:./VCNL4010_1.h ****   writeVCNL_1(0x8A, 0x81); // proximity modulator timing - 129, recommended by Vishay 
 232              		.loc 1 50 0
 233 007e 8121     		movs	r1, #129
ARM GAS  C:\Users\HENRYA~1\AppData\Local\Temp\cceIRlNf.s 			page 6


 234 0080 8A20     		movs	r0, #138
 235 0082 FFF7FEFF 		bl	writeVCNL_1
 236              	.LVL28:
  51:./VCNL4010_1.h **** }
 237              		.loc 1 51 0
 238              		@ sp needed
 239 0086 10BD     		pop	{r4, pc}
 240              	.L12:
 241              		.align	2
 242              	.L11:
 243 0088 00000000 		.word	.LANCHOR0
 244              		.cfi_endproc
 245              	.LFE38:
 246              		.size	initVCNL_1, .-initVCNL_1
 247              		.section	.text.readProximity_1,"ax",%progbits
 248              		.align	2
 249              		.global	readProximity_1
 250              		.code	16
 251              		.thumb_func
 252              		.type	readProximity_1, %function
 253              	readProximity_1:
 254              	.LFB39:
  52:./VCNL4010_1.h **** //Read Distance Signal
  53:./VCNL4010_1.h **** unsigned int readProximity_1(){
 255              		.loc 1 53 0
 256              		.cfi_startproc
 257              		@ args = 0, pretend = 0, frame = 0
 258              		@ frame_needed = 0, uses_anonymous_args = 0
 259 0000 10B5     		push	{r4, lr}
 260              		.cfi_def_cfa_offset 8
 261              		.cfi_offset 4, -8
 262              		.cfi_offset 14, -4
  54:./VCNL4010_1.h ****   int temp = readVCNL_1(0x80);
 263              		.loc 1 54 0
 264 0002 8020     		movs	r0, #128
 265 0004 FFF7FEFF 		bl	readVCNL_1
 266              	.LVL29:
  55:./VCNL4010_1.h ****   writeVCNL_1(0x80, temp | 0x08);             // command the sensor to perform a proximity measure
 267              		.loc 1 55 0
 268 0008 0823     		movs	r3, #8
 269 000a 0100     		movs	r1, r0
 270 000c 1943     		orrs	r1, r3
 271 000e 8020     		movs	r0, #128
 272              	.LVL30:
 273 0010 FFF7FEFF 		bl	writeVCNL_1
 274              	.LVL31:
 275              	.L14:
  56:./VCNL4010_1.h ****   while(!(readVCNL_1(0x80)&0x20));            // Wait for the proximity data ready bit to be set
 276              		.loc 1 56 0 discriminator 1
 277 0014 8020     		movs	r0, #128
 278 0016 FFF7FEFF 		bl	readVCNL_1
 279              	.LVL32:
 280 001a 8306     		lsls	r3, r0, #26
 281 001c FAD5     		bpl	.L14
  57:./VCNL4010_1.h ****   unsigned int data = readVCNL_1(0x87) << 8;
 282              		.loc 1 57 0
 283 001e 8720     		movs	r0, #135
ARM GAS  C:\Users\HENRYA~1\AppData\Local\Temp\cceIRlNf.s 			page 7


 284 0020 FFF7FEFF 		bl	readVCNL_1
 285              	.LVL33:
 286 0024 0402     		lsls	r4, r0, #8
 287              	.LVL34:
  58:./VCNL4010_1.h ****   data |= readVCNL_1(0x88);
 288              		.loc 1 58 0
 289 0026 8820     		movs	r0, #136
 290 0028 FFF7FEFF 		bl	readVCNL_1
 291              	.LVL35:
 292 002c 2043     		orrs	r0, r4
 293              	.LVL36:
  59:./VCNL4010_1.h ****   return data;
  60:./VCNL4010_1.h **** }
 294              		.loc 1 60 0
 295              		@ sp needed
 296 002e 10BD     		pop	{r4, pc}
 297              		.cfi_endproc
 298              	.LFE39:
 299              		.size	readProximity_1, .-readProximity_1
 300              		.section	.text.readAmbient_1,"ax",%progbits
 301              		.align	2
 302              		.global	readAmbient_1
 303              		.code	16
 304              		.thumb_func
 305              		.type	readAmbient_1, %function
 306              	readAmbient_1:
 307              	.LFB40:
  61:./VCNL4010_1.h **** //Read Ambient Signal
  62:./VCNL4010_1.h **** unsigned int readAmbient_1(){
 308              		.loc 1 62 0
 309              		.cfi_startproc
 310              		@ args = 0, pretend = 0, frame = 0
 311              		@ frame_needed = 0, uses_anonymous_args = 0
 312 0000 10B5     		push	{r4, lr}
 313              		.cfi_def_cfa_offset 8
 314              		.cfi_offset 4, -8
 315              		.cfi_offset 14, -4
  63:./VCNL4010_1.h ****   int temp = readVCNL_1(0x80);
 316              		.loc 1 63 0
 317 0002 8020     		movs	r0, #128
 318 0004 FFF7FEFF 		bl	readVCNL_1
 319              	.LVL37:
  64:./VCNL4010_1.h ****   writeVCNL_1(0x80, temp | 0x10);             // command the sensor to perform ambient measure
 320              		.loc 1 64 0
 321 0008 1023     		movs	r3, #16
 322 000a 0100     		movs	r1, r0
 323 000c 1943     		orrs	r1, r3
 324 000e 8020     		movs	r0, #128
 325              	.LVL38:
 326 0010 FFF7FEFF 		bl	writeVCNL_1
 327              	.LVL39:
 328              	.L16:
  65:./VCNL4010_1.h ****   while(!(readVCNL_1(0x80)&0x40));            // wait for the proximity data ready bit to be set
 329              		.loc 1 65 0 discriminator 1
 330 0014 8020     		movs	r0, #128
 331 0016 FFF7FEFF 		bl	readVCNL_1
 332              	.LVL40:
ARM GAS  C:\Users\HENRYA~1\AppData\Local\Temp\cceIRlNf.s 			page 8


 333 001a 4306     		lsls	r3, r0, #25
 334 001c FAD5     		bpl	.L16
  66:./VCNL4010_1.h ****   unsigned int data = readVCNL_1(0x85) << 8;  
 335              		.loc 1 66 0
 336 001e 8520     		movs	r0, #133
 337 0020 FFF7FEFF 		bl	readVCNL_1
 338              	.LVL41:
 339 0024 0402     		lsls	r4, r0, #8
 340              	.LVL42:
  67:./VCNL4010_1.h ****   data |= readVCNL_1(0x86);
 341              		.loc 1 67 0
 342 0026 8620     		movs	r0, #134
 343 0028 FFF7FEFF 		bl	readVCNL_1
 344              	.LVL43:
 345 002c 2043     		orrs	r0, r4
 346              	.LVL44:
  68:./VCNL4010_1.h ****   return data;
  69:./VCNL4010_1.h **** }
 347              		.loc 1 69 0
 348              		@ sp needed
 349 002e 10BD     		pop	{r4, pc}
 350              		.cfi_endproc
 351              	.LFE40:
 352              		.size	readAmbient_1, .-readAmbient_1
 353              		.section	.text.writeVCNL_2,"ax",%progbits
 354              		.align	2
 355              		.global	writeVCNL_2
 356              		.code	16
 357              		.thumb_func
 358              		.type	writeVCNL_2, %function
 359              	writeVCNL_2:
 360              	.LFB41:
 361              		.file 2 "./VCNL4010_2.h"
   1:./VCNL4010_2.h **** #include <project.h>
   2:./VCNL4010_2.h **** #define VCNL4010_ADDRESS 0x13
   3:./VCNL4010_2.h **** 
   4:./VCNL4010_2.h **** int ii=0;
   5:./VCNL4010_2.h **** //Send Data
   6:./VCNL4010_2.h **** void writeVCNL_2(int address, int data){
 362              		.loc 2 6 0
 363              		.cfi_startproc
 364              		@ args = 0, pretend = 0, frame = 8
 365              		@ frame_needed = 0, uses_anonymous_args = 0
 366              	.LVL45:
 367 0000 10B5     		push	{r4, lr}
 368              		.cfi_def_cfa_offset 8
 369              		.cfi_offset 4, -8
 370              		.cfi_offset 14, -4
 371 0002 82B0     		sub	sp, sp, #8
 372              		.cfi_def_cfa_offset 16
   7:./VCNL4010_2.h ****     uint8 Write_buf[2]={0};
 373              		.loc 2 7 0
 374 0004 01AC     		add	r4, sp, #4
   8:./VCNL4010_2.h ****     Write_buf[0]=address;
 375              		.loc 2 8 0
 376 0006 2070     		strb	r0, [r4]
   9:./VCNL4010_2.h ****     Write_buf[1]=data;
ARM GAS  C:\Users\HENRYA~1\AppData\Local\Temp\cceIRlNf.s 			page 9


 377              		.loc 2 9 0
 378 0008 6170     		strb	r1, [r4, #1]
  10:./VCNL4010_2.h ****     SENSOR_2_I2CMasterWriteBuf(VCNL4010_ADDRESS,(uint8 *)Write_buf,2,SENSOR_2_I2C_MODE_COMPLETE_XFE
 379              		.loc 2 10 0
 380 000a 0023     		movs	r3, #0
 381 000c 0222     		movs	r2, #2
 382 000e 2100     		movs	r1, r4
 383              	.LVL46:
 384 0010 1320     		movs	r0, #19
 385              	.LVL47:
 386 0012 FFF7FEFF 		bl	SENSOR_2_I2CMasterWriteBuf
 387              	.LVL48:
 388              	.L18:
  11:./VCNL4010_2.h ****     while((SENSOR_2_I2CMasterStatus()&SENSOR_2_I2C_MSTAT_WR_CMPLT)==0){}
 389              		.loc 2 11 0 discriminator 1
 390 0016 FFF7FEFF 		bl	SENSOR_2_I2CMasterStatus
 391              	.LVL49:
 392 001a 8307     		lsls	r3, r0, #30
 393 001c FBD5     		bpl	.L18
  12:./VCNL4010_2.h ****     return;
  13:./VCNL4010_2.h **** }
 394              		.loc 2 13 0
 395 001e 02B0     		add	sp, sp, #8
 396              		@ sp needed
 397 0020 10BD     		pop	{r4, pc}
 398              		.cfi_endproc
 399              	.LFE41:
 400              		.size	writeVCNL_2, .-writeVCNL_2
 401 0022 C046     		.section	.text.readVCNL_2,"ax",%progbits
 402              		.align	2
 403              		.global	readVCNL_2
 404              		.code	16
 405              		.thumb_func
 406              		.type	readVCNL_2, %function
 407              	readVCNL_2:
 408              	.LFB42:
  14:./VCNL4010_2.h **** //Read Data
  15:./VCNL4010_2.h **** int readVCNL_2(int address){
 409              		.loc 2 15 0
 410              		.cfi_startproc
 411              		@ args = 0, pretend = 0, frame = 8
 412              		@ frame_needed = 0, uses_anonymous_args = 0
 413              	.LVL50:
 414 0000 00B5     		push	{lr}
 415              		.cfi_def_cfa_offset 4
 416              		.cfi_offset 14, -4
 417 0002 83B0     		sub	sp, sp, #12
 418              		.cfi_def_cfa_offset 16
  16:./VCNL4010_2.h ****     uint8 Write_buf[1]={0};
 419              		.loc 2 16 0
 420 0004 01A9     		add	r1, sp, #4
  17:./VCNL4010_2.h ****     Write_buf[0]=address;
 421              		.loc 2 17 0
 422 0006 0870     		strb	r0, [r1]
  18:./VCNL4010_2.h ****     uint8 read_Buf[1]={0};
 423              		.loc 2 18 0
 424 0008 0023     		movs	r3, #0
ARM GAS  C:\Users\HENRYA~1\AppData\Local\Temp\cceIRlNf.s 			page 10


 425 000a 6A46     		mov	r2, sp
 426 000c 1370     		strb	r3, [r2]
  19:./VCNL4010_2.h ****     SENSOR_2_I2CMasterWriteBuf(VCNL4010_ADDRESS,(uint8 *)Write_buf,1,SENSOR_2_I2C_MODE_NO_STOP);
 427              		.loc 2 19 0
 428 000e 0233     		adds	r3, r3, #2
 429 0010 0122     		movs	r2, #1
 430 0012 1320     		movs	r0, #19
 431              	.LVL51:
 432 0014 FFF7FEFF 		bl	SENSOR_2_I2CMasterWriteBuf
 433              	.LVL52:
 434              	.L20:
  20:./VCNL4010_2.h ****     while((SENSOR_2_I2CMasterStatus()&SENSOR_2_I2C_MSTAT_WR_CMPLT)==0){}
 435              		.loc 2 20 0 discriminator 1
 436 0018 FFF7FEFF 		bl	SENSOR_2_I2CMasterStatus
 437              	.LVL53:
 438 001c 8307     		lsls	r3, r0, #30
 439 001e FBD5     		bpl	.L20
  21:./VCNL4010_2.h ****     SENSOR_2_I2CMasterReadBuf(VCNL4010_ADDRESS,(uint8 *)read_Buf,1,SENSOR_2_I2C_MODE_REPEAT_START);
 440              		.loc 2 21 0
 441 0020 0123     		movs	r3, #1
 442 0022 0122     		movs	r2, #1
 443 0024 6946     		mov	r1, sp
 444 0026 1320     		movs	r0, #19
 445 0028 FFF7FEFF 		bl	SENSOR_2_I2CMasterReadBuf
 446              	.LVL54:
 447              	.L21:
  22:./VCNL4010_2.h ****     while((SENSOR_2_I2CMasterStatus()&SENSOR_2_I2C_MSTAT_RD_CMPLT)==0){}
 448              		.loc 2 22 0 discriminator 1
 449 002c FFF7FEFF 		bl	SENSOR_2_I2CMasterStatus
 450              	.LVL55:
 451 0030 C307     		lsls	r3, r0, #31
 452 0032 FBD5     		bpl	.L21
  23:./VCNL4010_2.h ****     return read_Buf[0];
 453              		.loc 2 23 0
 454 0034 6B46     		mov	r3, sp
 455 0036 1878     		ldrb	r0, [r3]
  24:./VCNL4010_2.h **** }
 456              		.loc 2 24 0
 457 0038 03B0     		add	sp, sp, #12
 458              		@ sp needed
 459 003a 00BD     		pop	{pc}
 460              		.cfi_endproc
 461              	.LFE42:
 462              		.size	readVCNL_2, .-readVCNL_2
 463              		.section	.text.initVCNL_2,"ax",%progbits
 464              		.align	2
 465              		.global	initVCNL_2
 466              		.code	16
 467              		.thumb_func
 468              		.type	initVCNL_2, %function
 469              	initVCNL_2:
 470              	.LFB43:
  25:./VCNL4010_2.h **** //Init Sensor
  26:./VCNL4010_2.h **** void initVCNL_2(){
 471              		.loc 2 26 0
 472              		.cfi_startproc
 473              		@ args = 0, pretend = 0, frame = 0
ARM GAS  C:\Users\HENRYA~1\AppData\Local\Temp\cceIRlNf.s 			page 11


 474              		@ frame_needed = 0, uses_anonymous_args = 0
 475 0000 10B5     		push	{r4, lr}
 476              		.cfi_def_cfa_offset 8
 477              		.cfi_offset 4, -8
 478              		.cfi_offset 14, -4
  27:./VCNL4010_2.h ****   int temp = readVCNL_2(0x81);
 479              		.loc 2 27 0
 480 0002 8120     		movs	r0, #129
 481 0004 FFF7FEFF 		bl	readVCNL_2
 482              	.LVL56:
  28:./VCNL4010_2.h ****   if (temp != 0x21){  
 483              		.loc 2 28 0
 484 0008 2128     		cmp	r0, #33
 485 000a 0ED0     		beq	.L23
  29:./VCNL4010_2.h ****     //Led Sequence Fail
  30:./VCNL4010_2.h ****     LED_2_Write(1);
 486              		.loc 2 30 0
 487 000c 0120     		movs	r0, #1
 488              	.LVL57:
 489 000e FFF7FEFF 		bl	LED_2_Write
 490              	.LVL58:
  31:./VCNL4010_2.h ****     CyDelay(500);
 491              		.loc 2 31 0
 492 0012 FA24     		movs	r4, #250
 493 0014 6400     		lsls	r4, r4, #1
 494 0016 2000     		movs	r0, r4
 495 0018 FFF7FEFF 		bl	CyDelay
 496              	.LVL59:
  32:./VCNL4010_2.h ****     LED_2_Write(0);
 497              		.loc 2 32 0
 498 001c 0020     		movs	r0, #0
 499 001e FFF7FEFF 		bl	LED_2_Write
 500              	.LVL60:
  33:./VCNL4010_2.h ****     CyDelay(500);    
 501              		.loc 2 33 0
 502 0022 2000     		movs	r0, r4
 503 0024 FFF7FEFF 		bl	CyDelay
 504              	.LVL61:
 505 0028 1DE0     		b	.L24
 506              	.LVL62:
 507              	.L23:
  34:./VCNL4010_2.h ****   }
  35:./VCNL4010_2.h ****    else{
  36:./VCNL4010_2.h ****     //Led Sequence Sucess
  37:./VCNL4010_2.h ****     LED_2_Write(0);
 508              		.loc 2 37 0
 509 002a 0020     		movs	r0, #0
 510              	.LVL63:
 511 002c FFF7FEFF 		bl	LED_2_Write
 512              	.LVL64:
  38:./VCNL4010_2.h ****     for(ii=1;ii<5;ii++){
 513              		.loc 2 38 0
 514 0030 0122     		movs	r2, #1
 515 0032 154B     		ldr	r3, .L27
 516 0034 5A60     		str	r2, [r3, #4]
 517 0036 0FE0     		b	.L25
 518              	.L26:
ARM GAS  C:\Users\HENRYA~1\AppData\Local\Temp\cceIRlNf.s 			page 12


  39:./VCNL4010_2.h ****         LED_2_Write(1);
 519              		.loc 2 39 0 discriminator 3
 520 0038 0120     		movs	r0, #1
 521 003a FFF7FEFF 		bl	LED_2_Write
 522              	.LVL65:
  40:./VCNL4010_2.h ****         CyDelay(200);
 523              		.loc 2 40 0 discriminator 3
 524 003e C820     		movs	r0, #200
 525 0040 FFF7FEFF 		bl	CyDelay
 526              	.LVL66:
  41:./VCNL4010_2.h ****         LED_2_Write(0);
 527              		.loc 2 41 0 discriminator 3
 528 0044 0020     		movs	r0, #0
 529 0046 FFF7FEFF 		bl	LED_2_Write
 530              	.LVL67:
  42:./VCNL4010_2.h ****         CyDelay(200); 
 531              		.loc 2 42 0 discriminator 3
 532 004a C820     		movs	r0, #200
 533 004c FFF7FEFF 		bl	CyDelay
 534              	.LVL68:
  38:./VCNL4010_2.h ****         LED_2_Write(1);
 535              		.loc 2 38 0 discriminator 3
 536 0050 0D4A     		ldr	r2, .L27
 537 0052 5368     		ldr	r3, [r2, #4]
 538 0054 0133     		adds	r3, r3, #1
 539 0056 5360     		str	r3, [r2, #4]
 540              	.L25:
  38:./VCNL4010_2.h ****         LED_2_Write(1);
 541              		.loc 2 38 0 is_stmt 0 discriminator 1
 542 0058 0B4B     		ldr	r3, .L27
 543 005a 5B68     		ldr	r3, [r3, #4]
 544 005c 042B     		cmp	r3, #4
 545 005e EBDD     		ble	.L26
  43:./VCNL4010_2.h ****         }
  44:./VCNL4010_2.h ****     LED_2_Write(0);
 546              		.loc 2 44 0 is_stmt 1
 547 0060 0020     		movs	r0, #0
 548 0062 FFF7FEFF 		bl	LED_2_Write
 549              	.LVL69:
 550              	.L24:
  45:./VCNL4010_2.h ****   } 
  46:./VCNL4010_2.h ****   //VCNL Init Params
  47:./VCNL4010_2.h ****   writeVCNL_2(0x84, 0x0F); // Configures ambient light measures - Single conversion mode, 128 avera
 551              		.loc 2 47 0
 552 0066 0F21     		movs	r1, #15
 553 0068 8420     		movs	r0, #132
 554 006a FFF7FEFF 		bl	writeVCNL_2
 555              	.LVL70:
  48:./VCNL4010_2.h ****   writeVCNL_2(0x83, 0x32);   // sets IR current in steps of 10mA 0-200mA --> 200mA
 556              		.loc 2 48 0
 557 006e 3221     		movs	r1, #50
 558 0070 8320     		movs	r0, #131
 559 0072 FFF7FEFF 		bl	writeVCNL_2
 560              	.LVL71:
  49:./VCNL4010_2.h ****   writeVCNL_2(0x89, 0);    // Proximity IR test signal freq, 0-3 - 781.25 kHz
 561              		.loc 2 49 0
 562 0076 0021     		movs	r1, #0
ARM GAS  C:\Users\HENRYA~1\AppData\Local\Temp\cceIRlNf.s 			page 13


 563 0078 8920     		movs	r0, #137
 564 007a FFF7FEFF 		bl	writeVCNL_2
 565              	.LVL72:
  50:./VCNL4010_2.h ****   writeVCNL_2(0x8A, 0x81); // proximity modulator timing - 129, recommended by Vishay 
 566              		.loc 2 50 0
 567 007e 8121     		movs	r1, #129
 568 0080 8A20     		movs	r0, #138
 569 0082 FFF7FEFF 		bl	writeVCNL_2
 570              	.LVL73:
  51:./VCNL4010_2.h **** }
 571              		.loc 2 51 0
 572              		@ sp needed
 573 0086 10BD     		pop	{r4, pc}
 574              	.L28:
 575              		.align	2
 576              	.L27:
 577 0088 00000000 		.word	.LANCHOR0
 578              		.cfi_endproc
 579              	.LFE43:
 580              		.size	initVCNL_2, .-initVCNL_2
 581              		.section	.text.readProximity_2,"ax",%progbits
 582              		.align	2
 583              		.global	readProximity_2
 584              		.code	16
 585              		.thumb_func
 586              		.type	readProximity_2, %function
 587              	readProximity_2:
 588              	.LFB44:
  52:./VCNL4010_2.h **** //Read Distance Signal
  53:./VCNL4010_2.h **** unsigned int readProximity_2(){
 589              		.loc 2 53 0
 590              		.cfi_startproc
 591              		@ args = 0, pretend = 0, frame = 0
 592              		@ frame_needed = 0, uses_anonymous_args = 0
 593 0000 10B5     		push	{r4, lr}
 594              		.cfi_def_cfa_offset 8
 595              		.cfi_offset 4, -8
 596              		.cfi_offset 14, -4
  54:./VCNL4010_2.h ****   int temp = readVCNL_2(0x80);
 597              		.loc 2 54 0
 598 0002 8020     		movs	r0, #128
 599 0004 FFF7FEFF 		bl	readVCNL_2
 600              	.LVL74:
  55:./VCNL4010_2.h ****   writeVCNL_2(0x80, temp | 0x08);             // command the sensor to perform a proximity measure
 601              		.loc 2 55 0
 602 0008 0823     		movs	r3, #8
 603 000a 0100     		movs	r1, r0
 604 000c 1943     		orrs	r1, r3
 605 000e 8020     		movs	r0, #128
 606              	.LVL75:
 607 0010 FFF7FEFF 		bl	writeVCNL_2
 608              	.LVL76:
 609              	.L30:
  56:./VCNL4010_2.h ****   while(!(readVCNL_2(0x80)&0x20));            // Wait for the proximity data ready bit to be set
 610              		.loc 2 56 0 discriminator 1
 611 0014 8020     		movs	r0, #128
 612 0016 FFF7FEFF 		bl	readVCNL_2
ARM GAS  C:\Users\HENRYA~1\AppData\Local\Temp\cceIRlNf.s 			page 14


 613              	.LVL77:
 614 001a 8306     		lsls	r3, r0, #26
 615 001c FAD5     		bpl	.L30
  57:./VCNL4010_2.h ****   unsigned int data = readVCNL_2(0x87) << 8;
 616              		.loc 2 57 0
 617 001e 8720     		movs	r0, #135
 618 0020 FFF7FEFF 		bl	readVCNL_2
 619              	.LVL78:
 620 0024 0402     		lsls	r4, r0, #8
 621              	.LVL79:
  58:./VCNL4010_2.h ****   data |= readVCNL_2(0x88);
 622              		.loc 2 58 0
 623 0026 8820     		movs	r0, #136
 624 0028 FFF7FEFF 		bl	readVCNL_2
 625              	.LVL80:
 626 002c 2043     		orrs	r0, r4
 627              	.LVL81:
  59:./VCNL4010_2.h ****   return data;
  60:./VCNL4010_2.h **** }
 628              		.loc 2 60 0
 629              		@ sp needed
 630 002e 10BD     		pop	{r4, pc}
 631              		.cfi_endproc
 632              	.LFE44:
 633              		.size	readProximity_2, .-readProximity_2
 634              		.section	.text.readAmbient_2,"ax",%progbits
 635              		.align	2
 636              		.global	readAmbient_2
 637              		.code	16
 638              		.thumb_func
 639              		.type	readAmbient_2, %function
 640              	readAmbient_2:
 641              	.LFB45:
  61:./VCNL4010_2.h **** //Read Ambient Signal
  62:./VCNL4010_2.h ****  int readAmbient_2(){
 642              		.loc 2 62 0
 643              		.cfi_startproc
 644              		@ args = 0, pretend = 0, frame = 0
 645              		@ frame_needed = 0, uses_anonymous_args = 0
 646 0000 10B5     		push	{r4, lr}
 647              		.cfi_def_cfa_offset 8
 648              		.cfi_offset 4, -8
 649              		.cfi_offset 14, -4
  63:./VCNL4010_2.h ****   int temp = readVCNL_2(0x80);
 650              		.loc 2 63 0
 651 0002 8020     		movs	r0, #128
 652 0004 FFF7FEFF 		bl	readVCNL_2
 653              	.LVL82:
  64:./VCNL4010_2.h ****   writeVCNL_2(0x80, temp | 0x10);             // command the sensor to perform ambient measure
 654              		.loc 2 64 0
 655 0008 1023     		movs	r3, #16
 656 000a 0100     		movs	r1, r0
 657 000c 1943     		orrs	r1, r3
 658 000e 8020     		movs	r0, #128
 659              	.LVL83:
 660 0010 FFF7FEFF 		bl	writeVCNL_2
 661              	.LVL84:
ARM GAS  C:\Users\HENRYA~1\AppData\Local\Temp\cceIRlNf.s 			page 15


 662              	.L32:
  65:./VCNL4010_2.h ****   while(!(readVCNL_2(0x80)&0x40));            // wait for the proximity data ready bit to be set
 663              		.loc 2 65 0 discriminator 1
 664 0014 8020     		movs	r0, #128
 665 0016 FFF7FEFF 		bl	readVCNL_2
 666              	.LVL85:
 667 001a 4306     		lsls	r3, r0, #25
 668 001c FAD5     		bpl	.L32
  66:./VCNL4010_2.h ****   unsigned int data = readVCNL_2(0x85) << 8;  
 669              		.loc 2 66 0
 670 001e 8520     		movs	r0, #133
 671 0020 FFF7FEFF 		bl	readVCNL_2
 672              	.LVL86:
 673 0024 0402     		lsls	r4, r0, #8
 674              	.LVL87:
  67:./VCNL4010_2.h ****   data |= readVCNL_2(0x86);
 675              		.loc 2 67 0
 676 0026 8620     		movs	r0, #134
 677 0028 FFF7FEFF 		bl	readVCNL_2
 678              	.LVL88:
 679 002c 2043     		orrs	r0, r4
 680              	.LVL89:
  68:./VCNL4010_2.h ****   return data;
  69:./VCNL4010_2.h **** }
 681              		.loc 2 69 0
 682              		@ sp needed
 683 002e 10BD     		pop	{r4, pc}
 684              		.cfi_endproc
 685              	.LFE45:
 686              		.size	readAmbient_2, .-readAmbient_2
 687              		.section	.text.writeVCNL_3,"ax",%progbits
 688              		.align	2
 689              		.global	writeVCNL_3
 690              		.code	16
 691              		.thumb_func
 692              		.type	writeVCNL_3, %function
 693              	writeVCNL_3:
 694              	.LFB46:
 695              		.file 3 "./VCNL4010_3.h"
   1:./VCNL4010_3.h **** #include <project.h>
   2:./VCNL4010_3.h **** #define VCNL4010_ADDRESS 0x13
   3:./VCNL4010_3.h **** 
   4:./VCNL4010_3.h **** int iii=0;
   5:./VCNL4010_3.h **** //Send Data
   6:./VCNL4010_3.h **** void writeVCNL_3(int address, int data){
 696              		.loc 3 6 0
 697              		.cfi_startproc
 698              		@ args = 0, pretend = 0, frame = 8
 699              		@ frame_needed = 0, uses_anonymous_args = 0
 700              	.LVL90:
 701 0000 10B5     		push	{r4, lr}
 702              		.cfi_def_cfa_offset 8
 703              		.cfi_offset 4, -8
 704              		.cfi_offset 14, -4
 705 0002 82B0     		sub	sp, sp, #8
 706              		.cfi_def_cfa_offset 16
   7:./VCNL4010_3.h ****     uint8 Write_buf[2]={0};
ARM GAS  C:\Users\HENRYA~1\AppData\Local\Temp\cceIRlNf.s 			page 16


 707              		.loc 3 7 0
 708 0004 01AC     		add	r4, sp, #4
   8:./VCNL4010_3.h ****     Write_buf[0]=address;
 709              		.loc 3 8 0
 710 0006 2070     		strb	r0, [r4]
   9:./VCNL4010_3.h ****     Write_buf[1]=data;
 711              		.loc 3 9 0
 712 0008 6170     		strb	r1, [r4, #1]
  10:./VCNL4010_3.h ****     SENSOR_3_I2CMasterWriteBuf(VCNL4010_ADDRESS,(uint8 *)Write_buf,2,SENSOR_3_I2C_MODE_COMPLETE_XFE
 713              		.loc 3 10 0
 714 000a 0023     		movs	r3, #0
 715 000c 0222     		movs	r2, #2
 716 000e 2100     		movs	r1, r4
 717              	.LVL91:
 718 0010 1320     		movs	r0, #19
 719              	.LVL92:
 720 0012 FFF7FEFF 		bl	SENSOR_3_I2CMasterWriteBuf
 721              	.LVL93:
 722              	.L34:
  11:./VCNL4010_3.h ****     while((SENSOR_3_I2CMasterStatus()&SENSOR_3_I2C_MSTAT_WR_CMPLT)==0){}
 723              		.loc 3 11 0 discriminator 1
 724 0016 FFF7FEFF 		bl	SENSOR_3_I2CMasterStatus
 725              	.LVL94:
 726 001a 8307     		lsls	r3, r0, #30
 727 001c FBD5     		bpl	.L34
  12:./VCNL4010_3.h ****     return;
  13:./VCNL4010_3.h **** }
 728              		.loc 3 13 0
 729 001e 02B0     		add	sp, sp, #8
 730              		@ sp needed
 731 0020 10BD     		pop	{r4, pc}
 732              		.cfi_endproc
 733              	.LFE46:
 734              		.size	writeVCNL_3, .-writeVCNL_3
 735 0022 C046     		.section	.text.readVCNL_3,"ax",%progbits
 736              		.align	2
 737              		.global	readVCNL_3
 738              		.code	16
 739              		.thumb_func
 740              		.type	readVCNL_3, %function
 741              	readVCNL_3:
 742              	.LFB47:
  14:./VCNL4010_3.h **** //Read Data
  15:./VCNL4010_3.h **** int readVCNL_3(int address){
 743              		.loc 3 15 0
 744              		.cfi_startproc
 745              		@ args = 0, pretend = 0, frame = 8
 746              		@ frame_needed = 0, uses_anonymous_args = 0
 747              	.LVL95:
 748 0000 00B5     		push	{lr}
 749              		.cfi_def_cfa_offset 4
 750              		.cfi_offset 14, -4
 751 0002 83B0     		sub	sp, sp, #12
 752              		.cfi_def_cfa_offset 16
  16:./VCNL4010_3.h ****     uint8 Write_buf[1]={0};
 753              		.loc 3 16 0
 754 0004 01A9     		add	r1, sp, #4
ARM GAS  C:\Users\HENRYA~1\AppData\Local\Temp\cceIRlNf.s 			page 17


  17:./VCNL4010_3.h ****     Write_buf[0]=address;
 755              		.loc 3 17 0
 756 0006 0870     		strb	r0, [r1]
  18:./VCNL4010_3.h ****     uint8 read_Buf[1]={0};
 757              		.loc 3 18 0
 758 0008 0023     		movs	r3, #0
 759 000a 6A46     		mov	r2, sp
 760 000c 1370     		strb	r3, [r2]
  19:./VCNL4010_3.h ****     SENSOR_3_I2CMasterWriteBuf(VCNL4010_ADDRESS,(uint8 *)Write_buf,1,SENSOR_3_I2C_MODE_NO_STOP);
 761              		.loc 3 19 0
 762 000e 0233     		adds	r3, r3, #2
 763 0010 0122     		movs	r2, #1
 764 0012 1320     		movs	r0, #19
 765              	.LVL96:
 766 0014 FFF7FEFF 		bl	SENSOR_3_I2CMasterWriteBuf
 767              	.LVL97:
 768              	.L36:
  20:./VCNL4010_3.h ****     while((SENSOR_3_I2CMasterStatus()&SENSOR_3_I2C_MSTAT_WR_CMPLT)==0){}
 769              		.loc 3 20 0 discriminator 1
 770 0018 FFF7FEFF 		bl	SENSOR_3_I2CMasterStatus
 771              	.LVL98:
 772 001c 8307     		lsls	r3, r0, #30
 773 001e FBD5     		bpl	.L36
  21:./VCNL4010_3.h ****     SENSOR_3_I2CMasterReadBuf(VCNL4010_ADDRESS,(uint8 *)read_Buf,1,SENSOR_3_I2C_MODE_REPEAT_START);
 774              		.loc 3 21 0
 775 0020 0123     		movs	r3, #1
 776 0022 0122     		movs	r2, #1
 777 0024 6946     		mov	r1, sp
 778 0026 1320     		movs	r0, #19
 779 0028 FFF7FEFF 		bl	SENSOR_3_I2CMasterReadBuf
 780              	.LVL99:
 781              	.L37:
  22:./VCNL4010_3.h ****     while((SENSOR_3_I2CMasterStatus()&SENSOR_3_I2C_MSTAT_RD_CMPLT)==0){}
 782              		.loc 3 22 0 discriminator 1
 783 002c FFF7FEFF 		bl	SENSOR_3_I2CMasterStatus
 784              	.LVL100:
 785 0030 C307     		lsls	r3, r0, #31
 786 0032 FBD5     		bpl	.L37
  23:./VCNL4010_3.h ****     return read_Buf[0];
 787              		.loc 3 23 0
 788 0034 6B46     		mov	r3, sp
 789 0036 1878     		ldrb	r0, [r3]
  24:./VCNL4010_3.h **** }
 790              		.loc 3 24 0
 791 0038 03B0     		add	sp, sp, #12
 792              		@ sp needed
 793 003a 00BD     		pop	{pc}
 794              		.cfi_endproc
 795              	.LFE47:
 796              		.size	readVCNL_3, .-readVCNL_3
 797              		.section	.text.initVCNL_3,"ax",%progbits
 798              		.align	2
 799              		.global	initVCNL_3
 800              		.code	16
 801              		.thumb_func
 802              		.type	initVCNL_3, %function
 803              	initVCNL_3:
ARM GAS  C:\Users\HENRYA~1\AppData\Local\Temp\cceIRlNf.s 			page 18


 804              	.LFB48:
  25:./VCNL4010_3.h **** //Init Sensor
  26:./VCNL4010_3.h **** void initVCNL_3(){
 805              		.loc 3 26 0
 806              		.cfi_startproc
 807              		@ args = 0, pretend = 0, frame = 0
 808              		@ frame_needed = 0, uses_anonymous_args = 0
 809 0000 10B5     		push	{r4, lr}
 810              		.cfi_def_cfa_offset 8
 811              		.cfi_offset 4, -8
 812              		.cfi_offset 14, -4
  27:./VCNL4010_3.h ****   int temp = readVCNL_3(0x81);
 813              		.loc 3 27 0
 814 0002 8120     		movs	r0, #129
 815 0004 FFF7FEFF 		bl	readVCNL_3
 816              	.LVL101:
  28:./VCNL4010_3.h ****   if (temp != 0x21){  
 817              		.loc 3 28 0
 818 0008 2128     		cmp	r0, #33
 819 000a 0ED0     		beq	.L39
  29:./VCNL4010_3.h ****     //Led Sequence Fail
  30:./VCNL4010_3.h ****     LED_3_Write(1);
 820              		.loc 3 30 0
 821 000c 0120     		movs	r0, #1
 822              	.LVL102:
 823 000e FFF7FEFF 		bl	LED_3_Write
 824              	.LVL103:
  31:./VCNL4010_3.h ****     CyDelay(500);
 825              		.loc 3 31 0
 826 0012 FA24     		movs	r4, #250
 827 0014 6400     		lsls	r4, r4, #1
 828 0016 2000     		movs	r0, r4
 829 0018 FFF7FEFF 		bl	CyDelay
 830              	.LVL104:
  32:./VCNL4010_3.h ****     LED_3_Write(0);
 831              		.loc 3 32 0
 832 001c 0020     		movs	r0, #0
 833 001e FFF7FEFF 		bl	LED_3_Write
 834              	.LVL105:
  33:./VCNL4010_3.h ****     CyDelay(500);    
 835              		.loc 3 33 0
 836 0022 2000     		movs	r0, r4
 837 0024 FFF7FEFF 		bl	CyDelay
 838              	.LVL106:
 839 0028 1DE0     		b	.L40
 840              	.LVL107:
 841              	.L39:
  34:./VCNL4010_3.h ****   }
  35:./VCNL4010_3.h ****    else{
  36:./VCNL4010_3.h ****     //Led Sequence Sucess
  37:./VCNL4010_3.h ****     LED_3_Write(0);
 842              		.loc 3 37 0
 843 002a 0020     		movs	r0, #0
 844              	.LVL108:
 845 002c FFF7FEFF 		bl	LED_3_Write
 846              	.LVL109:
  38:./VCNL4010_3.h ****     for(iii=1;iii<5;iii++){
ARM GAS  C:\Users\HENRYA~1\AppData\Local\Temp\cceIRlNf.s 			page 19


 847              		.loc 3 38 0
 848 0030 0122     		movs	r2, #1
 849 0032 154B     		ldr	r3, .L43
 850 0034 9A60     		str	r2, [r3, #8]
 851 0036 0FE0     		b	.L41
 852              	.L42:
  39:./VCNL4010_3.h ****         LED_3_Write(1);
 853              		.loc 3 39 0 discriminator 3
 854 0038 0120     		movs	r0, #1
 855 003a FFF7FEFF 		bl	LED_3_Write
 856              	.LVL110:
  40:./VCNL4010_3.h ****         CyDelay(200);
 857              		.loc 3 40 0 discriminator 3
 858 003e C820     		movs	r0, #200
 859 0040 FFF7FEFF 		bl	CyDelay
 860              	.LVL111:
  41:./VCNL4010_3.h ****         LED_3_Write(0);
 861              		.loc 3 41 0 discriminator 3
 862 0044 0020     		movs	r0, #0
 863 0046 FFF7FEFF 		bl	LED_3_Write
 864              	.LVL112:
  42:./VCNL4010_3.h ****         CyDelay(200); 
 865              		.loc 3 42 0 discriminator 3
 866 004a C820     		movs	r0, #200
 867 004c FFF7FEFF 		bl	CyDelay
 868              	.LVL113:
  38:./VCNL4010_3.h ****         LED_3_Write(1);
 869              		.loc 3 38 0 discriminator 3
 870 0050 0D4A     		ldr	r2, .L43
 871 0052 9368     		ldr	r3, [r2, #8]
 872 0054 0133     		adds	r3, r3, #1
 873 0056 9360     		str	r3, [r2, #8]
 874              	.L41:
  38:./VCNL4010_3.h ****         LED_3_Write(1);
 875              		.loc 3 38 0 is_stmt 0 discriminator 1
 876 0058 0B4B     		ldr	r3, .L43
 877 005a 9B68     		ldr	r3, [r3, #8]
 878 005c 042B     		cmp	r3, #4
 879 005e EBDD     		ble	.L42
  43:./VCNL4010_3.h ****         }
  44:./VCNL4010_3.h ****     LED_2_Write(0);
 880              		.loc 3 44 0 is_stmt 1
 881 0060 0020     		movs	r0, #0
 882 0062 FFF7FEFF 		bl	LED_2_Write
 883              	.LVL114:
 884              	.L40:
  45:./VCNL4010_3.h ****   } 
  46:./VCNL4010_3.h ****   //VCNL Init Params
  47:./VCNL4010_3.h ****   writeVCNL_3(0x84, 0x0F); // Configures ambient light measures - Single conversion mode, 128 avera
 885              		.loc 3 47 0
 886 0066 0F21     		movs	r1, #15
 887 0068 8420     		movs	r0, #132
 888 006a FFF7FEFF 		bl	writeVCNL_3
 889              	.LVL115:
  48:./VCNL4010_3.h ****   writeVCNL_3(0x83, 0x32);   // sets IR current in steps of 10mA 0-200mA --> 200mA
 890              		.loc 3 48 0
 891 006e 3221     		movs	r1, #50
ARM GAS  C:\Users\HENRYA~1\AppData\Local\Temp\cceIRlNf.s 			page 20


 892 0070 8320     		movs	r0, #131
 893 0072 FFF7FEFF 		bl	writeVCNL_3
 894              	.LVL116:
  49:./VCNL4010_3.h ****   writeVCNL_3(0x89, 0);    // Proximity IR test signal freq, 0-3 - 781.25 kHz
 895              		.loc 3 49 0
 896 0076 0021     		movs	r1, #0
 897 0078 8920     		movs	r0, #137
 898 007a FFF7FEFF 		bl	writeVCNL_3
 899              	.LVL117:
  50:./VCNL4010_3.h ****   writeVCNL_3(0x8A, 0x81); // proximity modulator timing - 129, recommended by Vishay 
 900              		.loc 3 50 0
 901 007e 8121     		movs	r1, #129
 902 0080 8A20     		movs	r0, #138
 903 0082 FFF7FEFF 		bl	writeVCNL_3
 904              	.LVL118:
  51:./VCNL4010_3.h **** }
 905              		.loc 3 51 0
 906              		@ sp needed
 907 0086 10BD     		pop	{r4, pc}
 908              	.L44:
 909              		.align	2
 910              	.L43:
 911 0088 00000000 		.word	.LANCHOR0
 912              		.cfi_endproc
 913              	.LFE48:
 914              		.size	initVCNL_3, .-initVCNL_3
 915              		.section	.text.readProximity_3,"ax",%progbits
 916              		.align	2
 917              		.global	readProximity_3
 918              		.code	16
 919              		.thumb_func
 920              		.type	readProximity_3, %function
 921              	readProximity_3:
 922              	.LFB49:
  52:./VCNL4010_3.h **** //Read Distance Signal
  53:./VCNL4010_3.h **** unsigned int readProximity_3(){
 923              		.loc 3 53 0
 924              		.cfi_startproc
 925              		@ args = 0, pretend = 0, frame = 0
 926              		@ frame_needed = 0, uses_anonymous_args = 0
 927 0000 10B5     		push	{r4, lr}
 928              		.cfi_def_cfa_offset 8
 929              		.cfi_offset 4, -8
 930              		.cfi_offset 14, -4
  54:./VCNL4010_3.h ****   int temp = readVCNL_3(0x80);
 931              		.loc 3 54 0
 932 0002 8020     		movs	r0, #128
 933 0004 FFF7FEFF 		bl	readVCNL_3
 934              	.LVL119:
  55:./VCNL4010_3.h ****   writeVCNL_3(0x80, temp | 0x08);             // command the sensor to perform a proximity measure
 935              		.loc 3 55 0
 936 0008 0823     		movs	r3, #8
 937 000a 0100     		movs	r1, r0
 938 000c 1943     		orrs	r1, r3
 939 000e 8020     		movs	r0, #128
 940              	.LVL120:
 941 0010 FFF7FEFF 		bl	writeVCNL_3
ARM GAS  C:\Users\HENRYA~1\AppData\Local\Temp\cceIRlNf.s 			page 21


 942              	.LVL121:
 943              	.L46:
  56:./VCNL4010_3.h ****   while(!(readVCNL_3(0x80)&0x20));            // Wait for the proximity data ready bit to be set
 944              		.loc 3 56 0 discriminator 1
 945 0014 8020     		movs	r0, #128
 946 0016 FFF7FEFF 		bl	readVCNL_3
 947              	.LVL122:
 948 001a 8306     		lsls	r3, r0, #26
 949 001c FAD5     		bpl	.L46
  57:./VCNL4010_3.h ****   unsigned int data = readVCNL_3(0x87) << 8;
 950              		.loc 3 57 0
 951 001e 8720     		movs	r0, #135
 952 0020 FFF7FEFF 		bl	readVCNL_3
 953              	.LVL123:
 954 0024 0402     		lsls	r4, r0, #8
 955              	.LVL124:
  58:./VCNL4010_3.h ****   data |= readVCNL_3(0x88);
 956              		.loc 3 58 0
 957 0026 8820     		movs	r0, #136
 958 0028 FFF7FEFF 		bl	readVCNL_3
 959              	.LVL125:
 960 002c 2043     		orrs	r0, r4
 961              	.LVL126:
  59:./VCNL4010_3.h ****   return data;
  60:./VCNL4010_3.h **** }
 962              		.loc 3 60 0
 963              		@ sp needed
 964 002e 10BD     		pop	{r4, pc}
 965              		.cfi_endproc
 966              	.LFE49:
 967              		.size	readProximity_3, .-readProximity_3
 968              		.section	.text.readAmbient_3,"ax",%progbits
 969              		.align	2
 970              		.global	readAmbient_3
 971              		.code	16
 972              		.thumb_func
 973              		.type	readAmbient_3, %function
 974              	readAmbient_3:
 975              	.LFB50:
  61:./VCNL4010_3.h **** //Read Ambient Signal
  62:./VCNL4010_3.h **** unsigned int readAmbient_3(){
 976              		.loc 3 62 0
 977              		.cfi_startproc
 978              		@ args = 0, pretend = 0, frame = 0
 979              		@ frame_needed = 0, uses_anonymous_args = 0
 980 0000 10B5     		push	{r4, lr}
 981              		.cfi_def_cfa_offset 8
 982              		.cfi_offset 4, -8
 983              		.cfi_offset 14, -4
  63:./VCNL4010_3.h ****   int temp = readVCNL_3(0x80);
 984              		.loc 3 63 0
 985 0002 8020     		movs	r0, #128
 986 0004 FFF7FEFF 		bl	readVCNL_3
 987              	.LVL127:
  64:./VCNL4010_3.h ****   writeVCNL_3(0x80, temp | 0x10);             // command the sensor to perform ambient measure
 988              		.loc 3 64 0
 989 0008 1023     		movs	r3, #16
ARM GAS  C:\Users\HENRYA~1\AppData\Local\Temp\cceIRlNf.s 			page 22


 990 000a 0100     		movs	r1, r0
 991 000c 1943     		orrs	r1, r3
 992 000e 8020     		movs	r0, #128
 993              	.LVL128:
 994 0010 FFF7FEFF 		bl	writeVCNL_3
 995              	.LVL129:
 996              	.L48:
  65:./VCNL4010_3.h ****   while(!(readVCNL_3(0x80)&0x40));            // wait for the proximity data ready bit to be set
 997              		.loc 3 65 0 discriminator 1
 998 0014 8020     		movs	r0, #128
 999 0016 FFF7FEFF 		bl	readVCNL_3
 1000              	.LVL130:
 1001 001a 4306     		lsls	r3, r0, #25
 1002 001c FAD5     		bpl	.L48
  66:./VCNL4010_3.h ****   unsigned int data = readVCNL_3(0x85) << 8;  
 1003              		.loc 3 66 0
 1004 001e 8520     		movs	r0, #133
 1005 0020 FFF7FEFF 		bl	readVCNL_3
 1006              	.LVL131:
 1007 0024 0402     		lsls	r4, r0, #8
 1008              	.LVL132:
  67:./VCNL4010_3.h ****   data |= readVCNL_3(0x86);
 1009              		.loc 3 67 0
 1010 0026 8620     		movs	r0, #134
 1011 0028 FFF7FEFF 		bl	readVCNL_3
 1012              	.LVL133:
 1013 002c 2043     		orrs	r0, r4
 1014              	.LVL134:
  68:./VCNL4010_3.h ****   return data;
  69:./VCNL4010_3.h **** }
 1015              		.loc 3 69 0
 1016              		@ sp needed
 1017 002e 10BD     		pop	{r4, pc}
 1018              		.cfi_endproc
 1019              	.LFE50:
 1020              		.size	readAmbient_3, .-readAmbient_3
 1021              		.section	.text.error_data,"ax",%progbits
 1022              		.align	2
 1023              		.global	error_data
 1024              		.code	16
 1025              		.thumb_func
 1026              		.type	error_data, %function
 1027              	error_data:
 1028              	.LFB51:
 1029              		.file 4 "./AX12.h"
   1:./AX12.h      **** #include <DynamixelSerial1.h>
   2:./AX12.h      **** #include <project.h>
   3:./AX12.h      **** 
   4:./AX12.h      **** //////actualizado 2.0     <---------------------------------------------
   5:./AX12.h      **** unsigned char Checksum;
   6:./AX12.h      **** unsigned char Incoming_Byte,Temperature_Byte,Error_Byte,Incoming_Byte2,Position_Long_Byte, Position
   7:./AX12.h      **** int Time_Counter;
   8:./AX12.h      **** //The functions are based on the arduino library
   9:./AX12.h      **** 
  10:./AX12.h      **** 
  11:./AX12.h      **** int error_data (){
 1030              		.loc 4 11 0
ARM GAS  C:\Users\HENRYA~1\AppData\Local\Temp\cceIRlNf.s 			page 23


 1031              		.cfi_startproc
 1032              		@ args = 0, pretend = 0, frame = 0
 1033              		@ frame_needed = 0, uses_anonymous_args = 0
 1034 0000 10B5     		push	{r4, lr}
 1035              		.cfi_def_cfa_offset 8
 1036              		.cfi_offset 4, -8
 1037              		.cfi_offset 14, -4
  12:./AX12.h      ****     Time_Counter=0;
 1038              		.loc 4 12 0
 1039 0002 0022     		movs	r2, #0
 1040 0004 224B     		ldr	r3, .L55
 1041 0006 1A60     		str	r2, [r3]
  13:./AX12.h      ****     CyDelay(20); ///// delay para recibir
 1042              		.loc 4 13 0
 1043 0008 1420     		movs	r0, #20
 1044 000a FFF7FEFF 		bl	CyDelay
 1045              	.LVL135:
  14:./AX12.h      ****     while((RX_GetRxBufferSize() < 6) & (Time_Counter==TIME_OUT))
 1046              		.loc 4 14 0
 1047 000e 06E0     		b	.L50
 1048              	.L51:
  15:./AX12.h      ****     {Time_Counter++;
 1049              		.loc 4 15 0
 1050 0010 0132     		adds	r2, r2, #1
 1051 0012 1F4B     		ldr	r3, .L55
 1052 0014 1A60     		str	r2, [r3]
  16:./AX12.h      ****     CyDelayUs(1000);
 1053              		.loc 4 16 0
 1054 0016 FA20     		movs	r0, #250
 1055 0018 8000     		lsls	r0, r0, #2
 1056 001a FFF7FEFF 		bl	CyDelayUs
 1057              	.LVL136:
 1058              	.L50:
  14:./AX12.h      ****     while((RX_GetRxBufferSize() < 6) & (Time_Counter==TIME_OUT))
 1059              		.loc 4 14 0
 1060 001e FFF7FEFF 		bl	RX_GetRxBufferSize
 1061              	.LVL137:
 1062 0022 1B4B     		ldr	r3, .L55
 1063 0024 1A68     		ldr	r2, [r3]
 1064 0026 0023     		movs	r3, #0
 1065 0028 0521     		movs	r1, #5
 1066 002a 8142     		cmp	r1, r0
 1067 002c 5B41     		adcs	r3, r3, r3
 1068 002e 1100     		movs	r1, r2
 1069 0030 0A39     		subs	r1, r1, #10
 1070 0032 4842     		rsbs	r0, r1, #0
 1071 0034 4141     		adcs	r1, r1, r0
 1072 0036 1942     		tst	r1, r3
 1073 0038 EAD1     		bne	.L51
 1074 003a 21E0     		b	.L52
 1075              	.L54:
  17:./AX12.h      ****         }
  18:./AX12.h      ****     while (RX_GetRxBufferSize() > 0){ 
  19:./AX12.h      ****         Incoming_Byte =    RX_GetChar();
 1076              		.loc 4 19 0
 1077 003c FFF7FEFF 		bl	RX_GetChar
 1078              	.LVL138:
ARM GAS  C:\Users\HENRYA~1\AppData\Local\Temp\cceIRlNf.s 			page 24


 1079 0040 144C     		ldr	r4, .L55+4
 1080 0042 2070     		strb	r0, [r4]
  20:./AX12.h      ****         Incoming_Byte2 =    RX_GetChar();
 1081              		.loc 4 20 0
 1082 0044 FFF7FEFF 		bl	RX_GetChar
 1083              	.LVL139:
 1084 0048 134B     		ldr	r3, .L55+8
 1085 004a 1870     		strb	r0, [r3]
  21:./AX12.h      **** 		if ( (Incoming_Byte == 255) & (Incoming_Byte2 == 255) ){
 1086              		.loc 4 21 0
 1087 004c 2378     		ldrb	r3, [r4]
 1088 004e FF3B     		subs	r3, r3, #255
 1089 0050 5A42     		rsbs	r2, r3, #0
 1090 0052 5341     		adcs	r3, r3, r2
 1091 0054 FF38     		subs	r0, r0, #255
 1092 0056 4242     		rsbs	r2, r0, #0
 1093 0058 5041     		adcs	r0, r0, r2
 1094 005a 1842     		tst	r0, r3
 1095 005c 10D0     		beq	.L52
  22:./AX12.h      ****             RX_GetChar();    //ID motor
 1096              		.loc 4 22 0
 1097 005e FFF7FEFF 		bl	RX_GetChar
 1098              	.LVL140:
  23:./AX12.h      ****             RX_GetChar();   // Length                                                              
 1099              		.loc 4 23 0
 1100 0062 FFF7FEFF 		bl	RX_GetChar
 1101              	.LVL141:
  24:./AX12.h      **** 	        Error_Byte =   RX_GetChar();   // Error                    
 1102              		.loc 4 24 0
 1103 0066 FFF7FEFF 		bl	RX_GetChar
 1104              	.LVL142:
 1105 006a 0C4C     		ldr	r4, .L55+12
 1106 006c 2070     		strb	r0, [r4]
  25:./AX12.h      **** 		    RX_GetChar(); ///check
 1107              		.loc 4 25 0
 1108 006e FFF7FEFF 		bl	RX_GetChar
 1109              	.LVL143:
  26:./AX12.h      **** 	        RX_ClearRxBuffer(); //limpia buffer 
 1110              		.loc 4 26 0
 1111 0072 FFF7FEFF 		bl	RX_ClearRxBuffer
 1112              	.LVL144:
  27:./AX12.h      ****             CyDelay(10);
 1113              		.loc 4 27 0
 1114 0076 0A20     		movs	r0, #10
 1115 0078 FFF7FEFF 		bl	CyDelay
 1116              	.LVL145:
  28:./AX12.h      ****             return (Error_Byte);        
 1117              		.loc 4 28 0
 1118 007c 2078     		ldrb	r0, [r4]
 1119 007e 05E0     		b	.L53
 1120              	.L52:
  18:./AX12.h      ****         Incoming_Byte =    RX_GetChar();
 1121              		.loc 4 18 0
 1122 0080 FFF7FEFF 		bl	RX_GetRxBufferSize
 1123              	.LVL146:
 1124 0084 0028     		cmp	r0, #0
 1125 0086 D9D1     		bne	.L54
ARM GAS  C:\Users\HENRYA~1\AppData\Local\Temp\cceIRlNf.s 			page 25


  29:./AX12.h      **** 		} 
  30:./AX12.h      ****    }
  31:./AX12.h      ****     return (Error_Byte);  //ax no responde
 1126              		.loc 4 31 0
 1127 0088 044B     		ldr	r3, .L55+12
 1128 008a 1878     		ldrb	r0, [r3]
 1129              	.L53:
  32:./AX12.h      **** }
 1130              		.loc 4 32 0
 1131              		@ sp needed
 1132 008c 10BD     		pop	{r4, pc}
 1133              	.L56:
 1134 008e C046     		.align	2
 1135              	.L55:
 1136 0090 00000000 		.word	Time_Counter
 1137 0094 00000000 		.word	Incoming_Byte
 1138 0098 00000000 		.word	Incoming_Byte2
 1139 009c 00000000 		.word	Error_Byte
 1140              		.cfi_endproc
 1141              	.LFE51:
 1142              		.size	error_data, .-error_data
 1143              		.section	.text.readtemperature,"ax",%progbits
 1144              		.align	2
 1145              		.global	readtemperature
 1146              		.code	16
 1147              		.thumb_func
 1148              		.type	readtemperature, %function
 1149              	readtemperature:
 1150              	.LFB52:
  33:./AX12.h      **** 
  34:./AX12.h      **** 
  35:./AX12.h      **** int readtemperature(unsigned char ID){
 1151              		.loc 4 35 0
 1152              		.cfi_startproc
 1153              		@ args = 0, pretend = 0, frame = 0
 1154              		@ frame_needed = 0, uses_anonymous_args = 0
 1155              	.LVL147:
 1156 0000 70B5     		push	{r4, r5, r6, lr}
 1157              		.cfi_def_cfa_offset 16
 1158              		.cfi_offset 4, -16
 1159              		.cfi_offset 5, -12
 1160              		.cfi_offset 6, -8
 1161              		.cfi_offset 14, -4
 1162 0002 0500     		movs	r5, r0
  36:./AX12.h      ****     Checksum = (~(ID + AX_TEM_LENGTH  + AX_READ_DATA + AX_PRESENT_TEMPERATURE + AX_BYTE_READ))&0xFF
 1163              		.loc 4 36 0
 1164 0004 384C     		ldr	r4, .L63
 1165 0006 0300     		movs	r3, r0
 1166 0008 3233     		adds	r3, r3, #50
 1167 000a DB43     		mvns	r3, r3
 1168 000c 2370     		strb	r3, [r4]
  37:./AX12.h      ****     TXC_Write(2); ////habilita tx  2 
 1169              		.loc 4 37 0
 1170 000e 0220     		movs	r0, #2
 1171              	.LVL148:
 1172 0010 FFF7FEFF 		bl	TXC_Write
 1173              	.LVL149:
ARM GAS  C:\Users\HENRYA~1\AppData\Local\Temp\cceIRlNf.s 			page 26


  38:./AX12.h      ****     MOTOR_PutChar(AX_START);
 1174              		.loc 4 38 0
 1175 0014 FF20     		movs	r0, #255
 1176 0016 FFF7FEFF 		bl	MOTOR_PutChar
 1177              	.LVL150:
  39:./AX12.h      ****     MOTOR_PutChar(AX_START);
 1178              		.loc 4 39 0
 1179 001a FF20     		movs	r0, #255
 1180 001c FFF7FEFF 		bl	MOTOR_PutChar
 1181              	.LVL151:
  40:./AX12.h      ****     MOTOR_PutChar(ID);
 1182              		.loc 4 40 0
 1183 0020 2800     		movs	r0, r5
 1184 0022 FFF7FEFF 		bl	MOTOR_PutChar
 1185              	.LVL152:
  41:./AX12.h      ****     MOTOR_PutChar(AX_TEM_LENGTH);
 1186              		.loc 4 41 0
 1187 0026 0420     		movs	r0, #4
 1188 0028 FFF7FEFF 		bl	MOTOR_PutChar
 1189              	.LVL153:
  42:./AX12.h      ****     MOTOR_PutChar(AX_READ_DATA);
 1190              		.loc 4 42 0
 1191 002c 0220     		movs	r0, #2
 1192 002e FFF7FEFF 		bl	MOTOR_PutChar
 1193              	.LVL154:
  43:./AX12.h      ****     MOTOR_PutChar(AX_PRESENT_TEMPERATURE);
 1194              		.loc 4 43 0
 1195 0032 2B20     		movs	r0, #43
 1196 0034 FFF7FEFF 		bl	MOTOR_PutChar
 1197              	.LVL155:
  44:./AX12.h      ****     MOTOR_PutChar(AX_BYTE_READ);
 1198              		.loc 4 44 0
 1199 0038 0120     		movs	r0, #1
 1200 003a FFF7FEFF 		bl	MOTOR_PutChar
 1201              	.LVL156:
  45:./AX12.h      ****     MOTOR_PutChar(Checksum);
 1202              		.loc 4 45 0
 1203 003e 2078     		ldrb	r0, [r4]
 1204 0040 FFF7FEFF 		bl	MOTOR_PutChar
 1205              	.LVL157:
  46:./AX12.h      ****     CyDelayUs(TX_DELAY_TIME);
 1206              		.loc 4 46 0
 1207 0044 C820     		movs	r0, #200
 1208 0046 4000     		lsls	r0, r0, #1
 1209 0048 FFF7FEFF 		bl	CyDelayUs
 1210              	.LVL158:
  47:./AX12.h      ****     CyDelay(5);  /// cambio de estado delay para buffer de salida
 1211              		.loc 4 47 0
 1212 004c 0520     		movs	r0, #5
 1213 004e FFF7FEFF 		bl	CyDelay
 1214              	.LVL159:
  48:./AX12.h      ****     TXC_Write(1); ///habilita rx 1 
 1215              		.loc 4 48 0
 1216 0052 0120     		movs	r0, #1
 1217 0054 FFF7FEFF 		bl	TXC_Write
 1218              	.LVL160:
  49:./AX12.h      ****     Time_Counter=0;
ARM GAS  C:\Users\HENRYA~1\AppData\Local\Temp\cceIRlNf.s 			page 27


 1219              		.loc 4 49 0
 1220 0058 0022     		movs	r2, #0
 1221 005a 244B     		ldr	r3, .L63+4
 1222 005c 1A60     		str	r2, [r3]
  50:./AX12.h      ****     CyDelay(20);/// delay para recibir
 1223              		.loc 4 50 0
 1224 005e 1420     		movs	r0, #20
 1225 0060 FFF7FEFF 		bl	CyDelay
 1226              	.LVL161:
  51:./AX12.h      ****     while((RX_GetRxBufferSize() < 6) & (Time_Counter==TIME_OUT))
 1227              		.loc 4 51 0
 1228 0064 06E0     		b	.L58
 1229              	.L59:
  52:./AX12.h      ****     {
  53:./AX12.h      ****         Time_Counter++;
 1230              		.loc 4 53 0
 1231 0066 0132     		adds	r2, r2, #1
 1232 0068 204B     		ldr	r3, .L63+4
 1233 006a 1A60     		str	r2, [r3]
  54:./AX12.h      ****         CyDelayUs(1000);    
 1234              		.loc 4 54 0
 1235 006c FA20     		movs	r0, #250
 1236 006e 8000     		lsls	r0, r0, #2
 1237 0070 FFF7FEFF 		bl	CyDelayUs
 1238              	.LVL162:
 1239              	.L58:
  51:./AX12.h      ****     while((RX_GetRxBufferSize() < 6) & (Time_Counter==TIME_OUT))
 1240              		.loc 4 51 0
 1241 0074 FFF7FEFF 		bl	RX_GetRxBufferSize
 1242              	.LVL163:
 1243 0078 1C4B     		ldr	r3, .L63+4
 1244 007a 1A68     		ldr	r2, [r3]
 1245 007c 0023     		movs	r3, #0
 1246 007e 0521     		movs	r1, #5
 1247 0080 8142     		cmp	r1, r0
 1248 0082 5B41     		adcs	r3, r3, r3
 1249 0084 1100     		movs	r1, r2
 1250 0086 0A39     		subs	r1, r1, #10
 1251 0088 4842     		rsbs	r0, r1, #0
 1252 008a 4141     		adcs	r1, r1, r0
 1253 008c 1942     		tst	r1, r3
 1254 008e EAD1     		bne	.L59
 1255 0090 23E0     		b	.L60
 1256              	.L62:
  55:./AX12.h      ****     }
  56:./AX12.h      ****     while (RX_GetRxBufferSize() > 0){
  57:./AX12.h      ****         Incoming_Byte = RX_ReadRxData();
 1257              		.loc 4 57 0
 1258 0092 FFF7FEFF 		bl	RX_ReadRxData
 1259              	.LVL164:
 1260 0096 164C     		ldr	r4, .L63+8
 1261 0098 2070     		strb	r0, [r4]
  58:./AX12.h      ****         Incoming_Byte2= RX_ReadRxData();
 1262              		.loc 4 58 0
 1263 009a FFF7FEFF 		bl	RX_ReadRxData
 1264              	.LVL165:
 1265 009e 154B     		ldr	r3, .L63+12
ARM GAS  C:\Users\HENRYA~1\AppData\Local\Temp\cceIRlNf.s 			page 28


 1266 00a0 1870     		strb	r0, [r3]
  59:./AX12.h      **** 		if ( (Incoming_Byte == 255) & (Incoming_Byte2  == 255) ){
 1267              		.loc 4 59 0
 1268 00a2 2378     		ldrb	r3, [r4]
 1269 00a4 FF3B     		subs	r3, r3, #255
 1270 00a6 5A42     		rsbs	r2, r3, #0
 1271 00a8 5341     		adcs	r3, r3, r2
 1272 00aa FF38     		subs	r0, r0, #255
 1273 00ac 4242     		rsbs	r2, r0, #0
 1274 00ae 5041     		adcs	r0, r0, r2
 1275 00b0 1842     		tst	r0, r3
 1276 00b2 12D0     		beq	.L60
  60:./AX12.h      **** 	        RX_ReadRxData();       // Ax-12 ID
 1277              		.loc 4 60 0
 1278 00b4 FFF7FEFF 		bl	RX_ReadRxData
 1279              	.LVL166:
  61:./AX12.h      **** 			RX_ReadRxData();       // Length
 1280              		.loc 4 61 0
 1281 00b8 FFF7FEFF 		bl	RX_ReadRxData
 1282              	.LVL167:
  62:./AX12.h      **** 	    	RX_ReadRxData();       //error
 1283              		.loc 4 62 0
 1284 00bc FFF7FEFF 		bl	RX_ReadRxData
 1285              	.LVL168:
  63:./AX12.h      ****         	Temperature_Byte= 	RX_ReadRxData(); ///dato
 1286              		.loc 4 63 0
 1287 00c0 FFF7FEFF 		bl	RX_ReadRxData
 1288              	.LVL169:
 1289 00c4 0C4C     		ldr	r4, .L63+16
 1290 00c6 2070     		strb	r0, [r4]
  64:./AX12.h      **** 	        RX_ReadRxData();            //cheaksum           
 1291              		.loc 4 64 0
 1292 00c8 FFF7FEFF 		bl	RX_ReadRxData
 1293              	.LVL170:
  65:./AX12.h      ****             RX_ClearRxBuffer(); //limpia buffer
 1294              		.loc 4 65 0
 1295 00cc FFF7FEFF 		bl	RX_ClearRxBuffer
 1296              	.LVL171:
  66:./AX12.h      ****             CyDelay(10);
 1297              		.loc 4 66 0
 1298 00d0 0A20     		movs	r0, #10
 1299 00d2 FFF7FEFF 		bl	CyDelay
 1300              	.LVL172:
  67:./AX12.h      ****             return (Temperature_Byte);
 1301              		.loc 4 67 0
 1302 00d6 2078     		ldrb	r0, [r4]
 1303 00d8 05E0     		b	.L61
 1304              	.L60:
  56:./AX12.h      ****         Incoming_Byte = RX_ReadRxData();
 1305              		.loc 4 56 0
 1306 00da FFF7FEFF 		bl	RX_GetRxBufferSize
 1307              	.LVL173:
 1308 00de 0028     		cmp	r0, #0
 1309 00e0 D7D1     		bne	.L62
  68:./AX12.h      **** 		}
  69:./AX12.h      ****    }
  70:./AX12.h      **** return (Temperature_Byte);
ARM GAS  C:\Users\HENRYA~1\AppData\Local\Temp\cceIRlNf.s 			page 29


 1310              		.loc 4 70 0
 1311 00e2 054B     		ldr	r3, .L63+16
 1312 00e4 1878     		ldrb	r0, [r3]
 1313              	.L61:
  71:./AX12.h      **** }
 1314              		.loc 4 71 0
 1315              		@ sp needed
 1316 00e6 70BD     		pop	{r4, r5, r6, pc}
 1317              	.L64:
 1318              		.align	2
 1319              	.L63:
 1320 00e8 00000000 		.word	Checksum
 1321 00ec 00000000 		.word	Time_Counter
 1322 00f0 00000000 		.word	Incoming_Byte
 1323 00f4 00000000 		.word	Incoming_Byte2
 1324 00f8 00000000 		.word	Temperature_Byte
 1325              		.cfi_endproc
 1326              	.LFE52:
 1327              		.size	readtemperature, .-readtemperature
 1328              		.section	.text.setID,"ax",%progbits
 1329              		.align	2
 1330              		.global	setID
 1331              		.code	16
 1332              		.thumb_func
 1333              		.type	setID, %function
 1334              	setID:
 1335              	.LFB53:
  72:./AX12.h      **** 
  73:./AX12.h      **** int setID (unsigned char ID,unsigned char newID){
 1336              		.loc 4 73 0
 1337              		.cfi_startproc
 1338              		@ args = 0, pretend = 0, frame = 0
 1339              		@ frame_needed = 0, uses_anonymous_args = 0
 1340              	.LVL174:
 1341 0000 70B5     		push	{r4, r5, r6, lr}
 1342              		.cfi_def_cfa_offset 16
 1343              		.cfi_offset 4, -16
 1344              		.cfi_offset 5, -12
 1345              		.cfi_offset 6, -8
 1346              		.cfi_offset 14, -4
 1347 0002 0500     		movs	r5, r0
 1348 0004 0C00     		movs	r4, r1
  74:./AX12.h      ****     Checksum = (~(ID + AX_ID_LENGTH + AX_WRITE_DATA + AX_ID + newID))&0xFF;
 1349              		.loc 4 74 0
 1350 0006 164E     		ldr	r6, .L66
 1351 0008 4318     		adds	r3, r0, r1
 1352 000a 0A33     		adds	r3, r3, #10
 1353 000c DB43     		mvns	r3, r3
 1354 000e 3370     		strb	r3, [r6]
  75:./AX12.h      ****     TXC_Write(2); ////habilita tx
 1355              		.loc 4 75 0
 1356 0010 0220     		movs	r0, #2
 1357              	.LVL175:
 1358 0012 FFF7FEFF 		bl	TXC_Write
 1359              	.LVL176:
  76:./AX12.h      ****     MOTOR_PutChar(AX_START);              
 1360              		.loc 4 76 0
ARM GAS  C:\Users\HENRYA~1\AppData\Local\Temp\cceIRlNf.s 			page 30


 1361 0016 FF20     		movs	r0, #255
 1362 0018 FFF7FEFF 		bl	MOTOR_PutChar
 1363              	.LVL177:
  77:./AX12.h      ****     MOTOR_PutChar(AX_START);
 1364              		.loc 4 77 0
 1365 001c FF20     		movs	r0, #255
 1366 001e FFF7FEFF 		bl	MOTOR_PutChar
 1367              	.LVL178:
  78:./AX12.h      ****     MOTOR_PutChar(ID);
 1368              		.loc 4 78 0
 1369 0022 2800     		movs	r0, r5
 1370 0024 FFF7FEFF 		bl	MOTOR_PutChar
 1371              	.LVL179:
  79:./AX12.h      ****     MOTOR_PutChar(AX_ID_LENGTH);
 1372              		.loc 4 79 0
 1373 0028 0420     		movs	r0, #4
 1374 002a FFF7FEFF 		bl	MOTOR_PutChar
 1375              	.LVL180:
  80:./AX12.h      ****     MOTOR_PutChar(AX_WRITE_DATA);
 1376              		.loc 4 80 0
 1377 002e 0320     		movs	r0, #3
 1378 0030 FFF7FEFF 		bl	MOTOR_PutChar
 1379              	.LVL181:
  81:./AX12.h      ****     MOTOR_PutChar(AX_ID);
 1380              		.loc 4 81 0
 1381 0034 0320     		movs	r0, #3
 1382 0036 FFF7FEFF 		bl	MOTOR_PutChar
 1383              	.LVL182:
  82:./AX12.h      ****     MOTOR_PutChar(newID);
 1384              		.loc 4 82 0
 1385 003a 2000     		movs	r0, r4
 1386 003c FFF7FEFF 		bl	MOTOR_PutChar
 1387              	.LVL183:
  83:./AX12.h      ****     MOTOR_PutChar(Checksum);
 1388              		.loc 4 83 0
 1389 0040 3078     		ldrb	r0, [r6]
 1390 0042 FFF7FEFF 		bl	MOTOR_PutChar
 1391              	.LVL184:
  84:./AX12.h      ****     CyDelayUs(TX_DELAY_TIME);
 1392              		.loc 4 84 0
 1393 0046 C820     		movs	r0, #200
 1394 0048 4000     		lsls	r0, r0, #1
 1395 004a FFF7FEFF 		bl	CyDelayUs
 1396              	.LVL185:
  85:./AX12.h      ****     CyDelay(5);  /// cambio de estado delay para buffer de salida
 1397              		.loc 4 85 0
 1398 004e 0520     		movs	r0, #5
 1399 0050 FFF7FEFF 		bl	CyDelay
 1400              	.LVL186:
  86:./AX12.h      ****     TXC_Write(1); ///habilita rx 1
 1401              		.loc 4 86 0
 1402 0054 0120     		movs	r0, #1
 1403 0056 FFF7FEFF 		bl	TXC_Write
 1404              	.LVL187:
  87:./AX12.h      ****     return (error_data()); 
 1405              		.loc 4 87 0
 1406 005a FFF7FEFF 		bl	error_data
ARM GAS  C:\Users\HENRYA~1\AppData\Local\Temp\cceIRlNf.s 			page 31


 1407              	.LVL188:
  88:./AX12.h      **** }
 1408              		.loc 4 88 0
 1409              		@ sp needed
 1410 005e 70BD     		pop	{r4, r5, r6, pc}
 1411              	.L67:
 1412              		.align	2
 1413              	.L66:
 1414 0060 00000000 		.word	Checksum
 1415              		.cfi_endproc
 1416              	.LFE53:
 1417              		.size	setID, .-setID
 1418              		.section	.text.ping,"ax",%progbits
 1419              		.align	2
 1420              		.global	ping
 1421              		.code	16
 1422              		.thumb_func
 1423              		.type	ping, %function
 1424              	ping:
 1425              	.LFB54:
  89:./AX12.h      **** 
  90:./AX12.h      **** int ping (unsigned char ID){
 1426              		.loc 4 90 0
 1427              		.cfi_startproc
 1428              		@ args = 0, pretend = 0, frame = 0
 1429              		@ frame_needed = 0, uses_anonymous_args = 0
 1430              	.LVL189:
 1431 0000 70B5     		push	{r4, r5, r6, lr}
 1432              		.cfi_def_cfa_offset 16
 1433              		.cfi_offset 4, -16
 1434              		.cfi_offset 5, -12
 1435              		.cfi_offset 6, -8
 1436              		.cfi_offset 14, -4
 1437 0002 0500     		movs	r5, r0
  91:./AX12.h      ****     Checksum = (~(ID + AX_READ_DATA + AX_PING))&0xFF;
 1438              		.loc 4 91 0
 1439 0004 124C     		ldr	r4, .L69
 1440 0006 C31C     		adds	r3, r0, #3
 1441 0008 DB43     		mvns	r3, r3
 1442 000a 2370     		strb	r3, [r4]
  92:./AX12.h      ****     TXC_Write(2); ////habilita tx
 1443              		.loc 4 92 0
 1444 000c 0220     		movs	r0, #2
 1445              	.LVL190:
 1446 000e FFF7FEFF 		bl	TXC_Write
 1447              	.LVL191:
  93:./AX12.h      ****     MOTOR_PutChar(AX_START);
 1448              		.loc 4 93 0
 1449 0012 FF20     		movs	r0, #255
 1450 0014 FFF7FEFF 		bl	MOTOR_PutChar
 1451              	.LVL192:
  94:./AX12.h      ****     MOTOR_PutChar(AX_START);
 1452              		.loc 4 94 0
 1453 0018 FF20     		movs	r0, #255
 1454 001a FFF7FEFF 		bl	MOTOR_PutChar
 1455              	.LVL193:
  95:./AX12.h      ****     MOTOR_PutChar(ID);
ARM GAS  C:\Users\HENRYA~1\AppData\Local\Temp\cceIRlNf.s 			page 32


 1456              		.loc 4 95 0
 1457 001e 2800     		movs	r0, r5
 1458 0020 FFF7FEFF 		bl	MOTOR_PutChar
 1459              	.LVL194:
  96:./AX12.h      ****     MOTOR_PutChar(AX_READ_DATA);
 1460              		.loc 4 96 0
 1461 0024 0220     		movs	r0, #2
 1462 0026 FFF7FEFF 		bl	MOTOR_PutChar
 1463              	.LVL195:
  97:./AX12.h      ****     MOTOR_PutChar(AX_PING);
 1464              		.loc 4 97 0
 1465 002a 0120     		movs	r0, #1
 1466 002c FFF7FEFF 		bl	MOTOR_PutChar
 1467              	.LVL196:
  98:./AX12.h      ****     MOTOR_PutChar(Checksum);
 1468              		.loc 4 98 0
 1469 0030 2078     		ldrb	r0, [r4]
 1470 0032 FFF7FEFF 		bl	MOTOR_PutChar
 1471              	.LVL197:
  99:./AX12.h      ****     CyDelayUs(TX_DELAY_TIME);
 1472              		.loc 4 99 0
 1473 0036 C820     		movs	r0, #200
 1474 0038 4000     		lsls	r0, r0, #1
 1475 003a FFF7FEFF 		bl	CyDelayUs
 1476              	.LVL198:
 100:./AX12.h      ****     CyDelay(5);  /// cambio de estado delay para buffer de salida
 1477              		.loc 4 100 0
 1478 003e 0520     		movs	r0, #5
 1479 0040 FFF7FEFF 		bl	CyDelay
 1480              	.LVL199:
 101:./AX12.h      ****     TXC_Write(1); ///habilita rx 1
 1481              		.loc 4 101 0
 1482 0044 0120     		movs	r0, #1
 1483 0046 FFF7FEFF 		bl	TXC_Write
 1484              	.LVL200:
 102:./AX12.h      ****     return(error_data()) ; 
 1485              		.loc 4 102 0
 1486 004a FFF7FEFF 		bl	error_data
 1487              	.LVL201:
 103:./AX12.h      **** }
 1488              		.loc 4 103 0
 1489              		@ sp needed
 1490 004e 70BD     		pop	{r4, r5, r6, pc}
 1491              	.L70:
 1492              		.align	2
 1493              	.L69:
 1494 0050 00000000 		.word	Checksum
 1495              		.cfi_endproc
 1496              	.LFE54:
 1497              		.size	ping, .-ping
 1498              		.section	.text.reset,"ax",%progbits
 1499              		.align	2
 1500              		.global	reset
 1501              		.code	16
 1502              		.thumb_func
 1503              		.type	reset, %function
 1504              	reset:
ARM GAS  C:\Users\HENRYA~1\AppData\Local\Temp\cceIRlNf.s 			page 33


 1505              	.LFB55:
 104:./AX12.h      **** 
 105:./AX12.h      **** int reset (unsigned char ID ){
 1506              		.loc 4 105 0
 1507              		.cfi_startproc
 1508              		@ args = 0, pretend = 0, frame = 0
 1509              		@ frame_needed = 0, uses_anonymous_args = 0
 1510              	.LVL202:
 1511 0000 70B5     		push	{r4, r5, r6, lr}
 1512              		.cfi_def_cfa_offset 16
 1513              		.cfi_offset 4, -16
 1514              		.cfi_offset 5, -12
 1515              		.cfi_offset 6, -8
 1516              		.cfi_offset 14, -4
 1517 0002 0500     		movs	r5, r0
 106:./AX12.h      ****     Checksum = (~(ID + AX_RESET_LENGTH + AX_RESET))&0xFF;
 1518              		.loc 4 106 0
 1519 0004 134C     		ldr	r4, .L72
 1520 0006 0300     		movs	r3, r0
 1521 0008 0833     		adds	r3, r3, #8
 1522 000a DB43     		mvns	r3, r3
 1523 000c 2370     		strb	r3, [r4]
 107:./AX12.h      ****     TXC_Write(2); ////habilita tx
 1524              		.loc 4 107 0
 1525 000e 0220     		movs	r0, #2
 1526              	.LVL203:
 1527 0010 FFF7FEFF 		bl	TXC_Write
 1528              	.LVL204:
 108:./AX12.h      ****     MOTOR_PutChar(AX_START);              
 1529              		.loc 4 108 0
 1530 0014 FF20     		movs	r0, #255
 1531 0016 FFF7FEFF 		bl	MOTOR_PutChar
 1532              	.LVL205:
 109:./AX12.h      ****     MOTOR_PutChar(AX_START);
 1533              		.loc 4 109 0
 1534 001a FF20     		movs	r0, #255
 1535 001c FFF7FEFF 		bl	MOTOR_PutChar
 1536              	.LVL206:
 110:./AX12.h      ****     MOTOR_PutChar(ID);
 1537              		.loc 4 110 0
 1538 0020 2800     		movs	r0, r5
 1539 0022 FFF7FEFF 		bl	MOTOR_PutChar
 1540              	.LVL207:
 111:./AX12.h      ****     MOTOR_PutChar(AX_RESET_LENGTH);	
 1541              		.loc 4 111 0
 1542 0026 0220     		movs	r0, #2
 1543 0028 FFF7FEFF 		bl	MOTOR_PutChar
 1544              	.LVL208:
 112:./AX12.h      ****     MOTOR_PutChar(AX_RESET);
 1545              		.loc 4 112 0
 1546 002c 0620     		movs	r0, #6
 1547 002e FFF7FEFF 		bl	MOTOR_PutChar
 1548              	.LVL209:
 113:./AX12.h      ****     MOTOR_PutChar(Checksum);	
 1549              		.loc 4 113 0
 1550 0032 2078     		ldrb	r0, [r4]
 1551 0034 FFF7FEFF 		bl	MOTOR_PutChar
ARM GAS  C:\Users\HENRYA~1\AppData\Local\Temp\cceIRlNf.s 			page 34


 1552              	.LVL210:
 114:./AX12.h      ****     CyDelayUs(TX_DELAY_TIME);
 1553              		.loc 4 114 0
 1554 0038 C820     		movs	r0, #200
 1555 003a 4000     		lsls	r0, r0, #1
 1556 003c FFF7FEFF 		bl	CyDelayUs
 1557              	.LVL211:
 115:./AX12.h      ****     CyDelay(5);  /// cambio de estado delay para buffer de salida
 1558              		.loc 4 115 0
 1559 0040 0520     		movs	r0, #5
 1560 0042 FFF7FEFF 		bl	CyDelay
 1561              	.LVL212:
 116:./AX12.h      ****     TXC_Write(1); ///habilita rx 1
 1562              		.loc 4 116 0
 1563 0046 0120     		movs	r0, #1
 1564 0048 FFF7FEFF 		bl	TXC_Write
 1565              	.LVL213:
 117:./AX12.h      ****     return (error_data()); 
 1566              		.loc 4 117 0
 1567 004c FFF7FEFF 		bl	error_data
 1568              	.LVL214:
 118:./AX12.h      **** }
 1569              		.loc 4 118 0
 1570              		@ sp needed
 1571 0050 70BD     		pop	{r4, r5, r6, pc}
 1572              	.L73:
 1573 0052 C046     		.align	2
 1574              	.L72:
 1575 0054 00000000 		.word	Checksum
 1576              		.cfi_endproc
 1577              	.LFE55:
 1578              		.size	reset, .-reset
 1579              		.section	.text.LED,"ax",%progbits
 1580              		.align	2
 1581              		.global	LED
 1582              		.code	16
 1583              		.thumb_func
 1584              		.type	LED, %function
 1585              	LED:
 1586              	.LFB56:
 119:./AX12.h      **** 
 120:./AX12.h      **** int LED(unsigned char ID, int Status){    
 1587              		.loc 4 120 0
 1588              		.cfi_startproc
 1589              		@ args = 0, pretend = 0, frame = 0
 1590              		@ frame_needed = 0, uses_anonymous_args = 0
 1591              	.LVL215:
 1592 0000 70B5     		push	{r4, r5, r6, lr}
 1593              		.cfi_def_cfa_offset 16
 1594              		.cfi_offset 4, -16
 1595              		.cfi_offset 5, -12
 1596              		.cfi_offset 6, -8
 1597              		.cfi_offset 14, -4
 1598 0002 0400     		movs	r4, r0
 121:./AX12.h      ****     //Checksum for verification data to send
 122:./AX12.h      ****     Checksum = (~(ID + AX_LED_LENGTH + AX_WRITE_DATA + AX_LED + Status))&0xFF;
 1599              		.loc 4 122 0
ARM GAS  C:\Users\HENRYA~1\AppData\Local\Temp\cceIRlNf.s 			page 35


 1600 0004 CDB2     		uxtb	r5, r1
 1601 0006 164E     		ldr	r6, .L75
 1602 0008 2B18     		adds	r3, r5, r0
 1603 000a 2033     		adds	r3, r3, #32
 1604 000c DB43     		mvns	r3, r3
 1605 000e 3370     		strb	r3, [r6]
 123:./AX12.h      ****     // Send Instructions over Serial
 124:./AX12.h      ****     TXC_Write(2); ////habilita tx
 1606              		.loc 4 124 0
 1607 0010 0220     		movs	r0, #2
 1608              	.LVL216:
 1609 0012 FFF7FEFF 		bl	TXC_Write
 1610              	.LVL217:
 125:./AX12.h      ****     MOTOR_PutChar(AX_START);              
 1611              		.loc 4 125 0
 1612 0016 FF20     		movs	r0, #255
 1613 0018 FFF7FEFF 		bl	MOTOR_PutChar
 1614              	.LVL218:
 126:./AX12.h      ****     MOTOR_PutChar(AX_START);
 1615              		.loc 4 126 0
 1616 001c FF20     		movs	r0, #255
 1617 001e FFF7FEFF 		bl	MOTOR_PutChar
 1618              	.LVL219:
 127:./AX12.h      ****     MOTOR_PutChar(ID);
 1619              		.loc 4 127 0
 1620 0022 2000     		movs	r0, r4
 1621 0024 FFF7FEFF 		bl	MOTOR_PutChar
 1622              	.LVL220:
 128:./AX12.h      ****     MOTOR_PutChar(AX_LED_LENGTH);
 1623              		.loc 4 128 0
 1624 0028 0420     		movs	r0, #4
 1625 002a FFF7FEFF 		bl	MOTOR_PutChar
 1626              	.LVL221:
 129:./AX12.h      ****     MOTOR_PutChar(AX_WRITE_DATA);
 1627              		.loc 4 129 0
 1628 002e 0320     		movs	r0, #3
 1629 0030 FFF7FEFF 		bl	MOTOR_PutChar
 1630              	.LVL222:
 130:./AX12.h      ****     MOTOR_PutChar(AX_LED);
 1631              		.loc 4 130 0
 1632 0034 1920     		movs	r0, #25
 1633 0036 FFF7FEFF 		bl	MOTOR_PutChar
 1634              	.LVL223:
 131:./AX12.h      ****     MOTOR_PutChar(Status);
 1635              		.loc 4 131 0
 1636 003a 2800     		movs	r0, r5
 1637 003c FFF7FEFF 		bl	MOTOR_PutChar
 1638              	.LVL224:
 132:./AX12.h      ****     MOTOR_PutChar(Checksum);
 1639              		.loc 4 132 0
 1640 0040 3078     		ldrb	r0, [r6]
 1641 0042 FFF7FEFF 		bl	MOTOR_PutChar
 1642              	.LVL225:
 133:./AX12.h      ****     CyDelayUs(TX_DELAY_TIME);
 1643              		.loc 4 133 0
 1644 0046 C820     		movs	r0, #200
 1645 0048 4000     		lsls	r0, r0, #1
ARM GAS  C:\Users\HENRYA~1\AppData\Local\Temp\cceIRlNf.s 			page 36


 1646 004a FFF7FEFF 		bl	CyDelayUs
 1647              	.LVL226:
 134:./AX12.h      ****     CyDelay(5);  /// cambio de estado delay para buffer de salida
 1648              		.loc 4 134 0
 1649 004e 0520     		movs	r0, #5
 1650 0050 FFF7FEFF 		bl	CyDelay
 1651              	.LVL227:
 135:./AX12.h      ****     TXC_Write(1);
 1652              		.loc 4 135 0
 1653 0054 0120     		movs	r0, #1
 1654 0056 FFF7FEFF 		bl	TXC_Write
 1655              	.LVL228:
 136:./AX12.h      ****     //Finish Function
 137:./AX12.h      ****     return(error_data());
 1656              		.loc 4 137 0
 1657 005a FFF7FEFF 		bl	error_data
 1658              	.LVL229:
 138:./AX12.h      **** }
 1659              		.loc 4 138 0
 1660              		@ sp needed
 1661 005e 70BD     		pop	{r4, r5, r6, pc}
 1662              	.L76:
 1663              		.align	2
 1664              	.L75:
 1665 0060 00000000 		.word	Checksum
 1666              		.cfi_endproc
 1667              	.LFE56:
 1668              		.size	LED, .-LED
 1669              		.section	.text.Move,"ax",%progbits
 1670              		.align	2
 1671              		.global	Move
 1672              		.code	16
 1673              		.thumb_func
 1674              		.type	Move, %function
 1675              	Move:
 1676              	.LFB57:
 139:./AX12.h      **** 
 140:./AX12.h      **** int Move(unsigned char ID, int Position){
 1677              		.loc 4 140 0
 1678              		.cfi_startproc
 1679              		@ args = 0, pretend = 0, frame = 0
 1680              		@ frame_needed = 0, uses_anonymous_args = 0
 1681              	.LVL230:
 1682 0000 F8B5     		push	{r3, r4, r5, r6, r7, lr}
 1683              		.cfi_def_cfa_offset 24
 1684              		.cfi_offset 3, -24
 1685              		.cfi_offset 4, -20
 1686              		.cfi_offset 5, -16
 1687              		.cfi_offset 6, -12
 1688              		.cfi_offset 7, -8
 1689              		.cfi_offset 14, -4
 1690 0002 0400     		movs	r4, r0
 141:./AX12.h      ****     char Position_H,Position_L;
 142:./AX12.h      ****     //Shift register 16 bits
 143:./AX12.h      ****     Position_H = Position >> 8;           
 1691              		.loc 4 143 0
 1692 0004 0E12     		asrs	r6, r1, #8
ARM GAS  C:\Users\HENRYA~1\AppData\Local\Temp\cceIRlNf.s 			page 37


 1693 0006 F6B2     		uxtb	r6, r6
 1694              	.LVL231:
 144:./AX12.h      ****     Position_L = Position;
 1695              		.loc 4 144 0
 1696 0008 CDB2     		uxtb	r5, r1
 1697              	.LVL232:
 145:./AX12.h      **** 	Checksum = (~(ID + AX_GOAL_LENGTH + AX_WRITE_DATA + AX_GOAL_POSITION_L + Position_L + Position_H))
 1698              		.loc 4 145 0
 1699 000a 184F     		ldr	r7, .L78
 1700 000c 2B18     		adds	r3, r5, r0
 1701 000e F318     		adds	r3, r6, r3
 1702 0010 2633     		adds	r3, r3, #38
 1703 0012 DB43     		mvns	r3, r3
 1704 0014 3B70     		strb	r3, [r7]
 146:./AX12.h      ****     // Send Instructions over Serial
 147:./AX12.h      ****     TXC_Write(2); ////habilita tx
 1705              		.loc 4 147 0
 1706 0016 0220     		movs	r0, #2
 1707              	.LVL233:
 1708 0018 FFF7FEFF 		bl	TXC_Write
 1709              	.LVL234:
 148:./AX12.h      ****     MOTOR_PutChar(AX_START);                 
 1710              		.loc 4 148 0
 1711 001c FF20     		movs	r0, #255
 1712 001e FFF7FEFF 		bl	MOTOR_PutChar
 1713              	.LVL235:
 149:./AX12.h      ****     MOTOR_PutChar(AX_START);
 1714              		.loc 4 149 0
 1715 0022 FF20     		movs	r0, #255
 1716 0024 FFF7FEFF 		bl	MOTOR_PutChar
 1717              	.LVL236:
 150:./AX12.h      ****     MOTOR_PutChar(ID);
 1718              		.loc 4 150 0
 1719 0028 2000     		movs	r0, r4
 1720 002a FFF7FEFF 		bl	MOTOR_PutChar
 1721              	.LVL237:
 151:./AX12.h      ****     MOTOR_PutChar(AX_GOAL_LENGTH);
 1722              		.loc 4 151 0
 1723 002e 0520     		movs	r0, #5
 1724 0030 FFF7FEFF 		bl	MOTOR_PutChar
 1725              	.LVL238:
 152:./AX12.h      ****     MOTOR_PutChar(AX_WRITE_DATA);
 1726              		.loc 4 152 0
 1727 0034 0320     		movs	r0, #3
 1728 0036 FFF7FEFF 		bl	MOTOR_PutChar
 1729              	.LVL239:
 153:./AX12.h      ****     MOTOR_PutChar(AX_GOAL_POSITION_L);
 1730              		.loc 4 153 0
 1731 003a 1E20     		movs	r0, #30
 1732 003c FFF7FEFF 		bl	MOTOR_PutChar
 1733              	.LVL240:
 154:./AX12.h      ****     MOTOR_PutChar(Position_L);
 1734              		.loc 4 154 0
 1735 0040 2800     		movs	r0, r5
 1736 0042 FFF7FEFF 		bl	MOTOR_PutChar
 1737              	.LVL241:
 155:./AX12.h      ****     MOTOR_PutChar(Position_H);
ARM GAS  C:\Users\HENRYA~1\AppData\Local\Temp\cceIRlNf.s 			page 38


 1738              		.loc 4 155 0
 1739 0046 3000     		movs	r0, r6
 1740 0048 FFF7FEFF 		bl	MOTOR_PutChar
 1741              	.LVL242:
 156:./AX12.h      ****     MOTOR_PutChar(Checksum);
 1742              		.loc 4 156 0
 1743 004c 3878     		ldrb	r0, [r7]
 1744 004e FFF7FEFF 		bl	MOTOR_PutChar
 1745              	.LVL243:
 157:./AX12.h      **** 	CyDelayUs(TX_DELAY_TIME);
 1746              		.loc 4 157 0
 1747 0052 C820     		movs	r0, #200
 1748 0054 4000     		lsls	r0, r0, #1
 1749 0056 FFF7FEFF 		bl	CyDelayUs
 1750              	.LVL244:
 158:./AX12.h      ****     CyDelay(5);  /// cambio de estado delay para buffer de salida
 1751              		.loc 4 158 0
 1752 005a 0520     		movs	r0, #5
 1753 005c FFF7FEFF 		bl	CyDelay
 1754              	.LVL245:
 159:./AX12.h      ****     TXC_Write(1); ///habilita rx 1
 1755              		.loc 4 159 0
 1756 0060 0120     		movs	r0, #1
 1757 0062 FFF7FEFF 		bl	TXC_Write
 1758              	.LVL246:
 160:./AX12.h      ****     return (error_data());                 
 1759              		.loc 4 160 0
 1760 0066 FFF7FEFF 		bl	error_data
 1761              	.LVL247:
 161:./AX12.h      **** }
 1762              		.loc 4 161 0
 1763              		@ sp needed
 1764              	.LVL248:
 1765              	.LVL249:
 1766 006a F8BD     		pop	{r3, r4, r5, r6, r7, pc}
 1767              	.L79:
 1768              		.align	2
 1769              	.L78:
 1770 006c 00000000 		.word	Checksum
 1771              		.cfi_endproc
 1772              	.LFE57:
 1773              		.size	Move, .-Move
 1774              		.section	.text.setEndless,"ax",%progbits
 1775              		.align	2
 1776              		.global	setEndless
 1777              		.code	16
 1778              		.thumb_func
 1779              		.type	setEndless, %function
 1780              	setEndless:
 1781              	.LFB58:
 162:./AX12.h      **** 
 163:./AX12.h      **** int setEndless(unsigned char ID, int Status,int rag){
 1782              		.loc 4 163 0
 1783              		.cfi_startproc
 1784              		@ args = 0, pretend = 0, frame = 0
 1785              		@ frame_needed = 0, uses_anonymous_args = 0
 1786              	.LVL250:
ARM GAS  C:\Users\HENRYA~1\AppData\Local\Temp\cceIRlNf.s 			page 39


 1787 0000 70B5     		push	{r4, r5, r6, lr}
 1788              		.cfi_def_cfa_offset 16
 1789              		.cfi_offset 4, -16
 1790              		.cfi_offset 5, -12
 1791              		.cfi_offset 6, -8
 1792              		.cfi_offset 14, -4
 1793 0002 0400     		movs	r4, r0
 164:./AX12.h      ****     if (Status){	
 1794              		.loc 4 164 0
 1795 0004 0029     		cmp	r1, #0
 1796 0006 29D0     		beq	.L81
 165:./AX12.h      ****         // Changing the CCW Angle Limits for Full Rotation.
 166:./AX12.h      ****         Checksum = (~(ID + AX_GOAL_LENGTH + AX_WRITE_DATA + AX_CCW_ANGLE_LIMIT_L))&0xFF;
 1797              		.loc 4 166 0
 1798 0008 2C4D     		ldr	r5, .L83
 1799 000a 0300     		movs	r3, r0
 1800 000c 1033     		adds	r3, r3, #16
 1801 000e DB43     		mvns	r3, r3
 1802 0010 2B70     		strb	r3, [r5]
 167:./AX12.h      ****         // Send Instructions over Serial
 168:./AX12.h      ****         //Checksum for verification data to send
 169:./AX12.h      ****         TXC_Write(2); ////habilita tx
 1803              		.loc 4 169 0
 1804 0012 0220     		movs	r0, #2
 1805              	.LVL251:
 1806 0014 FFF7FEFF 		bl	TXC_Write
 1807              	.LVL252:
 170:./AX12.h      ****         MOTOR_PutChar(AX_START);                
 1808              		.loc 4 170 0
 1809 0018 FF20     		movs	r0, #255
 1810 001a FFF7FEFF 		bl	MOTOR_PutChar
 1811              	.LVL253:
 171:./AX12.h      ****         MOTOR_PutChar(AX_START);
 1812              		.loc 4 171 0
 1813 001e FF20     		movs	r0, #255
 1814 0020 FFF7FEFF 		bl	MOTOR_PutChar
 1815              	.LVL254:
 172:./AX12.h      ****         MOTOR_PutChar(ID);
 1816              		.loc 4 172 0
 1817 0024 2000     		movs	r0, r4
 1818 0026 FFF7FEFF 		bl	MOTOR_PutChar
 1819              	.LVL255:
 173:./AX12.h      ****         MOTOR_PutChar(AX_GOAL_LENGTH);
 1820              		.loc 4 173 0
 1821 002a 0520     		movs	r0, #5
 1822 002c FFF7FEFF 		bl	MOTOR_PutChar
 1823              	.LVL256:
 174:./AX12.h      ****         MOTOR_PutChar(AX_WRITE_DATA);
 1824              		.loc 4 174 0
 1825 0030 0320     		movs	r0, #3
 1826 0032 FFF7FEFF 		bl	MOTOR_PutChar
 1827              	.LVL257:
 175:./AX12.h      ****         MOTOR_PutChar(AX_CCW_ANGLE_LIMIT_L );
 1828              		.loc 4 175 0
 1829 0036 0820     		movs	r0, #8
 1830 0038 FFF7FEFF 		bl	MOTOR_PutChar
 1831              	.LVL258:
ARM GAS  C:\Users\HENRYA~1\AppData\Local\Temp\cceIRlNf.s 			page 40


 176:./AX12.h      ****         MOTOR_PutChar(Checksum);
 1832              		.loc 4 176 0
 1833 003c 2878     		ldrb	r0, [r5]
 1834 003e FFF7FEFF 		bl	MOTOR_PutChar
 1835              	.LVL259:
 177:./AX12.h      ****         CyDelayUs(TX_DELAY_TIME);
 1836              		.loc 4 177 0
 1837 0042 C820     		movs	r0, #200
 1838 0044 4000     		lsls	r0, r0, #1
 1839 0046 FFF7FEFF 		bl	CyDelayUs
 1840              	.LVL260:
 178:./AX12.h      ****         CyDelay(5);  /// cambio de estado delay para buffer de salida
 1841              		.loc 4 178 0
 1842 004a 0520     		movs	r0, #5
 1843 004c FFF7FEFF 		bl	CyDelay
 1844              	.LVL261:
 179:./AX12.h      ****         TXC_Write(1); ///habilita rx 1
 1845              		.loc 4 179 0
 1846 0050 0120     		movs	r0, #1
 1847 0052 FFF7FEFF 		bl	TXC_Write
 1848              	.LVL262:
 180:./AX12.h      ****     	return (error_data()); 
 1849              		.loc 4 180 0
 1850 0056 FFF7FEFF 		bl	error_data
 1851              	.LVL263:
 1852 005a 2EE0     		b	.L82
 1853              	.LVL264:
 1854              	.L81:
 181:./AX12.h      ****     }
 182:./AX12.h      ****     else{
 183:./AX12.h      ****         Checksum = (~(ID + AX_GOAL_LENGTH + AX_WRITE_DATA + AX_CCW_ANGLE_LIMIT_L + AX_CCW_AL_L + AX
 1855              		.loc 4 183 0
 1856 005c 174D     		ldr	r5, .L83
 1857 005e 0300     		movs	r3, r0
 1858 0060 1233     		adds	r3, r3, #18
 1859 0062 DB43     		mvns	r3, r3
 1860 0064 2B70     		strb	r3, [r5]
 184:./AX12.h      **** 	    // Send Instructions over Serial
 185:./AX12.h      ****         //Checksum for verification data to send
 186:./AX12.h      ****         TXC_Write(2); ////habilita tx
 1861              		.loc 4 186 0
 1862 0066 0220     		movs	r0, #2
 1863              	.LVL265:
 1864 0068 FFF7FEFF 		bl	TXC_Write
 1865              	.LVL266:
 187:./AX12.h      ****     	MOTOR_PutChar(AX_START);                 
 1866              		.loc 4 187 0
 1867 006c FF20     		movs	r0, #255
 1868 006e FFF7FEFF 		bl	MOTOR_PutChar
 1869              	.LVL267:
 188:./AX12.h      ****     	MOTOR_PutChar(AX_START);
 1870              		.loc 4 188 0
 1871 0072 FF20     		movs	r0, #255
 1872 0074 FFF7FEFF 		bl	MOTOR_PutChar
 1873              	.LVL268:
 189:./AX12.h      ****     	MOTOR_PutChar(ID);
 1874              		.loc 4 189 0
ARM GAS  C:\Users\HENRYA~1\AppData\Local\Temp\cceIRlNf.s 			page 41


 1875 0078 2000     		movs	r0, r4
 1876 007a FFF7FEFF 		bl	MOTOR_PutChar
 1877              	.LVL269:
 190:./AX12.h      ****     	MOTOR_PutChar(AX_GOAL_LENGTH);
 1878              		.loc 4 190 0
 1879 007e 0520     		movs	r0, #5
 1880 0080 FFF7FEFF 		bl	MOTOR_PutChar
 1881              	.LVL270:
 191:./AX12.h      ****     	MOTOR_PutChar(AX_WRITE_DATA);
 1882              		.loc 4 191 0
 1883 0084 0320     		movs	r0, #3
 1884 0086 FFF7FEFF 		bl	MOTOR_PutChar
 1885              	.LVL271:
 192:./AX12.h      ****     	MOTOR_PutChar(AX_CCW_ANGLE_LIMIT_L);
 1886              		.loc 4 192 0
 1887 008a 0820     		movs	r0, #8
 1888 008c FFF7FEFF 		bl	MOTOR_PutChar
 1889              	.LVL272:
 193:./AX12.h      ****     	MOTOR_PutChar(AX_CCW_AL_L);
 1890              		.loc 4 193 0
 1891 0090 FF20     		movs	r0, #255
 1892 0092 FFF7FEFF 		bl	MOTOR_PutChar
 1893              	.LVL273:
 194:./AX12.h      ****     	MOTOR_PutChar(AX_CCW_AL_H);
 1894              		.loc 4 194 0
 1895 0096 0320     		movs	r0, #3
 1896 0098 FFF7FEFF 		bl	MOTOR_PutChar
 1897              	.LVL274:
 195:./AX12.h      ****     	MOTOR_PutChar(Checksum);
 1898              		.loc 4 195 0
 1899 009c 2878     		ldrb	r0, [r5]
 1900 009e FFF7FEFF 		bl	MOTOR_PutChar
 1901              	.LVL275:
 196:./AX12.h      ****     	CyDelayUs(TX_DELAY_TIME);
 1902              		.loc 4 196 0
 1903 00a2 C820     		movs	r0, #200
 1904 00a4 4000     		lsls	r0, r0, #1
 1905 00a6 FFF7FEFF 		bl	CyDelayUs
 1906              	.LVL276:
 197:./AX12.h      ****         CyDelay(5);  /// cambio de estado delay para buffer de salida
 1907              		.loc 4 197 0
 1908 00aa 0520     		movs	r0, #5
 1909 00ac FFF7FEFF 		bl	CyDelay
 1910              	.LVL277:
 198:./AX12.h      ****         TXC_Write(1); ///habilita rx 1
 1911              		.loc 4 198 0
 1912 00b0 0120     		movs	r0, #1
 1913 00b2 FFF7FEFF 		bl	TXC_Write
 1914              	.LVL278:
 199:./AX12.h      ****     	return (error_data());                 
 1915              		.loc 4 199 0
 1916 00b6 FFF7FEFF 		bl	error_data
 1917              	.LVL279:
 1918              	.L82:
 200:./AX12.h      ****     }
 201:./AX12.h      **** } 
 1919              		.loc 4 201 0
ARM GAS  C:\Users\HENRYA~1\AppData\Local\Temp\cceIRlNf.s 			page 42


 1920              		@ sp needed
 1921 00ba 70BD     		pop	{r4, r5, r6, pc}
 1922              	.L84:
 1923              		.align	2
 1924              	.L83:
 1925 00bc 00000000 		.word	Checksum
 1926              		.cfi_endproc
 1927              	.LFE58:
 1928              		.size	setEndless, .-setEndless
 1929              		.section	.text.torqueStatus,"ax",%progbits
 1930              		.align	2
 1931              		.global	torqueStatus
 1932              		.code	16
 1933              		.thumb_func
 1934              		.type	torqueStatus, %function
 1935              	torqueStatus:
 1936              	.LFB59:
 202:./AX12.h      **** 
 203:./AX12.h      **** int torqueStatus( unsigned char ID, int Status){
 1937              		.loc 4 203 0
 1938              		.cfi_startproc
 1939              		@ args = 0, pretend = 0, frame = 0
 1940              		@ frame_needed = 0, uses_anonymous_args = 0
 1941              	.LVL280:
 1942 0000 70B5     		push	{r4, r5, r6, lr}
 1943              		.cfi_def_cfa_offset 16
 1944              		.cfi_offset 4, -16
 1945              		.cfi_offset 5, -12
 1946              		.cfi_offset 6, -8
 1947              		.cfi_offset 14, -4
 1948 0002 0400     		movs	r4, r0
 204:./AX12.h      ****     Checksum = (~(ID + AX_TORQUE_LENGTH + AX_WRITE_DATA + AX_TORQUE_ENABLE + Status))&0xFF;
 1949              		.loc 4 204 0
 1950 0004 CDB2     		uxtb	r5, r1
 1951 0006 164E     		ldr	r6, .L86
 1952 0008 2B18     		adds	r3, r5, r0
 1953 000a 1F33     		adds	r3, r3, #31
 1954 000c DB43     		mvns	r3, r3
 1955 000e 3370     		strb	r3, [r6]
 205:./AX12.h      ****     // Send Instructions over Serial
 206:./AX12.h      ****     //Checksum for verification data to send
 207:./AX12.h      ****     TXC_Write(2); ////habilita tx
 1956              		.loc 4 207 0
 1957 0010 0220     		movs	r0, #2
 1958              	.LVL281:
 1959 0012 FFF7FEFF 		bl	TXC_Write
 1960              	.LVL282:
 208:./AX12.h      ****     MOTOR_PutChar(AX_START); 
 1961              		.loc 4 208 0
 1962 0016 FF20     		movs	r0, #255
 1963 0018 FFF7FEFF 		bl	MOTOR_PutChar
 1964              	.LVL283:
 209:./AX12.h      ****     MOTOR_PutChar(AX_START);
 1965              		.loc 4 209 0
 1966 001c FF20     		movs	r0, #255
 1967 001e FFF7FEFF 		bl	MOTOR_PutChar
 1968              	.LVL284:
ARM GAS  C:\Users\HENRYA~1\AppData\Local\Temp\cceIRlNf.s 			page 43


 210:./AX12.h      ****     MOTOR_PutChar(ID);
 1969              		.loc 4 210 0
 1970 0022 2000     		movs	r0, r4
 1971 0024 FFF7FEFF 		bl	MOTOR_PutChar
 1972              	.LVL285:
 211:./AX12.h      ****     MOTOR_PutChar(AX_TORQUE_LENGTH);
 1973              		.loc 4 211 0
 1974 0028 0420     		movs	r0, #4
 1975 002a FFF7FEFF 		bl	MOTOR_PutChar
 1976              	.LVL286:
 212:./AX12.h      ****     MOTOR_PutChar(AX_WRITE_DATA);
 1977              		.loc 4 212 0
 1978 002e 0320     		movs	r0, #3
 1979 0030 FFF7FEFF 		bl	MOTOR_PutChar
 1980              	.LVL287:
 213:./AX12.h      ****     MOTOR_PutChar(AX_TORQUE_ENABLE);
 1981              		.loc 4 213 0
 1982 0034 1820     		movs	r0, #24
 1983 0036 FFF7FEFF 		bl	MOTOR_PutChar
 1984              	.LVL288:
 214:./AX12.h      ****     MOTOR_PutChar(Status);
 1985              		.loc 4 214 0
 1986 003a 2800     		movs	r0, r5
 1987 003c FFF7FEFF 		bl	MOTOR_PutChar
 1988              	.LVL289:
 215:./AX12.h      ****     MOTOR_PutChar(Checksum);
 1989              		.loc 4 215 0
 1990 0040 3078     		ldrb	r0, [r6]
 1991 0042 FFF7FEFF 		bl	MOTOR_PutChar
 1992              	.LVL290:
 216:./AX12.h      ****     CyDelayUs(TX_DELAY_TIME);
 1993              		.loc 4 216 0
 1994 0046 C820     		movs	r0, #200
 1995 0048 4000     		lsls	r0, r0, #1
 1996 004a FFF7FEFF 		bl	CyDelayUs
 1997              	.LVL291:
 217:./AX12.h      ****     CyDelay(5);  /// cambio de estado delay para buffer de salida
 1998              		.loc 4 217 0
 1999 004e 0520     		movs	r0, #5
 2000 0050 FFF7FEFF 		bl	CyDelay
 2001              	.LVL292:
 218:./AX12.h      ****     TXC_Write(1); ///habilita rx 1
 2002              		.loc 4 218 0
 2003 0054 0120     		movs	r0, #1
 2004 0056 FFF7FEFF 		bl	TXC_Write
 2005              	.LVL293:
 219:./AX12.h      ****     // Return the read error
 220:./AX12.h      ****     return (error_data());               
 2006              		.loc 4 220 0
 2007 005a FFF7FEFF 		bl	error_data
 2008              	.LVL294:
 221:./AX12.h      **** }
 2009              		.loc 4 221 0
 2010              		@ sp needed
 2011 005e 70BD     		pop	{r4, r5, r6, pc}
 2012              	.L87:
 2013              		.align	2
ARM GAS  C:\Users\HENRYA~1\AppData\Local\Temp\cceIRlNf.s 			page 44


 2014              	.L86:
 2015 0060 00000000 		.word	Checksum
 2016              		.cfi_endproc
 2017              	.LFE59:
 2018              		.size	torqueStatus, .-torqueStatus
 2019              		.section	.text.MoveSpeed,"ax",%progbits
 2020              		.align	2
 2021              		.global	MoveSpeed
 2022              		.code	16
 2023              		.thumb_func
 2024              		.type	MoveSpeed, %function
 2025              	MoveSpeed:
 2026              	.LFB60:
 222:./AX12.h      **** 
 223:./AX12.h      **** int MoveSpeed(unsigned char ID, int Position, int Speed){
 2027              		.loc 4 223 0
 2028              		.cfi_startproc
 2029              		@ args = 0, pretend = 0, frame = 8
 2030              		@ frame_needed = 0, uses_anonymous_args = 0
 2031              	.LVL295:
 2032 0000 F0B5     		push	{r4, r5, r6, r7, lr}
 2033              		.cfi_def_cfa_offset 20
 2034              		.cfi_offset 4, -20
 2035              		.cfi_offset 5, -16
 2036              		.cfi_offset 6, -12
 2037              		.cfi_offset 7, -8
 2038              		.cfi_offset 14, -4
 2039 0002 4746     		mov	r7, r8
 2040 0004 80B4     		push	{r7}
 2041              		.cfi_def_cfa_offset 24
 2042              		.cfi_offset 8, -24
 2043 0006 82B0     		sub	sp, sp, #8
 2044              		.cfi_def_cfa_offset 32
 224:./AX12.h      ****     char Position_H,Position_L,Speed_H,Speed_L;
 225:./AX12.h      ****     //Shift register 16 bits
 226:./AX12.h      ****     Position_H = Position >> 8;    
 2045              		.loc 4 226 0
 2046 0008 0B12     		asrs	r3, r1, #8
 2047 000a DBB2     		uxtb	r3, r3
 2048 000c 9846     		mov	r8, r3
 2049              	.LVL296:
 227:./AX12.h      ****     Position_L = Position;                
 2050              		.loc 4 227 0
 2051 000e CEB2     		uxtb	r6, r1
 2052              	.LVL297:
 228:./AX12.h      ****     //Shift register 16 bits
 229:./AX12.h      ****     Speed_H = Speed >> 8;
 2053              		.loc 4 229 0
 2054 0010 1712     		asrs	r7, r2, #8
 2055 0012 FFB2     		uxtb	r7, r7
 2056              	.LVL298:
 230:./AX12.h      ****     Speed_L = Speed;        
 2057              		.loc 4 230 0
 2058 0014 D4B2     		uxtb	r4, r2
 2059              	.LVL299:
 231:./AX12.h      ****     //Checksum for verification data to send
 232:./AX12.h      **** 	Checksum = (~(ID + AX_GOAL_SP_LENGTH + AX_WRITE_DATA + AX_GOAL_POSITION_L + Position_L + Position_
ARM GAS  C:\Users\HENRYA~1\AppData\Local\Temp\cceIRlNf.s 			page 45


 2060              		.loc 4 232 0
 2061 0016 1E4D     		ldr	r5, .L89
 2062 0018 0190     		str	r0, [sp, #4]
 2063 001a 3318     		adds	r3, r6, r0
 2064 001c 4344     		add	r3, r3, r8
 2065 001e E318     		adds	r3, r4, r3
 2066 0020 FB18     		adds	r3, r7, r3
 2067 0022 2833     		adds	r3, r3, #40
 2068 0024 DB43     		mvns	r3, r3
 2069 0026 2B70     		strb	r3, [r5]
 233:./AX12.h      ****     // Send Instructions over Serial
 234:./AX12.h      ****     TXC_Write(2); ////habilita tx
 2070              		.loc 4 234 0
 2071 0028 0220     		movs	r0, #2
 2072              	.LVL300:
 2073 002a FFF7FEFF 		bl	TXC_Write
 2074              	.LVL301:
 235:./AX12.h      ****     MOTOR_PutChar(AX_START);
 2075              		.loc 4 235 0
 2076 002e FF20     		movs	r0, #255
 2077 0030 FFF7FEFF 		bl	MOTOR_PutChar
 2078              	.LVL302:
 236:./AX12.h      ****     MOTOR_PutChar(AX_START);
 2079              		.loc 4 236 0
 2080 0034 FF20     		movs	r0, #255
 2081 0036 FFF7FEFF 		bl	MOTOR_PutChar
 2082              	.LVL303:
 237:./AX12.h      ****     MOTOR_PutChar(ID);
 2083              		.loc 4 237 0
 2084 003a 0198     		ldr	r0, [sp, #4]
 2085 003c FFF7FEFF 		bl	MOTOR_PutChar
 2086              	.LVL304:
 238:./AX12.h      ****     MOTOR_PutChar(AX_GOAL_SP_LENGTH);
 2087              		.loc 4 238 0
 2088 0040 0720     		movs	r0, #7
 2089 0042 FFF7FEFF 		bl	MOTOR_PutChar
 2090              	.LVL305:
 239:./AX12.h      ****     MOTOR_PutChar(AX_WRITE_DATA);
 2091              		.loc 4 239 0
 2092 0046 0320     		movs	r0, #3
 2093 0048 FFF7FEFF 		bl	MOTOR_PutChar
 2094              	.LVL306:
 240:./AX12.h      ****     MOTOR_PutChar(AX_GOAL_POSITION_L);
 2095              		.loc 4 240 0
 2096 004c 1E20     		movs	r0, #30
 2097 004e FFF7FEFF 		bl	MOTOR_PutChar
 2098              	.LVL307:
 241:./AX12.h      ****     MOTOR_PutChar(Position_L);
 2099              		.loc 4 241 0
 2100 0052 3000     		movs	r0, r6
 2101 0054 FFF7FEFF 		bl	MOTOR_PutChar
 2102              	.LVL308:
 242:./AX12.h      ****     MOTOR_PutChar(Position_H);
 2103              		.loc 4 242 0
 2104 0058 4046     		mov	r0, r8
 2105 005a FFF7FEFF 		bl	MOTOR_PutChar
 2106              	.LVL309:
ARM GAS  C:\Users\HENRYA~1\AppData\Local\Temp\cceIRlNf.s 			page 46


 243:./AX12.h      ****     MOTOR_PutChar(Speed_L);
 2107              		.loc 4 243 0
 2108 005e 2000     		movs	r0, r4
 2109 0060 FFF7FEFF 		bl	MOTOR_PutChar
 2110              	.LVL310:
 244:./AX12.h      ****     MOTOR_PutChar(Speed_H);
 2111              		.loc 4 244 0
 2112 0064 3800     		movs	r0, r7
 2113 0066 FFF7FEFF 		bl	MOTOR_PutChar
 2114              	.LVL311:
 245:./AX12.h      ****     MOTOR_PutChar(Checksum);
 2115              		.loc 4 245 0
 2116 006a 2878     		ldrb	r0, [r5]
 2117 006c FFF7FEFF 		bl	MOTOR_PutChar
 2118              	.LVL312:
 246:./AX12.h      ****     CyDelayUs(TX_DELAY_TIME);
 2119              		.loc 4 246 0
 2120 0070 C820     		movs	r0, #200
 2121 0072 4000     		lsls	r0, r0, #1
 2122 0074 FFF7FEFF 		bl	CyDelayUs
 2123              	.LVL313:
 247:./AX12.h      ****     CyDelay(5);  /// cambio de estado delay para buffer de salida
 2124              		.loc 4 247 0
 2125 0078 0520     		movs	r0, #5
 2126 007a FFF7FEFF 		bl	CyDelay
 2127              	.LVL314:
 248:./AX12.h      ****     TXC_Write(1); ///habilita rx 1
 2128              		.loc 4 248 0
 2129 007e 0120     		movs	r0, #1
 2130 0080 FFF7FEFF 		bl	TXC_Write
 2131              	.LVL315:
 249:./AX12.h      ****     return (error_data());                
 2132              		.loc 4 249 0
 2133 0084 FFF7FEFF 		bl	error_data
 2134              	.LVL316:
 250:./AX12.h      **** }
 2135              		.loc 4 250 0
 2136 0088 02B0     		add	sp, sp, #8
 2137              		@ sp needed
 2138              	.LVL317:
 2139              	.LVL318:
 2140              	.LVL319:
 2141              	.LVL320:
 2142 008a 04BC     		pop	{r2}
 2143 008c 9046     		mov	r8, r2
 2144 008e F0BD     		pop	{r4, r5, r6, r7, pc}
 2145              	.L90:
 2146              		.align	2
 2147              	.L89:
 2148 0090 00000000 		.word	Checksum
 2149              		.cfi_endproc
 2150              	.LFE60:
 2151              		.size	MoveSpeed, .-MoveSpeed
 2152              		.section	.text.moveRW,"ax",%progbits
 2153              		.align	2
 2154              		.global	moveRW
 2155              		.code	16
ARM GAS  C:\Users\HENRYA~1\AppData\Local\Temp\cceIRlNf.s 			page 47


 2156              		.thumb_func
 2157              		.type	moveRW, %function
 2158              	moveRW:
 2159              	.LFB61:
 251:./AX12.h      **** 
 252:./AX12.h      **** int moveRW(unsigned char ID, int Position){
 2160              		.loc 4 252 0
 2161              		.cfi_startproc
 2162              		@ args = 0, pretend = 0, frame = 0
 2163              		@ frame_needed = 0, uses_anonymous_args = 0
 2164              	.LVL321:
 2165 0000 F8B5     		push	{r3, r4, r5, r6, r7, lr}
 2166              		.cfi_def_cfa_offset 24
 2167              		.cfi_offset 3, -24
 2168              		.cfi_offset 4, -20
 2169              		.cfi_offset 5, -16
 2170              		.cfi_offset 6, -12
 2171              		.cfi_offset 7, -8
 2172              		.cfi_offset 14, -4
 2173 0002 0400     		movs	r4, r0
 253:./AX12.h      ****     char Position_H,Position_L;
 254:./AX12.h      ****     //Shift register 16 bits
 255:./AX12.h      ****     Position_H = Position >> 8;           
 2174              		.loc 4 255 0
 2175 0004 0E12     		asrs	r6, r1, #8
 2176 0006 F6B2     		uxtb	r6, r6
 2177              	.LVL322:
 256:./AX12.h      ****     Position_L = Position;
 2178              		.loc 4 256 0
 2179 0008 CDB2     		uxtb	r5, r1
 2180              	.LVL323:
 257:./AX12.h      ****     //Checksum for verification data to send
 258:./AX12.h      ****     Checksum = (~(ID + AX_GOAL_LENGTH + AX_REG_WRITE + AX_GOAL_POSITION_L + Position_L + Position_H
 2181              		.loc 4 258 0
 2182 000a 184F     		ldr	r7, .L92
 2183 000c 2B18     		adds	r3, r5, r0
 2184 000e F318     		adds	r3, r6, r3
 2185 0010 2733     		adds	r3, r3, #39
 2186 0012 DB43     		mvns	r3, r3
 2187 0014 3B70     		strb	r3, [r7]
 259:./AX12.h      ****     // Send Instructions over Serial
 260:./AX12.h      ****     TXC_Write(2); ////habilita tx
 2188              		.loc 4 260 0
 2189 0016 0220     		movs	r0, #2
 2190              	.LVL324:
 2191 0018 FFF7FEFF 		bl	TXC_Write
 2192              	.LVL325:
 261:./AX12.h      ****     MOTOR_PutChar(AX_START); 
 2193              		.loc 4 261 0
 2194 001c FF20     		movs	r0, #255
 2195 001e FFF7FEFF 		bl	MOTOR_PutChar
 2196              	.LVL326:
 262:./AX12.h      ****     MOTOR_PutChar(AX_START);
 2197              		.loc 4 262 0
 2198 0022 FF20     		movs	r0, #255
 2199 0024 FFF7FEFF 		bl	MOTOR_PutChar
 2200              	.LVL327:
ARM GAS  C:\Users\HENRYA~1\AppData\Local\Temp\cceIRlNf.s 			page 48


 263:./AX12.h      ****     MOTOR_PutChar(ID);
 2201              		.loc 4 263 0
 2202 0028 2000     		movs	r0, r4
 2203 002a FFF7FEFF 		bl	MOTOR_PutChar
 2204              	.LVL328:
 264:./AX12.h      ****     MOTOR_PutChar(AX_GOAL_LENGTH);
 2205              		.loc 4 264 0
 2206 002e 0520     		movs	r0, #5
 2207 0030 FFF7FEFF 		bl	MOTOR_PutChar
 2208              	.LVL329:
 265:./AX12.h      ****     MOTOR_PutChar(AX_REG_WRITE);
 2209              		.loc 4 265 0
 2210 0034 0420     		movs	r0, #4
 2211 0036 FFF7FEFF 		bl	MOTOR_PutChar
 2212              	.LVL330:
 266:./AX12.h      ****     MOTOR_PutChar(AX_GOAL_POSITION_L);
 2213              		.loc 4 266 0
 2214 003a 1E20     		movs	r0, #30
 2215 003c FFF7FEFF 		bl	MOTOR_PutChar
 2216              	.LVL331:
 267:./AX12.h      ****     MOTOR_PutChar(Position_L);
 2217              		.loc 4 267 0
 2218 0040 2800     		movs	r0, r5
 2219 0042 FFF7FEFF 		bl	MOTOR_PutChar
 2220              	.LVL332:
 268:./AX12.h      ****     MOTOR_PutChar(Position_H);
 2221              		.loc 4 268 0
 2222 0046 3000     		movs	r0, r6
 2223 0048 FFF7FEFF 		bl	MOTOR_PutChar
 2224              	.LVL333:
 269:./AX12.h      ****     MOTOR_PutChar(Checksum);
 2225              		.loc 4 269 0
 2226 004c 3878     		ldrb	r0, [r7]
 2227 004e FFF7FEFF 		bl	MOTOR_PutChar
 2228              	.LVL334:
 270:./AX12.h      **** 	CyDelayUs(TX_DELAY_TIME);
 2229              		.loc 4 270 0
 2230 0052 C820     		movs	r0, #200
 2231 0054 4000     		lsls	r0, r0, #1
 2232 0056 FFF7FEFF 		bl	CyDelayUs
 2233              	.LVL335:
 271:./AX12.h      ****     CyDelay(5);  /// cambio de estado delay para buffer de salida
 2234              		.loc 4 271 0
 2235 005a 0520     		movs	r0, #5
 2236 005c FFF7FEFF 		bl	CyDelay
 2237              	.LVL336:
 272:./AX12.h      ****     TXC_Write(1); ///habilita rx 1
 2238              		.loc 4 272 0
 2239 0060 0120     		movs	r0, #1
 2240 0062 FFF7FEFF 		bl	TXC_Write
 2241              	.LVL337:
 273:./AX12.h      ****     return (error_data());                  
 2242              		.loc 4 273 0
 2243 0066 FFF7FEFF 		bl	error_data
 2244              	.LVL338:
 274:./AX12.h      **** }
 2245              		.loc 4 274 0
ARM GAS  C:\Users\HENRYA~1\AppData\Local\Temp\cceIRlNf.s 			page 49


 2246              		@ sp needed
 2247              	.LVL339:
 2248              	.LVL340:
 2249 006a F8BD     		pop	{r3, r4, r5, r6, r7, pc}
 2250              	.L93:
 2251              		.align	2
 2252              	.L92:
 2253 006c 00000000 		.word	Checksum
 2254              		.cfi_endproc
 2255              	.LFE61:
 2256              		.size	moveRW, .-moveRW
 2257              		.section	.text.action,"ax",%progbits
 2258              		.align	2
 2259              		.global	action
 2260              		.code	16
 2261              		.thumb_func
 2262              		.type	action, %function
 2263              	action:
 2264              	.LFB62:
 275:./AX12.h      **** 
 276:./AX12.h      **** void action(){
 2265              		.loc 4 276 0
 2266              		.cfi_startproc
 2267              		@ args = 0, pretend = 0, frame = 0
 2268              		@ frame_needed = 0, uses_anonymous_args = 0
 2269 0000 10B5     		push	{r4, lr}
 2270              		.cfi_def_cfa_offset 8
 2271              		.cfi_offset 4, -8
 2272              		.cfi_offset 14, -4
 277:./AX12.h      **** 	// Send Instructions over Serial
 278:./AX12.h      ****     TXC_Write(2); ////habilita tx
 2273              		.loc 4 278 0
 2274 0002 0220     		movs	r0, #2
 2275 0004 FFF7FEFF 		bl	TXC_Write
 2276              	.LVL341:
 279:./AX12.h      ****     MOTOR_PutChar(AX_START);                
 2277              		.loc 4 279 0
 2278 0008 FF20     		movs	r0, #255
 2279 000a FFF7FEFF 		bl	MOTOR_PutChar
 2280              	.LVL342:
 280:./AX12.h      ****     MOTOR_PutChar(AX_START);
 2281              		.loc 4 280 0
 2282 000e FF20     		movs	r0, #255
 2283 0010 FFF7FEFF 		bl	MOTOR_PutChar
 2284              	.LVL343:
 281:./AX12.h      ****     MOTOR_PutChar(BROADCAST_ID);
 2285              		.loc 4 281 0
 2286 0014 FE20     		movs	r0, #254
 2287 0016 FFF7FEFF 		bl	MOTOR_PutChar
 2288              	.LVL344:
 282:./AX12.h      ****     MOTOR_PutChar(AX_ACTION_LENGTH);
 2289              		.loc 4 282 0
 2290 001a 0220     		movs	r0, #2
 2291 001c FFF7FEFF 		bl	MOTOR_PutChar
 2292              	.LVL345:
 283:./AX12.h      ****     MOTOR_PutChar(AX_ACTION);
 2293              		.loc 4 283 0
ARM GAS  C:\Users\HENRYA~1\AppData\Local\Temp\cceIRlNf.s 			page 50


 2294 0020 0520     		movs	r0, #5
 2295 0022 FFF7FEFF 		bl	MOTOR_PutChar
 2296              	.LVL346:
 284:./AX12.h      ****     MOTOR_PutChar(AX_ACTION_CHECKSUM);
 2297              		.loc 4 284 0
 2298 0026 FA20     		movs	r0, #250
 2299 0028 FFF7FEFF 		bl	MOTOR_PutChar
 2300              	.LVL347:
 285:./AX12.h      **** 	CyDelayUs(TX_DELAY_TIME);
 2301              		.loc 4 285 0
 2302 002c C820     		movs	r0, #200
 2303 002e 4000     		lsls	r0, r0, #1
 2304 0030 FFF7FEFF 		bl	CyDelayUs
 2305              	.LVL348:
 286:./AX12.h      ****     CyDelay(5);  /// cambio de estado delay para buffer de salida
 2306              		.loc 4 286 0
 2307 0034 0520     		movs	r0, #5
 2308 0036 FFF7FEFF 		bl	CyDelay
 2309              	.LVL349:
 287:./AX12.h      ****     TXC_Write(1); ///habilita rx 1
 2310              		.loc 4 287 0
 2311 003a 0120     		movs	r0, #1
 2312 003c FFF7FEFF 		bl	TXC_Write
 2313              	.LVL350:
 288:./AX12.h      **** }
 2314              		.loc 4 288 0
 2315              		@ sp needed
 2316 0040 10BD     		pop	{r4, pc}
 2317              		.cfi_endproc
 2318              	.LFE62:
 2319              		.size	action, .-action
 2320 0042 C046     		.section	.text.turn,"ax",%progbits
 2321              		.align	2
 2322              		.global	turn
 2323              		.code	16
 2324              		.thumb_func
 2325              		.type	turn, %function
 2326              	turn:
 2327              	.LFB63:
 289:./AX12.h      **** 
 290:./AX12.h      **** int turn(unsigned char ID, int SIDE, int Speed){	
 2328              		.loc 4 290 0
 2329              		.cfi_startproc
 2330              		@ args = 0, pretend = 0, frame = 0
 2331              		@ frame_needed = 0, uses_anonymous_args = 0
 2332              	.LVL351:
 2333 0000 F8B5     		push	{r3, r4, r5, r6, r7, lr}
 2334              		.cfi_def_cfa_offset 24
 2335              		.cfi_offset 3, -24
 2336              		.cfi_offset 4, -20
 2337              		.cfi_offset 5, -16
 2338              		.cfi_offset 6, -12
 2339              		.cfi_offset 7, -8
 2340              		.cfi_offset 14, -4
 2341 0002 0500     		movs	r5, r0
 291:./AX12.h      ****     if (SIDE == 0){    
 2342              		.loc 4 291 0
ARM GAS  C:\Users\HENRYA~1\AppData\Local\Temp\cceIRlNf.s 			page 51


 2343 0004 0029     		cmp	r1, #0
 2344 0006 33D1     		bne	.L96
 2345              	.LBB2:
 292:./AX12.h      ****         //Left Move
 293:./AX12.h      **** 		char Speed_H,Speed_L;
 294:./AX12.h      ****         //Shift register 16 bits
 295:./AX12.h      **** 		Speed_H = Speed >> 8;
 2346              		.loc 4 295 0
 2347 0008 1612     		asrs	r6, r2, #8
 2348 000a F6B2     		uxtb	r6, r6
 2349              	.LVL352:
 296:./AX12.h      **** 		Speed_L = Speed;        
 2350              		.loc 4 296 0
 2351 000c D4B2     		uxtb	r4, r2
 2352              	.LVL353:
 297:./AX12.h      ****         //Checksum for verification data to send
 298:./AX12.h      **** 		Checksum = (~(ID + AX_SPEED_LENGTH + AX_WRITE_DATA + AX_GOAL_SPEED_L + Speed_L + Speed_H))&0xFF;
 2353              		.loc 4 298 0
 2354 000e 334F     		ldr	r7, .L98
 2355 0010 2318     		adds	r3, r4, r0
 2356 0012 F318     		adds	r3, r6, r3
 2357 0014 2833     		adds	r3, r3, #40
 2358 0016 DB43     		mvns	r3, r3
 2359 0018 3B70     		strb	r3, [r7]
 299:./AX12.h      **** 		// Send Instructions over Serial
 300:./AX12.h      ****         TXC_Write(2); ////habilita tx
 2360              		.loc 4 300 0
 2361 001a 0220     		movs	r0, #2
 2362              	.LVL354:
 2363 001c FFF7FEFF 		bl	TXC_Write
 2364              	.LVL355:
 301:./AX12.h      **** 		MOTOR_PutChar(AX_START);                
 2365              		.loc 4 301 0
 2366 0020 FF20     		movs	r0, #255
 2367 0022 FFF7FEFF 		bl	MOTOR_PutChar
 2368              	.LVL356:
 302:./AX12.h      **** 		MOTOR_PutChar(AX_START);
 2369              		.loc 4 302 0
 2370 0026 FF20     		movs	r0, #255
 2371 0028 FFF7FEFF 		bl	MOTOR_PutChar
 2372              	.LVL357:
 303:./AX12.h      **** 		MOTOR_PutChar(ID);
 2373              		.loc 4 303 0
 2374 002c 2800     		movs	r0, r5
 2375 002e FFF7FEFF 		bl	MOTOR_PutChar
 2376              	.LVL358:
 304:./AX12.h      **** 		MOTOR_PutChar(AX_SPEED_LENGTH);
 2377              		.loc 4 304 0
 2378 0032 0520     		movs	r0, #5
 2379 0034 FFF7FEFF 		bl	MOTOR_PutChar
 2380              	.LVL359:
 305:./AX12.h      **** 		MOTOR_PutChar(AX_WRITE_DATA);
 2381              		.loc 4 305 0
 2382 0038 0320     		movs	r0, #3
 2383 003a FFF7FEFF 		bl	MOTOR_PutChar
 2384              	.LVL360:
 306:./AX12.h      **** 		MOTOR_PutChar(AX_GOAL_SPEED_L);
ARM GAS  C:\Users\HENRYA~1\AppData\Local\Temp\cceIRlNf.s 			page 52


 2385              		.loc 4 306 0
 2386 003e 2020     		movs	r0, #32
 2387 0040 FFF7FEFF 		bl	MOTOR_PutChar
 2388              	.LVL361:
 307:./AX12.h      **** 		MOTOR_PutChar(Speed_L);
 2389              		.loc 4 307 0
 2390 0044 2000     		movs	r0, r4
 2391 0046 FFF7FEFF 		bl	MOTOR_PutChar
 2392              	.LVL362:
 308:./AX12.h      **** 		MOTOR_PutChar(Speed_H);
 2393              		.loc 4 308 0
 2394 004a 3000     		movs	r0, r6
 2395 004c FFF7FEFF 		bl	MOTOR_PutChar
 2396              	.LVL363:
 309:./AX12.h      **** 		MOTOR_PutChar(Checksum);
 2397              		.loc 4 309 0
 2398 0050 3878     		ldrb	r0, [r7]
 2399 0052 FFF7FEFF 		bl	MOTOR_PutChar
 2400              	.LVL364:
 310:./AX12.h      **** 		CyDelayUs(TX_DELAY_TIME);
 2401              		.loc 4 310 0
 2402 0056 C820     		movs	r0, #200
 2403 0058 4000     		lsls	r0, r0, #1
 2404 005a FFF7FEFF 		bl	CyDelayUs
 2405              	.LVL365:
 311:./AX12.h      ****         CyDelay(5);  /// cambio de estado delay para buffer de salida
 2406              		.loc 4 311 0
 2407 005e 0520     		movs	r0, #5
 2408 0060 FFF7FEFF 		bl	CyDelay
 2409              	.LVL366:
 312:./AX12.h      ****         TXC_Write(1); ///habilita rx 1
 2410              		.loc 4 312 0
 2411 0064 0120     		movs	r0, #1
 2412 0066 FFF7FEFF 		bl	TXC_Write
 2413              	.LVL367:
 313:./AX12.h      **** 		return (error_data()); 
 2414              		.loc 4 313 0
 2415 006a FFF7FEFF 		bl	error_data
 2416              	.LVL368:
 2417 006e 33E0     		b	.L97
 2418              	.LVL369:
 2419              	.L96:
 2420              	.LBE2:
 2421              	.LBB3:
 314:./AX12.h      ****         }
 315:./AX12.h      **** 		else{ 
 316:./AX12.h      ****             // Rigth Move
 317:./AX12.h      **** 			char Speed_H,Speed_L;
 318:./AX12.h      ****             //Shift register 16 bits
 319:./AX12.h      **** 			Speed_H = (Speed >> 8) + 4;
 2422              		.loc 4 319 0
 2423 0070 1612     		asrs	r6, r2, #8
 2424 0072 0436     		adds	r6, r6, #4
 2425 0074 F6B2     		uxtb	r6, r6
 2426              	.LVL370:
 320:./AX12.h      **** 			Speed_L = Speed;              
 2427              		.loc 4 320 0
ARM GAS  C:\Users\HENRYA~1\AppData\Local\Temp\cceIRlNf.s 			page 53


 2428 0076 D4B2     		uxtb	r4, r2
 2429              	.LVL371:
 321:./AX12.h      ****             //Checksum for verification data to send
 322:./AX12.h      **** 			Checksum = (~(ID + AX_SPEED_LENGTH + AX_WRITE_DATA + AX_GOAL_SPEED_L + Speed_L + Speed_H))&0xFF;
 2430              		.loc 4 322 0
 2431 0078 184F     		ldr	r7, .L98
 2432 007a 0319     		adds	r3, r0, r4
 2433 007c F318     		adds	r3, r6, r3
 2434 007e 2833     		adds	r3, r3, #40
 2435 0080 DB43     		mvns	r3, r3
 2436 0082 3B70     		strb	r3, [r7]
 323:./AX12.h      **** 			// Send Instructions over Serial
 324:./AX12.h      ****             TXC_Write(2); ////habilita tx
 2437              		.loc 4 324 0
 2438 0084 0220     		movs	r0, #2
 2439              	.LVL372:
 2440 0086 FFF7FEFF 		bl	TXC_Write
 2441              	.LVL373:
 325:./AX12.h      **** 			MOTOR_PutChar(AX_START);                
 2442              		.loc 4 325 0
 2443 008a FF20     		movs	r0, #255
 2444 008c FFF7FEFF 		bl	MOTOR_PutChar
 2445              	.LVL374:
 326:./AX12.h      **** 			MOTOR_PutChar(AX_START);
 2446              		.loc 4 326 0
 2447 0090 FF20     		movs	r0, #255
 2448 0092 FFF7FEFF 		bl	MOTOR_PutChar
 2449              	.LVL375:
 327:./AX12.h      **** 			MOTOR_PutChar(ID);
 2450              		.loc 4 327 0
 2451 0096 2800     		movs	r0, r5
 2452 0098 FFF7FEFF 		bl	MOTOR_PutChar
 2453              	.LVL376:
 328:./AX12.h      **** 			MOTOR_PutChar(AX_SPEED_LENGTH);
 2454              		.loc 4 328 0
 2455 009c 0520     		movs	r0, #5
 2456 009e FFF7FEFF 		bl	MOTOR_PutChar
 2457              	.LVL377:
 329:./AX12.h      **** 			MOTOR_PutChar(AX_WRITE_DATA);
 2458              		.loc 4 329 0
 2459 00a2 0320     		movs	r0, #3
 2460 00a4 FFF7FEFF 		bl	MOTOR_PutChar
 2461              	.LVL378:
 330:./AX12.h      **** 			MOTOR_PutChar(AX_GOAL_SPEED_L);
 2462              		.loc 4 330 0
 2463 00a8 2020     		movs	r0, #32
 2464 00aa FFF7FEFF 		bl	MOTOR_PutChar
 2465              	.LVL379:
 331:./AX12.h      **** 			MOTOR_PutChar(Speed_L);
 2466              		.loc 4 331 0
 2467 00ae 2000     		movs	r0, r4
 2468 00b0 FFF7FEFF 		bl	MOTOR_PutChar
 2469              	.LVL380:
 332:./AX12.h      **** 			MOTOR_PutChar(Speed_H);
 2470              		.loc 4 332 0
 2471 00b4 3000     		movs	r0, r6
 2472 00b6 FFF7FEFF 		bl	MOTOR_PutChar
ARM GAS  C:\Users\HENRYA~1\AppData\Local\Temp\cceIRlNf.s 			page 54


 2473              	.LVL381:
 333:./AX12.h      **** 			MOTOR_PutChar(Checksum);
 2474              		.loc 4 333 0
 2475 00ba 3878     		ldrb	r0, [r7]
 2476 00bc FFF7FEFF 		bl	MOTOR_PutChar
 2477              	.LVL382:
 334:./AX12.h      **** 			CyDelayUs(TX_DELAY_TIME);
 2478              		.loc 4 334 0
 2479 00c0 C820     		movs	r0, #200
 2480 00c2 4000     		lsls	r0, r0, #1
 2481 00c4 FFF7FEFF 		bl	CyDelayUs
 2482              	.LVL383:
 335:./AX12.h      ****             CyDelay(5);  /// cambio de estado delay para buffer de salida
 2483              		.loc 4 335 0
 2484 00c8 0520     		movs	r0, #5
 2485 00ca FFF7FEFF 		bl	CyDelay
 2486              	.LVL384:
 336:./AX12.h      ****             TXC_Write(1); ///habilita rx 1	
 2487              		.loc 4 336 0
 2488 00ce 0120     		movs	r0, #1
 2489 00d0 FFF7FEFF 		bl	TXC_Write
 2490              	.LVL385:
 337:./AX12.h      **** 			return (error_data());                	
 2491              		.loc 4 337 0
 2492 00d4 FFF7FEFF 		bl	error_data
 2493              	.LVL386:
 2494              	.L97:
 2495              	.LBE3:
 338:./AX12.h      **** 		}
 339:./AX12.h      **** }
 2496              		.loc 4 339 0
 2497              		@ sp needed
 2498 00d8 F8BD     		pop	{r3, r4, r5, r6, r7, pc}
 2499              	.L99:
 2500 00da C046     		.align	2
 2501              	.L98:
 2502 00dc 00000000 		.word	Checksum
 2503              		.cfi_endproc
 2504              	.LFE63:
 2505              		.size	turn, .-turn
 2506              		.section	.text.readPosition,"ax",%progbits
 2507              		.align	2
 2508              		.global	readPosition
 2509              		.code	16
 2510              		.thumb_func
 2511              		.type	readPosition, %function
 2512              	readPosition:
 2513              	.LFB64:
 340:./AX12.h      **** 
 341:./AX12.h      **** int readPosition (unsigned char ID){
 2514              		.loc 4 341 0
 2515              		.cfi_startproc
 2516              		@ args = 0, pretend = 0, frame = 0
 2517              		@ frame_needed = 0, uses_anonymous_args = 0
 2518              	.LVL387:
 2519 0000 70B5     		push	{r4, r5, r6, lr}
 2520              		.cfi_def_cfa_offset 16
ARM GAS  C:\Users\HENRYA~1\AppData\Local\Temp\cceIRlNf.s 			page 55


 2521              		.cfi_offset 4, -16
 2522              		.cfi_offset 5, -12
 2523              		.cfi_offset 6, -8
 2524              		.cfi_offset 14, -4
 2525 0002 0500     		movs	r5, r0
 2526              	.LVL388:
 342:./AX12.h      ****     int data=0;
 343:./AX12.h      ****     RX_ClearRxBuffer();
 2527              		.loc 4 343 0
 2528 0004 FFF7FEFF 		bl	RX_ClearRxBuffer
 2529              	.LVL389:
 344:./AX12.h      ****     Checksum = (~(ID + AX_POS_LENGTH  + AX_READ_DATA + AX_PRESENT_POSITION_L + AX_BYTE_READ_POS))&0
 2530              		.loc 4 344 0
 2531 0008 404C     		ldr	r4, .L106
 2532 000a 2B00     		movs	r3, r5
 2533 000c 2C33     		adds	r3, r3, #44
 2534 000e DB43     		mvns	r3, r3
 2535 0010 2370     		strb	r3, [r4]
 345:./AX12.h      ****     TXC_Write(2); ////habilita tx
 2536              		.loc 4 345 0
 2537 0012 0220     		movs	r0, #2
 2538 0014 FFF7FEFF 		bl	TXC_Write
 2539              	.LVL390:
 346:./AX12.h      ****     MOTOR_PutChar(AX_START);
 2540              		.loc 4 346 0
 2541 0018 FF20     		movs	r0, #255
 2542 001a FFF7FEFF 		bl	MOTOR_PutChar
 2543              	.LVL391:
 347:./AX12.h      ****     MOTOR_PutChar(AX_START);
 2544              		.loc 4 347 0
 2545 001e FF20     		movs	r0, #255
 2546 0020 FFF7FEFF 		bl	MOTOR_PutChar
 2547              	.LVL392:
 348:./AX12.h      ****     MOTOR_PutChar(ID);
 2548              		.loc 4 348 0
 2549 0024 2800     		movs	r0, r5
 2550 0026 FFF7FEFF 		bl	MOTOR_PutChar
 2551              	.LVL393:
 349:./AX12.h      ****     MOTOR_PutChar(AX_POS_LENGTH);
 2552              		.loc 4 349 0
 2553 002a 0420     		movs	r0, #4
 2554 002c FFF7FEFF 		bl	MOTOR_PutChar
 2555              	.LVL394:
 350:./AX12.h      ****     MOTOR_PutChar(AX_READ_DATA);
 2556              		.loc 4 350 0
 2557 0030 0220     		movs	r0, #2
 2558 0032 FFF7FEFF 		bl	MOTOR_PutChar
 2559              	.LVL395:
 351:./AX12.h      ****     MOTOR_PutChar(AX_PRESENT_POSITION_L);
 2560              		.loc 4 351 0
 2561 0036 2420     		movs	r0, #36
 2562 0038 FFF7FEFF 		bl	MOTOR_PutChar
 2563              	.LVL396:
 352:./AX12.h      ****     MOTOR_PutChar(AX_BYTE_READ_POS);
 2564              		.loc 4 352 0
 2565 003c 0220     		movs	r0, #2
 2566 003e FFF7FEFF 		bl	MOTOR_PutChar
ARM GAS  C:\Users\HENRYA~1\AppData\Local\Temp\cceIRlNf.s 			page 56


 2567              	.LVL397:
 353:./AX12.h      ****     MOTOR_PutChar(Checksum);
 2568              		.loc 4 353 0
 2569 0042 2078     		ldrb	r0, [r4]
 2570 0044 FFF7FEFF 		bl	MOTOR_PutChar
 2571              	.LVL398:
 354:./AX12.h      ****     CyDelayUs(TX_DELAY_TIME);
 2572              		.loc 4 354 0
 2573 0048 C820     		movs	r0, #200
 2574 004a 4000     		lsls	r0, r0, #1
 2575 004c FFF7FEFF 		bl	CyDelayUs
 2576              	.LVL399:
 355:./AX12.h      ****     CyDelay(5);  /// cambio de estado delay para buffer de salida
 2577              		.loc 4 355 0
 2578 0050 0520     		movs	r0, #5
 2579 0052 FFF7FEFF 		bl	CyDelay
 2580              	.LVL400:
 356:./AX12.h      ****     TXC_Write(1); ///habilita rx 1	   
 2581              		.loc 4 356 0
 2582 0056 0120     		movs	r0, #1
 2583 0058 FFF7FEFF 		bl	TXC_Write
 2584              	.LVL401:
 357:./AX12.h      ****     Position_Long_Byte = -1;
 2585              		.loc 4 357 0
 2586 005c FF22     		movs	r2, #255
 2587 005e 2C4B     		ldr	r3, .L106+4
 2588 0060 1A70     		strb	r2, [r3]
 358:./AX12.h      ****     Time_Counter = 0;
 2589              		.loc 4 358 0
 2590 0062 0022     		movs	r2, #0
 2591 0064 2B4B     		ldr	r3, .L106+8
 2592 0066 1A60     		str	r2, [r3]
 359:./AX12.h      ****     CyDelay(20);/// delay de espera 
 2593              		.loc 4 359 0
 2594 0068 1420     		movs	r0, #20
 2595 006a FFF7FEFF 		bl	CyDelay
 2596              	.LVL402:
 360:./AX12.h      ****     while((RX_GetRxBufferSize() < 7) & (Time_Counter < TIME_OUT)){
 2597              		.loc 4 360 0
 2598 006e 06E0     		b	.L101
 2599              	.L102:
 361:./AX12.h      **** 		Time_Counter++;
 2600              		.loc 4 361 0
 2601 0070 0131     		adds	r1, r1, #1
 2602 0072 284B     		ldr	r3, .L106+8
 2603 0074 1960     		str	r1, [r3]
 362:./AX12.h      **** 		CyDelayUs(1000);
 2604              		.loc 4 362 0
 2605 0076 FA20     		movs	r0, #250
 2606 0078 8000     		lsls	r0, r0, #2
 2607 007a FFF7FEFF 		bl	CyDelayUs
 2608              	.LVL403:
 2609              	.L101:
 360:./AX12.h      ****     while((RX_GetRxBufferSize() < 7) & (Time_Counter < TIME_OUT)){
 2610              		.loc 4 360 0
 2611 007e FFF7FEFF 		bl	RX_GetRxBufferSize
 2612              	.LVL404:
ARM GAS  C:\Users\HENRYA~1\AppData\Local\Temp\cceIRlNf.s 			page 57


 2613 0082 244B     		ldr	r3, .L106+8
 2614 0084 1968     		ldr	r1, [r3]
 2615 0086 0023     		movs	r3, #0
 2616 0088 0622     		movs	r2, #6
 2617 008a 1C00     		movs	r4, r3
 2618 008c 8242     		cmp	r2, r0
 2619 008e 5C41     		adcs	r4, r4, r3
 2620 0090 2200     		movs	r2, r4
 2621 0092 CC0F     		lsrs	r4, r1, #31
 2622 0094 0920     		movs	r0, #9
 2623 0096 8842     		cmp	r0, r1
 2624 0098 6341     		adcs	r3, r3, r4
 2625 009a 1340     		ands	r3, r2
 2626 009c DBB2     		uxtb	r3, r3
 2627 009e 002B     		cmp	r3, #0
 2628 00a0 E6D1     		bne	.L102
 2629 00a2 0025     		movs	r5, #0
 2630 00a4 2BE0     		b	.L104
 2631              	.LVL405:
 2632              	.L105:
 363:./AX12.h      ****     }
 364:./AX12.h      ****     while (RX_GetRxBufferSize() > 0){
 365:./AX12.h      **** 		Incoming_Byte = RX_ReadRxData();
 2633              		.loc 4 365 0
 2634 00a6 FFF7FEFF 		bl	RX_ReadRxData
 2635              	.LVL406:
 2636 00aa 1B4C     		ldr	r4, .L106+12
 2637 00ac 2070     		strb	r0, [r4]
 366:./AX12.h      ****         Incoming_Byte2 = RX_ReadRxData();
 2638              		.loc 4 366 0
 2639 00ae FFF7FEFF 		bl	RX_ReadRxData
 2640              	.LVL407:
 2641 00b2 1A4B     		ldr	r3, .L106+16
 2642 00b4 1870     		strb	r0, [r3]
 367:./AX12.h      **** 		if ( (Incoming_Byte == 255) & (Incoming_Byte2 == 255) ){                         
 2643              		.loc 4 367 0
 2644 00b6 2378     		ldrb	r3, [r4]
 2645 00b8 FF3B     		subs	r3, r3, #255
 2646 00ba 5A42     		rsbs	r2, r3, #0
 2647 00bc 5341     		adcs	r3, r3, r2
 2648 00be FF38     		subs	r0, r0, #255
 2649 00c0 4242     		rsbs	r2, r0, #0
 2650 00c2 5041     		adcs	r0, r0, r2
 2651 00c4 1842     		tst	r0, r3
 2652 00c6 1AD0     		beq	.L104
 368:./AX12.h      **** 			RX_ReadRxData();                            // Ax-12 ID
 2653              		.loc 4 368 0
 2654 00c8 FFF7FEFF 		bl	RX_ReadRxData
 2655              	.LVL408:
 369:./AX12.h      **** 			RX_ReadRxData();                            // Length
 2656              		.loc 4 369 0
 2657 00cc FFF7FEFF 		bl	RX_ReadRxData
 2658              	.LVL409:
 370:./AX12.h      **** 			Error_Byte = RX_ReadRxData();    //error
 2659              		.loc 4 370 0
 2660 00d0 FFF7FEFF 		bl	RX_ReadRxData
 2661              	.LVL410:
ARM GAS  C:\Users\HENRYA~1\AppData\Local\Temp\cceIRlNf.s 			page 58


 2662 00d4 124B     		ldr	r3, .L106+20
 2663 00d6 1870     		strb	r0, [r3]
 371:./AX12.h      ****    			Position_Low_Byte = RX_ReadRxData();            // Position Bytes
 2664              		.loc 4 371 0
 2665 00d8 FFF7FEFF 		bl	RX_ReadRxData
 2666              	.LVL411:
 2667 00dc 114C     		ldr	r4, .L106+24
 2668 00de 2070     		strb	r0, [r4]
 372:./AX12.h      **** 			Position_High_Byte = RX_ReadRxData();           // Position Bytes  
 2669              		.loc 4 372 0
 2670 00e0 FFF7FEFF 		bl	RX_ReadRxData
 2671              	.LVL412:
 2672 00e4 104D     		ldr	r5, .L106+28
 2673              	.LVL413:
 2674 00e6 2870     		strb	r0, [r5]
 373:./AX12.h      ****             RX_ReadRxData();
 2675              		.loc 4 373 0
 2676 00e8 FFF7FEFF 		bl	RX_ReadRxData
 2677              	.LVL414:
 374:./AX12.h      **** 			data = Position_High_Byte << 8; 
 2678              		.loc 4 374 0
 2679 00ec 2D78     		ldrb	r5, [r5]
 2680 00ee 2D02     		lsls	r5, r5, #8
 2681              	.LVL415:
 375:./AX12.h      **** 			data = data + Position_Low_Byte;
 2682              		.loc 4 375 0
 2683 00f0 2378     		ldrb	r3, [r4]
 2684 00f2 ED18     		adds	r5, r5, r3
 2685              	.LVL416:
 376:./AX12.h      **** 		    RX_ClearRxBuffer();
 2686              		.loc 4 376 0
 2687 00f4 FFF7FEFF 		bl	RX_ClearRxBuffer
 2688              	.LVL417:
 377:./AX12.h      ****             CyDelay(10);
 2689              		.loc 4 377 0
 2690 00f8 0A20     		movs	r0, #10
 2691 00fa FFF7FEFF 		bl	CyDelay
 2692              	.LVL418:
 2693              	.L104:
 364:./AX12.h      **** 		Incoming_Byte = RX_ReadRxData();
 2694              		.loc 4 364 0
 2695 00fe FFF7FEFF 		bl	RX_GetRxBufferSize
 2696              	.LVL419:
 2697 0102 0028     		cmp	r0, #0
 2698 0104 CFD1     		bne	.L105
 378:./AX12.h      ****         }    
 379:./AX12.h      ****     }
 380:./AX12.h      **** 	return (data);     // Returns the read position   
 381:./AX12.h      **** }
 2699              		.loc 4 381 0
 2700 0106 2800     		movs	r0, r5
 2701              		@ sp needed
 2702              	.LVL420:
 2703 0108 70BD     		pop	{r4, r5, r6, pc}
 2704              	.L107:
 2705 010a C046     		.align	2
 2706              	.L106:
ARM GAS  C:\Users\HENRYA~1\AppData\Local\Temp\cceIRlNf.s 			page 59


 2707 010c 00000000 		.word	Checksum
 2708 0110 00000000 		.word	Position_Long_Byte
 2709 0114 00000000 		.word	Time_Counter
 2710 0118 00000000 		.word	Incoming_Byte
 2711 011c 00000000 		.word	Incoming_Byte2
 2712 0120 00000000 		.word	Error_Byte
 2713 0124 00000000 		.word	Position_Low_Byte
 2714 0128 00000000 		.word	Position_High_Byte
 2715              		.cfi_endproc
 2716              	.LFE64:
 2717              		.size	readPosition, .-readPosition
 2718              		.section	.text.setAngleLimit,"ax",%progbits
 2719              		.align	2
 2720              		.global	setAngleLimit
 2721              		.code	16
 2722              		.thumb_func
 2723              		.type	setAngleLimit, %function
 2724              	setAngleLimit:
 2725              	.LFB65:
 382:./AX12.h      **** 
 383:./AX12.h      **** int setAngleLimit(unsigned char ID, int CWLimit, int CCWLimit){
 2726              		.loc 4 383 0
 2727              		.cfi_startproc
 2728              		@ args = 0, pretend = 0, frame = 8
 2729              		@ frame_needed = 0, uses_anonymous_args = 0
 2730              	.LVL421:
 2731 0000 F0B5     		push	{r4, r5, r6, r7, lr}
 2732              		.cfi_def_cfa_offset 20
 2733              		.cfi_offset 4, -20
 2734              		.cfi_offset 5, -16
 2735              		.cfi_offset 6, -12
 2736              		.cfi_offset 7, -8
 2737              		.cfi_offset 14, -4
 2738 0002 4746     		mov	r7, r8
 2739 0004 80B4     		push	{r7}
 2740              		.cfi_def_cfa_offset 24
 2741              		.cfi_offset 8, -24
 2742 0006 82B0     		sub	sp, sp, #8
 2743              		.cfi_def_cfa_offset 32
 384:./AX12.h      **** 	char CW_H,CW_L,CCW_H,CCW_L;
 385:./AX12.h      ****     CW_H = CWLimit >> 8;    
 2744              		.loc 4 385 0
 2745 0008 0B12     		asrs	r3, r1, #8
 2746 000a DBB2     		uxtb	r3, r3
 2747 000c 9846     		mov	r8, r3
 2748              	.LVL422:
 386:./AX12.h      ****     CW_L = CWLimit;                // 16 bits - 2 x 8 bits variables
 2749              		.loc 4 386 0
 2750 000e CEB2     		uxtb	r6, r1
 2751              	.LVL423:
 387:./AX12.h      ****     CCW_H = CCWLimit >> 8;
 2752              		.loc 4 387 0
 2753 0010 1712     		asrs	r7, r2, #8
 2754 0012 FFB2     		uxtb	r7, r7
 2755              	.LVL424:
 388:./AX12.h      ****     CCW_L = CCWLimit;  
 2756              		.loc 4 388 0
ARM GAS  C:\Users\HENRYA~1\AppData\Local\Temp\cceIRlNf.s 			page 60


 2757 0014 D4B2     		uxtb	r4, r2
 2758              	.LVL425:
 389:./AX12.h      **** 	Checksum = (~(ID + AX_VL_LENGTH +AX_WRITE_DATA+ AX_CW_ANGLE_LIMIT_L + CW_H + CW_L + AX_CCW_ANGLE_L
 2759              		.loc 4 389 0
 2760 0016 204D     		ldr	r5, .L109
 2761 0018 0190     		str	r0, [sp, #4]
 2762 001a 0300     		movs	r3, r0
 2763 001c 4344     		add	r3, r3, r8
 2764 001e F318     		adds	r3, r6, r3
 2765 0020 FB18     		adds	r3, r7, r3
 2766 0022 E318     		adds	r3, r4, r3
 2767 0024 1733     		adds	r3, r3, #23
 2768 0026 DB43     		mvns	r3, r3
 2769 0028 2B70     		strb	r3, [r5]
 390:./AX12.h      ****     TXC_Write(2); ////habilita tx	 
 2770              		.loc 4 390 0
 2771 002a 0220     		movs	r0, #2
 2772              	.LVL426:
 2773 002c FFF7FEFF 		bl	TXC_Write
 2774              	.LVL427:
 391:./AX12.h      ****     MOTOR_PutChar(AX_START);
 2775              		.loc 4 391 0
 2776 0030 FF20     		movs	r0, #255
 2777 0032 FFF7FEFF 		bl	MOTOR_PutChar
 2778              	.LVL428:
 392:./AX12.h      **** 	MOTOR_PutChar(AX_START);
 2779              		.loc 4 392 0
 2780 0036 FF20     		movs	r0, #255
 2781 0038 FFF7FEFF 		bl	MOTOR_PutChar
 2782              	.LVL429:
 393:./AX12.h      ****     MOTOR_PutChar(ID);
 2783              		.loc 4 393 0
 2784 003c 0198     		ldr	r0, [sp, #4]
 2785 003e FFF7FEFF 		bl	MOTOR_PutChar
 2786              	.LVL430:
 394:./AX12.h      **** 	MOTOR_PutChar(AX_CCW_CW_LENGTH);
 2787              		.loc 4 394 0
 2788 0042 0820     		movs	r0, #8
 2789 0044 FFF7FEFF 		bl	MOTOR_PutChar
 2790              	.LVL431:
 395:./AX12.h      **** 	MOTOR_PutChar(AX_WRITE_DATA);
 2791              		.loc 4 395 0
 2792 0048 0320     		movs	r0, #3
 2793 004a FFF7FEFF 		bl	MOTOR_PutChar
 2794              	.LVL432:
 396:./AX12.h      **** 	MOTOR_PutChar(AX_CW_ANGLE_LIMIT_L);
 2795              		.loc 4 396 0
 2796 004e 0620     		movs	r0, #6
 2797 0050 FFF7FEFF 		bl	MOTOR_PutChar
 2798              	.LVL433:
 397:./AX12.h      ****     MOTOR_PutChar(CW_L);
 2799              		.loc 4 397 0
 2800 0054 3000     		movs	r0, r6
 2801 0056 FFF7FEFF 		bl	MOTOR_PutChar
 2802              	.LVL434:
 398:./AX12.h      ****     MOTOR_PutChar(CW_H);
 2803              		.loc 4 398 0
ARM GAS  C:\Users\HENRYA~1\AppData\Local\Temp\cceIRlNf.s 			page 61


 2804 005a 4046     		mov	r0, r8
 2805 005c FFF7FEFF 		bl	MOTOR_PutChar
 2806              	.LVL435:
 399:./AX12.h      **** 	MOTOR_PutChar(AX_CCW_ANGLE_LIMIT_L);
 2807              		.loc 4 399 0
 2808 0060 0820     		movs	r0, #8
 2809 0062 FFF7FEFF 		bl	MOTOR_PutChar
 2810              	.LVL436:
 400:./AX12.h      ****     MOTOR_PutChar(CCW_L);
 2811              		.loc 4 400 0
 2812 0066 2000     		movs	r0, r4
 2813 0068 FFF7FEFF 		bl	MOTOR_PutChar
 2814              	.LVL437:
 401:./AX12.h      **** 	MOTOR_PutChar(CCW_H);
 2815              		.loc 4 401 0
 2816 006c 3800     		movs	r0, r7
 2817 006e FFF7FEFF 		bl	MOTOR_PutChar
 2818              	.LVL438:
 402:./AX12.h      **** 	MOTOR_PutChar(Checksum);
 2819              		.loc 4 402 0
 2820 0072 2878     		ldrb	r0, [r5]
 2821 0074 FFF7FEFF 		bl	MOTOR_PutChar
 2822              	.LVL439:
 403:./AX12.h      **** 	CyDelayUs(TX_DELAY_TIME);
 2823              		.loc 4 403 0
 2824 0078 C820     		movs	r0, #200
 2825 007a 4000     		lsls	r0, r0, #1
 2826 007c FFF7FEFF 		bl	CyDelayUs
 2827              	.LVL440:
 404:./AX12.h      **** 	CyDelay(5);
 2828              		.loc 4 404 0
 2829 0080 0520     		movs	r0, #5
 2830 0082 FFF7FEFF 		bl	CyDelay
 2831              	.LVL441:
 405:./AX12.h      **** 	TXC_Write(1); ////habilita rx	 
 2832              		.loc 4 405 0
 2833 0086 0120     		movs	r0, #1
 2834 0088 FFF7FEFF 		bl	TXC_Write
 2835              	.LVL442:
 406:./AX12.h      ****     return (error_data()); 
 2836              		.loc 4 406 0
 2837 008c FFF7FEFF 		bl	error_data
 2838              	.LVL443:
 407:./AX12.h      **** }
 2839              		.loc 4 407 0
 2840 0090 02B0     		add	sp, sp, #8
 2841              		@ sp needed
 2842              	.LVL444:
 2843              	.LVL445:
 2844              	.LVL446:
 2845              	.LVL447:
 2846 0092 04BC     		pop	{r2}
 2847 0094 9046     		mov	r8, r2
 2848 0096 F0BD     		pop	{r4, r5, r6, r7, pc}
 2849              	.L110:
 2850              		.align	2
 2851              	.L109:
ARM GAS  C:\Users\HENRYA~1\AppData\Local\Temp\cceIRlNf.s 			page 62


 2852 0098 00000000 		.word	Checksum
 2853              		.cfi_endproc
 2854              	.LFE65:
 2855              		.size	setAngleLimit, .-setAngleLimit
 2856              		.global	__aeabi_i2d
 2857              		.global	__aeabi_dmul
 2858              		.section	.text.randd,"ax",%progbits
 2859              		.align	2
 2860              		.global	randd
 2861              		.code	16
 2862              		.thumb_func
 2863              		.type	randd, %function
 2864              	randd:
 2865              	.LFB66:
 2866              		.file 5 "./inicio.h"
   1:./inicio.h    **** #include <VCNL4010_1.h>
   2:./inicio.h    **** #include <VCNL4010_2.h>
   3:./inicio.h    **** #include <VCNL4010_3.h>
   4:./inicio.h    **** //#include <VCNL4010_4.h>
   5:./inicio.h    **** #include <AX12.h>
   6:./inicio.h    **** #include <math.h>
   7:./inicio.h    **** #include <stdlib.h>
   8:./inicio.h    **** #include <protocolo can.h>
   9:./inicio.h    **** 
  10:./inicio.h    **** float pi=M_PI;
  11:./inicio.h    **** float teta = 0.0;
  12:./inicio.h    **** float teta2 = 0.0;
  13:./inicio.h    **** float teta3 = 0.0;
  14:./inicio.h    **** float phase =0.0;
  15:./inicio.h    **** float ampli = 0.0;
  16:./inicio.h    **** float amp2 = 0.0;
  17:./inicio.h    **** float dampli = 0;
  18:./inicio.h    **** float of2 = (0.8333)*M_PI;
  19:./inicio.h    **** float offset = (0.8333)*M_PI;
  20:./inicio.h    **** float doffset = 0.0;
  21:./inicio.h    **** float dt = 0.05;
  22:./inicio.h    **** float sal = 0.0;
  23:./inicio.h    **** float vel = 0.0;
  24:./inicio.h    **** float theta,theta_velocidad,x,y;
  25:./inicio.h    **** int f,v,almacena_salida;
  26:./inicio.h    **** int Seleccion=0;
  27:./inicio.h    **** int Condicion_Start=0;
  28:./inicio.h    **** int  ant,t,Pd,Pt,cstatus,M,Pta,errc,PositionM,Teta_Can_l,Teta_Can_r,cantidadM,Contador,Orientacion_
  29:./inicio.h    **** unsigned char dir=1; //////dir motor
  30:./inicio.h    **** unsigned int Pda;
  31:./inicio.h    **** uint8 Mydir=250;
  32:./inicio.h    **** uint8 dirasig ;
  33:./inicio.h    **** uint8 sumadir;
  34:./inicio.h    **** uint8 dato_enviado[8];
  35:./inicio.h    **** uint8 dato_enviado_2[8];
  36:./inicio.h    **** uint8 mailbox0[8];
  37:./inicio.h    **** uint8 mailbox1[8];
  38:./inicio.h    **** uint8 mailbox2[8];
  39:./inicio.h    **** float srf;
  40:./inicio.h    **** unsigned char dir,tem,tes,error,Error_Byte,Incoming_Byte2;
  41:./inicio.h    **** int amb,posicion,posicionh,posicionl;
  42:./inicio.h    **** int S1=0;
ARM GAS  C:\Users\HENRYA~1\AppData\Local\Temp\cceIRlNf.s 			page 63


  43:./inicio.h    **** 
  44:./inicio.h    **** double randd() {
 2867              		.loc 5 44 0
 2868              		.cfi_startproc
 2869              		@ args = 0, pretend = 0, frame = 0
 2870              		@ frame_needed = 0, uses_anonymous_args = 0
 2871 0000 10B5     		push	{r4, lr}
 2872              		.cfi_def_cfa_offset 8
 2873              		.cfi_offset 4, -8
 2874              		.cfi_offset 14, -4
  45:./inicio.h    ****   return (double)rand()/((double)RAND_MAX + 1);
 2875              		.loc 5 45 0
 2876 0002 FFF7FEFF 		bl	rand
 2877              	.LVL448:
 2878 0006 FFF7FEFF 		bl	__aeabi_i2d
 2879              	.LVL449:
 2880 000a 0022     		movs	r2, #0
 2881 000c F823     		movs	r3, #248
 2882 000e 9B05     		lsls	r3, r3, #22
 2883 0010 FFF7FEFF 		bl	__aeabi_dmul
 2884              	.LVL450:
  46:./inicio.h    **** }
 2885              		.loc 5 46 0
 2886              		@ sp needed
 2887 0014 10BD     		pop	{r4, pc}
 2888              		.cfi_endproc
 2889              	.LFE66:
 2890              		.size	randd, .-randd
 2891              		.global	__aeabi_fadd
 2892              		.global	__aeabi_fmul
 2893              		.global	__aeabi_fsub
 2894              		.global	__aeabi_f2d
 2895              		.global	__aeabi_dadd
 2896              		.global	__aeabi_d2f
 2897 0016 C046     		.section	.text.dteta,"ax",%progbits
 2898              		.align	2
 2899              		.global	dteta
 2900              		.code	16
 2901              		.thumb_func
 2902              		.type	dteta, %function
 2903              	dteta:
 2904              	.LFB67:
  47:./inicio.h    **** 
  48:./inicio.h    **** float dteta(float teta, float teta2, float teta3, float phase){
 2905              		.loc 5 48 0
 2906              		.cfi_startproc
 2907              		@ args = 0, pretend = 0, frame = 16
 2908              		@ frame_needed = 0, uses_anonymous_args = 0
 2909              	.LVL451:
 2910 0000 F0B5     		push	{r4, r5, r6, r7, lr}
 2911              		.cfi_def_cfa_offset 20
 2912              		.cfi_offset 4, -20
 2913              		.cfi_offset 5, -16
 2914              		.cfi_offset 6, -12
 2915              		.cfi_offset 7, -8
 2916              		.cfi_offset 14, -4
 2917 0002 85B0     		sub	sp, sp, #20
ARM GAS  C:\Users\HENRYA~1\AppData\Local\Temp\cceIRlNf.s 			page 64


 2918              		.cfi_def_cfa_offset 40
 2919 0004 051C     		adds	r5, r0, #0
 2920 0006 0F1C     		adds	r7, r1, #0
 2921 0008 161C     		adds	r6, r2, #0
 2922 000a 1C1C     		adds	r4, r3, #0
 2923              	.LVL452:
  49:./inicio.h    ****     float wij = 0.8; //0.8 Se mueve
  50:./inicio.h    ****     float v = 0.4;//0.4 Se mueve
  51:./inicio.h    ****     switch (Seleccion){
 2924              		.loc 5 51 0
 2925 000c 4D4B     		ldr	r3, .L119
 2926              	.LVL453:
 2927 000e DB68     		ldr	r3, [r3, #12]
 2928 0010 022B     		cmp	r3, #2
 2929 0012 29D0     		beq	.L114
 2930 0014 032B     		cmp	r3, #3
 2931 0016 4DD0     		beq	.L115
 2932 0018 012B     		cmp	r3, #1
 2933 001a 00D0     		beq	.LCB2459
 2934 001c 88E0     		b	.L118	@long jump
 2935              	.LCB2459:
  52:./inicio.h    ****         case 1:
  53:./inicio.h    ****             return (2*pi*v)+(wij*sin(teta2-teta-phase));
 2936              		.loc 5 53 0
 2937 001e 4A4B     		ldr	r3, .L119+4
 2938 0020 1868     		ldr	r0, [r3]
 2939              	.LVL454:
 2940 0022 011C     		adds	r1, r0, #0
 2941              	.LVL455:
 2942 0024 FFF7FEFF 		bl	__aeabi_fadd
 2943              	.LVL456:
 2944 0028 4849     		ldr	r1, .L119+8
 2945 002a FFF7FEFF 		bl	__aeabi_fmul
 2946              	.LVL457:
 2947 002e 061C     		adds	r6, r0, #0
 2948              	.LVL458:
 2949 0030 291C     		adds	r1, r5, #0
 2950 0032 381C     		adds	r0, r7, #0
 2951 0034 FFF7FEFF 		bl	__aeabi_fsub
 2952              	.LVL459:
 2953 0038 211C     		adds	r1, r4, #0
 2954 003a FFF7FEFF 		bl	__aeabi_fsub
 2955              	.LVL460:
 2956 003e FFF7FEFF 		bl	__aeabi_f2d
 2957              	.LVL461:
 2958 0042 FFF7FEFF 		bl	sin
 2959              	.LVL462:
 2960 0046 A022     		movs	r2, #160
 2961 0048 1206     		lsls	r2, r2, #24
 2962 004a 414B     		ldr	r3, .L119+12
 2963 004c FFF7FEFF 		bl	__aeabi_dmul
 2964              	.LVL463:
 2965 0050 0400     		movs	r4, r0
 2966              	.LVL464:
 2967 0052 0D00     		movs	r5, r1
 2968              	.LVL465:
 2969 0054 301C     		adds	r0, r6, #0
ARM GAS  C:\Users\HENRYA~1\AppData\Local\Temp\cceIRlNf.s 			page 65


 2970 0056 FFF7FEFF 		bl	__aeabi_f2d
 2971              	.LVL466:
 2972 005a 2200     		movs	r2, r4
 2973 005c 2B00     		movs	r3, r5
 2974 005e FFF7FEFF 		bl	__aeabi_dadd
 2975              	.LVL467:
 2976 0062 FFF7FEFF 		bl	__aeabi_d2f
 2977              	.LVL468:
 2978 0066 6BE0     		b	.L117
 2979              	.LVL469:
 2980              	.L114:
  54:./inicio.h    ****         break;
  55:./inicio.h    ****         case 2:
  56:./inicio.h    ****             return (2*pi*v)+(wij*sin(teta3-teta+phase));
 2981              		.loc 5 56 0
 2982 0068 374B     		ldr	r3, .L119+4
 2983 006a 1868     		ldr	r0, [r3]
 2984              	.LVL470:
 2985 006c 011C     		adds	r1, r0, #0
 2986              	.LVL471:
 2987 006e FFF7FEFF 		bl	__aeabi_fadd
 2988              	.LVL472:
 2989 0072 3649     		ldr	r1, .L119+8
 2990 0074 FFF7FEFF 		bl	__aeabi_fmul
 2991              	.LVL473:
 2992 0078 071C     		adds	r7, r0, #0
 2993              	.LVL474:
 2994 007a 291C     		adds	r1, r5, #0
 2995 007c 301C     		adds	r0, r6, #0
 2996 007e FFF7FEFF 		bl	__aeabi_fsub
 2997              	.LVL475:
 2998 0082 011C     		adds	r1, r0, #0
 2999 0084 201C     		adds	r0, r4, #0
 3000 0086 FFF7FEFF 		bl	__aeabi_fadd
 3001              	.LVL476:
 3002 008a FFF7FEFF 		bl	__aeabi_f2d
 3003              	.LVL477:
 3004 008e FFF7FEFF 		bl	sin
 3005              	.LVL478:
 3006 0092 A022     		movs	r2, #160
 3007 0094 1206     		lsls	r2, r2, #24
 3008 0096 2E4B     		ldr	r3, .L119+12
 3009 0098 FFF7FEFF 		bl	__aeabi_dmul
 3010              	.LVL479:
 3011 009c 0400     		movs	r4, r0
 3012              	.LVL480:
 3013 009e 0D00     		movs	r5, r1
 3014              	.LVL481:
 3015 00a0 381C     		adds	r0, r7, #0
 3016 00a2 FFF7FEFF 		bl	__aeabi_f2d
 3017              	.LVL482:
 3018 00a6 2200     		movs	r2, r4
 3019 00a8 2B00     		movs	r3, r5
 3020 00aa FFF7FEFF 		bl	__aeabi_dadd
 3021              	.LVL483:
 3022 00ae FFF7FEFF 		bl	__aeabi_d2f
 3023              	.LVL484:
ARM GAS  C:\Users\HENRYA~1\AppData\Local\Temp\cceIRlNf.s 			page 66


 3024 00b2 45E0     		b	.L117
 3025              	.LVL485:
 3026              	.L115:
  57:./inicio.h    ****         break;
  58:./inicio.h    ****         case 3:
  59:./inicio.h    ****             return (2*pi*v)+(wij*sin(teta2-teta-phase))+(wij*sin(teta3-teta+phase));
 3027              		.loc 5 59 0
 3028 00b4 244B     		ldr	r3, .L119+4
 3029 00b6 1868     		ldr	r0, [r3]
 3030              	.LVL486:
 3031 00b8 011C     		adds	r1, r0, #0
 3032              	.LVL487:
 3033 00ba FFF7FEFF 		bl	__aeabi_fadd
 3034              	.LVL488:
 3035 00be 2349     		ldr	r1, .L119+8
 3036 00c0 FFF7FEFF 		bl	__aeabi_fmul
 3037              	.LVL489:
 3038 00c4 0090     		str	r0, [sp]
 3039 00c6 291C     		adds	r1, r5, #0
 3040 00c8 381C     		adds	r0, r7, #0
 3041 00ca FFF7FEFF 		bl	__aeabi_fsub
 3042              	.LVL490:
 3043 00ce 211C     		adds	r1, r4, #0
 3044 00d0 FFF7FEFF 		bl	__aeabi_fsub
 3045              	.LVL491:
 3046 00d4 FFF7FEFF 		bl	__aeabi_f2d
 3047              	.LVL492:
 3048 00d8 FFF7FEFF 		bl	sin
 3049              	.LVL493:
 3050 00dc A022     		movs	r2, #160
 3051 00de 1206     		lsls	r2, r2, #24
 3052 00e0 1B4B     		ldr	r3, .L119+12
 3053 00e2 FFF7FEFF 		bl	__aeabi_dmul
 3054              	.LVL494:
 3055 00e6 0290     		str	r0, [sp, #8]
 3056 00e8 0391     		str	r1, [sp, #12]
 3057 00ea 0098     		ldr	r0, [sp]
 3058 00ec FFF7FEFF 		bl	__aeabi_f2d
 3059              	.LVL495:
 3060 00f0 029A     		ldr	r2, [sp, #8]
 3061 00f2 039B     		ldr	r3, [sp, #12]
 3062 00f4 FFF7FEFF 		bl	__aeabi_dadd
 3063              	.LVL496:
 3064 00f8 0090     		str	r0, [sp]
 3065 00fa 0191     		str	r1, [sp, #4]
 3066 00fc 291C     		adds	r1, r5, #0
 3067 00fe 301C     		adds	r0, r6, #0
 3068 0100 FFF7FEFF 		bl	__aeabi_fsub
 3069              	.LVL497:
 3070 0104 011C     		adds	r1, r0, #0
 3071 0106 201C     		adds	r0, r4, #0
 3072 0108 FFF7FEFF 		bl	__aeabi_fadd
 3073              	.LVL498:
 3074 010c FFF7FEFF 		bl	__aeabi_f2d
 3075              	.LVL499:
 3076 0110 FFF7FEFF 		bl	sin
 3077              	.LVL500:
ARM GAS  C:\Users\HENRYA~1\AppData\Local\Temp\cceIRlNf.s 			page 67


 3078 0114 A022     		movs	r2, #160
 3079 0116 1206     		lsls	r2, r2, #24
 3080 0118 0D4B     		ldr	r3, .L119+12
 3081 011a FFF7FEFF 		bl	__aeabi_dmul
 3082              	.LVL501:
 3083 011e 0200     		movs	r2, r0
 3084 0120 0B00     		movs	r3, r1
 3085 0122 0098     		ldr	r0, [sp]
 3086 0124 0199     		ldr	r1, [sp, #4]
 3087 0126 FFF7FEFF 		bl	__aeabi_dadd
 3088              	.LVL502:
 3089 012a FFF7FEFF 		bl	__aeabi_d2f
 3090              	.LVL503:
 3091 012e 07E0     		b	.L117
 3092              	.LVL504:
 3093              	.L118:
  60:./inicio.h    ****         break;    
  61:./inicio.h    ****         default:
  62:./inicio.h    ****             return 2*pi*v;
 3094              		.loc 5 62 0
 3095 0130 054B     		ldr	r3, .L119+4
 3096 0132 1868     		ldr	r0, [r3]
 3097              	.LVL505:
 3098 0134 011C     		adds	r1, r0, #0
 3099              	.LVL506:
 3100 0136 FFF7FEFF 		bl	__aeabi_fadd
 3101              	.LVL507:
 3102 013a 0449     		ldr	r1, .L119+8
 3103 013c FFF7FEFF 		bl	__aeabi_fmul
 3104              	.LVL508:
 3105              	.L117:
  63:./inicio.h    ****         break;
  64:./inicio.h    ****             }
  65:./inicio.h    **** }
 3106              		.loc 5 65 0
 3107 0140 05B0     		add	sp, sp, #20
 3108              		@ sp needed
 3109 0142 F0BD     		pop	{r4, r5, r6, r7, pc}
 3110              	.L120:
 3111              		.align	2
 3112              	.L119:
 3113 0144 00000000 		.word	.LANCHOR0
 3114 0148 00000000 		.word	.LANCHOR1
 3115 014c CDCCCC3E 		.word	1053609165
 3116 0150 9999E93F 		.word	1072273817
 3117              		.cfi_endproc
 3118              	.LFE67:
 3119              		.size	dteta, .-dteta
 3120              		.section	.text.ddampli,"ax",%progbits
 3121              		.align	2
 3122              		.global	ddampli
 3123              		.code	16
 3124              		.thumb_func
 3125              		.type	ddampli, %function
 3126              	ddampli:
 3127              	.LFB68:
  66:./inicio.h    **** 
ARM GAS  C:\Users\HENRYA~1\AppData\Local\Temp\cceIRlNf.s 			page 68


  67:./inicio.h    **** float ddampli(float dampli, float ampli, float amp){
 3128              		.loc 5 67 0
 3129              		.cfi_startproc
 3130              		@ args = 0, pretend = 0, frame = 0
 3131              		@ frame_needed = 0, uses_anonymous_args = 0
 3132              	.LVL509:
 3133 0000 10B5     		push	{r4, lr}
 3134              		.cfi_def_cfa_offset 8
 3135              		.cfi_offset 4, -8
 3136              		.cfi_offset 14, -4
 3137 0002 041C     		adds	r4, r0, #0
 3138              	.LVL510:
  68:./inicio.h    ****   float ar = 30;
  69:./inicio.h    ****   return ar*((ar/4)*(amp-ampli)-dampli);
 3139              		.loc 5 69 0
 3140 0004 101C     		adds	r0, r2, #0
 3141              	.LVL511:
 3142 0006 FFF7FEFF 		bl	__aeabi_fsub
 3143              	.LVL512:
 3144 000a 0549     		ldr	r1, .L122
 3145 000c FFF7FEFF 		bl	__aeabi_fmul
 3146              	.LVL513:
 3147 0010 211C     		adds	r1, r4, #0
 3148 0012 FFF7FEFF 		bl	__aeabi_fsub
 3149              	.LVL514:
 3150 0016 0349     		ldr	r1, .L122+4
 3151 0018 FFF7FEFF 		bl	__aeabi_fmul
 3152              	.LVL515:
  70:./inicio.h    **** }
 3153              		.loc 5 70 0
 3154              		@ sp needed
 3155              	.LVL516:
 3156 001c 10BD     		pop	{r4, pc}
 3157              	.L123:
 3158 001e C046     		.align	2
 3159              	.L122:
 3160 0020 0000F040 		.word	1089470464
 3161 0024 0000F041 		.word	1106247680
 3162              		.cfi_endproc
 3163              	.LFE68:
 3164              		.size	ddampli, .-ddampli
 3165              		.section	.text.ddoffset,"ax",%progbits
 3166              		.align	2
 3167              		.global	ddoffset
 3168              		.code	16
 3169              		.thumb_func
 3170              		.type	ddoffset, %function
 3171              	ddoffset:
 3172              	.LFB69:
  71:./inicio.h    **** 
  72:./inicio.h    **** float ddoffset(float doffset, float offset, float of){
 3173              		.loc 5 72 0
 3174              		.cfi_startproc
 3175              		@ args = 0, pretend = 0, frame = 0
 3176              		@ frame_needed = 0, uses_anonymous_args = 0
 3177              	.LVL517:
 3178 0000 10B5     		push	{r4, lr}
ARM GAS  C:\Users\HENRYA~1\AppData\Local\Temp\cceIRlNf.s 			page 69


 3179              		.cfi_def_cfa_offset 8
 3180              		.cfi_offset 4, -8
 3181              		.cfi_offset 14, -4
 3182 0002 041C     		adds	r4, r0, #0
 3183              	.LVL518:
  73:./inicio.h    ****  float ax = 30;
  74:./inicio.h    **** return ax*((ax/4)*(of-offset)-doffset); 
 3184              		.loc 5 74 0
 3185 0004 101C     		adds	r0, r2, #0
 3186              	.LVL519:
 3187 0006 FFF7FEFF 		bl	__aeabi_fsub
 3188              	.LVL520:
 3189 000a 0549     		ldr	r1, .L125
 3190 000c FFF7FEFF 		bl	__aeabi_fmul
 3191              	.LVL521:
 3192 0010 211C     		adds	r1, r4, #0
 3193 0012 FFF7FEFF 		bl	__aeabi_fsub
 3194              	.LVL522:
 3195 0016 0349     		ldr	r1, .L125+4
 3196 0018 FFF7FEFF 		bl	__aeabi_fmul
 3197              	.LVL523:
  75:./inicio.h    **** }
 3198              		.loc 5 75 0
 3199              		@ sp needed
 3200              	.LVL524:
 3201 001c 10BD     		pop	{r4, pc}
 3202              	.L126:
 3203 001e C046     		.align	2
 3204              	.L125:
 3205 0020 0000F040 		.word	1089470464
 3206 0024 0000F041 		.word	1106247680
 3207              		.cfi_endproc
 3208              	.LFE69:
 3209              		.size	ddoffset, .-ddoffset
 3210              		.global	__aeabi_ddiv
 3211              		.global	__aeabi_f2iz
 3212              		.section	.text.CPG,"ax",%progbits
 3213              		.align	2
 3214              		.global	CPG
 3215              		.code	16
 3216              		.thumb_func
 3217              		.type	CPG, %function
 3218              	CPG:
 3219              	.LFB70:
  76:./inicio.h    **** 
  77:./inicio.h    **** void CPG(){
 3220              		.loc 5 77 0
 3221              		.cfi_startproc
 3222              		@ args = 0, pretend = 0, frame = 16
 3223              		@ frame_needed = 0, uses_anonymous_args = 0
 3224 0000 F0B5     		push	{r4, r5, r6, r7, lr}
 3225              		.cfi_def_cfa_offset 20
 3226              		.cfi_offset 4, -20
 3227              		.cfi_offset 5, -16
 3228              		.cfi_offset 6, -12
 3229              		.cfi_offset 7, -8
 3230              		.cfi_offset 14, -4
ARM GAS  C:\Users\HENRYA~1\AppData\Local\Temp\cceIRlNf.s 			page 70


 3231 0002 85B0     		sub	sp, sp, #20
 3232              		.cfi_def_cfa_offset 40
  78:./inicio.h    ****     //Calculate CPG 
  79:./inicio.h    ****     teta2=(Teta_Can_l*0.001);
 3233              		.loc 5 79 0
 3234 0004 464B     		ldr	r3, .L128
 3235 0006 1868     		ldr	r0, [r3]
 3236 0008 FFF7FEFF 		bl	__aeabi_i2d
 3237              	.LVL525:
 3238 000c 454A     		ldr	r2, .L128+4
 3239 000e 464B     		ldr	r3, .L128+8
 3240 0010 FFF7FEFF 		bl	__aeabi_dmul
 3241              	.LVL526:
 3242 0014 FFF7FEFF 		bl	__aeabi_d2f
 3243              	.LVL527:
 3244 0018 041C     		adds	r4, r0, #0
 3245 001a 444F     		ldr	r7, .L128+12
 3246 001c 3861     		str	r0, [r7, #16]
  80:./inicio.h    ****     teta3=(Teta_Can_r*0.001);
 3247              		.loc 5 80 0
 3248 001e 444B     		ldr	r3, .L128+16
 3249 0020 1868     		ldr	r0, [r3]
 3250 0022 FFF7FEFF 		bl	__aeabi_i2d
 3251              	.LVL528:
 3252 0026 3F4A     		ldr	r2, .L128+4
 3253 0028 3F4B     		ldr	r3, .L128+8
 3254 002a FFF7FEFF 		bl	__aeabi_dmul
 3255              	.LVL529:
 3256 002e FFF7FEFF 		bl	__aeabi_d2f
 3257              	.LVL530:
 3258 0032 021C     		adds	r2, r0, #0
 3259 0034 7861     		str	r0, [r7, #20]
  81:./inicio.h    ****     teta = teta + dteta(teta,teta2,teta3,phase)*dt;
 3260              		.loc 5 81 0
 3261 0036 BD69     		ldr	r5, [r7, #24]
 3262 0038 FB69     		ldr	r3, [r7, #28]
 3263 003a 211C     		adds	r1, r4, #0
 3264 003c 281C     		adds	r0, r5, #0
 3265 003e FFF7FEFF 		bl	dteta
 3266              	.LVL531:
 3267 0042 3C4E     		ldr	r6, .L128+20
 3268 0044 7468     		ldr	r4, [r6, #4]
 3269 0046 211C     		adds	r1, r4, #0
 3270 0048 FFF7FEFF 		bl	__aeabi_fmul
 3271              	.LVL532:
 3272 004c 011C     		adds	r1, r0, #0
 3273 004e 281C     		adds	r0, r5, #0
 3274 0050 FFF7FEFF 		bl	__aeabi_fadd
 3275              	.LVL533:
 3276 0054 0290     		str	r0, [sp, #8]
 3277 0056 B861     		str	r0, [r7, #24]
  82:./inicio.h    ****     ampli = ampli + dampli*dt;
 3278              		.loc 5 82 0
 3279 0058 3D6A     		ldr	r5, [r7, #32]
 3280 005a 291C     		adds	r1, r5, #0
 3281 005c 201C     		adds	r0, r4, #0
 3282 005e FFF7FEFF 		bl	__aeabi_fmul
ARM GAS  C:\Users\HENRYA~1\AppData\Local\Temp\cceIRlNf.s 			page 71


 3283              	.LVL534:
 3284 0062 796A     		ldr	r1, [r7, #36]
 3285 0064 FFF7FEFF 		bl	__aeabi_fadd
 3286              	.LVL535:
 3287 0068 7862     		str	r0, [r7, #36]
  83:./inicio.h    ****     dampli = dampli + ddampli(dampli,ampli,amp2)*dt;
 3288              		.loc 5 83 0
 3289 006a BA6A     		ldr	r2, [r7, #40]
 3290 006c 0390     		str	r0, [sp, #12]
 3291 006e 011C     		adds	r1, r0, #0
 3292 0070 281C     		adds	r0, r5, #0
 3293 0072 FFF7FEFF 		bl	ddampli
 3294              	.LVL536:
 3295 0076 011C     		adds	r1, r0, #0
 3296 0078 201C     		adds	r0, r4, #0
 3297 007a FFF7FEFF 		bl	__aeabi_fmul
 3298              	.LVL537:
 3299 007e 011C     		adds	r1, r0, #0
 3300 0080 281C     		adds	r0, r5, #0
 3301 0082 FFF7FEFF 		bl	__aeabi_fadd
 3302              	.LVL538:
 3303 0086 3862     		str	r0, [r7, #32]
  84:./inicio.h    ****     offset = offset + doffset*dt;
 3304              		.loc 5 84 0
 3305 0088 FA6A     		ldr	r2, [r7, #44]
 3306 008a 0092     		str	r2, [sp]
 3307 008c 111C     		adds	r1, r2, #0
 3308 008e 201C     		adds	r0, r4, #0
 3309 0090 FFF7FEFF 		bl	__aeabi_fmul
 3310              	.LVL539:
 3311 0094 B168     		ldr	r1, [r6, #8]
 3312 0096 FFF7FEFF 		bl	__aeabi_fadd
 3313              	.LVL540:
 3314 009a 051C     		adds	r5, r0, #0
 3315 009c B060     		str	r0, [r6, #8]
  85:./inicio.h    ****     doffset = doffset + ddoffset(doffset,offset,of2)*dt;    
 3316              		.loc 5 85 0
 3317 009e F268     		ldr	r2, [r6, #12]
 3318 00a0 011C     		adds	r1, r0, #0
 3319 00a2 009E     		ldr	r6, [sp]
 3320 00a4 301C     		adds	r0, r6, #0
 3321 00a6 FFF7FEFF 		bl	ddoffset
 3322              	.LVL541:
 3323 00aa 011C     		adds	r1, r0, #0
 3324 00ac 201C     		adds	r0, r4, #0
 3325 00ae FFF7FEFF 		bl	__aeabi_fmul
 3326              	.LVL542:
 3327 00b2 011C     		adds	r1, r0, #0
 3328 00b4 301C     		adds	r0, r6, #0
 3329 00b6 FFF7FEFF 		bl	__aeabi_fadd
 3330              	.LVL543:
 3331 00ba F862     		str	r0, [r7, #44]
  86:./inicio.h    ****     sal = offset + ampli*cos(teta);
 3332              		.loc 5 86 0
 3333 00bc 0298     		ldr	r0, [sp, #8]
 3334 00be FFF7FEFF 		bl	__aeabi_f2d
 3335              	.LVL544:
ARM GAS  C:\Users\HENRYA~1\AppData\Local\Temp\cceIRlNf.s 			page 72


 3336 00c2 FFF7FEFF 		bl	cos
 3337              	.LVL545:
 3338 00c6 0090     		str	r0, [sp]
 3339 00c8 0191     		str	r1, [sp, #4]
 3340 00ca 0398     		ldr	r0, [sp, #12]
 3341 00cc FFF7FEFF 		bl	__aeabi_f2d
 3342              	.LVL546:
 3343 00d0 009A     		ldr	r2, [sp]
 3344 00d2 019B     		ldr	r3, [sp, #4]
 3345 00d4 FFF7FEFF 		bl	__aeabi_dmul
 3346              	.LVL547:
 3347 00d8 0090     		str	r0, [sp]
 3348 00da 0191     		str	r1, [sp, #4]
 3349 00dc 281C     		adds	r0, r5, #0
 3350 00de FFF7FEFF 		bl	__aeabi_f2d
 3351              	.LVL548:
 3352 00e2 009A     		ldr	r2, [sp]
 3353 00e4 019B     		ldr	r3, [sp, #4]
 3354 00e6 FFF7FEFF 		bl	__aeabi_dadd
 3355              	.LVL549:
 3356 00ea FFF7FEFF 		bl	__aeabi_d2f
 3357              	.LVL550:
 3358 00ee 3863     		str	r0, [r7, #48]
  87:./inicio.h    ****     x=(sal*1023)/(1.66666*M_PI); // covercion a bit
 3359              		.loc 5 87 0
 3360 00f0 1149     		ldr	r1, .L128+24
 3361 00f2 FFF7FEFF 		bl	__aeabi_fmul
 3362              	.LVL551:
 3363 00f6 FFF7FEFF 		bl	__aeabi_f2d
 3364              	.LVL552:
 3365 00fa 104A     		ldr	r2, .L128+28
 3366 00fc 104B     		ldr	r3, .L128+32
 3367 00fe FFF7FEFF 		bl	__aeabi_ddiv
 3368              	.LVL553:
 3369 0102 FFF7FEFF 		bl	__aeabi_d2f
 3370              	.LVL554:
 3371 0106 0F4B     		ldr	r3, .L128+36
 3372 0108 1860     		str	r0, [r3]
  88:./inicio.h    ****     f=(int)x;                    //funcion pso
 3373              		.loc 5 88 0
 3374 010a FFF7FEFF 		bl	__aeabi_f2iz
 3375              	.LVL555:
 3376 010e 0100     		movs	r1, r0
 3377 0110 0D4B     		ldr	r3, .L128+40
 3378 0112 1860     		str	r0, [r3]
  89:./inicio.h    ****     MoveSpeed(1,f,100);
 3379              		.loc 5 89 0
 3380 0114 6422     		movs	r2, #100
 3381 0116 0120     		movs	r0, #1
 3382 0118 FFF7FEFF 		bl	MoveSpeed
 3383              	.LVL556:
  90:./inicio.h    **** }
 3384              		.loc 5 90 0
 3385 011c 05B0     		add	sp, sp, #20
 3386              		@ sp needed
 3387 011e F0BD     		pop	{r4, r5, r6, r7, pc}
 3388              	.L129:
ARM GAS  C:\Users\HENRYA~1\AppData\Local\Temp\cceIRlNf.s 			page 73


 3389              		.align	2
 3390              	.L128:
 3391 0120 00000000 		.word	Teta_Can_l
 3392 0124 FCA9F1D2 		.word	-755914244
 3393 0128 4D62503F 		.word	1062232653
 3394 012c 00000000 		.word	.LANCHOR0
 3395 0130 00000000 		.word	Teta_Can_r
 3396 0134 00000000 		.word	.LANCHOR1
 3397 0138 00C07F44 		.word	1149222912
 3398 013c 8479B248 		.word	1219656068
 3399 0140 A1F11440 		.word	1075114401
 3400 0144 00000000 		.word	x
 3401 0148 00000000 		.word	f
 3402              		.cfi_endproc
 3403              	.LFE70:
 3404              		.size	CPG, .-CPG
 3405              		.section	.text.cantidad_m,"ax",%progbits
 3406              		.align	2
 3407              		.global	cantidad_m
 3408              		.code	16
 3409              		.thumb_func
 3410              		.type	cantidad_m, %function
 3411              	cantidad_m:
 3412              	.LFB71:
  91:./inicio.h    **** 
  92:./inicio.h    **** /////////////////////////////////////codigo para identificar//////////////////////////
  93:./inicio.h    **** void  cantidad_m(){
 3413              		.loc 5 93 0
 3414              		.cfi_startproc
 3415              		@ args = 0, pretend = 0, frame = 0
 3416              		@ frame_needed = 0, uses_anonymous_args = 0
 3417 0000 10B5     		push	{r4, lr}
 3418              		.cfi_def_cfa_offset 8
 3419              		.cfi_offset 4, -8
 3420              		.cfi_offset 14, -4
  94:./inicio.h    ****     dato_enviado[0]=VER ;//verificacion
 3421              		.loc 5 94 0
 3422 0002 094B     		ldr	r3, .L131
 3423 0004 7F22     		movs	r2, #127
 3424 0006 1A70     		strb	r2, [r3]
  95:./inicio.h    ****     dato_enviado[1]=DIRM;//dir
 3425              		.loc 5 95 0
 3426 0008 4932     		adds	r2, r2, #73
 3427 000a 5A70     		strb	r2, [r3, #1]
  96:./inicio.h    ****     dato_enviado[2]=ESCRITURA ;//operacion
 3428              		.loc 5 96 0
 3429 000c C63A     		subs	r2, r2, #198
 3430 000e 9A70     		strb	r2, [r3, #2]
  97:./inicio.h    ****     dato_enviado[3]=CANTIDAD_MOD;//lugar
 3431              		.loc 5 97 0
 3432 0010 2932     		adds	r2, r2, #41
 3433 0012 DA70     		strb	r2, [r3, #3]
  98:./inicio.h    ****     dato_enviado[4]=dirasig;  //dato... en este caso direcion para asignar
 3434              		.loc 5 98 0
 3435 0014 054A     		ldr	r2, .L131+4
 3436 0016 1278     		ldrb	r2, [r2]
 3437 0018 1A71     		strb	r2, [r3, #4]
ARM GAS  C:\Users\HENRYA~1\AppData\Local\Temp\cceIRlNf.s 			page 74


  99:./inicio.h    ****     CAN_SendMsg0(); 
 3438              		.loc 5 99 0
 3439 001a FFF7FEFF 		bl	CAN_SendMsg0
 3440              	.LVL557:
 100:./inicio.h    ****     CyDelay(25);
 3441              		.loc 5 100 0
 3442 001e 1920     		movs	r0, #25
 3443 0020 FFF7FEFF 		bl	CyDelay
 3444              	.LVL558:
 101:./inicio.h    **** }
 3445              		.loc 5 101 0
 3446              		@ sp needed
 3447 0024 10BD     		pop	{r4, pc}
 3448              	.L132:
 3449 0026 C046     		.align	2
 3450              	.L131:
 3451 0028 00000000 		.word	dato_enviado
 3452 002c 00000000 		.word	dirasig
 3453              		.cfi_endproc
 3454              	.LFE71:
 3455              		.size	cantidad_m, .-cantidad_m
 3456              		.section	.text.asignacion,"ax",%progbits
 3457              		.align	2
 3458              		.global	asignacion
 3459              		.code	16
 3460              		.thumb_func
 3461              		.type	asignacion, %function
 3462              	asignacion:
 3463              	.LFB72:
 102:./inicio.h    **** 
 103:./inicio.h    **** void asignacion(){
 3464              		.loc 5 103 0
 3465              		.cfi_startproc
 3466              		@ args = 0, pretend = 0, frame = 0
 3467              		@ frame_needed = 0, uses_anonymous_args = 0
 3468 0000 10B5     		push	{r4, lr}
 3469              		.cfi_def_cfa_offset 8
 3470              		.cfi_offset 4, -8
 3471              		.cfi_offset 14, -4
 104:./inicio.h    ****     dato_enviado[0]=VER ;//verificacion
 3472              		.loc 5 104 0
 3473 0002 094B     		ldr	r3, .L134
 3474 0004 7F22     		movs	r2, #127
 3475 0006 1A70     		strb	r2, [r3]
 105:./inicio.h    ****     dato_enviado[1]=DIRCS ;//dir
 3476              		.loc 5 105 0
 3477 0008 7B32     		adds	r2, r2, #123
 3478 000a 5A70     		strb	r2, [r3, #1]
 106:./inicio.h    ****     dato_enviado[2]=ESCRITURA ;//operacion
 3479              		.loc 5 106 0
 3480 000c F83A     		subs	r2, r2, #248
 3481 000e 9A70     		strb	r2, [r3, #2]
 107:./inicio.h    ****     dato_enviado[3]=MEC;//lugar
 3482              		.loc 5 107 0
 3483 0010 0832     		adds	r2, r2, #8
 3484 0012 DA70     		strb	r2, [r3, #3]
 108:./inicio.h    ****     dato_enviado[4]=dirasig ;  //dato... en este caso direcion para asignar
ARM GAS  C:\Users\HENRYA~1\AppData\Local\Temp\cceIRlNf.s 			page 75


 3485              		.loc 5 108 0
 3486 0014 054A     		ldr	r2, .L134+4
 3487 0016 1278     		ldrb	r2, [r2]
 3488 0018 1A71     		strb	r2, [r3, #4]
 109:./inicio.h    ****     CAN_SendMsg0(); 
 3489              		.loc 5 109 0
 3490 001a FFF7FEFF 		bl	CAN_SendMsg0
 3491              	.LVL559:
 110:./inicio.h    ****     CyDelay(25);
 3492              		.loc 5 110 0
 3493 001e 1920     		movs	r0, #25
 3494 0020 FFF7FEFF 		bl	CyDelay
 3495              	.LVL560:
 111:./inicio.h    **** }
 3496              		.loc 5 111 0
 3497              		@ sp needed
 3498 0024 10BD     		pop	{r4, pc}
 3499              	.L135:
 3500 0026 C046     		.align	2
 3501              	.L134:
 3502 0028 00000000 		.word	dato_enviado
 3503 002c 00000000 		.word	dirasig
 3504              		.cfi_endproc
 3505              	.LFE72:
 3506              		.size	asignacion, .-asignacion
 3507              		.section	.text.ledoff,"ax",%progbits
 3508              		.align	2
 3509              		.global	ledoff
 3510              		.code	16
 3511              		.thumb_func
 3512              		.type	ledoff, %function
 3513              	ledoff:
 3514              	.LFB73:
 112:./inicio.h    **** 
 113:./inicio.h    **** void ledoff(int datas,int direccion,int led){
 3515              		.loc 5 113 0
 3516              		.cfi_startproc
 3517              		@ args = 0, pretend = 0, frame = 0
 3518              		@ frame_needed = 0, uses_anonymous_args = 0
 3519              	.LVL561:
 3520 0000 10B5     		push	{r4, lr}
 3521              		.cfi_def_cfa_offset 8
 3522              		.cfi_offset 4, -8
 3523              		.cfi_offset 14, -4
 114:./inicio.h    ****     dato_enviado[0]=VER ;//verificacion
 3524              		.loc 5 114 0
 3525 0002 074B     		ldr	r3, .L137
 3526 0004 7F24     		movs	r4, #127
 3527 0006 1C70     		strb	r4, [r3]
 115:./inicio.h    ****     dato_enviado[1]=direccion ;//dir
 3528              		.loc 5 115 0
 3529 0008 5970     		strb	r1, [r3, #1]
 116:./inicio.h    ****     dato_enviado[2]=ESCRITURA ;//operacion
 3530              		.loc 5 116 0
 3531 000a 0221     		movs	r1, #2
 3532              	.LVL562:
 3533 000c 9970     		strb	r1, [r3, #2]
ARM GAS  C:\Users\HENRYA~1\AppData\Local\Temp\cceIRlNf.s 			page 76


 117:./inicio.h    ****     dato_enviado[3]=led;//lugar
 3534              		.loc 5 117 0
 3535 000e DA70     		strb	r2, [r3, #3]
 118:./inicio.h    ****     dato_enviado[4]= datas ;  //dato... en este caso direcion para asignar
 3536              		.loc 5 118 0
 3537 0010 1871     		strb	r0, [r3, #4]
 119:./inicio.h    ****     CAN_SendMsg0(); 
 3538              		.loc 5 119 0
 3539 0012 FFF7FEFF 		bl	CAN_SendMsg0
 3540              	.LVL563:
 120:./inicio.h    ****     CyDelay(25);
 3541              		.loc 5 120 0
 3542 0016 1920     		movs	r0, #25
 3543 0018 FFF7FEFF 		bl	CyDelay
 3544              	.LVL564:
 121:./inicio.h    **** }
 3545              		.loc 5 121 0
 3546              		@ sp needed
 3547 001c 10BD     		pop	{r4, pc}
 3548              	.L138:
 3549 001e C046     		.align	2
 3550              	.L137:
 3551 0020 00000000 		.word	dato_enviado
 3552              		.cfi_endproc
 3553              	.LFE73:
 3554              		.size	ledoff, .-ledoff
 3555              		.global	__aeabi_d2iz
 3556              		.section	.text.Send_Angle,"ax",%progbits
 3557              		.align	2
 3558              		.global	Send_Angle
 3559              		.code	16
 3560              		.thumb_func
 3561              		.type	Send_Angle, %function
 3562              	Send_Angle:
 3563              	.LFB74:
 122:./inicio.h    **** 
 123:./inicio.h    **** void Send_Angle(int datas,int Conta){ 
 3564              		.loc 5 123 0
 3565              		.cfi_startproc
 3566              		@ args = 0, pretend = 0, frame = 0
 3567              		@ frame_needed = 0, uses_anonymous_args = 0
 3568              	.LVL565:
 3569 0000 70B5     		push	{r4, r5, r6, lr}
 3570              		.cfi_def_cfa_offset 16
 3571              		.cfi_offset 4, -16
 3572              		.cfi_offset 5, -12
 3573              		.cfi_offset 6, -8
 3574              		.cfi_offset 14, -4
 3575              	.LVL566:
 124:./inicio.h    ****     int8 datoL=datas;
 125:./inicio.h    ****     int8 datoH=datas>>8;  
 3576              		.loc 5 125 0
 3577 0002 0412     		asrs	r4, r0, #8
 3578              	.LVL567:
 126:./inicio.h    ****     dato_enviado[0]=VER2;//verificacion
 3579              		.loc 5 126 0
 3580 0004 104B     		ldr	r3, .L141
ARM GAS  C:\Users\HENRYA~1\AppData\Local\Temp\cceIRlNf.s 			page 77


 3581 0006 8022     		movs	r2, #128
 3582 0008 1A70     		strb	r2, [r3]
 127:./inicio.h    ****     dato_enviado[1]=Mydir+1;//dir
 3583              		.loc 5 127 0
 3584 000a 104A     		ldr	r2, .L141+4
 3585 000c 127C     		ldrb	r2, [r2, #16]
 3586 000e 551C     		adds	r5, r2, #1
 3587 0010 5D70     		strb	r5, [r3, #1]
 128:./inicio.h    ****     if(Mydir==cantidadM){dato_enviado[1]=0;}
 3588              		.loc 5 128 0
 3589 0012 0F4B     		ldr	r3, .L141+8
 3590 0014 1B68     		ldr	r3, [r3]
 3591 0016 9A42     		cmp	r2, r3
 3592 0018 02D1     		bne	.L140
 3593              		.loc 5 128 0 is_stmt 0 discriminator 1
 3594 001a 0025     		movs	r5, #0
 3595 001c 0A4B     		ldr	r3, .L141
 3596 001e 5D70     		strb	r5, [r3, #1]
 3597              	.L140:
 129:./inicio.h    ****     dato_enviado[2]=Mydir-1;//dir
 3598              		.loc 5 129 0 is_stmt 1
 3599 0020 094B     		ldr	r3, .L141
 3600 0022 551E     		subs	r5, r2, #1
 3601 0024 9D70     		strb	r5, [r3, #2]
 130:./inicio.h    ****     dato_enviado[3]=ANGLE;
 3602              		.loc 5 130 0
 3603 0026 1B25     		movs	r5, #27
 3604 0028 DD70     		strb	r5, [r3, #3]
 131:./inicio.h    ****     dato_enviado[4]=datoL;//dato
 3605              		.loc 5 131 0
 3606 002a 1871     		strb	r0, [r3, #4]
 132:./inicio.h    ****     dato_enviado[5]=datoH;  //dato... en este caso direcion para asignar
 3607              		.loc 5 132 0
 3608 002c 5C71     		strb	r4, [r3, #5]
 133:./inicio.h    ****     dato_enviado[6]=Mydir;
 3609              		.loc 5 133 0
 3610 002e 9A71     		strb	r2, [r3, #6]
 134:./inicio.h    ****     dato_enviado[7]=Conta;
 3611              		.loc 5 134 0
 3612 0030 D971     		strb	r1, [r3, #7]
 135:./inicio.h    ****     CAN_SendMsg0();
 3613              		.loc 5 135 0
 3614 0032 FFF7FEFF 		bl	CAN_SendMsg0
 3615              	.LVL568:
 136:./inicio.h    ****     int retardo=0;
 137:./inicio.h    ****     retardo=(int)randd()*100;
 3616              		.loc 5 137 0
 3617 0036 FFF7FEFF 		bl	randd
 3618              	.LVL569:
 3619 003a FFF7FEFF 		bl	__aeabi_d2iz
 3620              	.LVL570:
 3621 003e 6423     		movs	r3, #100
 3622 0040 5843     		muls	r0, r3
 3623              	.LVL571:
 138:./inicio.h    ****     CyDelay(retardo);
 3624              		.loc 5 138 0
 3625 0042 FFF7FEFF 		bl	CyDelay
ARM GAS  C:\Users\HENRYA~1\AppData\Local\Temp\cceIRlNf.s 			page 78


 3626              	.LVL572:
 139:./inicio.h    **** }
 3627              		.loc 5 139 0
 3628              		@ sp needed
 3629              	.LVL573:
 3630 0046 70BD     		pop	{r4, r5, r6, pc}
 3631              	.L142:
 3632              		.align	2
 3633              	.L141:
 3634 0048 00000000 		.word	dato_enviado
 3635 004c 00000000 		.word	.LANCHOR1
 3636 0050 00000000 		.word	cantidadM
 3637              		.cfi_endproc
 3638              	.LFE74:
 3639              		.size	Send_Angle, .-Send_Angle
 3640              		.section	.text.inicio,"ax",%progbits
 3641              		.align	2
 3642              		.global	inicio
 3643              		.code	16
 3644              		.thumb_func
 3645              		.type	inicio, %function
 3646              	inicio:
 3647              	.LFB75:
 140:./inicio.h    **** 
 141:./inicio.h    **** void inicio(){
 3648              		.loc 5 141 0
 3649              		.cfi_startproc
 3650              		@ args = 0, pretend = 0, frame = 0
 3651              		@ frame_needed = 0, uses_anonymous_args = 0
 3652 0000 70B5     		push	{r4, r5, r6, lr}
 3653              		.cfi_def_cfa_offset 16
 3654              		.cfi_offset 4, -16
 3655              		.cfi_offset 5, -12
 3656              		.cfi_offset 6, -8
 3657              		.cfi_offset 14, -4
 3658              	.L146:
 142:./inicio.h    ****     ini:
 143:./inicio.h    ****     Pd=readProximity_2();
 3659              		.loc 5 143 0
 3660 0002 FFF7FEFF 		bl	readProximity_2
 3661              	.LVL574:
 3662 0006 474B     		ldr	r3, .L154
 3663 0008 1860     		str	r0, [r3]
 144:./inicio.h    ****     if(Mydir!=DIRCS){
 3664              		.loc 5 144 0
 3665 000a 474B     		ldr	r3, .L154+4
 3666 000c 1B7C     		ldrb	r3, [r3, #16]
 3667 000e FA2B     		cmp	r3, #250
 3668 0010 00D0     		beq	.LCB3140
 3669 0012 85E0     		b	.L143	@long jump
 3670              	.LCB3140:
 145:./inicio.h    ****        goto end;
 146:./inicio.h    ****     }else{
 147:./inicio.h    ****     errc=CAN_GetErrorState();  ///////////status can
 3671              		.loc 5 147 0
 3672 0014 FFF7FEFF 		bl	CAN_GetErrorState
 3673              	.LVL575:
ARM GAS  C:\Users\HENRYA~1\AppData\Local\Temp\cceIRlNf.s 			page 79


 3674 0018 444B     		ldr	r3, .L154+8
 3675 001a 1860     		str	r0, [r3]
 148:./inicio.h    ****         if(errc==0){  
 3676              		.loc 5 148 0
 3677 001c 0028     		cmp	r0, #0
 3678 001e F0D1     		bne	.L146
 149:./inicio.h    ****             if(Pd>=3000){
 3679              		.loc 5 149 0
 3680 0020 404B     		ldr	r3, .L154
 3681 0022 1A68     		ldr	r2, [r3]
 3682 0024 424B     		ldr	r3, .L154+12
 3683 0026 9A42     		cmp	r2, r3
 3684 0028 19DD     		ble	.L147
 150:./inicio.h    ****                 Pda=readAmbient_2(); 
 3685              		.loc 5 150 0
 3686 002a FFF7FEFF 		bl	readAmbient_2
 3687              	.LVL576:
 3688 002e 414C     		ldr	r4, .L154+16
 3689 0030 2060     		str	r0, [r4]
 151:./inicio.h    ****                 LED_3_Write(1); 
 3690              		.loc 5 151 0
 3691 0032 0120     		movs	r0, #1
 3692 0034 FFF7FEFF 		bl	LED_3_Write
 3693              	.LVL577:
 152:./inicio.h    ****                 Pda=readAmbient_2(); 
 3694              		.loc 5 152 0
 3695 0038 FFF7FEFF 		bl	readAmbient_2
 3696              	.LVL578:
 3697 003c 2060     		str	r0, [r4]
 153:./inicio.h    ****                 CyDelay(4);  
 3698              		.loc 5 153 0
 3699 003e 0420     		movs	r0, #4
 3700 0040 FFF7FEFF 		bl	CyDelay
 3701              	.LVL579:
 154:./inicio.h    ****                 LED_3_Write(0);
 3702              		.loc 5 154 0
 3703 0044 0020     		movs	r0, #0
 3704 0046 FFF7FEFF 		bl	LED_3_Write
 3705              	.LVL580:
 155:./inicio.h    ****                 Pda=readAmbient_2(); 
 3706              		.loc 5 155 0
 3707 004a FFF7FEFF 		bl	readAmbient_2
 3708              	.LVL581:
 3709 004e 2060     		str	r0, [r4]
 156:./inicio.h    ****                 CyDelay(4); 
 3710              		.loc 5 156 0
 3711 0050 0420     		movs	r0, #4
 3712 0052 FFF7FEFF 		bl	CyDelay
 3713              	.LVL582:
 157:./inicio.h    ****                 Pda=readAmbient_2(); 
 3714              		.loc 5 157 0
 3715 0056 FFF7FEFF 		bl	readAmbient_2
 3716              	.LVL583:
 3717 005a 2060     		str	r0, [r4]
 3718              	.L144:
 158:./inicio.h    ****                 goto ini;     
 3719              		.loc 5 158 0
ARM GAS  C:\Users\HENRYA~1\AppData\Local\Temp\cceIRlNf.s 			page 80


 3720 005c D1E7     		b	.L146
 3721              	.L147:
 159:./inicio.h    ****         }else{
 160:./inicio.h    ****             Mydir=0;
 3722              		.loc 5 160 0
 3723 005e 0022     		movs	r2, #0
 3724 0060 314B     		ldr	r3, .L154+4
 3725 0062 1A74     		strb	r2, [r3, #16]
 161:./inicio.h    ****             LED_2_Write(1);  ///identificador
 3726              		.loc 5 161 0
 3727 0064 0120     		movs	r0, #1
 3728 0066 FFF7FEFF 		bl	LED_2_Write
 3729              	.LVL584:
 162:./inicio.h    ****             LED_4_Write(1);///led trasero 
 3730              		.loc 5 162 0
 3731 006a 0120     		movs	r0, #1
 3732 006c FFF7FEFF 		bl	LED_4_Write
 3733              	.LVL585:
 3734              	.L148:
 163:./inicio.h    ****             asig:
 164:./inicio.h    ****             CyDelay(2000);///t para lectura amb         ///
 3735              		.loc 5 164 0
 3736 0070 FA20     		movs	r0, #250
 3737 0072 C000     		lsls	r0, r0, #3
 3738 0074 FFF7FEFF 		bl	CyDelay
 3739              	.LVL586:
 165:./inicio.h    ****             dirasig=sumadir+1;
 3740              		.loc 5 165 0
 3741 0078 2F4A     		ldr	r2, .L154+20
 3742 007a 1378     		ldrb	r3, [r2]
 3743 007c 0133     		adds	r3, r3, #1
 3744 007e 2F49     		ldr	r1, .L154+24
 3745 0080 0B70     		strb	r3, [r1]
 166:./inicio.h    ****             sumadir=0;
 3746              		.loc 5 166 0
 3747 0082 0023     		movs	r3, #0
 3748 0084 1370     		strb	r3, [r2]
 167:./inicio.h    ****             asignacion();/////envio1
 3749              		.loc 5 167 0
 3750 0086 FFF7FEFF 		bl	asignacion
 3751              	.LVL587:
 168:./inicio.h    ****             while(sumadir!=dirasig){
 3752              		.loc 5 168 0
 3753 008a 2AE0     		b	.L150
 3754              	.L152:
 169:./inicio.h    ****                 //// espera de verificacion de llegada
 170:./inicio.h    ****                 CyDelay(75);       
 3755              		.loc 5 170 0
 3756 008c 4B20     		movs	r0, #75
 3757 008e FFF7FEFF 		bl	CyDelay
 3758              	.LVL588:
 171:./inicio.h    ****                 if(t==20){ 
 3759              		.loc 5 171 0
 3760 0092 2B4B     		ldr	r3, .L154+28
 3761 0094 1B68     		ldr	r3, [r3]
 3762 0096 142B     		cmp	r3, #20
 3763 0098 20D1     		bne	.L151
ARM GAS  C:\Users\HENRYA~1\AppData\Local\Temp\cceIRlNf.s 			page 81


 172:./inicio.h    ****                     LED_4_Write(0);
 3764              		.loc 5 172 0
 3765 009a 0020     		movs	r0, #0
 3766 009c FFF7FEFF 		bl	LED_4_Write
 3767              	.LVL589:
 173:./inicio.h    ****                     dirasig= dirasig-1;
 3768              		.loc 5 173 0
 3769 00a0 264C     		ldr	r4, .L154+24
 3770 00a2 2178     		ldrb	r1, [r4]
 3771 00a4 0139     		subs	r1, r1, #1
 3772 00a6 C9B2     		uxtb	r1, r1
 3773 00a8 2170     		strb	r1, [r4]
 174:./inicio.h    ****                     ledoff(0,dirasig,LEDF);
 3774              		.loc 5 174 0
 3775 00aa 0E22     		movs	r2, #14
 3776 00ac 0020     		movs	r0, #0
 3777 00ae FFF7FEFF 		bl	ledoff
 3778              	.LVL590:
 175:./inicio.h    ****                     ant=dirasig; ///valor real de numero de modulos
 3779              		.loc 5 175 0
 3780 00b2 2378     		ldrb	r3, [r4]
 3781 00b4 234D     		ldr	r5, .L154+32
 176:./inicio.h    ****                     ant=dirasig-1;
 3782              		.loc 5 176 0
 3783 00b6 013B     		subs	r3, r3, #1
 3784 00b8 2B60     		str	r3, [r5]
 177:./inicio.h    ****                     CyDelay(5);
 3785              		.loc 5 177 0
 3786 00ba 0520     		movs	r0, #5
 3787 00bc FFF7FEFF 		bl	CyDelay
 3788              	.LVL591:
 178:./inicio.h    ****                     ledoff(0,ant,LEDF);
 3789              		.loc 5 178 0
 3790 00c0 2968     		ldr	r1, [r5]
 3791 00c2 0E22     		movs	r2, #14
 3792 00c4 0020     		movs	r0, #0
 3793 00c6 FFF7FEFF 		bl	ledoff
 3794              	.LVL592:
 179:./inicio.h    ****                     cantidad_m();
 3795              		.loc 5 179 0
 3796 00ca FFF7FEFF 		bl	cantidad_m
 3797              	.LVL593:
 180:./inicio.h    ****                     cantidadM=dirasig;
 3798              		.loc 5 180 0
 3799 00ce 2278     		ldrb	r2, [r4]
 3800 00d0 1D4B     		ldr	r3, .L154+36
 3801 00d2 1A60     		str	r2, [r3]
 181:./inicio.h    ****                     Condicion_Start=1;
 3802              		.loc 5 181 0
 3803 00d4 0122     		movs	r2, #1
 3804 00d6 1D4B     		ldr	r3, .L154+40
 3805 00d8 5A63     		str	r2, [r3, #52]
 182:./inicio.h    ****                     goto end;
 3806              		.loc 5 182 0
 3807 00da 21E0     		b	.L143
 3808              	.L151:
 183:./inicio.h    ****                 }else t++;
ARM GAS  C:\Users\HENRYA~1\AppData\Local\Temp\cceIRlNf.s 			page 82


 3809              		.loc 5 183 0
 3810 00dc 0133     		adds	r3, r3, #1
 3811 00de 184A     		ldr	r2, .L154+28
 3812 00e0 1360     		str	r3, [r2]
 3813              	.L150:
 168:./inicio.h    ****                 //// espera de verificacion de llegada
 3814              		.loc 5 168 0
 3815 00e2 154B     		ldr	r3, .L154+20
 3816 00e4 1978     		ldrb	r1, [r3]
 3817 00e6 154B     		ldr	r3, .L154+24
 3818 00e8 1B78     		ldrb	r3, [r3]
 3819 00ea 9942     		cmp	r1, r3
 3820 00ec CED1     		bne	.L152
 184:./inicio.h    ****             }t=0;  
 3821              		.loc 5 184 0
 3822 00ee 0022     		movs	r2, #0
 3823 00f0 134B     		ldr	r3, .L154+28
 3824 00f2 1A60     		str	r2, [r3]
 185:./inicio.h    ****             ledoff(1,sumadir,LEDF);
 3825              		.loc 5 185 0
 3826 00f4 0E32     		adds	r2, r2, #14
 3827 00f6 0120     		movs	r0, #1
 3828 00f8 FFF7FEFF 		bl	ledoff
 3829              	.LVL594:
 186:./inicio.h    ****             if(sumadir>1){
 3830              		.loc 5 186 0
 3831 00fc 0E4B     		ldr	r3, .L154+20
 3832 00fe 1B78     		ldrb	r3, [r3]
 3833 0100 012B     		cmp	r3, #1
 3834 0102 09D9     		bls	.L153
 187:./inicio.h    ****                 ant=dirasig-1;
 3835              		.loc 5 187 0
 3836 0104 0D4B     		ldr	r3, .L154+24
 3837 0106 1978     		ldrb	r1, [r3]
 3838 0108 0139     		subs	r1, r1, #1
 3839 010a 0E4B     		ldr	r3, .L154+32
 3840 010c 1960     		str	r1, [r3]
 188:./inicio.h    ****                 ledoff(0,ant,LEDF);
 3841              		.loc 5 188 0
 3842 010e 0E22     		movs	r2, #14
 3843 0110 0020     		movs	r0, #0
 3844 0112 FFF7FEFF 		bl	ledoff
 3845              	.LVL595:
 3846 0116 ABE7     		b	.L148
 3847              	.L153:
 189:./inicio.h    ****             }else LED_4_Write(0);      
 3848              		.loc 5 189 0
 3849 0118 0020     		movs	r0, #0
 3850 011a FFF7FEFF 		bl	LED_4_Write
 3851              	.LVL596:
 3852              	.L149:
 3853 011e A7E7     		b	.L148
 3854              	.L145:
 3855              	.L143:
 190:./inicio.h    ****             goto asig;
 191:./inicio.h    ****             }      
 192:./inicio.h    ****         } else goto ini;
ARM GAS  C:\Users\HENRYA~1\AppData\Local\Temp\cceIRlNf.s 			page 83


 193:./inicio.h    ****     }        
 194:./inicio.h    ****     end:;           
 195:./inicio.h    **** }
 3856              		.loc 5 195 0
 3857              		@ sp needed
 3858 0120 70BD     		pop	{r4, r5, r6, pc}
 3859              	.L155:
 3860 0122 C046     		.align	2
 3861              	.L154:
 3862 0124 00000000 		.word	Pd
 3863 0128 00000000 		.word	.LANCHOR1
 3864 012c 00000000 		.word	errc
 3865 0130 B70B0000 		.word	2999
 3866 0134 00000000 		.word	Pda
 3867 0138 00000000 		.word	sumadir
 3868 013c 00000000 		.word	dirasig
 3869 0140 00000000 		.word	t
 3870 0144 00000000 		.word	ant
 3871 0148 00000000 		.word	cantidadM
 3872 014c 00000000 		.word	.LANCHOR0
 3873              		.cfi_endproc
 3874              	.LFE75:
 3875              		.size	inicio, .-inicio
 3876              		.section	.text.recibmail,"ax",%progbits
 3877              		.align	2
 3878              		.global	recibmail
 3879              		.code	16
 3880              		.thumb_func
 3881              		.type	recibmail, %function
 3882              	recibmail:
 3883              	.LFB76:
 196:./inicio.h    **** 
 197:./inicio.h    **** void recibmail(){
 3884              		.loc 5 197 0
 3885              		.cfi_startproc
 3886              		@ args = 0, pretend = 0, frame = 0
 3887              		@ frame_needed = 0, uses_anonymous_args = 0
 3888 0000 70B5     		push	{r4, r5, r6, lr}
 3889              		.cfi_def_cfa_offset 16
 3890              		.cfi_offset 4, -16
 3891              		.cfi_offset 5, -12
 3892              		.cfi_offset 6, -8
 3893              		.cfi_offset 14, -4
 198:./inicio.h    ****     if((mailbox0[0]==VER)&(mailbox0[1]==Mydir)){
 3894              		.loc 5 198 0
 3895 0002 854A     		ldr	r2, .L187
 3896 0004 1478     		ldrb	r4, [r2]
 3897 0006 2300     		movs	r3, r4
 3898 0008 7F3B     		subs	r3, r3, #127
 3899 000a 5942     		rsbs	r1, r3, #0
 3900 000c 4B41     		adcs	r3, r3, r1
 3901 000e DBB2     		uxtb	r3, r3
 3902 0010 5178     		ldrb	r1, [r2, #1]
 3903 0012 824A     		ldr	r2, .L187+4
 3904 0014 107C     		ldrb	r0, [r2, #16]
 3905 0016 0A1A     		subs	r2, r1, r0
 3906 0018 5542     		rsbs	r5, r2, #0
ARM GAS  C:\Users\HENRYA~1\AppData\Local\Temp\cceIRlNf.s 			page 84


 3907 001a 6A41     		adcs	r2, r2, r5
 3908 001c 1A42     		tst	r2, r3
 3909 001e 00D1     		bne	.LCB3344
 3910 0020 99E0     		b	.L157	@long jump
 3911              	.LCB3344:
 199:./inicio.h    ****         switch(mailbox0[2]){
 3912              		.loc 5 199 0
 3913 0022 7D4B     		ldr	r3, .L187
 3914 0024 9B78     		ldrb	r3, [r3, #2]
 3915 0026 022B     		cmp	r3, #2
 3916 0028 03D0     		beq	.L159
 3917 002a 282B     		cmp	r3, #40
 3918 002c 00D0     		beq	.LCB3350
 3919 002e F1E0     		b	.L156	@long jump
 3920              	.LCB3350:
 3921 0030 8CE0     		b	.L160
 3922              	.L159:
 200:./inicio.h    ****             ///////////////////////////////////////////////////////
 201:./inicio.h    ****             case LECM:{ 
 202:./inicio.h    ****                 switch(mailbox0[3]){//////////+6+++++++++++++
 203:./inicio.h    ****                     case MOTOR:
 204:./inicio.h    ****                     break;
 205:./inicio.h    ****                     case SENSOR1:
 206:./inicio.h    ****                     switch(mailbox0[4]){
 207:./inicio.h    ****                         case SAMB:
 208:./inicio.h    ****                         //code
 209:./inicio.h    ****                         break;
 210:./inicio.h    ****                         case SPROX: 
 211:./inicio.h    ****                         //code 
 212:./inicio.h    ****                         break; 
 213:./inicio.h    ****                     }break;
 214:./inicio.h    ****                     case SENSOR2: 
 215:./inicio.h    ****                     break;
 216:./inicio.h    ****                     case SENSOR3:  
 217:./inicio.h    ****                     break;
 218:./inicio.h    ****                     case SENSOR4: 
 219:./inicio.h    ****                     break; 
 220:./inicio.h    ****                 }break;  
 221:./inicio.h    ****                 }break;   
 222:./inicio.h    ****             case ESCRITURA:{
 223:./inicio.h    ****                 switch(mailbox0[3]){////+++++++++++++++++++++++++++++++++++
 3923              		.loc 5 223 0
 3924 0032 794B     		ldr	r3, .L187
 3925 0034 DB78     		ldrb	r3, [r3, #3]
 3926 0036 033B     		subs	r3, r3, #3
 3927 0038 DAB2     		uxtb	r2, r3
 3928 003a 182A     		cmp	r2, #24
 3929 003c 00D9     		bls	.LCB3360
 3930 003e E9E0     		b	.L156	@long jump
 3931              	.LCB3360:
 3932 0040 9300     		lsls	r3, r2, #2
 3933 0042 774A     		ldr	r2, .L187+8
 3934 0044 D358     		ldr	r3, [r2, r3]
 3935 0046 9F46     		mov	pc, r3
 3936              		.section	.rodata
 3937              		.align	2
 3938              	.L162:
ARM GAS  C:\Users\HENRYA~1\AppData\Local\Temp\cceIRlNf.s 			page 85


 3939 0000 94000000 		.word	.L161
 3940 0004 14020000 		.word	.L156
 3941 0008 14020000 		.word	.L156
 3942 000c 14020000 		.word	.L156
 3943 0010 14020000 		.word	.L156
 3944 0014 14020000 		.word	.L156
 3945 0018 14020000 		.word	.L156
 3946 001c 48000000 		.word	.L163
 3947 0020 AE000000 		.word	.L164
 3948 0024 CC000000 		.word	.L165
 3949 0028 EA000000 		.word	.L166
 3950 002c 08010000 		.word	.L167
 3951 0030 14020000 		.word	.L156
 3952 0034 14020000 		.word	.L156
 3953 0038 14020000 		.word	.L156
 3954 003c 14020000 		.word	.L156
 3955 0040 14020000 		.word	.L156
 3956 0044 14020000 		.word	.L156
 3957 0048 14020000 		.word	.L156
 3958 004c 14020000 		.word	.L156
 3959 0050 14020000 		.word	.L156
 3960 0054 14020000 		.word	.L156
 3961 0058 14020000 		.word	.L156
 3962 005c 14020000 		.word	.L156
 3963 0060 24010000 		.word	.L168
 3964              		.section	.text.recibmail
 3965              	.L163:
 224:./inicio.h    ****                     case MEC:{
 225:./inicio.h    ****                         CyDelay(100);
 3966              		.loc 5 225 0
 3967 0048 6420     		movs	r0, #100
 3968 004a FFF7FEFF 		bl	CyDelay
 3969              	.LVL597:
 226:./inicio.h    ****                         LED_1_Write(1);
 3970              		.loc 5 226 0
 3971 004e 0120     		movs	r0, #1
 3972 0050 FFF7FEFF 		bl	LED_1_Write
 3973              	.LVL598:
 227:./inicio.h    ****                         CyDelay(100);
 3974              		.loc 5 227 0
 3975 0054 6420     		movs	r0, #100
 3976 0056 FFF7FEFF 		bl	CyDelay
 3977              	.LVL599:
 228:./inicio.h    ****                         LED_1_Write(0);
 3978              		.loc 5 228 0
 3979 005a 0020     		movs	r0, #0
 3980 005c FFF7FEFF 		bl	LED_1_Write
 3981              	.LVL600:
 229:./inicio.h    ****                         if(Pda>=1700){
 3982              		.loc 5 229 0
 3983 0060 704B     		ldr	r3, .L187+12
 3984 0062 1A68     		ldr	r2, [r3]
 3985 0064 704B     		ldr	r3, .L187+16
 3986 0066 9A42     		cmp	r2, r3
 3987 0068 00D8     		bhi	.LCB3388
 3988 006a D3E0     		b	.L156	@long jump
 3989              	.LCB3388:
ARM GAS  C:\Users\HENRYA~1\AppData\Local\Temp\cceIRlNf.s 			page 86


 230:./inicio.h    ****                             Mydir=mailbox0[4];
 3990              		.loc 5 230 0
 3991 006c 6A4B     		ldr	r3, .L187
 3992 006e 1979     		ldrb	r1, [r3, #4]
 3993 0070 6A4B     		ldr	r3, .L187+4
 3994 0072 1974     		strb	r1, [r3, #16]
 231:./inicio.h    ****                             dato_enviado[0]=VER;
 3995              		.loc 5 231 0
 3996 0074 6D4B     		ldr	r3, .L187+20
 3997 0076 7F22     		movs	r2, #127
 3998 0078 1A70     		strb	r2, [r3]
 232:./inicio.h    ****                             dato_enviado[1]=0;//Direccion del Maestro
 3999              		.loc 5 232 0
 4000 007a 0022     		movs	r2, #0
 4001 007c 5A70     		strb	r2, [r3, #1]
 233:./inicio.h    ****                             dato_enviado[2]=OK;
 4002              		.loc 5 233 0
 4003 007e 2820     		movs	r0, #40
 4004 0080 9870     		strb	r0, [r3, #2]
 234:./inicio.h    ****                             dato_enviado[3]=Mydir;
 4005              		.loc 5 234 0
 4006 0082 D970     		strb	r1, [r3, #3]
 235:./inicio.h    ****                             dato_enviado[4]=0;
 4007              		.loc 5 235 0
 4008 0084 1A71     		strb	r2, [r3, #4]
 236:./inicio.h    ****                             dato_enviado[5]=0;
 4009              		.loc 5 236 0
 4010 0086 5A71     		strb	r2, [r3, #5]
 237:./inicio.h    ****                             CAN_SendMsg0();
 4011              		.loc 5 237 0
 4012 0088 FFF7FEFF 		bl	CAN_SendMsg0
 4013              	.LVL601:
 238:./inicio.h    ****                             LED_1_Write(1); 
 4014              		.loc 5 238 0
 4015 008c 0120     		movs	r0, #1
 4016 008e FFF7FEFF 		bl	LED_1_Write
 4017              	.LVL602:
 4018 0092 BFE0     		b	.L156
 4019              	.L161:
 239:./inicio.h    ****                             }
 240:./inicio.h    ****                         else;}break;
 241:./inicio.h    ****                     case MOTOR:   
 242:./inicio.h    ****                     PositionM = mailbox0[4] << 8;  
 4020              		.loc 5 242 0
 4021 0094 604B     		ldr	r3, .L187
 4022 0096 1979     		ldrb	r1, [r3, #4]
 4023 0098 0902     		lsls	r1, r1, #8
 243:./inicio.h    ****                     PositionM = PositionM+mailbox0[5];
 4024              		.loc 5 243 0
 4025 009a 5B79     		ldrb	r3, [r3, #5]
 4026 009c 5918     		adds	r1, r3, r1
 4027 009e 644B     		ldr	r3, .L187+24
 4028 00a0 1960     		str	r1, [r3]
 244:./inicio.h    ****                     MoveSpeed(dir,PositionM,100);
 4029              		.loc 5 244 0
 4030 00a2 5E4B     		ldr	r3, .L187+4
 4031 00a4 587C     		ldrb	r0, [r3, #17]
ARM GAS  C:\Users\HENRYA~1\AppData\Local\Temp\cceIRlNf.s 			page 87


 4032 00a6 6422     		movs	r2, #100
 4033 00a8 FFF7FEFF 		bl	MoveSpeed
 4034              	.LVL603:
 245:./inicio.h    ****                     break;
 4035              		.loc 5 245 0
 4036 00ac B2E0     		b	.L156
 4037              	.L164:
 246:./inicio.h    ****                     case LED1:
 247:./inicio.h    ****                     switch(mailbox0[4]){
 4038              		.loc 5 247 0
 4039 00ae 5A4B     		ldr	r3, .L187
 4040 00b0 1B79     		ldrb	r3, [r3, #4]
 4041 00b2 002B     		cmp	r3, #0
 4042 00b4 06D0     		beq	.L169
 4043 00b6 012B     		cmp	r3, #1
 4044 00b8 00D0     		beq	.LCB3433
 4045 00ba ABE0     		b	.L156	@long jump
 4046              	.LCB3433:
 248:./inicio.h    ****                         case ONM:  LED_1_Write(1);  break;
 4047              		.loc 5 248 0
 4048 00bc 0120     		movs	r0, #1
 4049 00be FFF7FEFF 		bl	LED_1_Write
 4050              	.LVL604:
 4051 00c2 A7E0     		b	.L156
 4052              	.L169:
 249:./inicio.h    ****                         case OFFM: LED_1_Write(0);  break;
 4053              		.loc 5 249 0
 4054 00c4 0020     		movs	r0, #0
 4055 00c6 FFF7FEFF 		bl	LED_1_Write
 4056              	.LVL605:
 4057 00ca A3E0     		b	.L156
 4058              	.L165:
 250:./inicio.h    ****                         }break;
 251:./inicio.h    ****                     case LED2:
 252:./inicio.h    ****                     switch(mailbox0[4]){
 4059              		.loc 5 252 0
 4060 00cc 524B     		ldr	r3, .L187
 4061 00ce 1B79     		ldrb	r3, [r3, #4]
 4062 00d0 002B     		cmp	r3, #0
 4063 00d2 06D0     		beq	.L171
 4064 00d4 012B     		cmp	r3, #1
 4065 00d6 00D0     		beq	.LCB3453
 4066 00d8 9CE0     		b	.L156	@long jump
 4067              	.LCB3453:
 253:./inicio.h    ****                         case ONM:  LED_2_Write(1);  break;
 4068              		.loc 5 253 0
 4069 00da 0120     		movs	r0, #1
 4070 00dc FFF7FEFF 		bl	LED_2_Write
 4071              	.LVL606:
 4072 00e0 98E0     		b	.L156
 4073              	.L171:
 254:./inicio.h    ****                         case OFFM: LED_2_Write(0);  break;
 4074              		.loc 5 254 0
 4075 00e2 0020     		movs	r0, #0
 4076 00e4 FFF7FEFF 		bl	LED_2_Write
 4077              	.LVL607:
 4078 00e8 94E0     		b	.L156
ARM GAS  C:\Users\HENRYA~1\AppData\Local\Temp\cceIRlNf.s 			page 88


 4079              	.L166:
 255:./inicio.h    ****                         }break;
 256:./inicio.h    ****                     case LED3:
 257:./inicio.h    ****                     switch(mailbox0[4]){
 4080              		.loc 5 257 0
 4081 00ea 4B4B     		ldr	r3, .L187
 4082 00ec 1B79     		ldrb	r3, [r3, #4]
 4083 00ee 002B     		cmp	r3, #0
 4084 00f0 06D0     		beq	.L173
 4085 00f2 012B     		cmp	r3, #1
 4086 00f4 00D0     		beq	.LCB3473
 4087 00f6 8DE0     		b	.L156	@long jump
 4088              	.LCB3473:
 258:./inicio.h    ****                         case ONM:  LED_3_Write(1);  break;
 4089              		.loc 5 258 0
 4090 00f8 0120     		movs	r0, #1
 4091 00fa FFF7FEFF 		bl	LED_3_Write
 4092              	.LVL608:
 4093 00fe 89E0     		b	.L156
 4094              	.L173:
 259:./inicio.h    ****                         case OFFM: LED_3_Write(0);  break;
 4095              		.loc 5 259 0
 4096 0100 0020     		movs	r0, #0
 4097 0102 FFF7FEFF 		bl	LED_3_Write
 4098              	.LVL609:
 4099 0106 85E0     		b	.L156
 4100              	.L167:
 260:./inicio.h    ****                         }
 261:./inicio.h    ****                     break;
 262:./inicio.h    ****                     case LED4:
 263:./inicio.h    ****                     switch(mailbox0[4]){
 4101              		.loc 5 263 0
 4102 0108 434B     		ldr	r3, .L187
 4103 010a 1B79     		ldrb	r3, [r3, #4]
 4104 010c 002B     		cmp	r3, #0
 4105 010e 05D0     		beq	.L175
 4106 0110 012B     		cmp	r3, #1
 4107 0112 7FD1     		bne	.L156
 264:./inicio.h    ****                         case ONM:  LED_4_Write(1);  break;
 4108              		.loc 5 264 0
 4109 0114 0120     		movs	r0, #1
 4110 0116 FFF7FEFF 		bl	LED_4_Write
 4111              	.LVL610:
 4112 011a 7BE0     		b	.L156
 4113              	.L175:
 265:./inicio.h    ****                         case OFFM: LED_4_Write(0);  break;
 4114              		.loc 5 265 0
 4115 011c 0020     		movs	r0, #0
 4116 011e FFF7FEFF 		bl	LED_4_Write
 4117              	.LVL611:
 4118 0122 77E0     		b	.L156
 4119              	.L168:
 266:./inicio.h    ****                         }
 267:./inicio.h    ****                     break;
 268:./inicio.h    ****                     case ANGLE:{
 269:./inicio.h    ****                         if(mailbox0[4]<Mydir){
 4120              		.loc 5 269 0
ARM GAS  C:\Users\HENRYA~1\AppData\Local\Temp\cceIRlNf.s 			page 89


 4121 0124 3C4B     		ldr	r3, .L187
 4122 0126 1B79     		ldrb	r3, [r3, #4]
 4123 0128 9842     		cmp	r0, r3
 4124 012a 07D9     		bls	.L177
 270:./inicio.h    ****                             Teta_Can_r = mailbox0[6]<<8;    
 4125              		.loc 5 270 0
 4126 012c 3A4A     		ldr	r2, .L187
 4127 012e 9379     		ldrb	r3, [r2, #6]
 4128 0130 1B02     		lsls	r3, r3, #8
 271:./inicio.h    ****                             Teta_Can_r = Teta_Can_r+mailbox0[5]; 
 4129              		.loc 5 271 0
 4130 0132 5279     		ldrb	r2, [r2, #5]
 4131 0134 D318     		adds	r3, r2, r3
 4132 0136 3F4A     		ldr	r2, .L187+28
 4133 0138 1360     		str	r3, [r2]
 4134 013a 6BE0     		b	.L156
 4135              	.L177:
 272:./inicio.h    ****                         }
 273:./inicio.h    ****                         else{
 274:./inicio.h    ****                             Teta_Can_l = mailbox0[6]<<8;    
 4136              		.loc 5 274 0
 4137 013c 364A     		ldr	r2, .L187
 4138 013e 9379     		ldrb	r3, [r2, #6]
 4139 0140 1B02     		lsls	r3, r3, #8
 275:./inicio.h    ****                             Teta_Can_l = Teta_Can_l+mailbox0[5];                                   
 4140              		.loc 5 275 0
 4141 0142 5279     		ldrb	r2, [r2, #5]
 4142 0144 D318     		adds	r3, r2, r3
 4143 0146 3C4A     		ldr	r2, .L187+32
 4144 0148 1360     		str	r3, [r2]
 4145 014a 63E0     		b	.L156
 4146              	.L160:
 276:./inicio.h    ****                         }
 277:./inicio.h    ****                         }break;
 278:./inicio.h    ****                 }//////++++++++++++++++++++++++++++++++
 279:./inicio.h    ****                 }break;
 280:./inicio.h    ****             case OK:{sumadir=mailbox0[3]; }break;
 4147              		.loc 5 280 0
 4148 014c 324B     		ldr	r3, .L187
 4149 014e DA78     		ldrb	r2, [r3, #3]
 4150 0150 3A4B     		ldr	r3, .L187+36
 4151 0152 1A70     		strb	r2, [r3]
 4152 0154 5EE0     		b	.L156
 4153              	.L157:
 281:./inicio.h    ****             /////////////////////////////////////////////////////
 282:./inicio.h    ****             }
 283:./inicio.h    ****         //////
 284:./inicio.h    ****         }
 285:./inicio.h    ****     else{          
 286:./inicio.h    ****         if((mailbox0[0]==VER)&(mailbox0[1]==DIRM)){
 4154              		.loc 5 286 0
 4155 0156 0A00     		movs	r2, r1
 4156 0158 C83A     		subs	r2, r2, #200
 4157 015a 5542     		rsbs	r5, r2, #0
 4158 015c 6A41     		adcs	r2, r2, r5
 4159 015e 1A42     		tst	r2, r3
 4160 0160 0FD0     		beq	.L178
ARM GAS  C:\Users\HENRYA~1\AppData\Local\Temp\cceIRlNf.s 			page 90


 287:./inicio.h    ****             switch(mailbox0[2]){
 4161              		.loc 5 287 0
 4162 0162 2D4B     		ldr	r3, .L187
 4163 0164 9B78     		ldrb	r3, [r3, #2]
 4164 0166 022B     		cmp	r3, #2
 4165 0168 54D1     		bne	.L156
 288:./inicio.h    ****             ///////////////////////////////////////////////////////
 289:./inicio.h    ****             case ESCRITURA:{ 
 290:./inicio.h    ****                 switch(mailbox0[3]){//////////+6+++++++++++++
 4166              		.loc 5 290 0
 4167 016a 2B4B     		ldr	r3, .L187
 4168 016c DB78     		ldrb	r3, [r3, #3]
 4169 016e 2B2B     		cmp	r3, #43
 4170 0170 50D1     		bne	.L156
 291:./inicio.h    ****                     case CANTIDAD_MOD: 
 292:./inicio.h    ****                             cantidadM=mailbox0[4];
 4171              		.loc 5 292 0
 4172 0172 294B     		ldr	r3, .L187
 4173 0174 1A79     		ldrb	r2, [r3, #4]
 4174 0176 324B     		ldr	r3, .L187+40
 4175 0178 1A60     		str	r2, [r3]
 293:./inicio.h    ****                             Condicion_Start=1;
 4176              		.loc 5 293 0
 4177 017a 0122     		movs	r2, #1
 4178 017c 314B     		ldr	r3, .L187+44
 4179 017e 5A63     		str	r2, [r3, #52]
 294:./inicio.h    ****                     break;
 4180              		.loc 5 294 0
 4181 0180 48E0     		b	.L156
 4182              	.L178:
 295:./inicio.h    ****                     case START:
 296:./inicio.h    ****                         
 297:./inicio.h    ****                     break;
 298:./inicio.h    ****                 }
 299:./inicio.h    ****             }                                            
 300:./inicio.h    ****         }
 301:./inicio.h    ****     }
 302:./inicio.h    ****         else{
 303:./inicio.h    ****             if((mailbox0[0]==VER2)&&((mailbox0[1]==Mydir)||(mailbox0[2]==Mydir))){
 4183              		.loc 5 303 0
 4184 0182 802C     		cmp	r4, #128
 4185 0184 46D1     		bne	.L156
 4186              		.loc 5 303 0 is_stmt 0 discriminator 1
 4187 0186 8142     		cmp	r1, r0
 4188 0188 03D0     		beq	.L181
 4189              		.loc 5 303 0 discriminator 2
 4190 018a 234B     		ldr	r3, .L187
 4191 018c 9B78     		ldrb	r3, [r3, #2]
 4192 018e 9842     		cmp	r0, r3
 4193 0190 40D1     		bne	.L156
 4194              	.L181:
 304:./inicio.h    ****                 switch(mailbox0[3]){
 4195              		.loc 5 304 0 is_stmt 1
 4196 0192 214B     		ldr	r3, .L187
 4197 0194 DB78     		ldrb	r3, [r3, #3]
 4198 0196 1B2B     		cmp	r3, #27
 4199 0198 3CD1     		bne	.L156
ARM GAS  C:\Users\HENRYA~1\AppData\Local\Temp\cceIRlNf.s 			page 91


 305:./inicio.h    ****                 ///////////////////////////////////////////////////////
 306:./inicio.h    ****                 case ANGLE:{
 307:./inicio.h    ****                     if(S1==1){goto salto2;}
 4200              		.loc 5 307 0
 4201 019a 2A4B     		ldr	r3, .L187+44
 4202 019c 9B6B     		ldr	r3, [r3, #56]
 4203 019e 012B     		cmp	r3, #1
 4204 01a0 38D0     		beq	.L156
 308:./inicio.h    ****                     else{
 309:./inicio.h    ****                     CyDelay(100+Mydir);                       
 4205              		.loc 5 309 0
 4206 01a2 6430     		adds	r0, r0, #100
 4207 01a4 FFF7FEFF 		bl	CyDelay
 4208              	.LVL612:
 310:./inicio.h    ****                     Contador=mailbox0[7];
 4209              		.loc 5 310 0
 4210 01a8 1B4B     		ldr	r3, .L187
 4211 01aa D979     		ldrb	r1, [r3, #7]
 4212 01ac 264A     		ldr	r2, .L187+48
 4213 01ae 1160     		str	r1, [r2]
 311:./inicio.h    ****                         if(mailbox0[6]<Mydir){
 4214              		.loc 5 311 0
 4215 01b0 9A79     		ldrb	r2, [r3, #6]
 4216 01b2 1A4B     		ldr	r3, .L187+4
 4217 01b4 1B7C     		ldrb	r3, [r3, #16]
 4218 01b6 9A42     		cmp	r2, r3
 4219 01b8 07D2     		bcs	.L183
 312:./inicio.h    ****                             Teta_Can_r = mailbox0[5]<<8;    
 4220              		.loc 5 312 0
 4221 01ba 174A     		ldr	r2, .L187
 4222 01bc 5379     		ldrb	r3, [r2, #5]
 4223 01be 1B02     		lsls	r3, r3, #8
 313:./inicio.h    ****                             Teta_Can_r = Teta_Can_r+mailbox0[4]; 
 4224              		.loc 5 313 0
 4225 01c0 1279     		ldrb	r2, [r2, #4]
 4226 01c2 D318     		adds	r3, r2, r3
 4227 01c4 1B4A     		ldr	r2, .L187+28
 4228 01c6 1360     		str	r3, [r2]
 4229 01c8 06E0     		b	.L184
 4230              	.L183:
 314:./inicio.h    ****                         }
 315:./inicio.h    ****                         else{
 316:./inicio.h    ****                             Teta_Can_l = mailbox0[5]<<8;    
 4231              		.loc 5 316 0
 4232 01ca 134A     		ldr	r2, .L187
 4233 01cc 5379     		ldrb	r3, [r2, #5]
 4234 01ce 1B02     		lsls	r3, r3, #8
 317:./inicio.h    ****                             Teta_Can_l = Teta_Can_l+mailbox0[4];                                   
 4235              		.loc 5 317 0
 4236 01d0 1279     		ldrb	r2, [r2, #4]
 4237 01d2 D318     		adds	r3, r2, r3
 4238 01d4 184A     		ldr	r2, .L187+32
 4239 01d6 1360     		str	r3, [r2]
 4240              	.L184:
 318:./inicio.h    ****                         }      
 319:./inicio.h    ****                         if(Contador==Mydir){ 
 4241              		.loc 5 319 0
ARM GAS  C:\Users\HENRYA~1\AppData\Local\Temp\cceIRlNf.s 			page 92


 4242 01d8 104B     		ldr	r3, .L187+4
 4243 01da 1B7C     		ldrb	r3, [r3, #16]
 4244 01dc 1A4A     		ldr	r2, .L187+48
 4245 01de 1268     		ldr	r2, [r2]
 4246 01e0 9342     		cmp	r3, r2
 4247 01e2 17D1     		bne	.L156
 320:./inicio.h    ****                             if(Contador>=cantidadM){Contador=0;}
 4248              		.loc 5 320 0
 4249 01e4 1649     		ldr	r1, .L187+40
 4250 01e6 0968     		ldr	r1, [r1]
 4251 01e8 8A42     		cmp	r2, r1
 4252 01ea 03DB     		blt	.L185
 4253              		.loc 5 320 0 is_stmt 0 discriminator 1
 4254 01ec 0022     		movs	r2, #0
 4255 01ee 164B     		ldr	r3, .L187+48
 4256 01f0 1A60     		str	r2, [r3]
 4257 01f2 02E0     		b	.L186
 4258              	.L185:
 321:./inicio.h    ****                             else{Contador=Mydir+1;}
 4259              		.loc 5 321 0 is_stmt 1
 4260 01f4 0133     		adds	r3, r3, #1
 4261 01f6 144A     		ldr	r2, .L187+48
 4262 01f8 1360     		str	r3, [r2]
 4263              	.L186:
 322:./inicio.h    ****                             Send_Angle((int)sal*1000,Contador);
 4264              		.loc 5 322 0
 4265 01fa 124B     		ldr	r3, .L187+44
 4266 01fc 186B     		ldr	r0, [r3, #48]
 4267 01fe FFF7FEFF 		bl	__aeabi_f2iz
 4268              	.LVL613:
 4269 0202 114B     		ldr	r3, .L187+48
 4270 0204 1968     		ldr	r1, [r3]
 4271 0206 FA23     		movs	r3, #250
 4272 0208 9B00     		lsls	r3, r3, #2
 4273 020a 5843     		muls	r0, r3
 4274 020c FFF7FEFF 		bl	Send_Angle
 4275              	.LVL614:
 323:./inicio.h    ****                             CPG();
 4276              		.loc 5 323 0
 4277 0210 FFF7FEFF 		bl	CPG
 4278              	.LVL615:
 4279              	.L158:
 4280              	.L156:
 324:./inicio.h    ****                         }}
 325:./inicio.h    ****                 }salto2:
 326:./inicio.h    ****                 break;
 327:./inicio.h    ****                 
 328:./inicio.h    ****             }            
 329:./inicio.h    ****         } 
 330:./inicio.h    ****         }
 331:./inicio.h    ****     }
 332:./inicio.h    **** }
 4281              		.loc 5 332 0
 4282              		@ sp needed
 4283 0214 70BD     		pop	{r4, r5, r6, pc}
 4284              	.L188:
 4285 0216 C046     		.align	2
ARM GAS  C:\Users\HENRYA~1\AppData\Local\Temp\cceIRlNf.s 			page 93


 4286              	.L187:
 4287 0218 00000000 		.word	mailbox0
 4288 021c 00000000 		.word	.LANCHOR1
 4289 0220 00000000 		.word	.L162
 4290 0224 00000000 		.word	Pda
 4291 0228 A3060000 		.word	1699
 4292 022c 00000000 		.word	dato_enviado
 4293 0230 00000000 		.word	PositionM
 4294 0234 00000000 		.word	Teta_Can_r
 4295 0238 00000000 		.word	Teta_Can_l
 4296 023c 00000000 		.word	sumadir
 4297 0240 00000000 		.word	cantidadM
 4298 0244 00000000 		.word	.LANCHOR0
 4299 0248 00000000 		.word	Contador
 4300              		.cfi_endproc
 4301              	.LFE76:
 4302              		.size	recibmail, .-recibmail
 4303              		.section	.text.Condicion,"ax",%progbits
 4304              		.align	2
 4305              		.global	Condicion
 4306              		.code	16
 4307              		.thumb_func
 4308              		.type	Condicion, %function
 4309              	Condicion:
 4310              	.LFB77:
 333:./inicio.h    **** 
 334:./inicio.h    **** void Condicion (){
 4311              		.loc 5 334 0
 4312              		.cfi_startproc
 4313              		@ args = 0, pretend = 0, frame = 0
 4314              		@ frame_needed = 0, uses_anonymous_args = 0
 4315 0000 10B5     		push	{r4, lr}
 4316              		.cfi_def_cfa_offset 8
 4317              		.cfi_offset 4, -8
 4318              		.cfi_offset 14, -4
 335:./inicio.h    ****     while(Condicion_Start==0){
 4319              		.loc 5 335 0
 4320 0002 0BE0     		b	.L190
 4321              	.L191:
 336:./inicio.h    ****         LED_1_Write(0);
 4322              		.loc 5 336 0
 4323 0004 0020     		movs	r0, #0
 4324 0006 FFF7FEFF 		bl	LED_1_Write
 4325              	.LVL616:
 337:./inicio.h    ****         CyDelay(50);
 4326              		.loc 5 337 0
 4327 000a 3220     		movs	r0, #50
 4328 000c FFF7FEFF 		bl	CyDelay
 4329              	.LVL617:
 338:./inicio.h    ****         LED_1_Write(1);
 4330              		.loc 5 338 0
 4331 0010 0120     		movs	r0, #1
 4332 0012 FFF7FEFF 		bl	LED_1_Write
 4333              	.LVL618:
 339:./inicio.h    ****         CyDelay(50);}
 4334              		.loc 5 339 0
 4335 0016 3220     		movs	r0, #50
ARM GAS  C:\Users\HENRYA~1\AppData\Local\Temp\cceIRlNf.s 			page 94


 4336 0018 FFF7FEFF 		bl	CyDelay
 4337              	.LVL619:
 4338              	.L190:
 335:./inicio.h    ****         LED_1_Write(0);
 4339              		.loc 5 335 0
 4340 001c 144B     		ldr	r3, .L196
 4341 001e 5B6B     		ldr	r3, [r3, #52]
 4342 0020 002B     		cmp	r3, #0
 4343 0022 EFD0     		beq	.L191
 340:./inicio.h    ****     LED_1_Write(0);
 4344              		.loc 5 340 0
 4345 0024 0020     		movs	r0, #0
 4346 0026 FFF7FEFF 		bl	LED_1_Write
 4347              	.LVL620:
 341:./inicio.h    ****     if(Mydir==0&&cantidadM!=0){Seleccion=1;}
 4348              		.loc 5 341 0
 4349 002a 124B     		ldr	r3, .L196+4
 4350 002c 1B7C     		ldrb	r3, [r3, #16]
 4351 002e 002B     		cmp	r3, #0
 4352 0030 07D1     		bne	.L192
 4353              		.loc 5 341 0 is_stmt 0 discriminator 1
 4354 0032 114A     		ldr	r2, .L196+8
 4355 0034 1268     		ldr	r2, [r2]
 4356 0036 002A     		cmp	r2, #0
 4357 0038 03D0     		beq	.L192
 4358              		.loc 5 341 0 discriminator 2
 4359 003a 0122     		movs	r2, #1
 4360 003c 0C4B     		ldr	r3, .L196
 4361 003e DA60     		str	r2, [r3, #12]
 4362 0040 14E0     		b	.L189
 4363              	.L192:
 342:./inicio.h    ****     else if(Mydir==cantidadM&&cantidadM!=0){Seleccion=2;}
 4364              		.loc 5 342 0 is_stmt 1
 4365 0042 0D4A     		ldr	r2, .L196+8
 4366 0044 1268     		ldr	r2, [r2]
 4367 0046 9342     		cmp	r3, r2
 4368 0048 05D1     		bne	.L194
 4369              		.loc 5 342 0 is_stmt 0 discriminator 1
 4370 004a 002A     		cmp	r2, #0
 4371 004c 03D0     		beq	.L194
 4372              		.loc 5 342 0 discriminator 2
 4373 004e 0222     		movs	r2, #2
 4374 0050 074B     		ldr	r3, .L196
 4375 0052 DA60     		str	r2, [r3, #12]
 4376 0054 0AE0     		b	.L189
 4377              	.L194:
 343:./inicio.h    ****     else if(Mydir==0&&cantidadM==0){Seleccion=4;}
 4378              		.loc 5 343 0 is_stmt 1
 4379 0056 002B     		cmp	r3, #0
 4380 0058 05D1     		bne	.L195
 4381              		.loc 5 343 0 is_stmt 0 discriminator 1
 4382 005a 002A     		cmp	r2, #0
 4383 005c 03D1     		bne	.L195
 4384              		.loc 5 343 0 discriminator 2
 4385 005e 0432     		adds	r2, r2, #4
 4386 0060 034B     		ldr	r3, .L196
 4387 0062 DA60     		str	r2, [r3, #12]
ARM GAS  C:\Users\HENRYA~1\AppData\Local\Temp\cceIRlNf.s 			page 95


 4388 0064 02E0     		b	.L189
 4389              	.L195:
 344:./inicio.h    ****     else{Seleccion=3;}
 4390              		.loc 5 344 0 is_stmt 1
 4391 0066 0322     		movs	r2, #3
 4392 0068 014B     		ldr	r3, .L196
 4393 006a DA60     		str	r2, [r3, #12]
 4394              	.L189:
 345:./inicio.h    **** }
 4395              		.loc 5 345 0
 4396              		@ sp needed
 4397 006c 10BD     		pop	{r4, pc}
 4398              	.L197:
 4399 006e C046     		.align	2
 4400              	.L196:
 4401 0070 00000000 		.word	.LANCHOR0
 4402 0074 00000000 		.word	.LANCHOR1
 4403 0078 00000000 		.word	cantidadM
 4404              		.cfi_endproc
 4405              	.LFE77:
 4406              		.size	Condicion, .-Condicion
 4407              		.section	.text.Orientacion_Modulo,"ax",%progbits
 4408              		.align	2
 4409              		.global	Orientacion_Modulo
 4410              		.code	16
 4411              		.thumb_func
 4412              		.type	Orientacion_Modulo, %function
 4413              	Orientacion_Modulo:
 4414              	.LFB78:
 346:./inicio.h    **** 
 347:./inicio.h    **** void Orientacion_Modulo(){
 4415              		.loc 5 347 0
 4416              		.cfi_startproc
 4417              		@ args = 0, pretend = 0, frame = 0
 4418              		@ frame_needed = 0, uses_anonymous_args = 0
 4419 0000 10B5     		push	{r4, lr}
 4420              		.cfi_def_cfa_offset 8
 4421              		.cfi_offset 4, -8
 4422              		.cfi_offset 14, -4
 348:./inicio.h    ****     int pos=readProximity_3();
 4423              		.loc 5 348 0
 4424 0002 FFF7FEFF 		bl	readProximity_3
 4425              	.LVL621:
 349:./inicio.h    ****     if(pos<10000){
 4426              		.loc 5 349 0
 4427 0006 054B     		ldr	r3, .L201
 4428 0008 9842     		cmp	r0, r3
 4429 000a 03DC     		bgt	.L199
 350:./inicio.h    ****         Orientacion_H=0;
 4430              		.loc 5 350 0
 4431 000c 0022     		movs	r2, #0
 4432 000e 044B     		ldr	r3, .L201+4
 4433 0010 1A60     		str	r2, [r3]
 4434 0012 02E0     		b	.L198
 4435              	.L199:
 351:./inicio.h    ****     }
 352:./inicio.h    ****     else{
ARM GAS  C:\Users\HENRYA~1\AppData\Local\Temp\cceIRlNf.s 			page 96


 353:./inicio.h    ****         Orientacion_H=1;   
 4436              		.loc 5 353 0
 4437 0014 0122     		movs	r2, #1
 4438 0016 024B     		ldr	r3, .L201+4
 4439 0018 1A60     		str	r2, [r3]
 4440              	.L198:
 354:./inicio.h    ****     }
 355:./inicio.h    **** }
 4441              		.loc 5 355 0
 4442              		@ sp needed
 4443 001a 10BD     		pop	{r4, pc}
 4444              	.L202:
 4445              		.align	2
 4446              	.L201:
 4447 001c 0F270000 		.word	9999
 4448 0020 00000000 		.word	Orientacion_H
 4449              		.cfi_endproc
 4450              	.LFE78:
 4451              		.size	Orientacion_Modulo, .-Orientacion_Modulo
 4452              		.section	.text.Adquirir_Parametros,"ax",%progbits
 4453              		.align	2
 4454              		.global	Adquirir_Parametros
 4455              		.code	16
 4456              		.thumb_func
 4457              		.type	Adquirir_Parametros, %function
 4458              	Adquirir_Parametros:
 4459              	.LFB79:
 356:./inicio.h    **** 
 357:./inicio.h    **** void Adquirir_Parametros(){
 4460              		.loc 5 357 0
 4461              		.cfi_startproc
 4462              		@ args = 0, pretend = 0, frame = 0
 4463              		@ frame_needed = 0, uses_anonymous_args = 0
 4464 0000 10B5     		push	{r4, lr}
 4465              		.cfi_def_cfa_offset 8
 4466              		.cfi_offset 4, -8
 4467              		.cfi_offset 14, -4
 358:./inicio.h    ****                         int dato_L = mailbox1[2];
 4468              		.loc 5 358 0
 4469 0002 2C4A     		ldr	r2, .L210
 4470 0004 9078     		ldrb	r0, [r2, #2]
 4471              	.LVL622:
 359:./inicio.h    ****                         int dato_H = mailbox1[3];
 4472              		.loc 5 359 0
 4473 0006 D378     		ldrb	r3, [r2, #3]
 4474              	.LVL623:
 360:./inicio.h    ****                         int signo_can=0;
 361:./inicio.h    ****                         signo_can=dato_H>>7;
 4475              		.loc 5 361 0
 4476 0008 DA11     		asrs	r2, r3, #7
 4477              	.LVL624:
 362:./inicio.h    ****                         if(signo_can==1){
 4478              		.loc 5 362 0
 4479 000a 012A     		cmp	r2, #1
 4480 000c 04D1     		bne	.L204
 363:./inicio.h    ****                             dato_H=dato_H-128;
 4481              		.loc 5 363 0
ARM GAS  C:\Users\HENRYA~1\AppData\Local\Temp\cceIRlNf.s 			page 97


 4482 000e 803B     		subs	r3, r3, #128
 4483              	.LVL625:
 364:./inicio.h    ****                             dato_H=dato_H<<8;
 4484              		.loc 5 364 0
 4485 0010 1A02     		lsls	r2, r3, #8
 4486              	.LVL626:
 365:./inicio.h    ****                             dato_H=dato_H+dato_L;
 4487              		.loc 5 365 0
 4488 0012 8018     		adds	r0, r0, r2
 4489              	.LVL627:
 366:./inicio.h    ****                             dato_H=dato_H*-1;
 4490              		.loc 5 366 0
 4491 0014 4042     		rsbs	r0, r0, #0
 4492              	.LVL628:
 4493 0016 01E0     		b	.L205
 4494              	.LVL629:
 4495              	.L204:
 367:./inicio.h    ****                         }
 368:./inicio.h    ****                         else{
 369:./inicio.h    ****                             dato_H=dato_H<<8;
 4496              		.loc 5 369 0
 4497 0018 1B02     		lsls	r3, r3, #8
 4498              	.LVL630:
 370:./inicio.h    ****                             dato_H=dato_H+dato_L;                       
 4499              		.loc 5 370 0
 4500 001a C018     		adds	r0, r0, r3
 4501              	.LVL631:
 4502              	.L205:
 371:./inicio.h    ****                         }
 372:./inicio.h    ****                         ampli=(float)((dato_H)*0.0001);
 4503              		.loc 5 372 0
 4504 001c FFF7FEFF 		bl	__aeabi_i2d
 4505              	.LVL632:
 4506 0020 254A     		ldr	r2, .L210+4
 4507 0022 264B     		ldr	r3, .L210+8
 4508 0024 FFF7FEFF 		bl	__aeabi_dmul
 4509              	.LVL633:
 4510 0028 FFF7FEFF 		bl	__aeabi_d2f
 4511              	.LVL634:
 4512 002c 244B     		ldr	r3, .L210+12
 4513 002e 5862     		str	r0, [r3, #36]
 373:./inicio.h    ****                         amp2=ampli;
 4514              		.loc 5 373 0
 4515 0030 9862     		str	r0, [r3, #40]
 374:./inicio.h    ****                         dato_L = mailbox1[4];
 4516              		.loc 5 374 0
 4517 0032 204A     		ldr	r2, .L210
 4518 0034 1079     		ldrb	r0, [r2, #4]
 4519              	.LVL635:
 375:./inicio.h    ****                         dato_H = mailbox1[5];
 4520              		.loc 5 375 0
 4521 0036 5379     		ldrb	r3, [r2, #5]
 4522              	.LVL636:
 376:./inicio.h    ****                         signo_can=0;
 377:./inicio.h    ****                         signo_can=dato_H>>7;
 4523              		.loc 5 377 0
 4524 0038 DA11     		asrs	r2, r3, #7
ARM GAS  C:\Users\HENRYA~1\AppData\Local\Temp\cceIRlNf.s 			page 98


 4525              	.LVL637:
 378:./inicio.h    ****                         if(signo_can==1){
 4526              		.loc 5 378 0
 4527 003a 012A     		cmp	r2, #1
 4528 003c 04D1     		bne	.L206
 379:./inicio.h    ****                             dato_H=dato_H-128;
 4529              		.loc 5 379 0
 4530 003e 803B     		subs	r3, r3, #128
 4531              	.LVL638:
 380:./inicio.h    ****                             dato_H=dato_H<<8;
 4532              		.loc 5 380 0
 4533 0040 1A02     		lsls	r2, r3, #8
 4534              	.LVL639:
 381:./inicio.h    ****                             dato_H=dato_H+dato_L;
 4535              		.loc 5 381 0
 4536 0042 8018     		adds	r0, r0, r2
 4537              	.LVL640:
 382:./inicio.h    ****                             dato_H=dato_H*-1;
 4538              		.loc 5 382 0
 4539 0044 4042     		rsbs	r0, r0, #0
 4540              	.LVL641:
 4541 0046 01E0     		b	.L207
 4542              	.LVL642:
 4543              	.L206:
 383:./inicio.h    ****                         }
 384:./inicio.h    ****                         else{
 385:./inicio.h    ****                             dato_H=dato_H<<8;
 4544              		.loc 5 385 0
 4545 0048 1B02     		lsls	r3, r3, #8
 4546              	.LVL643:
 386:./inicio.h    ****                             dato_H=dato_H+dato_L;                       
 4547              		.loc 5 386 0
 4548 004a C018     		adds	r0, r0, r3
 4549              	.LVL644:
 4550              	.L207:
 387:./inicio.h    ****                         }
 388:./inicio.h    ****                         phase=(float)((dato_H)*0.0001); 
 4551              		.loc 5 388 0
 4552 004c FFF7FEFF 		bl	__aeabi_i2d
 4553              	.LVL645:
 4554 0050 194A     		ldr	r2, .L210+4
 4555 0052 1A4B     		ldr	r3, .L210+8
 4556 0054 FFF7FEFF 		bl	__aeabi_dmul
 4557              	.LVL646:
 4558 0058 FFF7FEFF 		bl	__aeabi_d2f
 4559              	.LVL647:
 389:./inicio.h    ****                         phase=phase*M_PI;
 4560              		.loc 5 389 0
 4561 005c FFF7FEFF 		bl	__aeabi_f2d
 4562              	.LVL648:
 4563 0060 184A     		ldr	r2, .L210+16
 4564 0062 194B     		ldr	r3, .L210+20
 4565 0064 FFF7FEFF 		bl	__aeabi_dmul
 4566              	.LVL649:
 4567 0068 FFF7FEFF 		bl	__aeabi_d2f
 4568              	.LVL650:
 4569 006c 144B     		ldr	r3, .L210+12
ARM GAS  C:\Users\HENRYA~1\AppData\Local\Temp\cceIRlNf.s 			page 99


 4570 006e D861     		str	r0, [r3, #28]
 390:./inicio.h    ****                         dato_L = mailbox1[6];
 4571              		.loc 5 390 0
 4572 0070 104A     		ldr	r2, .L210
 4573 0072 9079     		ldrb	r0, [r2, #6]
 4574              	.LVL651:
 391:./inicio.h    ****                         dato_H = mailbox1[7];
 4575              		.loc 5 391 0
 4576 0074 D379     		ldrb	r3, [r2, #7]
 4577              	.LVL652:
 392:./inicio.h    ****                         signo_can=0;
 393:./inicio.h    ****                         signo_can=dato_H>>7;
 4578              		.loc 5 393 0
 4579 0076 DA11     		asrs	r2, r3, #7
 4580              	.LVL653:
 394:./inicio.h    ****                         if(signo_can==1){
 4581              		.loc 5 394 0
 4582 0078 012A     		cmp	r2, #1
 4583 007a 04D1     		bne	.L208
 395:./inicio.h    ****                             dato_H=dato_H-128;
 4584              		.loc 5 395 0
 4585 007c 803B     		subs	r3, r3, #128
 4586              	.LVL654:
 396:./inicio.h    ****                             dato_H=dato_H<<8;
 4587              		.loc 5 396 0
 4588 007e 1A02     		lsls	r2, r3, #8
 4589              	.LVL655:
 397:./inicio.h    ****                             dato_H=dato_H+dato_L;
 4590              		.loc 5 397 0
 4591 0080 8018     		adds	r0, r0, r2
 4592              	.LVL656:
 398:./inicio.h    ****                             dato_H=dato_H*-1;
 4593              		.loc 5 398 0
 4594 0082 4042     		rsbs	r0, r0, #0
 4595              	.LVL657:
 4596 0084 01E0     		b	.L209
 4597              	.LVL658:
 4598              	.L208:
 399:./inicio.h    ****                         }
 400:./inicio.h    ****                         else{
 401:./inicio.h    ****                             dato_H=dato_H<<8;
 4599              		.loc 5 401 0
 4600 0086 1B02     		lsls	r3, r3, #8
 4601              	.LVL659:
 402:./inicio.h    ****                             dato_H=dato_H+dato_L;                       
 4602              		.loc 5 402 0
 4603 0088 C018     		adds	r0, r0, r3
 4604              	.LVL660:
 4605              	.L209:
 403:./inicio.h    ****                         }
 404:./inicio.h    ****                         offset=(float)((dato_H)*0.0001);
 4606              		.loc 5 404 0
 4607 008a FFF7FEFF 		bl	__aeabi_i2d
 4608              	.LVL661:
 4609 008e 0A4A     		ldr	r2, .L210+4
 4610 0090 0A4B     		ldr	r3, .L210+8
 4611 0092 FFF7FEFF 		bl	__aeabi_dmul
ARM GAS  C:\Users\HENRYA~1\AppData\Local\Temp\cceIRlNf.s 			page 100


 4612              	.LVL662:
 4613 0096 FFF7FEFF 		bl	__aeabi_d2f
 4614              	.LVL663:
 4615 009a 0C4C     		ldr	r4, .L210+24
 405:./inicio.h    ****                         offset=M_PI*offset;
 4616              		.loc 5 405 0
 4617 009c FFF7FEFF 		bl	__aeabi_f2d
 4618              	.LVL664:
 4619 00a0 084A     		ldr	r2, .L210+16
 4620 00a2 094B     		ldr	r3, .L210+20
 4621 00a4 FFF7FEFF 		bl	__aeabi_dmul
 4622              	.LVL665:
 4623 00a8 FFF7FEFF 		bl	__aeabi_d2f
 4624              	.LVL666:
 4625 00ac A060     		str	r0, [r4, #8]
 406:./inicio.h    ****                         of2=offset;
 4626              		.loc 5 406 0
 4627 00ae E060     		str	r0, [r4, #12]
 407:./inicio.h    **** }
 4628              		.loc 5 407 0
 4629              		@ sp needed
 4630 00b0 10BD     		pop	{r4, pc}
 4631              	.L211:
 4632 00b2 C046     		.align	2
 4633              	.L210:
 4634 00b4 00000000 		.word	mailbox1
 4635 00b8 2D431CEB 		.word	-350469331
 4636 00bc E2361A3F 		.word	1058682594
 4637 00c0 00000000 		.word	.LANCHOR0
 4638 00c4 182D4454 		.word	1413754136
 4639 00c8 FB210940 		.word	1074340347
 4640 00cc 00000000 		.word	.LANCHOR1
 4641              		.cfi_endproc
 4642              	.LFE79:
 4643              		.size	Adquirir_Parametros, .-Adquirir_Parametros
 4644              		.section	.text.recibmail_1,"ax",%progbits
 4645              		.align	2
 4646              		.global	recibmail_1
 4647              		.code	16
 4648              		.thumb_func
 4649              		.type	recibmail_1, %function
 4650              	recibmail_1:
 4651              	.LFB80:
 408:./inicio.h    **** 
 409:./inicio.h    **** void recibmail_1(){
 4652              		.loc 5 409 0
 4653              		.cfi_startproc
 4654              		@ args = 0, pretend = 0, frame = 0
 4655              		@ frame_needed = 0, uses_anonymous_args = 0
 4656 0000 10B5     		push	{r4, lr}
 4657              		.cfi_def_cfa_offset 8
 4658              		.cfi_offset 4, -8
 4659              		.cfi_offset 14, -4
 410:./inicio.h    ****     if(mailbox1[0]==VER_M1){
 4660              		.loc 5 410 0
 4661 0002 0E4B     		ldr	r3, .L217
 4662 0004 1B78     		ldrb	r3, [r3]
ARM GAS  C:\Users\HENRYA~1\AppData\Local\Temp\cceIRlNf.s 			page 101


 4663 0006 812B     		cmp	r3, #129
 4664 0008 16D1     		bne	.L212
 411:./inicio.h    ****         switch(mailbox1[1]){
 4665              		.loc 5 411 0
 4666 000a 0C4B     		ldr	r3, .L217
 4667 000c 5B78     		ldrb	r3, [r3, #1]
 4668 000e 202B     		cmp	r3, #32
 4669 0010 02D0     		beq	.L215
 4670 0012 212B     		cmp	r3, #33
 4671 0014 07D0     		beq	.L216
 4672 0016 0CE0     		b	.L214
 4673              	.L215:
 412:./inicio.h    ****             case H:{
 413:./inicio.h    ****                 if(Orientacion_H==1){
 4674              		.loc 5 413 0
 4675 0018 094B     		ldr	r3, .L217+4
 4676 001a 1B68     		ldr	r3, [r3]
 4677 001c 012B     		cmp	r3, #1
 4678 001e 08D1     		bne	.L214
 414:./inicio.h    ****                     Adquirir_Parametros();
 4679              		.loc 5 414 0
 4680 0020 FFF7FEFF 		bl	Adquirir_Parametros
 4681              	.LVL667:
 4682 0024 05E0     		b	.L214
 4683              	.L216:
 415:./inicio.h    ****                 }
 416:./inicio.h    ****             }break;        
 417:./inicio.h    ****             case V:{
 418:./inicio.h    ****                 if(Orientacion_H==0){
 4684              		.loc 5 418 0
 4685 0026 064B     		ldr	r3, .L217+4
 4686 0028 1B68     		ldr	r3, [r3]
 4687 002a 002B     		cmp	r3, #0
 4688 002c 01D1     		bne	.L214
 419:./inicio.h    ****                     Adquirir_Parametros();
 4689              		.loc 5 419 0
 4690 002e FFF7FEFF 		bl	Adquirir_Parametros
 4691              	.LVL668:
 4692              	.L214:
 420:./inicio.h    ****                 }
 421:./inicio.h    ****             }break;
 422:./inicio.h    ****             }
 423:./inicio.h    ****         mailbox1[0]=0;
 4693              		.loc 5 423 0
 4694 0032 0022     		movs	r2, #0
 4695 0034 014B     		ldr	r3, .L217
 4696 0036 1A70     		strb	r2, [r3]
 4697              	.L212:
 424:./inicio.h    ****     }    
 425:./inicio.h    **** }
 4698              		.loc 5 425 0
 4699              		@ sp needed
 4700 0038 10BD     		pop	{r4, pc}
 4701              	.L218:
 4702 003a C046     		.align	2
 4703              	.L217:
 4704 003c 00000000 		.word	mailbox1
ARM GAS  C:\Users\HENRYA~1\AppData\Local\Temp\cceIRlNf.s 			page 102


 4705 0040 00000000 		.word	Orientacion_H
 4706              		.cfi_endproc
 4707              	.LFE80:
 4708              		.size	recibmail_1, .-recibmail_1
 4709              		.section	.text.interrutcan,"ax",%progbits
 4710              		.align	2
 4711              		.global	interrutcan
 4712              		.code	16
 4713              		.thumb_func
 4714              		.type	interrutcan, %function
 4715              	interrutcan:
 4716              	.LFB82:
 4717              		.file 6 "main.c"
   1:main.c        **** #include <project.h>
   2:main.c        **** #include <inicio.h>
   3:main.c        **** int conta=0;
   4:main.c        **** 
   5:main.c        **** CY_ISR(interrutcan){
 4718              		.loc 6 5 0
 4719              		.cfi_startproc
 4720              		@ args = 0, pretend = 0, frame = 0
 4721              		@ frame_needed = 0, uses_anonymous_args = 0
 4722 0000 10B5     		push	{r4, lr}
 4723              		.cfi_def_cfa_offset 8
 4724              		.cfi_offset 4, -8
 4725              		.cfi_offset 14, -4
   6:main.c        ****     LED_3_Write(1);
 4726              		.loc 6 6 0
 4727 0002 0120     		movs	r0, #1
 4728 0004 FFF7FEFF 		bl	LED_3_Write
 4729              	.LVL669:
   7:main.c        ****     CAN_MsgRXIsr();///para marcar la interrucion como leida y resive msm
 4730              		.loc 6 7 0
 4731 0008 FFF7FEFF 		bl	CAN_MsgRXIsr
 4732              	.LVL670:
   8:main.c        ****     recibmail();
 4733              		.loc 6 8 0
 4734 000c FFF7FEFF 		bl	recibmail
 4735              	.LVL671:
   9:main.c        ****     recibmail_1();
 4736              		.loc 6 9 0
 4737 0010 FFF7FEFF 		bl	recibmail_1
 4738              	.LVL672:
  10:main.c        ****     LED_3_Write(0);
 4739              		.loc 6 10 0
 4740 0014 0020     		movs	r0, #0
 4741 0016 FFF7FEFF 		bl	LED_3_Write
 4742              	.LVL673:
  11:main.c        **** }
 4743              		.loc 6 11 0
 4744              		@ sp needed
 4745 001a 10BD     		pop	{r4, pc}
 4746              		.cfi_endproc
 4747              	.LFE82:
 4748              		.size	interrutcan, .-interrutcan
 4749              		.section	.text.movimiento,"ax",%progbits
 4750              		.align	2
ARM GAS  C:\Users\HENRYA~1\AppData\Local\Temp\cceIRlNf.s 			page 103


 4751              		.global	movimiento
 4752              		.code	16
 4753              		.thumb_func
 4754              		.type	movimiento, %function
 4755              	movimiento:
 4756              	.LFB81:
 426:./inicio.h    **** 
 427:./inicio.h    **** void movimiento(unsigned int dirr,int mov){
 4757              		.loc 5 427 0
 4758              		.cfi_startproc
 4759              		@ args = 0, pretend = 0, frame = 0
 4760              		@ frame_needed = 0, uses_anonymous_args = 0
 4761              	.LVL674:
 4762 0000 10B5     		push	{r4, lr}
 4763              		.cfi_def_cfa_offset 8
 4764              		.cfi_offset 4, -8
 4765              		.cfi_offset 14, -4
 428:./inicio.h    ****     char byteh,bytel;
 429:./inicio.h    ****     byteh= mov >> 8;
 4766              		.loc 5 429 0
 4767 0002 0B12     		asrs	r3, r1, #8
 4768 0004 DAB2     		uxtb	r2, r3
 4769              	.LVL675:
 430:./inicio.h    ****     bytel=mov; 
 4770              		.loc 5 430 0
 4771 0006 CCB2     		uxtb	r4, r1
 4772              	.LVL676:
 431:./inicio.h    ****     if(dirr==0){
 4773              		.loc 5 431 0
 4774 0008 0028     		cmp	r0, #0
 4775 000a 04D1     		bne	.L221
 432:./inicio.h    ****         MoveSpeed(1,mov,100);
 4776              		.loc 5 432 0
 4777 000c 6422     		movs	r2, #100
 4778              	.LVL677:
 4779 000e 0130     		adds	r0, r0, #1
 4780              	.LVL678:
 4781 0010 FFF7FEFF 		bl	MoveSpeed
 4782              	.LVL679:
 4783 0014 0EE0     		b	.L220
 4784              	.LVL680:
 4785              	.L221:
 433:./inicio.h    ****     }else{   
 434:./inicio.h    ****         dato_enviado[0]=VER ;       //verificacion
 4786              		.loc 5 434 0
 4787 0016 084B     		ldr	r3, .L223
 4788 0018 7F21     		movs	r1, #127
 4789              	.LVL681:
 4790 001a 1970     		strb	r1, [r3]
 435:./inicio.h    ****         dato_enviado[1]=dirr ;      //dir
 4791              		.loc 5 435 0
 4792 001c 5870     		strb	r0, [r3, #1]
 436:./inicio.h    ****         dato_enviado[2]=ESCRITURA ; //operacion
 4793              		.loc 5 436 0
 4794 001e 7D39     		subs	r1, r1, #125
 4795 0020 9970     		strb	r1, [r3, #2]
 437:./inicio.h    ****         dato_enviado[3]=MOTOR;      //lugar
ARM GAS  C:\Users\HENRYA~1\AppData\Local\Temp\cceIRlNf.s 			page 104


 4796              		.loc 5 437 0
 4797 0022 0131     		adds	r1, r1, #1
 4798 0024 D970     		strb	r1, [r3, #3]
 438:./inicio.h    ****         dato_enviado[4]= byteh ;    //dato
 4799              		.loc 5 438 0
 4800 0026 1A71     		strb	r2, [r3, #4]
 439:./inicio.h    ****         dato_enviado[5]= bytel ;    //dato
 4801              		.loc 5 439 0
 4802 0028 5C71     		strb	r4, [r3, #5]
 440:./inicio.h    ****         CAN_SendMsg0(); 
 4803              		.loc 5 440 0
 4804 002a FFF7FEFF 		bl	CAN_SendMsg0
 4805              	.LVL682:
 441:./inicio.h    ****         CyDelay(25);
 4806              		.loc 5 441 0
 4807 002e 1920     		movs	r0, #25
 4808 0030 FFF7FEFF 		bl	CyDelay
 4809              	.LVL683:
 4810              	.L220:
 442:./inicio.h    ****         }
 443:./inicio.h    **** }...
 4811              		.loc 5 443 0
 4812              		@ sp needed
 4813              	.LVL684:
 4814 0034 10BD     		pop	{r4, pc}
 4815              	.L224:
 4816 0036 C046     		.align	2
 4817              	.L223:
 4818 0038 00000000 		.word	dato_enviado
 4819              		.cfi_endproc
 4820              	.LFE81:
 4821              		.size	movimiento, .-movimiento
 4822              		.section	.text.Estado_COM,"ax",%progbits
 4823              		.align	2
 4824              		.global	Estado_COM
 4825              		.code	16
 4826              		.thumb_func
 4827              		.type	Estado_COM, %function
 4828              	Estado_COM:
 4829              	.LFB83:
  12:main.c        **** 
  13:main.c        **** int Estado_COM(int a,int b, int c){
 4830              		.loc 6 13 0
 4831              		.cfi_startproc
 4832              		@ args = 0, pretend = 0, frame = 0
 4833              		@ frame_needed = 0, uses_anonymous_args = 0
 4834              	.LVL685:
 4835 0000 10B5     		push	{r4, lr}
 4836              		.cfi_def_cfa_offset 8
 4837              		.cfi_offset 4, -8
 4838              		.cfi_offset 14, -4
 4839 0002 0300     		movs	r3, r0
  14:main.c        ****         if(a==0&&b==0&&c==0)      {return 0;}   //Normal
 4840              		.loc 6 14 0
 4841 0004 0400     		movs	r4, r0
 4842 0006 0C43     		orrs	r4, r1
 4843 0008 2000     		movs	r0, r4
ARM GAS  C:\Users\HENRYA~1\AppData\Local\Temp\cceIRlNf.s 			page 105


 4844              	.LVL686:
 4845 000a 1043     		orrs	r0, r2
 4846 000c 2FD0     		beq	.L226
  15:main.c        ****         else if(a==0&&b==0&&c==1) {return 0;}   //Izquierda
 4847              		.loc 6 15 0
 4848 000e 002C     		cmp	r4, #0
 4849 0010 01D1     		bne	.L227
 4850              		.loc 6 15 0 is_stmt 0 discriminator 1
 4851 0012 012A     		cmp	r2, #1
 4852 0014 1ED0     		beq	.L232
 4853              	.L227:
  16:main.c        ****         else if(a==0&&b==1&&c==0) {return 0;}   //Frontal
 4854              		.loc 6 16 0 is_stmt 1
 4855 0016 002B     		cmp	r3, #0
 4856 0018 03D1     		bne	.L228
 4857              		.loc 6 16 0 is_stmt 0 discriminator 1
 4858 001a 0129     		cmp	r1, #1
 4859 001c 01D1     		bne	.L228
 4860              		.loc 6 16 0 discriminator 2
 4861 001e 002A     		cmp	r2, #0
 4862 0020 1AD0     		beq	.L233
 4863              	.L228:
  17:main.c        ****         else if(a==0&&b==1&&c==1) {return 1;}   //Frontal e Izquierda
 4864              		.loc 6 17 0 is_stmt 1
 4865 0022 002B     		cmp	r3, #0
 4866 0024 03D1     		bne	.L229
 4867              		.loc 6 17 0 is_stmt 0 discriminator 1
 4868 0026 0129     		cmp	r1, #1
 4869 0028 01D1     		bne	.L229
 4870              		.loc 6 17 0 discriminator 2
 4871 002a 012A     		cmp	r2, #1
 4872 002c 16D0     		beq	.L234
 4873              	.L229:
  18:main.c        ****         else if(a==1&&b==0&&c==0) {return 0;}   //Derecha
 4874              		.loc 6 18 0 is_stmt 1
 4875 002e 012B     		cmp	r3, #1
 4876 0030 02D1     		bne	.L230
 4877              		.loc 6 18 0 is_stmt 0 discriminator 1
 4878 0032 0800     		movs	r0, r1
 4879 0034 1043     		orrs	r0, r2
 4880 0036 1AD0     		beq	.L226
 4881              	.L230:
  19:main.c        ****         else if(a==1&&b==0&&c==1) {return 0;}   //Derecha e Izquierda
 4882              		.loc 6 19 0 is_stmt 1
 4883 0038 012B     		cmp	r3, #1
 4884 003a 03D1     		bne	.L231
 4885              		.loc 6 19 0 is_stmt 0 discriminator 1
 4886 003c 0029     		cmp	r1, #0
 4887 003e 01D1     		bne	.L231
 4888              		.loc 6 19 0 discriminator 2
 4889 0040 012A     		cmp	r2, #1
 4890 0042 0DD0     		beq	.L235
 4891              	.L231:
  20:main.c        ****         else if(a==1&&b==1&&c==0) {return 1;}   //Frontal y Derecha
 4892              		.loc 6 20 0 is_stmt 1
 4893 0044 012B     		cmp	r3, #1
 4894 0046 0DD1     		bne	.L236
ARM GAS  C:\Users\HENRYA~1\AppData\Local\Temp\cceIRlNf.s 			page 106


 4895              		.loc 6 20 0 is_stmt 0 discriminator 1
 4896 0048 0129     		cmp	r1, #1
 4897 004a 0DD1     		bne	.L237
 4898              		.loc 6 20 0 discriminator 2
 4899 004c 002A     		cmp	r2, #0
 4900 004e 0DD0     		beq	.L238
  21:main.c        ****         else if(a==1&&b==1&&c==1) {return 0;}   //Todos
  22:main.c        ****         else                      {return 0;}   //Normal
 4901              		.loc 6 22 0 is_stmt 1
 4902 0050 0020     		movs	r0, #0
 4903 0052 0CE0     		b	.L226
 4904              	.L232:
  15:main.c        ****         else if(a==0&&b==1&&c==0) {return 0;}   //Frontal
 4905              		.loc 6 15 0
 4906 0054 2000     		movs	r0, r4
 4907 0056 0AE0     		b	.L226
 4908              	.L233:
  16:main.c        ****         else if(a==0&&b==1&&c==1) {return 1;}   //Frontal e Izquierda
 4909              		.loc 6 16 0
 4910 0058 0020     		movs	r0, #0
 4911 005a 08E0     		b	.L226
 4912              	.L234:
  17:main.c        ****         else if(a==1&&b==0&&c==0) {return 0;}   //Derecha
 4913              		.loc 6 17 0
 4914 005c 0120     		movs	r0, #1
 4915 005e 06E0     		b	.L226
 4916              	.L235:
  19:main.c        ****         else if(a==1&&b==1&&c==0) {return 1;}   //Frontal y Derecha
 4917              		.loc 6 19 0
 4918 0060 0020     		movs	r0, #0
 4919 0062 04E0     		b	.L226
 4920              	.L236:
 4921              		.loc 6 22 0
 4922 0064 0020     		movs	r0, #0
 4923 0066 02E0     		b	.L226
 4924              	.L237:
 4925 0068 0020     		movs	r0, #0
 4926 006a 00E0     		b	.L226
 4927              	.L238:
  20:main.c        ****         else if(a==1&&b==1&&c==1) {return 0;}   //Todos
 4928              		.loc 6 20 0
 4929 006c 0120     		movs	r0, #1
 4930              	.L226:
  23:main.c        **** }
 4931              		.loc 6 23 0
 4932              		@ sp needed
 4933 006e 10BD     		pop	{r4, pc}
 4934              		.cfi_endproc
 4935              	.LFE83:
 4936              		.size	Estado_COM, .-Estado_COM
 4937              		.section	.text.main,"ax",%progbits
 4938              		.align	2
 4939              		.global	main
 4940              		.code	16
 4941              		.thumb_func
 4942              		.type	main, %function
 4943              	main:
ARM GAS  C:\Users\HENRYA~1\AppData\Local\Temp\cceIRlNf.s 			page 107


 4944              	.LFB84:
  24:main.c        **** 
  25:main.c        **** int main()
  26:main.c        **** {  
 4945              		.loc 6 26 0
 4946              		.cfi_startproc
 4947              		@ Volatile: function does not return.
 4948              		@ args = 0, pretend = 0, frame = 0
 4949              		@ frame_needed = 0, uses_anonymous_args = 0
 4950 0000 10B5     		push	{r4, lr}
 4951              		.cfi_def_cfa_offset 8
 4952              		.cfi_offset 4, -8
 4953              		.cfi_offset 14, -4
  27:main.c        ****     CyGlobalIntEnable; /* Enable global interrupts. */
 4954              		.loc 6 27 0
 4955              		.syntax divided
 4956              	@ 27 "main.c" 1
 4957 0002 62B6     		CPSIE   i
 4958              	@ 0 "" 2
  28:main.c        ****     //Init LED's
  29:main.c        ****     LED_1_Write(0);
 4959              		.loc 6 29 0
 4960              		.thumb
 4961              		.syntax unified
 4962 0004 0020     		movs	r0, #0
 4963 0006 FFF7FEFF 		bl	LED_1_Write
 4964              	.LVL687:
  30:main.c        ****     LED_2_Write(0);
 4965              		.loc 6 30 0
 4966 000a 0020     		movs	r0, #0
 4967 000c FFF7FEFF 		bl	LED_2_Write
 4968              	.LVL688:
  31:main.c        ****     LED_3_Write(0);
 4969              		.loc 6 31 0
 4970 0010 0020     		movs	r0, #0
 4971 0012 FFF7FEFF 		bl	LED_3_Write
 4972              	.LVL689:
  32:main.c        ****     LED_4_Write(0);
 4973              		.loc 6 32 0
 4974 0016 0020     		movs	r0, #0
 4975 0018 FFF7FEFF 		bl	LED_4_Write
 4976              	.LVL690:
  33:main.c        ****     //Init Sensor's
  34:main.c        ****     SENSOR_1_Start();
 4977              		.loc 6 34 0
 4978 001c FFF7FEFF 		bl	SENSOR_1_Start
 4979              	.LVL691:
  35:main.c        ****     SENSOR_1_Enable();
 4980              		.loc 6 35 0
 4981 0020 FFF7FEFF 		bl	SENSOR_1_Enable
 4982              	.LVL692:
  36:main.c        ****     SENSOR_2_Start();
 4983              		.loc 6 36 0
 4984 0024 FFF7FEFF 		bl	SENSOR_2_Start
 4985              	.LVL693:
  37:main.c        ****     SENSOR_2_Enable();
 4986              		.loc 6 37 0
ARM GAS  C:\Users\HENRYA~1\AppData\Local\Temp\cceIRlNf.s 			page 108


 4987 0028 FFF7FEFF 		bl	SENSOR_2_Enable
 4988              	.LVL694:
  38:main.c        ****     SENSOR_3_Start();
 4989              		.loc 6 38 0
 4990 002c FFF7FEFF 		bl	SENSOR_3_Start
 4991              	.LVL695:
  39:main.c        ****     SENSOR_3_Enable();
 4992              		.loc 6 39 0
 4993 0030 FFF7FEFF 		bl	SENSOR_3_Enable
 4994              	.LVL696:
  40:main.c        ****     SENSOR_4_Start();
 4995              		.loc 6 40 0
 4996 0034 FFF7FEFF 		bl	SENSOR_4_Start
 4997              	.LVL697:
  41:main.c        ****     SENSOR_4_Enable();    
 4998              		.loc 6 41 0
 4999 0038 FFF7FEFF 		bl	SENSOR_4_Enable
 5000              	.LVL698:
  42:main.c        ****     CyDelay(100);
 5001              		.loc 6 42 0
 5002 003c 6420     		movs	r0, #100
 5003 003e FFF7FEFF 		bl	CyDelay
 5004              	.LVL699:
  43:main.c        ****     initVCNL_1();
 5005              		.loc 6 43 0
 5006 0042 FFF7FEFF 		bl	initVCNL_1
 5007              	.LVL700:
  44:main.c        ****     initVCNL_2();
 5008              		.loc 6 44 0
 5009 0046 FFF7FEFF 		bl	initVCNL_2
 5010              	.LVL701:
  45:main.c        ****     initVCNL_3();
 5011              		.loc 6 45 0
 5012 004a FFF7FEFF 		bl	initVCNL_3
 5013              	.LVL702:
  46:main.c        ****     Orientacion_Modulo();    
 5014              		.loc 6 46 0
 5015 004e FFF7FEFF 		bl	Orientacion_Modulo
 5016              	.LVL703:
  47:main.c        ****     CAN_Start();                    //  start CAN
 5017              		.loc 6 47 0
 5018 0052 FFF7FEFF 		bl	CAN_Start
 5019              	.LVL704:
  48:main.c        ****     CAN_isr_StartEx(interrutcan);   //interrucion can
 5020              		.loc 6 48 0
 5021 0056 3148     		ldr	r0, .L249
 5022 0058 FFF7FEFF 		bl	CAN_isr_StartEx
 5023              	.LVL705:
  49:main.c        ****     dir=1;                          //direcion del motor
