ARM GAS  C:\Users\HENRYA~1\AppData\Local\Temp\cchlxp14.s 			page 1


   1              		.syntax unified
   2              		.cpu cortex-m0
   3              		.fpu softvfp
   4              		.eabi_attribute 20, 1
   5              		.eabi_attribute 21, 1
   6              		.eabi_attribute 23, 3
   7              		.eabi_attribute 24, 1
   8              		.eabi_attribute 25, 1
   9              		.eabi_attribute 26, 1
  10              		.eabi_attribute 30, 1
  11              		.eabi_attribute 34, 0
  12              		.eabi_attribute 18, 4
  13              		.thumb
  14              		.syntax unified
  15              		.file	"main.c"
  16              		.text
  17              	.Ltext0:
  18              		.cfi_sections	.debug_frame
  19              		.section	.text.Serial_Interrupt,"ax",%progbits
  20              		.align	2
  21              		.global	Serial_Interrupt
  22              		.code	16
  23              		.thumb_func
  24              		.type	Serial_Interrupt, %function
  25              	Serial_Interrupt:
  26              	.LFB53:
  27              		.file 1 "main.c"
   1:main.c        **** #include <project.h>
   2:main.c        **** #include <stdio.h>
   3:main.c        **** #include <stdlib.h>
   4:main.c        **** #include <math.h>
   5:main.c        **** #include <protocolo can.h>
   6:main.c        **** //Import Libraries
   7:main.c        **** //Global Variables
   8:main.c        **** uint8 mailbox0[8];
   9:main.c        **** uint8 mailbox1[8];
  10:main.c        **** uint8 mailbox2[8];
  11:main.c        **** uint8 dato_enviado[8];
  12:main.c        **** uint8 dato_enviado_1[8];
  13:main.c        **** char dist=0;
  14:main.c        **** int16 conta=0;
  15:main.c        **** int cantidadM=0;
  16:main.c        **** int Cantidad_Sensores=0;
  17:main.c        **** //Variables AE
  18:main.c        **** int Max_Conta=100;
  19:main.c        **** float amplitud=0.5;
  20:main.c        **** float offset=0.833;
  21:main.c        **** float fase=0.3;
  22:main.c        **** float ampli_aux=0.0;
  23:main.c        **** float off_aux=0.0;
  24:main.c        **** float pha_aux=0.0;
  25:main.c        **** int flag=0;
  26:main.c        **** float L_actual=0.0;
  27:main.c        **** float L_anterior=0.0;
  28:main.c        **** 
  29:main.c        **** double randd() {
  30:main.c        ****   return (double)rand()/((double)RAND_MAX + 1);
ARM GAS  C:\Users\HENRYA~1\AppData\Local\Temp\cchlxp14.s 			page 2


  31:main.c        **** }
  32:main.c        **** 
  33:main.c        **** double random_amplitud(){
  34:main.c        ****     return randd();
  35:main.c        **** }
  36:main.c        **** 
  37:main.c        **** double random_Fase(){
  38:main.c        ****     float r=0.0;
  39:main.c        ****     r=randd();
  40:main.c        ****     if(r>0.5){return randd();}
  41:main.c        ****     else{return randd()*-1;}
  42:main.c        **** }
  43:main.c        **** 
  44:main.c        **** double random_Offset(){
  45:main.c        ****     float r=0.0;
  46:main.c        ****     r=randd();
  47:main.c        ****     r=r*0.7;
  48:main.c        ****     r=r+0.5;
  49:main.c        ****     return r;
  50:main.c        **** }
  51:main.c        **** 
  52:main.c        **** void movimiento(unsigned int dirr,int mov){
  53:main.c        ****     char byteh,bytel;
  54:main.c        ****     byteh= mov >> 8;
  55:main.c        ****     bytel=mov;
  56:main.c        ****     dato_enviado[0]=VER ;//verificacion
  57:main.c        ****     dato_enviado[1]=dirr ;//dir
  58:main.c        ****     dato_enviado[2]=ESCRITURA ;//operacion
  59:main.c        ****     dato_enviado[3]=MOTOR;//lugar
  60:main.c        ****     dato_enviado[4]= byteh ;  //dato
  61:main.c        ****     dato_enviado[5]= bytel ;  //dato
  62:main.c        ****     CAN_SendMsg0(); 
  63:main.c        ****     CyDelay(25);    
  64:main.c        **** }
  65:main.c        **** 
  66:main.c        **** void Send_Angle(int datas,int Conta3){ 
  67:main.c        ****     int8 datoL=datas;
  68:main.c        ****     int8 datoH=datas>>8;  
  69:main.c        ****     dato_enviado[0]=VER2;//verificacion
  70:main.c        ****     dato_enviado[1]=Conta3;//dir
  71:main.c        ****     dato_enviado[2]=Conta3;//dir
  72:main.c        ****     dato_enviado[3]=ANGLE;
  73:main.c        ****     dato_enviado[4]=0;//lugar
  74:main.c        ****     dato_enviado[5]=0;  //dato... en este caso direcion para asignar
  75:main.c        ****     dato_enviado[6]=0;
  76:main.c        ****     dato_enviado[7]=Conta3;
  77:main.c        ****     CAN_SendMsg0(); 
  78:main.c        ****     CyDelay(50);
  79:main.c        **** }
  80:main.c        **** 
  81:main.c        **** void Enviar_Parametros(float Amplitud,float Phase,float Offset,int Orientacion){
  82:main.c        ****     //Convertir el Valor a entero para ser enviado
  83:main.c        ****     int Amp_env=(int)fabs(Amplitud*10000);
  84:main.c        ****     int Phase_env=(int)fabs(Phase*10000);
  85:main.c        ****     int Offset_env=(int)fabs(Offset*10000);
  86:main.c        ****     //Enviar datos
  87:main.c        ****     dato_enviado_1[0]=VER_M1;
ARM GAS  C:\Users\HENRYA~1\AppData\Local\Temp\cchlxp14.s 			page 3


  88:main.c        ****     dato_enviado_1[1]=Orientacion;
  89:main.c        ****     //Convertir Amplitud
  90:main.c        ****     uint8 datoL=Amp_env;
  91:main.c        ****     uint8 datoH=Amp_env>>8;
  92:main.c        ****     uint8 Aux=0;
  93:main.c        ****     if(Amplitud<0.0){
  94:main.c        ****         Aux=(1<<7);
  95:main.c        ****         datoH=datoH+Aux;
  96:main.c        ****     }
  97:main.c        ****     else{
  98:main.c        ****         Aux=(0<<7);
  99:main.c        ****         datoH=datoH+Aux;    
 100:main.c        ****     }
 101:main.c        ****     dato_enviado_1[2]=datoL;
 102:main.c        ****     dato_enviado_1[3]=datoH;
 103:main.c        ****     //Convertir Fase
 104:main.c        ****     datoL=Phase_env;
 105:main.c        ****     datoH=Phase_env>>8;
 106:main.c        ****     if(Phase<0.0){
 107:main.c        ****         Aux=(1<<7);
 108:main.c        ****         datoH=datoH+Aux;
 109:main.c        ****     }
 110:main.c        ****     else{
 111:main.c        ****         Aux=(0<<7);
 112:main.c        ****         datoH=datoH+Aux;    
 113:main.c        ****     }
 114:main.c        ****     dato_enviado_1[4]=datoL;
 115:main.c        ****     dato_enviado_1[5]=datoH;
 116:main.c        ****     //Convertir Offset
 117:main.c        ****     datoL=Offset_env;
 118:main.c        ****     datoH=Offset_env>>8;
 119:main.c        ****     if(Offset<0.0){
 120:main.c        ****         Aux=(1<<7);
 121:main.c        ****         datoH=datoH+Aux;
 122:main.c        ****     }
 123:main.c        ****     else{
 124:main.c        ****         Aux=(0<<7);
 125:main.c        ****         datoH=datoH+Aux;    
 126:main.c        ****     }
 127:main.c        ****     dato_enviado_1[6]=datoL;
 128:main.c        ****     dato_enviado_1[7]=datoH;    
 129:main.c        ****     CAN_SendMsg1();
 130:main.c        ****     CyDelay(25);
 131:main.c        **** }
 132:main.c        **** 
 133:main.c        **** void Recibe_mail_0(){
 134:main.c        **** if(mailbox0[0]==VER){
 135:main.c        ****             switch(mailbox0[2]){
 136:main.c        ****             ///////////////////////////////////////////////////////
 137:main.c        ****             case ESCRITURA:{ 
 138:main.c        ****                 switch(mailbox0[3]){//////////+6+++++++++++++
 139:main.c        ****                     case CANTIDAD_MOD: 
 140:main.c        ****                             cantidadM=mailbox0[4];
 141:main.c        ****                     break;
 142:main.c        ****                     case START:
 143:main.c        ****                         
 144:main.c        ****                     break;
ARM GAS  C:\Users\HENRYA~1\AppData\Local\Temp\cchlxp14.s 			page 4


 145:main.c        ****                 }
 146:main.c        ****             }                                            
 147:main.c        ****         }    
 148:main.c        **** }
 149:main.c        **** if(mailbox0[0]==VER2){
 150:main.c        ****                 switch(mailbox0[3]){
 151:main.c        ****                 ///////////////////////////////////////////////////////
 152:main.c        ****                 case ANGLE:{
 153:main.c        ****                     int Contador=mailbox0[7];
 154:main.c        ****                     if(Contador>=cantidadM){
 155:main.c        ****                         Enviar_Parametros(amplitud,fase,offset,V);
 156:main.c        ****                     } 
 157:main.c        ****                 }
 158:main.c        ****                 break;}
 159:main.c        ****             } 
 160:main.c        **** }
 161:main.c        **** 
 162:main.c        **** void Recibe_Mail_2(){
 163:main.c        ****     if(mailbox2[0]==SENSORES){
 164:main.c        ****         //Mailbox2[1] Derecha
 165:main.c        ****         //Mailbox2[2] Frente
 166:main.c        ****         //Mailbox2[3] Izquierda
 167:main.c        ****         if(mailbox2[1]==0&&mailbox2[2]==0&&mailbox2[3]==0)      {Cantidad_Sensores=0;}   //Normal
 168:main.c        ****         else if(mailbox2[1]==0&&mailbox2[2]==0&&mailbox2[3]==1) {Cantidad_Sensores=1;}   //Izquierd
 169:main.c        ****         else if(mailbox2[1]==0&&mailbox2[2]==1&&mailbox2[3]==0) {Cantidad_Sensores=2;}   //Frontal
 170:main.c        ****         else if(mailbox2[1]==0&&mailbox2[2]==1&&mailbox2[3]==1) {Cantidad_Sensores=3;}   //Frontal 
 171:main.c        ****         else if(mailbox2[1]==1&&mailbox2[2]==0&&mailbox2[3]==0) {Cantidad_Sensores=4;}   //Derecha
 172:main.c        ****         else if(mailbox2[1]==1&&mailbox2[2]==0&&mailbox2[3]==1) {Cantidad_Sensores=5;}   //Derecha 
 173:main.c        ****         else if(mailbox2[1]==1&&mailbox2[2]==1&&mailbox2[3]==0) {Cantidad_Sensores=6;}   //Frontal 
 174:main.c        ****         else if(mailbox2[1]==1&&mailbox2[2]==1&&mailbox2[3]==1) {Cantidad_Sensores=7;}   //Todos
 175:main.c        ****         else                                                    {Cantidad_Sensores=0;}   //Normal
 176:main.c        ****     }
 177:main.c        **** }
 178:main.c        **** 
 179:main.c        **** CY_ISR(interrutcan){
 180:main.c        ****     CAN_GlobalIntDisable();
 181:main.c        ****     CAN_MsgRXIsr();  
 182:main.c        ****     Recibe_mail_0();
 183:main.c        ****     Recibe_Mail_2();
 184:main.c        ****     CAN_GlobalIntEnable();
 185:main.c        **** }
 186:main.c        **** 
 187:main.c        **** double Medir_dist(){
 188:main.c        ****     CAN_isr_Stop();
 189:main.c        ****     int i=0;
 190:main.c        ****     float longitud=0.0;
 191:main.c        ****     Enviar_Parametros(0.0,0.0,0.833,V);
 192:main.c        ****     CyDelay(50);
 193:main.c        ****     Enviar_Parametros(0.0,0.0,0.833,V);
 194:main.c        ****     for(i=1;i<10;i++){
 195:main.c        ****         longitud=dist+longitud;
 196:main.c        ****         CyDelay(1000);
 197:main.c        ****     } 
 198:main.c        ****     longitud=longitud/10;
 199:main.c        ****     CAN_isr_StartEx(interrutcan);
 200:main.c        ****     return longitud;
 201:main.c        **** }
ARM GAS  C:\Users\HENRYA~1\AppData\Local\Temp\cchlxp14.s 			page 5


 202:main.c        **** 
 203:main.c        **** void Hill(){
 204:main.c        ****     if(flag==1){L_actual=Medir_dist();Max_Conta=50;}
 205:main.c        ****     else if(flag==3){
 206:main.c        ****         if(L_actual<(L_anterior+5)){}
 207:main.c        ****         else{
 208:main.c        ****             amplitud=random_amplitud();
 209:main.c        ****             fase=random_Fase();
 210:main.c        ****             offset=random_Offset();
 211:main.c        ****         }
 212:main.c        ****         L_anterior=L_actual;
 213:main.c        ****         flag=0;
 214:main.c        ****         Max_Conta=100;
 215:main.c        ****     }
 216:main.c        ****     else if(flag>3){flag=0;}  
 217:main.c        **** }
 218:main.c        **** 
 219:main.c        **** void Left_Move(){
 220:main.c        ****     Send_Angle(0,200);
 221:main.c        ****     int  i=0;
 222:main.c        ****     int j=0;
 223:main.c        ****     for(i=0;i<cantidadM;i++){ //Alineación
 224:main.c        ****         movimiento(i,512);
 225:main.c        ****         }
 226:main.c        ****     CyDelay(2000);
 227:main.c        ****     movimiento(cantidadM,675);//Ancla Trasera
 228:main.c        ****     CyDelay(2000);
 229:main.c        ****     //Giro
 230:main.c        ****     for(j=0;j<1;j++){
 231:main.c        ****         for(i=2;i<cantidadM;i=i+4){ 
 232:main.c        ****             movimiento(i,650);
 233:main.c        ****             movimiento(i+1,750);
 234:main.c        ****             }
 235:main.c        ****         movimiento(cantidadM,512);//Ancla Trasera
 236:main.c        ****         CyDelay(2000);
 237:main.c        ****         movimiento(0,350);//Ancla Delantera
 238:main.c        ****         CyDelay(2000);
 239:main.c        ****         for(i=2;i<cantidadM;i=i+4){ //Alineación
 240:main.c        ****             movimiento(i,512);
 241:main.c        ****             movimiento(i+1,512);
 242:main.c        ****         }    
 243:main.c        ****         CyDelay(2000);
 244:main.c        ****     }         
 245:main.c        ****     for(i=0;i<cantidadM;i++){ //Alineación
 246:main.c        ****         movimiento(i,512);
 247:main.c        ****         }
 248:main.c        ****     CyDelay(2000); 
 249:main.c        ****     Send_Angle(0,0);
 250:main.c        **** }
 251:main.c        **** 
 252:main.c        **** void Right_Move(){
 253:main.c        ****     Send_Angle(0,200);
 254:main.c        ****     int  i=0;
 255:main.c        ****     int j=0;
 256:main.c        ****     for(i=0;i<cantidadM;i++){ //Alineación
 257:main.c        ****         movimiento(i,512);
 258:main.c        ****         }
ARM GAS  C:\Users\HENRYA~1\AppData\Local\Temp\cchlxp14.s 			page 6


 259:main.c        ****     CyDelay(2000);
 260:main.c        ****     movimiento(cantidadM,675);//Ancla Trasera
 261:main.c        ****     CyDelay(2000);
 262:main.c        ****     //Giro
 263:main.c        ****     for(j=0;j<1;j++){
 264:main.c        ****         for(i=2;i<cantidadM;i=i+4){ 
 265:main.c        ****             movimiento(i,374);
 266:main.c        ****             movimiento(i+1,274);
 267:main.c        ****             }
 268:main.c        ****         movimiento(cantidadM,512);//Ancla Trasera
 269:main.c        ****         CyDelay(2000);
 270:main.c        ****         movimiento(0,350);//Ancla Delantera
 271:main.c        ****         CyDelay(2000);
 272:main.c        ****         for(i=2;i<cantidadM;i=i+4){ //Alineación
 273:main.c        ****             movimiento(i,512);
 274:main.c        ****             movimiento(i+1,512);
 275:main.c        ****         }    
 276:main.c        ****         CyDelay(2000);
 277:main.c        ****     }         
 278:main.c        ****     for(i=0;i<cantidadM;i++){ //Alineación
 279:main.c        ****         movimiento(i,512);
 280:main.c        ****         }
 281:main.c        ****     CyDelay(2000); 
 282:main.c        ****     Send_Angle(0,0);
 283:main.c        **** }
 284:main.c        **** 
 285:main.c        **** void Select_Move(){
 286:main.c        ****     Send_Angle(0,200);
 287:main.c        ****     int  i=0;
 288:main.c        ****     for(i=0;i<cantidadM;i++){ //Alineación
 289:main.c        ****         movimiento(i,512);
 290:main.c        ****         }
 291:main.c        ****     CyDelay(2000);
 292:main.c        ****     movimiento(2,650);
 293:main.c        ****     CyDelay(4000);
 294:main.c        ****     double a=Medir_dist();
 295:main.c        ****     movimiento(2,374);
 296:main.c        ****     double b=Medir_dist();
 297:main.c        ****     CyDelay(4000);
 298:main.c        ****     if(a<b){
 299:main.c        ****         Left_Move();    
 300:main.c        ****     }
 301:main.c        ****     else{
 302:main.c        ****         Right_Move();
 303:main.c        ****     }
 304:main.c        **** }
 305:main.c        **** 
 306:main.c        **** //Interrupt's
 307:main.c        **** CY_ISR(Temporizador){
 308:main.c        ****     conta++;
 309:main.c        ****     if(conta==Max_Conta){     
 310:main.c        ****         LED_1_Write(1);
 311:main.c        ****         if(Cantidad_Sensores==2&&dist<20){
 312:main.c        ****             Select_Move();      
 313:main.c        ****         }
 314:main.c        ****         else if(Cantidad_Sensores==3){//Izquierda
 315:main.c        ****             Left_Move();
ARM GAS  C:\Users\HENRYA~1\AppData\Local\Temp\cchlxp14.s 			page 7


 316:main.c        ****         }
 317:main.c        ****         else if(Cantidad_Sensores==6){//Derecha
 318:main.c        ****             Right_Move();           
 319:main.c        ****         }
 320:main.c        ****         else if(Cantidad_Sensores==7){//Reversa
 321:main.c        ****             Enviar_Parametros(0.8,0.833,0.5,V); 
 322:main.c        ****             CyDelay(1000);
 323:main.c        ****             Enviar_Parametros(0.0,0.833,0.5,H);
 324:main.c        ****             CyDelay(15000);
 325:main.c        ****         }
 326:main.c        ****         else{   //Adelante
 327:main.c        ****             flag++;      
 328:main.c        ****             Hill();
 329:main.c        ****             Enviar_Parametros(0.0,fase,offset,H);
 330:main.c        ****             CyDelay(1000);
 331:main.c        ****             Enviar_Parametros(amplitud,fase,offset,V);             
 332:main.c        ****         }
 333:main.c        ****         conta=0;
 334:main.c        ****     }
 335:main.c        ****     else{
 336:main.c        ****         LED_1_Write(0);
 337:main.c        ****     }  
 338:main.c        **** }
 339:main.c        **** 
 340:main.c        **** CY_ISR(Serial_Interrupt){
  28              		.loc 1 340 0
  29              		.cfi_startproc
  30              		@ args = 0, pretend = 0, frame = 0
  31              		@ frame_needed = 0, uses_anonymous_args = 0
  32 0000 10B5     		push	{r4, lr}
  33              		.cfi_def_cfa_offset 8
  34              		.cfi_offset 4, -8
  35              		.cfi_offset 14, -4
 341:main.c        ****     dist=SENSOR_U_GetChar();
  36              		.loc 1 341 0
  37 0002 FFF7FEFF 		bl	SENSOR_U_GetChar
  38              	.LVL0:
  39 0006 014B     		ldr	r3, .L2
  40 0008 1870     		strb	r0, [r3]
 342:main.c        **** }
  41              		.loc 1 342 0
  42              		@ sp needed
  43 000a 10BD     		pop	{r4, pc}
  44              	.L3:
  45              		.align	2
  46              	.L2:
  47 000c 00000000 		.word	.LANCHOR0
  48              		.cfi_endproc
  49              	.LFE53:
  50              		.size	Serial_Interrupt, .-Serial_Interrupt
  51              		.global	__aeabi_i2d
  52              		.global	__aeabi_dmul
  53              		.section	.text.randd,"ax",%progbits
  54              		.align	2
  55              		.global	randd
  56              		.code	16
  57              		.thumb_func
ARM GAS  C:\Users\HENRYA~1\AppData\Local\Temp\cchlxp14.s 			page 8


  58              		.type	randd, %function
  59              	randd:
  60              	.LFB37:
  29:main.c        ****   return (double)rand()/((double)RAND_MAX + 1);
  61              		.loc 1 29 0
  62              		.cfi_startproc
  63              		@ args = 0, pretend = 0, frame = 0
  64              		@ frame_needed = 0, uses_anonymous_args = 0
  65 0000 10B5     		push	{r4, lr}
  66              		.cfi_def_cfa_offset 8
  67              		.cfi_offset 4, -8
  68              		.cfi_offset 14, -4
  30:main.c        **** }
  69              		.loc 1 30 0
  70 0002 FFF7FEFF 		bl	rand
  71              	.LVL1:
  72 0006 FFF7FEFF 		bl	__aeabi_i2d
  73              	.LVL2:
  74 000a 0022     		movs	r2, #0
  75 000c F823     		movs	r3, #248
  76 000e 9B05     		lsls	r3, r3, #22
  77 0010 FFF7FEFF 		bl	__aeabi_dmul
  78              	.LVL3:
  31:main.c        **** 
  79              		.loc 1 31 0
  80              		@ sp needed
  81 0014 10BD     		pop	{r4, pc}
  82              		.cfi_endproc
  83              	.LFE37:
  84              		.size	randd, .-randd
  85 0016 C046     		.section	.text.random_amplitud,"ax",%progbits
  86              		.align	2
  87              		.global	random_amplitud
  88              		.code	16
  89              		.thumb_func
  90              		.type	random_amplitud, %function
  91              	random_amplitud:
  92              	.LFB38:
  33:main.c        ****     return randd();
  93              		.loc 1 33 0
  94              		.cfi_startproc
  95              		@ args = 0, pretend = 0, frame = 0
  96              		@ frame_needed = 0, uses_anonymous_args = 0
  97 0000 10B5     		push	{r4, lr}
  98              		.cfi_def_cfa_offset 8
  99              		.cfi_offset 4, -8
 100              		.cfi_offset 14, -4
  34:main.c        **** }
 101              		.loc 1 34 0
 102 0002 FFF7FEFF 		bl	randd
 103              	.LVL4:
  35:main.c        **** 
 104              		.loc 1 35 0
 105              		@ sp needed
 106 0006 10BD     		pop	{r4, pc}
 107              		.cfi_endproc
 108              	.LFE38:
ARM GAS  C:\Users\HENRYA~1\AppData\Local\Temp\cchlxp14.s 			page 9


 109              		.size	random_amplitud, .-random_amplitud
 110              		.global	__aeabi_d2f
 111              		.global	__aeabi_fcmpgt
 112              		.section	.text.random_Fase,"ax",%progbits
 113              		.align	2
 114              		.global	random_Fase
 115              		.code	16
 116              		.thumb_func
 117              		.type	random_Fase, %function
 118              	random_Fase:
 119              	.LFB39:
  37:main.c        ****     float r=0.0;
 120              		.loc 1 37 0
 121              		.cfi_startproc
 122              		@ args = 0, pretend = 0, frame = 0
 123              		@ frame_needed = 0, uses_anonymous_args = 0
 124 0000 10B5     		push	{r4, lr}
 125              		.cfi_def_cfa_offset 8
 126              		.cfi_offset 4, -8
 127              		.cfi_offset 14, -4
 128              	.LVL5:
  39:main.c        ****     if(r>0.5){return randd();}
 129              		.loc 1 39 0
 130 0002 FFF7FEFF 		bl	randd
 131              	.LVL6:
 132 0006 FFF7FEFF 		bl	__aeabi_d2f
 133              	.LVL7:
  40:main.c        ****     else{return randd()*-1;}
 134              		.loc 1 40 0
 135 000a FC21     		movs	r1, #252
 136 000c 8905     		lsls	r1, r1, #22
 137 000e FFF7FEFF 		bl	__aeabi_fcmpgt
 138              	.LVL8:
 139 0012 0028     		cmp	r0, #0
 140 0014 02D0     		beq	.L11
  40:main.c        ****     else{return randd()*-1;}
 141              		.loc 1 40 0 is_stmt 0 discriminator 1
 142 0016 FFF7FEFF 		bl	randd
 143              	.LVL9:
 144 001a 05E0     		b	.L9
 145              	.L11:
  41:main.c        **** }
 146              		.loc 1 41 0 is_stmt 1
 147 001c FFF7FEFF 		bl	randd
 148              	.LVL10:
 149 0020 8023     		movs	r3, #128
 150 0022 1B06     		lsls	r3, r3, #24
 151 0024 9C46     		mov	ip, r3
 152 0026 6144     		add	r1, r1, ip
 153              	.L9:
  42:main.c        **** 
 154              		.loc 1 42 0
 155              		@ sp needed
 156 0028 10BD     		pop	{r4, pc}
 157              		.cfi_endproc
 158              	.LFE39:
 159              		.size	random_Fase, .-random_Fase
ARM GAS  C:\Users\HENRYA~1\AppData\Local\Temp\cchlxp14.s 			page 10


 160              		.global	__aeabi_f2d
 161              		.global	__aeabi_fadd
 162 002a C046     		.section	.text.random_Offset,"ax",%progbits
 163              		.align	2
 164              		.global	random_Offset
 165              		.code	16
 166              		.thumb_func
 167              		.type	random_Offset, %function
 168              	random_Offset:
 169              	.LFB40:
  44:main.c        ****     float r=0.0;
 170              		.loc 1 44 0
 171              		.cfi_startproc
 172              		@ args = 0, pretend = 0, frame = 0
 173              		@ frame_needed = 0, uses_anonymous_args = 0
 174 0000 10B5     		push	{r4, lr}
 175              		.cfi_def_cfa_offset 8
 176              		.cfi_offset 4, -8
 177              		.cfi_offset 14, -4
 178              	.LVL11:
  46:main.c        ****     r=r*0.7;
 179              		.loc 1 46 0
 180 0002 FFF7FEFF 		bl	randd
 181              	.LVL12:
 182 0006 FFF7FEFF 		bl	__aeabi_d2f
 183              	.LVL13:
  47:main.c        ****     r=r+0.5;
 184              		.loc 1 47 0
 185 000a FFF7FEFF 		bl	__aeabi_f2d
 186              	.LVL14:
 187 000e 064A     		ldr	r2, .L13
 188 0010 064B     		ldr	r3, .L13+4
 189 0012 FFF7FEFF 		bl	__aeabi_dmul
 190              	.LVL15:
 191 0016 FFF7FEFF 		bl	__aeabi_d2f
 192              	.LVL16:
  48:main.c        ****     return r;
 193              		.loc 1 48 0
 194 001a FC21     		movs	r1, #252
 195 001c 8905     		lsls	r1, r1, #22
 196 001e FFF7FEFF 		bl	__aeabi_fadd
 197              	.LVL17:
  49:main.c        **** }
 198              		.loc 1 49 0
 199 0022 FFF7FEFF 		bl	__aeabi_f2d
 200              	.LVL18:
  50:main.c        **** 
 201              		.loc 1 50 0
 202              		@ sp needed
 203 0026 10BD     		pop	{r4, pc}
 204              	.L14:
 205              		.align	2
 206              	.L13:
 207 0028 66666666 		.word	1717986918
 208 002c 6666E63F 		.word	1072064102
 209              		.cfi_endproc
 210              	.LFE40:
ARM GAS  C:\Users\HENRYA~1\AppData\Local\Temp\cchlxp14.s 			page 11


 211              		.size	random_Offset, .-random_Offset
 212              		.section	.text.movimiento,"ax",%progbits
 213              		.align	2
 214              		.global	movimiento
 215              		.code	16
 216              		.thumb_func
 217              		.type	movimiento, %function
 218              	movimiento:
 219              	.LFB41:
  52:main.c        ****     char byteh,bytel;
 220              		.loc 1 52 0
 221              		.cfi_startproc
 222              		@ args = 0, pretend = 0, frame = 0
 223              		@ frame_needed = 0, uses_anonymous_args = 0
 224              	.LVL19:
 225 0000 10B5     		push	{r4, lr}
 226              		.cfi_def_cfa_offset 8
 227              		.cfi_offset 4, -8
 228              		.cfi_offset 14, -4
  54:main.c        ****     bytel=mov;
 229              		.loc 1 54 0
 230 0002 0A12     		asrs	r2, r1, #8
 231              	.LVL20:
  56:main.c        ****     dato_enviado[1]=dirr ;//dir
 232              		.loc 1 56 0
 233 0004 074B     		ldr	r3, .L16
 234 0006 7F24     		movs	r4, #127
 235 0008 1C70     		strb	r4, [r3]
  57:main.c        ****     dato_enviado[2]=ESCRITURA ;//operacion
 236              		.loc 1 57 0
 237 000a 5870     		strb	r0, [r3, #1]
  58:main.c        ****     dato_enviado[3]=MOTOR;//lugar
 238              		.loc 1 58 0
 239 000c 0220     		movs	r0, #2
 240              	.LVL21:
 241 000e 9870     		strb	r0, [r3, #2]
  59:main.c        ****     dato_enviado[4]= byteh ;  //dato
 242              		.loc 1 59 0
 243 0010 0130     		adds	r0, r0, #1
 244 0012 D870     		strb	r0, [r3, #3]
  60:main.c        ****     dato_enviado[5]= bytel ;  //dato
 245              		.loc 1 60 0
 246 0014 1A71     		strb	r2, [r3, #4]
  61:main.c        ****     CAN_SendMsg0(); 
 247              		.loc 1 61 0
 248 0016 5971     		strb	r1, [r3, #5]
  62:main.c        ****     CyDelay(25);    
 249              		.loc 1 62 0
 250 0018 FFF7FEFF 		bl	CAN_SendMsg0
 251              	.LVL22:
  63:main.c        **** }
 252              		.loc 1 63 0
 253 001c 1920     		movs	r0, #25
 254 001e FFF7FEFF 		bl	CyDelay
 255              	.LVL23:
  64:main.c        **** 
 256              		.loc 1 64 0
ARM GAS  C:\Users\HENRYA~1\AppData\Local\Temp\cchlxp14.s 			page 12


 257              		@ sp needed
 258 0022 10BD     		pop	{r4, pc}
 259              	.L17:
 260              		.align	2
 261              	.L16:
 262 0024 00000000 		.word	dato_enviado
 263              		.cfi_endproc
 264              	.LFE41:
 265              		.size	movimiento, .-movimiento
 266              		.section	.text.Send_Angle,"ax",%progbits
 267              		.align	2
 268              		.global	Send_Angle
 269              		.code	16
 270              		.thumb_func
 271              		.type	Send_Angle, %function
 272              	Send_Angle:
 273              	.LFB42:
  66:main.c        ****     int8 datoL=datas;
 274              		.loc 1 66 0
 275              		.cfi_startproc
 276              		@ args = 0, pretend = 0, frame = 0
 277              		@ frame_needed = 0, uses_anonymous_args = 0
 278              	.LVL24:
 279 0000 10B5     		push	{r4, lr}
 280              		.cfi_def_cfa_offset 8
 281              		.cfi_offset 4, -8
 282              		.cfi_offset 14, -4
 283              	.LVL25:
  69:main.c        ****     dato_enviado[1]=Conta3;//dir
 284              		.loc 1 69 0
 285 0002 094B     		ldr	r3, .L19
 286 0004 8022     		movs	r2, #128
 287 0006 1A70     		strb	r2, [r3]
  70:main.c        ****     dato_enviado[2]=Conta3;//dir
 288              		.loc 1 70 0
 289 0008 C9B2     		uxtb	r1, r1
 290              	.LVL26:
 291 000a 5970     		strb	r1, [r3, #1]
  71:main.c        ****     dato_enviado[3]=ANGLE;
 292              		.loc 1 71 0
 293 000c 9970     		strb	r1, [r3, #2]
  72:main.c        ****     dato_enviado[4]=0;//lugar
 294              		.loc 1 72 0
 295 000e 653A     		subs	r2, r2, #101
 296 0010 DA70     		strb	r2, [r3, #3]
  73:main.c        ****     dato_enviado[5]=0;  //dato... en este caso direcion para asignar
 297              		.loc 1 73 0
 298 0012 0022     		movs	r2, #0
 299 0014 1A71     		strb	r2, [r3, #4]
  74:main.c        ****     dato_enviado[6]=0;
 300              		.loc 1 74 0
 301 0016 5A71     		strb	r2, [r3, #5]
  75:main.c        ****     dato_enviado[7]=Conta3;
 302              		.loc 1 75 0
 303 0018 9A71     		strb	r2, [r3, #6]
  76:main.c        ****     CAN_SendMsg0(); 
 304              		.loc 1 76 0
ARM GAS  C:\Users\HENRYA~1\AppData\Local\Temp\cchlxp14.s 			page 13


 305 001a D971     		strb	r1, [r3, #7]
  77:main.c        ****     CyDelay(50);
 306              		.loc 1 77 0
 307 001c FFF7FEFF 		bl	CAN_SendMsg0
 308              	.LVL27:
  78:main.c        **** }
 309              		.loc 1 78 0
 310 0020 3220     		movs	r0, #50
 311 0022 FFF7FEFF 		bl	CyDelay
 312              	.LVL28:
  79:main.c        **** 
 313              		.loc 1 79 0
 314              		@ sp needed
 315 0026 10BD     		pop	{r4, pc}
 316              	.L20:
 317              		.align	2
 318              	.L19:
 319 0028 00000000 		.word	dato_enviado
 320              		.cfi_endproc
 321              	.LFE42:
 322              		.size	Send_Angle, .-Send_Angle
 323              		.global	__aeabi_fmul
 324              		.global	__aeabi_f2iz
 325              		.global	__aeabi_fcmplt
 326              		.section	.text.Enviar_Parametros,"ax",%progbits
 327              		.align	2
 328              		.global	Enviar_Parametros
 329              		.code	16
 330              		.thumb_func
 331              		.type	Enviar_Parametros, %function
 332              	Enviar_Parametros:
 333              	.LFB43:
  81:main.c        ****     //Convertir el Valor a entero para ser enviado
 334              		.loc 1 81 0
 335              		.cfi_startproc
 336              		@ args = 0, pretend = 0, frame = 16
 337              		@ frame_needed = 0, uses_anonymous_args = 0
 338              	.LVL29:
 339 0000 F0B5     		push	{r4, r5, r6, r7, lr}
 340              		.cfi_def_cfa_offset 20
 341              		.cfi_offset 4, -20
 342              		.cfi_offset 5, -16
 343              		.cfi_offset 6, -12
 344              		.cfi_offset 7, -8
 345              		.cfi_offset 14, -4
 346 0002 85B0     		sub	sp, sp, #20
 347              		.cfi_def_cfa_offset 40
 348 0004 0190     		str	r0, [sp, #4]
 349 0006 0291     		str	r1, [sp, #8]
 350 0008 0392     		str	r2, [sp, #12]
 351 000a 1F00     		movs	r7, r3
  83:main.c        ****     int Phase_env=(int)fabs(Phase*10000);
 352              		.loc 1 83 0
 353 000c 2749     		ldr	r1, .L31
 354              	.LVL30:
 355 000e FFF7FEFF 		bl	__aeabi_fmul
 356              	.LVL31:
ARM GAS  C:\Users\HENRYA~1\AppData\Local\Temp\cchlxp14.s 			page 14


 357 0012 4000     		lsls	r0, r0, #1
 358 0014 4008     		lsrs	r0, r0, #1
 359 0016 FFF7FEFF 		bl	__aeabi_f2iz
 360              	.LVL32:
 361 001a 0600     		movs	r6, r0
 362              	.LVL33:
  84:main.c        ****     int Offset_env=(int)fabs(Offset*10000);
 363              		.loc 1 84 0
 364 001c 2349     		ldr	r1, .L31
 365 001e 0298     		ldr	r0, [sp, #8]
 366              	.LVL34:
 367 0020 FFF7FEFF 		bl	__aeabi_fmul
 368              	.LVL35:
 369 0024 4000     		lsls	r0, r0, #1
 370 0026 4008     		lsrs	r0, r0, #1
 371 0028 FFF7FEFF 		bl	__aeabi_f2iz
 372              	.LVL36:
 373 002c 0500     		movs	r5, r0
 374              	.LVL37:
  85:main.c        ****     //Enviar datos
 375              		.loc 1 85 0
 376 002e 1F49     		ldr	r1, .L31
 377 0030 0398     		ldr	r0, [sp, #12]
 378              	.LVL38:
 379 0032 FFF7FEFF 		bl	__aeabi_fmul
 380              	.LVL39:
 381 0036 4000     		lsls	r0, r0, #1
 382 0038 4008     		lsrs	r0, r0, #1
 383 003a FFF7FEFF 		bl	__aeabi_f2iz
 384              	.LVL40:
 385 003e 0400     		movs	r4, r0
 386              	.LVL41:
  87:main.c        ****     dato_enviado_1[1]=Orientacion;
 387              		.loc 1 87 0
 388 0040 1B4B     		ldr	r3, .L31+4
 389 0042 8122     		movs	r2, #129
 390 0044 1A70     		strb	r2, [r3]
  88:main.c        ****     //Convertir Amplitud
 391              		.loc 1 88 0
 392 0046 5F70     		strb	r7, [r3, #1]
  90:main.c        ****     uint8 datoH=Amp_env>>8;
 393              		.loc 1 90 0
 394 0048 F7B2     		uxtb	r7, r6
 395              	.LVL42:
  91:main.c        ****     uint8 Aux=0;
 396              		.loc 1 91 0
 397 004a 3612     		asrs	r6, r6, #8
 398              	.LVL43:
 399 004c F6B2     		uxtb	r6, r6
 400              	.LVL44:
  93:main.c        ****         Aux=(1<<7);
 401              		.loc 1 93 0
 402 004e 0021     		movs	r1, #0
 403 0050 0198     		ldr	r0, [sp, #4]
 404              	.LVL45:
 405 0052 FFF7FEFF 		bl	__aeabi_fcmplt
 406              	.LVL46:
ARM GAS  C:\Users\HENRYA~1\AppData\Local\Temp\cchlxp14.s 			page 15


 407 0056 0028     		cmp	r0, #0
 408 0058 01D0     		beq	.L22
 409              	.LVL47:
  95:main.c        ****     }
 410              		.loc 1 95 0
 411 005a 803E     		subs	r6, r6, #128
 412              	.LVL48:
 413 005c F6B2     		uxtb	r6, r6
 414              	.LVL49:
 415              	.L22:
 101:main.c        ****     dato_enviado_1[3]=datoH;
 416              		.loc 1 101 0
 417 005e 144B     		ldr	r3, .L31+4
 418 0060 9F70     		strb	r7, [r3, #2]
 102:main.c        ****     //Convertir Fase
 419              		.loc 1 102 0
 420 0062 DE70     		strb	r6, [r3, #3]
 104:main.c        ****     datoH=Phase_env>>8;
 421              		.loc 1 104 0
 422 0064 EEB2     		uxtb	r6, r5
 423              	.LVL50:
 105:main.c        ****     if(Phase<0.0){
 424              		.loc 1 105 0
 425 0066 2D12     		asrs	r5, r5, #8
 426              	.LVL51:
 427 0068 EDB2     		uxtb	r5, r5
 428              	.LVL52:
 106:main.c        ****         Aux=(1<<7);
 429              		.loc 1 106 0
 430 006a 0021     		movs	r1, #0
 431 006c 0298     		ldr	r0, [sp, #8]
 432 006e FFF7FEFF 		bl	__aeabi_fcmplt
 433              	.LVL53:
 434 0072 0028     		cmp	r0, #0
 435 0074 01D0     		beq	.L24
 436              	.LVL54:
 108:main.c        ****     }
 437              		.loc 1 108 0
 438 0076 803D     		subs	r5, r5, #128
 439              	.LVL55:
 440 0078 EDB2     		uxtb	r5, r5
 441              	.LVL56:
 442              	.L24:
 114:main.c        ****     dato_enviado_1[5]=datoH;
 443              		.loc 1 114 0
 444 007a 0D4B     		ldr	r3, .L31+4
 445 007c 1E71     		strb	r6, [r3, #4]
 115:main.c        ****     //Convertir Offset
 446              		.loc 1 115 0
 447 007e 5D71     		strb	r5, [r3, #5]
 117:main.c        ****     datoH=Offset_env>>8;
 448              		.loc 1 117 0
 449 0080 E5B2     		uxtb	r5, r4
 450              	.LVL57:
 118:main.c        ****     if(Offset<0.0){
 451              		.loc 1 118 0
 452 0082 2412     		asrs	r4, r4, #8
ARM GAS  C:\Users\HENRYA~1\AppData\Local\Temp\cchlxp14.s 			page 16


 453              	.LVL58:
 454 0084 E4B2     		uxtb	r4, r4
 455              	.LVL59:
 119:main.c        ****         Aux=(1<<7);
 456              		.loc 1 119 0
 457 0086 0021     		movs	r1, #0
 458 0088 0398     		ldr	r0, [sp, #12]
 459 008a FFF7FEFF 		bl	__aeabi_fcmplt
 460              	.LVL60:
 461 008e 0028     		cmp	r0, #0
 462 0090 01D0     		beq	.L26
 463              	.LVL61:
 121:main.c        ****     }
 464              		.loc 1 121 0
 465 0092 803C     		subs	r4, r4, #128
 466              	.LVL62:
 467 0094 E4B2     		uxtb	r4, r4
 468              	.LVL63:
 469              	.L26:
 127:main.c        ****     dato_enviado_1[7]=datoH;    
 470              		.loc 1 127 0
 471 0096 064B     		ldr	r3, .L31+4
 472 0098 9D71     		strb	r5, [r3, #6]
 128:main.c        ****     CAN_SendMsg1();
 473              		.loc 1 128 0
 474 009a DC71     		strb	r4, [r3, #7]
 129:main.c        ****     CyDelay(25);
 475              		.loc 1 129 0
 476 009c FFF7FEFF 		bl	CAN_SendMsg1
 477              	.LVL64:
 130:main.c        **** }
 478              		.loc 1 130 0
 479 00a0 1920     		movs	r0, #25
 480 00a2 FFF7FEFF 		bl	CyDelay
 481              	.LVL65:
 131:main.c        **** 
 482              		.loc 1 131 0
 483 00a6 05B0     		add	sp, sp, #20
 484              		@ sp needed
 485              	.LVL66:
 486              	.LVL67:
 487 00a8 F0BD     		pop	{r4, r5, r6, r7, pc}
 488              	.L32:
 489 00aa C046     		.align	2
 490              	.L31:
 491 00ac 00401C46 		.word	1176256512
 492 00b0 00000000 		.word	dato_enviado_1
 493              		.cfi_endproc
 494              	.LFE43:
 495              		.size	Enviar_Parametros, .-Enviar_Parametros
 496              		.section	.text.Recibe_mail_0,"ax",%progbits
 497              		.align	2
 498              		.global	Recibe_mail_0
 499              		.code	16
 500              		.thumb_func
 501              		.type	Recibe_mail_0, %function
 502              	Recibe_mail_0:
ARM GAS  C:\Users\HENRYA~1\AppData\Local\Temp\cchlxp14.s 			page 17


 503              	.LFB44:
 133:main.c        **** if(mailbox0[0]==VER){
 504              		.loc 1 133 0
 505              		.cfi_startproc
 506              		@ args = 0, pretend = 0, frame = 0
 507              		@ frame_needed = 0, uses_anonymous_args = 0
 508 0000 10B5     		push	{r4, lr}
 509              		.cfi_def_cfa_offset 8
 510              		.cfi_offset 4, -8
 511              		.cfi_offset 14, -4
 134:main.c        ****             switch(mailbox0[2]){
 512              		.loc 1 134 0
 513 0002 124B     		ldr	r3, .L39
 514 0004 1B78     		ldrb	r3, [r3]
 515 0006 7F2B     		cmp	r3, #127
 516 0008 0BD1     		bne	.L34
 135:main.c        ****             ///////////////////////////////////////////////////////
 517              		.loc 1 135 0
 518 000a 104A     		ldr	r2, .L39
 519 000c 9278     		ldrb	r2, [r2, #2]
 520 000e 022A     		cmp	r2, #2
 521 0010 07D1     		bne	.L34
 138:main.c        ****                     case CANTIDAD_MOD: 
 522              		.loc 1 138 0
 523 0012 0E4A     		ldr	r2, .L39
 524 0014 D278     		ldrb	r2, [r2, #3]
 525 0016 2B2A     		cmp	r2, #43
 526 0018 03D1     		bne	.L34
 140:main.c        ****                     break;
 527              		.loc 1 140 0
 528 001a 0C4A     		ldr	r2, .L39
 529 001c 1179     		ldrb	r1, [r2, #4]
 530 001e 0C4A     		ldr	r2, .L39+4
 531 0020 5160     		str	r1, [r2, #4]
 532              	.L34:
 149:main.c        ****                 switch(mailbox0[3]){
 533              		.loc 1 149 0
 534 0022 802B     		cmp	r3, #128
 535 0024 10D1     		bne	.L33
 150:main.c        ****                 ///////////////////////////////////////////////////////
 536              		.loc 1 150 0
 537 0026 094B     		ldr	r3, .L39
 538 0028 DB78     		ldrb	r3, [r3, #3]
 539 002a 1B2B     		cmp	r3, #27
 540 002c 0CD1     		bne	.L33
 541              	.LBB2:
 153:main.c        ****                     if(Contador>=cantidadM){
 542              		.loc 1 153 0
 543 002e 074B     		ldr	r3, .L39
 544 0030 DA79     		ldrb	r2, [r3, #7]
 545              	.LVL68:
 154:main.c        ****                         Enviar_Parametros(amplitud,fase,offset,V);
 546              		.loc 1 154 0
 547 0032 074B     		ldr	r3, .L39+4
 548 0034 5B68     		ldr	r3, [r3, #4]
 549 0036 9A42     		cmp	r2, r3
 550 0038 06DB     		blt	.L33
ARM GAS  C:\Users\HENRYA~1\AppData\Local\Temp\cchlxp14.s 			page 18


 155:main.c        ****                     } 
 551              		.loc 1 155 0
 552 003a 064B     		ldr	r3, .L39+8
 553 003c 1A68     		ldr	r2, [r3]
 554              	.LVL69:
 555 003e 5968     		ldr	r1, [r3, #4]
 556 0040 9868     		ldr	r0, [r3, #8]
 557 0042 2123     		movs	r3, #33
 558 0044 FFF7FEFF 		bl	Enviar_Parametros
 559              	.LVL70:
 560              	.L33:
 561              	.LBE2:
 160:main.c        **** 
 562              		.loc 1 160 0
 563              		@ sp needed
 564 0048 10BD     		pop	{r4, pc}
 565              	.L40:
 566 004a C046     		.align	2
 567              	.L39:
 568 004c 00000000 		.word	mailbox0
 569 0050 00000000 		.word	.LANCHOR0
 570 0054 00000000 		.word	.LANCHOR1
 571              		.cfi_endproc
 572              	.LFE44:
 573              		.size	Recibe_mail_0, .-Recibe_mail_0
 574              		.section	.text.Recibe_Mail_2,"ax",%progbits
 575              		.align	2
 576              		.global	Recibe_Mail_2
 577              		.code	16
 578              		.thumb_func
 579              		.type	Recibe_Mail_2, %function
 580              	Recibe_Mail_2:
 581              	.LFB45:
 162:main.c        ****     if(mailbox2[0]==SENSORES){
 582              		.loc 1 162 0
 583              		.cfi_startproc
 584              		@ args = 0, pretend = 0, frame = 0
 585              		@ frame_needed = 0, uses_anonymous_args = 0
 586              		@ link register save eliminated.
 163:main.c        ****         //Mailbox2[1] Derecha
 587              		.loc 1 163 0
 588 0000 3B4B     		ldr	r3, .L51
 589 0002 1B78     		ldrb	r3, [r3]
 590 0004 822B     		cmp	r3, #130
 591 0006 72D1     		bne	.L41
 167:main.c        ****         else if(mailbox2[1]==0&&mailbox2[2]==0&&mailbox2[3]==1) {Cantidad_Sensores=1;}   //Izquierd
 592              		.loc 1 167 0
 593 0008 394B     		ldr	r3, .L51
 594 000a 5B78     		ldrb	r3, [r3, #1]
 595 000c 002B     		cmp	r3, #0
 596 000e 0AD1     		bne	.L43
 167:main.c        ****         else if(mailbox2[1]==0&&mailbox2[2]==0&&mailbox2[3]==1) {Cantidad_Sensores=1;}   //Izquierd
 597              		.loc 1 167 0 is_stmt 0 discriminator 1
 598 0010 374A     		ldr	r2, .L51
 599 0012 9278     		ldrb	r2, [r2, #2]
 600 0014 002A     		cmp	r2, #0
 601 0016 06D1     		bne	.L43
ARM GAS  C:\Users\HENRYA~1\AppData\Local\Temp\cchlxp14.s 			page 19


 167:main.c        ****         else if(mailbox2[1]==0&&mailbox2[2]==0&&mailbox2[3]==1) {Cantidad_Sensores=1;}   //Izquierd
 602              		.loc 1 167 0 discriminator 2
 603 0018 354A     		ldr	r2, .L51
 604 001a D278     		ldrb	r2, [r2, #3]
 605 001c 002A     		cmp	r2, #0
 606 001e 02D1     		bne	.L43
 167:main.c        ****         else if(mailbox2[1]==0&&mailbox2[2]==0&&mailbox2[3]==1) {Cantidad_Sensores=1;}   //Izquierd
 607              		.loc 1 167 0 discriminator 3
 608 0020 344B     		ldr	r3, .L51+4
 609 0022 9A60     		str	r2, [r3, #8]
 610 0024 63E0     		b	.L41
 611              	.L43:
 168:main.c        ****         else if(mailbox2[1]==0&&mailbox2[2]==1&&mailbox2[3]==0) {Cantidad_Sensores=2;}   //Frontal
 612              		.loc 1 168 0 is_stmt 1
 613 0026 002B     		cmp	r3, #0
 614 0028 0AD1     		bne	.L44
 168:main.c        ****         else if(mailbox2[1]==0&&mailbox2[2]==1&&mailbox2[3]==0) {Cantidad_Sensores=2;}   //Frontal
 615              		.loc 1 168 0 is_stmt 0 discriminator 1
 616 002a 314A     		ldr	r2, .L51
 617 002c 9278     		ldrb	r2, [r2, #2]
 618 002e 002A     		cmp	r2, #0
 619 0030 06D1     		bne	.L44
 168:main.c        ****         else if(mailbox2[1]==0&&mailbox2[2]==1&&mailbox2[3]==0) {Cantidad_Sensores=2;}   //Frontal
 620              		.loc 1 168 0 discriminator 2
 621 0032 2F4A     		ldr	r2, .L51
 622 0034 D278     		ldrb	r2, [r2, #3]
 623 0036 012A     		cmp	r2, #1
 624 0038 02D1     		bne	.L44
 168:main.c        ****         else if(mailbox2[1]==0&&mailbox2[2]==1&&mailbox2[3]==0) {Cantidad_Sensores=2;}   //Frontal
 625              		.loc 1 168 0 discriminator 3
 626 003a 2E4B     		ldr	r3, .L51+4
 627 003c 9A60     		str	r2, [r3, #8]
 628 003e 56E0     		b	.L41
 629              	.L44:
 169:main.c        ****         else if(mailbox2[1]==0&&mailbox2[2]==1&&mailbox2[3]==1) {Cantidad_Sensores=3;}   //Frontal 
 630              		.loc 1 169 0 is_stmt 1
 631 0040 002B     		cmp	r3, #0
 632 0042 0BD1     		bne	.L45
 169:main.c        ****         else if(mailbox2[1]==0&&mailbox2[2]==1&&mailbox2[3]==1) {Cantidad_Sensores=3;}   //Frontal 
 633              		.loc 1 169 0 is_stmt 0 discriminator 1
 634 0044 2A4A     		ldr	r2, .L51
 635 0046 9278     		ldrb	r2, [r2, #2]
 636 0048 012A     		cmp	r2, #1
 637 004a 07D1     		bne	.L45
 169:main.c        ****         else if(mailbox2[1]==0&&mailbox2[2]==1&&mailbox2[3]==1) {Cantidad_Sensores=3;}   //Frontal 
 638              		.loc 1 169 0 discriminator 2
 639 004c 284A     		ldr	r2, .L51
 640 004e D278     		ldrb	r2, [r2, #3]
 641 0050 002A     		cmp	r2, #0
 642 0052 03D1     		bne	.L45
 169:main.c        ****         else if(mailbox2[1]==0&&mailbox2[2]==1&&mailbox2[3]==1) {Cantidad_Sensores=3;}   //Frontal 
 643              		.loc 1 169 0 discriminator 3
 644 0054 0232     		adds	r2, r2, #2
 645 0056 274B     		ldr	r3, .L51+4
 646 0058 9A60     		str	r2, [r3, #8]
 647 005a 48E0     		b	.L41
 648              	.L45:
ARM GAS  C:\Users\HENRYA~1\AppData\Local\Temp\cchlxp14.s 			page 20


 170:main.c        ****         else if(mailbox2[1]==1&&mailbox2[2]==0&&mailbox2[3]==0) {Cantidad_Sensores=4;}   //Derecha
 649              		.loc 1 170 0 is_stmt 1
 650 005c 002B     		cmp	r3, #0
 651 005e 0BD1     		bne	.L46
 170:main.c        ****         else if(mailbox2[1]==1&&mailbox2[2]==0&&mailbox2[3]==0) {Cantidad_Sensores=4;}   //Derecha
 652              		.loc 1 170 0 is_stmt 0 discriminator 1
 653 0060 234A     		ldr	r2, .L51
 654 0062 9278     		ldrb	r2, [r2, #2]
 655 0064 012A     		cmp	r2, #1
 656 0066 07D1     		bne	.L46
 170:main.c        ****         else if(mailbox2[1]==1&&mailbox2[2]==0&&mailbox2[3]==0) {Cantidad_Sensores=4;}   //Derecha
 657              		.loc 1 170 0 discriminator 2
 658 0068 214A     		ldr	r2, .L51
 659 006a D278     		ldrb	r2, [r2, #3]
 660 006c 012A     		cmp	r2, #1
 661 006e 03D1     		bne	.L46
 170:main.c        ****         else if(mailbox2[1]==1&&mailbox2[2]==0&&mailbox2[3]==0) {Cantidad_Sensores=4;}   //Derecha
 662              		.loc 1 170 0 discriminator 3
 663 0070 0232     		adds	r2, r2, #2
 664 0072 204B     		ldr	r3, .L51+4
 665 0074 9A60     		str	r2, [r3, #8]
 666 0076 3AE0     		b	.L41
 667              	.L46:
 171:main.c        ****         else if(mailbox2[1]==1&&mailbox2[2]==0&&mailbox2[3]==1) {Cantidad_Sensores=5;}   //Derecha 
 668              		.loc 1 171 0 is_stmt 1
 669 0078 012B     		cmp	r3, #1
 670 007a 0BD1     		bne	.L47
 171:main.c        ****         else if(mailbox2[1]==1&&mailbox2[2]==0&&mailbox2[3]==1) {Cantidad_Sensores=5;}   //Derecha 
 671              		.loc 1 171 0 is_stmt 0 discriminator 1
 672 007c 1C4A     		ldr	r2, .L51
 673 007e 9278     		ldrb	r2, [r2, #2]
 674 0080 002A     		cmp	r2, #0
 675 0082 07D1     		bne	.L47
 171:main.c        ****         else if(mailbox2[1]==1&&mailbox2[2]==0&&mailbox2[3]==1) {Cantidad_Sensores=5;}   //Derecha 
 676              		.loc 1 171 0 discriminator 2
 677 0084 1A4A     		ldr	r2, .L51
 678 0086 D278     		ldrb	r2, [r2, #3]
 679 0088 002A     		cmp	r2, #0
 680 008a 03D1     		bne	.L47
 171:main.c        ****         else if(mailbox2[1]==1&&mailbox2[2]==0&&mailbox2[3]==1) {Cantidad_Sensores=5;}   //Derecha 
 681              		.loc 1 171 0 discriminator 3
 682 008c 0432     		adds	r2, r2, #4
 683 008e 194B     		ldr	r3, .L51+4
 684 0090 9A60     		str	r2, [r3, #8]
 685 0092 2CE0     		b	.L41
 686              	.L47:
 172:main.c        ****         else if(mailbox2[1]==1&&mailbox2[2]==1&&mailbox2[3]==0) {Cantidad_Sensores=6;}   //Frontal 
 687              		.loc 1 172 0 is_stmt 1
 688 0094 012B     		cmp	r3, #1
 689 0096 0BD1     		bne	.L48
 172:main.c        ****         else if(mailbox2[1]==1&&mailbox2[2]==1&&mailbox2[3]==0) {Cantidad_Sensores=6;}   //Frontal 
 690              		.loc 1 172 0 is_stmt 0 discriminator 1
 691 0098 154A     		ldr	r2, .L51
 692 009a 9278     		ldrb	r2, [r2, #2]
 693 009c 002A     		cmp	r2, #0
 694 009e 07D1     		bne	.L48
 172:main.c        ****         else if(mailbox2[1]==1&&mailbox2[2]==1&&mailbox2[3]==0) {Cantidad_Sensores=6;}   //Frontal 
ARM GAS  C:\Users\HENRYA~1\AppData\Local\Temp\cchlxp14.s 			page 21


 695              		.loc 1 172 0 discriminator 2
 696 00a0 134A     		ldr	r2, .L51
 697 00a2 D278     		ldrb	r2, [r2, #3]
 698 00a4 012A     		cmp	r2, #1
 699 00a6 03D1     		bne	.L48
 172:main.c        ****         else if(mailbox2[1]==1&&mailbox2[2]==1&&mailbox2[3]==0) {Cantidad_Sensores=6;}   //Frontal 
 700              		.loc 1 172 0 discriminator 3
 701 00a8 0432     		adds	r2, r2, #4
 702 00aa 124B     		ldr	r3, .L51+4
 703 00ac 9A60     		str	r2, [r3, #8]
 704 00ae 1EE0     		b	.L41
 705              	.L48:
 173:main.c        ****         else if(mailbox2[1]==1&&mailbox2[2]==1&&mailbox2[3]==1) {Cantidad_Sensores=7;}   //Todos
 706              		.loc 1 173 0 is_stmt 1
 707 00b0 012B     		cmp	r3, #1
 708 00b2 0BD1     		bne	.L49
 173:main.c        ****         else if(mailbox2[1]==1&&mailbox2[2]==1&&mailbox2[3]==1) {Cantidad_Sensores=7;}   //Todos
 709              		.loc 1 173 0 is_stmt 0 discriminator 1
 710 00b4 0E4A     		ldr	r2, .L51
 711 00b6 9278     		ldrb	r2, [r2, #2]
 712 00b8 012A     		cmp	r2, #1
 713 00ba 07D1     		bne	.L49
 173:main.c        ****         else if(mailbox2[1]==1&&mailbox2[2]==1&&mailbox2[3]==1) {Cantidad_Sensores=7;}   //Todos
 714              		.loc 1 173 0 discriminator 2
 715 00bc 0C4A     		ldr	r2, .L51
 716 00be D278     		ldrb	r2, [r2, #3]
 717 00c0 002A     		cmp	r2, #0
 718 00c2 03D1     		bne	.L49
 173:main.c        ****         else if(mailbox2[1]==1&&mailbox2[2]==1&&mailbox2[3]==1) {Cantidad_Sensores=7;}   //Todos
 719              		.loc 1 173 0 discriminator 3
 720 00c4 0632     		adds	r2, r2, #6
 721 00c6 0B4B     		ldr	r3, .L51+4
 722 00c8 9A60     		str	r2, [r3, #8]
 723 00ca 10E0     		b	.L41
 724              	.L49:
 174:main.c        ****         else                                                    {Cantidad_Sensores=0;}   //Normal
 725              		.loc 1 174 0 is_stmt 1
 726 00cc 012B     		cmp	r3, #1
 727 00ce 0BD1     		bne	.L50
 174:main.c        ****         else                                                    {Cantidad_Sensores=0;}   //Normal
 728              		.loc 1 174 0 is_stmt 0 discriminator 1
 729 00d0 074B     		ldr	r3, .L51
 730 00d2 9B78     		ldrb	r3, [r3, #2]
 731 00d4 012B     		cmp	r3, #1
 732 00d6 07D1     		bne	.L50
 174:main.c        ****         else                                                    {Cantidad_Sensores=0;}   //Normal
 733              		.loc 1 174 0 discriminator 2
 734 00d8 054B     		ldr	r3, .L51
 735 00da DB78     		ldrb	r3, [r3, #3]
 736 00dc 012B     		cmp	r3, #1
 737 00de 03D1     		bne	.L50
 174:main.c        ****         else                                                    {Cantidad_Sensores=0;}   //Normal
 738              		.loc 1 174 0 discriminator 3
 739 00e0 0722     		movs	r2, #7
 740 00e2 044B     		ldr	r3, .L51+4
 741 00e4 9A60     		str	r2, [r3, #8]
 742 00e6 02E0     		b	.L41
ARM GAS  C:\Users\HENRYA~1\AppData\Local\Temp\cchlxp14.s 			page 22


 743              	.L50:
 175:main.c        ****     }
 744              		.loc 1 175 0 is_stmt 1
 745 00e8 0022     		movs	r2, #0
 746 00ea 024B     		ldr	r3, .L51+4
 747 00ec 9A60     		str	r2, [r3, #8]
 748              	.L41:
 177:main.c        **** 
 749              		.loc 1 177 0
 750              		@ sp needed
 751 00ee 7047     		bx	lr
 752              	.L52:
 753              		.align	2
 754              	.L51:
 755 00f0 00000000 		.word	mailbox2
 756 00f4 00000000 		.word	.LANCHOR0
 757              		.cfi_endproc
 758              	.LFE45:
 759              		.size	Recibe_Mail_2, .-Recibe_Mail_2
 760              		.section	.text.interrutcan,"ax",%progbits
 761              		.align	2
 762              		.global	interrutcan
 763              		.code	16
 764              		.thumb_func
 765              		.type	interrutcan, %function
 766              	interrutcan:
 767              	.LFB46:
 179:main.c        ****     CAN_GlobalIntDisable();
 768              		.loc 1 179 0
 769              		.cfi_startproc
 770              		@ args = 0, pretend = 0, frame = 0
 771              		@ frame_needed = 0, uses_anonymous_args = 0
 772 0000 10B5     		push	{r4, lr}
 773              		.cfi_def_cfa_offset 8
 774              		.cfi_offset 4, -8
 775              		.cfi_offset 14, -4
 180:main.c        ****     CAN_MsgRXIsr();  
 776              		.loc 1 180 0
 777 0002 FFF7FEFF 		bl	CAN_GlobalIntDisable
 778              	.LVL71:
 181:main.c        ****     Recibe_mail_0();
 779              		.loc 1 181 0
 780 0006 FFF7FEFF 		bl	CAN_MsgRXIsr
 781              	.LVL72:
 182:main.c        ****     Recibe_Mail_2();
 782              		.loc 1 182 0
 783 000a FFF7FEFF 		bl	Recibe_mail_0
 784              	.LVL73:
 183:main.c        ****     CAN_GlobalIntEnable();
 785              		.loc 1 183 0
 786 000e FFF7FEFF 		bl	Recibe_Mail_2
 787              	.LVL74:
 184:main.c        **** }
 788              		.loc 1 184 0
 789 0012 FFF7FEFF 		bl	CAN_GlobalIntEnable
 790              	.LVL75:
 185:main.c        **** 
ARM GAS  C:\Users\HENRYA~1\AppData\Local\Temp\cchlxp14.s 			page 23


 791              		.loc 1 185 0
 792              		@ sp needed
 793 0016 10BD     		pop	{r4, pc}
 794              		.cfi_endproc
 795              	.LFE46:
 796              		.size	interrutcan, .-interrutcan
 797              		.global	__aeabi_i2f
 798              		.global	__aeabi_fdiv
 799              		.section	.text.Medir_dist,"ax",%progbits
 800              		.align	2
 801              		.global	Medir_dist
 802              		.code	16
 803              		.thumb_func
 804              		.type	Medir_dist, %function
 805              	Medir_dist:
 806              	.LFB47:
 187:main.c        ****     CAN_isr_Stop();
 807              		.loc 1 187 0
 808              		.cfi_startproc
 809              		@ args = 0, pretend = 0, frame = 0
 810              		@ frame_needed = 0, uses_anonymous_args = 0
 811 0000 70B5     		push	{r4, r5, r6, lr}
 812              		.cfi_def_cfa_offset 16
 813              		.cfi_offset 4, -16
 814              		.cfi_offset 5, -12
 815              		.cfi_offset 6, -8
 816              		.cfi_offset 14, -4
 188:main.c        ****     int i=0;
 817              		.loc 1 188 0
 818 0002 FFF7FEFF 		bl	CAN_isr_Stop
 819              	.LVL76:
 191:main.c        ****     CyDelay(50);
 820              		.loc 1 191 0
 821 0006 174C     		ldr	r4, .L57
 822 0008 0025     		movs	r5, #0
 823 000a 2123     		movs	r3, #33
 824 000c 221C     		adds	r2, r4, #0
 825 000e 291C     		adds	r1, r5, #0
 826 0010 281C     		adds	r0, r5, #0
 827 0012 FFF7FEFF 		bl	Enviar_Parametros
 828              	.LVL77:
 192:main.c        ****     Enviar_Parametros(0.0,0.0,0.833,V);
 829              		.loc 1 192 0
 830 0016 3220     		movs	r0, #50
 831 0018 FFF7FEFF 		bl	CyDelay
 832              	.LVL78:
 193:main.c        ****     for(i=1;i<10;i++){
 833              		.loc 1 193 0
 834 001c 2123     		movs	r3, #33
 835 001e 221C     		adds	r2, r4, #0
 836 0020 291C     		adds	r1, r5, #0
 837 0022 281C     		adds	r0, r5, #0
 838 0024 FFF7FEFF 		bl	Enviar_Parametros
 839              	.LVL79:
 194:main.c        ****         longitud=dist+longitud;
 840              		.loc 1 194 0
 841 0028 0124     		movs	r4, #1
ARM GAS  C:\Users\HENRYA~1\AppData\Local\Temp\cchlxp14.s 			page 24


 842 002a 0DE0     		b	.L55
 843              	.LVL80:
 844              	.L56:
 195:main.c        ****         CyDelay(1000);
 845              		.loc 1 195 0 discriminator 3
 846 002c 0E4B     		ldr	r3, .L57+4
 847 002e 1878     		ldrb	r0, [r3]
 848 0030 FFF7FEFF 		bl	__aeabi_i2f
 849              	.LVL81:
 850 0034 011C     		adds	r1, r0, #0
 851 0036 281C     		adds	r0, r5, #0
 852 0038 FFF7FEFF 		bl	__aeabi_fadd
 853              	.LVL82:
 854 003c 051C     		adds	r5, r0, #0
 855              	.LVL83:
 196:main.c        ****     } 
 856              		.loc 1 196 0 discriminator 3
 857 003e FA20     		movs	r0, #250
 858              	.LVL84:
 859 0040 8000     		lsls	r0, r0, #2
 860 0042 FFF7FEFF 		bl	CyDelay
 861              	.LVL85:
 194:main.c        ****         longitud=dist+longitud;
 862              		.loc 1 194 0 discriminator 3
 863 0046 0134     		adds	r4, r4, #1
 864              	.LVL86:
 865              	.L55:
 194:main.c        ****         longitud=dist+longitud;
 866              		.loc 1 194 0 is_stmt 0 discriminator 1
 867 0048 092C     		cmp	r4, #9
 868 004a EFDD     		ble	.L56
 198:main.c        ****     CAN_isr_StartEx(interrutcan);
 869              		.loc 1 198 0 is_stmt 1
 870 004c 0749     		ldr	r1, .L57+8
 871 004e 281C     		adds	r0, r5, #0
 872 0050 FFF7FEFF 		bl	__aeabi_fdiv
 873              	.LVL87:
 874 0054 041C     		adds	r4, r0, #0
 875              	.LVL88:
 199:main.c        ****     return longitud;
 876              		.loc 1 199 0
 877 0056 0648     		ldr	r0, .L57+12
 878              	.LVL89:
 879 0058 FFF7FEFF 		bl	CAN_isr_StartEx
 880              	.LVL90:
 200:main.c        **** }
 881              		.loc 1 200 0
 882 005c 201C     		adds	r0, r4, #0
 883 005e FFF7FEFF 		bl	__aeabi_f2d
 884              	.LVL91:
 201:main.c        **** 
 885              		.loc 1 201 0
 886              		@ sp needed
 887              	.LVL92:
 888 0062 70BD     		pop	{r4, r5, r6, pc}
 889              	.L58:
 890              		.align	2
ARM GAS  C:\Users\HENRYA~1\AppData\Local\Temp\cchlxp14.s 			page 25


 891              	.L57:
 892 0064 7D3F553F 		.word	1062551421
 893 0068 00000000 		.word	.LANCHOR0
 894 006c 00002041 		.word	1092616192
 895 0070 00000000 		.word	interrutcan
 896              		.cfi_endproc
 897              	.LFE47:
 898              		.size	Medir_dist, .-Medir_dist
 899              		.section	.text.Hill,"ax",%progbits
 900              		.align	2
 901              		.global	Hill
 902              		.code	16
 903              		.thumb_func
 904              		.type	Hill, %function
 905              	Hill:
 906              	.LFB48:
 203:main.c        ****     if(flag==1){L_actual=Medir_dist();Max_Conta=50;}
 907              		.loc 1 203 0
 908              		.cfi_startproc
 909              		@ args = 0, pretend = 0, frame = 0
 910              		@ frame_needed = 0, uses_anonymous_args = 0
 911 0000 10B5     		push	{r4, lr}
 912              		.cfi_def_cfa_offset 8
 913              		.cfi_offset 4, -8
 914              		.cfi_offset 14, -4
 204:main.c        ****     else if(flag==3){
 915              		.loc 1 204 0
 916 0002 1C4B     		ldr	r3, .L64
 917 0004 DB68     		ldr	r3, [r3, #12]
 918 0006 012B     		cmp	r3, #1
 919 0008 09D1     		bne	.L60
 204:main.c        ****     else if(flag==3){
 920              		.loc 1 204 0 is_stmt 0 discriminator 1
 921 000a FFF7FEFF 		bl	Medir_dist
 922              	.LVL93:
 923 000e FFF7FEFF 		bl	__aeabi_d2f
 924              	.LVL94:
 925 0012 184B     		ldr	r3, .L64
 926 0014 1861     		str	r0, [r3, #16]
 927 0016 3222     		movs	r2, #50
 928 0018 174B     		ldr	r3, .L64+4
 929 001a DA60     		str	r2, [r3, #12]
 930 001c 29E0     		b	.L59
 931              	.L60:
 205:main.c        ****         if(L_actual<(L_anterior+5)){}
 932              		.loc 1 205 0 is_stmt 1
 933 001e 032B     		cmp	r3, #3
 934 0020 22D1     		bne	.L62
 206:main.c        ****         else{
 935              		.loc 1 206 0
 936 0022 144C     		ldr	r4, .L64
 937 0024 1549     		ldr	r1, .L64+8
 938 0026 6069     		ldr	r0, [r4, #20]
 939 0028 FFF7FEFF 		bl	__aeabi_fadd
 940              	.LVL95:
 941 002c 2169     		ldr	r1, [r4, #16]
 942 002e FFF7FEFF 		bl	__aeabi_fcmpgt
ARM GAS  C:\Users\HENRYA~1\AppData\Local\Temp\cchlxp14.s 			page 26


 943              	.LVL96:
 944 0032 0028     		cmp	r0, #0
 945 0034 0FD1     		bne	.L63
 208:main.c        ****             fase=random_Fase();
 946              		.loc 1 208 0
 947 0036 FFF7FEFF 		bl	random_amplitud
 948              	.LVL97:
 949 003a 0F4C     		ldr	r4, .L64+4
 950 003c FFF7FEFF 		bl	__aeabi_d2f
 951              	.LVL98:
 952 0040 A060     		str	r0, [r4, #8]
 209:main.c        ****             offset=random_Offset();
 953              		.loc 1 209 0
 954 0042 FFF7FEFF 		bl	random_Fase
 955              	.LVL99:
 956 0046 FFF7FEFF 		bl	__aeabi_d2f
 957              	.LVL100:
 958 004a 6060     		str	r0, [r4, #4]
 210:main.c        ****         }
 959              		.loc 1 210 0
 960 004c FFF7FEFF 		bl	random_Offset
 961              	.LVL101:
 962 0050 FFF7FEFF 		bl	__aeabi_d2f
 963              	.LVL102:
 964 0054 2060     		str	r0, [r4]
 965              	.L63:
 212:main.c        ****         flag=0;
 966              		.loc 1 212 0
 967 0056 074B     		ldr	r3, .L64
 968 0058 1A69     		ldr	r2, [r3, #16]
 969 005a 5A61     		str	r2, [r3, #20]
 213:main.c        ****         Max_Conta=100;
 970              		.loc 1 213 0
 971 005c 0022     		movs	r2, #0
 972 005e DA60     		str	r2, [r3, #12]
 214:main.c        ****     }
 973              		.loc 1 214 0
 974 0060 6432     		adds	r2, r2, #100
 975 0062 054B     		ldr	r3, .L64+4
 976 0064 DA60     		str	r2, [r3, #12]
 977 0066 04E0     		b	.L59
 978              	.L62:
 216:main.c        **** }
 979              		.loc 1 216 0
 980 0068 032B     		cmp	r3, #3
 981 006a 02DD     		ble	.L59
 216:main.c        **** }
 982              		.loc 1 216 0 is_stmt 0 discriminator 1
 983 006c 0022     		movs	r2, #0
 984 006e 014B     		ldr	r3, .L64
 985 0070 DA60     		str	r2, [r3, #12]
 986              	.L59:
 217:main.c        **** 
 987              		.loc 1 217 0 is_stmt 1
 988              		@ sp needed
 989 0072 10BD     		pop	{r4, pc}
 990              	.L65:
ARM GAS  C:\Users\HENRYA~1\AppData\Local\Temp\cchlxp14.s 			page 27


 991              		.align	2
 992              	.L64:
 993 0074 00000000 		.word	.LANCHOR0
 994 0078 00000000 		.word	.LANCHOR1
 995 007c 0000A040 		.word	1084227584
 996              		.cfi_endproc
 997              	.LFE48:
 998              		.size	Hill, .-Hill
 999              		.section	.text.Left_Move,"ax",%progbits
 1000              		.align	2
 1001              		.global	Left_Move
 1002              		.code	16
 1003              		.thumb_func
 1004              		.type	Left_Move, %function
 1005              	Left_Move:
 1006              	.LFB49:
 219:main.c        ****     Send_Angle(0,200);
 1007              		.loc 1 219 0
 1008              		.cfi_startproc
 1009              		@ args = 0, pretend = 0, frame = 0
 1010              		@ frame_needed = 0, uses_anonymous_args = 0
 1011 0000 70B5     		push	{r4, r5, r6, lr}
 1012              		.cfi_def_cfa_offset 16
 1013              		.cfi_offset 4, -16
 1014              		.cfi_offset 5, -12
 1015              		.cfi_offset 6, -8
 1016              		.cfi_offset 14, -4
 220:main.c        ****     int  i=0;
 1017              		.loc 1 220 0
 1018 0002 C821     		movs	r1, #200
 1019 0004 0020     		movs	r0, #0
 1020 0006 FFF7FEFF 		bl	Send_Angle
 1021              	.LVL103:
 223:main.c        ****         movimiento(i,512);
 1022              		.loc 1 223 0
 1023 000a 0024     		movs	r4, #0
 1024 000c 05E0     		b	.L67
 1025              	.LVL104:
 1026              	.L68:
 224:main.c        ****         }
 1027              		.loc 1 224 0 discriminator 3
 1028 000e 8021     		movs	r1, #128
 1029 0010 8900     		lsls	r1, r1, #2
 1030 0012 2000     		movs	r0, r4
 1031 0014 FFF7FEFF 		bl	movimiento
 1032              	.LVL105:
 223:main.c        ****         movimiento(i,512);
 1033              		.loc 1 223 0 discriminator 3
 1034 0018 0134     		adds	r4, r4, #1
 1035              	.LVL106:
 1036              	.L67:
 223:main.c        ****         movimiento(i,512);
 1037              		.loc 1 223 0 is_stmt 0 discriminator 1
 1038 001a 304B     		ldr	r3, .L77
 1039 001c 5B68     		ldr	r3, [r3, #4]
 1040 001e 9C42     		cmp	r4, r3
 1041 0020 F5DB     		blt	.L68
ARM GAS  C:\Users\HENRYA~1\AppData\Local\Temp\cchlxp14.s 			page 28


 226:main.c        ****     movimiento(cantidadM,675);//Ancla Trasera
 1042              		.loc 1 226 0 is_stmt 1
 1043 0022 FA24     		movs	r4, #250
 1044              	.LVL107:
 1045 0024 E400     		lsls	r4, r4, #3
 1046 0026 2000     		movs	r0, r4
 1047 0028 FFF7FEFF 		bl	CyDelay
 1048              	.LVL108:
 227:main.c        ****     CyDelay(2000);
 1049              		.loc 1 227 0
 1050 002c 2B4B     		ldr	r3, .L77
 1051 002e 5868     		ldr	r0, [r3, #4]
 1052 0030 2B49     		ldr	r1, .L77+4
 1053 0032 FFF7FEFF 		bl	movimiento
 1054              	.LVL109:
 228:main.c        ****     //Giro
 1055              		.loc 1 228 0
 1056 0036 2000     		movs	r0, r4
 1057 0038 FFF7FEFF 		bl	CyDelay
 1058              	.LVL110:
 230:main.c        ****         for(i=2;i<cantidadM;i=i+4){ 
 1059              		.loc 1 230 0
 1060 003c 0026     		movs	r6, #0
 1061 003e 35E0     		b	.L69
 1062              	.LVL111:
 1063              	.L70:
 232:main.c        ****             movimiento(i+1,750);
 1064              		.loc 1 232 0 discriminator 3
 1065 0040 2849     		ldr	r1, .L77+8
 1066 0042 2000     		movs	r0, r4
 1067 0044 FFF7FEFF 		bl	movimiento
 1068              	.LVL112:
 233:main.c        ****             }
 1069              		.loc 1 233 0 discriminator 3
 1070 0048 601C     		adds	r0, r4, #1
 1071 004a 2749     		ldr	r1, .L77+12
 1072 004c FFF7FEFF 		bl	movimiento
 1073              	.LVL113:
 231:main.c        ****             movimiento(i,650);
 1074              		.loc 1 231 0 discriminator 3
 1075 0050 0434     		adds	r4, r4, #4
 1076              	.LVL114:
 1077 0052 00E0     		b	.L73
 1078              	.LVL115:
 1079              	.L76:
 1080 0054 0224     		movs	r4, #2
 1081              	.L73:
 1082              	.LVL116:
 231:main.c        ****             movimiento(i,650);
 1083              		.loc 1 231 0 is_stmt 0 discriminator 1
 1084 0056 214B     		ldr	r3, .L77
 1085 0058 5868     		ldr	r0, [r3, #4]
 1086 005a 8442     		cmp	r4, r0
 1087 005c F0DB     		blt	.L70
 235:main.c        ****         CyDelay(2000);
 1088              		.loc 1 235 0 is_stmt 1
 1089 005e 8021     		movs	r1, #128
ARM GAS  C:\Users\HENRYA~1\AppData\Local\Temp\cchlxp14.s 			page 29


 1090 0060 8900     		lsls	r1, r1, #2
 1091 0062 FFF7FEFF 		bl	movimiento
 1092              	.LVL117:
 236:main.c        ****         movimiento(0,350);//Ancla Delantera
 1093              		.loc 1 236 0
 1094 0066 FA24     		movs	r4, #250
 1095              	.LVL118:
 1096 0068 E400     		lsls	r4, r4, #3
 1097 006a 2000     		movs	r0, r4
 1098 006c FFF7FEFF 		bl	CyDelay
 1099              	.LVL119:
 237:main.c        ****         CyDelay(2000);
 1100              		.loc 1 237 0
 1101 0070 AF21     		movs	r1, #175
 1102 0072 4900     		lsls	r1, r1, #1
 1103 0074 0020     		movs	r0, #0
 1104 0076 FFF7FEFF 		bl	movimiento
 1105              	.LVL120:
 238:main.c        ****         for(i=2;i<cantidadM;i=i+4){ //Alineación
 1106              		.loc 1 238 0
 1107 007a 2000     		movs	r0, r4
 1108 007c FFF7FEFF 		bl	CyDelay
 1109              	.LVL121:
 239:main.c        ****             movimiento(i,512);
 1110              		.loc 1 239 0
 1111 0080 0224     		movs	r4, #2
 1112 0082 0AE0     		b	.L71
 1113              	.LVL122:
 1114              	.L72:
 240:main.c        ****             movimiento(i+1,512);
 1115              		.loc 1 240 0 discriminator 3
 1116 0084 8025     		movs	r5, #128
 1117 0086 AD00     		lsls	r5, r5, #2
 1118 0088 2900     		movs	r1, r5
 1119 008a 2000     		movs	r0, r4
 1120 008c FFF7FEFF 		bl	movimiento
 1121              	.LVL123:
 241:main.c        ****         }    
 1122              		.loc 1 241 0 discriminator 3
 1123 0090 601C     		adds	r0, r4, #1
 1124 0092 2900     		movs	r1, r5
 1125 0094 FFF7FEFF 		bl	movimiento
 1126              	.LVL124:
 239:main.c        ****             movimiento(i,512);
 1127              		.loc 1 239 0 discriminator 3
 1128 0098 0434     		adds	r4, r4, #4
 1129              	.LVL125:
 1130              	.L71:
 239:main.c        ****             movimiento(i,512);
 1131              		.loc 1 239 0 is_stmt 0 discriminator 1
 1132 009a 104B     		ldr	r3, .L77
 1133 009c 5B68     		ldr	r3, [r3, #4]
 1134 009e 9C42     		cmp	r4, r3
 1135 00a0 F0DB     		blt	.L72
 243:main.c        ****     }         
 1136              		.loc 1 243 0 is_stmt 1 discriminator 2
 1137 00a2 FA20     		movs	r0, #250
ARM GAS  C:\Users\HENRYA~1\AppData\Local\Temp\cchlxp14.s 			page 30


 1138 00a4 C000     		lsls	r0, r0, #3
 1139 00a6 FFF7FEFF 		bl	CyDelay
 1140              	.LVL126:
 230:main.c        ****         for(i=2;i<cantidadM;i=i+4){ 
 1141              		.loc 1 230 0 discriminator 2
 1142 00aa 0136     		adds	r6, r6, #1
 1143              	.LVL127:
 1144              	.L69:
 230:main.c        ****         for(i=2;i<cantidadM;i=i+4){ 
 1145              		.loc 1 230 0 is_stmt 0 discriminator 1
 1146 00ac 002E     		cmp	r6, #0
 1147 00ae D1DD     		ble	.L76
 1148 00b0 0024     		movs	r4, #0
 1149 00b2 05E0     		b	.L74
 1150              	.LVL128:
 1151              	.L75:
 246:main.c        ****         }
 1152              		.loc 1 246 0 is_stmt 1 discriminator 3
 1153 00b4 8021     		movs	r1, #128
 1154 00b6 8900     		lsls	r1, r1, #2
 1155 00b8 2000     		movs	r0, r4
 1156 00ba FFF7FEFF 		bl	movimiento
 1157              	.LVL129:
 245:main.c        ****         movimiento(i,512);
 1158              		.loc 1 245 0 discriminator 3
 1159 00be 0134     		adds	r4, r4, #1
 1160              	.LVL130:
 1161              	.L74:
 245:main.c        ****         movimiento(i,512);
 1162              		.loc 1 245 0 is_stmt 0 discriminator 1
 1163 00c0 064B     		ldr	r3, .L77
 1164 00c2 5B68     		ldr	r3, [r3, #4]
 1165 00c4 9C42     		cmp	r4, r3
 1166 00c6 F5DB     		blt	.L75
 248:main.c        ****     Send_Angle(0,0);
 1167              		.loc 1 248 0 is_stmt 1
 1168 00c8 FA20     		movs	r0, #250
 1169 00ca C000     		lsls	r0, r0, #3
 1170 00cc FFF7FEFF 		bl	CyDelay
 1171              	.LVL131:
 249:main.c        **** }
 1172              		.loc 1 249 0
 1173 00d0 0021     		movs	r1, #0
 1174 00d2 0020     		movs	r0, #0
 1175 00d4 FFF7FEFF 		bl	Send_Angle
 1176              	.LVL132:
 250:main.c        **** 
 1177              		.loc 1 250 0
 1178              		@ sp needed
 1179              	.LVL133:
 1180              	.LVL134:
 1181 00d8 70BD     		pop	{r4, r5, r6, pc}
 1182              	.L78:
 1183 00da C046     		.align	2
 1184              	.L77:
 1185 00dc 00000000 		.word	.LANCHOR0
 1186 00e0 A3020000 		.word	675
ARM GAS  C:\Users\HENRYA~1\AppData\Local\Temp\cchlxp14.s 			page 31


 1187 00e4 8A020000 		.word	650
 1188 00e8 EE020000 		.word	750
 1189              		.cfi_endproc
 1190              	.LFE49:
 1191              		.size	Left_Move, .-Left_Move
 1192              		.section	.text.Right_Move,"ax",%progbits
 1193              		.align	2
 1194              		.global	Right_Move
 1195              		.code	16
 1196              		.thumb_func
 1197              		.type	Right_Move, %function
 1198              	Right_Move:
 1199              	.LFB50:
 252:main.c        ****     Send_Angle(0,200);
 1200              		.loc 1 252 0
 1201              		.cfi_startproc
 1202              		@ args = 0, pretend = 0, frame = 0
 1203              		@ frame_needed = 0, uses_anonymous_args = 0
 1204 0000 70B5     		push	{r4, r5, r6, lr}
 1205              		.cfi_def_cfa_offset 16
 1206              		.cfi_offset 4, -16
 1207              		.cfi_offset 5, -12
 1208              		.cfi_offset 6, -8
 1209              		.cfi_offset 14, -4
 253:main.c        ****     int  i=0;
 1210              		.loc 1 253 0
 1211 0002 C821     		movs	r1, #200
 1212 0004 0020     		movs	r0, #0
 1213 0006 FFF7FEFF 		bl	Send_Angle
 1214              	.LVL135:
 256:main.c        ****         movimiento(i,512);
 1215              		.loc 1 256 0
 1216 000a 0024     		movs	r4, #0
 1217 000c 05E0     		b	.L80
 1218              	.LVL136:
 1219              	.L81:
 257:main.c        ****         }
 1220              		.loc 1 257 0 discriminator 3
 1221 000e 8021     		movs	r1, #128
 1222 0010 8900     		lsls	r1, r1, #2
 1223 0012 2000     		movs	r0, r4
 1224 0014 FFF7FEFF 		bl	movimiento
 1225              	.LVL137:
 256:main.c        ****         movimiento(i,512);
 1226              		.loc 1 256 0 discriminator 3
 1227 0018 0134     		adds	r4, r4, #1
 1228              	.LVL138:
 1229              	.L80:
 256:main.c        ****         movimiento(i,512);
 1230              		.loc 1 256 0 is_stmt 0 discriminator 1
 1231 001a 314B     		ldr	r3, .L90
 1232 001c 5B68     		ldr	r3, [r3, #4]
 1233 001e 9C42     		cmp	r4, r3
 1234 0020 F5DB     		blt	.L81
 259:main.c        ****     movimiento(cantidadM,675);//Ancla Trasera
 1235              		.loc 1 259 0 is_stmt 1
 1236 0022 FA24     		movs	r4, #250
ARM GAS  C:\Users\HENRYA~1\AppData\Local\Temp\cchlxp14.s 			page 32


 1237              	.LVL139:
 1238 0024 E400     		lsls	r4, r4, #3
 1239 0026 2000     		movs	r0, r4
 1240 0028 FFF7FEFF 		bl	CyDelay
 1241              	.LVL140:
 260:main.c        ****     CyDelay(2000);
 1242              		.loc 1 260 0
 1243 002c 2C4B     		ldr	r3, .L90
 1244 002e 5868     		ldr	r0, [r3, #4]
 1245 0030 2C49     		ldr	r1, .L90+4
 1246 0032 FFF7FEFF 		bl	movimiento
 1247              	.LVL141:
 261:main.c        ****     //Giro
 1248              		.loc 1 261 0
 1249 0036 2000     		movs	r0, r4
 1250 0038 FFF7FEFF 		bl	CyDelay
 1251              	.LVL142:
 263:main.c        ****         for(i=2;i<cantidadM;i=i+4){ 
 1252              		.loc 1 263 0
 1253 003c 0026     		movs	r6, #0
 1254 003e 37E0     		b	.L82
 1255              	.LVL143:
 1256              	.L83:
 265:main.c        ****             movimiento(i+1,274);
 1257              		.loc 1 265 0 discriminator 3
 1258 0040 BB21     		movs	r1, #187
 1259 0042 4900     		lsls	r1, r1, #1
 1260 0044 2000     		movs	r0, r4
 1261 0046 FFF7FEFF 		bl	movimiento
 1262              	.LVL144:
 266:main.c        ****             }
 1263              		.loc 1 266 0 discriminator 3
 1264 004a 601C     		adds	r0, r4, #1
 1265 004c 8921     		movs	r1, #137
 1266 004e 4900     		lsls	r1, r1, #1
 1267 0050 FFF7FEFF 		bl	movimiento
 1268              	.LVL145:
 264:main.c        ****             movimiento(i,374);
 1269              		.loc 1 264 0 discriminator 3
 1270 0054 0434     		adds	r4, r4, #4
 1271              	.LVL146:
 1272 0056 00E0     		b	.L86
 1273              	.LVL147:
 1274              	.L89:
 1275 0058 0224     		movs	r4, #2
 1276              	.L86:
 1277              	.LVL148:
 264:main.c        ****             movimiento(i,374);
 1278              		.loc 1 264 0 is_stmt 0 discriminator 1
 1279 005a 214B     		ldr	r3, .L90
 1280 005c 5868     		ldr	r0, [r3, #4]
 1281 005e 8442     		cmp	r4, r0
 1282 0060 EEDB     		blt	.L83
 268:main.c        ****         CyDelay(2000);
 1283              		.loc 1 268 0 is_stmt 1
 1284 0062 8021     		movs	r1, #128
 1285 0064 8900     		lsls	r1, r1, #2
ARM GAS  C:\Users\HENRYA~1\AppData\Local\Temp\cchlxp14.s 			page 33


 1286 0066 FFF7FEFF 		bl	movimiento
 1287              	.LVL149:
 269:main.c        ****         movimiento(0,350);//Ancla Delantera
 1288              		.loc 1 269 0
 1289 006a FA24     		movs	r4, #250
 1290              	.LVL150:
 1291 006c E400     		lsls	r4, r4, #3
 1292 006e 2000     		movs	r0, r4
 1293 0070 FFF7FEFF 		bl	CyDelay
 1294              	.LVL151:
 270:main.c        ****         CyDelay(2000);
 1295              		.loc 1 270 0
 1296 0074 AF21     		movs	r1, #175
 1297 0076 4900     		lsls	r1, r1, #1
 1298 0078 0020     		movs	r0, #0
 1299 007a FFF7FEFF 		bl	movimiento
 1300              	.LVL152:
 271:main.c        ****         for(i=2;i<cantidadM;i=i+4){ //Alineación
 1301              		.loc 1 271 0
 1302 007e 2000     		movs	r0, r4
 1303 0080 FFF7FEFF 		bl	CyDelay
 1304              	.LVL153:
 272:main.c        ****             movimiento(i,512);
 1305              		.loc 1 272 0
 1306 0084 0224     		movs	r4, #2
 1307 0086 0AE0     		b	.L84
 1308              	.LVL154:
 1309              	.L85:
 273:main.c        ****             movimiento(i+1,512);
 1310              		.loc 1 273 0 discriminator 3
 1311 0088 8025     		movs	r5, #128
 1312 008a AD00     		lsls	r5, r5, #2
 1313 008c 2900     		movs	r1, r5
 1314 008e 2000     		movs	r0, r4
 1315 0090 FFF7FEFF 		bl	movimiento
 1316              	.LVL155:
 274:main.c        ****         }    
 1317              		.loc 1 274 0 discriminator 3
 1318 0094 601C     		adds	r0, r4, #1
 1319 0096 2900     		movs	r1, r5
 1320 0098 FFF7FEFF 		bl	movimiento
 1321              	.LVL156:
 272:main.c        ****             movimiento(i,512);
 1322              		.loc 1 272 0 discriminator 3
 1323 009c 0434     		adds	r4, r4, #4
 1324              	.LVL157:
 1325              	.L84:
 272:main.c        ****             movimiento(i,512);
 1326              		.loc 1 272 0 is_stmt 0 discriminator 1
 1327 009e 104B     		ldr	r3, .L90
 1328 00a0 5B68     		ldr	r3, [r3, #4]
 1329 00a2 9C42     		cmp	r4, r3
 1330 00a4 F0DB     		blt	.L85
 276:main.c        ****     }         
 1331              		.loc 1 276 0 is_stmt 1 discriminator 2
 1332 00a6 FA20     		movs	r0, #250
 1333 00a8 C000     		lsls	r0, r0, #3
ARM GAS  C:\Users\HENRYA~1\AppData\Local\Temp\cchlxp14.s 			page 34


 1334 00aa FFF7FEFF 		bl	CyDelay
 1335              	.LVL158:
 263:main.c        ****         for(i=2;i<cantidadM;i=i+4){ 
 1336              		.loc 1 263 0 discriminator 2
 1337 00ae 0136     		adds	r6, r6, #1
 1338              	.LVL159:
 1339              	.L82:
 263:main.c        ****         for(i=2;i<cantidadM;i=i+4){ 
 1340              		.loc 1 263 0 is_stmt 0 discriminator 1
 1341 00b0 002E     		cmp	r6, #0
 1342 00b2 D1DD     		ble	.L89
 1343 00b4 0024     		movs	r4, #0
 1344 00b6 05E0     		b	.L87
 1345              	.LVL160:
 1346              	.L88:
 279:main.c        ****         }
 1347              		.loc 1 279 0 is_stmt 1 discriminator 3
 1348 00b8 8021     		movs	r1, #128
 1349 00ba 8900     		lsls	r1, r1, #2
 1350 00bc 2000     		movs	r0, r4
 1351 00be FFF7FEFF 		bl	movimiento
 1352              	.LVL161:
 278:main.c        ****         movimiento(i,512);
 1353              		.loc 1 278 0 discriminator 3
 1354 00c2 0134     		adds	r4, r4, #1
 1355              	.LVL162:
 1356              	.L87:
 278:main.c        ****         movimiento(i,512);
 1357              		.loc 1 278 0 is_stmt 0 discriminator 1
 1358 00c4 064B     		ldr	r3, .L90
 1359 00c6 5B68     		ldr	r3, [r3, #4]
 1360 00c8 9C42     		cmp	r4, r3
 1361 00ca F5DB     		blt	.L88
 281:main.c        ****     Send_Angle(0,0);
 1362              		.loc 1 281 0 is_stmt 1
 1363 00cc FA20     		movs	r0, #250
 1364 00ce C000     		lsls	r0, r0, #3
 1365 00d0 FFF7FEFF 		bl	CyDelay
 1366              	.LVL163:
 282:main.c        **** }
 1367              		.loc 1 282 0
 1368 00d4 0021     		movs	r1, #0
 1369 00d6 0020     		movs	r0, #0
 1370 00d8 FFF7FEFF 		bl	Send_Angle
 1371              	.LVL164:
 283:main.c        **** 
 1372              		.loc 1 283 0
 1373              		@ sp needed
 1374              	.LVL165:
 1375              	.LVL166:
 1376 00dc 70BD     		pop	{r4, r5, r6, pc}
 1377              	.L91:
 1378 00de C046     		.align	2
 1379              	.L90:
 1380 00e0 00000000 		.word	.LANCHOR0
 1381 00e4 A3020000 		.word	675
 1382              		.cfi_endproc
ARM GAS  C:\Users\HENRYA~1\AppData\Local\Temp\cchlxp14.s 			page 35


 1383              	.LFE50:
 1384              		.size	Right_Move, .-Right_Move
 1385              		.global	__aeabi_dcmplt
 1386              		.section	.text.Select_Move,"ax",%progbits
 1387              		.align	2
 1388              		.global	Select_Move
 1389              		.code	16
 1390              		.thumb_func
 1391              		.type	Select_Move, %function
 1392              	Select_Move:
 1393              	.LFB51:
 285:main.c        ****     Send_Angle(0,200);
 1394              		.loc 1 285 0
 1395              		.cfi_startproc
 1396              		@ args = 0, pretend = 0, frame = 8
 1397              		@ frame_needed = 0, uses_anonymous_args = 0
 1398 0000 D0B5     		push	{r4, r6, r7, lr}
 1399              		.cfi_def_cfa_offset 16
 1400              		.cfi_offset 4, -16
 1401              		.cfi_offset 6, -12
 1402              		.cfi_offset 7, -8
 1403              		.cfi_offset 14, -4
 1404 0002 82B0     		sub	sp, sp, #8
 1405              		.cfi_def_cfa_offset 24
 286:main.c        ****     int  i=0;
 1406              		.loc 1 286 0
 1407 0004 C821     		movs	r1, #200
 1408 0006 0020     		movs	r0, #0
 1409 0008 FFF7FEFF 		bl	Send_Angle
 1410              	.LVL167:
 288:main.c        ****         movimiento(i,512);
 1411              		.loc 1 288 0
 1412 000c 0024     		movs	r4, #0
 1413 000e 05E0     		b	.L93
 1414              	.LVL168:
 1415              	.L94:
 289:main.c        ****         }
 1416              		.loc 1 289 0 discriminator 3
 1417 0010 8021     		movs	r1, #128
 1418 0012 8900     		lsls	r1, r1, #2
 1419 0014 2000     		movs	r0, r4
 1420 0016 FFF7FEFF 		bl	movimiento
 1421              	.LVL169:
 288:main.c        ****         movimiento(i,512);
 1422              		.loc 1 288 0 discriminator 3
 1423 001a 0134     		adds	r4, r4, #1
 1424              	.LVL170:
 1425              	.L93:
 288:main.c        ****         movimiento(i,512);
 1426              		.loc 1 288 0 is_stmt 0 discriminator 1
 1427 001c 174B     		ldr	r3, .L100
 1428 001e 5B68     		ldr	r3, [r3, #4]
 1429 0020 9C42     		cmp	r4, r3
 1430 0022 F5DB     		blt	.L94
 291:main.c        ****     movimiento(2,650);
 1431              		.loc 1 291 0 is_stmt 1
 1432 0024 FA20     		movs	r0, #250
ARM GAS  C:\Users\HENRYA~1\AppData\Local\Temp\cchlxp14.s 			page 36


 1433 0026 C000     		lsls	r0, r0, #3
 1434 0028 FFF7FEFF 		bl	CyDelay
 1435              	.LVL171:
 292:main.c        ****     CyDelay(4000);
 1436              		.loc 1 292 0
 1437 002c 1449     		ldr	r1, .L100+4
 1438 002e 0220     		movs	r0, #2
 1439 0030 FFF7FEFF 		bl	movimiento
 1440              	.LVL172:
 293:main.c        ****     double a=Medir_dist();
 1441              		.loc 1 293 0
 1442 0034 FA24     		movs	r4, #250
 1443              	.LVL173:
 1444 0036 2401     		lsls	r4, r4, #4
 1445 0038 2000     		movs	r0, r4
 1446 003a FFF7FEFF 		bl	CyDelay
 1447              	.LVL174:
 294:main.c        ****     movimiento(2,374);
 1448              		.loc 1 294 0
 1449 003e FFF7FEFF 		bl	Medir_dist
 1450              	.LVL175:
 1451 0042 0600     		movs	r6, r0
 1452 0044 0F00     		movs	r7, r1
 1453              	.LVL176:
 295:main.c        ****     double b=Medir_dist();
 1454              		.loc 1 295 0
 1455 0046 BB21     		movs	r1, #187
 1456 0048 4900     		lsls	r1, r1, #1
 1457 004a 0220     		movs	r0, #2
 1458 004c FFF7FEFF 		bl	movimiento
 1459              	.LVL177:
 296:main.c        ****     CyDelay(4000);
 1460              		.loc 1 296 0
 1461 0050 FFF7FEFF 		bl	Medir_dist
 1462              	.LVL178:
 1463 0054 0090     		str	r0, [sp]
 1464 0056 0191     		str	r1, [sp, #4]
 1465              	.LVL179:
 297:main.c        ****     if(a<b){
 1466              		.loc 1 297 0
 1467 0058 2000     		movs	r0, r4
 1468              	.LVL180:
 1469 005a FFF7FEFF 		bl	CyDelay
 1470              	.LVL181:
 298:main.c        ****         Left_Move();    
 1471              		.loc 1 298 0
 1472 005e 009A     		ldr	r2, [sp]
 1473 0060 019B     		ldr	r3, [sp, #4]
 1474 0062 3000     		movs	r0, r6
 1475 0064 3900     		movs	r1, r7
 1476 0066 FFF7FEFF 		bl	__aeabi_dcmplt
 1477              	.LVL182:
 1478 006a 0028     		cmp	r0, #0
 1479 006c 02D0     		beq	.L99
 299:main.c        ****     }
 1480              		.loc 1 299 0
 1481 006e FFF7FEFF 		bl	Left_Move
ARM GAS  C:\Users\HENRYA~1\AppData\Local\Temp\cchlxp14.s 			page 37


 1482              	.LVL183:
 1483 0072 01E0     		b	.L92
 1484              	.L99:
 302:main.c        ****     }
 1485              		.loc 1 302 0
 1486 0074 FFF7FEFF 		bl	Right_Move
 1487              	.LVL184:
 1488              	.L92:
 304:main.c        **** 
 1489              		.loc 1 304 0
 1490 0078 02B0     		add	sp, sp, #8
 1491              	.LVL185:
 1492              		@ sp needed
 1493              	.LVL186:
 1494 007a D0BD     		pop	{r4, r6, r7, pc}
 1495              	.L101:
 1496              		.align	2
 1497              	.L100:
 1498 007c 00000000 		.word	.LANCHOR0
 1499 0080 8A020000 		.word	650
 1500              		.cfi_endproc
 1501              	.LFE51:
 1502              		.size	Select_Move, .-Select_Move
 1503              		.section	.text.Temporizador,"ax",%progbits
 1504              		.align	2
 1505              		.global	Temporizador
 1506              		.code	16
 1507              		.thumb_func
 1508              		.type	Temporizador, %function
 1509              	Temporizador:
 1510              	.LFB52:
 307:main.c        ****     conta++;
 1511              		.loc 1 307 0
 1512              		.cfi_startproc
 1513              		@ args = 0, pretend = 0, frame = 0
 1514              		@ frame_needed = 0, uses_anonymous_args = 0
 1515 0000 70B5     		push	{r4, r5, r6, lr}
 1516              		.cfi_def_cfa_offset 16
 1517              		.cfi_offset 4, -16
 1518              		.cfi_offset 5, -12
 1519              		.cfi_offset 6, -8
 1520              		.cfi_offset 14, -4
 308:main.c        ****     if(conta==Max_Conta){     
 1521              		.loc 1 308 0
 1522 0002 2C4A     		ldr	r2, .L110
 1523 0004 138B     		ldrh	r3, [r2, #24]
 1524 0006 0133     		adds	r3, r3, #1
 1525 0008 1BB2     		sxth	r3, r3
 1526 000a 1383     		strh	r3, [r2, #24]
 309:main.c        ****         LED_1_Write(1);
 1527              		.loc 1 309 0
 1528 000c 2A4A     		ldr	r2, .L110+4
 1529 000e D268     		ldr	r2, [r2, #12]
 1530 0010 9342     		cmp	r3, r2
 1531 0012 4BD1     		bne	.L103
 310:main.c        ****         if(Cantidad_Sensores==2&&dist<20){
 1532              		.loc 1 310 0
ARM GAS  C:\Users\HENRYA~1\AppData\Local\Temp\cchlxp14.s 			page 38


 1533 0014 0120     		movs	r0, #1
 1534 0016 FFF7FEFF 		bl	LED_1_Write
 1535              	.LVL187:
 311:main.c        ****             Select_Move();      
 1536              		.loc 1 311 0
 1537 001a 264B     		ldr	r3, .L110
 1538 001c 9B68     		ldr	r3, [r3, #8]
 1539 001e 022B     		cmp	r3, #2
 1540 0020 06D1     		bne	.L104
 311:main.c        ****             Select_Move();      
 1541              		.loc 1 311 0 is_stmt 0 discriminator 1
 1542 0022 244A     		ldr	r2, .L110
 1543 0024 1278     		ldrb	r2, [r2]
 1544 0026 132A     		cmp	r2, #19
 1545 0028 02D8     		bhi	.L104
 312:main.c        ****         }
 1546              		.loc 1 312 0 is_stmt 1
 1547 002a FFF7FEFF 		bl	Select_Move
 1548              	.LVL188:
 1549 002e 39E0     		b	.L105
 1550              	.L104:
 314:main.c        ****             Left_Move();
 1551              		.loc 1 314 0
 1552 0030 032B     		cmp	r3, #3
 1553 0032 02D1     		bne	.L106
 315:main.c        ****         }
 1554              		.loc 1 315 0
 1555 0034 FFF7FEFF 		bl	Left_Move
 1556              	.LVL189:
 1557 0038 34E0     		b	.L105
 1558              	.L106:
 317:main.c        ****             Right_Move();           
 1559              		.loc 1 317 0
 1560 003a 062B     		cmp	r3, #6
 1561 003c 02D1     		bne	.L107
 318:main.c        ****         }
 1562              		.loc 1 318 0
 1563 003e FFF7FEFF 		bl	Right_Move
 1564              	.LVL190:
 1565 0042 2FE0     		b	.L105
 1566              	.L107:
 320:main.c        ****             Enviar_Parametros(0.8,0.833,0.5,V); 
 1567              		.loc 1 320 0
 1568 0044 072B     		cmp	r3, #7
 1569 0046 16D1     		bne	.L108
 321:main.c        ****             CyDelay(1000);
 1570              		.loc 1 321 0
 1571 0048 FC25     		movs	r5, #252
 1572 004a AD05     		lsls	r5, r5, #22
 1573 004c 1B4C     		ldr	r4, .L110+8
 1574 004e 1A33     		adds	r3, r3, #26
 1575 0050 2A1C     		adds	r2, r5, #0
 1576 0052 211C     		adds	r1, r4, #0
 1577 0054 1A48     		ldr	r0, .L110+12
 1578 0056 FFF7FEFF 		bl	Enviar_Parametros
 1579              	.LVL191:
 322:main.c        ****             Enviar_Parametros(0.0,0.833,0.5,H);
ARM GAS  C:\Users\HENRYA~1\AppData\Local\Temp\cchlxp14.s 			page 39


 1580              		.loc 1 322 0
 1581 005a FA20     		movs	r0, #250
 1582 005c 8000     		lsls	r0, r0, #2
 1583 005e FFF7FEFF 		bl	CyDelay
 1584              	.LVL192:
 323:main.c        ****             CyDelay(15000);
 1585              		.loc 1 323 0
 1586 0062 2023     		movs	r3, #32
 1587 0064 2A1C     		adds	r2, r5, #0
 1588 0066 211C     		adds	r1, r4, #0
 1589 0068 0020     		movs	r0, #0
 1590 006a FFF7FEFF 		bl	Enviar_Parametros
 1591              	.LVL193:
 324:main.c        ****         }
 1592              		.loc 1 324 0
 1593 006e 1548     		ldr	r0, .L110+16
 1594 0070 FFF7FEFF 		bl	CyDelay
 1595              	.LVL194:
 1596 0074 16E0     		b	.L105
 1597              	.L108:
 327:main.c        ****             Hill();
 1598              		.loc 1 327 0
 1599 0076 0F4A     		ldr	r2, .L110
 1600 0078 D368     		ldr	r3, [r2, #12]
 1601 007a 0133     		adds	r3, r3, #1
 1602 007c D360     		str	r3, [r2, #12]
 328:main.c        ****             Enviar_Parametros(0.0,fase,offset,H);
 1603              		.loc 1 328 0
 1604 007e FFF7FEFF 		bl	Hill
 1605              	.LVL195:
 329:main.c        ****             CyDelay(1000);
 1606              		.loc 1 329 0
 1607 0082 0D4C     		ldr	r4, .L110+4
 1608 0084 2023     		movs	r3, #32
 1609 0086 2268     		ldr	r2, [r4]
 1610 0088 6168     		ldr	r1, [r4, #4]
 1611 008a 0020     		movs	r0, #0
 1612 008c FFF7FEFF 		bl	Enviar_Parametros
 1613              	.LVL196:
 330:main.c        ****             Enviar_Parametros(amplitud,fase,offset,V);             
 1614              		.loc 1 330 0
 1615 0090 FA20     		movs	r0, #250
 1616 0092 8000     		lsls	r0, r0, #2
 1617 0094 FFF7FEFF 		bl	CyDelay
 1618              	.LVL197:
 331:main.c        ****         }
 1619              		.loc 1 331 0
 1620 0098 2268     		ldr	r2, [r4]
 1621 009a 6168     		ldr	r1, [r4, #4]
 1622 009c A068     		ldr	r0, [r4, #8]
 1623 009e 2123     		movs	r3, #33
 1624 00a0 FFF7FEFF 		bl	Enviar_Parametros
 1625              	.LVL198:
 1626              	.L105:
 333:main.c        ****     }
 1627              		.loc 1 333 0
 1628 00a4 0022     		movs	r2, #0
ARM GAS  C:\Users\HENRYA~1\AppData\Local\Temp\cchlxp14.s 			page 40


 1629 00a6 034B     		ldr	r3, .L110
 1630 00a8 1A83     		strh	r2, [r3, #24]
 1631 00aa 02E0     		b	.L102
 1632              	.L103:
 336:main.c        ****     }  
 1633              		.loc 1 336 0
 1634 00ac 0020     		movs	r0, #0
 1635 00ae FFF7FEFF 		bl	LED_1_Write
 1636              	.LVL199:
 1637              	.L102:
 338:main.c        **** 
 1638              		.loc 1 338 0
 1639              		@ sp needed
 1640 00b2 70BD     		pop	{r4, r5, r6, pc}
 1641              	.L111:
 1642              		.align	2
 1643              	.L110:
 1644 00b4 00000000 		.word	.LANCHOR0
 1645 00b8 00000000 		.word	.LANCHOR1
 1646 00bc 7D3F553F 		.word	1062551421
 1647 00c0 CDCC4C3F 		.word	1061997773
 1648 00c4 983A0000 		.word	15000
 1649              		.cfi_endproc
 1650              	.LFE52:
 1651              		.size	Temporizador, .-Temporizador
 1652              		.section	.text.main,"ax",%progbits
 1653              		.align	2
 1654              		.global	main
 1655              		.code	16
 1656              		.thumb_func
 1657              		.type	main, %function
 1658              	main:
 1659              	.LFB54:
 343:main.c        **** 
 344:main.c        **** int main()
 345:main.c        **** {
 1660              		.loc 1 345 0
 1661              		.cfi_startproc
 1662              		@ Volatile: function does not return.
 1663              		@ args = 0, pretend = 0, frame = 0
 1664              		@ frame_needed = 0, uses_anonymous_args = 0
 1665 0000 10B5     		push	{r4, lr}
 1666              		.cfi_def_cfa_offset 8
 1667              		.cfi_offset 4, -8
 1668              		.cfi_offset 14, -4
 346:main.c        ****     //Init LED's
 347:main.c        ****     CAN_Start(); ///  start CAN
 1669              		.loc 1 347 0
 1670 0002 FFF7FEFF 		bl	CAN_Start
 1671              	.LVL200:
 348:main.c        ****     Timer_1_Start();
 1672              		.loc 1 348 0
 1673 0006 FFF7FEFF 		bl	Timer_1_Start
 1674              	.LVL201:
 349:main.c        ****     Timer_Start();
 1675              		.loc 1 349 0
 1676 000a FFF7FEFF 		bl	Timer_Start
ARM GAS  C:\Users\HENRYA~1\AppData\Local\Temp\cchlxp14.s 			page 41


 1677              	.LVL202:
 350:main.c        ****     SENSOR_U_Start();
 1678              		.loc 1 350 0
 1679 000e FFF7FEFF 		bl	SENSOR_U_Start
 1680              	.LVL203:
 351:main.c        ****     CAN_isr_StartEx(interrutcan);
 1681              		.loc 1 351 0
 1682 0012 0848     		ldr	r0, .L114
 1683 0014 FFF7FEFF 		bl	CAN_isr_StartEx
 1684              	.LVL204:
 352:main.c        ****     CAN_GlobalIntEnable();
 1685              		.loc 1 352 0
 1686 0018 FFF7FEFF 		bl	CAN_GlobalIntEnable
 1687              	.LVL205:
 353:main.c        ****     Int_Serial_StartEx(Serial_Interrupt);
 1688              		.loc 1 353 0
 1689 001c 0648     		ldr	r0, .L114+4
 1690 001e FFF7FEFF 		bl	Int_Serial_StartEx
 1691              	.LVL206:
 354:main.c        ****     Timer_StartEx(Temporizador);
 1692              		.loc 1 354 0
 1693 0022 0648     		ldr	r0, .L114+8
 1694 0024 FFF7FEFF 		bl	Timer_StartEx
 1695              	.LVL207:
 355:main.c        ****     LED_1_Write(0);
 1696              		.loc 1 355 0
 1697 0028 0020     		movs	r0, #0
 1698 002a FFF7FEFF 		bl	LED_1_Write
 1699              	.LVL208:
 356:main.c        ****     CyGlobalIntEnable;
 1700              		.loc 1 356 0
 1701              		.syntax divided
 1702              	@ 356 "main.c" 1
 1703 002e 62B6     		CPSIE   i
 1704              	@ 0 "" 2
 1705              		.thumb
 1706              		.syntax unified
 1707              	.L113:
 1708 0030 FEE7     		b	.L113
 1709              	.L115:
 1710 0032 C046     		.align	2
 1711              	.L114:
 1712 0034 00000000 		.word	interrutcan
 1713 0038 00000000 		.word	Serial_Interrupt
 1714 003c 00000000 		.word	Temporizador
 1715              		.cfi_endproc
 1716              	.LFE54:
 1717              		.size	main, .-main
 1718              		.global	L_anterior
 1719              		.global	L_actual
 1720              		.global	flag
 1721              		.global	pha_aux
 1722              		.global	off_aux
 1723              		.global	ampli_aux
 1724              		.global	fase
 1725              		.global	offset
 1726              		.global	amplitud
ARM GAS  C:\Users\HENRYA~1\AppData\Local\Temp\cchlxp14.s 			page 42


 1727              		.global	Max_Conta
 1728              		.global	Cantidad_Sensores
 1729              		.global	cantidadM
 1730              		.global	conta
 1731              		.global	dist
 1732              		.comm	dato_enviado_1,8,4
 1733              		.comm	dato_enviado,8,4
 1734              		.comm	mailbox2,8,4
 1735              		.comm	mailbox1,8,4
 1736              		.comm	mailbox0,8,4
 1737              		.data
 1738              		.align	2
 1739              		.set	.LANCHOR1,. + 0
 1740              		.type	offset, %object
 1741              		.size	offset, 4
 1742              	offset:
 1743 0000 7D3F553F 		.word	1062551421
 1744              		.type	fase, %object
 1745              		.size	fase, 4
 1746              	fase:
 1747 0004 9A99993E 		.word	1050253722
 1748              		.type	amplitud, %object
 1749              		.size	amplitud, 4
 1750              	amplitud:
 1751 0008 0000003F 		.word	1056964608
 1752              		.type	Max_Conta, %object
 1753              		.size	Max_Conta, 4
 1754              	Max_Conta:
 1755 000c 64000000 		.word	100
 1756              		.bss
 1757              		.align	2
 1758              		.set	.LANCHOR0,. + 0
 1759              		.type	dist, %object
 1760              		.size	dist, 1
 1761              	dist:
 1762 0000 00       		.space	1
 1763 0001 000000   		.space	3
 1764              		.type	cantidadM, %object
 1765              		.size	cantidadM, 4
 1766              	cantidadM:
 1767 0004 00000000 		.space	4
 1768              		.type	Cantidad_Sensores, %object
 1769              		.size	Cantidad_Sensores, 4
 1770              	Cantidad_Sensores:
 1771 0008 00000000 		.space	4
 1772              		.type	flag, %object
 1773              		.size	flag, 4
 1774              	flag:
 1775 000c 00000000 		.space	4
 1776              		.type	L_actual, %object
 1777              		.size	L_actual, 4
 1778              	L_actual:
 1779 0010 00000000 		.space	4
 1780              		.type	L_anterior, %object
 1781              		.size	L_anterior, 4
 1782              	L_anterior:
 1783 0014 00000000 		.space	4
ARM GAS  C:\Users\HENRYA~1\AppData\Local\Temp\cchlxp14.s 			page 43


 1784              		.type	conta, %object
 1785              		.size	conta, 2
 1786              	conta:
 1787 0018 0000     		.space	2
 1788 001a 0000     		.space	2
 1789              		.type	pha_aux, %object
 1790              		.size	pha_aux, 4
 1791              	pha_aux:
 1792 001c 00000000 		.space	4
 1793              		.type	off_aux, %object
 1794              		.size	off_aux, 4
 1795              	off_aux:
 1796 0020 00000000 		.space	4
 1797              		.type	ampli_aux, %object
 1798              		.size	ampli_aux, 4
 1799              	ampli_aux:
 1800 0024 00000000 		.space	4
 1801              		.text
 1802              	.Letext0:
 1803              		.file 2 "Generated_Source\\PSoC4/cytypes.h"
 1804              		.file 3 "Generated_Source\\PSoC4/SENSOR_U.h"
 1805              		.file 4 "c:\\program files (x86)\\cypress\\psoc creator\\4.1\\psoc creator\\import\\gnu\\arm\\5.4.
 1806              		.file 5 "Generated_Source\\PSoC4/CAN.h"
 1807              		.file 6 "Generated_Source\\PSoC4/CyLib.h"
 1808              		.file 7 "Generated_Source\\PSoC4/CAN_isr.h"
 1809              		.file 8 "Generated_Source\\PSoC4/LED_1.h"
 1810              		.file 9 "Generated_Source\\PSoC4/Timer_1.h"
 1811              		.file 10 "Generated_Source\\PSoC4/Timer.h"
 1812              		.file 11 "Generated_Source\\PSoC4/Int_Serial.h"