ARM GAS  C:\Users\HENRYA~1\AppData\Local\Temp\cc8jVuQX.s 			page 1


   1              		.syntax unified
   2              		.cpu cortex-m0
   3              		.fpu softvfp
   4              		.eabi_attribute 20, 1
   5              		.eabi_attribute 21, 1
   6              		.eabi_attribute 23, 3
   7              		.eabi_attribute 24, 1
   8              		.eabi_attribute 25, 1
   9              		.eabi_attribute 26, 1
  10              		.eabi_attribute 30, 1
  11              		.eabi_attribute 34, 0
  12              		.eabi_attribute 18, 4
  13              		.thumb
  14              		.syntax unified
  15              		.file	"Cm0Start.c"
  16              		.text
  17              	.Ltext0:
  18              		.cfi_sections	.debug_frame
  19              		.section	.text.IntDefaultHandler,"ax",%progbits
  20              		.align	2
  21              		.global	IntDefaultHandler
  22              		.code	16
  23              		.thumb_func
  24              		.type	IntDefaultHandler, %function
  25              	IntDefaultHandler:
  26              	.LFB1:
  27              		.file 1 "Generated_Source\\PSoC4\\Cm0Start.c"
   1:Generated_Source\PSoC4/Cm0Start.c **** /***************************************************************************//**
   2:Generated_Source\PSoC4/Cm0Start.c **** * \file Cm0Start.c
   3:Generated_Source\PSoC4/Cm0Start.c **** * \version 5.40
   4:Generated_Source\PSoC4/Cm0Start.c **** *
   5:Generated_Source\PSoC4/Cm0Start.c **** * \brief Startup code for the ARM CM0.
   6:Generated_Source\PSoC4/Cm0Start.c **** *
   7:Generated_Source\PSoC4/Cm0Start.c **** ********************************************************************************
   8:Generated_Source\PSoC4/Cm0Start.c **** * \copyright
   9:Generated_Source\PSoC4/Cm0Start.c **** * Copyright 2010-2016, Cypress Semiconductor Corporation.  All rights reserved.
  10:Generated_Source\PSoC4/Cm0Start.c **** * You may use this file only in accordance with the license, terms, conditions,
  11:Generated_Source\PSoC4/Cm0Start.c **** * disclaimers, and limitations in the end user license agreement accompanying
  12:Generated_Source\PSoC4/Cm0Start.c **** * the software package with which this file was provided.
  13:Generated_Source\PSoC4/Cm0Start.c **** *******************************************************************************/
  14:Generated_Source\PSoC4/Cm0Start.c **** 
  15:Generated_Source\PSoC4/Cm0Start.c **** #include <limits.h>
  16:Generated_Source\PSoC4/Cm0Start.c **** #include "cydevice_trm.h"
  17:Generated_Source\PSoC4/Cm0Start.c **** #include "cytypes.h"
  18:Generated_Source\PSoC4/Cm0Start.c **** #include "cyfitter_cfg.h"
  19:Generated_Source\PSoC4/Cm0Start.c **** #include "CyLib.h"
  20:Generated_Source\PSoC4/Cm0Start.c **** #include "cyfitter.h"
  21:Generated_Source\PSoC4/Cm0Start.c **** #include "cyapicallbacks.h"
  22:Generated_Source\PSoC4/Cm0Start.c **** 
  23:Generated_Source\PSoC4/Cm0Start.c **** #define CY_NUM_VECTORS              (CY_INT_IRQ_BASE + CY_NUM_INTERRUPTS)
  24:Generated_Source\PSoC4/Cm0Start.c **** 
  25:Generated_Source\PSoC4/Cm0Start.c **** #if (CY_IP_CPUSS_CM0)
  26:Generated_Source\PSoC4/Cm0Start.c ****     #define CY_CPUSS_CONFIG_VECT_IN_RAM (( uint32 ) 0x01)
  27:Generated_Source\PSoC4/Cm0Start.c **** #endif /* (CY_IP_CPUSS_CM0) */
  28:Generated_Source\PSoC4/Cm0Start.c **** 
  29:Generated_Source\PSoC4/Cm0Start.c **** 
  30:Generated_Source\PSoC4/Cm0Start.c **** #if (CY_IP_CPUSS_CM0)
ARM GAS  C:\Users\HENRYA~1\AppData\Local\Temp\cc8jVuQX.s 			page 2


  31:Generated_Source\PSoC4/Cm0Start.c ****     /* CPUSS Configuration register */
  32:Generated_Source\PSoC4/Cm0Start.c ****     #define CY_CPUSS_CONFIG_REG         (*(reg32 *) CYREG_CPUSS_CONFIG)
  33:Generated_Source\PSoC4/Cm0Start.c ****     #define CY_CPUSS_CONFIG_PTR         ( (reg32 *) CYREG_CPUSS_CONFIG)
  34:Generated_Source\PSoC4/Cm0Start.c **** #endif /* (CY_IP_CPUSS_CM0) */
  35:Generated_Source\PSoC4/Cm0Start.c **** 
  36:Generated_Source\PSoC4/Cm0Start.c **** 
  37:Generated_Source\PSoC4/Cm0Start.c **** #if defined (__ICCARM__)
  38:Generated_Source\PSoC4/Cm0Start.c ****     #define CY_NUM_ROM_VECTORS      (CY_NUM_VECTORS)
  39:Generated_Source\PSoC4/Cm0Start.c **** #else
  40:Generated_Source\PSoC4/Cm0Start.c ****     #define CY_NUM_ROM_VECTORS      (4u)
  41:Generated_Source\PSoC4/Cm0Start.c **** #endif  /* defined (__ICCARM__) */
  42:Generated_Source\PSoC4/Cm0Start.c **** 
  43:Generated_Source\PSoC4/Cm0Start.c **** /* Vector table address in SRAM */
  44:Generated_Source\PSoC4/Cm0Start.c **** #define CY_CPUSS_CONFIG_VECT_ADDR_IN_RAM    (0x20000000u)
  45:Generated_Source\PSoC4/Cm0Start.c **** 
  46:Generated_Source\PSoC4/Cm0Start.c **** #ifndef CY_SYS_INITIAL_STACK_POINTER
  47:Generated_Source\PSoC4/Cm0Start.c **** 
  48:Generated_Source\PSoC4/Cm0Start.c ****     #if defined(__ARMCC_VERSION)
  49:Generated_Source\PSoC4/Cm0Start.c ****         #define CY_SYS_INITIAL_STACK_POINTER ((cyisraddress)(uint32)&Image$$ARM_LIB_STACK$$ZI$$Limi
  50:Generated_Source\PSoC4/Cm0Start.c ****     #elif defined (__GNUC__)
  51:Generated_Source\PSoC4/Cm0Start.c ****         #define CY_SYS_INITIAL_STACK_POINTER (&__cy_stack)
  52:Generated_Source\PSoC4/Cm0Start.c ****     #elif defined (__ICCARM__)
  53:Generated_Source\PSoC4/Cm0Start.c ****         #pragma language=extended
  54:Generated_Source\PSoC4/Cm0Start.c ****         #pragma segment="CSTACK"
  55:Generated_Source\PSoC4/Cm0Start.c ****         #define CY_SYS_INITIAL_STACK_POINTER  { .__ptr = __sfe( "CSTACK" ) }
  56:Generated_Source\PSoC4/Cm0Start.c **** 
  57:Generated_Source\PSoC4/Cm0Start.c ****         extern void __iar_program_start( void );
  58:Generated_Source\PSoC4/Cm0Start.c ****         extern void __iar_data_init3 (void);
  59:Generated_Source\PSoC4/Cm0Start.c ****     #endif  /* (__ARMCC_VERSION) */
  60:Generated_Source\PSoC4/Cm0Start.c **** 
  61:Generated_Source\PSoC4/Cm0Start.c **** #endif /* CY_SYS_INITIAL_STACK_POINTER */
  62:Generated_Source\PSoC4/Cm0Start.c **** 
  63:Generated_Source\PSoC4/Cm0Start.c **** 
  64:Generated_Source\PSoC4/Cm0Start.c **** #if defined(__GNUC__)
  65:Generated_Source\PSoC4/Cm0Start.c ****     #include <errno.h>
  66:Generated_Source\PSoC4/Cm0Start.c ****     extern int  errno;
  67:Generated_Source\PSoC4/Cm0Start.c ****     extern int  end;
  68:Generated_Source\PSoC4/Cm0Start.c **** #endif  /* defined(__GNUC__) */
  69:Generated_Source\PSoC4/Cm0Start.c **** 
  70:Generated_Source\PSoC4/Cm0Start.c **** /* Extern functions */
  71:Generated_Source\PSoC4/Cm0Start.c **** extern void CyBtldr_CheckLaunch(void);
  72:Generated_Source\PSoC4/Cm0Start.c **** 
  73:Generated_Source\PSoC4/Cm0Start.c **** /* Function prototypes */
  74:Generated_Source\PSoC4/Cm0Start.c **** void initialize_psoc(void);
  75:Generated_Source\PSoC4/Cm0Start.c **** 
  76:Generated_Source\PSoC4/Cm0Start.c **** /* Global variables */
  77:Generated_Source\PSoC4/Cm0Start.c **** #if !defined (__ICCARM__)
  78:Generated_Source\PSoC4/Cm0Start.c ****     CY_NOINIT static uint32 cySysNoInitDataValid;
  79:Generated_Source\PSoC4/Cm0Start.c **** #endif  /* !defined (__ICCARM__) */
  80:Generated_Source\PSoC4/Cm0Start.c **** 
  81:Generated_Source\PSoC4/Cm0Start.c **** 
  82:Generated_Source\PSoC4/Cm0Start.c **** #if (CYDEV_PROJ_TYPE != CYDEV_PROJ_TYPE_STANDARD)
  83:Generated_Source\PSoC4/Cm0Start.c **** 
  84:Generated_Source\PSoC4/Cm0Start.c ****     /*******************************************************************************
  85:Generated_Source\PSoC4/Cm0Start.c ****     This variable is used by the Bootloader/Bootloadable components to schedule
  86:Generated_Source\PSoC4/Cm0Start.c ****     what application will be started after a software reset.
  87:Generated_Source\PSoC4/Cm0Start.c ****     *******************************************************************************/
ARM GAS  C:\Users\HENRYA~1\AppData\Local\Temp\cc8jVuQX.s 			page 3


  88:Generated_Source\PSoC4/Cm0Start.c ****     #if (__ARMCC_VERSION)
  89:Generated_Source\PSoC4/Cm0Start.c ****         __attribute__ ((section(".bootloaderruntype"), zero_init))
  90:Generated_Source\PSoC4/Cm0Start.c ****     #elif defined (__GNUC__)
  91:Generated_Source\PSoC4/Cm0Start.c ****         __attribute__ ((section(".bootloaderruntype")))
  92:Generated_Source\PSoC4/Cm0Start.c ****     #elif defined (__ICCARM__)
  93:Generated_Source\PSoC4/Cm0Start.c ****         #pragma location=".bootloaderruntype"
  94:Generated_Source\PSoC4/Cm0Start.c ****     #endif /* (__ARMCC_VERSION) */
  95:Generated_Source\PSoC4/Cm0Start.c ****     volatile uint32 cyBtldrRunType;
  96:Generated_Source\PSoC4/Cm0Start.c **** 
  97:Generated_Source\PSoC4/Cm0Start.c **** #endif  /* (CYDEV_PROJ_TYPE != CYDEV_PROJ_TYPE_STANDARD) */
  98:Generated_Source\PSoC4/Cm0Start.c **** 
  99:Generated_Source\PSoC4/Cm0Start.c **** 
 100:Generated_Source\PSoC4/Cm0Start.c **** /*******************************************************************************
 101:Generated_Source\PSoC4/Cm0Start.c **** * Function Name: IntDefaultHandler
 102:Generated_Source\PSoC4/Cm0Start.c **** ****************************************************************************//**
 103:Generated_Source\PSoC4/Cm0Start.c **** *
 104:Generated_Source\PSoC4/Cm0Start.c **** *  This function is called for all interrupts, other than a reset that is called
 105:Generated_Source\PSoC4/Cm0Start.c **** *  before the system is setup.
 106:Generated_Source\PSoC4/Cm0Start.c **** *
 107:Generated_Source\PSoC4/Cm0Start.c **** *******************************************************************************/
 108:Generated_Source\PSoC4/Cm0Start.c **** CY_NORETURN
 109:Generated_Source\PSoC4/Cm0Start.c **** CY_ISR(IntDefaultHandler)
 110:Generated_Source\PSoC4/Cm0Start.c **** {
  28              		.loc 1 110 0
  29              		.cfi_startproc
  30              		@ Volatile: function does not return.
  31              		@ args = 0, pretend = 0, frame = 0
  32              		@ frame_needed = 0, uses_anonymous_args = 0
  33              		@ link register save eliminated.
  34              	.L2:
  35 0000 FEE7     		b	.L2
  36              		.cfi_endproc
  37              	.LFE1:
  38              		.size	IntDefaultHandler, .-IntDefaultHandler
  39 0002 C046     		.section	.text._exit,"ax",%progbits
  40              		.align	2
  41              		.weak	_exit
  42              		.code	16
  43              		.thumb_func
  44              		.type	_exit, %function
  45              	_exit:
  46              	.LFB2:
 111:Generated_Source\PSoC4/Cm0Start.c ****     /***************************************************************************
 112:Generated_Source\PSoC4/Cm0Start.c ****     * We must not get here. If we do, a serious problem occurs, so go into
 113:Generated_Source\PSoC4/Cm0Start.c ****     * an infinite loop.
 114:Generated_Source\PSoC4/Cm0Start.c ****     ***************************************************************************/
 115:Generated_Source\PSoC4/Cm0Start.c **** 
 116:Generated_Source\PSoC4/Cm0Start.c ****     #ifdef CY_BOOT_INT_DEFAULT_HANDLER_EXCEPTION_ENTRY_CALLBACK
 117:Generated_Source\PSoC4/Cm0Start.c ****         CyBoot_IntDefaultHandler_Exception_EntryCallback();
 118:Generated_Source\PSoC4/Cm0Start.c ****     #endif /* CY_BOOT_INT_DEFAULT_HANDLER_EXCEPTION_ENTRY_CALLBACK */
 119:Generated_Source\PSoC4/Cm0Start.c **** 
 120:Generated_Source\PSoC4/Cm0Start.c ****     while(1)
 121:Generated_Source\PSoC4/Cm0Start.c ****     {
 122:Generated_Source\PSoC4/Cm0Start.c **** 
 123:Generated_Source\PSoC4/Cm0Start.c ****     }
 124:Generated_Source\PSoC4/Cm0Start.c **** }
 125:Generated_Source\PSoC4/Cm0Start.c **** 
ARM GAS  C:\Users\HENRYA~1\AppData\Local\Temp\cc8jVuQX.s 			page 4


 126:Generated_Source\PSoC4/Cm0Start.c **** #if defined(__ARMCC_VERSION)
 127:Generated_Source\PSoC4/Cm0Start.c **** 
 128:Generated_Source\PSoC4/Cm0Start.c **** /* Local function for device reset. */
 129:Generated_Source\PSoC4/Cm0Start.c **** extern void Reset(void);
 130:Generated_Source\PSoC4/Cm0Start.c **** 
 131:Generated_Source\PSoC4/Cm0Start.c **** /* Application entry point. */
 132:Generated_Source\PSoC4/Cm0Start.c **** extern void $Super$$main(void);
 133:Generated_Source\PSoC4/Cm0Start.c **** 
 134:Generated_Source\PSoC4/Cm0Start.c **** /* Linker-generated Stack Base addresses, Two Region and One Region */
 135:Generated_Source\PSoC4/Cm0Start.c **** extern unsigned long Image$$ARM_LIB_STACK$$ZI$$Limit;
 136:Generated_Source\PSoC4/Cm0Start.c **** 
 137:Generated_Source\PSoC4/Cm0Start.c **** /* RealView C Library initialization. */
 138:Generated_Source\PSoC4/Cm0Start.c **** extern int __main(void);
 139:Generated_Source\PSoC4/Cm0Start.c **** 
 140:Generated_Source\PSoC4/Cm0Start.c **** 
 141:Generated_Source\PSoC4/Cm0Start.c **** /*******************************************************************************
 142:Generated_Source\PSoC4/Cm0Start.c **** * Function Name: Reset
 143:Generated_Source\PSoC4/Cm0Start.c **** ****************************************************************************//**
 144:Generated_Source\PSoC4/Cm0Start.c **** *
 145:Generated_Source\PSoC4/Cm0Start.c **** * This function handles the reset interrupt for the MDK toolchains.
 146:Generated_Source\PSoC4/Cm0Start.c **** * This is the first bit of code that is executed at startup.
 147:Generated_Source\PSoC4/Cm0Start.c **** *
 148:Generated_Source\PSoC4/Cm0Start.c **** *******************************************************************************/
 149:Generated_Source\PSoC4/Cm0Start.c **** void Reset(void)
 150:Generated_Source\PSoC4/Cm0Start.c **** {
 151:Generated_Source\PSoC4/Cm0Start.c ****     #if (CYDEV_PROJ_TYPE == CYDEV_PROJ_TYPE_LOADABLE || CYDEV_PROJ_TYPE == CYDEV_PROJ_TYPE_LOADABLE
 152:Generated_Source\PSoC4/Cm0Start.c ****         /* The bootloadable application image is started at Reset() handler
 153:Generated_Source\PSoC4/Cm0Start.c ****         * as a result of a branch instruction execution from the bootloader.
 154:Generated_Source\PSoC4/Cm0Start.c ****         * So, the stack pointer needs to be reset to be sure that
 155:Generated_Source\PSoC4/Cm0Start.c ****         * there is no garbage in the stack.
 156:Generated_Source\PSoC4/Cm0Start.c ****         */
 157:Generated_Source\PSoC4/Cm0Start.c ****         register uint32_t msp __asm("msp");
 158:Generated_Source\PSoC4/Cm0Start.c ****         msp = (uint32_t)&Image$$ARM_LIB_STACK$$ZI$$Limit;
 159:Generated_Source\PSoC4/Cm0Start.c ****     #endif /*(CYDEV_PROJ_TYPE == CYDEV_PROJ_TYPE_LOADABLE || CYDEV_PROJ_TYPE == CYDEV_PROJ_TYPE_LOA
 160:Generated_Source\PSoC4/Cm0Start.c **** 
 161:Generated_Source\PSoC4/Cm0Start.c ****     #if(CY_IP_SRSSLT)
 162:Generated_Source\PSoC4/Cm0Start.c ****         CySysWdtDisable();
 163:Generated_Source\PSoC4/Cm0Start.c ****     #endif  /* (CY_IP_SRSSLT) */
 164:Generated_Source\PSoC4/Cm0Start.c **** 
 165:Generated_Source\PSoC4/Cm0Start.c ****     #if ((CYDEV_BOOTLOADER_ENABLE) && (CYDEV_PROJ_TYPE != CYDEV_PROJ_TYPE_LOADABLEANDBOOTLOADER))
 166:Generated_Source\PSoC4/Cm0Start.c ****         CyBtldr_CheckLaunch();
 167:Generated_Source\PSoC4/Cm0Start.c ****     #endif /* ((CYDEV_BOOTLOADER_ENABLE) && (CYDEV_PROJ_TYPE != CYDEV_PROJ_TYPE_LOADABLEANDBOOTLOAD
 168:Generated_Source\PSoC4/Cm0Start.c **** 
 169:Generated_Source\PSoC4/Cm0Start.c ****     __main();
 170:Generated_Source\PSoC4/Cm0Start.c **** }
 171:Generated_Source\PSoC4/Cm0Start.c **** 
 172:Generated_Source\PSoC4/Cm0Start.c **** /*******************************************************************************
 173:Generated_Source\PSoC4/Cm0Start.c **** * Function Name: $Sub$$main
 174:Generated_Source\PSoC4/Cm0Start.c **** ****************************************************************************//**
 175:Generated_Source\PSoC4/Cm0Start.c **** *
 176:Generated_Source\PSoC4/Cm0Start.c **** * This function is called immediately before the users main
 177:Generated_Source\PSoC4/Cm0Start.c **** *
 178:Generated_Source\PSoC4/Cm0Start.c **** *******************************************************************************/
 179:Generated_Source\PSoC4/Cm0Start.c **** __attribute__ ((noreturn, __noinline__))
 180:Generated_Source\PSoC4/Cm0Start.c **** void $Sub$$main(void)
 181:Generated_Source\PSoC4/Cm0Start.c **** {
 182:Generated_Source\PSoC4/Cm0Start.c ****     initialize_psoc();
ARM GAS  C:\Users\HENRYA~1\AppData\Local\Temp\cc8jVuQX.s 			page 5


 183:Generated_Source\PSoC4/Cm0Start.c **** 
 184:Generated_Source\PSoC4/Cm0Start.c ****     /* Call original main */
 185:Generated_Source\PSoC4/Cm0Start.c ****     $Super$$main();
 186:Generated_Source\PSoC4/Cm0Start.c **** 
 187:Generated_Source\PSoC4/Cm0Start.c ****     while (1)
 188:Generated_Source\PSoC4/Cm0Start.c ****     {
 189:Generated_Source\PSoC4/Cm0Start.c ****         /* If main returns it is undefined what we should do. */
 190:Generated_Source\PSoC4/Cm0Start.c ****     }
 191:Generated_Source\PSoC4/Cm0Start.c **** }
 192:Generated_Source\PSoC4/Cm0Start.c **** 
 193:Generated_Source\PSoC4/Cm0Start.c **** #elif defined(__GNUC__)
 194:Generated_Source\PSoC4/Cm0Start.c **** 
 195:Generated_Source\PSoC4/Cm0Start.c **** /* Stack Base address */
 196:Generated_Source\PSoC4/Cm0Start.c **** extern void __cy_stack(void);
 197:Generated_Source\PSoC4/Cm0Start.c **** 
 198:Generated_Source\PSoC4/Cm0Start.c **** /* Application entry point. */
 199:Generated_Source\PSoC4/Cm0Start.c **** extern int main(void);
 200:Generated_Source\PSoC4/Cm0Start.c **** 
 201:Generated_Source\PSoC4/Cm0Start.c **** /* The static objects constructors initializer */
 202:Generated_Source\PSoC4/Cm0Start.c **** extern void __libc_init_array(void);
 203:Generated_Source\PSoC4/Cm0Start.c **** 
 204:Generated_Source\PSoC4/Cm0Start.c **** typedef unsigned char __cy_byte_align8 __attribute ((aligned (8)));
 205:Generated_Source\PSoC4/Cm0Start.c **** 
 206:Generated_Source\PSoC4/Cm0Start.c **** struct __cy_region
 207:Generated_Source\PSoC4/Cm0Start.c **** {
 208:Generated_Source\PSoC4/Cm0Start.c ****     __cy_byte_align8 *init; /* Initial contents of this region.  */
 209:Generated_Source\PSoC4/Cm0Start.c ****     __cy_byte_align8 *data; /* Start address of region.  */
 210:Generated_Source\PSoC4/Cm0Start.c ****     size_t init_size;       /* Size of initial data.  */
 211:Generated_Source\PSoC4/Cm0Start.c ****     size_t zero_size;       /* Additional size to be zeroed.  */
 212:Generated_Source\PSoC4/Cm0Start.c **** };
 213:Generated_Source\PSoC4/Cm0Start.c **** 
 214:Generated_Source\PSoC4/Cm0Start.c **** extern const struct __cy_region __cy_regions[];
 215:Generated_Source\PSoC4/Cm0Start.c **** extern const char __cy_region_num __attribute__((weak));
 216:Generated_Source\PSoC4/Cm0Start.c **** #define __cy_region_num ((size_t)&__cy_region_num)
 217:Generated_Source\PSoC4/Cm0Start.c **** 
 218:Generated_Source\PSoC4/Cm0Start.c **** 
 219:Generated_Source\PSoC4/Cm0Start.c **** /*******************************************************************************
 220:Generated_Source\PSoC4/Cm0Start.c **** * System Calls of the Red Hat newlib C Library
 221:Generated_Source\PSoC4/Cm0Start.c **** *******************************************************************************/
 222:Generated_Source\PSoC4/Cm0Start.c **** 
 223:Generated_Source\PSoC4/Cm0Start.c **** 
 224:Generated_Source\PSoC4/Cm0Start.c **** /*******************************************************************************
 225:Generated_Source\PSoC4/Cm0Start.c **** * Function Name: _exit
 226:Generated_Source\PSoC4/Cm0Start.c **** ****************************************************************************//**
 227:Generated_Source\PSoC4/Cm0Start.c **** *
 228:Generated_Source\PSoC4/Cm0Start.c **** * Exit a program without cleaning up files. If your system doesn't provide
 229:Generated_Source\PSoC4/Cm0Start.c **** * this, it is best to avoid linking with subroutines that require it (exit,
 230:Generated_Source\PSoC4/Cm0Start.c **** * system).
 231:Generated_Source\PSoC4/Cm0Start.c **** *
 232:Generated_Source\PSoC4/Cm0Start.c **** * \param status: Status caused program exit.
 233:Generated_Source\PSoC4/Cm0Start.c **** *
 234:Generated_Source\PSoC4/Cm0Start.c **** *******************************************************************************/
 235:Generated_Source\PSoC4/Cm0Start.c **** __attribute__((weak))
 236:Generated_Source\PSoC4/Cm0Start.c **** void _exit(int status)
 237:Generated_Source\PSoC4/Cm0Start.c **** {
  47              		.loc 1 237 0
  48              		.cfi_startproc
ARM GAS  C:\Users\HENRYA~1\AppData\Local\Temp\cc8jVuQX.s 			page 6


  49              		@ Volatile: function does not return.
  50              		@ args = 0, pretend = 0, frame = 0
  51              		@ frame_needed = 0, uses_anonymous_args = 0
  52              	.LVL0:
  53              		.loc 1 237 0
  54 0000 10B5     		push	{r4, lr}
  55              		.cfi_def_cfa_offset 8
  56              		.cfi_offset 4, -8
  57              		.cfi_offset 14, -4
 238:Generated_Source\PSoC4/Cm0Start.c ****     CyHalt((uint8) status);
  58              		.loc 1 238 0
  59 0002 C0B2     		uxtb	r0, r0
  60              	.LVL1:
  61 0004 FFF7FEFF 		bl	CyHalt
  62              	.LVL2:
  63              	.L4:
  64 0008 FEE7     		b	.L4
  65              		.cfi_endproc
  66              	.LFE2:
  67              		.size	_exit, .-_exit
  68 000a C046     		.section	.text._sbrk,"ax",%progbits
  69              		.align	2
  70              		.weak	_sbrk
  71              		.code	16
  72              		.thumb_func
  73              		.type	_sbrk, %function
  74              	_sbrk:
  75              	.LFB3:
 239:Generated_Source\PSoC4/Cm0Start.c **** 
 240:Generated_Source\PSoC4/Cm0Start.c ****     while(1)
 241:Generated_Source\PSoC4/Cm0Start.c ****     {
 242:Generated_Source\PSoC4/Cm0Start.c **** 
 243:Generated_Source\PSoC4/Cm0Start.c ****     }
 244:Generated_Source\PSoC4/Cm0Start.c **** }
 245:Generated_Source\PSoC4/Cm0Start.c **** 
 246:Generated_Source\PSoC4/Cm0Start.c **** 
 247:Generated_Source\PSoC4/Cm0Start.c **** /*******************************************************************************
 248:Generated_Source\PSoC4/Cm0Start.c **** * Function Name: _sbrk
 249:Generated_Source\PSoC4/Cm0Start.c **** ****************************************************************************//**
 250:Generated_Source\PSoC4/Cm0Start.c **** *
 251:Generated_Source\PSoC4/Cm0Start.c **** * Increase program data space. As malloc and related functions depend on this,
 252:Generated_Source\PSoC4/Cm0Start.c **** * it is useful to have a working implementation. The following suffices for a
 253:Generated_Source\PSoC4/Cm0Start.c **** * standalone system; it exploits the symbol end automatically defined by the
 254:Generated_Source\PSoC4/Cm0Start.c **** * GNU linker.
 255:Generated_Source\PSoC4/Cm0Start.c **** *
 256:Generated_Source\PSoC4/Cm0Start.c **** * \param nbytes: The number of bytes requested (if the parameter value is positive)
 257:Generated_Source\PSoC4/Cm0Start.c **** * from the heap or returned back to the heap (if the parameter value is
 258:Generated_Source\PSoC4/Cm0Start.c **** * negative).
 259:Generated_Source\PSoC4/Cm0Start.c **** *
 260:Generated_Source\PSoC4/Cm0Start.c **** *******************************************************************************/
 261:Generated_Source\PSoC4/Cm0Start.c **** __attribute__((weak))
 262:Generated_Source\PSoC4/Cm0Start.c **** void * _sbrk (int nbytes)
 263:Generated_Source\PSoC4/Cm0Start.c **** {
  76              		.loc 1 263 0
  77              		.cfi_startproc
  78              		@ args = 0, pretend = 0, frame = 0
  79              		@ frame_needed = 0, uses_anonymous_args = 0
ARM GAS  C:\Users\HENRYA~1\AppData\Local\Temp\cc8jVuQX.s 			page 7


  80              	.LVL3:
  81 0000 10B5     		push	{r4, lr}
  82              		.cfi_def_cfa_offset 8
  83              		.cfi_offset 4, -8
  84              		.cfi_offset 14, -4
  85 0002 0300     		movs	r3, r0
 264:Generated_Source\PSoC4/Cm0Start.c ****     extern int  end;            /* Symbol defined by linker map. Start of free memory (as symbol). 
 265:Generated_Source\PSoC4/Cm0Start.c ****     void *      returnValue;
 266:Generated_Source\PSoC4/Cm0Start.c **** 
 267:Generated_Source\PSoC4/Cm0Start.c ****     /* The statically held previous end of the heap, with its initialization. */
 268:Generated_Source\PSoC4/Cm0Start.c ****     static void *heapPointer = (void *) &end;                 /* Previous end */
 269:Generated_Source\PSoC4/Cm0Start.c **** 
 270:Generated_Source\PSoC4/Cm0Start.c ****     if (((heapPointer + nbytes) - (void *) &end) <= CYDEV_HEAP_SIZE)
  86              		.loc 1 270 0
  87 0004 094A     		ldr	r2, .L8
  88 0006 1068     		ldr	r0, [r2]
  89              	.LVL4:
  90 0008 C318     		adds	r3, r0, r3
  91              	.LVL5:
  92 000a 094A     		ldr	r2, .L8+4
  93 000c 9A1A     		subs	r2, r3, r2
  94 000e 8021     		movs	r1, #128
  95 0010 C900     		lsls	r1, r1, #3
  96 0012 8A42     		cmp	r2, r1
  97 0014 02DC     		bgt	.L6
  98              	.LVL6:
 271:Generated_Source\PSoC4/Cm0Start.c ****     {
 272:Generated_Source\PSoC4/Cm0Start.c ****         returnValue  = heapPointer;
 273:Generated_Source\PSoC4/Cm0Start.c ****         heapPointer += nbytes;
  99              		.loc 1 273 0
 100 0016 054A     		ldr	r2, .L8
 101 0018 1360     		str	r3, [r2]
 102 001a 05E0     		b	.L7
 103              	.LVL7:
 104              	.L6:
 274:Generated_Source\PSoC4/Cm0Start.c ****     }
 275:Generated_Source\PSoC4/Cm0Start.c ****     else
 276:Generated_Source\PSoC4/Cm0Start.c ****     {
 277:Generated_Source\PSoC4/Cm0Start.c ****         errno = ENOMEM;
 105              		.loc 1 277 0
 106 001c FFF7FEFF 		bl	__errno
 107              	.LVL8:
 108 0020 0C23     		movs	r3, #12
 109 0022 0360     		str	r3, [r0]
 110              	.LVL9:
 278:Generated_Source\PSoC4/Cm0Start.c ****         returnValue = (void *) -1;
 111              		.loc 1 278 0
 112 0024 0120     		movs	r0, #1
 113 0026 4042     		rsbs	r0, r0, #0
 114              	.LVL10:
 115              	.L7:
 279:Generated_Source\PSoC4/Cm0Start.c ****     }
 280:Generated_Source\PSoC4/Cm0Start.c **** 
 281:Generated_Source\PSoC4/Cm0Start.c ****     return (returnValue);
 282:Generated_Source\PSoC4/Cm0Start.c **** }
 116              		.loc 1 282 0
 117              		@ sp needed
ARM GAS  C:\Users\HENRYA~1\AppData\Local\Temp\cc8jVuQX.s 			page 8


 118 0028 10BD     		pop	{r4, pc}
 119              	.L9:
 120 002a C046     		.align	2
 121              	.L8:
 122 002c 00000000 		.word	.LANCHOR0
 123 0030 00000000 		.word	end
 124              		.cfi_endproc
 125              	.LFE3:
 126              		.size	_sbrk, .-_sbrk
 127              		.section	.text.Start_c,"ax",%progbits
 128              		.align	2
 129              		.global	Start_c
 130              		.code	16
 131              		.thumb_func
 132              		.type	Start_c, %function
 133              	Start_c:
 134              	.LFB4:
 283:Generated_Source\PSoC4/Cm0Start.c **** 
 284:Generated_Source\PSoC4/Cm0Start.c **** 
 285:Generated_Source\PSoC4/Cm0Start.c **** /*******************************************************************************
 286:Generated_Source\PSoC4/Cm0Start.c **** * Function Name: Start_c
 287:Generated_Source\PSoC4/Cm0Start.c **** ****************************************************************************//**
 288:Generated_Source\PSoC4/Cm0Start.c **** *
 289:Generated_Source\PSoC4/Cm0Start.c **** * This function handles initializing the .data and .bss sections in
 290:Generated_Source\PSoC4/Cm0Start.c **** * preparation for running the standard c code.  Once initialization is complete
 291:Generated_Source\PSoC4/Cm0Start.c **** * it will call main().  This function will never return.
 292:Generated_Source\PSoC4/Cm0Start.c **** *
 293:Generated_Source\PSoC4/Cm0Start.c **** *******************************************************************************/
 294:Generated_Source\PSoC4/Cm0Start.c **** void Start_c(void)  __attribute__ ((noreturn, noinline));
 295:Generated_Source\PSoC4/Cm0Start.c **** void Start_c(void)
 296:Generated_Source\PSoC4/Cm0Start.c **** {
 135              		.loc 1 296 0
 136              		.cfi_startproc
 137              		@ Volatile: function does not return.
 138              		@ args = 0, pretend = 0, frame = 0
 139              		@ frame_needed = 0, uses_anonymous_args = 0
 140 0000 70B5     		push	{r4, r5, r6, lr}
 141              		.cfi_def_cfa_offset 16
 142              		.cfi_offset 4, -16
 143              		.cfi_offset 5, -12
 144              		.cfi_offset 6, -8
 145              		.cfi_offset 14, -4
 146              	.LVL11:
 297:Generated_Source\PSoC4/Cm0Start.c ****     #ifdef CY_BOOT_START_C_CALLBACK
 298:Generated_Source\PSoC4/Cm0Start.c ****         CyBoot_Start_c_Callback();
 299:Generated_Source\PSoC4/Cm0Start.c ****     #else
 300:Generated_Source\PSoC4/Cm0Start.c ****         unsigned regions = __cy_region_num;
 301:Generated_Source\PSoC4/Cm0Start.c ****         const struct __cy_region *rptr = __cy_regions;
 302:Generated_Source\PSoC4/Cm0Start.c **** 
 303:Generated_Source\PSoC4/Cm0Start.c ****         /* Initialize memory */
 304:Generated_Source\PSoC4/Cm0Start.c ****         for (regions = __cy_region_num; regions != 0u; regions--)
 147              		.loc 1 304 0
 148 0002 0F4E     		ldr	r6, .L18
 149              	.LVL12:
 301:Generated_Source\PSoC4/Cm0Start.c **** 
 150              		.loc 1 301 0
 151 0004 0F4D     		ldr	r5, .L18+4
ARM GAS  C:\Users\HENRYA~1\AppData\Local\Temp\cc8jVuQX.s 			page 9


 152              		.loc 1 304 0
 153 0006 13E0     		b	.L11
 154              	.LVL13:
 155              	.L16:
 156              	.LBB2:
 305:Generated_Source\PSoC4/Cm0Start.c ****         {
 306:Generated_Source\PSoC4/Cm0Start.c ****             uint32 *src = (uint32 *)rptr->init;
 157              		.loc 1 306 0
 158 0008 2968     		ldr	r1, [r5]
 159              	.LVL14:
 307:Generated_Source\PSoC4/Cm0Start.c ****             uint32 *dst = (uint32 *)rptr->data;
 160              		.loc 1 307 0
 161 000a 6B68     		ldr	r3, [r5, #4]
 162              	.LVL15:
 308:Generated_Source\PSoC4/Cm0Start.c ****             unsigned limit = rptr->init_size;
 163              		.loc 1 308 0
 164 000c AC68     		ldr	r4, [r5, #8]
 165              	.LVL16:
 309:Generated_Source\PSoC4/Cm0Start.c ****             unsigned count;
 310:Generated_Source\PSoC4/Cm0Start.c **** 
 311:Generated_Source\PSoC4/Cm0Start.c ****             for (count = 0u; count != limit; count += sizeof (uint32))
 166              		.loc 1 311 0
 167 000e 0022     		movs	r2, #0
 168 0010 02E0     		b	.L12
 169              	.LVL17:
 170              	.L13:
 312:Generated_Source\PSoC4/Cm0Start.c ****             {
 313:Generated_Source\PSoC4/Cm0Start.c ****                 *dst = *src;
 171              		.loc 1 313 0 discriminator 3
 172 0012 01C9     		ldmia	r1!, {r0}
 173              	.LVL18:
 174 0014 01C3     		stmia	r3!, {r0}
 175              	.LVL19:
 311:Generated_Source\PSoC4/Cm0Start.c ****             {
 176              		.loc 1 311 0 discriminator 3
 177 0016 0432     		adds	r2, r2, #4
 178              	.LVL20:
 179              	.L12:
 311:Generated_Source\PSoC4/Cm0Start.c ****             {
 180              		.loc 1 311 0 is_stmt 0 discriminator 1
 181 0018 A242     		cmp	r2, r4
 182 001a FAD1     		bne	.L13
 314:Generated_Source\PSoC4/Cm0Start.c ****                 dst++;
 315:Generated_Source\PSoC4/Cm0Start.c ****                 src++;
 316:Generated_Source\PSoC4/Cm0Start.c ****             }
 317:Generated_Source\PSoC4/Cm0Start.c ****             limit = rptr->zero_size;
 183              		.loc 1 317 0 is_stmt 1
 184 001c E868     		ldr	r0, [r5, #12]
 185              	.LVL21:
 318:Generated_Source\PSoC4/Cm0Start.c ****             for (count = 0u; count != limit; count += sizeof (uint32))
 186              		.loc 1 318 0
 187 001e 0022     		movs	r2, #0
 188 0020 02E0     		b	.L14
 189              	.LVL22:
 190              	.L15:
 319:Generated_Source\PSoC4/Cm0Start.c ****             {
 320:Generated_Source\PSoC4/Cm0Start.c ****                 *dst = 0u;
ARM GAS  C:\Users\HENRYA~1\AppData\Local\Temp\cc8jVuQX.s 			page 10


 191              		.loc 1 320 0 discriminator 3
 192 0022 0021     		movs	r1, #0
 193 0024 02C3     		stmia	r3!, {r1}
 194              	.LVL23:
 318:Generated_Source\PSoC4/Cm0Start.c ****             for (count = 0u; count != limit; count += sizeof (uint32))
 195              		.loc 1 318 0 discriminator 3
 196 0026 0432     		adds	r2, r2, #4
 197              	.LVL24:
 198              	.L14:
 318:Generated_Source\PSoC4/Cm0Start.c ****             for (count = 0u; count != limit; count += sizeof (uint32))
 199              		.loc 1 318 0 is_stmt 0 discriminator 1
 200 0028 8242     		cmp	r2, r0
 201 002a FAD1     		bne	.L15
 321:Generated_Source\PSoC4/Cm0Start.c ****                 dst++;
 322:Generated_Source\PSoC4/Cm0Start.c ****             }
 323:Generated_Source\PSoC4/Cm0Start.c **** 
 324:Generated_Source\PSoC4/Cm0Start.c ****             rptr++;
 202              		.loc 1 324 0 is_stmt 1 discriminator 2
 203 002c 1035     		adds	r5, r5, #16
 204              	.LVL25:
 205              	.LBE2:
 304:Generated_Source\PSoC4/Cm0Start.c ****         {
 206              		.loc 1 304 0 discriminator 2
 207 002e 013E     		subs	r6, r6, #1
 208              	.LVL26:
 209              	.L11:
 304:Generated_Source\PSoC4/Cm0Start.c ****         {
 210              		.loc 1 304 0 is_stmt 0 discriminator 1
 211 0030 002E     		cmp	r6, #0
 212 0032 E9D1     		bne	.L16
 325:Generated_Source\PSoC4/Cm0Start.c ****         }
 326:Generated_Source\PSoC4/Cm0Start.c **** 
 327:Generated_Source\PSoC4/Cm0Start.c ****         /* Invoke static objects constructors */
 328:Generated_Source\PSoC4/Cm0Start.c ****         __libc_init_array();
 213              		.loc 1 328 0 is_stmt 1
 214 0034 FFF7FEFF 		bl	__libc_init_array
 215              	.LVL27:
 329:Generated_Source\PSoC4/Cm0Start.c ****         (void) main();
 216              		.loc 1 329 0
 217 0038 FFF7FEFF 		bl	main
 218              	.LVL28:
 219              	.L17:
 220 003c FEE7     		b	.L17
 221              	.L19:
 222 003e C046     		.align	2
 223              	.L18:
 224 0040 00000000 		.word	__cy_region_num
 225 0044 00000000 		.word	__cy_regions
 226              		.cfi_endproc
 227              	.LFE4:
 228              		.size	Start_c, .-Start_c
 229              		.section	.text.Reset,"ax",%progbits
 230              		.align	2
 231              		.global	Reset
 232              		.code	16
 233              		.thumb_func
 234              		.type	Reset, %function
ARM GAS  C:\Users\HENRYA~1\AppData\Local\Temp\cc8jVuQX.s 			page 11


 235              	Reset:
 236              	.LFB5:
 330:Generated_Source\PSoC4/Cm0Start.c **** 
 331:Generated_Source\PSoC4/Cm0Start.c ****         while (1)
 332:Generated_Source\PSoC4/Cm0Start.c ****         {
 333:Generated_Source\PSoC4/Cm0Start.c ****             /* If main returns, make sure we don't return. */
 334:Generated_Source\PSoC4/Cm0Start.c ****         }
 335:Generated_Source\PSoC4/Cm0Start.c **** 
 336:Generated_Source\PSoC4/Cm0Start.c ****     #endif /* CY_BOOT_START_C_CALLBACK */
 337:Generated_Source\PSoC4/Cm0Start.c **** }
 338:Generated_Source\PSoC4/Cm0Start.c **** 
 339:Generated_Source\PSoC4/Cm0Start.c **** 
 340:Generated_Source\PSoC4/Cm0Start.c **** /*******************************************************************************
 341:Generated_Source\PSoC4/Cm0Start.c **** * Function Name: Reset
 342:Generated_Source\PSoC4/Cm0Start.c **** ****************************************************************************//**
 343:Generated_Source\PSoC4/Cm0Start.c **** *
 344:Generated_Source\PSoC4/Cm0Start.c **** * This function handles the reset interrupt for the GCC toolchain.  This is
 345:Generated_Source\PSoC4/Cm0Start.c **** * the first bit of code that is executed at startup.
 346:Generated_Source\PSoC4/Cm0Start.c **** *
 347:Generated_Source\PSoC4/Cm0Start.c **** *******************************************************************************/
 348:Generated_Source\PSoC4/Cm0Start.c **** void Reset(void)
 349:Generated_Source\PSoC4/Cm0Start.c **** {
 237              		.loc 1 349 0
 238              		.cfi_startproc
 239              		@ Volatile: function does not return.
 240              		@ args = 0, pretend = 0, frame = 0
 241              		@ frame_needed = 0, uses_anonymous_args = 0
 242 0000 10B5     		push	{r4, lr}
 243              		.cfi_def_cfa_offset 8
 244              		.cfi_offset 4, -8
 245              		.cfi_offset 14, -4
 350:Generated_Source\PSoC4/Cm0Start.c ****     #if (CYDEV_PROJ_TYPE == CYDEV_PROJ_TYPE_LOADABLE || CYDEV_PROJ_TYPE == CYDEV_PROJ_TYPE_LOADABLE
 351:Generated_Source\PSoC4/Cm0Start.c **** 
 352:Generated_Source\PSoC4/Cm0Start.c ****         /* The bootloadable application image is started at Reset() handler
 353:Generated_Source\PSoC4/Cm0Start.c ****         * as a result of a branch instruction execution from the bootloader.
 354:Generated_Source\PSoC4/Cm0Start.c ****         * So, the stack pointer needs to be reset to be sure that
 355:Generated_Source\PSoC4/Cm0Start.c ****         * there is no garbage in the stack.
 356:Generated_Source\PSoC4/Cm0Start.c ****         */
 357:Generated_Source\PSoC4/Cm0Start.c ****         __asm volatile ("MSR msp, %0\n" : : "r" ((uint32)&__cy_stack) : "sp");
 358:Generated_Source\PSoC4/Cm0Start.c ****     #endif /* CYDEV_PROJ_TYPE_LOADABLE */
 359:Generated_Source\PSoC4/Cm0Start.c **** 
 360:Generated_Source\PSoC4/Cm0Start.c ****     #if(CY_IP_SRSSLT)
 361:Generated_Source\PSoC4/Cm0Start.c ****         CySysWdtDisable();
 362:Generated_Source\PSoC4/Cm0Start.c ****     #endif  /* (CY_IP_SRSSLT) */
 363:Generated_Source\PSoC4/Cm0Start.c **** 
 364:Generated_Source\PSoC4/Cm0Start.c ****     #if ((CYDEV_BOOTLOADER_ENABLE) && (CYDEV_PROJ_TYPE != CYDEV_PROJ_TYPE_LOADABLEANDBOOTLOADER))
 365:Generated_Source\PSoC4/Cm0Start.c ****         CyBtldr_CheckLaunch();
 366:Generated_Source\PSoC4/Cm0Start.c ****     #endif /* ((CYDEV_BOOTLOADER_ENABLE) && (CYDEV_PROJ_TYPE != CYDEV_PROJ_TYPE_LOADABLEANDBOOTLOAD
 367:Generated_Source\PSoC4/Cm0Start.c ****     Start_c();
 246              		.loc 1 367 0
 247 0002 FFF7FEFF 		bl	Start_c
 248              	.LVL29:
 249              		.cfi_endproc
 250              	.LFE5:
 251              		.size	Reset, .-Reset
 252 0006 C046     		.section	.text.initialize_psoc,"ax",%progbits
 253              		.align	2
ARM GAS  C:\Users\HENRYA~1\AppData\Local\Temp\cc8jVuQX.s 			page 12


 254              		.global	initialize_psoc
 255              		.code	16
 256              		.thumb_func
 257              		.type	initialize_psoc, %function
 258              	initialize_psoc:
 259              	.LFB6:
 368:Generated_Source\PSoC4/Cm0Start.c **** }
 369:Generated_Source\PSoC4/Cm0Start.c **** 
 370:Generated_Source\PSoC4/Cm0Start.c **** #elif defined (__ICCARM__)
 371:Generated_Source\PSoC4/Cm0Start.c **** 
 372:Generated_Source\PSoC4/Cm0Start.c **** 
 373:Generated_Source\PSoC4/Cm0Start.c **** /*******************************************************************************
 374:Generated_Source\PSoC4/Cm0Start.c **** * Function Name: __low_level_init
 375:Generated_Source\PSoC4/Cm0Start.c **** ****************************************************************************//**
 376:Generated_Source\PSoC4/Cm0Start.c **** *
 377:Generated_Source\PSoC4/Cm0Start.c **** * This function performs early initializations for the IAR Embedded
 378:Generated_Source\PSoC4/Cm0Start.c **** * Workbench IDE. It is executed in the context of reset interrupt handler
 379:Generated_Source\PSoC4/Cm0Start.c **** * before the data sections are initialized.
 380:Generated_Source\PSoC4/Cm0Start.c **** *
 381:Generated_Source\PSoC4/Cm0Start.c **** * \return The value that determines whether or not data sections should be
 382:Generated_Source\PSoC4/Cm0Start.c **** * initialized by the system startup code:
 383:Generated_Source\PSoC4/Cm0Start.c **** *    0 - skip data sections initialization;
 384:Generated_Source\PSoC4/Cm0Start.c **** *    1 - initialize data sections;
 385:Generated_Source\PSoC4/Cm0Start.c **** *
 386:Generated_Source\PSoC4/Cm0Start.c **** *******************************************************************************/
 387:Generated_Source\PSoC4/Cm0Start.c **** #pragma inline = never
 388:Generated_Source\PSoC4/Cm0Start.c **** int __low_level_init(void)
 389:Generated_Source\PSoC4/Cm0Start.c **** {
 390:Generated_Source\PSoC4/Cm0Start.c ****     #if(CY_IP_SRSSLT)
 391:Generated_Source\PSoC4/Cm0Start.c ****         CySysWdtDisable();
 392:Generated_Source\PSoC4/Cm0Start.c ****     #endif  /* (CY_IP_SRSSLT) */
 393:Generated_Source\PSoC4/Cm0Start.c **** 
 394:Generated_Source\PSoC4/Cm0Start.c **** #if ((CYDEV_BOOTLOADER_ENABLE) && (CYDEV_PROJ_TYPE != CYDEV_PROJ_TYPE_LOADABLEANDBOOTLOADER))
 395:Generated_Source\PSoC4/Cm0Start.c ****     CyBtldr_CheckLaunch();
 396:Generated_Source\PSoC4/Cm0Start.c **** #endif /* ((CYDEV_BOOTLOADER_ENABLE) && (CYDEV_PROJ_TYPE != CYDEV_PROJ_TYPE_LOADABLEANDBOOTLOADER))
 397:Generated_Source\PSoC4/Cm0Start.c **** 
 398:Generated_Source\PSoC4/Cm0Start.c ****     /* Initialize data sections */
 399:Generated_Source\PSoC4/Cm0Start.c ****     __iar_data_init3();
 400:Generated_Source\PSoC4/Cm0Start.c **** 
 401:Generated_Source\PSoC4/Cm0Start.c ****     initialize_psoc();
 402:Generated_Source\PSoC4/Cm0Start.c **** 
 403:Generated_Source\PSoC4/Cm0Start.c ****     return 0;
 404:Generated_Source\PSoC4/Cm0Start.c **** }
 405:Generated_Source\PSoC4/Cm0Start.c **** 
 406:Generated_Source\PSoC4/Cm0Start.c **** #endif /* __GNUC__ */
 407:Generated_Source\PSoC4/Cm0Start.c **** 
 408:Generated_Source\PSoC4/Cm0Start.c **** 
 409:Generated_Source\PSoC4/Cm0Start.c **** /*******************************************************************************
 410:Generated_Source\PSoC4/Cm0Start.c **** * Ram Interrupt Vector table storage area. Must be placed at 0x20000000.
 411:Generated_Source\PSoC4/Cm0Start.c **** *******************************************************************************/
 412:Generated_Source\PSoC4/Cm0Start.c **** 
 413:Generated_Source\PSoC4/Cm0Start.c **** #if defined (__ICCARM__)
 414:Generated_Source\PSoC4/Cm0Start.c ****     #pragma location=".ramvectors"
 415:Generated_Source\PSoC4/Cm0Start.c **** #else
 416:Generated_Source\PSoC4/Cm0Start.c ****     #ifndef CY_SYS_RAM_VECTOR_SECTION
 417:Generated_Source\PSoC4/Cm0Start.c ****         #define CY_SYS_RAM_VECTOR_SECTION CY_SECTION(".ramvectors")
 418:Generated_Source\PSoC4/Cm0Start.c ****     #endif /* CY_SYS_RAM_VECTOR_SECTION */
ARM GAS  C:\Users\HENRYA~1\AppData\Local\Temp\cc8jVuQX.s 			page 13


 419:Generated_Source\PSoC4/Cm0Start.c ****     CY_SYS_RAM_VECTOR_SECTION
 420:Generated_Source\PSoC4/Cm0Start.c **** #endif  /* defined (__ICCARM__) */
 421:Generated_Source\PSoC4/Cm0Start.c **** cyisraddress CyRamVectors[CY_NUM_VECTORS];
 422:Generated_Source\PSoC4/Cm0Start.c **** 
 423:Generated_Source\PSoC4/Cm0Start.c **** 
 424:Generated_Source\PSoC4/Cm0Start.c **** /*******************************************************************************
 425:Generated_Source\PSoC4/Cm0Start.c **** * Rom Interrupt Vector table storage area. Must be 256-byte aligned.
 426:Generated_Source\PSoC4/Cm0Start.c **** *******************************************************************************/
 427:Generated_Source\PSoC4/Cm0Start.c **** 
 428:Generated_Source\PSoC4/Cm0Start.c **** #if defined(__ARMCC_VERSION)
 429:Generated_Source\PSoC4/Cm0Start.c ****     /* Suppress diagnostic message 1296-D: extended constant initialiser used */
 430:Generated_Source\PSoC4/Cm0Start.c ****     #pragma diag_suppress 1296
 431:Generated_Source\PSoC4/Cm0Start.c **** #endif  /* defined(__ARMCC_VERSION) */
 432:Generated_Source\PSoC4/Cm0Start.c **** 
 433:Generated_Source\PSoC4/Cm0Start.c **** #if defined (__ICCARM__)
 434:Generated_Source\PSoC4/Cm0Start.c ****     #pragma location=".romvectors"
 435:Generated_Source\PSoC4/Cm0Start.c ****     const intvec_elem __vector_table[CY_NUM_ROM_VECTORS] =
 436:Generated_Source\PSoC4/Cm0Start.c **** #else
 437:Generated_Source\PSoC4/Cm0Start.c ****     #ifndef CY_SYS_ROM_VECTOR_SECTION
 438:Generated_Source\PSoC4/Cm0Start.c ****         #define CY_SYS_ROM_VECTOR_SECTION CY_SECTION(".romvectors")
 439:Generated_Source\PSoC4/Cm0Start.c ****     #endif /* CY_SYS_ROM_VECTOR_SECTION */
 440:Generated_Source\PSoC4/Cm0Start.c ****     CY_SYS_ROM_VECTOR_SECTION
 441:Generated_Source\PSoC4/Cm0Start.c ****     const cyisraddress RomVectors[CY_NUM_ROM_VECTORS] =
 442:Generated_Source\PSoC4/Cm0Start.c **** #endif  /* defined (__ICCARM__) */
 443:Generated_Source\PSoC4/Cm0Start.c **** {
 444:Generated_Source\PSoC4/Cm0Start.c ****     CY_SYS_INITIAL_STACK_POINTER,   /* The initial stack pointer  0 */
 445:Generated_Source\PSoC4/Cm0Start.c ****     #if defined (__ICCARM__) /* The reset handler          1 */
 446:Generated_Source\PSoC4/Cm0Start.c ****         __iar_program_start,
 447:Generated_Source\PSoC4/Cm0Start.c ****     #else
 448:Generated_Source\PSoC4/Cm0Start.c ****         (cyisraddress)&Reset,
 449:Generated_Source\PSoC4/Cm0Start.c ****     #endif  /* defined (__ICCARM__) */
 450:Generated_Source\PSoC4/Cm0Start.c ****     &IntDefaultHandler,      /* The NMI handler            2 */
 451:Generated_Source\PSoC4/Cm0Start.c ****     &IntDefaultHandler,      /* The hard fault handler     3 */
 452:Generated_Source\PSoC4/Cm0Start.c **** };
 453:Generated_Source\PSoC4/Cm0Start.c **** 
 454:Generated_Source\PSoC4/Cm0Start.c **** #if defined(__ARMCC_VERSION)
 455:Generated_Source\PSoC4/Cm0Start.c ****     #pragma diag_default 1296
 456:Generated_Source\PSoC4/Cm0Start.c **** #endif  /* defined(__ARMCC_VERSION) */
 457:Generated_Source\PSoC4/Cm0Start.c **** 
 458:Generated_Source\PSoC4/Cm0Start.c **** 
 459:Generated_Source\PSoC4/Cm0Start.c **** /*******************************************************************************
 460:Generated_Source\PSoC4/Cm0Start.c **** * Function Name: initialize_psoc
 461:Generated_Source\PSoC4/Cm0Start.c **** ****************************************************************************//**
 462:Generated_Source\PSoC4/Cm0Start.c **** *
 463:Generated_Source\PSoC4/Cm0Start.c **** * This function is used to initialize the PSoC chip before calling main.
 464:Generated_Source\PSoC4/Cm0Start.c **** *
 465:Generated_Source\PSoC4/Cm0Start.c **** *******************************************************************************/
 466:Generated_Source\PSoC4/Cm0Start.c **** #if(defined(__GNUC__) && !defined(__ARMCC_VERSION))
 467:Generated_Source\PSoC4/Cm0Start.c **** __attribute__ ((constructor(101)))
 468:Generated_Source\PSoC4/Cm0Start.c **** #endif  /* (defined(__GNUC__) && !defined(__ARMCC_VERSION)) */
 469:Generated_Source\PSoC4/Cm0Start.c **** void initialize_psoc(void)
 470:Generated_Source\PSoC4/Cm0Start.c **** {
 260              		.loc 1 470 0
 261              		.cfi_startproc
 262              		@ args = 0, pretend = 0, frame = 0
 263              		@ frame_needed = 0, uses_anonymous_args = 0
 264 0000 10B5     		push	{r4, lr}
ARM GAS  C:\Users\HENRYA~1\AppData\Local\Temp\cc8jVuQX.s 			page 14


 265              		.cfi_def_cfa_offset 8
 266              		.cfi_offset 4, -8
 267              		.cfi_offset 14, -4
 471:Generated_Source\PSoC4/Cm0Start.c ****     uint32 indexInit;
 472:Generated_Source\PSoC4/Cm0Start.c **** 
 473:Generated_Source\PSoC4/Cm0Start.c ****     #if(CY_IP_CPUSSV2)
 474:Generated_Source\PSoC4/Cm0Start.c ****         #if (CY_IP_CPUSS_CM0)
 475:Generated_Source\PSoC4/Cm0Start.c ****             /***********************************************************************
 476:Generated_Source\PSoC4/Cm0Start.c ****             * Make sure that Vector Table is located at 0000_0000 in Flash, before
 477:Generated_Source\PSoC4/Cm0Start.c ****             * accessing RomVectors or calling functions that may be placed in
 478:Generated_Source\PSoC4/Cm0Start.c ****             * .psocinit (cyfitter_cfg and ClockSetup). Note The CY_CPUSS_CONFIG_REG
 479:Generated_Source\PSoC4/Cm0Start.c ****             * register is retention for the specified device family.
 480:Generated_Source\PSoC4/Cm0Start.c ****             ***********************************************************************/
 481:Generated_Source\PSoC4/Cm0Start.c ****             CY_CPUSS_CONFIG_REG &= (uint32) ~CY_CPUSS_CONFIG_VECT_IN_RAM;
 268              		.loc 1 481 0
 269 0002 0E4A     		ldr	r2, .L26
 270 0004 1368     		ldr	r3, [r2]
 271 0006 0121     		movs	r1, #1
 272 0008 8B43     		bics	r3, r1
 273 000a 1360     		str	r3, [r2]
 274              	.LVL30:
 482:Generated_Source\PSoC4/Cm0Start.c ****         #endif /* (CY_IP_CPUSS_CM0) */
 483:Generated_Source\PSoC4/Cm0Start.c ****     #endif  /* (CY_IP_CPUSSV2) */
 484:Generated_Source\PSoC4/Cm0Start.c **** 
 485:Generated_Source\PSoC4/Cm0Start.c ****     /* Set Ram interrupt vectors to default functions. */
 486:Generated_Source\PSoC4/Cm0Start.c ****     for (indexInit = 0u; indexInit < CY_NUM_VECTORS; indexInit++)
 275              		.loc 1 486 0
 276 000c 0023     		movs	r3, #0
 277 000e 0AE0     		b	.L22
 278              	.LVL31:
 279              	.L24:
 487:Generated_Source\PSoC4/Cm0Start.c ****     {
 488:Generated_Source\PSoC4/Cm0Start.c ****         CyRamVectors[indexInit] = (indexInit < CY_NUM_ROM_VECTORS) ?
 489:Generated_Source\PSoC4/Cm0Start.c ****             #if defined (__ICCARM__)
 490:Generated_Source\PSoC4/Cm0Start.c ****                 __vector_table[indexInit].__fun : &IntDefaultHandler;
 491:Generated_Source\PSoC4/Cm0Start.c ****             #else
 492:Generated_Source\PSoC4/Cm0Start.c ****                 RomVectors[indexInit] : &IntDefaultHandler;
 280              		.loc 1 492 0
 281 0010 032B     		cmp	r3, #3
 282 0012 03D8     		bhi	.L25
 283              		.loc 1 492 0 is_stmt 0 discriminator 1
 284 0014 9A00     		lsls	r2, r3, #2
 285 0016 0A49     		ldr	r1, .L26+4
 286 0018 5058     		ldr	r0, [r2, r1]
 287 001a 00E0     		b	.L23
 288              	.L25:
 289              		.loc 1 492 0
 290 001c 0948     		ldr	r0, .L26+8
 291              	.L23:
 488:Generated_Source\PSoC4/Cm0Start.c ****             #if defined (__ICCARM__)
 292              		.loc 1 488 0 is_stmt 1 discriminator 2
 293 001e 9900     		lsls	r1, r3, #2
 294 0020 094A     		ldr	r2, .L26+12
 295 0022 8850     		str	r0, [r1, r2]
 486:Generated_Source\PSoC4/Cm0Start.c ****     {
 296              		.loc 1 486 0 discriminator 2
 297 0024 0133     		adds	r3, r3, #1
ARM GAS  C:\Users\HENRYA~1\AppData\Local\Temp\cc8jVuQX.s 			page 15


 298              	.LVL32:
 299              	.L22:
 486:Generated_Source\PSoC4/Cm0Start.c ****     {
 300              		.loc 1 486 0 is_stmt 0 discriminator 1
 301 0026 2F2B     		cmp	r3, #47
 302 0028 F2D9     		bls	.L24
 493:Generated_Source\PSoC4/Cm0Start.c ****             #endif  /* defined (__ICCARM__) */
 494:Generated_Source\PSoC4/Cm0Start.c ****     }
 495:Generated_Source\PSoC4/Cm0Start.c **** 
 496:Generated_Source\PSoC4/Cm0Start.c ****     /* Initialize configuration registers. */
 497:Generated_Source\PSoC4/Cm0Start.c ****     cyfitter_cfg();
 303              		.loc 1 497 0 is_stmt 1
 304 002a FFF7FEFF 		bl	cyfitter_cfg
 305              	.LVL33:
 498:Generated_Source\PSoC4/Cm0Start.c **** 
 499:Generated_Source\PSoC4/Cm0Start.c ****     #if !defined (__ICCARM__)
 500:Generated_Source\PSoC4/Cm0Start.c ****         /* Actually, no need to clean this variable, just to make compiler happy. */
 501:Generated_Source\PSoC4/Cm0Start.c ****         cySysNoInitDataValid = 0u;
 502:Generated_Source\PSoC4/Cm0Start.c ****     #endif  /* !defined (__ICCARM__) */
 503:Generated_Source\PSoC4/Cm0Start.c **** 
 504:Generated_Source\PSoC4/Cm0Start.c ****     #if (CYDEV_PROJ_TYPE != CYDEV_PROJ_TYPE_STANDARD)
 505:Generated_Source\PSoC4/Cm0Start.c **** 
 506:Generated_Source\PSoC4/Cm0Start.c ****         /* Need to make sure that this variable will not be optimized out */
 507:Generated_Source\PSoC4/Cm0Start.c ****         if (0u == cyBtldrRunType)
 508:Generated_Source\PSoC4/Cm0Start.c ****         {
 509:Generated_Source\PSoC4/Cm0Start.c ****             cyBtldrRunType = 0u;
 510:Generated_Source\PSoC4/Cm0Start.c ****         }
 511:Generated_Source\PSoC4/Cm0Start.c **** 
 512:Generated_Source\PSoC4/Cm0Start.c ****     #endif  /* (CYDEV_PROJ_TYPE != CYDEV_PROJ_TYPE_STANDARD) */
 513:Generated_Source\PSoC4/Cm0Start.c **** 
 514:Generated_Source\PSoC4/Cm0Start.c ****     #if (CY_IP_CPUSS_CM0)
 515:Generated_Source\PSoC4/Cm0Start.c ****         /* Vector Table is located at 0x2000:0000 in SRAM */
 516:Generated_Source\PSoC4/Cm0Start.c ****         CY_CPUSS_CONFIG_REG |= CY_CPUSS_CONFIG_VECT_IN_RAM;
 306              		.loc 1 516 0
 307 002e 034A     		ldr	r2, .L26
 308 0030 1168     		ldr	r1, [r2]
 309 0032 0123     		movs	r3, #1
 310 0034 0B43     		orrs	r3, r1
 311 0036 1360     		str	r3, [r2]
 517:Generated_Source\PSoC4/Cm0Start.c **** 	#else
 518:Generated_Source\PSoC4/Cm0Start.c **** 		(*(uint32 *)CYREG_CM0P_VTOR) = CY_CPUSS_CONFIG_VECT_ADDR_IN_RAM;
 519:Generated_Source\PSoC4/Cm0Start.c ****     #endif /* (CY_IP_CPUSS_CM0) */
 520:Generated_Source\PSoC4/Cm0Start.c **** }
 312              		.loc 1 520 0
 313              		@ sp needed
 314 0038 10BD     		pop	{r4, pc}
 315              	.L27:
 316 003a C046     		.align	2
 317              	.L26:
 318 003c 00001040 		.word	1074790400
 319 0040 00000000 		.word	.LANCHOR1
 320 0044 00000000 		.word	IntDefaultHandler
 321 0048 00000000 		.word	.LANCHOR2
 322              		.cfi_endproc
 323              	.LFE6:
 324              		.size	initialize_psoc, .-initialize_psoc
 325              		.section	.init_array,"aw",%init_array
ARM GAS  C:\Users\HENRYA~1\AppData\Local\Temp\cc8jVuQX.s 			page 16


 326              		.align	2
 327 0000 00000000 		.word	initialize_psoc(target1)
 328              		.global	RomVectors
 329              		.global	CyRamVectors
 330              		.section	.romvectors,"a",%progbits
 331              		.align	2
 332              		.set	.LANCHOR1,. + 0
 333              		.type	RomVectors, %object
 334              		.size	RomVectors, 16
 335              	RomVectors:
 336 0000 00000000 		.word	__cy_stack
 337 0004 00000000 		.word	Reset
 338 0008 00000000 		.word	IntDefaultHandler
 339 000c 00000000 		.word	IntDefaultHandler
 340              		.data
 341              		.align	2
 342              		.set	.LANCHOR0,. + 0
 343              		.type	heapPointer.4881, %object
 344              		.size	heapPointer.4881, 4
 345              	heapPointer.4881:
 346 0000 00000000 		.word	end
 347              		.section	.ramvectors,"aw",%progbits
 348              		.align	2
 349              		.set	.LANCHOR2,. + 0
 350              		.type	CyRamVectors, %object
 351              		.size	CyRamVectors, 192
 352              	CyRamVectors:
 353 0000 00000000 		.space	192
 353      00000000 
 353      00000000 
 353      00000000 
 353      00000000 
 354              		.weak	__cy_region_num
 355              		.text
 356              	.Letext0:
 357              		.file 2 "c:\\program files (x86)\\cypress\\psoc creator\\4.1\\psoc creator\\import\\gnu\\arm\\5.4.
 358              		.file 3 "Generated_Source\\PSoC4\\cytypes.h"
 359              		.file 4 "Generated_Source\\PSoC4\\CyLib.h"
 360              		.file 5 "c:\\program files (x86)\\cypress\\psoc creator\\4.1\\psoc creator\\import\\gnu\\arm\\5.4.
 361              		.file 6 "Generated_Source\\PSoC4\\cyfitter_cfg.h"