ARM GAS  C:\Users\HENRYA~1\AppData\Local\Temp\cc5qBMfo.s 			page 1


   1              		.syntax unified
   2              		.cpu cortex-m0
   3              		.fpu softvfp
   4              		.eabi_attribute 20, 1
   5              		.eabi_attribute 21, 1
   6              		.eabi_attribute 23, 3
   7              		.eabi_attribute 24, 1
   8              		.eabi_attribute 25, 1
   9              		.eabi_attribute 26, 1
  10              		.eabi_attribute 30, 1
  11              		.eabi_attribute 34, 0
  12              		.eabi_attribute 18, 4
  13              		.thumb
  14              		.syntax unified
  15              		.file	"main.c"
  16              		.text
  17              	.Ltext0:
  18              		.cfi_sections	.debug_frame
  19              		.section	.text.Oyente_Mail_1,"ax",%progbits
  20              		.align	2
  21              		.global	Oyente_Mail_1
  22              		.code	16
  23              		.thumb_func
  24              		.type	Oyente_Mail_1, %function
  25              	Oyente_Mail_1:
  26              	.LFB37:
  27              		.file 1 "main.c"
   1:main.c        **** //Import Libraries
   2:main.c        **** #include <project.h>
   3:main.c        **** #include <stdio.h>
   4:main.c        **** #include <math.h>
   5:main.c        **** #include <protocolo can.h>
   6:main.c        **** 
   7:main.c        **** //Global Variables
   8:main.c        **** uint8 dato_recibido;
   9:main.c        **** char publicar[6];
  10:main.c        **** char* formato=" %i";
  11:main.c        **** uint8 mailbox0[8];
  12:main.c        **** uint8 mailbox1[8];
  13:main.c        **** uint8 mailbox2[8];
  14:main.c        **** uint8 dato_enviado[8];
  15:main.c        **** uint8 dato_enviado_1[8];
  16:main.c        **** 
  17:main.c        **** void Oyente_Mail_1(){
  28              		.loc 1 17 0
  29              		.cfi_startproc
  30              		@ args = 0, pretend = 0, frame = 0
  31              		@ frame_needed = 0, uses_anonymous_args = 0
  32 0000 70B5     		push	{r4, r5, r6, lr}
  33              		.cfi_def_cfa_offset 16
  34              		.cfi_offset 4, -16
  35              		.cfi_offset 5, -12
  36              		.cfi_offset 6, -8
  37              		.cfi_offset 14, -4
  18:main.c        ****     XBEE_PutString("MB_0= ");
  38              		.loc 1 18 0
  39 0002 2548     		ldr	r0, .L2
ARM GAS  C:\Users\HENRYA~1\AppData\Local\Temp\cc5qBMfo.s 			page 2


  40 0004 FFF7FEFF 		bl	XBEE_PutString
  41              	.LVL0:
  19:main.c        ****     sprintf(publicar, formato, mailbox0[0]);
  42              		.loc 1 19 0
  43 0008 244E     		ldr	r6, .L2+4
  44 000a 3278     		ldrb	r2, [r6]
  45 000c 244D     		ldr	r5, .L2+8
  46 000e 254C     		ldr	r4, .L2+12
  47 0010 2968     		ldr	r1, [r5]
  48 0012 2000     		movs	r0, r4
  49 0014 FFF7FEFF 		bl	sprintf
  50              	.LVL1:
  20:main.c        ****     XBEE_PutString(publicar);
  51              		.loc 1 20 0
  52 0018 2000     		movs	r0, r4
  53 001a FFF7FEFF 		bl	XBEE_PutString
  54              	.LVL2:
  21:main.c        ****     sprintf(publicar, formato, mailbox0[1]);
  55              		.loc 1 21 0
  56 001e 7278     		ldrb	r2, [r6, #1]
  57 0020 2968     		ldr	r1, [r5]
  58 0022 2000     		movs	r0, r4
  59 0024 FFF7FEFF 		bl	sprintf
  60              	.LVL3:
  22:main.c        ****     XBEE_PutString(publicar);
  61              		.loc 1 22 0
  62 0028 2000     		movs	r0, r4
  63 002a FFF7FEFF 		bl	XBEE_PutString
  64              	.LVL4:
  23:main.c        ****     sprintf(publicar, formato, mailbox0[2]);
  65              		.loc 1 23 0
  66 002e B278     		ldrb	r2, [r6, #2]
  67 0030 2968     		ldr	r1, [r5]
  68 0032 2000     		movs	r0, r4
  69 0034 FFF7FEFF 		bl	sprintf
  70              	.LVL5:
  24:main.c        ****     XBEE_PutString(publicar);    
  71              		.loc 1 24 0
  72 0038 2000     		movs	r0, r4
  73 003a FFF7FEFF 		bl	XBEE_PutString
  74              	.LVL6:
  25:main.c        ****     sprintf(publicar, formato, mailbox0[3]);
  75              		.loc 1 25 0
  76 003e F278     		ldrb	r2, [r6, #3]
  77 0040 2968     		ldr	r1, [r5]
  78 0042 2000     		movs	r0, r4
  79 0044 FFF7FEFF 		bl	sprintf
  80              	.LVL7:
  26:main.c        ****     XBEE_PutString(publicar);    
  81              		.loc 1 26 0
  82 0048 2000     		movs	r0, r4
  83 004a FFF7FEFF 		bl	XBEE_PutString
  84              	.LVL8:
  27:main.c        ****     sprintf(publicar, formato, mailbox0[4]);
  85              		.loc 1 27 0
  86 004e 3279     		ldrb	r2, [r6, #4]
  87 0050 2968     		ldr	r1, [r5]
ARM GAS  C:\Users\HENRYA~1\AppData\Local\Temp\cc5qBMfo.s 			page 3


  88 0052 2000     		movs	r0, r4
  89 0054 FFF7FEFF 		bl	sprintf
  90              	.LVL9:
  28:main.c        ****     XBEE_PutString(publicar);    
  91              		.loc 1 28 0
  92 0058 2000     		movs	r0, r4
  93 005a FFF7FEFF 		bl	XBEE_PutString
  94              	.LVL10:
  29:main.c        ****     sprintf(publicar, formato, mailbox0[5]);
  95              		.loc 1 29 0
  96 005e 7279     		ldrb	r2, [r6, #5]
  97 0060 2968     		ldr	r1, [r5]
  98 0062 2000     		movs	r0, r4
  99 0064 FFF7FEFF 		bl	sprintf
 100              	.LVL11:
  30:main.c        ****     XBEE_PutString(publicar);    
 101              		.loc 1 30 0
 102 0068 2000     		movs	r0, r4
 103 006a FFF7FEFF 		bl	XBEE_PutString
 104              	.LVL12:
  31:main.c        ****     sprintf(publicar, formato, mailbox0[6]);
 105              		.loc 1 31 0
 106 006e B279     		ldrb	r2, [r6, #6]
 107 0070 2968     		ldr	r1, [r5]
 108 0072 2000     		movs	r0, r4
 109 0074 FFF7FEFF 		bl	sprintf
 110              	.LVL13:
  32:main.c        ****     XBEE_PutString(publicar);    
 111              		.loc 1 32 0
 112 0078 2000     		movs	r0, r4
 113 007a FFF7FEFF 		bl	XBEE_PutString
 114              	.LVL14:
  33:main.c        ****     sprintf(publicar, formato, mailbox0[7]);
 115              		.loc 1 33 0
 116 007e F279     		ldrb	r2, [r6, #7]
 117 0080 2968     		ldr	r1, [r5]
 118 0082 2000     		movs	r0, r4
 119 0084 FFF7FEFF 		bl	sprintf
 120              	.LVL15:
  34:main.c        ****     XBEE_PutString(publicar); 
 121              		.loc 1 34 0
 122 0088 2000     		movs	r0, r4
 123 008a FFF7FEFF 		bl	XBEE_PutString
 124              	.LVL16:
  35:main.c        ****     XBEE_PutCRLF(0);
 125              		.loc 1 35 0
 126 008e 0020     		movs	r0, #0
 127 0090 FFF7FEFF 		bl	XBEE_PutCRLF
 128              	.LVL17:
  36:main.c        ****     
  37:main.c        **** }
 129              		.loc 1 37 0
 130              		@ sp needed
 131 0094 70BD     		pop	{r4, r5, r6, pc}
 132              	.L3:
 133 0096 C046     		.align	2
 134              	.L2:
ARM GAS  C:\Users\HENRYA~1\AppData\Local\Temp\cc5qBMfo.s 			page 4


 135 0098 00000000 		.word	.LC0
 136 009c 00000000 		.word	mailbox0
 137 00a0 00000000 		.word	.LANCHOR0
 138 00a4 00000000 		.word	publicar
 139              		.cfi_endproc
 140              	.LFE37:
 141              		.size	Oyente_Mail_1, .-Oyente_Mail_1
 142              		.section	.text.Oyente_Mail_2,"ax",%progbits
 143              		.align	2
 144              		.global	Oyente_Mail_2
 145              		.code	16
 146              		.thumb_func
 147              		.type	Oyente_Mail_2, %function
 148              	Oyente_Mail_2:
 149              	.LFB38:
  38:main.c        **** 
  39:main.c        **** void Oyente_Mail_2(){
 150              		.loc 1 39 0
 151              		.cfi_startproc
 152              		@ args = 0, pretend = 0, frame = 0
 153              		@ frame_needed = 0, uses_anonymous_args = 0
 154 0000 70B5     		push	{r4, r5, r6, lr}
 155              		.cfi_def_cfa_offset 16
 156              		.cfi_offset 4, -16
 157              		.cfi_offset 5, -12
 158              		.cfi_offset 6, -8
 159              		.cfi_offset 14, -4
  40:main.c        ****     XBEE_PutString("MB_1= ");
 160              		.loc 1 40 0
 161 0002 2548     		ldr	r0, .L5
 162 0004 FFF7FEFF 		bl	XBEE_PutString
 163              	.LVL18:
  41:main.c        ****     sprintf(publicar, formato, mailbox1[0]);
 164              		.loc 1 41 0
 165 0008 244E     		ldr	r6, .L5+4
 166 000a 3278     		ldrb	r2, [r6]
 167 000c 244D     		ldr	r5, .L5+8
 168 000e 254C     		ldr	r4, .L5+12
 169 0010 2968     		ldr	r1, [r5]
 170 0012 2000     		movs	r0, r4
 171 0014 FFF7FEFF 		bl	sprintf
 172              	.LVL19:
  42:main.c        ****     XBEE_PutString(publicar);
 173              		.loc 1 42 0
 174 0018 2000     		movs	r0, r4
 175 001a FFF7FEFF 		bl	XBEE_PutString
 176              	.LVL20:
  43:main.c        ****     sprintf(publicar, formato, mailbox1[1]);
 177              		.loc 1 43 0
 178 001e 7278     		ldrb	r2, [r6, #1]
 179 0020 2968     		ldr	r1, [r5]
 180 0022 2000     		movs	r0, r4
 181 0024 FFF7FEFF 		bl	sprintf
 182              	.LVL21:
  44:main.c        ****     XBEE_PutString(publicar);
 183              		.loc 1 44 0
 184 0028 2000     		movs	r0, r4
ARM GAS  C:\Users\HENRYA~1\AppData\Local\Temp\cc5qBMfo.s 			page 5


 185 002a FFF7FEFF 		bl	XBEE_PutString
 186              	.LVL22:
  45:main.c        ****     sprintf(publicar, formato, mailbox1[2]);
 187              		.loc 1 45 0
 188 002e B278     		ldrb	r2, [r6, #2]
 189 0030 2968     		ldr	r1, [r5]
 190 0032 2000     		movs	r0, r4
 191 0034 FFF7FEFF 		bl	sprintf
 192              	.LVL23:
  46:main.c        ****     XBEE_PutString(publicar);    
 193              		.loc 1 46 0
 194 0038 2000     		movs	r0, r4
 195 003a FFF7FEFF 		bl	XBEE_PutString
 196              	.LVL24:
  47:main.c        ****     sprintf(publicar, formato, mailbox1[3]);
 197              		.loc 1 47 0
 198 003e F278     		ldrb	r2, [r6, #3]
 199 0040 2968     		ldr	r1, [r5]
 200 0042 2000     		movs	r0, r4
 201 0044 FFF7FEFF 		bl	sprintf
 202              	.LVL25:
  48:main.c        ****     XBEE_PutString(publicar);    
 203              		.loc 1 48 0
 204 0048 2000     		movs	r0, r4
 205 004a FFF7FEFF 		bl	XBEE_PutString
 206              	.LVL26:
  49:main.c        ****     sprintf(publicar, formato, mailbox1[4]);
 207              		.loc 1 49 0
 208 004e 3279     		ldrb	r2, [r6, #4]
 209 0050 2968     		ldr	r1, [r5]
 210 0052 2000     		movs	r0, r4
 211 0054 FFF7FEFF 		bl	sprintf
 212              	.LVL27:
  50:main.c        ****     XBEE_PutString(publicar);    
 213              		.loc 1 50 0
 214 0058 2000     		movs	r0, r4
 215 005a FFF7FEFF 		bl	XBEE_PutString
 216              	.LVL28:
  51:main.c        ****     sprintf(publicar, formato, mailbox1[5]);
 217              		.loc 1 51 0
 218 005e 7279     		ldrb	r2, [r6, #5]
 219 0060 2968     		ldr	r1, [r5]
 220 0062 2000     		movs	r0, r4
 221 0064 FFF7FEFF 		bl	sprintf
 222              	.LVL29:
  52:main.c        ****     XBEE_PutString(publicar);    
 223              		.loc 1 52 0
 224 0068 2000     		movs	r0, r4
 225 006a FFF7FEFF 		bl	XBEE_PutString
 226              	.LVL30:
  53:main.c        ****     sprintf(publicar, formato, mailbox1[6]);
 227              		.loc 1 53 0
 228 006e B279     		ldrb	r2, [r6, #6]
 229 0070 2968     		ldr	r1, [r5]
 230 0072 2000     		movs	r0, r4
 231 0074 FFF7FEFF 		bl	sprintf
 232              	.LVL31:
ARM GAS  C:\Users\HENRYA~1\AppData\Local\Temp\cc5qBMfo.s 			page 6


  54:main.c        ****     XBEE_PutString(publicar);    
 233              		.loc 1 54 0
 234 0078 2000     		movs	r0, r4
 235 007a FFF7FEFF 		bl	XBEE_PutString
 236              	.LVL32:
  55:main.c        ****     sprintf(publicar, formato, mailbox1[7]);
 237              		.loc 1 55 0
 238 007e F279     		ldrb	r2, [r6, #7]
 239 0080 2968     		ldr	r1, [r5]
 240 0082 2000     		movs	r0, r4
 241 0084 FFF7FEFF 		bl	sprintf
 242              	.LVL33:
  56:main.c        ****     XBEE_PutString(publicar); 
 243              		.loc 1 56 0
 244 0088 2000     		movs	r0, r4
 245 008a FFF7FEFF 		bl	XBEE_PutString
 246              	.LVL34:
  57:main.c        ****     XBEE_PutCRLF(0);     
 247              		.loc 1 57 0
 248 008e 0020     		movs	r0, #0
 249 0090 FFF7FEFF 		bl	XBEE_PutCRLF
 250              	.LVL35:
  58:main.c        **** }
 251              		.loc 1 58 0
 252              		@ sp needed
 253 0094 70BD     		pop	{r4, r5, r6, pc}
 254              	.L6:
 255 0096 C046     		.align	2
 256              	.L5:
 257 0098 08000000 		.word	.LC5
 258 009c 00000000 		.word	mailbox1
 259 00a0 00000000 		.word	.LANCHOR0
 260 00a4 00000000 		.word	publicar
 261              		.cfi_endproc
 262              	.LFE38:
 263              		.size	Oyente_Mail_2, .-Oyente_Mail_2
 264              		.section	.text.Oyente_Mail_3,"ax",%progbits
 265              		.align	2
 266              		.global	Oyente_Mail_3
 267              		.code	16
 268              		.thumb_func
 269              		.type	Oyente_Mail_3, %function
 270              	Oyente_Mail_3:
 271              	.LFB39:
  59:main.c        **** 
  60:main.c        **** void Oyente_Mail_3(){
 272              		.loc 1 60 0
 273              		.cfi_startproc
 274              		@ args = 0, pretend = 0, frame = 0
 275              		@ frame_needed = 0, uses_anonymous_args = 0
 276 0000 70B5     		push	{r4, r5, r6, lr}
 277              		.cfi_def_cfa_offset 16
 278              		.cfi_offset 4, -16
 279              		.cfi_offset 5, -12
 280              		.cfi_offset 6, -8
 281              		.cfi_offset 14, -4
  61:main.c        ****     XBEE_PutString("MB_3= ");
ARM GAS  C:\Users\HENRYA~1\AppData\Local\Temp\cc5qBMfo.s 			page 7


 282              		.loc 1 61 0
 283 0002 2548     		ldr	r0, .L8
 284 0004 FFF7FEFF 		bl	XBEE_PutString
 285              	.LVL36:
  62:main.c        ****     sprintf(publicar, formato, mailbox2[0]);
 286              		.loc 1 62 0
 287 0008 244E     		ldr	r6, .L8+4
 288 000a 3278     		ldrb	r2, [r6]
 289 000c 244D     		ldr	r5, .L8+8
 290 000e 254C     		ldr	r4, .L8+12
 291 0010 2968     		ldr	r1, [r5]
 292 0012 2000     		movs	r0, r4
 293 0014 FFF7FEFF 		bl	sprintf
 294              	.LVL37:
  63:main.c        ****     XBEE_PutString(publicar);
 295              		.loc 1 63 0
 296 0018 2000     		movs	r0, r4
 297 001a FFF7FEFF 		bl	XBEE_PutString
 298              	.LVL38:
  64:main.c        ****     sprintf(publicar, formato, mailbox2[1]);
 299              		.loc 1 64 0
 300 001e 7278     		ldrb	r2, [r6, #1]
 301 0020 2968     		ldr	r1, [r5]
 302 0022 2000     		movs	r0, r4
 303 0024 FFF7FEFF 		bl	sprintf
 304              	.LVL39:
  65:main.c        ****     XBEE_PutString(publicar);
 305              		.loc 1 65 0
 306 0028 2000     		movs	r0, r4
 307 002a FFF7FEFF 		bl	XBEE_PutString
 308              	.LVL40:
  66:main.c        ****     sprintf(publicar, formato, mailbox2[2]);
 309              		.loc 1 66 0
 310 002e B278     		ldrb	r2, [r6, #2]
 311 0030 2968     		ldr	r1, [r5]
 312 0032 2000     		movs	r0, r4
 313 0034 FFF7FEFF 		bl	sprintf
 314              	.LVL41:
  67:main.c        ****     XBEE_PutString(publicar);    
 315              		.loc 1 67 0
 316 0038 2000     		movs	r0, r4
 317 003a FFF7FEFF 		bl	XBEE_PutString
 318              	.LVL42:
  68:main.c        ****     sprintf(publicar, formato, mailbox2[3]);
 319              		.loc 1 68 0
 320 003e F278     		ldrb	r2, [r6, #3]
 321 0040 2968     		ldr	r1, [r5]
 322 0042 2000     		movs	r0, r4
 323 0044 FFF7FEFF 		bl	sprintf
 324              	.LVL43:
  69:main.c        ****     XBEE_PutString(publicar);    
 325              		.loc 1 69 0
 326 0048 2000     		movs	r0, r4
 327 004a FFF7FEFF 		bl	XBEE_PutString
 328              	.LVL44:
  70:main.c        ****     sprintf(publicar, formato, mailbox2[4]);
 329              		.loc 1 70 0
ARM GAS  C:\Users\HENRYA~1\AppData\Local\Temp\cc5qBMfo.s 			page 8


 330 004e 3279     		ldrb	r2, [r6, #4]
 331 0050 2968     		ldr	r1, [r5]
 332 0052 2000     		movs	r0, r4
 333 0054 FFF7FEFF 		bl	sprintf
 334              	.LVL45:
  71:main.c        ****     XBEE_PutString(publicar);    
 335              		.loc 1 71 0
 336 0058 2000     		movs	r0, r4
 337 005a FFF7FEFF 		bl	XBEE_PutString
 338              	.LVL46:
  72:main.c        ****     sprintf(publicar, formato, mailbox2[5]);
 339              		.loc 1 72 0
 340 005e 7279     		ldrb	r2, [r6, #5]
 341 0060 2968     		ldr	r1, [r5]
 342 0062 2000     		movs	r0, r4
 343 0064 FFF7FEFF 		bl	sprintf
 344              	.LVL47:
  73:main.c        ****     XBEE_PutString(publicar);    
 345              		.loc 1 73 0
 346 0068 2000     		movs	r0, r4
 347 006a FFF7FEFF 		bl	XBEE_PutString
 348              	.LVL48:
  74:main.c        ****     sprintf(publicar, formato, mailbox2[6]);
 349              		.loc 1 74 0
 350 006e B279     		ldrb	r2, [r6, #6]
 351 0070 2968     		ldr	r1, [r5]
 352 0072 2000     		movs	r0, r4
 353 0074 FFF7FEFF 		bl	sprintf
 354              	.LVL49:
  75:main.c        ****     XBEE_PutString(publicar);    
 355              		.loc 1 75 0
 356 0078 2000     		movs	r0, r4
 357 007a FFF7FEFF 		bl	XBEE_PutString
 358              	.LVL50:
  76:main.c        ****     sprintf(publicar, formato, mailbox2[7]);
 359              		.loc 1 76 0
 360 007e F279     		ldrb	r2, [r6, #7]
 361 0080 2968     		ldr	r1, [r5]
 362 0082 2000     		movs	r0, r4
 363 0084 FFF7FEFF 		bl	sprintf
 364              	.LVL51:
  77:main.c        ****     XBEE_PutString(publicar); 
 365              		.loc 1 77 0
 366 0088 2000     		movs	r0, r4
 367 008a FFF7FEFF 		bl	XBEE_PutString
 368              	.LVL52:
  78:main.c        ****     XBEE_PutCRLF(0);     
 369              		.loc 1 78 0
 370 008e 0020     		movs	r0, #0
 371 0090 FFF7FEFF 		bl	XBEE_PutCRLF
 372              	.LVL53:
  79:main.c        **** }
 373              		.loc 1 79 0
 374              		@ sp needed
 375 0094 70BD     		pop	{r4, r5, r6, pc}
 376              	.L9:
 377 0096 C046     		.align	2
ARM GAS  C:\Users\HENRYA~1\AppData\Local\Temp\cc5qBMfo.s 			page 9


 378              	.L8:
 379 0098 10000000 		.word	.LC10
 380 009c 00000000 		.word	mailbox2
 381 00a0 00000000 		.word	.LANCHOR0
 382 00a4 00000000 		.word	publicar
 383              		.cfi_endproc
 384              	.LFE39:
 385              		.size	Oyente_Mail_3, .-Oyente_Mail_3
 386              		.section	.text.interrutcan,"ax",%progbits
 387              		.align	2
 388              		.global	interrutcan
 389              		.code	16
 390              		.thumb_func
 391              		.type	interrutcan, %function
 392              	interrutcan:
 393              	.LFB40:
  80:main.c        **** 
  81:main.c        **** CY_ISR(interrutcan){
 394              		.loc 1 81 0
 395              		.cfi_startproc
 396              		@ args = 0, pretend = 0, frame = 0
 397              		@ frame_needed = 0, uses_anonymous_args = 0
 398 0000 10B5     		push	{r4, lr}
 399              		.cfi_def_cfa_offset 8
 400              		.cfi_offset 4, -8
 401              		.cfi_offset 14, -4
  82:main.c        ****     LED_1_Write(1);
 402              		.loc 1 82 0
 403 0002 0120     		movs	r0, #1
 404 0004 FFF7FEFF 		bl	LED_1_Write
 405              	.LVL54:
  83:main.c        ****     CAN_GlobalIntDisable();
 406              		.loc 1 83 0
 407 0008 FFF7FEFF 		bl	CAN_GlobalIntDisable
 408              	.LVL55:
  84:main.c        ****     CAN_MsgRXIsr();   
 409              		.loc 1 84 0
 410 000c FFF7FEFF 		bl	CAN_MsgRXIsr
 411              	.LVL56:
  85:main.c        ****     Oyente_Mail_1();
 412              		.loc 1 85 0
 413 0010 FFF7FEFF 		bl	Oyente_Mail_1
 414              	.LVL57:
  86:main.c        ****     Oyente_Mail_2(); 
 415              		.loc 1 86 0
 416 0014 FFF7FEFF 		bl	Oyente_Mail_2
 417              	.LVL58:
  87:main.c        ****     Oyente_Mail_3();
 418              		.loc 1 87 0
 419 0018 FFF7FEFF 		bl	Oyente_Mail_3
 420              	.LVL59:
  88:main.c        ****     CAN_GlobalIntEnable();
 421              		.loc 1 88 0
 422 001c FFF7FEFF 		bl	CAN_GlobalIntEnable
 423              	.LVL60:
  89:main.c        ****     LED_1_Write(0);
 424              		.loc 1 89 0
ARM GAS  C:\Users\HENRYA~1\AppData\Local\Temp\cc5qBMfo.s 			page 10


 425 0020 0020     		movs	r0, #0
 426 0022 FFF7FEFF 		bl	LED_1_Write
 427              	.LVL61:
  90:main.c        **** }
 428              		.loc 1 90 0
 429              		@ sp needed
 430 0026 10BD     		pop	{r4, pc}
 431              		.cfi_endproc
 432              	.LFE40:
 433              		.size	interrutcan, .-interrutcan
 434              		.section	.text.main,"ax",%progbits
 435              		.align	2
 436              		.global	main
 437              		.code	16
 438              		.thumb_func
 439              		.type	main, %function
 440              	main:
 441              	.LFB41:
  91:main.c        **** 
  92:main.c        **** 
  93:main.c        **** int main()
  94:main.c        **** {
 442              		.loc 1 94 0
 443              		.cfi_startproc
 444              		@ Volatile: function does not return.
 445              		@ args = 0, pretend = 0, frame = 0
 446              		@ frame_needed = 0, uses_anonymous_args = 0
 447 0000 10B5     		push	{r4, lr}
 448              		.cfi_def_cfa_offset 8
 449              		.cfi_offset 4, -8
 450              		.cfi_offset 14, -4
  95:main.c        ****     //Init LED's
  96:main.c        ****     LED_1_Write(0);
 451              		.loc 1 96 0
 452 0002 0020     		movs	r0, #0
 453 0004 FFF7FEFF 		bl	LED_1_Write
 454              	.LVL62:
  97:main.c        ****     XBEE_Start();    
 455              		.loc 1 97 0
 456 0008 FFF7FEFF 		bl	XBEE_Start
 457              	.LVL63:
  98:main.c        ****     RESET_XBEE_Write(1);
 458              		.loc 1 98 0
 459 000c 0120     		movs	r0, #1
 460 000e FFF7FEFF 		bl	RESET_XBEE_Write
 461              	.LVL64:
  99:main.c        ****     CAN_Start();                    //Start CAN
 462              		.loc 1 99 0
 463 0012 FFF7FEFF 		bl	CAN_Start
 464              	.LVL65:
 100:main.c        ****     CAN_isr_StartEx(interrutcan);   //Interrupcion CAN 
 465              		.loc 1 100 0
 466 0016 0348     		ldr	r0, .L13
 467 0018 FFF7FEFF 		bl	CAN_isr_StartEx
 468              	.LVL66:
 101:main.c        ****     CAN_GlobalIntEnable();
 469              		.loc 1 101 0
ARM GAS  C:\Users\HENRYA~1\AppData\Local\Temp\cc5qBMfo.s 			page 11


 470 001c FFF7FEFF 		bl	CAN_GlobalIntEnable
 471              	.LVL67:
 102:main.c        ****     CyGlobalIntEnable;
 472              		.loc 1 102 0
 473              		.syntax divided
 474              	@ 102 "main.c" 1
 475 0020 62B6     		CPSIE   i
 476              	@ 0 "" 2
 477              		.thumb
 478              		.syntax unified
 479              	.L12:
 480 0022 FEE7     		b	.L12
 481              	.L14:
 482              		.align	2
 483              	.L13:
 484 0024 00000000 		.word	interrutcan
 485              		.cfi_endproc
 486              	.LFE41:
 487              		.size	main, .-main
 488              		.comm	dato_enviado_1,8,4
 489              		.comm	dato_enviado,8,4
 490              		.comm	mailbox2,8,4
 491              		.comm	mailbox1,8,4
 492              		.comm	mailbox0,8,4
 493              		.global	formato
 494              		.comm	publicar,6,4
 495              		.comm	dato_recibido,1,1
 496              		.data
 497              		.align	2
 498              		.set	.LANCHOR0,. + 0
 499              		.type	formato, %object
 500              		.size	formato, 4
 501              	formato:
 502 0000 18000000 		.word	.LC16
 503              		.section	.rodata.str1.4,"aMS",%progbits,1
 504              		.align	2
 505              	.LC0:
 506 0000 4D425F30 		.ascii	"MB_0= \000"
 506      3D2000
 507 0007 00       		.space	1
 508              	.LC5:
 509 0008 4D425F31 		.ascii	"MB_1= \000"
 509      3D2000
 510 000f 00       		.space	1
 511              	.LC10:
 512 0010 4D425F33 		.ascii	"MB_3= \000"
 512      3D2000
 513 0017 00       		.space	1
 514              	.LC16:
 515 0018 20256900 		.ascii	" %i\000"
 516              		.text
 517              	.Letext0:
 518              		.file 2 "Generated_Source\\PSoC4/XBEE.h"
 519              		.file 3 "c:\\program files (x86)\\cypress\\psoc creator\\4.1\\psoc creator\\import\\gnu\\arm\\5.4.
 520              		.file 4 "Generated_Source\\PSoC4/LED_1.h"
 521              		.file 5 "Generated_Source\\PSoC4/CAN.h"
 522              		.file 6 "Generated_Source\\PSoC4/RESET_XBEE.h"
ARM GAS  C:\Users\HENRYA~1\AppData\Local\Temp\cc5qBMfo.s 			page 12


 523              		.file 7 "Generated_Source\\PSoC4/CAN_isr.h"
 524              		.file 8 "Generated_Source\\PSoC4/cytypes.h"