ARM GAS  C:\Users\HENRYA~1\AppData\Local\Temp\cc8lMps5.s 			page 1


   1              		.cpu cortex-m0
   2              		.fpu softvfp
   3              		.eabi_attribute 20, 1
   4              		.eabi_attribute 21, 1
   5              		.eabi_attribute 23, 3
   6              		.eabi_attribute 24, 1
   7              		.eabi_attribute 25, 1
   8              		.eabi_attribute 26, 1
   9              		.eabi_attribute 30, 1
  10              		.eabi_attribute 34, 0
  11              		.eabi_attribute 18, 4
  12              		.code	16
  13              		.file	"main.c"
  14              		.text
  15              	.Ltext0:
  16              		.cfi_sections	.debug_frame
  17              		.section	.text.writeVCNL,"ax",%progbits
  18              		.align	2
  19              		.global	writeVCNL
  20              		.code	16
  21              		.thumb_func
  22              		.type	writeVCNL, %function
  23              	writeVCNL:
  24              	.LFB36:
  25              		.file 1 "main.c"
   1:main.c        **** #include <project.h>
   2:main.c        **** #define VCNL4010_ADDRESS 0x13
   3:main.c        **** int i=0;
   4:main.c        **** int16 P=0;
   5:main.c        **** //Send Data
   6:main.c        **** void writeVCNL(int address, int data){
  26              		.loc 1 6 0
  27              		.cfi_startproc
  28              	.LVL0:
  29 0000 00B5     		push	{lr}
  30              		.cfi_def_cfa_offset 4
  31              		.cfi_offset 14, -4
  32 0002 83B0     		sub	sp, sp, #12
  33              		.cfi_def_cfa_offset 16
   7:main.c        ****     uint8 Write_buf[2]={0};
  34              		.loc 1 7 0
  35 0004 01AB     		add	r3, sp, #4
   8:main.c        ****     Write_buf[0]=address;
  36              		.loc 1 8 0
  37 0006 1870     		strb	r0, [r3]
   9:main.c        ****     Write_buf[1]=data;
  38              		.loc 1 9 0
  39 0008 5970     		strb	r1, [r3, #1]
  10:main.c        ****     I2C_1_I2CMasterWriteBuf(VCNL4010_ADDRESS,(uint8 *)Write_buf,2,I2C_1_I2C_MODE_COMPLETE_XFER);
  40              		.loc 1 10 0
  41 000a 1320     		mov	r0, #19
  42              	.LVL1:
  43 000c 191C     		mov	r1, r3
  44              	.LVL2:
  45 000e 0222     		mov	r2, #2
  46 0010 0023     		mov	r3, #0
  47 0012 FFF7FEFF 		bl	I2C_1_I2CMasterWriteBuf
ARM GAS  C:\Users\HENRYA~1\AppData\Local\Temp\cc8lMps5.s 			page 2


  48              	.LVL3:
  49              	.L2:
  11:main.c        ****     while((I2C_1_I2CMasterStatus()&I2C_1_I2C_MSTAT_WR_CMPLT)==0){}
  50              		.loc 1 11 0 discriminator 1
  51 0016 FFF7FEFF 		bl	I2C_1_I2CMasterStatus
  52              	.LVL4:
  53 001a 8307     		lsl	r3, r0, #30
  54 001c FBD5     		bpl	.L2
  12:main.c        ****     return;
  13:main.c        **** }
  55              		.loc 1 13 0
  56 001e 03B0     		add	sp, sp, #12
  57              		@ sp needed
  58 0020 00BD     		pop	{pc}
  59              		.cfi_endproc
  60              	.LFE36:
  61              		.size	writeVCNL, .-writeVCNL
  62 0022 C046     		.section	.text.readVCNL,"ax",%progbits
  63              		.align	2
  64              		.global	readVCNL
  65              		.code	16
  66              		.thumb_func
  67              		.type	readVCNL, %function
  68              	readVCNL:
  69              	.LFB37:
  14:main.c        **** //Read Data
  15:main.c        **** int readVCNL(int address){
  70              		.loc 1 15 0
  71              		.cfi_startproc
  72              	.LVL5:
  73 0000 00B5     		push	{lr}
  74              		.cfi_def_cfa_offset 4
  75              		.cfi_offset 14, -4
  76 0002 83B0     		sub	sp, sp, #12
  77              		.cfi_def_cfa_offset 16
  16:main.c        ****     uint8 Write_buf[1]={0};
  78              		.loc 1 16 0
  79 0004 01A9     		add	r1, sp, #4
  17:main.c        ****     Write_buf[0]=address;
  80              		.loc 1 17 0
  81 0006 0870     		strb	r0, [r1]
  18:main.c        ****     uint8 read_Buf[1]={0};
  82              		.loc 1 18 0
  83 0008 0023     		mov	r3, #0
  84 000a 6A46     		mov	r2, sp
  85 000c 1370     		strb	r3, [r2]
  19:main.c        ****     I2C_1_I2CMasterWriteBuf(VCNL4010_ADDRESS,(uint8 *)Write_buf,1,I2C_1_I2C_MODE_NO_STOP);
  86              		.loc 1 19 0
  87 000e 1320     		mov	r0, #19
  88              	.LVL6:
  89 0010 0122     		mov	r2, #1
  90 0012 0233     		add	r3, r3, #2
  91 0014 FFF7FEFF 		bl	I2C_1_I2CMasterWriteBuf
  92              	.LVL7:
  93              	.L4:
  20:main.c        ****     while((I2C_1_I2CMasterStatus()&I2C_1_I2C_MSTAT_WR_CMPLT)==0){}
  94              		.loc 1 20 0 discriminator 1
ARM GAS  C:\Users\HENRYA~1\AppData\Local\Temp\cc8lMps5.s 			page 3


  95 0018 FFF7FEFF 		bl	I2C_1_I2CMasterStatus
  96              	.LVL8:
  97 001c 8307     		lsl	r3, r0, #30
  98 001e FBD5     		bpl	.L4
  21:main.c        ****     I2C_1_I2CMasterReadBuf(VCNL4010_ADDRESS,(uint8 *)read_Buf,1,I2C_1_I2C_MODE_REPEAT_START);
  99              		.loc 1 21 0
 100 0020 1320     		mov	r0, #19
 101 0022 6946     		mov	r1, sp
 102 0024 0122     		mov	r2, #1
 103 0026 0123     		mov	r3, #1
 104 0028 FFF7FEFF 		bl	I2C_1_I2CMasterReadBuf
 105              	.LVL9:
 106              	.L5:
  22:main.c        ****     while((I2C_1_I2CMasterStatus()&I2C_1_I2C_MSTAT_RD_CMPLT)==0){}
 107              		.loc 1 22 0 discriminator 1
 108 002c FFF7FEFF 		bl	I2C_1_I2CMasterStatus
 109              	.LVL10:
 110 0030 C307     		lsl	r3, r0, #31
 111 0032 FBD5     		bpl	.L5
  23:main.c        ****     return read_Buf[0];
 112              		.loc 1 23 0
 113 0034 6B46     		mov	r3, sp
 114 0036 1878     		ldrb	r0, [r3]
  24:main.c        **** }
 115              		.loc 1 24 0
 116 0038 03B0     		add	sp, sp, #12
 117              		@ sp needed
 118 003a 00BD     		pop	{pc}
 119              		.cfi_endproc
 120              	.LFE37:
 121              		.size	readVCNL, .-readVCNL
 122              		.section	.text.initVCNL,"ax",%progbits
 123              		.align	2
 124              		.global	initVCNL
 125              		.code	16
 126              		.thumb_func
 127              		.type	initVCNL, %function
 128              	initVCNL:
 129              	.LFB38:
  25:main.c        **** //Init Sensor
  26:main.c        **** void initVCNL(){
 130              		.loc 1 26 0
 131              		.cfi_startproc
 132 0000 08B5     		push	{r3, lr}
 133              		.cfi_def_cfa_offset 8
 134              		.cfi_offset 3, -8
 135              		.cfi_offset 14, -4
  27:main.c        ****   int temp = readVCNL(0x81);
 136              		.loc 1 27 0
 137 0002 8120     		mov	r0, #129
 138 0004 FFF7FEFF 		bl	readVCNL
 139              	.LVL11:
  28:main.c        ****   if (temp != 0x21){  
 140              		.loc 1 28 0
 141 0008 2128     		cmp	r0, #33
 142 000a 1ED0     		beq	.L7
  29:main.c        ****     //Led Sequence Fail
ARM GAS  C:\Users\HENRYA~1\AppData\Local\Temp\cc8lMps5.s 			page 4


  30:main.c        ****     LED_1_Write(1);
 143              		.loc 1 30 0
 144 000c 0120     		mov	r0, #1
 145              	.LVL12:
 146 000e FFF7FEFF 		bl	LED_1_Write
 147              	.LVL13:
  31:main.c        ****     LED_2_Write(1);
 148              		.loc 1 31 0
 149 0012 0120     		mov	r0, #1
 150 0014 FFF7FEFF 		bl	LED_2_Write
 151              	.LVL14:
  32:main.c        ****     LED_3_Write(1);
 152              		.loc 1 32 0
 153 0018 0120     		mov	r0, #1
 154 001a FFF7FEFF 		bl	LED_3_Write
 155              	.LVL15:
  33:main.c        ****     LED_4_Write(1);
 156              		.loc 1 33 0
 157 001e 0120     		mov	r0, #1
 158 0020 FFF7FEFF 		bl	LED_4_Write
 159              	.LVL16:
  34:main.c        ****     CyDelay(200);
 160              		.loc 1 34 0
 161 0024 C820     		mov	r0, #200
 162 0026 FFF7FEFF 		bl	CyDelay
 163              	.LVL17:
  35:main.c        ****     LED_1_Write(0);
 164              		.loc 1 35 0
 165 002a 0020     		mov	r0, #0
 166 002c FFF7FEFF 		bl	LED_1_Write
 167              	.LVL18:
  36:main.c        ****     LED_2_Write(0);
 168              		.loc 1 36 0
 169 0030 0020     		mov	r0, #0
 170 0032 FFF7FEFF 		bl	LED_2_Write
 171              	.LVL19:
  37:main.c        ****     LED_3_Write(0);
 172              		.loc 1 37 0
 173 0036 0020     		mov	r0, #0
 174 0038 FFF7FEFF 		bl	LED_3_Write
 175              	.LVL20:
  38:main.c        ****     LED_4_Write(0);
 176              		.loc 1 38 0
 177 003c 0020     		mov	r0, #0
 178 003e FFF7FEFF 		bl	LED_4_Write
 179              	.LVL21:
  39:main.c        ****     CyDelay(200);    
 180              		.loc 1 39 0
 181 0042 C820     		mov	r0, #200
 182 0044 FFF7FEFF 		bl	CyDelay
 183              	.LVL22:
 184 0048 41E0     		b	.L8
 185              	.LVL23:
 186              	.L7:
  40:main.c        ****   }
  41:main.c        ****    else{
  42:main.c        ****     //Led Sequence Sucess
ARM GAS  C:\Users\HENRYA~1\AppData\Local\Temp\cc8lMps5.s 			page 5


  43:main.c        ****     LED_1_Write(0);
 187              		.loc 1 43 0
 188 004a 0020     		mov	r0, #0
 189              	.LVL24:
 190 004c FFF7FEFF 		bl	LED_1_Write
 191              	.LVL25:
  44:main.c        ****     LED_2_Write(0);
 192              		.loc 1 44 0
 193 0050 0020     		mov	r0, #0
 194 0052 FFF7FEFF 		bl	LED_2_Write
 195              	.LVL26:
  45:main.c        ****     LED_3_Write(0);
 196              		.loc 1 45 0
 197 0056 0020     		mov	r0, #0
 198 0058 FFF7FEFF 		bl	LED_3_Write
 199              	.LVL27:
  46:main.c        ****     LED_4_Write(0);
 200              		.loc 1 46 0
 201 005c 0020     		mov	r0, #0
 202 005e FFF7FEFF 		bl	LED_4_Write
 203              	.LVL28:
  47:main.c        ****     for(i=1;i<5;i++){
 204              		.loc 1 47 0
 205 0062 0122     		mov	r2, #1
 206 0064 224B     		ldr	r3, .L11
 207 0066 1A60     		str	r2, [r3]
 208 0068 21E0     		b	.L9
 209              	.L10:
  48:main.c        ****         LED_1_Write(1);
 210              		.loc 1 48 0 discriminator 3
 211 006a 0120     		mov	r0, #1
 212 006c FFF7FEFF 		bl	LED_1_Write
 213              	.LVL29:
  49:main.c        ****         LED_2_Write(1);
 214              		.loc 1 49 0 discriminator 3
 215 0070 0120     		mov	r0, #1
 216 0072 FFF7FEFF 		bl	LED_2_Write
 217              	.LVL30:
  50:main.c        ****         LED_3_Write(0);
 218              		.loc 1 50 0 discriminator 3
 219 0076 0020     		mov	r0, #0
 220 0078 FFF7FEFF 		bl	LED_3_Write
 221              	.LVL31:
  51:main.c        ****         LED_4_Write(0);
 222              		.loc 1 51 0 discriminator 3
 223 007c 0020     		mov	r0, #0
 224 007e FFF7FEFF 		bl	LED_4_Write
 225              	.LVL32:
  52:main.c        ****         CyDelay(200);
 226              		.loc 1 52 0 discriminator 3
 227 0082 C820     		mov	r0, #200
 228 0084 FFF7FEFF 		bl	CyDelay
 229              	.LVL33:
  53:main.c        ****         LED_1_Write(0);
 230              		.loc 1 53 0 discriminator 3
 231 0088 0020     		mov	r0, #0
 232 008a FFF7FEFF 		bl	LED_1_Write
ARM GAS  C:\Users\HENRYA~1\AppData\Local\Temp\cc8lMps5.s 			page 6


 233              	.LVL34:
  54:main.c        ****         LED_2_Write(0);
 234              		.loc 1 54 0 discriminator 3
 235 008e 0020     		mov	r0, #0
 236 0090 FFF7FEFF 		bl	LED_2_Write
 237              	.LVL35:
  55:main.c        ****         LED_3_Write(1);
 238              		.loc 1 55 0 discriminator 3
 239 0094 0120     		mov	r0, #1
 240 0096 FFF7FEFF 		bl	LED_3_Write
 241              	.LVL36:
  56:main.c        ****         LED_4_Write(1);
 242              		.loc 1 56 0 discriminator 3
 243 009a 0120     		mov	r0, #1
 244 009c FFF7FEFF 		bl	LED_4_Write
 245              	.LVL37:
  57:main.c        ****         CyDelay(200); 
 246              		.loc 1 57 0 discriminator 3
 247 00a0 C820     		mov	r0, #200
 248 00a2 FFF7FEFF 		bl	CyDelay
 249              	.LVL38:
  47:main.c        ****         LED_1_Write(1);
 250              		.loc 1 47 0 discriminator 3
 251 00a6 124A     		ldr	r2, .L11
 252 00a8 1368     		ldr	r3, [r2]
 253 00aa 0133     		add	r3, r3, #1
 254 00ac 1360     		str	r3, [r2]
 255              	.L9:
  47:main.c        ****         LED_1_Write(1);
 256              		.loc 1 47 0 is_stmt 0 discriminator 1
 257 00ae 104B     		ldr	r3, .L11
 258 00b0 1B68     		ldr	r3, [r3]
 259 00b2 042B     		cmp	r3, #4
 260 00b4 D9DD     		ble	.L10
  58:main.c        ****         }
  59:main.c        ****     LED_1_Write(0);
 261              		.loc 1 59 0 is_stmt 1
 262 00b6 0020     		mov	r0, #0
 263 00b8 FFF7FEFF 		bl	LED_1_Write
 264              	.LVL39:
  60:main.c        ****     LED_2_Write(0);
 265              		.loc 1 60 0
 266 00bc 0020     		mov	r0, #0
 267 00be FFF7FEFF 		bl	LED_2_Write
 268              	.LVL40:
  61:main.c        ****     LED_3_Write(0);
 269              		.loc 1 61 0
 270 00c2 0020     		mov	r0, #0
 271 00c4 FFF7FEFF 		bl	LED_3_Write
 272              	.LVL41:
  62:main.c        ****     LED_4_Write(0);
 273              		.loc 1 62 0
 274 00c8 0020     		mov	r0, #0
 275 00ca FFF7FEFF 		bl	LED_4_Write
 276              	.LVL42:
 277              	.L8:
  63:main.c        ****   } 
ARM GAS  C:\Users\HENRYA~1\AppData\Local\Temp\cc8lMps5.s 			page 7


  64:main.c        ****   //VCNL Init Params
  65:main.c        ****   writeVCNL(0x84, 0x0F); // Configures ambient light measures - Single conversion mode, 128 average
 278              		.loc 1 65 0
 279 00ce 8420     		mov	r0, #132
 280 00d0 0F21     		mov	r1, #15
 281 00d2 FFF7FEFF 		bl	writeVCNL
 282              	.LVL43:
  66:main.c        ****   writeVCNL(0x83, 0x32);   // sets IR current in steps of 10mA 0-200mA --> 200mA
 283              		.loc 1 66 0
 284 00d6 8320     		mov	r0, #131
 285 00d8 3221     		mov	r1, #50
 286 00da FFF7FEFF 		bl	writeVCNL
 287              	.LVL44:
  67:main.c        ****   writeVCNL(0x89, 0);    // Proximity IR test signal freq, 0-3 - 781.25 kHz
 288              		.loc 1 67 0
 289 00de 8920     		mov	r0, #137
 290 00e0 0021     		mov	r1, #0
 291 00e2 FFF7FEFF 		bl	writeVCNL
 292              	.LVL45:
  68:main.c        ****   writeVCNL(0x8A, 0x81); // proximity modulator timing - 129, recommended by Vishay 
 293              		.loc 1 68 0
 294 00e6 8A20     		mov	r0, #138
 295 00e8 8121     		mov	r1, #129
 296 00ea FFF7FEFF 		bl	writeVCNL
 297              	.LVL46:
  69:main.c        **** }
 298              		.loc 1 69 0
 299              		@ sp needed
 300 00ee 08BD     		pop	{r3, pc}
 301              	.L12:
 302              		.align	2
 303              	.L11:
 304 00f0 00000000 		.word	.LANCHOR0
 305              		.cfi_endproc
 306              	.LFE38:
 307              		.size	initVCNL, .-initVCNL
 308              		.section	.text.readProximity,"ax",%progbits
 309              		.align	2
 310              		.global	readProximity
 311              		.code	16
 312              		.thumb_func
 313              		.type	readProximity, %function
 314              	readProximity:
 315              	.LFB39:
  70:main.c        **** //Read Distance Signal
  71:main.c        **** unsigned int readProximity(){
 316              		.loc 1 71 0
 317              		.cfi_startproc
 318 0000 10B5     		push	{r4, lr}
 319              		.cfi_def_cfa_offset 8
 320              		.cfi_offset 4, -8
 321              		.cfi_offset 14, -4
  72:main.c        ****   int temp = readVCNL(0x80);
 322              		.loc 1 72 0
 323 0002 8020     		mov	r0, #128
 324 0004 FFF7FEFF 		bl	readVCNL
 325              	.LVL47:
ARM GAS  C:\Users\HENRYA~1\AppData\Local\Temp\cc8lMps5.s 			page 8


  73:main.c        ****   writeVCNL(0x80, temp | 0x08);             // command the sensor to perform a proximity measure
 326              		.loc 1 73 0
 327 0008 0823     		mov	r3, #8
 328 000a 011C     		mov	r1, r0
 329 000c 1943     		orr	r1, r3
 330 000e 8020     		mov	r0, #128
 331              	.LVL48:
 332 0010 FFF7FEFF 		bl	writeVCNL
 333              	.LVL49:
 334              	.L14:
  74:main.c        ****   while(!(readVCNL(0x80)&0x20));            // Wait for the proximity data ready bit to be set
 335              		.loc 1 74 0 discriminator 1
 336 0014 8020     		mov	r0, #128
 337 0016 FFF7FEFF 		bl	readVCNL
 338              	.LVL50:
 339 001a 8306     		lsl	r3, r0, #26
 340 001c FAD5     		bpl	.L14
  75:main.c        ****   unsigned int data = readVCNL(0x87) << 8;
 341              		.loc 1 75 0
 342 001e 8720     		mov	r0, #135
 343 0020 FFF7FEFF 		bl	readVCNL
 344              	.LVL51:
 345 0024 0402     		lsl	r4, r0, #8
 346              	.LVL52:
  76:main.c        ****   data |= readVCNL(0x88);
 347              		.loc 1 76 0
 348 0026 8820     		mov	r0, #136
 349 0028 FFF7FEFF 		bl	readVCNL
 350              	.LVL53:
 351 002c 2043     		orr	r0, r4
 352              	.LVL54:
  77:main.c        ****   return data;
  78:main.c        **** }
 353              		.loc 1 78 0
 354              		@ sp needed
 355 002e 10BD     		pop	{r4, pc}
 356              		.cfi_endproc
 357              	.LFE39:
 358              		.size	readProximity, .-readProximity
 359              		.section	.text.readAmbient,"ax",%progbits
 360              		.align	2
 361              		.global	readAmbient
 362              		.code	16
 363              		.thumb_func
 364              		.type	readAmbient, %function
 365              	readAmbient:
 366              	.LFB40:
  79:main.c        **** //Read Ambient Signal
  80:main.c        **** unsigned int readAmbient(){
 367              		.loc 1 80 0
 368              		.cfi_startproc
 369 0000 10B5     		push	{r4, lr}
 370              		.cfi_def_cfa_offset 8
 371              		.cfi_offset 4, -8
 372              		.cfi_offset 14, -4
  81:main.c        ****   int temp = readVCNL(0x80);
 373              		.loc 1 81 0
ARM GAS  C:\Users\HENRYA~1\AppData\Local\Temp\cc8lMps5.s 			page 9


 374 0002 8020     		mov	r0, #128
 375 0004 FFF7FEFF 		bl	readVCNL
 376              	.LVL55:
  82:main.c        ****   writeVCNL(0x80, temp | 0x10);             // command the sensor to perform ambient measure
 377              		.loc 1 82 0
 378 0008 1023     		mov	r3, #16
 379 000a 011C     		mov	r1, r0
 380 000c 1943     		orr	r1, r3
 381 000e 8020     		mov	r0, #128
 382              	.LVL56:
 383 0010 FFF7FEFF 		bl	writeVCNL
 384              	.LVL57:
 385              	.L16:
  83:main.c        ****   while(!(readVCNL(0x80)&0x40));            // wait for the proximity data ready bit to be set
 386              		.loc 1 83 0 discriminator 1
 387 0014 8020     		mov	r0, #128
 388 0016 FFF7FEFF 		bl	readVCNL
 389              	.LVL58:
 390 001a 4306     		lsl	r3, r0, #25
 391 001c FAD5     		bpl	.L16
  84:main.c        ****   unsigned int data = readVCNL(0x85) << 8;  
 392              		.loc 1 84 0
 393 001e 8520     		mov	r0, #133
 394 0020 FFF7FEFF 		bl	readVCNL
 395              	.LVL59:
 396 0024 0402     		lsl	r4, r0, #8
 397              	.LVL60:
  85:main.c        ****   data |= readVCNL(0x86);
 398              		.loc 1 85 0
 399 0026 8620     		mov	r0, #134
 400 0028 FFF7FEFF 		bl	readVCNL
 401              	.LVL61:
 402 002c 2043     		orr	r0, r4
 403              	.LVL62:
  86:main.c        ****   return data;
  87:main.c        **** }
 404              		.loc 1 87 0
 405              		@ sp needed
 406 002e 10BD     		pop	{r4, pc}
 407              		.cfi_endproc
 408              	.LFE40:
 409              		.size	readAmbient, .-readAmbient
 410              		.section	.text.main,"ax",%progbits
 411              		.align	2
 412              		.global	main
 413              		.code	16
 414              		.thumb_func
 415              		.type	main, %function
 416              	main:
 417              	.LFB41:
  88:main.c        **** 
  89:main.c        **** 
  90:main.c        **** int main()
  91:main.c        **** {
 418              		.loc 1 91 0
 419              		.cfi_startproc
 420 0000 08B5     		push	{r3, lr}
ARM GAS  C:\Users\HENRYA~1\AppData\Local\Temp\cc8lMps5.s 			page 10


 421              		.cfi_def_cfa_offset 8
 422              		.cfi_offset 3, -8
 423              		.cfi_offset 14, -4
  92:main.c        ****     CyGlobalIntEnable; 
 424              		.loc 1 92 0
 425              	@ 92 "main.c" 1
 426 0002 62B6     		CPSIE   i
 427              	@ 0 "" 2
  93:main.c        ****     LED_1_Write(0);
 428              		.loc 1 93 0
 429              		.code	16
 430 0004 0020     		mov	r0, #0
 431 0006 FFF7FEFF 		bl	LED_1_Write
 432              	.LVL63:
  94:main.c        ****     LED_2_Write(0);
 433              		.loc 1 94 0
 434 000a 0020     		mov	r0, #0
 435 000c FFF7FEFF 		bl	LED_2_Write
 436              	.LVL64:
  95:main.c        ****     LED_3_Write(0);
 437              		.loc 1 95 0
 438 0010 0020     		mov	r0, #0
 439 0012 FFF7FEFF 		bl	LED_3_Write
 440              	.LVL65:
  96:main.c        ****     LED_4_Write(0);
 441              		.loc 1 96 0
 442 0016 0020     		mov	r0, #0
 443 0018 FFF7FEFF 		bl	LED_4_Write
 444              	.LVL66:
  97:main.c        ****     I2C_1_Start();
 445              		.loc 1 97 0
 446 001c FFF7FEFF 		bl	I2C_1_Start
 447              	.LVL67:
  98:main.c        ****     I2C_1_Enable();
 448              		.loc 1 98 0
 449 0020 FFF7FEFF 		bl	I2C_1_Enable
 450              	.LVL68:
  99:main.c        ****     CyDelay(100);
 451              		.loc 1 99 0
 452 0024 6420     		mov	r0, #100
 453 0026 FFF7FEFF 		bl	CyDelay
 454              	.LVL69:
 100:main.c        ****     initVCNL();
 455              		.loc 1 100 0
 456 002a FFF7FEFF 		bl	initVCNL
 457              	.LVL70:
 458              	.L18:
 101:main.c        ****     for(;;)
 102:main.c        ****     {
 103:main.c        ****         P=readProximity();
 459              		.loc 1 103 0
 460 002e FFF7FEFF 		bl	readProximity
 461              	.LVL71:
 462 0032 80B2     		uxth	r0, r0
 463 0034 064B     		ldr	r3, .L21
 464 0036 9880     		strh	r0, [r3, #4]
 104:main.c        ****         if(P<2800){
ARM GAS  C:\Users\HENRYA~1\AppData\Local\Temp\cc8lMps5.s 			page 11


 465              		.loc 1 104 0
 466 0038 00B2     		sxth	r0, r0
 467 003a 064B     		ldr	r3, .L21+4
 468 003c 9842     		cmp	r0, r3
 469 003e 03DC     		bgt	.L19
 105:main.c        ****             LED_2_Write(1);
 470              		.loc 1 105 0
 471 0040 0120     		mov	r0, #1
 472 0042 FFF7FEFF 		bl	LED_2_Write
 473              	.LVL72:
 474 0046 F2E7     		b	.L18
 475              	.L19:
 106:main.c        ****         }
 107:main.c        ****         else{
 108:main.c        ****             LED_2_Write(0);
 476              		.loc 1 108 0
 477 0048 0020     		mov	r0, #0
 478 004a FFF7FEFF 		bl	LED_2_Write
 479              	.LVL73:
 480 004e EEE7     		b	.L18
 481              	.L22:
 482              		.align	2
 483              	.L21:
 484 0050 00000000 		.word	.LANCHOR0
 485 0054 EF0A0000 		.word	2799
 486              		.cfi_endproc
 487              	.LFE41:
 488              		.size	main, .-main
 489              		.global	P
 490              		.global	i
 491              		.bss
 492              		.align	2
 493              		.set	.LANCHOR0,. + 0
 494              		.type	i, %object
 495              		.size	i, 4
 496              	i:
 497 0000 00000000 		.space	4
 498              		.type	P, %object
 499              		.size	P, 2
 500              	P:
 501 0004 0000     		.space	2
 502 0006 0000     		.text
 503              	.Letext0:
 504              		.file 2 "Generated_Source\\PSoC4/cytypes.h"
 505              		.file 3 "Generated_Source\\PSoC4/I2C_1_I2C.h"
 506              		.file 4 "Generated_Source\\PSoC4/LED_1.h"
 507              		.file 5 "Generated_Source\\PSoC4/LED_2.h"
 508              		.file 6 "Generated_Source\\PSoC4/LED_3.h"
 509              		.file 7 "Generated_Source\\PSoC4/LED_4.h"
 510              		.file 8 "Generated_Source\\PSoC4/CyLib.h"
 511              		.file 9 "Generated_Source\\PSoC4/I2C_1.h"