ARM GAS  C:\Users\HENRYA~1\AppData\Local\Temp\ccEyCdcC.s 			page 1


   1              		.syntax unified
   2              		.cpu cortex-m3
   3              		.fpu softvfp
   4              		.eabi_attribute 20, 1
   5              		.eabi_attribute 21, 1
   6              		.eabi_attribute 23, 3
   7              		.eabi_attribute 24, 1
   8              		.eabi_attribute 25, 1
   9              		.eabi_attribute 26, 1
  10              		.eabi_attribute 30, 1
  11              		.eabi_attribute 34, 1
  12              		.eabi_attribute 18, 4
  13              		.thumb
  14              		.file	"ADC.c"
  15              		.text
  16              	.Ltext0:
  17              		.cfi_sections	.debug_frame
  18              		.section	.text.ADC_GainCompensation,"ax",%progbits
  19              		.align	2
  20              		.thumb
  21              		.thumb_func
  22              		.type	ADC_GainCompensation, %function
  23              	ADC_GainCompensation:
  24              	.LFB21:
  25              		.file 1 ".\\Generated_Source\\PSoC5\\ADC.c"
   1:.\Generated_Source\PSoC5/ADC.c **** /*******************************************************************************
   2:.\Generated_Source\PSoC5/ADC.c **** * File Name: ADC.c
   3:.\Generated_Source\PSoC5/ADC.c **** * Version 3.20
   4:.\Generated_Source\PSoC5/ADC.c **** *
   5:.\Generated_Source\PSoC5/ADC.c **** * Description:
   6:.\Generated_Source\PSoC5/ADC.c **** *  This file provides the source code to the API for the Delta-Sigma ADC
   7:.\Generated_Source\PSoC5/ADC.c **** *  Component.
   8:.\Generated_Source\PSoC5/ADC.c **** *
   9:.\Generated_Source\PSoC5/ADC.c **** * Note:
  10:.\Generated_Source\PSoC5/ADC.c **** *
  11:.\Generated_Source\PSoC5/ADC.c **** ********************************************************************************
  12:.\Generated_Source\PSoC5/ADC.c **** * Copyright 2008-2015, Cypress Semiconductor Corporation.  All rights reserved.
  13:.\Generated_Source\PSoC5/ADC.c **** * You may use this file only in accordance with the license, terms, conditions,
  14:.\Generated_Source\PSoC5/ADC.c **** * disclaimers, and limitations in the end user license agreement accompanying
  15:.\Generated_Source\PSoC5/ADC.c **** * the software package with which this file was provided.
  16:.\Generated_Source\PSoC5/ADC.c **** *******************************************************************************/
  17:.\Generated_Source\PSoC5/ADC.c **** 
  18:.\Generated_Source\PSoC5/ADC.c **** #include "ADC.h"
  19:.\Generated_Source\PSoC5/ADC.c **** 
  20:.\Generated_Source\PSoC5/ADC.c **** #if(ADC_DEFAULT_INTERNAL_CLK)
  21:.\Generated_Source\PSoC5/ADC.c ****     #include "ADC_theACLK.h"
  22:.\Generated_Source\PSoC5/ADC.c **** #endif /* ADC_DEFAULT_INTERNAL_CLK */
  23:.\Generated_Source\PSoC5/ADC.c **** 
  24:.\Generated_Source\PSoC5/ADC.c **** #include "ADC_Ext_CP_Clk.h"
  25:.\Generated_Source\PSoC5/ADC.c **** 
  26:.\Generated_Source\PSoC5/ADC.c **** #if(ADC_DEFAULT_INPUT_MODE)
  27:.\Generated_Source\PSoC5/ADC.c ****     #include "ADC_AMux.h"
  28:.\Generated_Source\PSoC5/ADC.c **** #endif /* ADC_DEFAULT_INPUT_MODE */
  29:.\Generated_Source\PSoC5/ADC.c **** 
  30:.\Generated_Source\PSoC5/ADC.c **** 
  31:.\Generated_Source\PSoC5/ADC.c **** /***************************************
  32:.\Generated_Source\PSoC5/ADC.c **** * Global data allocation
ARM GAS  C:\Users\HENRYA~1\AppData\Local\Temp\ccEyCdcC.s 			page 2


  33:.\Generated_Source\PSoC5/ADC.c **** ***************************************/
  34:.\Generated_Source\PSoC5/ADC.c **** 
  35:.\Generated_Source\PSoC5/ADC.c **** /* Software flag for checking conversion completed or not */
  36:.\Generated_Source\PSoC5/ADC.c **** volatile uint8 ADC_convDone = 0u;
  37:.\Generated_Source\PSoC5/ADC.c **** 
  38:.\Generated_Source\PSoC5/ADC.c **** /* Software flag to stop conversion for single sample conversion mode
  39:.\Generated_Source\PSoC5/ADC.c **** *   with resolution above 16 bits 
  40:.\Generated_Source\PSoC5/ADC.c **** */
  41:.\Generated_Source\PSoC5/ADC.c **** volatile uint8 ADC_stopConversion = 0u;
  42:.\Generated_Source\PSoC5/ADC.c **** 
  43:.\Generated_Source\PSoC5/ADC.c **** /* To run the initialization block only at the start up */
  44:.\Generated_Source\PSoC5/ADC.c **** uint8 ADC_initVar = 0u;
  45:.\Generated_Source\PSoC5/ADC.c **** 
  46:.\Generated_Source\PSoC5/ADC.c **** /* To check whether ADC started or not before switching the configuration */
  47:.\Generated_Source\PSoC5/ADC.c **** volatile uint8 ADC_started = 0u;
  48:.\Generated_Source\PSoC5/ADC.c **** 
  49:.\Generated_Source\PSoC5/ADC.c **** /* Flag to hold ADC config number. By default active config is 1. */
  50:.\Generated_Source\PSoC5/ADC.c **** volatile uint8 ADC_Config = 1u;
  51:.\Generated_Source\PSoC5/ADC.c **** 
  52:.\Generated_Source\PSoC5/ADC.c **** volatile int32 ADC_Offset;
  53:.\Generated_Source\PSoC5/ADC.c **** volatile int32 ADC_CountsPerVolt;
  54:.\Generated_Source\PSoC5/ADC.c **** 
  55:.\Generated_Source\PSoC5/ADC.c **** 
  56:.\Generated_Source\PSoC5/ADC.c **** /***************************************
  57:.\Generated_Source\PSoC5/ADC.c **** * Local data allocation
  58:.\Generated_Source\PSoC5/ADC.c **** ***************************************/
  59:.\Generated_Source\PSoC5/ADC.c **** 
  60:.\Generated_Source\PSoC5/ADC.c **** /* The array with precalculated gain compensation coefficients */
  61:.\Generated_Source\PSoC5/ADC.c **** static ADC_GCOR_STRUCT ADC_gcor[ADC_DEFAULT_NUM_CONFIGS];
  62:.\Generated_Source\PSoC5/ADC.c **** 
  63:.\Generated_Source\PSoC5/ADC.c **** 
  64:.\Generated_Source\PSoC5/ADC.c **** 
  65:.\Generated_Source\PSoC5/ADC.c **** /***************************************
  66:.\Generated_Source\PSoC5/ADC.c **** * Forward function references
  67:.\Generated_Source\PSoC5/ADC.c **** ***************************************/
  68:.\Generated_Source\PSoC5/ADC.c **** static void ADC_InitConfig(uint8 config) ;
  69:.\Generated_Source\PSoC5/ADC.c **** static void ADC_GainCompensation(uint8 inputRange, uint16 idealDecGain, uint16 idealOddDecGain, 
  70:.\Generated_Source\PSoC5/ADC.c ****                             uint8 resolution, uint8 config) ;
  71:.\Generated_Source\PSoC5/ADC.c **** static void ADC_SetDSMRef0Reg(uint8 value) ;
  72:.\Generated_Source\PSoC5/ADC.c **** 
  73:.\Generated_Source\PSoC5/ADC.c **** 
  74:.\Generated_Source\PSoC5/ADC.c **** /******************************************************************************
  75:.\Generated_Source\PSoC5/ADC.c **** * Function Name: ADC_Init
  76:.\Generated_Source\PSoC5/ADC.c **** *******************************************************************************
  77:.\Generated_Source\PSoC5/ADC.c **** *
  78:.\Generated_Source\PSoC5/ADC.c **** * Summary:
  79:.\Generated_Source\PSoC5/ADC.c **** *  Initialize component's parameters to the parameters set by user in the
  80:.\Generated_Source\PSoC5/ADC.c **** *  customizer of the component placed onto schematic. Usually called in
  81:.\Generated_Source\PSoC5/ADC.c **** * ADC_Start().
  82:.\Generated_Source\PSoC5/ADC.c **** *
  83:.\Generated_Source\PSoC5/ADC.c **** *
  84:.\Generated_Source\PSoC5/ADC.c **** * Parameters:
  85:.\Generated_Source\PSoC5/ADC.c **** *  None
  86:.\Generated_Source\PSoC5/ADC.c **** *
  87:.\Generated_Source\PSoC5/ADC.c **** * Return:
  88:.\Generated_Source\PSoC5/ADC.c **** *  None
  89:.\Generated_Source\PSoC5/ADC.c **** *
ARM GAS  C:\Users\HENRYA~1\AppData\Local\Temp\ccEyCdcC.s 			page 3


  90:.\Generated_Source\PSoC5/ADC.c **** *******************************************************************************/
  91:.\Generated_Source\PSoC5/ADC.c **** void ADC_Init(void) 
  92:.\Generated_Source\PSoC5/ADC.c **** {
  93:.\Generated_Source\PSoC5/ADC.c **** 
  94:.\Generated_Source\PSoC5/ADC.c ****     ADC_Config = 1u;
  95:.\Generated_Source\PSoC5/ADC.c ****     ADC_convDone = 0u;
  96:.\Generated_Source\PSoC5/ADC.c **** 
  97:.\Generated_Source\PSoC5/ADC.c ****     ADC_Ext_CP_Clk_SetMode(CYCLK_DUTY);
  98:.\Generated_Source\PSoC5/ADC.c **** 
  99:.\Generated_Source\PSoC5/ADC.c ****     /* This is only valid if there is an internal clock */
 100:.\Generated_Source\PSoC5/ADC.c ****     #if(ADC_DEFAULT_INTERNAL_CLK)
 101:.\Generated_Source\PSoC5/ADC.c ****         ADC_theACLK_SetMode(CYCLK_DUTY);
 102:.\Generated_Source\PSoC5/ADC.c ****     #endif /* ADC_DEFAULT_INTERNAL_CLK */
 103:.\Generated_Source\PSoC5/ADC.c **** 
 104:.\Generated_Source\PSoC5/ADC.c ****     #if(ADC_IRQ_REMOVE == 0u)
 105:.\Generated_Source\PSoC5/ADC.c ****         /* Set interrupt priority */
 106:.\Generated_Source\PSoC5/ADC.c ****         CyIntSetPriority(ADC_INTC_NUMBER, ADC_INTC_PRIOR_NUMBER);
 107:.\Generated_Source\PSoC5/ADC.c ****     #endif   /* End ADC_IRQ_REMOVE */
 108:.\Generated_Source\PSoC5/ADC.c **** 
 109:.\Generated_Source\PSoC5/ADC.c ****     /* Init static registers with common configuration */
 110:.\Generated_Source\PSoC5/ADC.c ****     ADC_DSM_DEM0_REG    = ADC_CFG1_DSM_DEM0;
 111:.\Generated_Source\PSoC5/ADC.c ****     ADC_DSM_DEM1_REG    = ADC_CFG1_DSM_DEM1;
 112:.\Generated_Source\PSoC5/ADC.c ****     ADC_DSM_MISC_REG    = ADC_CFG1_DSM_MISC;
 113:.\Generated_Source\PSoC5/ADC.c ****     ADC_DSM_CLK_REG    |= ADC_CFG1_DSM_CLK;
 114:.\Generated_Source\PSoC5/ADC.c ****     ADC_DSM_REF1_REG    = ADC_CFG1_DSM_REF1;
 115:.\Generated_Source\PSoC5/ADC.c **** 
 116:.\Generated_Source\PSoC5/ADC.c ****     ADC_DSM_OUT0_REG    = ADC_CFG1_DSM_OUT0;
 117:.\Generated_Source\PSoC5/ADC.c ****     ADC_DSM_OUT1_REG    = ADC_CFG1_DSM_OUT1;
 118:.\Generated_Source\PSoC5/ADC.c **** 
 119:.\Generated_Source\PSoC5/ADC.c ****     ADC_DSM_CR0_REG     = ADC_CFG1_DSM_CR0;
 120:.\Generated_Source\PSoC5/ADC.c ****     ADC_DSM_CR1_REG     = ADC_CFG1_DSM_CR1;
 121:.\Generated_Source\PSoC5/ADC.c **** #if(ADC_MI_ENABLE != 0u) /* Enable Modulator Input */
 122:.\Generated_Source\PSoC5/ADC.c ****     ADC_DSM_CR3_REG     |= ADC_DSM_MODBIT_EN;
 123:.\Generated_Source\PSoC5/ADC.c **** #else
 124:.\Generated_Source\PSoC5/ADC.c ****     ADC_DSM_CR3_REG     = ADC_CFG1_DSM_CR3;
 125:.\Generated_Source\PSoC5/ADC.c **** #endif /* ADC_MI_ENABLE != 0u*/    
 126:.\Generated_Source\PSoC5/ADC.c ****     ADC_DSM_CR8_REG     = ADC_CFG1_DSM_CR8;
 127:.\Generated_Source\PSoC5/ADC.c ****     ADC_DSM_CR9_REG     = ADC_CFG1_DSM_CR9;
 128:.\Generated_Source\PSoC5/ADC.c ****     ADC_DSM_CR13_REG    = ADC_CFG1_DSM_CR13;
 129:.\Generated_Source\PSoC5/ADC.c **** 
 130:.\Generated_Source\PSoC5/ADC.c ****     ADC_DEC_SR_REG      = ADC_CFG1_DEC_SR;
 131:.\Generated_Source\PSoC5/ADC.c **** 
 132:.\Generated_Source\PSoC5/ADC.c ****     /* Calculate Gain compensation coefficients for all configurations */
 133:.\Generated_Source\PSoC5/ADC.c ****     ADC_GainCompensation(ADC_CFG1_INPUT_RANGE,
 134:.\Generated_Source\PSoC5/ADC.c ****                                       ADC_CFG1_IDEAL_DEC_GAIN,
 135:.\Generated_Source\PSoC5/ADC.c ****                                       ADC_CFG1_IDEAL_ODDDEC_GAIN,
 136:.\Generated_Source\PSoC5/ADC.c ****                                       ADC_CFG1_RESOLUTION,
 137:.\Generated_Source\PSoC5/ADC.c ****                                       ADC_CFG1);
 138:.\Generated_Source\PSoC5/ADC.c ****     #if(ADC_DEFAULT_NUM_CONFIGS > 1)
 139:.\Generated_Source\PSoC5/ADC.c ****         ADC_GainCompensation(ADC_CFG2_INPUT_RANGE,
 140:.\Generated_Source\PSoC5/ADC.c ****                                           ADC_CFG2_IDEAL_DEC_GAIN,
 141:.\Generated_Source\PSoC5/ADC.c ****                                           ADC_CFG2_IDEAL_ODDDEC_GAIN,
 142:.\Generated_Source\PSoC5/ADC.c ****                                           ADC_CFG2_RESOLUTION,
 143:.\Generated_Source\PSoC5/ADC.c ****                                           ADC_CFG2);
 144:.\Generated_Source\PSoC5/ADC.c ****     #endif /* ADC_DEFAULT_NUM_CONFIGS > 1 */
 145:.\Generated_Source\PSoC5/ADC.c ****     #if(ADC_DEFAULT_NUM_CONFIGS > 2)
 146:.\Generated_Source\PSoC5/ADC.c ****         ADC_GainCompensation(ADC_CFG3_INPUT_RANGE,
ARM GAS  C:\Users\HENRYA~1\AppData\Local\Temp\ccEyCdcC.s 			page 4


 147:.\Generated_Source\PSoC5/ADC.c ****                                           ADC_CFG3_IDEAL_DEC_GAIN,
 148:.\Generated_Source\PSoC5/ADC.c ****                                           ADC_CFG3_IDEAL_ODDDEC_GAIN,
 149:.\Generated_Source\PSoC5/ADC.c ****                                           ADC_CFG3_RESOLUTION,
 150:.\Generated_Source\PSoC5/ADC.c ****                                           ADC_CFG3);
 151:.\Generated_Source\PSoC5/ADC.c ****     #endif /* ADC_DEFAULT_NUM_CONFIGS > 2 */
 152:.\Generated_Source\PSoC5/ADC.c ****     #if(ADC_DEFAULT_NUM_CONFIGS > 3)
 153:.\Generated_Source\PSoC5/ADC.c ****         ADC_GainCompensation(ADC_CFG4_INPUT_RANGE,
 154:.\Generated_Source\PSoC5/ADC.c ****                                           ADC_CFG4_IDEAL_DEC_GAIN,
 155:.\Generated_Source\PSoC5/ADC.c ****                                           ADC_CFG4_IDEAL_ODDDEC_GAIN,
 156:.\Generated_Source\PSoC5/ADC.c ****                                           ADC_CFG4_RESOLUTION,
 157:.\Generated_Source\PSoC5/ADC.c ****                                           ADC_CFG4);
 158:.\Generated_Source\PSoC5/ADC.c ****     #endif /* ADC_DEFAULT_NUM_CONFIGS > 3 */
 159:.\Generated_Source\PSoC5/ADC.c **** 
 160:.\Generated_Source\PSoC5/ADC.c ****     /* Set GCOR register for config1 */
 161:.\Generated_Source\PSoC5/ADC.c ****     ADC_DEC_GVAL_REG = ADC_gcor[ADC_Config - 1u].gval;
 162:.\Generated_Source\PSoC5/ADC.c ****     CY_SET_REG16(ADC_DEC_GCOR_16B_PTR, ADC_gcor[ADC_Config - 1u].gcor);
 163:.\Generated_Source\PSoC5/ADC.c **** 
 164:.\Generated_Source\PSoC5/ADC.c ****     /* Initialize the registers with default customizer settings for config1 */
 165:.\Generated_Source\PSoC5/ADC.c ****     ADC_InitConfig(ADC_Config);
 166:.\Generated_Source\PSoC5/ADC.c **** }
 167:.\Generated_Source\PSoC5/ADC.c **** 
 168:.\Generated_Source\PSoC5/ADC.c **** 
 169:.\Generated_Source\PSoC5/ADC.c **** /******************************************************************************
 170:.\Generated_Source\PSoC5/ADC.c **** * Function Name: ADC_Enable
 171:.\Generated_Source\PSoC5/ADC.c **** *******************************************************************************
 172:.\Generated_Source\PSoC5/ADC.c **** *
 173:.\Generated_Source\PSoC5/ADC.c **** * Summary:
 174:.\Generated_Source\PSoC5/ADC.c **** *  Enables the ADC DelSig block operation.
 175:.\Generated_Source\PSoC5/ADC.c **** *
 176:.\Generated_Source\PSoC5/ADC.c **** *
 177:.\Generated_Source\PSoC5/ADC.c **** * Parameters:
 178:.\Generated_Source\PSoC5/ADC.c **** *  None
 179:.\Generated_Source\PSoC5/ADC.c **** *
 180:.\Generated_Source\PSoC5/ADC.c **** * Return:
 181:.\Generated_Source\PSoC5/ADC.c **** *  None
 182:.\Generated_Source\PSoC5/ADC.c **** *
 183:.\Generated_Source\PSoC5/ADC.c **** *******************************************************************************/
 184:.\Generated_Source\PSoC5/ADC.c **** void ADC_Enable(void) 
 185:.\Generated_Source\PSoC5/ADC.c **** {
 186:.\Generated_Source\PSoC5/ADC.c **** 	uint8 config;
 187:.\Generated_Source\PSoC5/ADC.c ****     uint8 enableInterrupts;
 188:.\Generated_Source\PSoC5/ADC.c ****     enableInterrupts = CyEnterCriticalSection();
 189:.\Generated_Source\PSoC5/ADC.c **** 
 190:.\Generated_Source\PSoC5/ADC.c ****     /* Read volatile variable to the local variable */
 191:.\Generated_Source\PSoC5/ADC.c ****     config = ADC_Config;
 192:.\Generated_Source\PSoC5/ADC.c ****     
 193:.\Generated_Source\PSoC5/ADC.c ****     /* Enable active mode power for ADC */
 194:.\Generated_Source\PSoC5/ADC.c ****     ADC_PWRMGR_DEC_REG |= ADC_ACT_PWR_DEC_EN;
 195:.\Generated_Source\PSoC5/ADC.c ****     ADC_PWRMGR_DSM_REG |= ADC_ACT_PWR_DSM_EN;
 196:.\Generated_Source\PSoC5/ADC.c **** 
 197:.\Generated_Source\PSoC5/ADC.c ****      /* Enable alternative active mode power for ADC */
 198:.\Generated_Source\PSoC5/ADC.c ****     ADC_STBY_PWRMGR_DEC_REG |= ADC_STBY_PWR_DEC_EN;
 199:.\Generated_Source\PSoC5/ADC.c ****     ADC_STBY_PWRMGR_DSM_REG |= ADC_STBY_PWR_DSM_EN;
 200:.\Generated_Source\PSoC5/ADC.c **** 
 201:.\Generated_Source\PSoC5/ADC.c ****     /* Disable PRES, Enable power to VCMBUF0, REFBUF0 and REFBUF1, enable PRES */
 202:.\Generated_Source\PSoC5/ADC.c ****     ADC_RESET_CR4_REG |= ADC_IGNORE_PRESA1;
 203:.\Generated_Source\PSoC5/ADC.c ****     ADC_RESET_CR5_REG |= ADC_IGNORE_PRESA2;
ARM GAS  C:\Users\HENRYA~1\AppData\Local\Temp\ccEyCdcC.s 			page 5


 204:.\Generated_Source\PSoC5/ADC.c **** 
 205:.\Generated_Source\PSoC5/ADC.c ****     ADC_DSM_CR17_REG |= (ADC_DSM_EN_BUF_VREF | ADC_DSM_EN_BUF_VCM);
 206:.\Generated_Source\PSoC5/ADC.c **** 
 207:.\Generated_Source\PSoC5/ADC.c ****     /* Code to disable the REFBUF0 if reference chosen is External ref */
 208:.\Generated_Source\PSoC5/ADC.c ****     #if (((ADC_CFG1_REFERENCE == ADC_EXT_REF_ON_P03) || \
 209:.\Generated_Source\PSoC5/ADC.c ****           (ADC_CFG1_REFERENCE == ADC_EXT_REF_ON_P32)) || \
 210:.\Generated_Source\PSoC5/ADC.c ****          ((ADC_DEFAULT_NUM_CONFIGS > 1) && \
 211:.\Generated_Source\PSoC5/ADC.c ****           ((ADC_CFG2_REFERENCE == ADC_EXT_REF_ON_P03) ||  \
 212:.\Generated_Source\PSoC5/ADC.c ****            (ADC_CFG2_REFERENCE == ADC_EXT_REF_ON_P32))) || \
 213:.\Generated_Source\PSoC5/ADC.c ****          ((ADC_DEFAULT_NUM_CONFIGS > 2) && \
 214:.\Generated_Source\PSoC5/ADC.c ****           ((ADC_CFG3_REFERENCE == ADC_EXT_REF_ON_P03) ||  \
 215:.\Generated_Source\PSoC5/ADC.c ****            (ADC_CFG3_REFERENCE == ADC_EXT_REF_ON_P32))) || \
 216:.\Generated_Source\PSoC5/ADC.c ****          ((ADC_DEFAULT_NUM_CONFIGS > 3) && \
 217:.\Generated_Source\PSoC5/ADC.c ****           ((ADC_CFG4_REFERENCE == ADC_EXT_REF_ON_P03) || \
 218:.\Generated_Source\PSoC5/ADC.c ****            (ADC_CFG4_REFERENCE == ADC_EXT_REF_ON_P32))))
 219:.\Generated_Source\PSoC5/ADC.c ****         if (((config == 1u) &&
 220:.\Generated_Source\PSoC5/ADC.c ****             ((ADC_CFG1_REFERENCE == ADC_EXT_REF_ON_P03) ||
 221:.\Generated_Source\PSoC5/ADC.c ****              (ADC_CFG1_REFERENCE == ADC_EXT_REF_ON_P32))) ||
 222:.\Generated_Source\PSoC5/ADC.c ****             ((config == 2u) &&
 223:.\Generated_Source\PSoC5/ADC.c ****             ((ADC_CFG2_REFERENCE == ADC_EXT_REF_ON_P03) ||
 224:.\Generated_Source\PSoC5/ADC.c ****              (ADC_CFG2_REFERENCE == ADC_EXT_REF_ON_P32))) ||
 225:.\Generated_Source\PSoC5/ADC.c ****             ((config == 3u) &&
 226:.\Generated_Source\PSoC5/ADC.c ****             ((ADC_CFG3_REFERENCE == ADC_EXT_REF_ON_P03) ||
 227:.\Generated_Source\PSoC5/ADC.c ****              (ADC_CFG3_REFERENCE == ADC_EXT_REF_ON_P32))) ||
 228:.\Generated_Source\PSoC5/ADC.c ****             ((config == 4u) &&
 229:.\Generated_Source\PSoC5/ADC.c ****             ((ADC_CFG4_REFERENCE == ADC_EXT_REF_ON_P03) ||
 230:.\Generated_Source\PSoC5/ADC.c ****              (ADC_CFG4_REFERENCE == ADC_EXT_REF_ON_P32))))
 231:.\Generated_Source\PSoC5/ADC.c ****         {
 232:.\Generated_Source\PSoC5/ADC.c ****             /* Disable the REFBUF0 */
 233:.\Generated_Source\PSoC5/ADC.c ****             ADC_DSM_CR17_REG &= (uint8)~ADC_DSM_EN_BUF_VREF;
 234:.\Generated_Source\PSoC5/ADC.c ****         }
 235:.\Generated_Source\PSoC5/ADC.c ****     #endif /* External ref */
 236:.\Generated_Source\PSoC5/ADC.c **** 
 237:.\Generated_Source\PSoC5/ADC.c ****     #if (((ADC_CFG1_INPUT_RANGE == ADC_IR_VSSA_TO_2VREF) || \
 238:.\Generated_Source\PSoC5/ADC.c ****          ((ADC_DEFAULT_NUM_CONFIGS > 1) && \
 239:.\Generated_Source\PSoC5/ADC.c ****           (ADC_CFG2_INPUT_RANGE == ADC_IR_VSSA_TO_2VREF)) || \
 240:.\Generated_Source\PSoC5/ADC.c ****          ((ADC_DEFAULT_NUM_CONFIGS > 2) && \
 241:.\Generated_Source\PSoC5/ADC.c ****           (ADC_CFG3_INPUT_RANGE == ADC_IR_VSSA_TO_2VREF)) || \
 242:.\Generated_Source\PSoC5/ADC.c ****          ((ADC_DEFAULT_NUM_CONFIGS > 3) && \
 243:.\Generated_Source\PSoC5/ADC.c ****           (ADC_CFG4_INPUT_RANGE == ADC_IR_VSSA_TO_2VREF))))
 244:.\Generated_Source\PSoC5/ADC.c ****         if(((config == 1u) &&
 245:.\Generated_Source\PSoC5/ADC.c ****             (ADC_CFG1_INPUT_RANGE == ADC_IR_VSSA_TO_2VREF) &&
 246:.\Generated_Source\PSoC5/ADC.c ****             ((ADC_CFG1_REFERENCE != ADC_EXT_REF_ON_P03) &&
 247:.\Generated_Source\PSoC5/ADC.c ****              (ADC_CFG1_REFERENCE != ADC_EXT_REF_ON_P32))) ||
 248:.\Generated_Source\PSoC5/ADC.c ****              ((config == 2u) &&
 249:.\Generated_Source\PSoC5/ADC.c ****               (ADC_CFG2_INPUT_RANGE == ADC_IR_VSSA_TO_2VREF) &&
 250:.\Generated_Source\PSoC5/ADC.c ****              ((ADC_CFG2_REFERENCE != ADC_EXT_REF_ON_P03) &&
 251:.\Generated_Source\PSoC5/ADC.c ****              (ADC_CFG2_REFERENCE != ADC_EXT_REF_ON_P32))) ||
 252:.\Generated_Source\PSoC5/ADC.c ****              ((config == 3u) &&
 253:.\Generated_Source\PSoC5/ADC.c ****               (ADC_CFG3_INPUT_RANGE == ADC_IR_VSSA_TO_2VREF) &&
 254:.\Generated_Source\PSoC5/ADC.c ****              ((ADC_CFG3_REFERENCE != ADC_EXT_REF_ON_P03) &&
 255:.\Generated_Source\PSoC5/ADC.c ****              (ADC_CFG3_REFERENCE != ADC_EXT_REF_ON_P32))) ||
 256:.\Generated_Source\PSoC5/ADC.c ****              ((config == 4u) &&
 257:.\Generated_Source\PSoC5/ADC.c ****               (ADC_CFG4_INPUT_RANGE == ADC_IR_VSSA_TO_2VREF) &&
 258:.\Generated_Source\PSoC5/ADC.c ****              ((ADC_CFG4_REFERENCE != ADC_EXT_REF_ON_P03) &&
 259:.\Generated_Source\PSoC5/ADC.c ****              (ADC_CFG4_REFERENCE != ADC_EXT_REF_ON_P32))))
 260:.\Generated_Source\PSoC5/ADC.c ****         {
ARM GAS  C:\Users\HENRYA~1\AppData\Local\Temp\ccEyCdcC.s 			page 6


 261:.\Generated_Source\PSoC5/ADC.c ****             /* Enable the REFBUF1 */
 262:.\Generated_Source\PSoC5/ADC.c ****             ADC_DSM_REF0_REG |= ADC_DSM_EN_BUF_VREF_INN;
 263:.\Generated_Source\PSoC5/ADC.c ****         }
 264:.\Generated_Source\PSoC5/ADC.c ****     #endif /* VSSA_TO_2VREF */
 265:.\Generated_Source\PSoC5/ADC.c ****     if(config != 0u)
 266:.\Generated_Source\PSoC5/ADC.c ****     {
 267:.\Generated_Source\PSoC5/ADC.c ****         /* Suppress compiler warning */
 268:.\Generated_Source\PSoC5/ADC.c ****     }
 269:.\Generated_Source\PSoC5/ADC.c **** 
 270:.\Generated_Source\PSoC5/ADC.c ****     /* Wait for 3 microseconds */
 271:.\Generated_Source\PSoC5/ADC.c ****     CyDelayUs(ADC_PRES_DELAY_TIME);
 272:.\Generated_Source\PSoC5/ADC.c **** 
 273:.\Generated_Source\PSoC5/ADC.c ****     /* Enable the press circuit */
 274:.\Generated_Source\PSoC5/ADC.c ****     ADC_RESET_CR4_REG &= (uint8)~ADC_IGNORE_PRESA1;
 275:.\Generated_Source\PSoC5/ADC.c ****     ADC_RESET_CR5_REG &= (uint8)~ADC_IGNORE_PRESA2;
 276:.\Generated_Source\PSoC5/ADC.c **** 
 277:.\Generated_Source\PSoC5/ADC.c ****     /* Enable negative pumps for DSM  */
 278:.\Generated_Source\PSoC5/ADC.c ****     ADC_PUMP_CR1_REG  |= ( ADC_PUMP_CR1_CLKSEL | ADC_PUMP_CR1_FORCE );
 279:.\Generated_Source\PSoC5/ADC.c **** 
 280:.\Generated_Source\PSoC5/ADC.c ****     /* Enable Modulator Chopping if required */
 281:.\Generated_Source\PSoC5/ADC.c ****     ADC_DSM_CR2_REG = ADC_CFG1_DSM_CR2;
 282:.\Generated_Source\PSoC5/ADC.c **** 
 283:.\Generated_Source\PSoC5/ADC.c ****     /* This is only valid if there is an internal clock */
 284:.\Generated_Source\PSoC5/ADC.c ****     #if(ADC_DEFAULT_INTERNAL_CLK)
 285:.\Generated_Source\PSoC5/ADC.c ****         ADC_PWRMGR_CLK_REG |= ADC_ACT_PWR_CLK_EN;
 286:.\Generated_Source\PSoC5/ADC.c ****         ADC_STBY_PWRMGR_CLK_REG |= ADC_STBY_PWR_CLK_EN;
 287:.\Generated_Source\PSoC5/ADC.c ****     #endif /* ADC_DEFAULT_INTERNAL_CLK */
 288:.\Generated_Source\PSoC5/ADC.c **** 
 289:.\Generated_Source\PSoC5/ADC.c ****     /* Enable the active and alternate active power for charge pump clock */
 290:.\Generated_Source\PSoC5/ADC.c ****     ADC_PWRMGR_CHARGE_PUMP_CLK_REG |= ADC_ACT_PWR_CHARGE_PUMP_CLK_EN;
 291:.\Generated_Source\PSoC5/ADC.c ****     ADC_STBY_PWRMGR_CHARGE_PUMP_CLK_REG |= ADC_STBY_PWR_CHARGE_PUMP_CLK_EN;
 292:.\Generated_Source\PSoC5/ADC.c **** 
 293:.\Generated_Source\PSoC5/ADC.c ****     #if(ADC_IRQ_REMOVE == 0u)
 294:.\Generated_Source\PSoC5/ADC.c ****         /* Clear a pending interrupt */
 295:.\Generated_Source\PSoC5/ADC.c ****         CyIntClearPending(ADC_INTC_NUMBER);
 296:.\Generated_Source\PSoC5/ADC.c ****         /* Enable interrupt */
 297:.\Generated_Source\PSoC5/ADC.c ****         CyIntEnable(ADC_INTC_NUMBER);
 298:.\Generated_Source\PSoC5/ADC.c ****     #endif   /* End ADC_IRQ_REMOVE */
 299:.\Generated_Source\PSoC5/ADC.c **** 
 300:.\Generated_Source\PSoC5/ADC.c ****     CyExitCriticalSection(enableInterrupts);
 301:.\Generated_Source\PSoC5/ADC.c **** 
 302:.\Generated_Source\PSoC5/ADC.c **** }
 303:.\Generated_Source\PSoC5/ADC.c **** 
 304:.\Generated_Source\PSoC5/ADC.c **** 
 305:.\Generated_Source\PSoC5/ADC.c **** /*******************************************************************************
 306:.\Generated_Source\PSoC5/ADC.c **** * Function Name: ADC_Start
 307:.\Generated_Source\PSoC5/ADC.c **** ********************************************************************************
 308:.\Generated_Source\PSoC5/ADC.c **** *
 309:.\Generated_Source\PSoC5/ADC.c **** * Summary:
 310:.\Generated_Source\PSoC5/ADC.c **** *  Performs all required initialization for this component and enables
 311:.\Generated_Source\PSoC5/ADC.c **** *  the power. It configure all the register the first time it is called.
 312:.\Generated_Source\PSoC5/ADC.c **** *  Subsequent calls of the Start function only enable the ADC and turn
 313:.\Generated_Source\PSoC5/ADC.c **** *  on the power. If multiple configurations are selected, it will
 314:.\Generated_Source\PSoC5/ADC.c **** *  configure the ADC for configuration 1 by default, unless the
 315:.\Generated_Source\PSoC5/ADC.c **** *  ADC_SelectConfiguration( ) function has been called to change
 316:.\Generated_Source\PSoC5/ADC.c **** *  the default setting.
 317:.\Generated_Source\PSoC5/ADC.c **** *
ARM GAS  C:\Users\HENRYA~1\AppData\Local\Temp\ccEyCdcC.s 			page 7


 318:.\Generated_Source\PSoC5/ADC.c **** * Parameters:
 319:.\Generated_Source\PSoC5/ADC.c **** *  None
 320:.\Generated_Source\PSoC5/ADC.c **** *
 321:.\Generated_Source\PSoC5/ADC.c **** * Return:
 322:.\Generated_Source\PSoC5/ADC.c **** *  None
 323:.\Generated_Source\PSoC5/ADC.c **** *
 324:.\Generated_Source\PSoC5/ADC.c **** * Global variables:
 325:.\Generated_Source\PSoC5/ADC.c **** *  ADC_initVar:  Used to check the initial configuration,
 326:.\Generated_Source\PSoC5/ADC.c **** *  modified when this function is called for the first time.
 327:.\Generated_Source\PSoC5/ADC.c **** *
 328:.\Generated_Source\PSoC5/ADC.c **** *******************************************************************************/
 329:.\Generated_Source\PSoC5/ADC.c **** void ADC_Start(void) 
 330:.\Generated_Source\PSoC5/ADC.c **** {
 331:.\Generated_Source\PSoC5/ADC.c ****     if(ADC_initVar == 0u)
 332:.\Generated_Source\PSoC5/ADC.c ****     {
 333:.\Generated_Source\PSoC5/ADC.c ****         if(ADC_started == 0u)
 334:.\Generated_Source\PSoC5/ADC.c ****         {
 335:.\Generated_Source\PSoC5/ADC.c ****             ADC_Init();
 336:.\Generated_Source\PSoC5/ADC.c ****         }
 337:.\Generated_Source\PSoC5/ADC.c ****         ADC_initVar = 1u;
 338:.\Generated_Source\PSoC5/ADC.c ****     }
 339:.\Generated_Source\PSoC5/ADC.c **** 
 340:.\Generated_Source\PSoC5/ADC.c ****     /* Enable the ADC */
 341:.\Generated_Source\PSoC5/ADC.c ****     ADC_Enable();
 342:.\Generated_Source\PSoC5/ADC.c **** }
 343:.\Generated_Source\PSoC5/ADC.c **** 
 344:.\Generated_Source\PSoC5/ADC.c **** 
 345:.\Generated_Source\PSoC5/ADC.c **** /*******************************************************************************
 346:.\Generated_Source\PSoC5/ADC.c **** * Function Name: ADC_Stop
 347:.\Generated_Source\PSoC5/ADC.c **** ********************************************************************************
 348:.\Generated_Source\PSoC5/ADC.c **** *
 349:.\Generated_Source\PSoC5/ADC.c **** * Summary:
 350:.\Generated_Source\PSoC5/ADC.c **** *  This function stops and powers down the ADC component and the internal
 351:.\Generated_Source\PSoC5/ADC.c **** *  clock if the external clock is not selected. If an external clock is
 352:.\Generated_Source\PSoC5/ADC.c **** *  used, it is up to the designer to power down the external clock it
 353:.\Generated_Source\PSoC5/ADC.c **** *  required.
 354:.\Generated_Source\PSoC5/ADC.c **** *
 355:.\Generated_Source\PSoC5/ADC.c **** * Parameters:
 356:.\Generated_Source\PSoC5/ADC.c **** *  None
 357:.\Generated_Source\PSoC5/ADC.c **** *
 358:.\Generated_Source\PSoC5/ADC.c **** * Return:
 359:.\Generated_Source\PSoC5/ADC.c **** *  None
 360:.\Generated_Source\PSoC5/ADC.c **** *
 361:.\Generated_Source\PSoC5/ADC.c **** *******************************************************************************/
 362:.\Generated_Source\PSoC5/ADC.c **** void ADC_Stop(void) 
 363:.\Generated_Source\PSoC5/ADC.c **** {
 364:.\Generated_Source\PSoC5/ADC.c ****     uint8 enableInterrupts;
 365:.\Generated_Source\PSoC5/ADC.c ****     enableInterrupts = CyEnterCriticalSection();
 366:.\Generated_Source\PSoC5/ADC.c **** 
 367:.\Generated_Source\PSoC5/ADC.c ****     /* Stop conversions */
 368:.\Generated_Source\PSoC5/ADC.c ****     ADC_DEC_CR_REG &= (uint8)~ADC_DEC_START_CONV;
 369:.\Generated_Source\PSoC5/ADC.c ****     ADC_DEC_SR_REG |=  ADC_DEC_INTR_CLEAR;
 370:.\Generated_Source\PSoC5/ADC.c **** 
 371:.\Generated_Source\PSoC5/ADC.c ****     /* Disable PRES, Disable power to VCMBUF0, REFBUF0 and REFBUF1,
 372:.\Generated_Source\PSoC5/ADC.c ****        enable PRES */
 373:.\Generated_Source\PSoC5/ADC.c ****     ADC_RESET_CR4_REG |= ADC_IGNORE_PRESA1;
 374:.\Generated_Source\PSoC5/ADC.c ****     ADC_RESET_CR5_REG |= ADC_IGNORE_PRESA2;
ARM GAS  C:\Users\HENRYA~1\AppData\Local\Temp\ccEyCdcC.s 			page 8


 375:.\Generated_Source\PSoC5/ADC.c **** 
 376:.\Generated_Source\PSoC5/ADC.c ****     ADC_DSM_CR17_REG &= (uint8)~(ADC_DSM_EN_BUF_VREF | ADC_DSM_EN_BUF_VCM);
 377:.\Generated_Source\PSoC5/ADC.c ****     ADC_DSM_REF0_REG &= (uint8)~ADC_DSM_EN_BUF_VREF_INN;
 378:.\Generated_Source\PSoC5/ADC.c **** 
 379:.\Generated_Source\PSoC5/ADC.c ****     /* Wait for 3 microseconds. */
 380:.\Generated_Source\PSoC5/ADC.c ****     CyDelayUs(ADC_PRES_DELAY_TIME);
 381:.\Generated_Source\PSoC5/ADC.c **** 
 382:.\Generated_Source\PSoC5/ADC.c ****     /* Enable the press circuit */
 383:.\Generated_Source\PSoC5/ADC.c ****     ADC_RESET_CR4_REG &= (uint8)~ADC_IGNORE_PRESA1;
 384:.\Generated_Source\PSoC5/ADC.c ****     ADC_RESET_CR5_REG &= (uint8)~ADC_IGNORE_PRESA2;
 385:.\Generated_Source\PSoC5/ADC.c **** 
 386:.\Generated_Source\PSoC5/ADC.c ****     /* Disable power to the ADC */
 387:.\Generated_Source\PSoC5/ADC.c ****     ADC_PWRMGR_DSM_REG &= (uint8)~ADC_ACT_PWR_DSM_EN;
 388:.\Generated_Source\PSoC5/ADC.c **** 
 389:.\Generated_Source\PSoC5/ADC.c ****     /* Disable power to Decimator block */
 390:.\Generated_Source\PSoC5/ADC.c ****     ADC_PWRMGR_DEC_REG &= (uint8)~ADC_ACT_PWR_DEC_EN;
 391:.\Generated_Source\PSoC5/ADC.c **** 
 392:.\Generated_Source\PSoC5/ADC.c ****     /* Disable alternative active power to the ADC */
 393:.\Generated_Source\PSoC5/ADC.c ****     ADC_STBY_PWRMGR_DEC_REG &= (uint8)~ADC_STBY_PWR_DEC_EN;
 394:.\Generated_Source\PSoC5/ADC.c ****     ADC_STBY_PWRMGR_DSM_REG &= (uint8)~ADC_STBY_PWR_DSM_EN;
 395:.\Generated_Source\PSoC5/ADC.c **** 
 396:.\Generated_Source\PSoC5/ADC.c ****    /* Disable negative pumps for DSM  */
 397:.\Generated_Source\PSoC5/ADC.c ****     ADC_PUMP_CR1_REG &= (uint8)~(ADC_PUMP_CR1_CLKSEL | ADC_PUMP_CR1_FORCE );
 398:.\Generated_Source\PSoC5/ADC.c **** 
 399:.\Generated_Source\PSoC5/ADC.c ****     /* This is only valid if there is an internal clock */
 400:.\Generated_Source\PSoC5/ADC.c ****     #if(ADC_DEFAULT_INTERNAL_CLK)
 401:.\Generated_Source\PSoC5/ADC.c ****         ADC_PWRMGR_CLK_REG &= (uint8)~ADC_ACT_PWR_CLK_EN;
 402:.\Generated_Source\PSoC5/ADC.c ****         ADC_STBY_PWRMGR_CLK_REG &= (uint8)~ADC_STBY_PWR_CLK_EN;
 403:.\Generated_Source\PSoC5/ADC.c ****     #endif /* ADC_DEFAULT_INTERNAL_CLK */
 404:.\Generated_Source\PSoC5/ADC.c **** 
 405:.\Generated_Source\PSoC5/ADC.c ****     /* Disable Modulator Chopping */
 406:.\Generated_Source\PSoC5/ADC.c ****     ADC_DSM_CR2_REG &= (uint8)~ADC_DSM_MOD_CHOP_EN;
 407:.\Generated_Source\PSoC5/ADC.c ****     /* Disable power to charge pump clock */
 408:.\Generated_Source\PSoC5/ADC.c ****     ADC_PWRMGR_CHARGE_PUMP_CLK_REG &= (uint8)~ADC_ACT_PWR_CHARGE_PUMP_CLK_EN;
 409:.\Generated_Source\PSoC5/ADC.c ****     ADC_STBY_PWRMGR_CHARGE_PUMP_CLK_REG &= (uint8)~ADC_STBY_PWR_CHARGE_PUMP_CLK_EN;
 410:.\Generated_Source\PSoC5/ADC.c ****     
 411:.\Generated_Source\PSoC5/ADC.c ****     CyExitCriticalSection(enableInterrupts);
 412:.\Generated_Source\PSoC5/ADC.c **** }
 413:.\Generated_Source\PSoC5/ADC.c **** 
 414:.\Generated_Source\PSoC5/ADC.c **** 
 415:.\Generated_Source\PSoC5/ADC.c **** /*******************************************************************************
 416:.\Generated_Source\PSoC5/ADC.c **** * Function Name: ADC_SetBufferGain
 417:.\Generated_Source\PSoC5/ADC.c **** ********************************************************************************
 418:.\Generated_Source\PSoC5/ADC.c **** *
 419:.\Generated_Source\PSoC5/ADC.c **** * Summary:
 420:.\Generated_Source\PSoC5/ADC.c **** *  Sets input buffer gain.
 421:.\Generated_Source\PSoC5/ADC.c **** *
 422:.\Generated_Source\PSoC5/ADC.c **** * Parameters:
 423:.\Generated_Source\PSoC5/ADC.c **** *  gain:  Two bit value to select a gain of 1, 2, 4, or 8.
 424:.\Generated_Source\PSoC5/ADC.c **** *
 425:.\Generated_Source\PSoC5/ADC.c **** * Return:
 426:.\Generated_Source\PSoC5/ADC.c **** *  None
 427:.\Generated_Source\PSoC5/ADC.c **** *
 428:.\Generated_Source\PSoC5/ADC.c **** *******************************************************************************/
 429:.\Generated_Source\PSoC5/ADC.c **** void ADC_SetBufferGain(uint8 gain) 
 430:.\Generated_Source\PSoC5/ADC.c **** {
 431:.\Generated_Source\PSoC5/ADC.c ****     uint8 tmpReg;
ARM GAS  C:\Users\HENRYA~1\AppData\Local\Temp\ccEyCdcC.s 			page 9


 432:.\Generated_Source\PSoC5/ADC.c ****     tmpReg = ADC_DSM_BUF1_REG & (uint8)~ADC_DSM_GAIN_MASK;
 433:.\Generated_Source\PSoC5/ADC.c ****     tmpReg |= (uint8)(gain << ADC_DSM_GAIN_SHIFT) & ADC_DSM_GAIN_MASK;
 434:.\Generated_Source\PSoC5/ADC.c ****     ADC_DSM_BUF1_REG = tmpReg;
 435:.\Generated_Source\PSoC5/ADC.c **** }
 436:.\Generated_Source\PSoC5/ADC.c **** 
 437:.\Generated_Source\PSoC5/ADC.c **** 
 438:.\Generated_Source\PSoC5/ADC.c **** /*******************************************************************************
 439:.\Generated_Source\PSoC5/ADC.c **** * Function Name: ADC_SetCoherency
 440:.\Generated_Source\PSoC5/ADC.c **** ********************************************************************************
 441:.\Generated_Source\PSoC5/ADC.c **** *
 442:.\Generated_Source\PSoC5/ADC.c **** * Summary:
 443:.\Generated_Source\PSoC5/ADC.c **** *  This function allows the user to change which of the ADC's 3 word
 444:.\Generated_Source\PSoC5/ADC.c **** *  result will trigger a coherency unlock. The ADC's result will not be
 445:.\Generated_Source\PSoC5/ADC.c **** *  updated until the set byte is read either by the ADC or DMA. 
 446:.\Generated_Source\PSoC5/ADC.c **** *  By default the LSB is the coherency byte for right alignment data format. 
 447:.\Generated_Source\PSoC5/ADC.c **** *  The middle or high byte is set automatically depend on left alignment 
 448:.\Generated_Source\PSoC5/ADC.c **** *  configuration for DMA data transfer.
 449:.\Generated_Source\PSoC5/ADC.c **** *  If DMA or if a custom API requires different byte to be read the last,
 450:.\Generated_Source\PSoC5/ADC.c **** *  this API should be used to set the last byte of the ADC result that is read. 
 451:.\Generated_Source\PSoC5/ADC.c **** *  If a multibyte read is performed either by DMA or the ARM processor, the
 452:.\Generated_Source\PSoC5/ADC.c **** *  coherency can be set to any byte in the last word read.
 453:.\Generated_Source\PSoC5/ADC.c **** *
 454:.\Generated_Source\PSoC5/ADC.c **** * Parameters:
 455:.\Generated_Source\PSoC5/ADC.c **** *  coherency:  Two bit value to set the coherency bit.
 456:.\Generated_Source\PSoC5/ADC.c **** *           00-Coherency checking off
 457:.\Generated_Source\PSoC5/ADC.c **** *           01-low byte is key byte
 458:.\Generated_Source\PSoC5/ADC.c **** *           02-middle byte is the key byte
 459:.\Generated_Source\PSoC5/ADC.c **** *           03-high byte is the key byte
 460:.\Generated_Source\PSoC5/ADC.c **** *
 461:.\Generated_Source\PSoC5/ADC.c **** * Return:
 462:.\Generated_Source\PSoC5/ADC.c **** *  None
 463:.\Generated_Source\PSoC5/ADC.c **** *
 464:.\Generated_Source\PSoC5/ADC.c **** *******************************************************************************/
 465:.\Generated_Source\PSoC5/ADC.c **** void ADC_SetCoherency(uint8 coherency) 
 466:.\Generated_Source\PSoC5/ADC.c **** {
 467:.\Generated_Source\PSoC5/ADC.c ****     uint8 tmpReg;
 468:.\Generated_Source\PSoC5/ADC.c **** 
 469:.\Generated_Source\PSoC5/ADC.c ****     tmpReg = ADC_DEC_COHER_REG & (uint8)~ADC_DEC_SAMP_KEY_MASK;
 470:.\Generated_Source\PSoC5/ADC.c ****     tmpReg |= coherency & ADC_DEC_SAMP_KEY_MASK;
 471:.\Generated_Source\PSoC5/ADC.c ****     ADC_DEC_COHER_REG = tmpReg;
 472:.\Generated_Source\PSoC5/ADC.c **** }
 473:.\Generated_Source\PSoC5/ADC.c **** 
 474:.\Generated_Source\PSoC5/ADC.c **** 
 475:.\Generated_Source\PSoC5/ADC.c **** /*******************************************************************************
 476:.\Generated_Source\PSoC5/ADC.c **** * Function Name: ADC_SetGCOR
 477:.\Generated_Source\PSoC5/ADC.c **** ********************************************************************************
 478:.\Generated_Source\PSoC5/ADC.c **** *
 479:.\Generated_Source\PSoC5/ADC.c **** * Summary:
 480:.\Generated_Source\PSoC5/ADC.c **** *  Calculates a new GCOR value and writes it into the GCOR register. 
 481:.\Generated_Source\PSoC5/ADC.c **** *  The GCOR value is a 16-bit value that represents a gain of 0 to 2. 
 482:.\Generated_Source\PSoC5/ADC.c **** *  The ADC result is multiplied by this value before it is placed in the ADC 
 483:.\Generated_Source\PSoC5/ADC.c **** *  output registers. The numerical format for the GCOR value is:
 484:.\Generated_Source\PSoC5/ADC.c **** *  0x0000 -> 0.000
 485:.\Generated_Source\PSoC5/ADC.c **** *  0x8000 -> 1.000
 486:.\Generated_Source\PSoC5/ADC.c **** *  0xFFFF -> 1.99997
 487:.\Generated_Source\PSoC5/ADC.c **** *  When executing the function, the old GCOR value is multiplied by
 488:.\Generated_Source\PSoC5/ADC.c **** *  gainAdjust and reloaded into the GCOR register.
ARM GAS  C:\Users\HENRYA~1\AppData\Local\Temp\ccEyCdcC.s 			page 10


 489:.\Generated_Source\PSoC5/ADC.c **** *
 490:.\Generated_Source\PSoC5/ADC.c **** * Parameters:
 491:.\Generated_Source\PSoC5/ADC.c **** *  gainAdjust:  floating point value to set GCOR registers.
 492:.\Generated_Source\PSoC5/ADC.c **** *
 493:.\Generated_Source\PSoC5/ADC.c **** * Return:
 494:.\Generated_Source\PSoC5/ADC.c **** *  uint8: 0 - if GCOR value is within the expected range.
 495:.\Generated_Source\PSoC5/ADC.c **** *         1 - the correction value is outside GCOR value range of
 496:.\Generated_Source\PSoC5/ADC.c **** *             0.00 to 1.9999.
 497:.\Generated_Source\PSoC5/ADC.c **** *
 498:.\Generated_Source\PSoC5/ADC.c **** * Side Effects:  The GVAL register is set to the amount of valid bits in the
 499:.\Generated_Source\PSoC5/ADC.c **** *                GCOR  register minus one. If GVAL is 15 (0x0F), all 16 bits
 500:.\Generated_Source\PSoC5/ADC.c **** *                of the GCOR registers will be valid. If for example GVAL is
 501:.\Generated_Source\PSoC5/ADC.c **** *                11 (0x0B) only 12 bits will be valid. The least 4 bits will
 502:.\Generated_Source\PSoC5/ADC.c **** *                be lost when the GCOR value is shifted 4 places to the right.
 503:.\Generated_Source\PSoC5/ADC.c **** *
 504:.\Generated_Source\PSoC5/ADC.c **** ******************************************************************************/
 505:.\Generated_Source\PSoC5/ADC.c **** uint8 ADC_SetGCOR(float32 gainAdjust) 
 506:.\Generated_Source\PSoC5/ADC.c **** {
 507:.\Generated_Source\PSoC5/ADC.c ****     uint16 tmpReg;
 508:.\Generated_Source\PSoC5/ADC.c ****     uint8 status;
 509:.\Generated_Source\PSoC5/ADC.c ****     float32 tmpValue;
 510:.\Generated_Source\PSoC5/ADC.c **** 
 511:.\Generated_Source\PSoC5/ADC.c ****     tmpReg = ADC_gcor[ADC_Config - 1u].gcor;
 512:.\Generated_Source\PSoC5/ADC.c ****     tmpValue = ((float32)tmpReg / (float32)ADC_IDEAL_GAIN_CONST);
 513:.\Generated_Source\PSoC5/ADC.c ****     tmpValue = tmpValue * gainAdjust;
 514:.\Generated_Source\PSoC5/ADC.c **** 
 515:.\Generated_Source\PSoC5/ADC.c ****     if (tmpValue > 1.9999)
 516:.\Generated_Source\PSoC5/ADC.c ****     {
 517:.\Generated_Source\PSoC5/ADC.c ****         status = 1u;
 518:.\Generated_Source\PSoC5/ADC.c ****     }
 519:.\Generated_Source\PSoC5/ADC.c ****     else
 520:.\Generated_Source\PSoC5/ADC.c ****     {
 521:.\Generated_Source\PSoC5/ADC.c ****         tmpValue *= (float32)ADC_IDEAL_GAIN_CONST;
 522:.\Generated_Source\PSoC5/ADC.c **** 		tmpReg = (uint16)tmpValue;
 523:.\Generated_Source\PSoC5/ADC.c ****         CY_SET_REG16(ADC_DEC_GCOR_16B_PTR, tmpReg);
 524:.\Generated_Source\PSoC5/ADC.c ****         /* Update gain array to be used by SelectConfiguration() API */
 525:.\Generated_Source\PSoC5/ADC.c ****        ADC_gcor[ADC_Config - 1u].gcor = tmpReg;
 526:.\Generated_Source\PSoC5/ADC.c **** 
 527:.\Generated_Source\PSoC5/ADC.c ****         status = 0u;
 528:.\Generated_Source\PSoC5/ADC.c **** 
 529:.\Generated_Source\PSoC5/ADC.c ****     }
 530:.\Generated_Source\PSoC5/ADC.c ****     return(status);
 531:.\Generated_Source\PSoC5/ADC.c **** }
 532:.\Generated_Source\PSoC5/ADC.c **** 
 533:.\Generated_Source\PSoC5/ADC.c **** 
 534:.\Generated_Source\PSoC5/ADC.c **** /******************************************************************************
 535:.\Generated_Source\PSoC5/ADC.c **** * Function Name: ADC_ReadGCOR
 536:.\Generated_Source\PSoC5/ADC.c **** *******************************************************************************
 537:.\Generated_Source\PSoC5/ADC.c **** *
 538:.\Generated_Source\PSoC5/ADC.c **** * Summary:
 539:.\Generated_Source\PSoC5/ADC.c **** *  This API returns the current GCOR register value, normalized based on the
 540:.\Generated_Source\PSoC5/ADC.c **** *  GVAL register settings.
 541:.\Generated_Source\PSoC5/ADC.c **** *  For example, if the GCOR value is 0x0812 and the GVAL register is set to 
 542:.\Generated_Source\PSoC5/ADC.c **** *  11 (0x0B) then the returned value will be shifted by for bits to the left.
 543:.\Generated_Source\PSoC5/ADC.c **** *  (Actual GCOR value = 0x0812, returned value = 0x8120)
 544:.\Generated_Source\PSoC5/ADC.c **** *
 545:.\Generated_Source\PSoC5/ADC.c **** * Parameters:
ARM GAS  C:\Users\HENRYA~1\AppData\Local\Temp\ccEyCdcC.s 			page 11


 546:.\Generated_Source\PSoC5/ADC.c **** *  None
 547:.\Generated_Source\PSoC5/ADC.c **** *
 548:.\Generated_Source\PSoC5/ADC.c **** * Return:
 549:.\Generated_Source\PSoC5/ADC.c **** *  uint16:  Normalized GCOR value.
 550:.\Generated_Source\PSoC5/ADC.c **** *
 551:.\Generated_Source\PSoC5/ADC.c **** *******************************************************************************/
 552:.\Generated_Source\PSoC5/ADC.c **** uint16 ADC_ReadGCOR(void) 
 553:.\Generated_Source\PSoC5/ADC.c **** {
 554:.\Generated_Source\PSoC5/ADC.c ****     uint8 gValue;
 555:.\Generated_Source\PSoC5/ADC.c ****     uint16 gcorValue;
 556:.\Generated_Source\PSoC5/ADC.c **** 
 557:.\Generated_Source\PSoC5/ADC.c ****     gValue = ADC_DEC_GVAL_REG;
 558:.\Generated_Source\PSoC5/ADC.c ****     gcorValue = CY_GET_REG16(ADC_DEC_GCOR_16B_PTR);
 559:.\Generated_Source\PSoC5/ADC.c **** 
 560:.\Generated_Source\PSoC5/ADC.c ****     if (gValue < ADC_MAX_GVAL)
 561:.\Generated_Source\PSoC5/ADC.c ****     {
 562:.\Generated_Source\PSoC5/ADC.c ****         gcorValue <<= ADC_MAX_GVAL - gValue;
 563:.\Generated_Source\PSoC5/ADC.c ****     }
 564:.\Generated_Source\PSoC5/ADC.c **** 
 565:.\Generated_Source\PSoC5/ADC.c ****     return gcorValue;
 566:.\Generated_Source\PSoC5/ADC.c **** }
 567:.\Generated_Source\PSoC5/ADC.c **** 
 568:.\Generated_Source\PSoC5/ADC.c **** 
 569:.\Generated_Source\PSoC5/ADC.c **** /*******************************************************************************
 570:.\Generated_Source\PSoC5/ADC.c **** * Function Name: ADC_StartConvert
 571:.\Generated_Source\PSoC5/ADC.c **** ********************************************************************************
 572:.\Generated_Source\PSoC5/ADC.c **** *
 573:.\Generated_Source\PSoC5/ADC.c **** * Summary:
 574:.\Generated_Source\PSoC5/ADC.c **** *  Forces the ADC to initiate a conversion. If in the "Single Sample"
 575:.\Generated_Source\PSoC5/ADC.c **** *  mode, one conversion will be performed then the ADC will halt. If in
 576:.\Generated_Source\PSoC5/ADC.c **** *  one of the other three conversion modes, the ADC will run
 577:.\Generated_Source\PSoC5/ADC.c **** *  continuously until the ADC_Stop() or ADC_StopConvert() is called.
 578:.\Generated_Source\PSoC5/ADC.c **** *
 579:.\Generated_Source\PSoC5/ADC.c **** * Parameters:
 580:.\Generated_Source\PSoC5/ADC.c **** *  None
 581:.\Generated_Source\PSoC5/ADC.c **** *
 582:.\Generated_Source\PSoC5/ADC.c **** * Return:
 583:.\Generated_Source\PSoC5/ADC.c **** *  None
 584:.\Generated_Source\PSoC5/ADC.c **** *
 585:.\Generated_Source\PSoC5/ADC.c **** *******************************************************************************/
 586:.\Generated_Source\PSoC5/ADC.c **** void ADC_StartConvert(void) 
 587:.\Generated_Source\PSoC5/ADC.c **** {
 588:.\Generated_Source\PSoC5/ADC.c ****     /* Start the conversion */
 589:.\Generated_Source\PSoC5/ADC.c ****     ADC_DEC_CR_REG |= ADC_DEC_START_CONV;
 590:.\Generated_Source\PSoC5/ADC.c **** }
 591:.\Generated_Source\PSoC5/ADC.c **** 
 592:.\Generated_Source\PSoC5/ADC.c **** 
 593:.\Generated_Source\PSoC5/ADC.c **** /*******************************************************************************
 594:.\Generated_Source\PSoC5/ADC.c **** * Function Name: ADC_StopConvert
 595:.\Generated_Source\PSoC5/ADC.c **** ********************************************************************************
 596:.\Generated_Source\PSoC5/ADC.c **** *
 597:.\Generated_Source\PSoC5/ADC.c **** * Summary:
 598:.\Generated_Source\PSoC5/ADC.c **** *  Forces the ADC to stop all conversions. If the ADC is in the middle of a
 599:.\Generated_Source\PSoC5/ADC.c **** *  conversion, the ADC will be reset and not provide a result for that partial
 600:.\Generated_Source\PSoC5/ADC.c **** *  conversion.
 601:.\Generated_Source\PSoC5/ADC.c **** *
 602:.\Generated_Source\PSoC5/ADC.c **** * Parameters:
ARM GAS  C:\Users\HENRYA~1\AppData\Local\Temp\ccEyCdcC.s 			page 12


 603:.\Generated_Source\PSoC5/ADC.c **** *  None
 604:.\Generated_Source\PSoC5/ADC.c **** *
 605:.\Generated_Source\PSoC5/ADC.c **** * Return:
 606:.\Generated_Source\PSoC5/ADC.c **** *  None
 607:.\Generated_Source\PSoC5/ADC.c **** *
 608:.\Generated_Source\PSoC5/ADC.c **** *******************************************************************************/
 609:.\Generated_Source\PSoC5/ADC.c **** void ADC_StopConvert(void) 
 610:.\Generated_Source\PSoC5/ADC.c **** {
 611:.\Generated_Source\PSoC5/ADC.c ****     /* Stop all conversions */
 612:.\Generated_Source\PSoC5/ADC.c ****     ADC_DEC_CR_REG &= (uint8)~ADC_DEC_START_CONV;
 613:.\Generated_Source\PSoC5/ADC.c **** }
 614:.\Generated_Source\PSoC5/ADC.c **** 
 615:.\Generated_Source\PSoC5/ADC.c **** 
 616:.\Generated_Source\PSoC5/ADC.c **** /*******************************************************************************
 617:.\Generated_Source\PSoC5/ADC.c **** * Function Name: ADC_IsEndConversion
 618:.\Generated_Source\PSoC5/ADC.c **** ********************************************************************************
 619:.\Generated_Source\PSoC5/ADC.c **** *
 620:.\Generated_Source\PSoC5/ADC.c **** * Summary:
 621:.\Generated_Source\PSoC5/ADC.c **** *  Checks the status that the most recently started conversion has completed.
 622:.\Generated_Source\PSoC5/ADC.c **** *  The status is cleared by any of ADC_GetResult8(), ADC_GetResult16() or 
 623:.\Generated_Source\PSoC5/ADC.c **** *  ADC_GetResult32() API.
 624:.\Generated_Source\PSoC5/ADC.c **** *  This function provides the programmer with two options. In one mode this 
 625:.\Generated_Source\PSoC5/ADC.c **** *  function immediately returns with the conversion status. In the other mode,
 626:.\Generated_Source\PSoC5/ADC.c **** *  the function does not return (blocking) until the conversion has completed.
 627:.\Generated_Source\PSoC5/ADC.c **** *
 628:.\Generated_Source\PSoC5/ADC.c **** * Parameters:
 629:.\Generated_Source\PSoC5/ADC.c **** *  retMode: Check conversion return mode. See the following table for options.
 630:.\Generated_Source\PSoC5/ADC.c **** *   ADC_RETURN_STATUS -   Immediately returns conversion result
 631:.\Generated_Source\PSoC5/ADC.c **** *                                      status.
 632:.\Generated_Source\PSoC5/ADC.c **** *   ADC_WAIT_FOR_RESULT - Does not return until ADC conversion
 633:.\Generated_Source\PSoC5/ADC.c **** *                                      is complete.
 634:.\Generated_Source\PSoC5/ADC.c **** *
 635:.\Generated_Source\PSoC5/ADC.c **** * Return:
 636:.\Generated_Source\PSoC5/ADC.c **** *  If a nonzero value is returned, the last conversion has completed.
 637:.\Generated_Source\PSoC5/ADC.c **** *  If the returned value is zero, the ADC is still calculating the last result.
 638:.\Generated_Source\PSoC5/ADC.c **** *
 639:.\Generated_Source\PSoC5/ADC.c **** * Global variables:
 640:.\Generated_Source\PSoC5/ADC.c **** *  ADC_convDone:  Used to check whether conversion is complete
 641:.\Generated_Source\PSoC5/ADC.c **** *  or not for single sample mode with resolution is above 16
 642:.\Generated_Source\PSoC5/ADC.c **** *
 643:.\Generated_Source\PSoC5/ADC.c **** *******************************************************************************/
 644:.\Generated_Source\PSoC5/ADC.c **** uint8 ADC_IsEndConversion(uint8 retMode) 
 645:.\Generated_Source\PSoC5/ADC.c **** {
 646:.\Generated_Source\PSoC5/ADC.c ****     uint8 status;
 647:.\Generated_Source\PSoC5/ADC.c **** 
 648:.\Generated_Source\PSoC5/ADC.c ****     do
 649:.\Generated_Source\PSoC5/ADC.c ****     {
 650:.\Generated_Source\PSoC5/ADC.c ****         /* Check for stop convert if conversion mode is Single Sample with
 651:.\Generated_Source\PSoC5/ADC.c ****         *   resolution above 16 bit
 652:.\Generated_Source\PSoC5/ADC.c ****         */
 653:.\Generated_Source\PSoC5/ADC.c ****         if(ADC_stopConversion != 0u)
 654:.\Generated_Source\PSoC5/ADC.c ****         {
 655:.\Generated_Source\PSoC5/ADC.c ****             status = ADC_convDone;
 656:.\Generated_Source\PSoC5/ADC.c ****         }
 657:.\Generated_Source\PSoC5/ADC.c ****         else
 658:.\Generated_Source\PSoC5/ADC.c ****         {
 659:.\Generated_Source\PSoC5/ADC.c ****             status = ADC_DEC_SR_REG & ADC_DEC_CONV_DONE;
ARM GAS  C:\Users\HENRYA~1\AppData\Local\Temp\ccEyCdcC.s 			page 13


 660:.\Generated_Source\PSoC5/ADC.c ****         }
 661:.\Generated_Source\PSoC5/ADC.c ****     }while((status != ADC_DEC_CONV_DONE) && (retMode == ADC_WAIT_FOR_RESULT));
 662:.\Generated_Source\PSoC5/ADC.c **** 
 663:.\Generated_Source\PSoC5/ADC.c ****     return(status);
 664:.\Generated_Source\PSoC5/ADC.c **** }
 665:.\Generated_Source\PSoC5/ADC.c **** 
 666:.\Generated_Source\PSoC5/ADC.c **** 
 667:.\Generated_Source\PSoC5/ADC.c **** /*******************************************************************************
 668:.\Generated_Source\PSoC5/ADC.c **** * Function Name: ADC_GetResult8
 669:.\Generated_Source\PSoC5/ADC.c **** ********************************************************************************
 670:.\Generated_Source\PSoC5/ADC.c **** *
 671:.\Generated_Source\PSoC5/ADC.c **** * Summary:
 672:.\Generated_Source\PSoC5/ADC.c **** *  This function returns the result of an 8-bit conversion. If the
 673:.\Generated_Source\PSoC5/ADC.c **** *  resolution is set greater than 8-bits, the LSB of the result will be
 674:.\Generated_Source\PSoC5/ADC.c **** *  returned. When the ADC is configured for 8-bit single ended mode,
 675:.\Generated_Source\PSoC5/ADC.c **** *  the ADC_GetResult16() function should be used instead. This
 676:.\Generated_Source\PSoC5/ADC.c **** *  function returns only signed 8-bit values. The maximum positive
 677:.\Generated_Source\PSoC5/ADC.c **** *  signed 8-bit value is 127, but in singled ended 8-bit mode, the
 678:.\Generated_Source\PSoC5/ADC.c **** *  maximum positive value is 255.
 679:.\Generated_Source\PSoC5/ADC.c **** *
 680:.\Generated_Source\PSoC5/ADC.c **** * Parameters:
 681:.\Generated_Source\PSoC5/ADC.c **** *  None
 682:.\Generated_Source\PSoC5/ADC.c **** *
 683:.\Generated_Source\PSoC5/ADC.c **** * Return:
 684:.\Generated_Source\PSoC5/ADC.c **** *  int8: The LSB of the last ADC conversion.
 685:.\Generated_Source\PSoC5/ADC.c **** *
 686:.\Generated_Source\PSoC5/ADC.c **** * Global variables:
 687:.\Generated_Source\PSoC5/ADC.c **** *  ADC_convDone:  Cleared in single sample mode with resolution
 688:.\Generated_Source\PSoC5/ADC.c **** *                              above 16 bits
 689:.\Generated_Source\PSoC5/ADC.c **** *
 690:.\Generated_Source\PSoC5/ADC.c **** *******************************************************************************/
 691:.\Generated_Source\PSoC5/ADC.c **** int8 ADC_GetResult8( void ) 
 692:.\Generated_Source\PSoC5/ADC.c **** {
 693:.\Generated_Source\PSoC5/ADC.c ****     int8 result;
 694:.\Generated_Source\PSoC5/ADC.c ****     uint8 coherency;
 695:.\Generated_Source\PSoC5/ADC.c **** 
 696:.\Generated_Source\PSoC5/ADC.c ****     /* Read active coherency configuration */
 697:.\Generated_Source\PSoC5/ADC.c ****     coherency = ADC_DEC_COHER_REG & ADC_DEC_SAMP_KEY_MASK;
 698:.\Generated_Source\PSoC5/ADC.c **** 
 699:.\Generated_Source\PSoC5/ADC.c ****     result = (int8)ADC_DEC_SAMP_REG;
 700:.\Generated_Source\PSoC5/ADC.c **** 
 701:.\Generated_Source\PSoC5/ADC.c ****     if(coherency == ADC_DEC_SAMP_KEY_MID)
 702:.\Generated_Source\PSoC5/ADC.c ****     {   /* Dummy read of the middle byte to unlock the coherency */
 703:.\Generated_Source\PSoC5/ADC.c ****         (void)ADC_DEC_SAMPM_REG;
 704:.\Generated_Source\PSoC5/ADC.c ****     }
 705:.\Generated_Source\PSoC5/ADC.c ****     else  if(coherency == ADC_DEC_SAMP_KEY_HIGH)
 706:.\Generated_Source\PSoC5/ADC.c ****     {   /* Dummy read of the MSB byte to unlock the coherency */
 707:.\Generated_Source\PSoC5/ADC.c ****         (void)ADC_DEC_SAMPH_REG;
 708:.\Generated_Source\PSoC5/ADC.c ****     }
 709:.\Generated_Source\PSoC5/ADC.c ****     else /*No action required for other coherency */
 710:.\Generated_Source\PSoC5/ADC.c ****     {
 711:.\Generated_Source\PSoC5/ADC.c ****     }
 712:.\Generated_Source\PSoC5/ADC.c ****     /* Clear conversion complete status in Single Sample mode with resolution above 16 bit */
 713:.\Generated_Source\PSoC5/ADC.c ****     if(ADC_stopConversion != 0u)
 714:.\Generated_Source\PSoC5/ADC.c ****     {
 715:.\Generated_Source\PSoC5/ADC.c ****         ADC_convDone = 0u;
 716:.\Generated_Source\PSoC5/ADC.c ****     }
ARM GAS  C:\Users\HENRYA~1\AppData\Local\Temp\ccEyCdcC.s 			page 14


 717:.\Generated_Source\PSoC5/ADC.c ****     return (result);
 718:.\Generated_Source\PSoC5/ADC.c **** }
 719:.\Generated_Source\PSoC5/ADC.c **** 
 720:.\Generated_Source\PSoC5/ADC.c **** 
 721:.\Generated_Source\PSoC5/ADC.c **** /*******************************************************************************
 722:.\Generated_Source\PSoC5/ADC.c **** * Function Name: ADC_GetResult16
 723:.\Generated_Source\PSoC5/ADC.c **** ********************************************************************************
 724:.\Generated_Source\PSoC5/ADC.c **** *
 725:.\Generated_Source\PSoC5/ADC.c **** * Summary:
 726:.\Generated_Source\PSoC5/ADC.c **** *  Returns a 16-bit result for a conversion with a result that has a
 727:.\Generated_Source\PSoC5/ADC.c **** *  resolution of 8 to 16 bits. If the resolution is set greater than 16-bits,
 728:.\Generated_Source\PSoC5/ADC.c **** *  it will return the 16 least significant bits of the result. When the ADC
 729:.\Generated_Source\PSoC5/ADC.c **** *  is configured for 16-bit single ended mode, the ADC_GetResult32()
 730:.\Generated_Source\PSoC5/ADC.c **** *  function should be used instead. This function returns only signed
 731:.\Generated_Source\PSoC5/ADC.c **** *  16-bit result, which allows a maximum positive value of 32767, not 65535.
 732:.\Generated_Source\PSoC5/ADC.c **** *  This function supports different coherency settings.
 733:.\Generated_Source\PSoC5/ADC.c **** *
 734:.\Generated_Source\PSoC5/ADC.c **** * Parameters:
 735:.\Generated_Source\PSoC5/ADC.c **** *   void
 736:.\Generated_Source\PSoC5/ADC.c **** *
 737:.\Generated_Source\PSoC5/ADC.c **** * Return:
 738:.\Generated_Source\PSoC5/ADC.c **** *  int16:  ADC result.
 739:.\Generated_Source\PSoC5/ADC.c **** *
 740:.\Generated_Source\PSoC5/ADC.c **** * Global variables:
 741:.\Generated_Source\PSoC5/ADC.c **** *  ADC_convDone:  Cleared in single sample mode with resolution
 742:.\Generated_Source\PSoC5/ADC.c **** *                              above 16 bits
 743:.\Generated_Source\PSoC5/ADC.c **** *
 744:.\Generated_Source\PSoC5/ADC.c **** *******************************************************************************/
 745:.\Generated_Source\PSoC5/ADC.c **** int16 ADC_GetResult16(void) 
 746:.\Generated_Source\PSoC5/ADC.c **** {
 747:.\Generated_Source\PSoC5/ADC.c ****     uint16 result;
 748:.\Generated_Source\PSoC5/ADC.c ****     uint8 coherency;
 749:.\Generated_Source\PSoC5/ADC.c **** 
 750:.\Generated_Source\PSoC5/ADC.c ****     /* Read active coherency configuration */
 751:.\Generated_Source\PSoC5/ADC.c ****     coherency = ADC_DEC_COHER_REG & ADC_DEC_SAMP_KEY_MASK;
 752:.\Generated_Source\PSoC5/ADC.c **** 
 753:.\Generated_Source\PSoC5/ADC.c ****     if(coherency <= ADC_DEC_SAMP_KEY_LOW)
 754:.\Generated_Source\PSoC5/ADC.c ****     {   /*  Use default method to read result registers i.e. LSB byte read at the end*/
 755:.\Generated_Source\PSoC5/ADC.c ****         #if (CY_PSOC3)
 756:.\Generated_Source\PSoC5/ADC.c ****             result = ADC_DEC_SAMPM_REG;
 757:.\Generated_Source\PSoC5/ADC.c ****             result = (result << 8u) | ADC_DEC_SAMP_REG;
 758:.\Generated_Source\PSoC5/ADC.c ****         #else
 759:.\Generated_Source\PSoC5/ADC.c ****             result = (CY_GET_REG16(ADC_DEC_SAMP_16B_PTR));
 760:.\Generated_Source\PSoC5/ADC.c ****         #endif /* CY_PSOC3 */
 761:.\Generated_Source\PSoC5/ADC.c ****     }
 762:.\Generated_Source\PSoC5/ADC.c ****     else /* MID or HIGH */
 763:.\Generated_Source\PSoC5/ADC.c ****     {   /* Read middle byte at the end */
 764:.\Generated_Source\PSoC5/ADC.c ****         #if (CY_PSOC3)
 765:.\Generated_Source\PSoC5/ADC.c ****             result = (CY_GET_REG16(ADC_DEC_SAMP_16B_PTR));
 766:.\Generated_Source\PSoC5/ADC.c ****         #else
 767:.\Generated_Source\PSoC5/ADC.c ****             result = ADC_DEC_SAMP_REG;
 768:.\Generated_Source\PSoC5/ADC.c ****             result |=  (uint16)((uint16)ADC_DEC_SAMPM_REG << 8u);
 769:.\Generated_Source\PSoC5/ADC.c ****         #endif /* CY_PSOC3 */
 770:.\Generated_Source\PSoC5/ADC.c ****         if(coherency == ADC_DEC_SAMP_KEY_HIGH)
 771:.\Generated_Source\PSoC5/ADC.c ****         {   /* Dummy read of the MSB byte to unlock the coherency */
 772:.\Generated_Source\PSoC5/ADC.c ****             (void)ADC_DEC_SAMPH_REG;
 773:.\Generated_Source\PSoC5/ADC.c ****         }
ARM GAS  C:\Users\HENRYA~1\AppData\Local\Temp\ccEyCdcC.s 			page 15


 774:.\Generated_Source\PSoC5/ADC.c ****     }
 775:.\Generated_Source\PSoC5/ADC.c ****     /* Clear conversion complete status in Single Sample mode with resolution above 16 bit */
 776:.\Generated_Source\PSoC5/ADC.c ****     if(ADC_stopConversion != 0u)
 777:.\Generated_Source\PSoC5/ADC.c ****     {
 778:.\Generated_Source\PSoC5/ADC.c ****         ADC_convDone = 0u;
 779:.\Generated_Source\PSoC5/ADC.c ****     }
 780:.\Generated_Source\PSoC5/ADC.c **** 
 781:.\Generated_Source\PSoC5/ADC.c ****     return ((int16)result);
 782:.\Generated_Source\PSoC5/ADC.c **** }
 783:.\Generated_Source\PSoC5/ADC.c **** 
 784:.\Generated_Source\PSoC5/ADC.c **** 
 785:.\Generated_Source\PSoC5/ADC.c **** /*******************************************************************************
 786:.\Generated_Source\PSoC5/ADC.c **** * Function Name: ADC_GetResult32
 787:.\Generated_Source\PSoC5/ADC.c **** ********************************************************************************
 788:.\Generated_Source\PSoC5/ADC.c **** *
 789:.\Generated_Source\PSoC5/ADC.c **** * Summary:
 790:.\Generated_Source\PSoC5/ADC.c **** *  Returns a 32-bit result for a conversion with a result that has a
 791:.\Generated_Source\PSoC5/ADC.c **** *  resolution of 8 to 20 bits.
 792:.\Generated_Source\PSoC5/ADC.c **** *  This function supports different coherency settings.
 793:.\Generated_Source\PSoC5/ADC.c **** *
 794:.\Generated_Source\PSoC5/ADC.c **** * Parameters:
 795:.\Generated_Source\PSoC5/ADC.c **** *  None
 796:.\Generated_Source\PSoC5/ADC.c **** *
 797:.\Generated_Source\PSoC5/ADC.c **** * Return:
 798:.\Generated_Source\PSoC5/ADC.c **** *  int32: Result of the last ADC conversion.
 799:.\Generated_Source\PSoC5/ADC.c **** *
 800:.\Generated_Source\PSoC5/ADC.c **** * Global variables:
 801:.\Generated_Source\PSoC5/ADC.c **** *  ADC_convDone:  Cleared in single sample mode with resolution
 802:.\Generated_Source\PSoC5/ADC.c **** *                              above 16 bits
 803:.\Generated_Source\PSoC5/ADC.c **** *
 804:.\Generated_Source\PSoC5/ADC.c **** *******************************************************************************/
 805:.\Generated_Source\PSoC5/ADC.c **** int32 ADC_GetResult32(void) 
 806:.\Generated_Source\PSoC5/ADC.c **** {
 807:.\Generated_Source\PSoC5/ADC.c ****     uint32 result;
 808:.\Generated_Source\PSoC5/ADC.c ****     uint8 coherency;
 809:.\Generated_Source\PSoC5/ADC.c ****     #if (CY_PSOC3)
 810:.\Generated_Source\PSoC5/ADC.c **** 	    uint16 tmp;
 811:.\Generated_Source\PSoC5/ADC.c ****     #endif /* CY_PSOC3 */
 812:.\Generated_Source\PSoC5/ADC.c **** 
 813:.\Generated_Source\PSoC5/ADC.c ****     /* Read active coherency configuration */
 814:.\Generated_Source\PSoC5/ADC.c ****     coherency = ADC_DEC_COHER_REG & ADC_DEC_SAMP_KEY_MASK;
 815:.\Generated_Source\PSoC5/ADC.c **** 
 816:.\Generated_Source\PSoC5/ADC.c ****     if(coherency <= ADC_DEC_SAMP_KEY_LOW)
 817:.\Generated_Source\PSoC5/ADC.c ****     {   /*  Use default method to read result registers i.e. LSB byte read at the end*/
 818:.\Generated_Source\PSoC5/ADC.c ****         #if (CY_PSOC3)
 819:.\Generated_Source\PSoC5/ADC.c ****             result = ADC_DEC_SAMPH_REG;
 820:.\Generated_Source\PSoC5/ADC.c ****             if((result & 0x80u) != 0u)
 821:.\Generated_Source\PSoC5/ADC.c ****             {   /* Sign extend */
 822:.\Generated_Source\PSoC5/ADC.c ****                 result |= 0xFF00u;
 823:.\Generated_Source\PSoC5/ADC.c ****             }
 824:.\Generated_Source\PSoC5/ADC.c ****             result = (result << 8u) | ADC_DEC_SAMPM_REG;
 825:.\Generated_Source\PSoC5/ADC.c ****             result = (result << 8u) | ADC_DEC_SAMP_REG;
 826:.\Generated_Source\PSoC5/ADC.c ****         #else
 827:.\Generated_Source\PSoC5/ADC.c ****             result = CY_GET_REG16(ADC_DEC_SAMPH_16B_PTR);
 828:.\Generated_Source\PSoC5/ADC.c ****             result = (result << 16u) | (CY_GET_REG16(ADC_DEC_SAMP_16B_PTR));
 829:.\Generated_Source\PSoC5/ADC.c ****         #endif /* CY_PSOC3 */
 830:.\Generated_Source\PSoC5/ADC.c ****     }
ARM GAS  C:\Users\HENRYA~1\AppData\Local\Temp\ccEyCdcC.s 			page 16


 831:.\Generated_Source\PSoC5/ADC.c ****     else if(coherency == ADC_DEC_SAMP_KEY_MID)
 832:.\Generated_Source\PSoC5/ADC.c ****     {   /* Read middle byte at the end */
 833:.\Generated_Source\PSoC5/ADC.c ****         #if (CY_PSOC3)
 834:.\Generated_Source\PSoC5/ADC.c ****             result = ADC_DEC_SAMPH_REG;
 835:.\Generated_Source\PSoC5/ADC.c ****             if((result & 0x80u) != 0u)
 836:.\Generated_Source\PSoC5/ADC.c ****             {   /* Sign extend */
 837:.\Generated_Source\PSoC5/ADC.c ****                 result |= 0xFF00u;
 838:.\Generated_Source\PSoC5/ADC.c ****             }
 839:.\Generated_Source\PSoC5/ADC.c ****             result = (result << 16u) | (CY_GET_REG16(ADC_DEC_SAMP_16B_PTR));
 840:.\Generated_Source\PSoC5/ADC.c ****         #else
 841:.\Generated_Source\PSoC5/ADC.c ****             result = CY_GET_REG16(ADC_DEC_SAMPH_16B_PTR);
 842:.\Generated_Source\PSoC5/ADC.c ****             result = (result << 16u) | ADC_DEC_SAMP_REG;
 843:.\Generated_Source\PSoC5/ADC.c ****             result |=  (uint32)((uint32)ADC_DEC_SAMPM_REG << 8u);
 844:.\Generated_Source\PSoC5/ADC.c ****         #endif /* CY_PSOC3 */
 845:.\Generated_Source\PSoC5/ADC.c ****     }
 846:.\Generated_Source\PSoC5/ADC.c ****     else /*ADC_DEC_SAMP_KEY_HIGH */
 847:.\Generated_Source\PSoC5/ADC.c ****     {
 848:.\Generated_Source\PSoC5/ADC.c ****         /* Read MSB byte at the end */
 849:.\Generated_Source\PSoC5/ADC.c ****         #if (CY_PSOC3)
 850:.\Generated_Source\PSoC5/ADC.c ****             result = CY_GET_REG16(ADC_DEC_SAMP_16B_PTR);
 851:.\Generated_Source\PSoC5/ADC.c **** 			tmp = ADC_DEC_SAMPH_REG;
 852:.\Generated_Source\PSoC5/ADC.c ****             if((tmp & 0x80u) != 0u)
 853:.\Generated_Source\PSoC5/ADC.c ****             {   /* Sign extend */
 854:.\Generated_Source\PSoC5/ADC.c ****                 tmp |= 0xFF00u;
 855:.\Generated_Source\PSoC5/ADC.c ****             }
 856:.\Generated_Source\PSoC5/ADC.c ****             result |= (uint32)tmp << 16u;
 857:.\Generated_Source\PSoC5/ADC.c ****         #else
 858:.\Generated_Source\PSoC5/ADC.c ****             result = CY_GET_REG16(ADC_DEC_SAMP_16B_PTR);
 859:.\Generated_Source\PSoC5/ADC.c ****             result |= (uint32)((uint32)CY_GET_REG16(ADC_DEC_SAMPH_16B_PTR) << 16u);
 860:.\Generated_Source\PSoC5/ADC.c ****         #endif /* CY_PSOC3 */
 861:.\Generated_Source\PSoC5/ADC.c ****     }
 862:.\Generated_Source\PSoC5/ADC.c ****     /* Clear conversion complete status in Single Sample mode with resolution above 16 bit */
 863:.\Generated_Source\PSoC5/ADC.c ****     if(ADC_stopConversion != 0u)
 864:.\Generated_Source\PSoC5/ADC.c ****     {
 865:.\Generated_Source\PSoC5/ADC.c ****         ADC_convDone = 0u;
 866:.\Generated_Source\PSoC5/ADC.c ****     }
 867:.\Generated_Source\PSoC5/ADC.c **** 
 868:.\Generated_Source\PSoC5/ADC.c ****     return ((int32)result);
 869:.\Generated_Source\PSoC5/ADC.c **** }
 870:.\Generated_Source\PSoC5/ADC.c **** 
 871:.\Generated_Source\PSoC5/ADC.c **** 
 872:.\Generated_Source\PSoC5/ADC.c **** /*******************************************************************************
 873:.\Generated_Source\PSoC5/ADC.c **** * Function Name: ADC_SetOffset
 874:.\Generated_Source\PSoC5/ADC.c **** ********************************************************************************
 875:.\Generated_Source\PSoC5/ADC.c **** *
 876:.\Generated_Source\PSoC5/ADC.c **** * Summary:
 877:.\Generated_Source\PSoC5/ADC.c **** *  Sets the ADC offset which is used by the functions ADC_CountsTo_uVolts, 
 878:.\Generated_Source\PSoC5/ADC.c **** *  ADC_CountsTo_mVolts, and ADC_CountsTo_Volts to subtract the offset from the 
 879:.\Generated_Source\PSoC5/ADC.c **** *  given reading before calculating the voltage conversion.
 880:.\Generated_Source\PSoC5/ADC.c **** *
 881:.\Generated_Source\PSoC5/ADC.c **** * Parameters:
 882:.\Generated_Source\PSoC5/ADC.c **** *  int32:  This value is a measured value when the inputs are shorted or 
 883:.\Generated_Source\PSoC5/ADC.c **** *          connected to the same input voltage.
 884:.\Generated_Source\PSoC5/ADC.c **** *
 885:.\Generated_Source\PSoC5/ADC.c **** * Return:
 886:.\Generated_Source\PSoC5/ADC.c **** *  None
 887:.\Generated_Source\PSoC5/ADC.c **** *
ARM GAS  C:\Users\HENRYA~1\AppData\Local\Temp\ccEyCdcC.s 			page 17


 888:.\Generated_Source\PSoC5/ADC.c **** * Global variables:
 889:.\Generated_Source\PSoC5/ADC.c **** *  ADC_Offset:  Modified to set the user provided offset. This
 890:.\Generated_Source\PSoC5/ADC.c **** *  variable is used for offset calibration purpose.
 891:.\Generated_Source\PSoC5/ADC.c **** *
 892:.\Generated_Source\PSoC5/ADC.c **** * Side Effects:
 893:.\Generated_Source\PSoC5/ADC.c **** *  Affects the ADC_CountsTo_Volts,
 894:.\Generated_Source\PSoC5/ADC.c **** *  ADC_CountsTo_mVolts, ADC_CountsTo_uVolts functions
 895:.\Generated_Source\PSoC5/ADC.c **** *  by subtracting the given offset.
 896:.\Generated_Source\PSoC5/ADC.c **** *
 897:.\Generated_Source\PSoC5/ADC.c **** *******************************************************************************/
 898:.\Generated_Source\PSoC5/ADC.c **** void ADC_SetOffset(int32 offset) 
 899:.\Generated_Source\PSoC5/ADC.c **** {
 900:.\Generated_Source\PSoC5/ADC.c **** 
 901:.\Generated_Source\PSoC5/ADC.c ****     ADC_Offset = offset;
 902:.\Generated_Source\PSoC5/ADC.c **** }
 903:.\Generated_Source\PSoC5/ADC.c **** 
 904:.\Generated_Source\PSoC5/ADC.c **** 
 905:.\Generated_Source\PSoC5/ADC.c **** /*******************************************************************************
 906:.\Generated_Source\PSoC5/ADC.c **** * Function Name: ADC_SetGain
 907:.\Generated_Source\PSoC5/ADC.c **** ********************************************************************************
 908:.\Generated_Source\PSoC5/ADC.c **** *
 909:.\Generated_Source\PSoC5/ADC.c **** * Summary:
 910:.\Generated_Source\PSoC5/ADC.c **** *  Sets the ADC gain in counts per volt for the voltage conversion
 911:.\Generated_Source\PSoC5/ADC.c **** *  functions below. This value is set by default by the reference and
 912:.\Generated_Source\PSoC5/ADC.c **** *  input range settings. It should only be used to further calibrate the
 913:.\Generated_Source\PSoC5/ADC.c **** *  ADC with a known input or if an external reference is used. This
 914:.\Generated_Source\PSoC5/ADC.c **** *  function may also be used to calibrate an entire signal chain, not
 915:.\Generated_Source\PSoC5/ADC.c **** *  just the ADC.
 916:.\Generated_Source\PSoC5/ADC.c **** *
 917:.\Generated_Source\PSoC5/ADC.c **** * Parameters:
 918:.\Generated_Source\PSoC5/ADC.c **** *  int32: ADC gain in counts per volt.
 919:.\Generated_Source\PSoC5/ADC.c **** *
 920:.\Generated_Source\PSoC5/ADC.c **** * Return:
 921:.\Generated_Source\PSoC5/ADC.c **** *  None
 922:.\Generated_Source\PSoC5/ADC.c **** *
 923:.\Generated_Source\PSoC5/ADC.c **** * Global variables:
 924:.\Generated_Source\PSoC5/ADC.c **** *  ADC_CountsPerVolt:  modified to set the ADC gain in counts
 925:.\Generated_Source\PSoC5/ADC.c **** *   per volt.
 926:.\Generated_Source\PSoC5/ADC.c **** *
 927:.\Generated_Source\PSoC5/ADC.c **** * Side Effects:
 928:.\Generated_Source\PSoC5/ADC.c **** *  Affects the ADC_CountsTo_Volts,
 929:.\Generated_Source\PSoC5/ADC.c **** *  ADC_CountsTo_mVolts, ADC_CountsTo_uVolts functions
 930:.\Generated_Source\PSoC5/ADC.c **** *  supplying the correct conversion between ADC counts and voltage.
 931:.\Generated_Source\PSoC5/ADC.c **** *
 932:.\Generated_Source\PSoC5/ADC.c **** *******************************************************************************/
 933:.\Generated_Source\PSoC5/ADC.c **** void ADC_SetGain(int32 adcGain) 
 934:.\Generated_Source\PSoC5/ADC.c **** {
 935:.\Generated_Source\PSoC5/ADC.c ****     ADC_CountsPerVolt = adcGain;
 936:.\Generated_Source\PSoC5/ADC.c **** }
 937:.\Generated_Source\PSoC5/ADC.c **** 
 938:.\Generated_Source\PSoC5/ADC.c **** 
 939:.\Generated_Source\PSoC5/ADC.c **** /*******************************************************************************
 940:.\Generated_Source\PSoC5/ADC.c **** * Function Name: ADC_CountsTo_mVolts
 941:.\Generated_Source\PSoC5/ADC.c **** ********************************************************************************
 942:.\Generated_Source\PSoC5/ADC.c **** *
 943:.\Generated_Source\PSoC5/ADC.c **** * Summary:
 944:.\Generated_Source\PSoC5/ADC.c **** *  Converts the ADC counts output to mVolts as a 16-bit integer. For
ARM GAS  C:\Users\HENRYA~1\AppData\Local\Temp\ccEyCdcC.s 			page 18


 945:.\Generated_Source\PSoC5/ADC.c **** *  example, if the ADC measured 0.534 volts, the return value would
 946:.\Generated_Source\PSoC5/ADC.c **** *  be 534 mVolts.
 947:.\Generated_Source\PSoC5/ADC.c **** *
 948:.\Generated_Source\PSoC5/ADC.c **** * Parameters:
 949:.\Generated_Source\PSoC5/ADC.c **** *  int32: adcCounts Result from the ADC conversion.
 950:.\Generated_Source\PSoC5/ADC.c **** *
 951:.\Generated_Source\PSoC5/ADC.c **** * Return:
 952:.\Generated_Source\PSoC5/ADC.c **** *  int16:  Result in mVolts
 953:.\Generated_Source\PSoC5/ADC.c **** *
 954:.\Generated_Source\PSoC5/ADC.c **** * Global variables:
 955:.\Generated_Source\PSoC5/ADC.c **** *  ADC_CountsPerVolt:  used to convert ADC counts to mVolts.
 956:.\Generated_Source\PSoC5/ADC.c **** *  ADC_Offset:  Used as the offset while converting ADC counts
 957:.\Generated_Source\PSoC5/ADC.c **** *   to mVolts.
 958:.\Generated_Source\PSoC5/ADC.c **** *
 959:.\Generated_Source\PSoC5/ADC.c **** *******************************************************************************/
 960:.\Generated_Source\PSoC5/ADC.c **** int16 ADC_CountsTo_mVolts(int32 adcCounts) 
 961:.\Generated_Source\PSoC5/ADC.c **** {
 962:.\Generated_Source\PSoC5/ADC.c **** 
 963:.\Generated_Source\PSoC5/ADC.c ****     int16 mVolts;
 964:.\Generated_Source\PSoC5/ADC.c **** 
 965:.\Generated_Source\PSoC5/ADC.c ****     /* Convert adcCounts to the right align if left option selected */
 966:.\Generated_Source\PSoC5/ADC.c ****     #if(ADC_CFG1_DEC_DIV != 0)
 967:.\Generated_Source\PSoC5/ADC.c ****         if(ADC_Config == ADC_CFG1)
 968:.\Generated_Source\PSoC5/ADC.c ****         {
 969:.\Generated_Source\PSoC5/ADC.c ****             adcCounts /= ADC_CFG1_DEC_DIV;
 970:.\Generated_Source\PSoC5/ADC.c ****         }
 971:.\Generated_Source\PSoC5/ADC.c ****     #endif /* ADC_CFG1_DEC_DIV */
 972:.\Generated_Source\PSoC5/ADC.c ****     #if((ADC_CFG2_DEC_DIV != 0) && (ADC_DEFAULT_NUM_CONFIGS > 1))
 973:.\Generated_Source\PSoC5/ADC.c ****         if(ADC_Config == ADC_CFG2)
 974:.\Generated_Source\PSoC5/ADC.c ****         {
 975:.\Generated_Source\PSoC5/ADC.c ****             adcCounts /= ADC_CFG2_DEC_DIV;
 976:.\Generated_Source\PSoC5/ADC.c ****         }
 977:.\Generated_Source\PSoC5/ADC.c ****     #endif /* ADC_CFG2_DEC_DIV */
 978:.\Generated_Source\PSoC5/ADC.c ****     #if((ADC_CFG3_DEC_DIV != 0) && (ADC_DEFAULT_NUM_CONFIGS > 2))
 979:.\Generated_Source\PSoC5/ADC.c ****         if(ADC_Config == ADC_CFG3)
 980:.\Generated_Source\PSoC5/ADC.c ****         {
 981:.\Generated_Source\PSoC5/ADC.c ****             adcCounts /= ADC_CFG3_DEC_DIV;
 982:.\Generated_Source\PSoC5/ADC.c ****         }
 983:.\Generated_Source\PSoC5/ADC.c ****     #endif /* ADC_CFG2_DEC_DIV */
 984:.\Generated_Source\PSoC5/ADC.c ****     #if((ADC_CFG4_DEC_DIV != 0) && (ADC_DEFAULT_NUM_CONFIGS > 3))
 985:.\Generated_Source\PSoC5/ADC.c ****         if(ADC_Config == ADC_CFG4)
 986:.\Generated_Source\PSoC5/ADC.c ****         {
 987:.\Generated_Source\PSoC5/ADC.c ****             adcCounts /= ADC_CFG4_DEC_DIV;
 988:.\Generated_Source\PSoC5/ADC.c ****         }
 989:.\Generated_Source\PSoC5/ADC.c ****     #endif /* ADC_CFG2_DEC_DIV */
 990:.\Generated_Source\PSoC5/ADC.c **** 
 991:.\Generated_Source\PSoC5/ADC.c ****     /* Subtract ADC offset */
 992:.\Generated_Source\PSoC5/ADC.c ****     adcCounts -= ADC_Offset;
 993:.\Generated_Source\PSoC5/ADC.c **** 
 994:.\Generated_Source\PSoC5/ADC.c ****     mVolts = (int16)(( adcCounts * ADC_1MV_COUNTS ) / ADC_CountsPerVolt) ;
 995:.\Generated_Source\PSoC5/ADC.c **** 
 996:.\Generated_Source\PSoC5/ADC.c ****     return(mVolts);
 997:.\Generated_Source\PSoC5/ADC.c **** }
 998:.\Generated_Source\PSoC5/ADC.c **** 
 999:.\Generated_Source\PSoC5/ADC.c **** 
1000:.\Generated_Source\PSoC5/ADC.c **** /*******************************************************************************
1001:.\Generated_Source\PSoC5/ADC.c **** * Function Name: ADC_CountsTo_Volts
ARM GAS  C:\Users\HENRYA~1\AppData\Local\Temp\ccEyCdcC.s 			page 19


1002:.\Generated_Source\PSoC5/ADC.c **** ********************************************************************************
1003:.\Generated_Source\PSoC5/ADC.c **** *
1004:.\Generated_Source\PSoC5/ADC.c **** * Summary:
1005:.\Generated_Source\PSoC5/ADC.c **** *  Converts the ADC output to Volts as a floating point number. For
1006:.\Generated_Source\PSoC5/ADC.c **** *  example, if the ADC measure a voltage of 1.2345 Volts, the
1007:.\Generated_Source\PSoC5/ADC.c **** *  returned result would be +1.2345 Volts.
1008:.\Generated_Source\PSoC5/ADC.c **** *
1009:.\Generated_Source\PSoC5/ADC.c **** * Parameters:
1010:.\Generated_Source\PSoC5/ADC.c **** *  int32 adcCounts:  Result from the ADC conversion.
1011:.\Generated_Source\PSoC5/ADC.c **** *
1012:.\Generated_Source\PSoC5/ADC.c **** * Return:
1013:.\Generated_Source\PSoC5/ADC.c **** *  float32: Result in Volts
1014:.\Generated_Source\PSoC5/ADC.c **** *
1015:.\Generated_Source\PSoC5/ADC.c **** * Global variables:
1016:.\Generated_Source\PSoC5/ADC.c **** *  ADC_CountsPerVolt:  used to convert to Volts.
1017:.\Generated_Source\PSoC5/ADC.c **** *  ADC_Offset:  Used as the offset while converting ADC counts
1018:.\Generated_Source\PSoC5/ADC.c **** *   to Volts.
1019:.\Generated_Source\PSoC5/ADC.c **** *
1020:.\Generated_Source\PSoC5/ADC.c **** *******************************************************************************/
1021:.\Generated_Source\PSoC5/ADC.c **** float32 ADC_CountsTo_Volts(int32 adcCounts) 
1022:.\Generated_Source\PSoC5/ADC.c **** {
1023:.\Generated_Source\PSoC5/ADC.c **** 
1024:.\Generated_Source\PSoC5/ADC.c ****     float32 Volts;
1025:.\Generated_Source\PSoC5/ADC.c **** 
1026:.\Generated_Source\PSoC5/ADC.c ****     /* Convert adcCounts to the right align if left option selected */
1027:.\Generated_Source\PSoC5/ADC.c ****     #if(ADC_CFG1_DEC_DIV != 0)
1028:.\Generated_Source\PSoC5/ADC.c ****         if(ADC_Config == ADC_CFG1)
1029:.\Generated_Source\PSoC5/ADC.c ****         {
1030:.\Generated_Source\PSoC5/ADC.c ****             adcCounts /= ADC_CFG1_DEC_DIV;
1031:.\Generated_Source\PSoC5/ADC.c ****         }
1032:.\Generated_Source\PSoC5/ADC.c ****     #endif /* ADC_CFG1_DEC_DIV */
1033:.\Generated_Source\PSoC5/ADC.c ****     #if((ADC_CFG2_DEC_DIV != 0) && (ADC_DEFAULT_NUM_CONFIGS > 1))
1034:.\Generated_Source\PSoC5/ADC.c ****         if(ADC_Config == ADC_CFG2)
1035:.\Generated_Source\PSoC5/ADC.c ****         {
1036:.\Generated_Source\PSoC5/ADC.c ****             adcCounts /= ADC_CFG2_DEC_DIV;
1037:.\Generated_Source\PSoC5/ADC.c ****         }
1038:.\Generated_Source\PSoC5/ADC.c ****     #endif /* ADC_CFG2_DEC_DIV */
1039:.\Generated_Source\PSoC5/ADC.c ****     #if((ADC_CFG3_DEC_DIV != 0) && (ADC_DEFAULT_NUM_CONFIGS > 2))
1040:.\Generated_Source\PSoC5/ADC.c ****         if(ADC_Config == ADC_CFG3)
1041:.\Generated_Source\PSoC5/ADC.c ****         {
1042:.\Generated_Source\PSoC5/ADC.c ****             adcCounts /= ADC_CFG3_DEC_DIV;
1043:.\Generated_Source\PSoC5/ADC.c ****         }
1044:.\Generated_Source\PSoC5/ADC.c ****     #endif /* ADC_CFG2_DEC_DIV */
1045:.\Generated_Source\PSoC5/ADC.c ****     #if((ADC_CFG4_DEC_DIV != 0) && (ADC_DEFAULT_NUM_CONFIGS > 3))
1046:.\Generated_Source\PSoC5/ADC.c ****         if(ADC_Config == ADC_CFG4)
1047:.\Generated_Source\PSoC5/ADC.c ****         {
1048:.\Generated_Source\PSoC5/ADC.c ****             adcCounts /= ADC_CFG4_DEC_DIV;
1049:.\Generated_Source\PSoC5/ADC.c ****         }
1050:.\Generated_Source\PSoC5/ADC.c ****     #endif /* ADC_CFG2_DEC_DIV */
1051:.\Generated_Source\PSoC5/ADC.c **** 
1052:.\Generated_Source\PSoC5/ADC.c ****     /* Subtract ADC offset */
1053:.\Generated_Source\PSoC5/ADC.c ****     adcCounts -= ADC_Offset;
1054:.\Generated_Source\PSoC5/ADC.c **** 
1055:.\Generated_Source\PSoC5/ADC.c ****     Volts = (float32)adcCounts / (float32)ADC_CountsPerVolt;
1056:.\Generated_Source\PSoC5/ADC.c **** 
1057:.\Generated_Source\PSoC5/ADC.c ****     return( Volts );
1058:.\Generated_Source\PSoC5/ADC.c **** }
ARM GAS  C:\Users\HENRYA~1\AppData\Local\Temp\ccEyCdcC.s 			page 20


1059:.\Generated_Source\PSoC5/ADC.c **** 
1060:.\Generated_Source\PSoC5/ADC.c **** 
1061:.\Generated_Source\PSoC5/ADC.c **** /*******************************************************************************
1062:.\Generated_Source\PSoC5/ADC.c **** * Function Name: ADC_CountsTo_uVolts
1063:.\Generated_Source\PSoC5/ADC.c **** ********************************************************************************
1064:.\Generated_Source\PSoC5/ADC.c **** *
1065:.\Generated_Source\PSoC5/ADC.c **** * Summary:
1066:.\Generated_Source\PSoC5/ADC.c **** *  Converts the ADC output to uVolts as a 32-bit integer. For example,
1067:.\Generated_Source\PSoC5/ADC.c **** *  if the ADC measured -0.02345 Volts, the return value would be -23450 uVolts.
1068:.\Generated_Source\PSoC5/ADC.c **** *
1069:.\Generated_Source\PSoC5/ADC.c **** * Parameters:
1070:.\Generated_Source\PSoC5/ADC.c **** *  int32 adcCounts: Result from the ADC conversion.
1071:.\Generated_Source\PSoC5/ADC.c **** *
1072:.\Generated_Source\PSoC5/ADC.c **** * Return:
1073:.\Generated_Source\PSoC5/ADC.c **** *  int32:  Result in uVolts
1074:.\Generated_Source\PSoC5/ADC.c **** *
1075:.\Generated_Source\PSoC5/ADC.c **** * Global variables:
1076:.\Generated_Source\PSoC5/ADC.c **** *  ADC_CountsPerVolt:  used to convert ADC counts to mVolts.
1077:.\Generated_Source\PSoC5/ADC.c **** *  ADC_Offset:  Used as the offset while converting ADC counts
1078:.\Generated_Source\PSoC5/ADC.c **** *   to mVolts.
1079:.\Generated_Source\PSoC5/ADC.c **** *
1080:.\Generated_Source\PSoC5/ADC.c **** * Theory:
1081:.\Generated_Source\PSoC5/ADC.c **** *  Care must be taken to not exceed the maximum value for a 31 bit signed
1082:.\Generated_Source\PSoC5/ADC.c **** *  number in the conversion to uVolts and at the same time not lose resolution.
1083:.\Generated_Source\PSoC5/ADC.c **** *
1084:.\Generated_Source\PSoC5/ADC.c **** *  uVolts = ((A * adcCounts) / ((int32)ADC_CountsPerVolt / B));
1085:.\Generated_Source\PSoC5/ADC.c **** *
1086:.\Generated_Source\PSoC5/ADC.c **** *******************************************************************************/
1087:.\Generated_Source\PSoC5/ADC.c **** int32 ADC_CountsTo_uVolts(int32 adcCounts) 
1088:.\Generated_Source\PSoC5/ADC.c **** {
1089:.\Generated_Source\PSoC5/ADC.c **** 
1090:.\Generated_Source\PSoC5/ADC.c ****     int32 uVolts;
1091:.\Generated_Source\PSoC5/ADC.c ****     int32 coefA;
1092:.\Generated_Source\PSoC5/ADC.c ****     int32 coefB;
1093:.\Generated_Source\PSoC5/ADC.c ****     uint8 resolution;
1094:.\Generated_Source\PSoC5/ADC.c **** 
1095:.\Generated_Source\PSoC5/ADC.c ****     /* Set the resolution based on the configuration */
1096:.\Generated_Source\PSoC5/ADC.c ****     /* Convert adcCounts to the right align if left option selected */
1097:.\Generated_Source\PSoC5/ADC.c ****     if (ADC_Config == ADC_CFG1)
1098:.\Generated_Source\PSoC5/ADC.c ****     {
1099:.\Generated_Source\PSoC5/ADC.c ****         resolution = ADC_CFG1_RESOLUTION;
1100:.\Generated_Source\PSoC5/ADC.c ****         #if(ADC_CFG1_DEC_DIV != 0)
1101:.\Generated_Source\PSoC5/ADC.c ****             adcCounts /= ADC_CFG1_DEC_DIV;
1102:.\Generated_Source\PSoC5/ADC.c ****         #endif /* ADC_CFG1_DEC_DIV */
1103:.\Generated_Source\PSoC5/ADC.c ****     }
1104:.\Generated_Source\PSoC5/ADC.c ****     else if (ADC_Config == ADC_CFG2)
1105:.\Generated_Source\PSoC5/ADC.c ****     {
1106:.\Generated_Source\PSoC5/ADC.c ****         resolution = ADC_CFG2_RESOLUTION;
1107:.\Generated_Source\PSoC5/ADC.c ****         #if(ADC_CFG2_DEC_DIV != 0)
1108:.\Generated_Source\PSoC5/ADC.c ****             adcCounts /= ADC_CFG2_DEC_DIV;
1109:.\Generated_Source\PSoC5/ADC.c ****         #endif /* ADC_CFG2_DEC_DIV */
1110:.\Generated_Source\PSoC5/ADC.c ****     }
1111:.\Generated_Source\PSoC5/ADC.c ****     else if (ADC_Config == ADC_CFG3)
1112:.\Generated_Source\PSoC5/ADC.c ****     {
1113:.\Generated_Source\PSoC5/ADC.c ****         resolution = ADC_CFG3_RESOLUTION;
1114:.\Generated_Source\PSoC5/ADC.c ****         #if(ADC_CFG3_DEC_DIV != 0)
1115:.\Generated_Source\PSoC5/ADC.c ****             adcCounts /= ADC_CFG3_DEC_DIV;
ARM GAS  C:\Users\HENRYA~1\AppData\Local\Temp\ccEyCdcC.s 			page 21


1116:.\Generated_Source\PSoC5/ADC.c ****         #endif /* ADC_CFG3_DEC_DIV */
1117:.\Generated_Source\PSoC5/ADC.c ****     }
1118:.\Generated_Source\PSoC5/ADC.c ****     else
1119:.\Generated_Source\PSoC5/ADC.c ****     {
1120:.\Generated_Source\PSoC5/ADC.c ****         resolution = ADC_CFG4_RESOLUTION;
1121:.\Generated_Source\PSoC5/ADC.c ****         #if(ADC_CFG4_DEC_DIV != 0)
1122:.\Generated_Source\PSoC5/ADC.c ****             adcCounts /= ADC_CFG4_DEC_DIV;
1123:.\Generated_Source\PSoC5/ADC.c ****         #endif /* ADC_CFG4_DEC_DIV */
1124:.\Generated_Source\PSoC5/ADC.c ****     }
1125:.\Generated_Source\PSoC5/ADC.c **** 
1126:.\Generated_Source\PSoC5/ADC.c ****     switch (resolution)
1127:.\Generated_Source\PSoC5/ADC.c ****     {
1128:.\Generated_Source\PSoC5/ADC.c ****         #if( (ADC_CFG1_RESOLUTION == ADC__BITS_12) || \
1129:.\Generated_Source\PSoC5/ADC.c ****              (ADC_CFG2_RESOLUTION == ADC__BITS_12) || \
1130:.\Generated_Source\PSoC5/ADC.c ****              (ADC_CFG3_RESOLUTION == ADC__BITS_12) || \
1131:.\Generated_Source\PSoC5/ADC.c ****              (ADC_CFG4_RESOLUTION == ADC__BITS_12) )
1132:.\Generated_Source\PSoC5/ADC.c ****             case (uint8)ADC__BITS_12:
1133:.\Generated_Source\PSoC5/ADC.c ****                 coefA = ADC_1UV_COUNTS / ADC_DIVISOR_2;
1134:.\Generated_Source\PSoC5/ADC.c ****                 coefB = ADC_DIVISOR_2;
1135:.\Generated_Source\PSoC5/ADC.c ****                 break;
1136:.\Generated_Source\PSoC5/ADC.c ****         #endif /* ADC__BITS_12 */    
1137:.\Generated_Source\PSoC5/ADC.c ****         #if( (ADC_CFG1_RESOLUTION == ADC__BITS_13) || \
1138:.\Generated_Source\PSoC5/ADC.c ****              (ADC_CFG2_RESOLUTION == ADC__BITS_13) || \
1139:.\Generated_Source\PSoC5/ADC.c ****              (ADC_CFG3_RESOLUTION == ADC__BITS_13) || \
1140:.\Generated_Source\PSoC5/ADC.c ****              (ADC_CFG4_RESOLUTION == ADC__BITS_13) )
1141:.\Generated_Source\PSoC5/ADC.c ****             case (uint8)ADC__BITS_13:
1142:.\Generated_Source\PSoC5/ADC.c ****                 coefA = ADC_1UV_COUNTS / ADC_DIVISOR_4;
1143:.\Generated_Source\PSoC5/ADC.c ****                 coefB = ADC_DIVISOR_4;
1144:.\Generated_Source\PSoC5/ADC.c ****                 break;
1145:.\Generated_Source\PSoC5/ADC.c ****         #endif /* ADC__BITS_13 */    
1146:.\Generated_Source\PSoC5/ADC.c ****         #if( (ADC_CFG1_RESOLUTION == ADC__BITS_14) || \
1147:.\Generated_Source\PSoC5/ADC.c ****              (ADC_CFG2_RESOLUTION == ADC__BITS_14) || \
1148:.\Generated_Source\PSoC5/ADC.c ****              (ADC_CFG3_RESOLUTION == ADC__BITS_14) || \
1149:.\Generated_Source\PSoC5/ADC.c ****              (ADC_CFG4_RESOLUTION == ADC__BITS_14) )
1150:.\Generated_Source\PSoC5/ADC.c ****             case (uint8)ADC__BITS_14:
1151:.\Generated_Source\PSoC5/ADC.c ****                 coefA = ADC_1UV_COUNTS / ADC_DIVISOR_8;
1152:.\Generated_Source\PSoC5/ADC.c ****                 coefB = ADC_DIVISOR_8;
1153:.\Generated_Source\PSoC5/ADC.c ****                 break;
1154:.\Generated_Source\PSoC5/ADC.c ****         #endif /* ADC__BITS_14 */    
1155:.\Generated_Source\PSoC5/ADC.c ****         #if( (ADC_CFG1_RESOLUTION == ADC__BITS_15) || \
1156:.\Generated_Source\PSoC5/ADC.c ****              (ADC_CFG2_RESOLUTION == ADC__BITS_15) || \
1157:.\Generated_Source\PSoC5/ADC.c ****              (ADC_CFG3_RESOLUTION == ADC__BITS_15) || \
1158:.\Generated_Source\PSoC5/ADC.c ****              (ADC_CFG4_RESOLUTION == ADC__BITS_15) )
1159:.\Generated_Source\PSoC5/ADC.c ****             case (uint8)ADC__BITS_15:
1160:.\Generated_Source\PSoC5/ADC.c ****                 coefA = ADC_1UV_COUNTS / ADC_DIVISOR_16;
1161:.\Generated_Source\PSoC5/ADC.c ****                 coefB = ADC_DIVISOR_16;
1162:.\Generated_Source\PSoC5/ADC.c ****                 break;
1163:.\Generated_Source\PSoC5/ADC.c ****         #endif /* ADC__BITS_15 */    
1164:.\Generated_Source\PSoC5/ADC.c ****         #if( (ADC_CFG1_RESOLUTION == ADC__BITS_16) || \
1165:.\Generated_Source\PSoC5/ADC.c ****              (ADC_CFG2_RESOLUTION == ADC__BITS_16) || \
1166:.\Generated_Source\PSoC5/ADC.c ****              (ADC_CFG3_RESOLUTION == ADC__BITS_16) || \
1167:.\Generated_Source\PSoC5/ADC.c ****              (ADC_CFG4_RESOLUTION == ADC__BITS_16) )
1168:.\Generated_Source\PSoC5/ADC.c ****             case (uint8)ADC__BITS_16:
1169:.\Generated_Source\PSoC5/ADC.c ****                 coefA = ADC_1UV_COUNTS / ADC_DIVISOR_32;
1170:.\Generated_Source\PSoC5/ADC.c ****                 coefB = ADC_DIVISOR_32;
1171:.\Generated_Source\PSoC5/ADC.c ****                 break;
1172:.\Generated_Source\PSoC5/ADC.c ****         #endif /* ADC__BITS_16 */    
ARM GAS  C:\Users\HENRYA~1\AppData\Local\Temp\ccEyCdcC.s 			page 22


1173:.\Generated_Source\PSoC5/ADC.c ****         #if( (ADC_CFG1_RESOLUTION == ADC__BITS_17) || \
1174:.\Generated_Source\PSoC5/ADC.c ****              (ADC_CFG2_RESOLUTION == ADC__BITS_17) || \
1175:.\Generated_Source\PSoC5/ADC.c ****              (ADC_CFG3_RESOLUTION == ADC__BITS_17) || \
1176:.\Generated_Source\PSoC5/ADC.c ****              (ADC_CFG4_RESOLUTION == ADC__BITS_17) )
1177:.\Generated_Source\PSoC5/ADC.c ****             case (uint8)ADC__BITS_17:
1178:.\Generated_Source\PSoC5/ADC.c ****                 coefA = ADC_1UV_COUNTS / ADC_DIVISOR_64;
1179:.\Generated_Source\PSoC5/ADC.c ****                 coefB = ADC_DIVISOR_64;
1180:.\Generated_Source\PSoC5/ADC.c ****                 break;
1181:.\Generated_Source\PSoC5/ADC.c ****         #endif /* ADC__BITS_17 */    
1182:.\Generated_Source\PSoC5/ADC.c ****         #if( (ADC_CFG1_RESOLUTION == ADC__BITS_18) || \
1183:.\Generated_Source\PSoC5/ADC.c ****              (ADC_CFG2_RESOLUTION == ADC__BITS_18) || \
1184:.\Generated_Source\PSoC5/ADC.c ****              (ADC_CFG3_RESOLUTION == ADC__BITS_18) || \
1185:.\Generated_Source\PSoC5/ADC.c ****              (ADC_CFG4_RESOLUTION == ADC__BITS_18) )
1186:.\Generated_Source\PSoC5/ADC.c ****             case (uint8)ADC__BITS_18:
1187:.\Generated_Source\PSoC5/ADC.c ****                 coefA = ADC_1UV_COUNTS / ADC_DIVISOR_125;
1188:.\Generated_Source\PSoC5/ADC.c ****                 coefB = ADC_DIVISOR_125;
1189:.\Generated_Source\PSoC5/ADC.c ****                 break;
1190:.\Generated_Source\PSoC5/ADC.c ****         #endif /* ADC__BITS_18 */    
1191:.\Generated_Source\PSoC5/ADC.c ****         #if( (ADC_CFG1_RESOLUTION == ADC__BITS_19) || \
1192:.\Generated_Source\PSoC5/ADC.c ****              (ADC_CFG2_RESOLUTION == ADC__BITS_19) || \
1193:.\Generated_Source\PSoC5/ADC.c ****              (ADC_CFG3_RESOLUTION == ADC__BITS_19) || \
1194:.\Generated_Source\PSoC5/ADC.c ****              (ADC_CFG4_RESOLUTION == ADC__BITS_19) )
1195:.\Generated_Source\PSoC5/ADC.c ****             case (uint8)ADC__BITS_19:
1196:.\Generated_Source\PSoC5/ADC.c ****                 coefA = ADC_1UV_COUNTS / ADC_DIVISOR_250;
1197:.\Generated_Source\PSoC5/ADC.c ****                 coefB = ADC_DIVISOR_250;
1198:.\Generated_Source\PSoC5/ADC.c ****                 break;
1199:.\Generated_Source\PSoC5/ADC.c ****         #endif /* ADC__BITS_19 */    
1200:.\Generated_Source\PSoC5/ADC.c ****         #if( (ADC_CFG1_RESOLUTION == ADC__BITS_20) || \
1201:.\Generated_Source\PSoC5/ADC.c ****              (ADC_CFG2_RESOLUTION == ADC__BITS_20) || \
1202:.\Generated_Source\PSoC5/ADC.c ****              (ADC_CFG3_RESOLUTION == ADC__BITS_20) || \
1203:.\Generated_Source\PSoC5/ADC.c ****              (ADC_CFG4_RESOLUTION == ADC__BITS_20) )
1204:.\Generated_Source\PSoC5/ADC.c ****             case (uint8)ADC__BITS_20:
1205:.\Generated_Source\PSoC5/ADC.c ****                 coefA = ADC_1UV_COUNTS / ADC_DIVISOR_500;
1206:.\Generated_Source\PSoC5/ADC.c ****                 coefB = ADC_DIVISOR_500;
1207:.\Generated_Source\PSoC5/ADC.c ****                 break;
1208:.\Generated_Source\PSoC5/ADC.c ****         #endif /* ADC__BITS_20 */    
1209:.\Generated_Source\PSoC5/ADC.c ****         default:    /* resolution < 12 */
1210:.\Generated_Source\PSoC5/ADC.c ****             /* 11 bits ADC + 2^20(1048576) = 31 bits */
1211:.\Generated_Source\PSoC5/ADC.c ****             coefA = ADC_1UV_COUNTS;
1212:.\Generated_Source\PSoC5/ADC.c ****             coefB = ADC_DIVISOR_1;
1213:.\Generated_Source\PSoC5/ADC.c ****             break;
1214:.\Generated_Source\PSoC5/ADC.c ****     }
1215:.\Generated_Source\PSoC5/ADC.c ****     coefB = ADC_CountsPerVolt / coefB;
1216:.\Generated_Source\PSoC5/ADC.c ****     uVolts = ((coefA * adcCounts) / coefB) - ((coefA * ADC_Offset) / coefB);
1217:.\Generated_Source\PSoC5/ADC.c **** 
1218:.\Generated_Source\PSoC5/ADC.c ****     return( uVolts );
1219:.\Generated_Source\PSoC5/ADC.c **** }
1220:.\Generated_Source\PSoC5/ADC.c **** 
1221:.\Generated_Source\PSoC5/ADC.c **** 
1222:.\Generated_Source\PSoC5/ADC.c **** /*******************************************************************************
1223:.\Generated_Source\PSoC5/ADC.c **** * Function Name: ADC_InitConfig(uint8 config)
1224:.\Generated_Source\PSoC5/ADC.c **** ********************************************************************************
1225:.\Generated_Source\PSoC5/ADC.c **** *
1226:.\Generated_Source\PSoC5/ADC.c **** * Summary:
1227:.\Generated_Source\PSoC5/ADC.c **** *  Initializes all registers based on customizer settings
1228:.\Generated_Source\PSoC5/ADC.c **** *
1229:.\Generated_Source\PSoC5/ADC.c **** * Parameters:
ARM GAS  C:\Users\HENRYA~1\AppData\Local\Temp\ccEyCdcC.s 			page 23


1230:.\Generated_Source\PSoC5/ADC.c **** *   void
1231:.\Generated_Source\PSoC5/ADC.c **** *
1232:.\Generated_Source\PSoC5/ADC.c **** * Return:
1233:.\Generated_Source\PSoC5/ADC.c **** *  None
1234:.\Generated_Source\PSoC5/ADC.c **** *
1235:.\Generated_Source\PSoC5/ADC.c **** * Global variables:
1236:.\Generated_Source\PSoC5/ADC.c **** *  ADC_CountsPerVolt:  Used to set the default counts per volt.
1237:.\Generated_Source\PSoC5/ADC.c **** *
1238:.\Generated_Source\PSoC5/ADC.c **** * Side Effects: Rewrites the coherency set by ADC_SetCoherency()
1239:.\Generated_Source\PSoC5/ADC.c **** *   API to the default value.
1240:.\Generated_Source\PSoC5/ADC.c **** *
1241:.\Generated_Source\PSoC5/ADC.c **** *******************************************************************************/
1242:.\Generated_Source\PSoC5/ADC.c **** static void ADC_InitConfig(uint8 config) 
1243:.\Generated_Source\PSoC5/ADC.c **** {
1244:.\Generated_Source\PSoC5/ADC.c ****     ADC_stopConversion = 0u;
1245:.\Generated_Source\PSoC5/ADC.c **** 
1246:.\Generated_Source\PSoC5/ADC.c ****     if (config == 1u)
1247:.\Generated_Source\PSoC5/ADC.c ****     {
1248:.\Generated_Source\PSoC5/ADC.c ****         /* Default Config */
1249:.\Generated_Source\PSoC5/ADC.c ****         ADC_DEC_CR_REG      = ADC_CFG1_DEC_CR;
1250:.\Generated_Source\PSoC5/ADC.c ****         ADC_DEC_SHIFT1_REG  = ADC_CFG1_DEC_SHIFT1;
1251:.\Generated_Source\PSoC5/ADC.c ****         ADC_DEC_SHIFT2_REG  = ADC_CFG1_DEC_SHIFT2;
1252:.\Generated_Source\PSoC5/ADC.c ****         ADC_DEC_DR2_REG     = ADC_CFG1_DEC_DR2;
1253:.\Generated_Source\PSoC5/ADC.c ****         ADC_DEC_DR2H_REG    = ADC_CFG1_DEC_DR2H;
1254:.\Generated_Source\PSoC5/ADC.c ****         ADC_DEC_DR1_REG     = ADC_CFG1_DEC_DR1;
1255:.\Generated_Source\PSoC5/ADC.c ****         ADC_DEC_OCOR_REG    = ADC_CFG1_DEC_OCOR;
1256:.\Generated_Source\PSoC5/ADC.c ****         ADC_DEC_OCORM_REG   = ADC_CFG1_DEC_OCORM;
1257:.\Generated_Source\PSoC5/ADC.c ****         ADC_DEC_OCORH_REG   = ADC_CFG1_DEC_OCORH;
1258:.\Generated_Source\PSoC5/ADC.c ****         ADC_DEC_COHER_REG   = ADC_CFG1_DEC_COHER;
1259:.\Generated_Source\PSoC5/ADC.c **** 
1260:.\Generated_Source\PSoC5/ADC.c ****         ADC_DSM_CR4_REG     = ADC_CFG1_DSM_CR4;
1261:.\Generated_Source\PSoC5/ADC.c ****         ADC_DSM_CR5_REG     = ADC_CFG1_DSM_CR5;
1262:.\Generated_Source\PSoC5/ADC.c ****         ADC_DSM_CR6_REG     = ADC_CFG1_DSM_CR6;
1263:.\Generated_Source\PSoC5/ADC.c ****         ADC_DSM_CR7_REG     = ADC_CFG1_DSM_CR7;
1264:.\Generated_Source\PSoC5/ADC.c ****         ADC_DSM_CR10_REG    = ADC_CFG1_DSM_CR10;
1265:.\Generated_Source\PSoC5/ADC.c ****         ADC_DSM_CR11_REG    = ADC_CFG1_DSM_CR11;
1266:.\Generated_Source\PSoC5/ADC.c ****         ADC_DSM_CR12_REG    = ADC_CFG1_DSM_CR12;
1267:.\Generated_Source\PSoC5/ADC.c ****         ADC_DSM_CR14_REG    = ADC_CFG1_DSM_CR14;
1268:.\Generated_Source\PSoC5/ADC.c ****         ADC_DSM_CR15_REG    = ADC_CFG1_DSM_CR15;
1269:.\Generated_Source\PSoC5/ADC.c ****         ADC_DSM_CR16_REG    = ADC_CFG1_DSM_CR16;
1270:.\Generated_Source\PSoC5/ADC.c ****         ADC_DSM_CR17_REG    = ADC_CFG1_DSM_CR17;
1271:.\Generated_Source\PSoC5/ADC.c ****         /* Set DSM_REF0_REG by disabling and enabling the PRESS circuit */
1272:.\Generated_Source\PSoC5/ADC.c ****         ADC_SetDSMRef0Reg(ADC_CFG1_DSM_REF0);
1273:.\Generated_Source\PSoC5/ADC.c ****         ADC_DSM_REF2_REG    = ADC_CFG1_DSM_REF2;
1274:.\Generated_Source\PSoC5/ADC.c ****         ADC_DSM_REF3_REG    = ADC_CFG1_DSM_REF3;
1275:.\Generated_Source\PSoC5/ADC.c **** 
1276:.\Generated_Source\PSoC5/ADC.c ****         ADC_DSM_BUF0_REG    = ADC_CFG1_DSM_BUF0;
1277:.\Generated_Source\PSoC5/ADC.c ****         ADC_DSM_BUF1_REG    = ADC_CFG1_DSM_BUF1;
1278:.\Generated_Source\PSoC5/ADC.c ****         ADC_DSM_BUF2_REG    = ADC_CFG1_DSM_BUF2;
1279:.\Generated_Source\PSoC5/ADC.c ****         ADC_DSM_BUF3_REG    = ADC_CFG1_DSM_BUF3;
1280:.\Generated_Source\PSoC5/ADC.c **** 
1281:.\Generated_Source\PSoC5/ADC.c ****         /* To select either Vssa or Vref to -ve input of DSM depending on
1282:.\Generated_Source\PSoC5/ADC.c ****         *  the input  range selected.
1283:.\Generated_Source\PSoC5/ADC.c ****         */
1284:.\Generated_Source\PSoC5/ADC.c ****         #if(ADC_DEFAULT_INPUT_MODE)
1285:.\Generated_Source\PSoC5/ADC.c ****             #if (ADC_CFG1_INPUT_RANGE == ADC_IR_VSSA_TO_2VREF)
1286:.\Generated_Source\PSoC5/ADC.c ****                 ADC_AMux_Select(1u);
ARM GAS  C:\Users\HENRYA~1\AppData\Local\Temp\ccEyCdcC.s 			page 24


1287:.\Generated_Source\PSoC5/ADC.c ****             #else
1288:.\Generated_Source\PSoC5/ADC.c ****                 ADC_AMux_Select(0u);
1289:.\Generated_Source\PSoC5/ADC.c ****             #endif /* ADC_IR_VSSA_TO_2VREF) */
1290:.\Generated_Source\PSoC5/ADC.c ****         #endif /* ADC_DEFAULT_INPUT_MODE */
1291:.\Generated_Source\PSoC5/ADC.c **** 
1292:.\Generated_Source\PSoC5/ADC.c ****         /* Set the Conversion stop if resolution is above 16 bit and conversion
1293:.\Generated_Source\PSoC5/ADC.c ****         *   mode is Single sample
1294:.\Generated_Source\PSoC5/ADC.c ****         */
1295:.\Generated_Source\PSoC5/ADC.c ****         #if(ADC_CFG1_RESOLUTION > 16 && \
1296:.\Generated_Source\PSoC5/ADC.c ****             ADC_CFG1_CONV_MODE == ADC_MODE_SINGLE_SAMPLE)
1297:.\Generated_Source\PSoC5/ADC.c ****             ADC_stopConversion = 1u;
1298:.\Generated_Source\PSoC5/ADC.c ****         #endif /* Single sample with resolution above 16 bits. */
1299:.\Generated_Source\PSoC5/ADC.c **** 
1300:.\Generated_Source\PSoC5/ADC.c ****         ADC_CountsPerVolt = (int32)ADC_CFG1_COUNTS_PER_VOLT;
1301:.\Generated_Source\PSoC5/ADC.c **** 
1302:.\Generated_Source\PSoC5/ADC.c ****         ADC_Ext_CP_Clk_SetDividerRegister(ADC_CFG1_CP_CLK_DIVIDER, 1u);
1303:.\Generated_Source\PSoC5/ADC.c **** 
1304:.\Generated_Source\PSoC5/ADC.c ****         /* This is only valid if there is an internal clock */
1305:.\Generated_Source\PSoC5/ADC.c ****         #if(ADC_DEFAULT_INTERNAL_CLK)
1306:.\Generated_Source\PSoC5/ADC.c ****             ADC_theACLK_SetDividerRegister(ADC_CFG1_ADC_CLK_DIVIDER, 1u);
1307:.\Generated_Source\PSoC5/ADC.c ****         #endif /* ADC_DEFAULT_INTERNAL_CLK */
1308:.\Generated_Source\PSoC5/ADC.c **** 
1309:.\Generated_Source\PSoC5/ADC.c ****         #if(ADC_IRQ_REMOVE == 0u)
1310:.\Generated_Source\PSoC5/ADC.c ****             /* Set interrupt vector */
1311:.\Generated_Source\PSoC5/ADC.c ****             (void)CyIntSetVector(ADC_INTC_NUMBER, &ADC_ISR1);
1312:.\Generated_Source\PSoC5/ADC.c ****         #endif   /* End ADC_IRQ_REMOVE */
1313:.\Generated_Source\PSoC5/ADC.c ****     }
1314:.\Generated_Source\PSoC5/ADC.c **** 
1315:.\Generated_Source\PSoC5/ADC.c ****     #if(ADC_DEFAULT_NUM_CONFIGS > 1)
1316:.\Generated_Source\PSoC5/ADC.c ****         if(config == 2u)
1317:.\Generated_Source\PSoC5/ADC.c ****         {
1318:.\Generated_Source\PSoC5/ADC.c ****             /* Second Config */
1319:.\Generated_Source\PSoC5/ADC.c ****             ADC_DEC_CR_REG      = ADC_CFG2_DEC_CR;
1320:.\Generated_Source\PSoC5/ADC.c ****             ADC_DEC_SHIFT1_REG  = ADC_CFG2_DEC_SHIFT1;
1321:.\Generated_Source\PSoC5/ADC.c ****             ADC_DEC_SHIFT2_REG  = ADC_CFG2_DEC_SHIFT2;
1322:.\Generated_Source\PSoC5/ADC.c ****             ADC_DEC_DR2_REG     = ADC_CFG2_DEC_DR2;
1323:.\Generated_Source\PSoC5/ADC.c ****             ADC_DEC_DR2H_REG    = ADC_CFG2_DEC_DR2H;
1324:.\Generated_Source\PSoC5/ADC.c ****             ADC_DEC_DR1_REG     = ADC_CFG2_DEC_DR1;
1325:.\Generated_Source\PSoC5/ADC.c ****             ADC_DEC_OCOR_REG    = ADC_CFG2_DEC_OCOR;
1326:.\Generated_Source\PSoC5/ADC.c ****             ADC_DEC_OCORM_REG   = ADC_CFG2_DEC_OCORM;
1327:.\Generated_Source\PSoC5/ADC.c ****             ADC_DEC_OCORH_REG   = ADC_CFG2_DEC_OCORH;
1328:.\Generated_Source\PSoC5/ADC.c ****             ADC_DEC_COHER_REG   = ADC_CFG2_DEC_COHER;
1329:.\Generated_Source\PSoC5/ADC.c **** 
1330:.\Generated_Source\PSoC5/ADC.c ****             ADC_DSM_CR4_REG     = ADC_CFG2_DSM_CR4;
1331:.\Generated_Source\PSoC5/ADC.c ****             ADC_DSM_CR5_REG     = ADC_CFG2_DSM_CR5;
1332:.\Generated_Source\PSoC5/ADC.c ****             ADC_DSM_CR6_REG     = ADC_CFG2_DSM_CR6;
1333:.\Generated_Source\PSoC5/ADC.c ****             ADC_DSM_CR7_REG     = ADC_CFG2_DSM_CR7;
1334:.\Generated_Source\PSoC5/ADC.c ****             ADC_DSM_CR10_REG    = ADC_CFG2_DSM_CR10;
1335:.\Generated_Source\PSoC5/ADC.c ****             ADC_DSM_CR11_REG    = ADC_CFG2_DSM_CR11;
1336:.\Generated_Source\PSoC5/ADC.c ****             ADC_DSM_CR12_REG    = ADC_CFG2_DSM_CR12;
1337:.\Generated_Source\PSoC5/ADC.c ****             ADC_DSM_CR14_REG    = ADC_CFG2_DSM_CR14;
1338:.\Generated_Source\PSoC5/ADC.c ****             ADC_DSM_CR15_REG    = ADC_CFG2_DSM_CR15;
1339:.\Generated_Source\PSoC5/ADC.c ****             ADC_DSM_CR16_REG    = ADC_CFG2_DSM_CR16;
1340:.\Generated_Source\PSoC5/ADC.c ****             ADC_DSM_CR17_REG    = ADC_CFG2_DSM_CR17;
1341:.\Generated_Source\PSoC5/ADC.c ****             /* Set DSM_REF0_REG by disabling and enabling the PRESS cirucit */
1342:.\Generated_Source\PSoC5/ADC.c ****             ADC_SetDSMRef0Reg(ADC_CFG2_DSM_REF0);
1343:.\Generated_Source\PSoC5/ADC.c ****             ADC_DSM_REF2_REG    = ADC_CFG2_DSM_REF2;
ARM GAS  C:\Users\HENRYA~1\AppData\Local\Temp\ccEyCdcC.s 			page 25


1344:.\Generated_Source\PSoC5/ADC.c ****             ADC_DSM_REF3_REG    = ADC_CFG2_DSM_REF3;
1345:.\Generated_Source\PSoC5/ADC.c **** 
1346:.\Generated_Source\PSoC5/ADC.c ****             ADC_DSM_BUF0_REG    = ADC_CFG2_DSM_BUF0;
1347:.\Generated_Source\PSoC5/ADC.c ****             ADC_DSM_BUF1_REG    = ADC_CFG2_DSM_BUF1;
1348:.\Generated_Source\PSoC5/ADC.c ****             ADC_DSM_BUF2_REG    = ADC_CFG2_DSM_BUF2;
1349:.\Generated_Source\PSoC5/ADC.c ****             ADC_DSM_BUF3_REG    = ADC_CFG2_DSM_BUF3;
1350:.\Generated_Source\PSoC5/ADC.c **** 
1351:.\Generated_Source\PSoC5/ADC.c ****             /* To select either Vssa or Vref to -ve input of DSM depending on
1352:.\Generated_Source\PSoC5/ADC.c ****             *  the input range selected.
1353:.\Generated_Source\PSoC5/ADC.c ****             */
1354:.\Generated_Source\PSoC5/ADC.c **** 
1355:.\Generated_Source\PSoC5/ADC.c ****             #if(ADC_DEFAULT_INPUT_MODE)
1356:.\Generated_Source\PSoC5/ADC.c ****                 #if (ADC_CFG2_INPUT_RANGE == ADC_IR_VSSA_TO_2VREF)
1357:.\Generated_Source\PSoC5/ADC.c ****                     ADC_AMux_Select(1u);
1358:.\Generated_Source\PSoC5/ADC.c ****                 #else
1359:.\Generated_Source\PSoC5/ADC.c ****                     ADC_AMux_Select(0u);
1360:.\Generated_Source\PSoC5/ADC.c ****                 #endif /* ADC_IR_VSSA_TO_2VREF) */
1361:.\Generated_Source\PSoC5/ADC.c ****             #endif /* ADC_DEFAULT_INPUT_MODE */
1362:.\Generated_Source\PSoC5/ADC.c **** 
1363:.\Generated_Source\PSoC5/ADC.c ****             /* Set the Conversion stop if resolution is above 16 bit and
1364:.\Generated_Source\PSoC5/ADC.c ****             *   conversion mode is Single sample
1365:.\Generated_Source\PSoC5/ADC.c ****             */
1366:.\Generated_Source\PSoC5/ADC.c ****             #if(ADC_CFG2_RESOLUTION > 16 && \
1367:.\Generated_Source\PSoC5/ADC.c ****                 ADC_CFG2_CONV_MODE == ADC_MODE_SINGLE_SAMPLE)
1368:.\Generated_Source\PSoC5/ADC.c ****                 ADC_stopConversion = 1u;
1369:.\Generated_Source\PSoC5/ADC.c ****             #endif /* Single sample with resolution above 16 bits. */
1370:.\Generated_Source\PSoC5/ADC.c **** 
1371:.\Generated_Source\PSoC5/ADC.c ****             ADC_CountsPerVolt = (int32)ADC_CFG2_COUNTS_PER_VOLT;
1372:.\Generated_Source\PSoC5/ADC.c **** 
1373:.\Generated_Source\PSoC5/ADC.c ****             ADC_Ext_CP_Clk_SetDividerRegister(ADC_CFG2_CP_CLK_DIVIDER, 1u);
1374:.\Generated_Source\PSoC5/ADC.c **** 
1375:.\Generated_Source\PSoC5/ADC.c ****             /* This is only valid if there is an internal clock */
1376:.\Generated_Source\PSoC5/ADC.c ****             #if(ADC_DEFAULT_INTERNAL_CLK)
1377:.\Generated_Source\PSoC5/ADC.c ****                 ADC_theACLK_SetDividerRegister(ADC_CFG2_ADC_CLK_DIVIDER, 1u);
1378:.\Generated_Source\PSoC5/ADC.c ****             #endif /* ADC_DEFAULT_INTERNAL_CLK */
1379:.\Generated_Source\PSoC5/ADC.c **** 
1380:.\Generated_Source\PSoC5/ADC.c ****             #if(ADC_IRQ_REMOVE == 0u)
1381:.\Generated_Source\PSoC5/ADC.c ****                 /* Set interrupt vector */
1382:.\Generated_Source\PSoC5/ADC.c ****                 (void)CyIntSetVector(ADC_INTC_NUMBER, &ADC_ISR2);
1383:.\Generated_Source\PSoC5/ADC.c ****             #endif   /* End ADC_IRQ_REMOVE */
1384:.\Generated_Source\PSoC5/ADC.c ****         }
1385:.\Generated_Source\PSoC5/ADC.c ****     #endif /* ADC_DEFAULT_NUM_CONFIGS > 1 */
1386:.\Generated_Source\PSoC5/ADC.c **** 
1387:.\Generated_Source\PSoC5/ADC.c ****     #if(ADC_DEFAULT_NUM_CONFIGS > 2)
1388:.\Generated_Source\PSoC5/ADC.c ****         if(config == 3u)
1389:.\Generated_Source\PSoC5/ADC.c ****         {
1390:.\Generated_Source\PSoC5/ADC.c ****             /* Third Config */
1391:.\Generated_Source\PSoC5/ADC.c ****             ADC_DEC_CR_REG      = ADC_CFG3_DEC_CR;
1392:.\Generated_Source\PSoC5/ADC.c ****             ADC_DEC_SHIFT1_REG  = ADC_CFG3_DEC_SHIFT1;
1393:.\Generated_Source\PSoC5/ADC.c ****             ADC_DEC_SHIFT2_REG  = ADC_CFG3_DEC_SHIFT2;
1394:.\Generated_Source\PSoC5/ADC.c ****             ADC_DEC_DR2_REG     = ADC_CFG3_DEC_DR2;
1395:.\Generated_Source\PSoC5/ADC.c ****             ADC_DEC_DR2H_REG    = ADC_CFG3_DEC_DR2H;
1396:.\Generated_Source\PSoC5/ADC.c ****             ADC_DEC_DR1_REG     = ADC_CFG3_DEC_DR1;
1397:.\Generated_Source\PSoC5/ADC.c ****             ADC_DEC_OCOR_REG    = ADC_CFG3_DEC_OCOR;
1398:.\Generated_Source\PSoC5/ADC.c ****             ADC_DEC_OCORM_REG   = ADC_CFG3_DEC_OCORM;
1399:.\Generated_Source\PSoC5/ADC.c ****             ADC_DEC_OCORH_REG   = ADC_CFG3_DEC_OCORH;
1400:.\Generated_Source\PSoC5/ADC.c ****             ADC_DEC_COHER_REG   = ADC_CFG3_DEC_COHER;
ARM GAS  C:\Users\HENRYA~1\AppData\Local\Temp\ccEyCdcC.s 			page 26


1401:.\Generated_Source\PSoC5/ADC.c **** 
1402:.\Generated_Source\PSoC5/ADC.c ****             ADC_DSM_CR4_REG     = ADC_CFG3_DSM_CR4;
1403:.\Generated_Source\PSoC5/ADC.c ****             ADC_DSM_CR5_REG     = ADC_CFG3_DSM_CR5;
1404:.\Generated_Source\PSoC5/ADC.c ****             ADC_DSM_CR6_REG     = ADC_CFG3_DSM_CR6;
1405:.\Generated_Source\PSoC5/ADC.c ****             ADC_DSM_CR7_REG     = ADC_CFG3_DSM_CR7;
1406:.\Generated_Source\PSoC5/ADC.c ****             ADC_DSM_CR10_REG    = ADC_CFG3_DSM_CR10;
1407:.\Generated_Source\PSoC5/ADC.c ****             ADC_DSM_CR11_REG    = ADC_CFG3_DSM_CR11;
1408:.\Generated_Source\PSoC5/ADC.c ****             ADC_DSM_CR12_REG    = ADC_CFG3_DSM_CR12;
1409:.\Generated_Source\PSoC5/ADC.c ****             ADC_DSM_CR14_REG    = ADC_CFG3_DSM_CR14;
1410:.\Generated_Source\PSoC5/ADC.c ****             ADC_DSM_CR15_REG    = ADC_CFG3_DSM_CR15;
1411:.\Generated_Source\PSoC5/ADC.c ****             ADC_DSM_CR16_REG    = ADC_CFG3_DSM_CR16;
1412:.\Generated_Source\PSoC5/ADC.c ****             ADC_DSM_CR17_REG    = ADC_CFG3_DSM_CR17;
1413:.\Generated_Source\PSoC5/ADC.c ****             /* Set DSM_REF0_REG by disabling and enabling the PRESS circuit */
1414:.\Generated_Source\PSoC5/ADC.c ****             ADC_SetDSMRef0Reg(ADC_CFG3_DSM_REF0);
1415:.\Generated_Source\PSoC5/ADC.c ****             ADC_DSM_REF2_REG    = ADC_CFG3_DSM_REF2;
1416:.\Generated_Source\PSoC5/ADC.c ****             ADC_DSM_REF3_REG    = ADC_CFG3_DSM_REF3;
1417:.\Generated_Source\PSoC5/ADC.c **** 
1418:.\Generated_Source\PSoC5/ADC.c ****             ADC_DSM_BUF0_REG    = ADC_CFG3_DSM_BUF0;
1419:.\Generated_Source\PSoC5/ADC.c ****             ADC_DSM_BUF1_REG    = ADC_CFG3_DSM_BUF1;
1420:.\Generated_Source\PSoC5/ADC.c ****             ADC_DSM_BUF2_REG    = ADC_CFG3_DSM_BUF2;
1421:.\Generated_Source\PSoC5/ADC.c ****             ADC_DSM_BUF3_REG    = ADC_CFG3_DSM_BUF3;
1422:.\Generated_Source\PSoC5/ADC.c **** 
1423:.\Generated_Source\PSoC5/ADC.c ****             /* To select either Vssa or Vref to -ve input of DSM depending on
1424:.\Generated_Source\PSoC5/ADC.c ****             *  the input range selected.
1425:.\Generated_Source\PSoC5/ADC.c ****             */
1426:.\Generated_Source\PSoC5/ADC.c ****             #if(ADC_DEFAULT_INPUT_MODE)
1427:.\Generated_Source\PSoC5/ADC.c ****                 #if (ADC_CFG3_INPUT_RANGE == ADC_IR_VSSA_TO_2VREF)
1428:.\Generated_Source\PSoC5/ADC.c ****                     ADC_AMux_Select(1u);
1429:.\Generated_Source\PSoC5/ADC.c ****                 #else
1430:.\Generated_Source\PSoC5/ADC.c ****                     ADC_AMux_Select(0u);
1431:.\Generated_Source\PSoC5/ADC.c ****                 #endif /* ADC_IR_VSSA_TO_2VREF) */
1432:.\Generated_Source\PSoC5/ADC.c ****             #endif /* ADC_DEFAULT_INPUT_MODE */
1433:.\Generated_Source\PSoC5/ADC.c **** 
1434:.\Generated_Source\PSoC5/ADC.c ****             /* Set the Conversion stop if resolution is above 16 bit and
1435:.\Generated_Source\PSoC5/ADC.c ****                conversion  mode is Single sample */
1436:.\Generated_Source\PSoC5/ADC.c ****             #if(ADC_CFG3_RESOLUTION > 16 && \
1437:.\Generated_Source\PSoC5/ADC.c ****                 ADC_CFG3_CONV_MODE == ADC_MODE_SINGLE_SAMPLE)
1438:.\Generated_Source\PSoC5/ADC.c ****                 ADC_stopConversion = 1u;
1439:.\Generated_Source\PSoC5/ADC.c ****             #endif /* Single sample with resolution above 16 bits */
1440:.\Generated_Source\PSoC5/ADC.c **** 
1441:.\Generated_Source\PSoC5/ADC.c ****             ADC_CountsPerVolt = (int32)ADC_CFG3_COUNTS_PER_VOLT;
1442:.\Generated_Source\PSoC5/ADC.c **** 
1443:.\Generated_Source\PSoC5/ADC.c ****             ADC_Ext_CP_Clk_SetDividerRegister(ADC_CFG3_CP_CLK_DIVIDER, 1u);
1444:.\Generated_Source\PSoC5/ADC.c **** 
1445:.\Generated_Source\PSoC5/ADC.c ****             /* This is only valid if there is an internal clock */
1446:.\Generated_Source\PSoC5/ADC.c ****             #if(ADC_DEFAULT_INTERNAL_CLK)
1447:.\Generated_Source\PSoC5/ADC.c ****                 ADC_theACLK_SetDividerRegister(ADC_CFG3_ADC_CLK_DIVIDER, 1u);
1448:.\Generated_Source\PSoC5/ADC.c ****             #endif /* ADC_DEFAULT_INTERNAL_CLK */
1449:.\Generated_Source\PSoC5/ADC.c **** 
1450:.\Generated_Source\PSoC5/ADC.c ****             #if(ADC_IRQ_REMOVE == 0u)
1451:.\Generated_Source\PSoC5/ADC.c ****                 /* Set interrupt vector */
1452:.\Generated_Source\PSoC5/ADC.c ****                 (void)CyIntSetVector(ADC_INTC_NUMBER, &ADC_ISR3);
1453:.\Generated_Source\PSoC5/ADC.c ****             #endif   /* End ADC_IRQ_REMOVE */
1454:.\Generated_Source\PSoC5/ADC.c ****         }
1455:.\Generated_Source\PSoC5/ADC.c ****     #endif /* ADC_DEFAULT_NUM_CONFIGS > 2 */
1456:.\Generated_Source\PSoC5/ADC.c **** 
1457:.\Generated_Source\PSoC5/ADC.c ****     #if(ADC_DEFAULT_NUM_CONFIGS > 3)
ARM GAS  C:\Users\HENRYA~1\AppData\Local\Temp\ccEyCdcC.s 			page 27


1458:.\Generated_Source\PSoC5/ADC.c ****         if (config == 4u)
1459:.\Generated_Source\PSoC5/ADC.c ****         {
1460:.\Generated_Source\PSoC5/ADC.c ****             /* Fourth Config */
1461:.\Generated_Source\PSoC5/ADC.c ****             ADC_DEC_CR_REG      = ADC_CFG4_DEC_CR;
1462:.\Generated_Source\PSoC5/ADC.c ****             ADC_DEC_SHIFT1_REG  = ADC_CFG4_DEC_SHIFT1;
1463:.\Generated_Source\PSoC5/ADC.c ****             ADC_DEC_SHIFT2_REG  = ADC_CFG4_DEC_SHIFT2;
1464:.\Generated_Source\PSoC5/ADC.c ****             ADC_DEC_DR2_REG     = ADC_CFG4_DEC_DR2;
1465:.\Generated_Source\PSoC5/ADC.c ****             ADC_DEC_DR2H_REG    = ADC_CFG4_DEC_DR2H;
1466:.\Generated_Source\PSoC5/ADC.c ****             ADC_DEC_DR1_REG     = ADC_CFG4_DEC_DR1;
1467:.\Generated_Source\PSoC5/ADC.c ****             ADC_DEC_OCOR_REG    = ADC_CFG4_DEC_OCOR;
1468:.\Generated_Source\PSoC5/ADC.c ****             ADC_DEC_OCORM_REG   = ADC_CFG4_DEC_OCORM;
1469:.\Generated_Source\PSoC5/ADC.c ****             ADC_DEC_OCORH_REG   = ADC_CFG4_DEC_OCORH;
1470:.\Generated_Source\PSoC5/ADC.c ****             ADC_DEC_COHER_REG   = ADC_CFG4_DEC_COHER;
1471:.\Generated_Source\PSoC5/ADC.c **** 
1472:.\Generated_Source\PSoC5/ADC.c ****             ADC_DSM_CR4_REG     = ADC_CFG4_DSM_CR4;
1473:.\Generated_Source\PSoC5/ADC.c ****             ADC_DSM_CR5_REG     = ADC_CFG4_DSM_CR5;
1474:.\Generated_Source\PSoC5/ADC.c ****             ADC_DSM_CR6_REG     = ADC_CFG4_DSM_CR6;
1475:.\Generated_Source\PSoC5/ADC.c ****             ADC_DSM_CR7_REG     = ADC_CFG4_DSM_CR7;
1476:.\Generated_Source\PSoC5/ADC.c ****             ADC_DSM_CR10_REG    = ADC_CFG4_DSM_CR10;
1477:.\Generated_Source\PSoC5/ADC.c ****             ADC_DSM_CR11_REG    = ADC_CFG4_DSM_CR11;
1478:.\Generated_Source\PSoC5/ADC.c ****             ADC_DSM_CR12_REG    = ADC_CFG4_DSM_CR12;
1479:.\Generated_Source\PSoC5/ADC.c ****             ADC_DSM_CR14_REG    = ADC_CFG4_DSM_CR14;
1480:.\Generated_Source\PSoC5/ADC.c ****             ADC_DSM_CR15_REG    = ADC_CFG4_DSM_CR15;
1481:.\Generated_Source\PSoC5/ADC.c ****             ADC_DSM_CR16_REG    = ADC_CFG4_DSM_CR16;
1482:.\Generated_Source\PSoC5/ADC.c ****             ADC_DSM_CR17_REG    = ADC_CFG4_DSM_CR17;
1483:.\Generated_Source\PSoC5/ADC.c ****             /* Set DSM_REF0_REG by disabling and enabling the PRESS circuit */
1484:.\Generated_Source\PSoC5/ADC.c ****             ADC_SetDSMRef0Reg(ADC_CFG4_DSM_REF0);
1485:.\Generated_Source\PSoC5/ADC.c ****             ADC_DSM_REF2_REG    = ADC_CFG4_DSM_REF2;
1486:.\Generated_Source\PSoC5/ADC.c ****             ADC_DSM_REF3_REG    = ADC_CFG4_DSM_REF3;
1487:.\Generated_Source\PSoC5/ADC.c **** 
1488:.\Generated_Source\PSoC5/ADC.c ****             ADC_DSM_BUF0_REG    = ADC_CFG4_DSM_BUF0;
1489:.\Generated_Source\PSoC5/ADC.c ****             ADC_DSM_BUF1_REG    = ADC_CFG4_DSM_BUF1;
1490:.\Generated_Source\PSoC5/ADC.c ****             ADC_DSM_BUF2_REG    = ADC_CFG4_DSM_BUF2;
1491:.\Generated_Source\PSoC5/ADC.c ****             ADC_DSM_BUF3_REG    = ADC_CFG4_DSM_BUF3;
1492:.\Generated_Source\PSoC5/ADC.c **** 
1493:.\Generated_Source\PSoC5/ADC.c ****             /* To select either Vssa or Vref to -ve input of DSM depending on
1494:.\Generated_Source\PSoC5/ADC.c ****             *  the input range selected.
1495:.\Generated_Source\PSoC5/ADC.c ****             */
1496:.\Generated_Source\PSoC5/ADC.c ****             #if(ADC_DEFAULT_INPUT_MODE)
1497:.\Generated_Source\PSoC5/ADC.c ****                 #if (ADC_CFG4_INPUT_RANGE == ADC_IR_VSSA_TO_2VREF)
1498:.\Generated_Source\PSoC5/ADC.c ****                     ADC_AMux_Select(1u);
1499:.\Generated_Source\PSoC5/ADC.c ****                 #else
1500:.\Generated_Source\PSoC5/ADC.c ****                     ADC_AMux_Select(0u);
1501:.\Generated_Source\PSoC5/ADC.c ****                 #endif /* ADC_IR_VSSA_TO_2VREF) */
1502:.\Generated_Source\PSoC5/ADC.c ****             #endif /* ADC_DEFAULT_INPUT_MODE */
1503:.\Generated_Source\PSoC5/ADC.c **** 
1504:.\Generated_Source\PSoC5/ADC.c ****             /* Set the Conversion stop if resolution is above 16 bit and
1505:.\Generated_Source\PSoC5/ADC.c ****                conversion mode is Single sample */
1506:.\Generated_Source\PSoC5/ADC.c ****             #if(ADC_CFG4_RESOLUTION > 16 && \
1507:.\Generated_Source\PSoC5/ADC.c ****                 ADC_CFG4_CONV_MODE == ADC_MODE_SINGLE_SAMPLE)
1508:.\Generated_Source\PSoC5/ADC.c ****                 ADC_stopConversion = 1u;
1509:.\Generated_Source\PSoC5/ADC.c ****             #endif /* Single sample with resolution above 16 bits */
1510:.\Generated_Source\PSoC5/ADC.c **** 
1511:.\Generated_Source\PSoC5/ADC.c ****             ADC_CountsPerVolt = (int32)ADC_CFG4_COUNTS_PER_VOLT;
1512:.\Generated_Source\PSoC5/ADC.c **** 
1513:.\Generated_Source\PSoC5/ADC.c ****             ADC_Ext_CP_Clk_SetDividerRegister(ADC_CFG4_CP_CLK_DIVIDER, 1u);
1514:.\Generated_Source\PSoC5/ADC.c **** 
ARM GAS  C:\Users\HENRYA~1\AppData\Local\Temp\ccEyCdcC.s 			page 28


1515:.\Generated_Source\PSoC5/ADC.c ****             /* This is only valid if there is an internal clock */
1516:.\Generated_Source\PSoC5/ADC.c ****             #if(ADC_DEFAULT_INTERNAL_CLK)
1517:.\Generated_Source\PSoC5/ADC.c ****                 ADC_theACLK_SetDividerRegister(ADC_CFG4_ADC_CLK_DIVIDER, 1u);
1518:.\Generated_Source\PSoC5/ADC.c ****             #endif /* ADC_DEFAULT_INTERNAL_CLK */
1519:.\Generated_Source\PSoC5/ADC.c **** 
1520:.\Generated_Source\PSoC5/ADC.c ****             #if(ADC_IRQ_REMOVE == 0u)
1521:.\Generated_Source\PSoC5/ADC.c ****                 /* Set interrupt vector */
1522:.\Generated_Source\PSoC5/ADC.c ****                 (void)CyIntSetVector(ADC_INTC_NUMBER, &ADC_ISR4);
1523:.\Generated_Source\PSoC5/ADC.c ****             #endif   /* End ADC_IRQ_REMOVE */
1524:.\Generated_Source\PSoC5/ADC.c ****         }
1525:.\Generated_Source\PSoC5/ADC.c ****     #endif /* ADC_DEFAULT_NUM_CONFIGS > 3 */
1526:.\Generated_Source\PSoC5/ADC.c **** }
1527:.\Generated_Source\PSoC5/ADC.c **** 
1528:.\Generated_Source\PSoC5/ADC.c **** 
1529:.\Generated_Source\PSoC5/ADC.c **** /*******************************************************************************
1530:.\Generated_Source\PSoC5/ADC.c **** * Function Name: ADC_SelectCofiguration
1531:.\Generated_Source\PSoC5/ADC.c **** ********************************************************************************
1532:.\Generated_Source\PSoC5/ADC.c **** *
1533:.\Generated_Source\PSoC5/ADC.c **** * Summary:
1534:.\Generated_Source\PSoC5/ADC.c **** *  Sets one of up to four ADC configurations. Before setting the new
1535:.\Generated_Source\PSoC5/ADC.c **** *  configuration, the ADC is stopped and powered down. After setting
1536:.\Generated_Source\PSoC5/ADC.c **** *  the new configuration, the ADC can be powered and conversion
1537:.\Generated_Source\PSoC5/ADC.c **** *  can be restarted depending up on the value of second parameter
1538:.\Generated_Source\PSoC5/ADC.c **** *  restart. If the value of this parameter is 1, then ADC will be
1539:.\Generated_Source\PSoC5/ADC.c **** *  restarted. If this value is zero, then user must call ADC_Start
1540:.\Generated_Source\PSoC5/ADC.c **** *  and ADC_StartConvert() to restart the conversion.
1541:.\Generated_Source\PSoC5/ADC.c **** *
1542:.\Generated_Source\PSoC5/ADC.c **** * Parameters:
1543:.\Generated_Source\PSoC5/ADC.c **** *  config:  configuration user wants to select.
1544:.\Generated_Source\PSoC5/ADC.c **** *           Valid range: 1..4
1545:.\Generated_Source\PSoC5/ADC.c **** *  restart:  Restart option. 1 means start the ADC and restart the conversion.
1546:.\Generated_Source\PSoC5/ADC.c **** *                            0 means do not start the ADC and conversion.
1547:.\Generated_Source\PSoC5/ADC.c **** *
1548:.\Generated_Source\PSoC5/ADC.c **** * Return:
1549:.\Generated_Source\PSoC5/ADC.c **** *  None
1550:.\Generated_Source\PSoC5/ADC.c **** *
1551:.\Generated_Source\PSoC5/ADC.c **** *******************************************************************************/
1552:.\Generated_Source\PSoC5/ADC.c **** void ADC_SelectConfiguration(uint8 config, uint8 restart)
1553:.\Generated_Source\PSoC5/ADC.c ****                                               
1554:.\Generated_Source\PSoC5/ADC.c **** {
1555:.\Generated_Source\PSoC5/ADC.c ****     /* Check whether the configuration number is valid or not */
1556:.\Generated_Source\PSoC5/ADC.c ****     if((config > 0u) && (config <= ADC_DEFAULT_NUM_CONFIGS))
1557:.\Generated_Source\PSoC5/ADC.c ****     {
1558:.\Generated_Source\PSoC5/ADC.c ****         /* Set the flag to ensure Start() API doesn't override the 
1559:.\Generated_Source\PSoC5/ADC.c **** 		*  selected configuration
1560:.\Generated_Source\PSoC5/ADC.c **** 		*/
1561:.\Generated_Source\PSoC5/ADC.c ****         if(ADC_initVar == 0u)
1562:.\Generated_Source\PSoC5/ADC.c ****         {
1563:.\Generated_Source\PSoC5/ADC.c ****             ADC_started = 1u;
1564:.\Generated_Source\PSoC5/ADC.c ****         }
1565:.\Generated_Source\PSoC5/ADC.c **** 
1566:.\Generated_Source\PSoC5/ADC.c ****         /* Update the config flag */
1567:.\Generated_Source\PSoC5/ADC.c ****         ADC_Config = config;
1568:.\Generated_Source\PSoC5/ADC.c **** 
1569:.\Generated_Source\PSoC5/ADC.c ****         /* Stop the ADC  */
1570:.\Generated_Source\PSoC5/ADC.c ****         ADC_Stop();
1571:.\Generated_Source\PSoC5/ADC.c **** 
ARM GAS  C:\Users\HENRYA~1\AppData\Local\Temp\ccEyCdcC.s 			page 29


1572:.\Generated_Source\PSoC5/ADC.c ****         /* Set the  ADC registers based on the configuration */
1573:.\Generated_Source\PSoC5/ADC.c ****         ADC_InitConfig(config);
1574:.\Generated_Source\PSoC5/ADC.c **** 
1575:.\Generated_Source\PSoC5/ADC.c ****         /* Compensate the gain */
1576:.\Generated_Source\PSoC5/ADC.c ****         ADC_DEC_GVAL_REG = ADC_gcor[config - 1u].gval;
1577:.\Generated_Source\PSoC5/ADC.c ****         CY_SET_REG16(ADC_DEC_GCOR_16B_PTR, ADC_gcor[config - 1u].gcor);
1578:.\Generated_Source\PSoC5/ADC.c **** 
1579:.\Generated_Source\PSoC5/ADC.c ****         if(restart == 1u)
1580:.\Generated_Source\PSoC5/ADC.c ****         {
1581:.\Generated_Source\PSoC5/ADC.c ****             /* Restart the ADC */
1582:.\Generated_Source\PSoC5/ADC.c ****             ADC_Start();
1583:.\Generated_Source\PSoC5/ADC.c **** 
1584:.\Generated_Source\PSoC5/ADC.c ****             /* Restart the ADC conversion */
1585:.\Generated_Source\PSoC5/ADC.c ****             ADC_StartConvert();
1586:.\Generated_Source\PSoC5/ADC.c ****         }
1587:.\Generated_Source\PSoC5/ADC.c ****     }
1588:.\Generated_Source\PSoC5/ADC.c ****     else
1589:.\Generated_Source\PSoC5/ADC.c ****     {
1590:.\Generated_Source\PSoC5/ADC.c ****         /* Halt CPU in debug mode if config is out of valid range */
1591:.\Generated_Source\PSoC5/ADC.c ****         CYASSERT(0u != 0u);
1592:.\Generated_Source\PSoC5/ADC.c ****     }
1593:.\Generated_Source\PSoC5/ADC.c **** }
1594:.\Generated_Source\PSoC5/ADC.c **** 
1595:.\Generated_Source\PSoC5/ADC.c **** 
1596:.\Generated_Source\PSoC5/ADC.c **** /*******************************************************************************
1597:.\Generated_Source\PSoC5/ADC.c **** * Function Name: ADC_GainCompensation
1598:.\Generated_Source\PSoC5/ADC.c **** ********************************************************************************
1599:.\Generated_Source\PSoC5/ADC.c **** *
1600:.\Generated_Source\PSoC5/ADC.c **** * Summary:
1601:.\Generated_Source\PSoC5/ADC.c **** *  This API calculates the trim value and then store this to gcor structure.
1602:.\Generated_Source\PSoC5/ADC.c **** *
1603:.\Generated_Source\PSoC5/ADC.c **** * Parameters:
1604:.\Generated_Source\PSoC5/ADC.c **** *  inputRange:  input range for which trim value is to be calculated.
1605:.\Generated_Source\PSoC5/ADC.c **** *  IdealDecGain:  Ideal Decimator gain for the selected resolution and
1606:.\Generated_Source\PSoC5/ADC.c **** *                 conversion  mode.
1607:.\Generated_Source\PSoC5/ADC.c **** *  IdealOddDecGain:  Ideal odd decimation gain for the selected resolution and
1608:.\Generated_Source\PSoC5/ADC.c ****                      conversion mode.
1609:.\Generated_Source\PSoC5/ADC.c **** *  resolution:  Resolution to select the proper flash location for trim value.
1610:.\Generated_Source\PSoC5/ADC.c **** *  config:      Specifies the configuration number
1611:.\Generated_Source\PSoC5/ADC.c **** *               Valid range: 1..4
1612:.\Generated_Source\PSoC5/ADC.c **** *
1613:.\Generated_Source\PSoC5/ADC.c **** * Return:
1614:.\Generated_Source\PSoC5/ADC.c **** *  None
1615:.\Generated_Source\PSoC5/ADC.c **** *
1616:.\Generated_Source\PSoC5/ADC.c **** *******************************************************************************/
1617:.\Generated_Source\PSoC5/ADC.c **** static void ADC_GainCompensation(uint8 inputRange, uint16 idealDecGain, uint16 idealOddDecGain,
1618:.\Generated_Source\PSoC5/ADC.c ****                               uint8 resolution, uint8 config) 
1619:.\Generated_Source\PSoC5/ADC.c **** {
  26              		.loc 1 1619 0
  27              		.cfi_startproc
  28              		@ args = 4, pretend = 0, frame = 0
  29              		@ frame_needed = 0, uses_anonymous_args = 0
  30              	.LVL0:
  31 0000 10B5     		push	{r4, lr}
  32              		.cfi_def_cfa_offset 8
  33              		.cfi_offset 4, -8
  34              		.cfi_offset 14, -4
ARM GAS  C:\Users\HENRYA~1\AppData\Local\Temp\ccEyCdcC.s 			page 30


  35 0002 9DF80840 		ldrb	r4, [sp, #8]	@ zero_extendqisi2
1620:.\Generated_Source\PSoC5/ADC.c ****     int8 flash;
1621:.\Generated_Source\PSoC5/ADC.c **** 	int32 normalised;
1622:.\Generated_Source\PSoC5/ADC.c **** 	uint16 gcorValue;
1623:.\Generated_Source\PSoC5/ADC.c ****     uint32 gcorTmp;
1624:.\Generated_Source\PSoC5/ADC.c **** 
1625:.\Generated_Source\PSoC5/ADC.c ****     if((config > 0u) && (config <= ADC_DEFAULT_NUM_CONFIGS))
  36              		.loc 1 1625 0
  37 0006 012C     		cmp	r4, #1
  38 0008 4AD1     		bne	.L2
1626:.\Generated_Source\PSoC5/ADC.c ****     {
1627:.\Generated_Source\PSoC5/ADC.c ****         switch(inputRange)
  39              		.loc 1 1627 0
  40 000a 0138     		subs	r0, r0, #1
  41              	.LVL1:
  42 000c 0928     		cmp	r0, #9
  43 000e 26D8     		bhi	.L16
  44 0010 DFE800F0 		tbb	[pc, r0]
  45              	.L5:
  46 0014 05       		.byte	(.L4-.L5)/2
  47 0015 25       		.byte	(.L16-.L5)/2
  48 0016 25       		.byte	(.L16-.L5)/2
  49 0017 05       		.byte	(.L4-.L5)/2
  50 0018 25       		.byte	(.L16-.L5)/2
  51 0019 25       		.byte	(.L16-.L5)/2
  52 001a 0D       		.byte	(.L6-.L5)/2
  53 001b 15       		.byte	(.L7-.L5)/2
  54 001c 25       		.byte	(.L16-.L5)/2
  55 001d 1D       		.byte	(.L8-.L5)/2
  56              		.p2align 1
  57              	.L4:
1628:.\Generated_Source\PSoC5/ADC.c ****         {
1629:.\Generated_Source\PSoC5/ADC.c ****             case ADC_IR_VNEG_VREF_DIFF:
1630:.\Generated_Source\PSoC5/ADC.c ****             case ADC_IR_VSSA_TO_2VREF:
1631:.\Generated_Source\PSoC5/ADC.c ****                 /* Normalize the flash Value */
1632:.\Generated_Source\PSoC5/ADC.c ****                 if(resolution > 15u)
  58              		.loc 1 1632 0
  59 001e 0F2B     		cmp	r3, #15
  60 0020 02D9     		bls	.L9
1633:.\Generated_Source\PSoC5/ADC.c ****                 {
1634:.\Generated_Source\PSoC5/ADC.c ****                     flash = ADC_DEC_TRIM_VREF_DIFF_16_20;
  61              		.loc 1 1634 0
  62 0022 2148     		ldr	r0, .L18
  63 0024 0078     		ldrb	r0, [r0]	@ zero_extendqisi2
  64              	.LVL2:
  65 0026 1BE0     		b	.L3
  66              	.LVL3:
  67              	.L9:
1635:.\Generated_Source\PSoC5/ADC.c ****                 }
1636:.\Generated_Source\PSoC5/ADC.c ****                 else
1637:.\Generated_Source\PSoC5/ADC.c ****                 {
1638:.\Generated_Source\PSoC5/ADC.c ****                     flash = ADC_DEC_TRIM_VREF_DIFF_8_15;
  68              		.loc 1 1638 0
  69 0028 2048     		ldr	r0, .L18+4
  70 002a 0078     		ldrb	r0, [r0]	@ zero_extendqisi2
  71              	.LVL4:
  72 002c 18E0     		b	.L3
ARM GAS  C:\Users\HENRYA~1\AppData\Local\Temp\ccEyCdcC.s 			page 31


  73              	.LVL5:
  74              	.L6:
1639:.\Generated_Source\PSoC5/ADC.c ****                 }
1640:.\Generated_Source\PSoC5/ADC.c ****                 break;
1641:.\Generated_Source\PSoC5/ADC.c **** 
1642:.\Generated_Source\PSoC5/ADC.c ****             case ADC_IR_VNEG_VREF_2_DIFF:
1643:.\Generated_Source\PSoC5/ADC.c ****                 /* Normalize the flash Value */
1644:.\Generated_Source\PSoC5/ADC.c ****                 if(resolution > 15u)
  75              		.loc 1 1644 0
  76 002e 0F2B     		cmp	r3, #15
  77 0030 02D9     		bls	.L10
1645:.\Generated_Source\PSoC5/ADC.c ****                 {
1646:.\Generated_Source\PSoC5/ADC.c ****                     flash = ADC_DEC_TRIM_VREF_2_DIFF_16_20;
  78              		.loc 1 1646 0
  79 0032 1F48     		ldr	r0, .L18+8
  80 0034 0078     		ldrb	r0, [r0]	@ zero_extendqisi2
  81              	.LVL6:
  82 0036 13E0     		b	.L3
  83              	.LVL7:
  84              	.L10:
1647:.\Generated_Source\PSoC5/ADC.c ****                 }
1648:.\Generated_Source\PSoC5/ADC.c ****                 else
1649:.\Generated_Source\PSoC5/ADC.c ****                 {
1650:.\Generated_Source\PSoC5/ADC.c ****                     flash = ADC_DEC_TRIM_VREF_2_DIFF_8_15;
  85              		.loc 1 1650 0
  86 0038 1E48     		ldr	r0, .L18+12
  87 003a 0078     		ldrb	r0, [r0]	@ zero_extendqisi2
  88              	.LVL8:
  89 003c 10E0     		b	.L3
  90              	.LVL9:
  91              	.L7:
1651:.\Generated_Source\PSoC5/ADC.c ****                 }
1652:.\Generated_Source\PSoC5/ADC.c ****                 break;
1653:.\Generated_Source\PSoC5/ADC.c **** 
1654:.\Generated_Source\PSoC5/ADC.c ****             case ADC_IR_VNEG_VREF_4_DIFF:
1655:.\Generated_Source\PSoC5/ADC.c ****                 /* Normalize the flash Value */
1656:.\Generated_Source\PSoC5/ADC.c ****                 if(resolution > 15u)
  92              		.loc 1 1656 0
  93 003e 0F2B     		cmp	r3, #15
  94 0040 02D9     		bls	.L11
1657:.\Generated_Source\PSoC5/ADC.c ****                 {
1658:.\Generated_Source\PSoC5/ADC.c ****                     flash = ADC_DEC_TRIM_VREF_4_DIFF_16_20;
  95              		.loc 1 1658 0
  96 0042 1D48     		ldr	r0, .L18+16
  97 0044 0078     		ldrb	r0, [r0]	@ zero_extendqisi2
  98              	.LVL10:
  99 0046 0BE0     		b	.L3
 100              	.LVL11:
 101              	.L11:
1659:.\Generated_Source\PSoC5/ADC.c ****                 }
1660:.\Generated_Source\PSoC5/ADC.c ****                 else
1661:.\Generated_Source\PSoC5/ADC.c ****                 {
1662:.\Generated_Source\PSoC5/ADC.c ****                     flash = ADC_DEC_TRIM_VREF_4_DIFF_8_15;
 102              		.loc 1 1662 0
 103 0048 1C48     		ldr	r0, .L18+20
 104 004a 0078     		ldrb	r0, [r0]	@ zero_extendqisi2
 105              	.LVL12:
ARM GAS  C:\Users\HENRYA~1\AppData\Local\Temp\ccEyCdcC.s 			page 32


 106 004c 08E0     		b	.L3
 107              	.LVL13:
 108              	.L8:
1663:.\Generated_Source\PSoC5/ADC.c ****                 }
1664:.\Generated_Source\PSoC5/ADC.c ****                 break;
1665:.\Generated_Source\PSoC5/ADC.c **** 
1666:.\Generated_Source\PSoC5/ADC.c ****             case ADC_IR_VNEG_VREF_16_DIFF:
1667:.\Generated_Source\PSoC5/ADC.c ****                 /* Normalize the flash Value */
1668:.\Generated_Source\PSoC5/ADC.c ****                 if(resolution > 15u)
 109              		.loc 1 1668 0
 110 004e 0F2B     		cmp	r3, #15
 111 0050 02D9     		bls	.L12
1669:.\Generated_Source\PSoC5/ADC.c ****                 {
1670:.\Generated_Source\PSoC5/ADC.c ****                     flash = ADC_DEC_TRIM_VREF_16_DIFF_16_20;
 112              		.loc 1 1670 0
 113 0052 1B48     		ldr	r0, .L18+24
 114 0054 0078     		ldrb	r0, [r0]	@ zero_extendqisi2
 115              	.LVL14:
 116 0056 03E0     		b	.L3
 117              	.LVL15:
 118              	.L12:
1671:.\Generated_Source\PSoC5/ADC.c ****                 }
1672:.\Generated_Source\PSoC5/ADC.c ****                 else
1673:.\Generated_Source\PSoC5/ADC.c ****                 {
1674:.\Generated_Source\PSoC5/ADC.c ****                     flash = ADC_DEC_TRIM_VREF_16_DIFF_8_15;
 119              		.loc 1 1674 0
 120 0058 1A48     		ldr	r0, .L18+28
 121 005a 0078     		ldrb	r0, [r0]	@ zero_extendqisi2
 122              	.LVL16:
 123 005c 00E0     		b	.L3
 124              	.LVL17:
 125              	.L16:
1675:.\Generated_Source\PSoC5/ADC.c ****                 }
1676:.\Generated_Source\PSoC5/ADC.c ****                 break;
1677:.\Generated_Source\PSoC5/ADC.c **** 
1678:.\Generated_Source\PSoC5/ADC.c ****             default:
1679:.\Generated_Source\PSoC5/ADC.c ****                 flash = 0;
 126              		.loc 1 1679 0
 127 005e 0020     		movs	r0, #0
 128              	.L3:
 129              	.LVL18:
1680:.\Generated_Source\PSoC5/ADC.c ****                 break;
1681:.\Generated_Source\PSoC5/ADC.c ****         }
1682:.\Generated_Source\PSoC5/ADC.c **** 
1683:.\Generated_Source\PSoC5/ADC.c ****         /* Add two values */
1684:.\Generated_Source\PSoC5/ADC.c **** 		normalised = (int32)idealDecGain + ((int32)flash * 32);
 130              		.loc 1 1684 0
 131 0060 40B2     		sxtb	r0, r0
 132 0062 01EB4011 		add	r1, r1, r0, lsl #5
 133              	.LVL19:
1685:.\Generated_Source\PSoC5/ADC.c ****         gcorTmp = (uint32)normalised * (uint32)idealOddDecGain;
 134              		.loc 1 1685 0
 135 0066 01FB02F1 		mul	r1, r1, r2
 136              	.LVL20:
1686:.\Generated_Source\PSoC5/ADC.c ****         gcorValue = (uint16)(gcorTmp / ADC_IDEAL_GAIN_CONST);
 137              		.loc 1 1686 0
 138 006a C90B     		lsrs	r1, r1, #15
ARM GAS  C:\Users\HENRYA~1\AppData\Local\Temp\ccEyCdcC.s 			page 33


 139              	.LVL21:
 140 006c 8AB2     		uxth	r2, r1
 141              	.LVL22:
1687:.\Generated_Source\PSoC5/ADC.c **** 
1688:.\Generated_Source\PSoC5/ADC.c ****         if (resolution < (ADC_MAX_GVAL - 1u))
 142              		.loc 1 1688 0
 143 006e 0D2B     		cmp	r3, #13
 144 0070 0BD8     		bhi	.L13
1689:.\Generated_Source\PSoC5/ADC.c ****         {
1690:.\Generated_Source\PSoC5/ADC.c ****             gcorValue = (gcorValue >> (ADC_MAX_GVAL - (resolution + 1u)));
 145              		.loc 1 1690 0
 146 0072 C3F10E02 		rsb	r2, r3, #14
 147              	.LVL23:
 148 0076 89B2     		uxth	r1, r1
 149 0078 1141     		asrs	r1, r1, r2
 150              	.LVL24:
 151 007a 8AB2     		uxth	r2, r1
 152              	.LVL25:
1691:.\Generated_Source\PSoC5/ADC.c ****             ADC_gcor[config - 1u].gval = (resolution + 1u);
 153              		.loc 1 1691 0
 154 007c 1249     		ldr	r1, .L18+32
 155 007e 01EB8401 		add	r1, r1, r4, lsl #2
 156 0082 0133     		adds	r3, r3, #1
 157              	.LVL26:
 158 0084 01F8023C 		strb	r3, [r1, #-2]
 159 0088 05E0     		b	.L14
 160              	.LVL27:
 161              	.L13:
1692:.\Generated_Source\PSoC5/ADC.c ****         }
1693:.\Generated_Source\PSoC5/ADC.c ****         else
1694:.\Generated_Source\PSoC5/ADC.c ****         {
1695:.\Generated_Source\PSoC5/ADC.c ****             /* Use all 16 bits */
1696:.\Generated_Source\PSoC5/ADC.c ****             ADC_gcor[config - 1u].gval = ADC_MAX_GVAL;
 162              		.loc 1 1696 0
 163 008a 0F4B     		ldr	r3, .L18+32
 164              	.LVL28:
 165 008c 03EB8403 		add	r3, r3, r4, lsl #2
 166 0090 0F21     		movs	r1, #15
 167 0092 03F8021C 		strb	r1, [r3, #-2]
 168              	.L14:
1697:.\Generated_Source\PSoC5/ADC.c ****         }
1698:.\Generated_Source\PSoC5/ADC.c **** 
1699:.\Generated_Source\PSoC5/ADC.c ****         /* Save the gain correction register value */
1700:.\Generated_Source\PSoC5/ADC.c ****         ADC_gcor[config - 1u].gcor = gcorValue;
 169              		.loc 1 1700 0
 170 0096 013C     		subs	r4, r4, #1
 171 0098 0B4B     		ldr	r3, .L18+32
 172 009a 23F82420 		strh	r2, [r3, r4, lsl #2]	@ movhi
 173 009e 10BD     		pop	{r4, pc}
 174              	.LVL29:
 175              	.L2:
1701:.\Generated_Source\PSoC5/ADC.c ****     }
1702:.\Generated_Source\PSoC5/ADC.c ****     else
1703:.\Generated_Source\PSoC5/ADC.c ****     {
1704:.\Generated_Source\PSoC5/ADC.c ****         /* Halt CPU in debug mode if config is out of valid range */
1705:.\Generated_Source\PSoC5/ADC.c ****         CYASSERT(0u != 0u);
 176              		.loc 1 1705 0 discriminator 1
ARM GAS  C:\Users\HENRYA~1\AppData\Local\Temp\ccEyCdcC.s 			page 34


 177 00a0 0020     		movs	r0, #0
 178              	.LVL30:
 179 00a2 FFF7FEFF 		bl	CyHalt
 180              	.LVL31:
 181 00a6 10BD     		pop	{r4, pc}
 182              	.LVL32:
 183              	.L19:
 184              		.align	2
 185              	.L18:
 186 00a8 18010049 		.word	1224737048
 187 00ac 1C010049 		.word	1224737052
 188 00b0 19010049 		.word	1224737049
 189 00b4 1D010049 		.word	1224737053
 190 00b8 1A010049 		.word	1224737050
 191 00bc 1E010049 		.word	1224737054
 192 00c0 1B010049 		.word	1224737051
 193 00c4 1F010049 		.word	1224737055
 194 00c8 00000000 		.word	.LANCHOR0
 195              		.cfi_endproc
 196              	.LFE21:
 197              		.size	ADC_GainCompensation, .-ADC_GainCompensation
 198              		.section	.text.ADC_SetDSMRef0Reg,"ax",%progbits
 199              		.align	2
 200              		.thumb
 201              		.thumb_func
 202              		.type	ADC_SetDSMRef0Reg, %function
 203              	ADC_SetDSMRef0Reg:
 204              	.LFB22:
1706:.\Generated_Source\PSoC5/ADC.c ****     }
1707:.\Generated_Source\PSoC5/ADC.c **** }
1708:.\Generated_Source\PSoC5/ADC.c **** 
1709:.\Generated_Source\PSoC5/ADC.c **** 
1710:.\Generated_Source\PSoC5/ADC.c **** /******************************************************************************
1711:.\Generated_Source\PSoC5/ADC.c **** * Function Name: ADC_SetDSMRef0Reg(uint8)
1712:.\Generated_Source\PSoC5/ADC.c **** ******************************************************************************
1713:.\Generated_Source\PSoC5/ADC.c **** *
1714:.\Generated_Source\PSoC5/ADC.c **** * Summary:
1715:.\Generated_Source\PSoC5/ADC.c **** *  This API sets the DSM_REF0 register. This is written for internal use.
1716:.\Generated_Source\PSoC5/ADC.c **** *
1717:.\Generated_Source\PSoC5/ADC.c **** * Parameters:
1718:.\Generated_Source\PSoC5/ADC.c **** *  value:  Value to be written to DSM_REF0 register.
1719:.\Generated_Source\PSoC5/ADC.c **** *
1720:.\Generated_Source\PSoC5/ADC.c **** * Return:
1721:.\Generated_Source\PSoC5/ADC.c **** *  None
1722:.\Generated_Source\PSoC5/ADC.c **** *
1723:.\Generated_Source\PSoC5/ADC.c **** ******************************************************************************/
1724:.\Generated_Source\PSoC5/ADC.c **** static void ADC_SetDSMRef0Reg(uint8 value) 
1725:.\Generated_Source\PSoC5/ADC.c **** {
 205              		.loc 1 1725 0
 206              		.cfi_startproc
 207              		@ args = 0, pretend = 0, frame = 0
 208              		@ frame_needed = 0, uses_anonymous_args = 0
 209              	.LVL33:
 210 0000 F8B5     		push	{r3, r4, r5, r6, r7, lr}
 211              		.cfi_def_cfa_offset 24
 212              		.cfi_offset 3, -24
 213              		.cfi_offset 4, -20
ARM GAS  C:\Users\HENRYA~1\AppData\Local\Temp\ccEyCdcC.s 			page 35


 214              		.cfi_offset 5, -16
 215              		.cfi_offset 6, -12
 216              		.cfi_offset 7, -8
 217              		.cfi_offset 14, -4
 218 0002 0746     		mov	r7, r0
1726:.\Generated_Source\PSoC5/ADC.c ****     uint8 enableInterrupts;
1727:.\Generated_Source\PSoC5/ADC.c ****     enableInterrupts = CyEnterCriticalSection();
 219              		.loc 1 1727 0
 220 0004 FFF7FEFF 		bl	CyEnterCriticalSection
 221              	.LVL34:
 222 0008 0646     		mov	r6, r0
 223              	.LVL35:
1728:.\Generated_Source\PSoC5/ADC.c **** 
1729:.\Generated_Source\PSoC5/ADC.c ****     /* Disable PRES, Enable power to VCMBUF0, REFBUF0 and REFBUF1, enable PRES */
1730:.\Generated_Source\PSoC5/ADC.c ****     ADC_RESET_CR4_REG |= (ADC_IGNORE_PRESA1 | ADC_IGNORE_PRESD1);
 224              		.loc 1 1730 0
 225 000a 0D4D     		ldr	r5, .L22
 226 000c 2B78     		ldrb	r3, [r5]	@ zero_extendqisi2
 227 000e 43F00303 		orr	r3, r3, #3
 228 0012 2B70     		strb	r3, [r5]
1731:.\Generated_Source\PSoC5/ADC.c ****     ADC_RESET_CR5_REG |= (ADC_IGNORE_PRESA2 | ADC_IGNORE_PRESD2);
 229              		.loc 1 1731 0
 230 0014 0B4C     		ldr	r4, .L22+4
 231 0016 2378     		ldrb	r3, [r4]	@ zero_extendqisi2
 232 0018 43F00303 		orr	r3, r3, #3
 233 001c 2370     		strb	r3, [r4]
1732:.\Generated_Source\PSoC5/ADC.c ****     ADC_DSM_REF0_REG = value;
 234              		.loc 1 1732 0
 235 001e 0A4B     		ldr	r3, .L22+8
 236 0020 1F70     		strb	r7, [r3]
1733:.\Generated_Source\PSoC5/ADC.c **** 
1734:.\Generated_Source\PSoC5/ADC.c ****     /* Wait for 3 microseconds */
1735:.\Generated_Source\PSoC5/ADC.c ****     CyDelayUs(ADC_PRES_DELAY_TIME);
 237              		.loc 1 1735 0
 238 0022 0320     		movs	r0, #3
 239 0024 FFF7FEFF 		bl	CyDelayUs
 240              	.LVL36:
1736:.\Generated_Source\PSoC5/ADC.c ****     /* Enable the press circuit */
1737:.\Generated_Source\PSoC5/ADC.c ****     ADC_RESET_CR4_REG &= (uint8)~(ADC_IGNORE_PRESA1 | ADC_IGNORE_PRESD1);
 241              		.loc 1 1737 0
 242 0028 2B78     		ldrb	r3, [r5]	@ zero_extendqisi2
 243 002a 03F0FC03 		and	r3, r3, #252
 244 002e 2B70     		strb	r3, [r5]
1738:.\Generated_Source\PSoC5/ADC.c ****     ADC_RESET_CR5_REG &= (uint8)~(ADC_IGNORE_PRESA2 | ADC_IGNORE_PRESD2);
 245              		.loc 1 1738 0
 246 0030 2378     		ldrb	r3, [r4]	@ zero_extendqisi2
 247 0032 03F0FC03 		and	r3, r3, #252
 248 0036 2370     		strb	r3, [r4]
1739:.\Generated_Source\PSoC5/ADC.c **** 
1740:.\Generated_Source\PSoC5/ADC.c ****     CyExitCriticalSection(enableInterrupts);
 249              		.loc 1 1740 0
 250 0038 3046     		mov	r0, r6
 251 003a FFF7FEFF 		bl	CyExitCriticalSection
 252              	.LVL37:
 253 003e F8BD     		pop	{r3, r4, r5, r6, r7, pc}
 254              	.LVL38:
 255              	.L23:
ARM GAS  C:\Users\HENRYA~1\AppData\Local\Temp\ccEyCdcC.s 			page 36


 256              		.align	2
 257              	.L22:
 258 0040 F8460040 		.word	1073759992
 259 0044 F9460040 		.word	1073759993
 260 0048 92580040 		.word	1073764498
 261              		.cfi_endproc
 262              	.LFE22:
 263              		.size	ADC_SetDSMRef0Reg, .-ADC_SetDSMRef0Reg
 264              		.section	.text.ADC_InitConfig,"ax",%progbits
 265              		.align	2
 266              		.thumb
 267              		.thumb_func
 268              		.type	ADC_InitConfig, %function
 269              	ADC_InitConfig:
 270              	.LFB19:
1243:.\Generated_Source\PSoC5/ADC.c ****     ADC_stopConversion = 0u;
 271              		.loc 1 1243 0
 272              		.cfi_startproc
 273              		@ args = 0, pretend = 0, frame = 0
 274              		@ frame_needed = 0, uses_anonymous_args = 0
 275              	.LVL39:
1244:.\Generated_Source\PSoC5/ADC.c **** 
 276              		.loc 1 1244 0
 277 0000 0022     		movs	r2, #0
 278 0002 344B     		ldr	r3, .L28
 279 0004 1A71     		strb	r2, [r3, #4]
1246:.\Generated_Source\PSoC5/ADC.c ****     {
 280              		.loc 1 1246 0
 281 0006 0128     		cmp	r0, #1
 282 0008 62D1     		bne	.L27
1243:.\Generated_Source\PSoC5/ADC.c ****     ADC_stopConversion = 0u;
 283              		.loc 1 1243 0
 284 000a 2DE9F041 		push	{r4, r5, r6, r7, r8, lr}
 285              		.cfi_def_cfa_offset 24
 286              		.cfi_offset 4, -24
 287              		.cfi_offset 5, -20
 288              		.cfi_offset 6, -16
 289              		.cfi_offset 7, -12
 290              		.cfi_offset 8, -8
 291              		.cfi_offset 14, -4
1249:.\Generated_Source\PSoC5/ADC.c ****         ADC_DEC_SHIFT1_REG  = ADC_CFG1_DEC_SHIFT1;
 292              		.loc 1 1249 0
 293 000e 3022     		movs	r2, #48
 294 0010 314B     		ldr	r3, .L28+4
 295 0012 1A70     		strb	r2, [r3]
1250:.\Generated_Source\PSoC5/ADC.c ****         ADC_DEC_SHIFT2_REG  = ADC_CFG1_DEC_SHIFT2;
 296              		.loc 1 1250 0
 297 0014 0422     		movs	r2, #4
 298 0016 0233     		adds	r3, r3, #2
 299 0018 1A70     		strb	r2, [r3]
1251:.\Generated_Source\PSoC5/ADC.c ****         ADC_DEC_DR2_REG     = ADC_CFG1_DEC_DR2;
 300              		.loc 1 1251 0
 301 001a 0626     		movs	r6, #6
 302 001c 0133     		adds	r3, r3, #1
 303 001e 1E70     		strb	r6, [r3]
1252:.\Generated_Source\PSoC5/ADC.c ****         ADC_DEC_DR2H_REG    = ADC_CFG1_DEC_DR2H;
 304              		.loc 1 1252 0
ARM GAS  C:\Users\HENRYA~1\AppData\Local\Temp\ccEyCdcC.s 			page 37


 305 0020 0024     		movs	r4, #0
 306 0022 0133     		adds	r3, r3, #1
 307 0024 1C70     		strb	r4, [r3]
1253:.\Generated_Source\PSoC5/ADC.c ****         ADC_DEC_DR1_REG     = ADC_CFG1_DEC_DR1;
 308              		.loc 1 1253 0
 309 0026 0133     		adds	r3, r3, #1
 310 0028 1C70     		strb	r4, [r3]
1254:.\Generated_Source\PSoC5/ADC.c ****         ADC_DEC_OCOR_REG    = ADC_CFG1_DEC_OCOR;
 311              		.loc 1 1254 0
 312 002a 0F22     		movs	r2, #15
 313 002c 0133     		adds	r3, r3, #1
 314 002e 1A70     		strb	r2, [r3]
1255:.\Generated_Source\PSoC5/ADC.c ****         ADC_DEC_OCORM_REG   = ADC_CFG1_DEC_OCORM;
 315              		.loc 1 1255 0
 316 0030 0233     		adds	r3, r3, #2
 317 0032 1C70     		strb	r4, [r3]
1256:.\Generated_Source\PSoC5/ADC.c ****         ADC_DEC_OCORH_REG   = ADC_CFG1_DEC_OCORH;
 318              		.loc 1 1256 0
 319 0034 0133     		adds	r3, r3, #1
 320 0036 1C70     		strb	r4, [r3]
1257:.\Generated_Source\PSoC5/ADC.c ****         ADC_DEC_COHER_REG   = ADC_CFG1_DEC_COHER;
 321              		.loc 1 1257 0
 322 0038 0133     		adds	r3, r3, #1
 323 003a 1C70     		strb	r4, [r3]
1258:.\Generated_Source\PSoC5/ADC.c **** 
 324              		.loc 1 1258 0
 325 003c 0125     		movs	r5, #1
 326 003e 0A33     		adds	r3, r3, #10
 327 0040 1D70     		strb	r5, [r3]
1260:.\Generated_Source\PSoC5/ADC.c ****         ADC_DSM_CR5_REG     = ADC_CFG1_DSM_CR5;
 328              		.loc 1 1260 0
 329 0042 1422     		movs	r2, #20
 330 0044 03F52763 		add	r3, r3, #2672
 331 0048 1A70     		strb	r2, [r3]
1261:.\Generated_Source\PSoC5/ADC.c ****         ADC_DSM_CR6_REG     = ADC_CFG1_DSM_CR6;
 332              		.loc 1 1261 0
 333 004a 4FF00508 		mov	r8, #5
 334 004e 0133     		adds	r3, r3, #1
 335 0050 83F80080 		strb	r8, [r3]
1262:.\Generated_Source\PSoC5/ADC.c ****         ADC_DSM_CR7_REG     = ADC_CFG1_DSM_CR7;
 336              		.loc 1 1262 0
 337 0054 1622     		movs	r2, #22
 338 0056 0133     		adds	r3, r3, #1
 339 0058 1A70     		strb	r2, [r3]
1263:.\Generated_Source\PSoC5/ADC.c ****         ADC_DSM_CR10_REG    = ADC_CFG1_DSM_CR10;
 340              		.loc 1 1263 0
 341 005a 0133     		adds	r3, r3, #1
 342 005c 1C70     		strb	r4, [r3]
1264:.\Generated_Source\PSoC5/ADC.c ****         ADC_DSM_CR11_REG    = ADC_CFG1_DSM_CR11;
 343              		.loc 1 1264 0
 344 005e 4422     		movs	r2, #68
 345 0060 0333     		adds	r3, r3, #3
 346 0062 1A70     		strb	r2, [r3]
1265:.\Generated_Source\PSoC5/ADC.c ****         ADC_DSM_CR12_REG    = ADC_CFG1_DSM_CR12;
 347              		.loc 1 1265 0
 348 0064 4822     		movs	r2, #72
 349 0066 0133     		adds	r3, r3, #1
ARM GAS  C:\Users\HENRYA~1\AppData\Local\Temp\ccEyCdcC.s 			page 38


 350 0068 1A70     		strb	r2, [r3]
1266:.\Generated_Source\PSoC5/ADC.c ****         ADC_DSM_CR14_REG    = ADC_CFG1_DSM_CR14;
 351              		.loc 1 1266 0
 352 006a 0133     		adds	r3, r3, #1
 353 006c 1D70     		strb	r5, [r3]
1267:.\Generated_Source\PSoC5/ADC.c ****         ADC_DSM_CR15_REG    = ADC_CFG1_DSM_CR15;
 354              		.loc 1 1267 0
 355 006e 0227     		movs	r7, #2
 356 0070 0233     		adds	r3, r3, #2
 357 0072 1F70     		strb	r7, [r3]
1268:.\Generated_Source\PSoC5/ADC.c ****         ADC_DSM_CR16_REG    = ADC_CFG1_DSM_CR16;
 358              		.loc 1 1268 0
 359 0074 2222     		movs	r2, #34
 360 0076 0133     		adds	r3, r3, #1
 361 0078 1A70     		strb	r2, [r3]
1269:.\Generated_Source\PSoC5/ADC.c ****         ADC_DSM_CR17_REG    = ADC_CFG1_DSM_CR17;
 362              		.loc 1 1269 0
 363 007a 2822     		movs	r2, #40
 364 007c 0133     		adds	r3, r3, #1
 365 007e 1A70     		strb	r2, [r3]
1270:.\Generated_Source\PSoC5/ADC.c ****         /* Set DSM_REF0_REG by disabling and enabling the PRESS circuit */
 366              		.loc 1 1270 0
 367 0080 EB22     		movs	r2, #235
 368 0082 0133     		adds	r3, r3, #1
 369 0084 1A70     		strb	r2, [r3]
1272:.\Generated_Source\PSoC5/ADC.c ****         ADC_DSM_REF2_REG    = ADC_CFG1_DSM_REF2;
 370              		.loc 1 1272 0
 371 0086 5220     		movs	r0, #82
 372              	.LVL40:
 373 0088 FFF7FEFF 		bl	ADC_SetDSMRef0Reg
 374              	.LVL41:
1273:.\Generated_Source\PSoC5/ADC.c ****         ADC_DSM_REF3_REG    = ADC_CFG1_DSM_REF3;
 375              		.loc 1 1273 0
 376 008c 5822     		movs	r2, #88
 377 008e 134B     		ldr	r3, .L28+8
 378 0090 1A70     		strb	r2, [r3]
1274:.\Generated_Source\PSoC5/ADC.c **** 
 379              		.loc 1 1274 0
 380 0092 0133     		adds	r3, r3, #1
 381 0094 1C70     		strb	r4, [r3]
1276:.\Generated_Source\PSoC5/ADC.c ****         ADC_DSM_BUF1_REG    = ADC_CFG1_DSM_BUF1;
 382              		.loc 1 1276 0
 383 0096 0533     		adds	r3, r3, #5
 384 0098 83F80080 		strb	r8, [r3]
1277:.\Generated_Source\PSoC5/ADC.c ****         ADC_DSM_BUF2_REG    = ADC_CFG1_DSM_BUF2;
 385              		.loc 1 1277 0
 386 009c 0133     		adds	r3, r3, #1
 387 009e 1F70     		strb	r7, [r3]
1278:.\Generated_Source\PSoC5/ADC.c ****         ADC_DSM_BUF3_REG    = ADC_CFG1_DSM_BUF3;
 388              		.loc 1 1278 0
 389 00a0 0133     		adds	r3, r3, #1
 390 00a2 1C70     		strb	r4, [r3]
1279:.\Generated_Source\PSoC5/ADC.c **** 
 391              		.loc 1 1279 0
 392 00a4 0133     		adds	r3, r3, #1
 393 00a6 1C70     		strb	r4, [r3]
1288:.\Generated_Source\PSoC5/ADC.c ****             #endif /* ADC_IR_VSSA_TO_2VREF) */
ARM GAS  C:\Users\HENRYA~1\AppData\Local\Temp\ccEyCdcC.s 			page 39


 394              		.loc 1 1288 0
 395 00a8 2046     		mov	r0, r4
 396 00aa FFF7FEFF 		bl	ADC_AMux_Select
 397              	.LVL42:
1300:.\Generated_Source\PSoC5/ADC.c **** 
 398              		.loc 1 1300 0
 399 00ae 3322     		movs	r2, #51
 400 00b0 0B4B     		ldr	r3, .L28+12
 401 00b2 1A60     		str	r2, [r3]
1302:.\Generated_Source\PSoC5/ADC.c **** 
 402              		.loc 1 1302 0
 403 00b4 3046     		mov	r0, r6
 404 00b6 2946     		mov	r1, r5
 405 00b8 FFF7FEFF 		bl	ADC_Ext_CP_Clk_SetDividerRegister
 406              	.LVL43:
1306:.\Generated_Source\PSoC5/ADC.c ****         #endif /* ADC_DEFAULT_INTERNAL_CLK */
 407              		.loc 1 1306 0
 408 00bc 1C20     		movs	r0, #28
 409 00be 2946     		mov	r1, r5
 410 00c0 FFF7FEFF 		bl	ADC_theACLK_SetDividerRegister
 411              	.LVL44:
1311:.\Generated_Source\PSoC5/ADC.c ****         #endif   /* End ADC_IRQ_REMOVE */
 412              		.loc 1 1311 0
 413 00c4 1D20     		movs	r0, #29
 414 00c6 0749     		ldr	r1, .L28+16
 415 00c8 FFF7FEFF 		bl	CyIntSetVector
 416              	.LVL45:
 417 00cc BDE8F081 		pop	{r4, r5, r6, r7, r8, pc}
 418              	.LVL46:
 419              	.L27:
 420              		.cfi_def_cfa_offset 0
 421              		.cfi_restore 4
 422              		.cfi_restore 5
 423              		.cfi_restore 6
 424              		.cfi_restore 7
 425              		.cfi_restore 8
 426              		.cfi_restore 14
 427 00d0 7047     		bx	lr
 428              	.L29:
 429 00d2 00BF     		.align	2
 430              	.L28:
 431 00d4 00000000 		.word	.LANCHOR0
 432 00d8 004E0040 		.word	1073761792
 433 00dc 94580040 		.word	1073764500
 434 00e0 00000000 		.word	ADC_CountsPerVolt
 435 00e4 00000000 		.word	ADC_ISR1
 436              		.cfi_endproc
 437              	.LFE19:
 438              		.size	ADC_InitConfig, .-ADC_InitConfig
 439              		.section	.text.ADC_Init,"ax",%progbits
 440              		.align	2
 441              		.global	ADC_Init
 442              		.thumb
 443              		.thumb_func
 444              		.type	ADC_Init, %function
 445              	ADC_Init:
 446              	.LFB0:
ARM GAS  C:\Users\HENRYA~1\AppData\Local\Temp\ccEyCdcC.s 			page 40


  92:.\Generated_Source\PSoC5/ADC.c **** 
 447              		.loc 1 92 0
 448              		.cfi_startproc
 449              		@ args = 0, pretend = 0, frame = 0
 450              		@ frame_needed = 0, uses_anonymous_args = 0
 451 0000 F0B5     		push	{r4, r5, r6, r7, lr}
 452              		.cfi_def_cfa_offset 20
 453              		.cfi_offset 4, -20
 454              		.cfi_offset 5, -16
 455              		.cfi_offset 6, -12
 456              		.cfi_offset 7, -8
 457              		.cfi_offset 14, -4
 458 0002 83B0     		sub	sp, sp, #12
 459              		.cfi_def_cfa_offset 32
  94:.\Generated_Source\PSoC5/ADC.c ****     ADC_convDone = 0u;
 460              		.loc 1 94 0
 461 0004 284D     		ldr	r5, .L32
 462 0006 0127     		movs	r7, #1
 463 0008 2F70     		strb	r7, [r5]
  95:.\Generated_Source\PSoC5/ADC.c **** 
 464              		.loc 1 95 0
 465 000a 284E     		ldr	r6, .L32+4
 466 000c 0024     		movs	r4, #0
 467 000e 7471     		strb	r4, [r6, #5]
  97:.\Generated_Source\PSoC5/ADC.c **** 
 468              		.loc 1 97 0
 469 0010 1020     		movs	r0, #16
 470 0012 FFF7FEFF 		bl	ADC_Ext_CP_Clk_SetModeRegister
 471              	.LVL47:
 101:.\Generated_Source\PSoC5/ADC.c ****     #endif /* ADC_DEFAULT_INTERNAL_CLK */
 472              		.loc 1 101 0
 473 0016 1020     		movs	r0, #16
 474 0018 FFF7FEFF 		bl	ADC_theACLK_SetModeRegister
 475              	.LVL48:
 106:.\Generated_Source\PSoC5/ADC.c ****     #endif   /* End ADC_IRQ_REMOVE */
 476              		.loc 1 106 0
 477 001c 1D20     		movs	r0, #29
 478 001e 0721     		movs	r1, #7
 479 0020 FFF7FEFF 		bl	CyIntSetPriority
 480              	.LVL49:
 110:.\Generated_Source\PSoC5/ADC.c ****     ADC_DSM_DEM1_REG    = ADC_CFG1_DSM_DEM1;
 481              		.loc 1 110 0
 482 0024 0422     		movs	r2, #4
 483 0026 224B     		ldr	r3, .L32+8
 484 0028 1A70     		strb	r2, [r3]
 111:.\Generated_Source\PSoC5/ADC.c ****     ADC_DSM_MISC_REG    = ADC_CFG1_DSM_MISC;
 485              		.loc 1 111 0
 486 002a 0133     		adds	r3, r3, #1
 487 002c 1C70     		strb	r4, [r3]
 112:.\Generated_Source\PSoC5/ADC.c ****     ADC_DSM_CLK_REG    |= ADC_CFG1_DSM_CLK;
 488              		.loc 1 112 0
 489 002e 0733     		adds	r3, r3, #7
 490 0030 1C70     		strb	r4, [r3]
 113:.\Generated_Source\PSoC5/ADC.c ****     ADC_DSM_REF1_REG    = ADC_CFG1_DSM_REF1;
 491              		.loc 1 113 0
 492 0032 204A     		ldr	r2, .L32+12
 493 0034 1378     		ldrb	r3, [r2]	@ zero_extendqisi2
ARM GAS  C:\Users\HENRYA~1\AppData\Local\Temp\ccEyCdcC.s 			page 41


 494 0036 43F01803 		orr	r3, r3, #24
 495 003a 1370     		strb	r3, [r2]
 114:.\Generated_Source\PSoC5/ADC.c **** 
 496              		.loc 1 114 0
 497 003c 1E4B     		ldr	r3, .L32+16
 498 003e 1C70     		strb	r4, [r3]
 116:.\Generated_Source\PSoC5/ADC.c ****     ADC_DSM_OUT1_REG    = ADC_CFG1_DSM_OUT1;
 499              		.loc 1 116 0
 500 0040 03F2F523 		addw	r3, r3, #757
 501 0044 1C70     		strb	r4, [r3]
 117:.\Generated_Source\PSoC5/ADC.c **** 
 502              		.loc 1 117 0
 503 0046 0133     		adds	r3, r3, #1
 504 0048 1C70     		strb	r4, [r3]
 119:.\Generated_Source\PSoC5/ADC.c ****     ADC_DSM_CR1_REG     = ADC_CFG1_DSM_CR1;
 505              		.loc 1 119 0
 506 004a 0A22     		movs	r2, #10
 507 004c A3F20933 		subw	r3, r3, #777
 508 0050 1A70     		strb	r2, [r3]
 120:.\Generated_Source\PSoC5/ADC.c **** #if(ADC_MI_ENABLE != 0u) /* Enable Modulator Input */
 509              		.loc 1 120 0
 510 0052 0133     		adds	r3, r3, #1
 511 0054 1C70     		strb	r4, [r3]
 124:.\Generated_Source\PSoC5/ADC.c **** #endif /* ADC_MI_ENABLE != 0u*/    
 512              		.loc 1 124 0
 513 0056 0233     		adds	r3, r3, #2
 514 0058 1C70     		strb	r4, [r3]
 126:.\Generated_Source\PSoC5/ADC.c ****     ADC_DSM_CR9_REG     = ADC_CFG1_DSM_CR9;
 515              		.loc 1 126 0
 516 005a 1222     		movs	r2, #18
 517 005c 0533     		adds	r3, r3, #5
 518 005e 1A70     		strb	r2, [r3]
 127:.\Generated_Source\PSoC5/ADC.c ****     ADC_DSM_CR13_REG    = ADC_CFG1_DSM_CR13;
 519              		.loc 1 127 0
 520 0060 1322     		movs	r2, #19
 521 0062 0133     		adds	r3, r3, #1
 522 0064 1A70     		strb	r2, [r3]
 128:.\Generated_Source\PSoC5/ADC.c **** 
 523              		.loc 1 128 0
 524 0066 0433     		adds	r3, r3, #4
 525 0068 1C70     		strb	r4, [r3]
 130:.\Generated_Source\PSoC5/ADC.c **** 
 526              		.loc 1 130 0
 527 006a 1422     		movs	r2, #20
 528 006c A3F68C23 		subw	r3, r3, #2700
 529 0070 1A70     		strb	r2, [r3]
 133:.\Generated_Source\PSoC5/ADC.c ****                                       ADC_CFG1_IDEAL_DEC_GAIN,
 530              		.loc 1 133 0
 531 0072 0097     		str	r7, [sp]
 532 0074 0220     		movs	r0, #2
 533 0076 48F66B51 		movw	r1, #36203
 534 007a 4FF40042 		mov	r2, #32768
 535 007e 0823     		movs	r3, #8
 536 0080 FFF7FEFF 		bl	ADC_GainCompensation
 537              	.LVL50:
 161:.\Generated_Source\PSoC5/ADC.c ****     CY_SET_REG16(ADC_DEC_GCOR_16B_PTR, ADC_gcor[ADC_Config - 1u].gcor);
 538              		.loc 1 161 0
ARM GAS  C:\Users\HENRYA~1\AppData\Local\Temp\ccEyCdcC.s 			page 42


 539 0084 2B78     		ldrb	r3, [r5]	@ zero_extendqisi2
 540 0086 06EB8303 		add	r3, r6, r3, lsl #2
 541 008a 13F8022C 		ldrb	r2, [r3, #-2]	@ zero_extendqisi2
 542 008e 0B4B     		ldr	r3, .L32+20
 543 0090 1A70     		strb	r2, [r3]
 162:.\Generated_Source\PSoC5/ADC.c **** 
 544              		.loc 1 162 0
 545 0092 2B78     		ldrb	r3, [r5]	@ zero_extendqisi2
 546 0094 013B     		subs	r3, r3, #1
 547 0096 36F82320 		ldrh	r2, [r6, r3, lsl #2]
 548 009a 094B     		ldr	r3, .L32+24
 549 009c 1A80     		strh	r2, [r3]	@ movhi
 165:.\Generated_Source\PSoC5/ADC.c **** }
 550              		.loc 1 165 0
 551 009e 2878     		ldrb	r0, [r5]	@ zero_extendqisi2
 552 00a0 FFF7FEFF 		bl	ADC_InitConfig
 553              	.LVL51:
 166:.\Generated_Source\PSoC5/ADC.c **** 
 554              		.loc 1 166 0
 555 00a4 03B0     		add	sp, sp, #12
 556              		.cfi_def_cfa_offset 20
 557              		@ sp needed
 558 00a6 F0BD     		pop	{r4, r5, r6, r7, pc}
 559              	.L33:
 560              		.align	2
 561              	.L32:
 562 00a8 00000000 		.word	.LANCHOR1
 563 00ac 00000000 		.word	.LANCHOR0
 564 00b0 96580040 		.word	1073764502
 565 00b4 075B0040 		.word	1073765127
 566 00b8 93580040 		.word	1073764499
 567 00bc 0E4E0040 		.word	1073761806
 568 00c0 0C4E0040 		.word	1073761804
 569              		.cfi_endproc
 570              	.LFE0:
 571              		.size	ADC_Init, .-ADC_Init
 572              		.section	.text.ADC_Enable,"ax",%progbits
 573              		.align	2
 574              		.global	ADC_Enable
 575              		.thumb
 576              		.thumb_func
 577              		.type	ADC_Enable, %function
 578              	ADC_Enable:
 579              	.LFB1:
 185:.\Generated_Source\PSoC5/ADC.c **** 	uint8 config;
 580              		.loc 1 185 0
 581              		.cfi_startproc
 582              		@ args = 0, pretend = 0, frame = 0
 583              		@ frame_needed = 0, uses_anonymous_args = 0
 584 0000 70B5     		push	{r4, r5, r6, lr}
 585              		.cfi_def_cfa_offset 16
 586              		.cfi_offset 4, -16
 587              		.cfi_offset 5, -12
 588              		.cfi_offset 6, -8
 589              		.cfi_offset 14, -4
 188:.\Generated_Source\PSoC5/ADC.c **** 
 590              		.loc 1 188 0
ARM GAS  C:\Users\HENRYA~1\AppData\Local\Temp\ccEyCdcC.s 			page 43


 591 0002 FFF7FEFF 		bl	CyEnterCriticalSection
 592              	.LVL52:
 593 0006 0646     		mov	r6, r0
 594              	.LVL53:
 191:.\Generated_Source\PSoC5/ADC.c ****     
 595              		.loc 1 191 0
 596 0008 2A4B     		ldr	r3, .L36
 597 000a 1B78     		ldrb	r3, [r3]	@ zero_extendqisi2
 598              	.LVL54:
 194:.\Generated_Source\PSoC5/ADC.c ****     ADC_PWRMGR_DSM_REG |= ADC_ACT_PWR_DSM_EN;
 599              		.loc 1 194 0
 600 000c 2A4B     		ldr	r3, .L36+4
 601 000e 1A78     		ldrb	r2, [r3]	@ zero_extendqisi2
 602 0010 42F00102 		orr	r2, r2, #1
 603 0014 1A70     		strb	r2, [r3]
 195:.\Generated_Source\PSoC5/ADC.c **** 
 604              		.loc 1 195 0
 605 0016 1A78     		ldrb	r2, [r3]	@ zero_extendqisi2
 606 0018 42F01002 		orr	r2, r2, #16
 607 001c 1A70     		strb	r2, [r3]
 198:.\Generated_Source\PSoC5/ADC.c ****     ADC_STBY_PWRMGR_DSM_REG |= ADC_STBY_PWR_DSM_EN;
 608              		.loc 1 198 0
 609 001e 1033     		adds	r3, r3, #16
 610 0020 1A78     		ldrb	r2, [r3]	@ zero_extendqisi2
 611 0022 42F00102 		orr	r2, r2, #1
 612 0026 1A70     		strb	r2, [r3]
 199:.\Generated_Source\PSoC5/ADC.c **** 
 613              		.loc 1 199 0
 614 0028 1A78     		ldrb	r2, [r3]	@ zero_extendqisi2
 615 002a 42F01002 		orr	r2, r2, #16
 616 002e 1A70     		strb	r2, [r3]
 202:.\Generated_Source\PSoC5/ADC.c ****     ADC_RESET_CR5_REG |= ADC_IGNORE_PRESA2;
 617              		.loc 1 202 0
 618 0030 224D     		ldr	r5, .L36+8
 619 0032 2B78     		ldrb	r3, [r5]	@ zero_extendqisi2
 620 0034 43F00203 		orr	r3, r3, #2
 621 0038 2B70     		strb	r3, [r5]
 203:.\Generated_Source\PSoC5/ADC.c **** 
 622              		.loc 1 203 0
 623 003a 214C     		ldr	r4, .L36+12
 624 003c 2378     		ldrb	r3, [r4]	@ zero_extendqisi2
 625 003e 43F00203 		orr	r3, r3, #2
 626 0042 2370     		strb	r3, [r4]
 205:.\Generated_Source\PSoC5/ADC.c **** 
 627              		.loc 1 205 0
 628 0044 1F4A     		ldr	r2, .L36+16
 629 0046 1378     		ldrb	r3, [r2]	@ zero_extendqisi2
 630 0048 43F00303 		orr	r3, r3, #3
 631 004c 1370     		strb	r3, [r2]
 271:.\Generated_Source\PSoC5/ADC.c **** 
 632              		.loc 1 271 0
 633 004e 0320     		movs	r0, #3
 634 0050 FFF7FEFF 		bl	CyDelayUs
 635              	.LVL55:
 274:.\Generated_Source\PSoC5/ADC.c ****     ADC_RESET_CR5_REG &= (uint8)~ADC_IGNORE_PRESA2;
 636              		.loc 1 274 0
 637 0054 2B78     		ldrb	r3, [r5]	@ zero_extendqisi2
ARM GAS  C:\Users\HENRYA~1\AppData\Local\Temp\ccEyCdcC.s 			page 44


 638 0056 03F0FD03 		and	r3, r3, #253
 639 005a 2B70     		strb	r3, [r5]
 275:.\Generated_Source\PSoC5/ADC.c **** 
 640              		.loc 1 275 0
 641 005c 2378     		ldrb	r3, [r4]	@ zero_extendqisi2
 642 005e 03F0FD03 		and	r3, r3, #253
 643 0062 2370     		strb	r3, [r4]
 278:.\Generated_Source\PSoC5/ADC.c **** 
 644              		.loc 1 278 0
 645 0064 184A     		ldr	r2, .L36+20
 646 0066 1378     		ldrb	r3, [r2]	@ zero_extendqisi2
 647 0068 43F00603 		orr	r3, r3, #6
 648 006c 1370     		strb	r3, [r2]
 281:.\Generated_Source\PSoC5/ADC.c **** 
 649              		.loc 1 281 0
 650 006e 7A22     		movs	r2, #122
 651 0070 164B     		ldr	r3, .L36+24
 652 0072 1A70     		strb	r2, [r3]
 285:.\Generated_Source\PSoC5/ADC.c ****         ADC_STBY_PWRMGR_CLK_REG |= ADC_STBY_PWR_CLK_EN;
 653              		.loc 1 285 0
 654 0074 164A     		ldr	r2, .L36+28
 655 0076 1378     		ldrb	r3, [r2]	@ zero_extendqisi2
 656 0078 43F00103 		orr	r3, r3, #1
 657 007c 1370     		strb	r3, [r2]
 286:.\Generated_Source\PSoC5/ADC.c ****     #endif /* ADC_DEFAULT_INTERNAL_CLK */
 658              		.loc 1 286 0
 659 007e 1032     		adds	r2, r2, #16
 660 0080 1378     		ldrb	r3, [r2]	@ zero_extendqisi2
 661 0082 43F00103 		orr	r3, r3, #1
 662 0086 1370     		strb	r3, [r2]
 290:.\Generated_Source\PSoC5/ADC.c ****     ADC_STBY_PWRMGR_CHARGE_PUMP_CLK_REG |= ADC_STBY_PWR_CHARGE_PUMP_CLK_EN;
 663              		.loc 1 290 0
 664 0088 0F3A     		subs	r2, r2, #15
 665 008a 1378     		ldrb	r3, [r2]	@ zero_extendqisi2
 666 008c 43F00103 		orr	r3, r3, #1
 667 0090 1370     		strb	r3, [r2]
 291:.\Generated_Source\PSoC5/ADC.c **** 
 668              		.loc 1 291 0
 669 0092 1032     		adds	r2, r2, #16
 670 0094 1378     		ldrb	r3, [r2]	@ zero_extendqisi2
 671 0096 43F00103 		orr	r3, r3, #1
 672 009a 1370     		strb	r3, [r2]
 295:.\Generated_Source\PSoC5/ADC.c ****         /* Enable interrupt */
 673              		.loc 1 295 0
 674 009c 4FF00053 		mov	r3, #536870912
 675 00a0 0C4A     		ldr	r2, .L36+32
 676 00a2 1360     		str	r3, [r2]
 297:.\Generated_Source\PSoC5/ADC.c ****     #endif   /* End ADC_IRQ_REMOVE */
 677              		.loc 1 297 0
 678 00a4 A2F5C072 		sub	r2, r2, #384
 679 00a8 1360     		str	r3, [r2]
 300:.\Generated_Source\PSoC5/ADC.c **** 
 680              		.loc 1 300 0
 681 00aa 3046     		mov	r0, r6
 682 00ac FFF7FEFF 		bl	CyExitCriticalSection
 683              	.LVL56:
 684 00b0 70BD     		pop	{r4, r5, r6, pc}
ARM GAS  C:\Users\HENRYA~1\AppData\Local\Temp\ccEyCdcC.s 			page 45


 685              	.LVL57:
 686              	.L37:
 687 00b2 00BF     		.align	2
 688              	.L36:
 689 00b4 00000000 		.word	.LANCHOR1
 690 00b8 AA430040 		.word	1073759146
 691 00bc F8460040 		.word	1073759992
 692 00c0 F9460040 		.word	1073759993
 693 00c4 91580040 		.word	1073764497
 694 00c8 77580040 		.word	1073764471
 695 00cc 82580040 		.word	1073764482
 696 00d0 A1430040 		.word	1073759137
 697 00d4 80E200E0 		.word	-536812928
 698              		.cfi_endproc
 699              	.LFE1:
 700              		.size	ADC_Enable, .-ADC_Enable
 701              		.section	.text.ADC_Start,"ax",%progbits
 702              		.align	2
 703              		.global	ADC_Start
 704              		.thumb
 705              		.thumb_func
 706              		.type	ADC_Start, %function
 707              	ADC_Start:
 708              	.LFB2:
 330:.\Generated_Source\PSoC5/ADC.c ****     if(ADC_initVar == 0u)
 709              		.loc 1 330 0
 710              		.cfi_startproc
 711              		@ args = 0, pretend = 0, frame = 0
 712              		@ frame_needed = 0, uses_anonymous_args = 0
 713 0000 08B5     		push	{r3, lr}
 714              		.cfi_def_cfa_offset 8
 715              		.cfi_offset 3, -8
 716              		.cfi_offset 14, -4
 331:.\Generated_Source\PSoC5/ADC.c ****     {
 717              		.loc 1 331 0
 718 0002 084B     		ldr	r3, .L42
 719 0004 9B79     		ldrb	r3, [r3, #6]	@ zero_extendqisi2
 720 0006 4BB9     		cbnz	r3, .L39
 333:.\Generated_Source\PSoC5/ADC.c ****         {
 721              		.loc 1 333 0
 722 0008 064B     		ldr	r3, .L42
 723 000a DB79     		ldrb	r3, [r3, #7]	@ zero_extendqisi2
 724 000c 13F0FF0F 		tst	r3, #255
 725 0010 01D1     		bne	.L40
 335:.\Generated_Source\PSoC5/ADC.c ****         }
 726              		.loc 1 335 0
 727 0012 FFF7FEFF 		bl	ADC_Init
 728              	.LVL58:
 729              	.L40:
 337:.\Generated_Source\PSoC5/ADC.c ****     }
 730              		.loc 1 337 0
 731 0016 0122     		movs	r2, #1
 732 0018 024B     		ldr	r3, .L42
 733 001a 9A71     		strb	r2, [r3, #6]
 734              	.L39:
 341:.\Generated_Source\PSoC5/ADC.c **** }
 735              		.loc 1 341 0
ARM GAS  C:\Users\HENRYA~1\AppData\Local\Temp\ccEyCdcC.s 			page 46


 736 001c FFF7FEFF 		bl	ADC_Enable
 737              	.LVL59:
 738 0020 08BD     		pop	{r3, pc}
 739              	.L43:
 740 0022 00BF     		.align	2
 741              	.L42:
 742 0024 00000000 		.word	.LANCHOR0
 743              		.cfi_endproc
 744              	.LFE2:
 745              		.size	ADC_Start, .-ADC_Start
 746              		.section	.text.ADC_Stop,"ax",%progbits
 747              		.align	2
 748              		.global	ADC_Stop
 749              		.thumb
 750              		.thumb_func
 751              		.type	ADC_Stop, %function
 752              	ADC_Stop:
 753              	.LFB3:
 363:.\Generated_Source\PSoC5/ADC.c ****     uint8 enableInterrupts;
 754              		.loc 1 363 0
 755              		.cfi_startproc
 756              		@ args = 0, pretend = 0, frame = 0
 757              		@ frame_needed = 0, uses_anonymous_args = 0
 758 0000 70B5     		push	{r4, r5, r6, lr}
 759              		.cfi_def_cfa_offset 16
 760              		.cfi_offset 4, -16
 761              		.cfi_offset 5, -12
 762              		.cfi_offset 6, -8
 763              		.cfi_offset 14, -4
 365:.\Generated_Source\PSoC5/ADC.c **** 
 764              		.loc 1 365 0
 765 0002 FFF7FEFF 		bl	CyEnterCriticalSection
 766              	.LVL60:
 767 0006 0646     		mov	r6, r0
 768              	.LVL61:
 368:.\Generated_Source\PSoC5/ADC.c ****     ADC_DEC_SR_REG |=  ADC_DEC_INTR_CLEAR;
 769              		.loc 1 368 0
 770 0008 314A     		ldr	r2, .L46
 771 000a 1378     		ldrb	r3, [r2]	@ zero_extendqisi2
 772 000c 03F0FE03 		and	r3, r3, #254
 773 0010 1370     		strb	r3, [r2]
 369:.\Generated_Source\PSoC5/ADC.c **** 
 774              		.loc 1 369 0
 775 0012 0132     		adds	r2, r2, #1
 776 0014 1378     		ldrb	r3, [r2]	@ zero_extendqisi2
 777 0016 43F00403 		orr	r3, r3, #4
 778 001a 1370     		strb	r3, [r2]
 373:.\Generated_Source\PSoC5/ADC.c ****     ADC_RESET_CR5_REG |= ADC_IGNORE_PRESA2;
 779              		.loc 1 373 0
 780 001c 2D4D     		ldr	r5, .L46+4
 781 001e 2B78     		ldrb	r3, [r5]	@ zero_extendqisi2
 782 0020 43F00203 		orr	r3, r3, #2
 783 0024 2B70     		strb	r3, [r5]
 374:.\Generated_Source\PSoC5/ADC.c **** 
 784              		.loc 1 374 0
 785 0026 2C4C     		ldr	r4, .L46+8
 786 0028 2378     		ldrb	r3, [r4]	@ zero_extendqisi2
ARM GAS  C:\Users\HENRYA~1\AppData\Local\Temp\ccEyCdcC.s 			page 47


 787 002a 43F00203 		orr	r3, r3, #2
 788 002e 2370     		strb	r3, [r4]
 376:.\Generated_Source\PSoC5/ADC.c ****     ADC_DSM_REF0_REG &= (uint8)~ADC_DSM_EN_BUF_VREF_INN;
 789              		.loc 1 376 0
 790 0030 02F52962 		add	r2, r2, #2704
 791 0034 1378     		ldrb	r3, [r2]	@ zero_extendqisi2
 792 0036 03F0FC03 		and	r3, r3, #252
 793 003a 1370     		strb	r3, [r2]
 377:.\Generated_Source\PSoC5/ADC.c **** 
 794              		.loc 1 377 0
 795 003c 0132     		adds	r2, r2, #1
 796 003e 1378     		ldrb	r3, [r2]	@ zero_extendqisi2
 797 0040 03F0F703 		and	r3, r3, #247
 798 0044 1370     		strb	r3, [r2]
 380:.\Generated_Source\PSoC5/ADC.c **** 
 799              		.loc 1 380 0
 800 0046 0320     		movs	r0, #3
 801 0048 FFF7FEFF 		bl	CyDelayUs
 802              	.LVL62:
 383:.\Generated_Source\PSoC5/ADC.c ****     ADC_RESET_CR5_REG &= (uint8)~ADC_IGNORE_PRESA2;
 803              		.loc 1 383 0
 804 004c 2B78     		ldrb	r3, [r5]	@ zero_extendqisi2
 805 004e 03F0FD03 		and	r3, r3, #253
 806 0052 2B70     		strb	r3, [r5]
 384:.\Generated_Source\PSoC5/ADC.c **** 
 807              		.loc 1 384 0
 808 0054 2378     		ldrb	r3, [r4]	@ zero_extendqisi2
 809 0056 03F0FD03 		and	r3, r3, #253
 810 005a 2370     		strb	r3, [r4]
 387:.\Generated_Source\PSoC5/ADC.c **** 
 811              		.loc 1 387 0
 812 005c 1F4B     		ldr	r3, .L46+12
 813 005e 1A78     		ldrb	r2, [r3]	@ zero_extendqisi2
 814 0060 02F0EF02 		and	r2, r2, #239
 815 0064 1A70     		strb	r2, [r3]
 390:.\Generated_Source\PSoC5/ADC.c **** 
 816              		.loc 1 390 0
 817 0066 1A78     		ldrb	r2, [r3]	@ zero_extendqisi2
 818 0068 02F0FE02 		and	r2, r2, #254
 819 006c 1A70     		strb	r2, [r3]
 393:.\Generated_Source\PSoC5/ADC.c ****     ADC_STBY_PWRMGR_DSM_REG &= (uint8)~ADC_STBY_PWR_DSM_EN;
 820              		.loc 1 393 0
 821 006e 1033     		adds	r3, r3, #16
 822 0070 1A78     		ldrb	r2, [r3]	@ zero_extendqisi2
 823 0072 02F0FE02 		and	r2, r2, #254
 824 0076 1A70     		strb	r2, [r3]
 394:.\Generated_Source\PSoC5/ADC.c **** 
 825              		.loc 1 394 0
 826 0078 1A78     		ldrb	r2, [r3]	@ zero_extendqisi2
 827 007a 02F0EF02 		and	r2, r2, #239
 828 007e 1A70     		strb	r2, [r3]
 397:.\Generated_Source\PSoC5/ADC.c **** 
 829              		.loc 1 397 0
 830 0080 174A     		ldr	r2, .L46+16
 831 0082 1378     		ldrb	r3, [r2]	@ zero_extendqisi2
 832 0084 03F0F903 		and	r3, r3, #249
 833 0088 1370     		strb	r3, [r2]
ARM GAS  C:\Users\HENRYA~1\AppData\Local\Temp\ccEyCdcC.s 			page 48


 401:.\Generated_Source\PSoC5/ADC.c ****         ADC_STBY_PWRMGR_CLK_REG &= (uint8)~ADC_STBY_PWR_CLK_EN;
 834              		.loc 1 401 0
 835 008a A2F5A652 		sub	r2, r2, #5312
 836 008e 163A     		subs	r2, r2, #22
 837 0090 1378     		ldrb	r3, [r2]	@ zero_extendqisi2
 838 0092 03F0FE03 		and	r3, r3, #254
 839 0096 1370     		strb	r3, [r2]
 402:.\Generated_Source\PSoC5/ADC.c ****     #endif /* ADC_DEFAULT_INTERNAL_CLK */
 840              		.loc 1 402 0
 841 0098 1032     		adds	r2, r2, #16
 842 009a 1378     		ldrb	r3, [r2]	@ zero_extendqisi2
 843 009c 03F0FE03 		and	r3, r3, #254
 844 00a0 1370     		strb	r3, [r2]
 406:.\Generated_Source\PSoC5/ADC.c ****     /* Disable power to charge pump clock */
 845              		.loc 1 406 0
 846 00a2 02F5A652 		add	r2, r2, #5312
 847 00a6 1132     		adds	r2, r2, #17
 848 00a8 1378     		ldrb	r3, [r2]	@ zero_extendqisi2
 849 00aa 03F0F703 		and	r3, r3, #247
 850 00ae 1370     		strb	r3, [r2]
 408:.\Generated_Source\PSoC5/ADC.c ****     ADC_STBY_PWRMGR_CHARGE_PUMP_CLK_REG &= (uint8)~ADC_STBY_PWR_CHARGE_PUMP_CLK_EN;
 851              		.loc 1 408 0
 852 00b0 A2F5A752 		sub	r2, r2, #5344
 853 00b4 1378     		ldrb	r3, [r2]	@ zero_extendqisi2
 854 00b6 03F0FE03 		and	r3, r3, #254
 855 00ba 1370     		strb	r3, [r2]
 409:.\Generated_Source\PSoC5/ADC.c ****     
 856              		.loc 1 409 0
 857 00bc 1032     		adds	r2, r2, #16
 858 00be 1378     		ldrb	r3, [r2]	@ zero_extendqisi2
 859 00c0 03F0FE03 		and	r3, r3, #254
 860 00c4 1370     		strb	r3, [r2]
 411:.\Generated_Source\PSoC5/ADC.c **** }
 861              		.loc 1 411 0
 862 00c6 3046     		mov	r0, r6
 863 00c8 FFF7FEFF 		bl	CyExitCriticalSection
 864              	.LVL63:
 865 00cc 70BD     		pop	{r4, r5, r6, pc}
 866              	.LVL64:
 867              	.L47:
 868 00ce 00BF     		.align	2
 869              	.L46:
 870 00d0 004E0040 		.word	1073761792
 871 00d4 F8460040 		.word	1073759992
 872 00d8 F9460040 		.word	1073759993
 873 00dc AA430040 		.word	1073759146
 874 00e0 77580040 		.word	1073764471
 875              		.cfi_endproc
 876              	.LFE3:
 877              		.size	ADC_Stop, .-ADC_Stop
 878              		.section	.text.ADC_SetBufferGain,"ax",%progbits
 879              		.align	2
 880              		.global	ADC_SetBufferGain
 881              		.thumb
 882              		.thumb_func
 883              		.type	ADC_SetBufferGain, %function
 884              	ADC_SetBufferGain:
ARM GAS  C:\Users\HENRYA~1\AppData\Local\Temp\ccEyCdcC.s 			page 49


 885              	.LFB4:
 430:.\Generated_Source\PSoC5/ADC.c ****     uint8 tmpReg;
 886              		.loc 1 430 0
 887              		.cfi_startproc
 888              		@ args = 0, pretend = 0, frame = 0
 889              		@ frame_needed = 0, uses_anonymous_args = 0
 890              		@ link register save eliminated.
 891              	.LVL65:
 432:.\Generated_Source\PSoC5/ADC.c ****     tmpReg |= (uint8)(gain << ADC_DSM_GAIN_SHIFT) & ADC_DSM_GAIN_MASK;
 892              		.loc 1 432 0
 893 0000 044A     		ldr	r2, .L49
 894 0002 1378     		ldrb	r3, [r2]	@ zero_extendqisi2
 895 0004 03F0F303 		and	r3, r3, #243
 896              	.LVL66:
 433:.\Generated_Source\PSoC5/ADC.c ****     ADC_DSM_BUF1_REG = tmpReg;
 897              		.loc 1 433 0
 898 0008 8000     		lsls	r0, r0, #2
 899              	.LVL67:
 900 000a 00F00C00 		and	r0, r0, #12
 901 000e 1843     		orrs	r0, r0, r3
 902              	.LVL68:
 434:.\Generated_Source\PSoC5/ADC.c **** }
 903              		.loc 1 434 0
 904 0010 1070     		strb	r0, [r2]
 905 0012 7047     		bx	lr
 906              	.L50:
 907              		.align	2
 908              	.L49:
 909 0014 9B580040 		.word	1073764507
 910              		.cfi_endproc
 911              	.LFE4:
 912              		.size	ADC_SetBufferGain, .-ADC_SetBufferGain
 913              		.section	.text.ADC_SetCoherency,"ax",%progbits
 914              		.align	2
 915              		.global	ADC_SetCoherency
 916              		.thumb
 917              		.thumb_func
 918              		.type	ADC_SetCoherency, %function
 919              	ADC_SetCoherency:
 920              	.LFB5:
 466:.\Generated_Source\PSoC5/ADC.c ****     uint8 tmpReg;
 921              		.loc 1 466 0
 922              		.cfi_startproc
 923              		@ args = 0, pretend = 0, frame = 0
 924              		@ frame_needed = 0, uses_anonymous_args = 0
 925              		@ link register save eliminated.
 926              	.LVL69:
 469:.\Generated_Source\PSoC5/ADC.c ****     tmpReg |= coherency & ADC_DEC_SAMP_KEY_MASK;
 927              		.loc 1 469 0
 928 0000 044A     		ldr	r2, .L52
 929 0002 1378     		ldrb	r3, [r2]	@ zero_extendqisi2
 930 0004 03F0FC03 		and	r3, r3, #252
 931              	.LVL70:
 470:.\Generated_Source\PSoC5/ADC.c ****     ADC_DEC_COHER_REG = tmpReg;
 932              		.loc 1 470 0
 933 0008 00F00300 		and	r0, r0, #3
 934              	.LVL71:
ARM GAS  C:\Users\HENRYA~1\AppData\Local\Temp\ccEyCdcC.s 			page 50


 935 000c 1843     		orrs	r0, r0, r3
 936              	.LVL72:
 471:.\Generated_Source\PSoC5/ADC.c **** }
 937              		.loc 1 471 0
 938 000e 1070     		strb	r0, [r2]
 939 0010 7047     		bx	lr
 940              	.L53:
 941 0012 00BF     		.align	2
 942              	.L52:
 943 0014 144E0040 		.word	1073761812
 944              		.cfi_endproc
 945              	.LFE5:
 946              		.size	ADC_SetCoherency, .-ADC_SetCoherency
 947              		.global	__aeabi_ui2f
 948              		.global	__aeabi_fmul
 949              		.global	__aeabi_f2d
 950              		.global	__aeabi_dcmpgt
 951              		.global	__aeabi_f2uiz
 952              		.section	.text.ADC_SetGCOR,"ax",%progbits
 953              		.align	2
 954              		.global	ADC_SetGCOR
 955              		.thumb
 956              		.thumb_func
 957              		.type	ADC_SetGCOR, %function
 958              	ADC_SetGCOR:
 959              	.LFB6:
 506:.\Generated_Source\PSoC5/ADC.c ****     uint16 tmpReg;
 960              		.loc 1 506 0
 961              		.cfi_startproc
 962              		@ args = 0, pretend = 0, frame = 0
 963              		@ frame_needed = 0, uses_anonymous_args = 0
 964              	.LVL73:
 965 0000 10B5     		push	{r4, lr}
 966              		.cfi_def_cfa_offset 8
 967              		.cfi_offset 4, -8
 968              		.cfi_offset 14, -4
 969 0002 0446     		mov	r4, r0
 511:.\Generated_Source\PSoC5/ADC.c ****     tmpValue = ((float32)tmpReg / (float32)ADC_IDEAL_GAIN_CONST);
 970              		.loc 1 511 0
 971 0004 184B     		ldr	r3, .L58+8
 972 0006 1B78     		ldrb	r3, [r3]	@ zero_extendqisi2
 973 0008 013B     		subs	r3, r3, #1
 974              	.LVL74:
 512:.\Generated_Source\PSoC5/ADC.c ****     tmpValue = tmpValue * gainAdjust;
 975              		.loc 1 512 0
 976 000a 184A     		ldr	r2, .L58+12
 977 000c 32F82300 		ldrh	r0, [r2, r3, lsl #2]
 978              	.LVL75:
 979 0010 FFF7FEFF 		bl	__aeabi_ui2f
 980              	.LVL76:
 981 0014 4FF06051 		mov	r1, #939524096
 982 0018 FFF7FEFF 		bl	__aeabi_fmul
 983              	.LVL77:
 513:.\Generated_Source\PSoC5/ADC.c **** 
 984              		.loc 1 513 0
 985 001c 2146     		mov	r1, r4
 986 001e FFF7FEFF 		bl	__aeabi_fmul
ARM GAS  C:\Users\HENRYA~1\AppData\Local\Temp\ccEyCdcC.s 			page 51


 987              	.LVL78:
 988 0022 0446     		mov	r4, r0
 989              	.LVL79:
 515:.\Generated_Source\PSoC5/ADC.c ****     {
 990              		.loc 1 515 0
 991 0024 FFF7FEFF 		bl	__aeabi_f2d
 992              	.LVL80:
 993 0028 0DA3     		adr	r3, .L58
 994 002a D3E90023 		ldrd	r2, [r3]
 995 002e FFF7FEFF 		bl	__aeabi_dcmpgt
 996              	.LVL81:
 997 0032 88B9     		cbnz	r0, .L56
 521:.\Generated_Source\PSoC5/ADC.c **** 		tmpReg = (uint16)tmpValue;
 998              		.loc 1 521 0
 999 0034 2046     		mov	r0, r4
 1000 0036 4FF08E41 		mov	r1, #1191182336
 1001 003a FFF7FEFF 		bl	__aeabi_fmul
 1002              	.LVL82:
 522:.\Generated_Source\PSoC5/ADC.c ****         CY_SET_REG16(ADC_DEC_GCOR_16B_PTR, tmpReg);
 1003              		.loc 1 522 0
 1004 003e FFF7FEFF 		bl	__aeabi_f2uiz
 1005              	.LVL83:
 1006 0042 80B2     		uxth	r0, r0
 1007              	.LVL84:
 523:.\Generated_Source\PSoC5/ADC.c ****         /* Update gain array to be used by SelectConfiguration() API */
 1008              		.loc 1 523 0
 1009 0044 0A4B     		ldr	r3, .L58+16
 1010 0046 1880     		strh	r0, [r3]	@ movhi
 525:.\Generated_Source\PSoC5/ADC.c **** 
 1011              		.loc 1 525 0
 1012 0048 074B     		ldr	r3, .L58+8
 1013 004a 1B78     		ldrb	r3, [r3]	@ zero_extendqisi2
 1014 004c 013B     		subs	r3, r3, #1
 1015 004e 074A     		ldr	r2, .L58+12
 1016 0050 22F82300 		strh	r0, [r2, r3, lsl #2]	@ movhi
 1017              	.LVL85:
 527:.\Generated_Source\PSoC5/ADC.c **** 
 1018              		.loc 1 527 0
 1019 0054 0020     		movs	r0, #0
 1020              	.LVL86:
 1021 0056 10BD     		pop	{r4, pc}
 1022              	.LVL87:
 1023              	.L56:
 517:.\Generated_Source\PSoC5/ADC.c ****     }
 1024              		.loc 1 517 0
 1025 0058 0120     		movs	r0, #1
 1026              	.LVL88:
 531:.\Generated_Source\PSoC5/ADC.c **** 
 1027              		.loc 1 531 0
 1028 005a 10BD     		pop	{r4, pc}
 1029              	.LVL89:
 1030              	.L59:
 1031 005c AFF30080 		.align	3
 1032              	.L58:
 1033 0060 8F537424 		.word	611603343
 1034 0064 97FFFF3F 		.word	1073741719
 1035 0068 00000000 		.word	.LANCHOR1
ARM GAS  C:\Users\HENRYA~1\AppData\Local\Temp\ccEyCdcC.s 			page 52


 1036 006c 00000000 		.word	.LANCHOR0
 1037 0070 0C4E0040 		.word	1073761804
 1038              		.cfi_endproc
 1039              	.LFE6:
 1040              		.size	ADC_SetGCOR, .-ADC_SetGCOR
 1041 0074 AFF30080 		.section	.text.ADC_ReadGCOR,"ax",%progbits
 1042              		.align	2
 1043              		.global	ADC_ReadGCOR
 1044              		.thumb
 1045              		.thumb_func
 1046              		.type	ADC_ReadGCOR, %function
 1047              	ADC_ReadGCOR:
 1048              	.LFB7:
 553:.\Generated_Source\PSoC5/ADC.c ****     uint8 gValue;
 1049              		.loc 1 553 0
 1050              		.cfi_startproc
 1051              		@ args = 0, pretend = 0, frame = 0
 1052              		@ frame_needed = 0, uses_anonymous_args = 0
 1053              		@ link register save eliminated.
 557:.\Generated_Source\PSoC5/ADC.c ****     gcorValue = CY_GET_REG16(ADC_DEC_GCOR_16B_PTR);
 1054              		.loc 1 557 0
 1055 0000 064B     		ldr	r3, .L62
 1056 0002 1B78     		ldrb	r3, [r3]	@ zero_extendqisi2
 1057 0004 DBB2     		uxtb	r3, r3
 1058              	.LVL90:
 558:.\Generated_Source\PSoC5/ADC.c **** 
 1059              		.loc 1 558 0
 1060 0006 064A     		ldr	r2, .L62+4
 1061 0008 1088     		ldrh	r0, [r2]
 1062 000a 80B2     		uxth	r0, r0
 1063              	.LVL91:
 560:.\Generated_Source\PSoC5/ADC.c ****     {
 1064              		.loc 1 560 0
 1065 000c 0E2B     		cmp	r3, #14
 1066 000e 03D8     		bhi	.L61
 562:.\Generated_Source\PSoC5/ADC.c ****     }
 1067              		.loc 1 562 0
 1068 0010 C3F10F03 		rsb	r3, r3, #15
 1069              	.LVL92:
 1070 0014 9840     		lsls	r0, r0, r3
 1071              	.LVL93:
 1072 0016 80B2     		uxth	r0, r0
 1073              	.LVL94:
 1074              	.L61:
 566:.\Generated_Source\PSoC5/ADC.c **** 
 1075              		.loc 1 566 0
 1076 0018 7047     		bx	lr
 1077              	.L63:
 1078 001a 00BF     		.align	2
 1079              	.L62:
 1080 001c 0E4E0040 		.word	1073761806
 1081 0020 0C4E0040 		.word	1073761804
 1082              		.cfi_endproc
 1083              	.LFE7:
 1084              		.size	ADC_ReadGCOR, .-ADC_ReadGCOR
 1085              		.section	.text.ADC_StartConvert,"ax",%progbits
 1086              		.align	2
ARM GAS  C:\Users\HENRYA~1\AppData\Local\Temp\ccEyCdcC.s 			page 53


 1087              		.global	ADC_StartConvert
 1088              		.thumb
 1089              		.thumb_func
 1090              		.type	ADC_StartConvert, %function
 1091              	ADC_StartConvert:
 1092              	.LFB8:
 587:.\Generated_Source\PSoC5/ADC.c ****     /* Start the conversion */
 1093              		.loc 1 587 0
 1094              		.cfi_startproc
 1095              		@ args = 0, pretend = 0, frame = 0
 1096              		@ frame_needed = 0, uses_anonymous_args = 0
 1097              		@ link register save eliminated.
 589:.\Generated_Source\PSoC5/ADC.c **** }
 1098              		.loc 1 589 0
 1099 0000 024A     		ldr	r2, .L65
 1100 0002 1378     		ldrb	r3, [r2]	@ zero_extendqisi2
 1101 0004 43F00103 		orr	r3, r3, #1
 1102 0008 1370     		strb	r3, [r2]
 1103 000a 7047     		bx	lr
 1104              	.L66:
 1105              		.align	2
 1106              	.L65:
 1107 000c 004E0040 		.word	1073761792
 1108              		.cfi_endproc
 1109              	.LFE8:
 1110              		.size	ADC_StartConvert, .-ADC_StartConvert
 1111              		.section	.text.ADC_StopConvert,"ax",%progbits
 1112              		.align	2
 1113              		.global	ADC_StopConvert
 1114              		.thumb
 1115              		.thumb_func
 1116              		.type	ADC_StopConvert, %function
 1117              	ADC_StopConvert:
 1118              	.LFB9:
 610:.\Generated_Source\PSoC5/ADC.c ****     /* Stop all conversions */
 1119              		.loc 1 610 0
 1120              		.cfi_startproc
 1121              		@ args = 0, pretend = 0, frame = 0
 1122              		@ frame_needed = 0, uses_anonymous_args = 0
 1123              		@ link register save eliminated.
 612:.\Generated_Source\PSoC5/ADC.c **** }
 1124              		.loc 1 612 0
 1125 0000 024A     		ldr	r2, .L68
 1126 0002 1378     		ldrb	r3, [r2]	@ zero_extendqisi2
 1127 0004 03F0FE03 		and	r3, r3, #254
 1128 0008 1370     		strb	r3, [r2]
 1129 000a 7047     		bx	lr
 1130              	.L69:
 1131              		.align	2
 1132              	.L68:
 1133 000c 004E0040 		.word	1073761792
 1134              		.cfi_endproc
 1135              	.LFE9:
 1136              		.size	ADC_StopConvert, .-ADC_StopConvert
 1137              		.section	.text.ADC_IsEndConversion,"ax",%progbits
 1138              		.align	2
 1139              		.global	ADC_IsEndConversion
ARM GAS  C:\Users\HENRYA~1\AppData\Local\Temp\ccEyCdcC.s 			page 54


 1140              		.thumb
 1141              		.thumb_func
 1142              		.type	ADC_IsEndConversion, %function
 1143              	ADC_IsEndConversion:
 1144              	.LFB10:
 645:.\Generated_Source\PSoC5/ADC.c ****     uint8 status;
 1145              		.loc 1 645 0
 1146              		.cfi_startproc
 1147              		@ args = 0, pretend = 0, frame = 0
 1148              		@ frame_needed = 0, uses_anonymous_args = 0
 1149              		@ link register save eliminated.
 1150              	.LVL95:
 1151              	.L74:
 653:.\Generated_Source\PSoC5/ADC.c ****         {
 1152              		.loc 1 653 0
 1153 0000 094B     		ldr	r3, .L75
 1154 0002 1B79     		ldrb	r3, [r3, #4]	@ zero_extendqisi2
 1155 0004 13F0FF0F 		tst	r3, #255
 1156 0008 03D0     		beq	.L71
 655:.\Generated_Source\PSoC5/ADC.c ****         }
 1157              		.loc 1 655 0
 1158 000a 074B     		ldr	r3, .L75
 1159 000c 5B79     		ldrb	r3, [r3, #5]	@ zero_extendqisi2
 1160 000e DBB2     		uxtb	r3, r3
 1161              	.LVL96:
 1162 0010 03E0     		b	.L72
 1163              	.LVL97:
 1164              	.L71:
 659:.\Generated_Source\PSoC5/ADC.c ****         }
 1165              		.loc 1 659 0
 1166 0012 064B     		ldr	r3, .L75+4
 1167 0014 1B78     		ldrb	r3, [r3]	@ zero_extendqisi2
 1168 0016 03F00103 		and	r3, r3, #1
 1169              	.LVL98:
 1170              	.L72:
 661:.\Generated_Source\PSoC5/ADC.c **** 
 1171              		.loc 1 661 0
 1172 001a 012B     		cmp	r3, #1
 1173 001c 01D0     		beq	.L73
 661:.\Generated_Source\PSoC5/ADC.c **** 
 1174              		.loc 1 661 0 is_stmt 0 discriminator 1
 1175 001e 0028     		cmp	r0, #0
 1176 0020 EED0     		beq	.L74
 1177              	.L73:
 664:.\Generated_Source\PSoC5/ADC.c **** 
 1178              		.loc 1 664 0 is_stmt 1
 1179 0022 1846     		mov	r0, r3
 1180              	.LVL99:
 1181 0024 7047     		bx	lr
 1182              	.L76:
 1183 0026 00BF     		.align	2
 1184              	.L75:
 1185 0028 00000000 		.word	.LANCHOR0
 1186 002c 014E0040 		.word	1073761793
 1187              		.cfi_endproc
 1188              	.LFE10:
 1189              		.size	ADC_IsEndConversion, .-ADC_IsEndConversion
ARM GAS  C:\Users\HENRYA~1\AppData\Local\Temp\ccEyCdcC.s 			page 55


 1190              		.section	.text.ADC_GetResult8,"ax",%progbits
 1191              		.align	2
 1192              		.global	ADC_GetResult8
 1193              		.thumb
 1194              		.thumb_func
 1195              		.type	ADC_GetResult8, %function
 1196              	ADC_GetResult8:
 1197              	.LFB11:
 692:.\Generated_Source\PSoC5/ADC.c ****     int8 result;
 1198              		.loc 1 692 0
 1199              		.cfi_startproc
 1200              		@ args = 0, pretend = 0, frame = 0
 1201              		@ frame_needed = 0, uses_anonymous_args = 0
 1202              		@ link register save eliminated.
 697:.\Generated_Source\PSoC5/ADC.c **** 
 1203              		.loc 1 697 0
 1204 0000 0C4B     		ldr	r3, .L81
 1205 0002 1B78     		ldrb	r3, [r3]	@ zero_extendqisi2
 1206 0004 03F00303 		and	r3, r3, #3
 1207              	.LVL100:
 699:.\Generated_Source\PSoC5/ADC.c **** 
 1208              		.loc 1 699 0
 1209 0008 0B4A     		ldr	r2, .L81+4
 1210 000a 1078     		ldrb	r0, [r2]	@ zero_extendqisi2
 1211              	.LVL101:
 701:.\Generated_Source\PSoC5/ADC.c ****     {   /* Dummy read of the middle byte to unlock the coherency */
 1212              		.loc 1 701 0
 1213 000c 022B     		cmp	r3, #2
 1214 000e 02D1     		bne	.L78
 703:.\Generated_Source\PSoC5/ADC.c ****     }
 1215              		.loc 1 703 0
 1216 0010 0A4B     		ldr	r3, .L81+8
 1217              	.LVL102:
 1218 0012 1B78     		ldrb	r3, [r3]	@ zero_extendqisi2
 1219 0014 03E0     		b	.L79
 1220              	.LVL103:
 1221              	.L78:
 705:.\Generated_Source\PSoC5/ADC.c ****     {   /* Dummy read of the MSB byte to unlock the coherency */
 1222              		.loc 1 705 0
 1223 0016 032B     		cmp	r3, #3
 1224 0018 01D1     		bne	.L79
 707:.\Generated_Source\PSoC5/ADC.c ****     }
 1225              		.loc 1 707 0
 1226 001a 094B     		ldr	r3, .L81+12
 1227              	.LVL104:
 1228 001c 1B78     		ldrb	r3, [r3]	@ zero_extendqisi2
 1229              	.L79:
 713:.\Generated_Source\PSoC5/ADC.c ****     {
 1230              		.loc 1 713 0
 1231 001e 094B     		ldr	r3, .L81+16
 1232 0020 1B79     		ldrb	r3, [r3, #4]	@ zero_extendqisi2
 1233 0022 13F0FF0F 		tst	r3, #255
 1234 0026 02D0     		beq	.L80
 715:.\Generated_Source\PSoC5/ADC.c ****     }
 1235              		.loc 1 715 0
 1236 0028 0022     		movs	r2, #0
 1237 002a 064B     		ldr	r3, .L81+16
ARM GAS  C:\Users\HENRYA~1\AppData\Local\Temp\ccEyCdcC.s 			page 56


 1238 002c 5A71     		strb	r2, [r3, #5]
 1239              	.L80:
 718:.\Generated_Source\PSoC5/ADC.c **** 
 1240              		.loc 1 718 0
 1241 002e 40B2     		sxtb	r0, r0
 1242 0030 7047     		bx	lr
 1243              	.L82:
 1244 0032 00BF     		.align	2
 1245              	.L81:
 1246 0034 144E0040 		.word	1073761812
 1247 0038 104E0040 		.word	1073761808
 1248 003c 114E0040 		.word	1073761809
 1249 0040 124E0040 		.word	1073761810
 1250 0044 00000000 		.word	.LANCHOR0
 1251              		.cfi_endproc
 1252              	.LFE11:
 1253              		.size	ADC_GetResult8, .-ADC_GetResult8
 1254              		.section	.text.ADC_GetResult16,"ax",%progbits
 1255              		.align	2
 1256              		.global	ADC_GetResult16
 1257              		.thumb
 1258              		.thumb_func
 1259              		.type	ADC_GetResult16, %function
 1260              	ADC_GetResult16:
 1261              	.LFB12:
 746:.\Generated_Source\PSoC5/ADC.c ****     uint16 result;
 1262              		.loc 1 746 0
 1263              		.cfi_startproc
 1264              		@ args = 0, pretend = 0, frame = 0
 1265              		@ frame_needed = 0, uses_anonymous_args = 0
 1266              		@ link register save eliminated.
 751:.\Generated_Source\PSoC5/ADC.c **** 
 1267              		.loc 1 751 0
 1268 0000 0E4B     		ldr	r3, .L87
 1269 0002 1B78     		ldrb	r3, [r3]	@ zero_extendqisi2
 1270 0004 03F00303 		and	r3, r3, #3
 1271              	.LVL105:
 753:.\Generated_Source\PSoC5/ADC.c ****     {   /*  Use default method to read result registers i.e. LSB byte read at the end*/
 1272              		.loc 1 753 0
 1273 0008 012B     		cmp	r3, #1
 1274 000a 03D8     		bhi	.L84
 759:.\Generated_Source\PSoC5/ADC.c ****         #endif /* CY_PSOC3 */
 1275              		.loc 1 759 0
 1276 000c 0C4B     		ldr	r3, .L87+4
 1277              	.LVL106:
 1278 000e 1888     		ldrh	r0, [r3]
 1279 0010 80B2     		uxth	r0, r0
 1280              	.LVL107:
 1281 0012 09E0     		b	.L85
 1282              	.LVL108:
 1283              	.L84:
 767:.\Generated_Source\PSoC5/ADC.c ****             result |=  (uint16)((uint16)ADC_DEC_SAMPM_REG << 8u);
 1284              		.loc 1 767 0
 1285 0014 0A4A     		ldr	r2, .L87+4
 1286 0016 1278     		ldrb	r2, [r2]	@ zero_extendqisi2
 1287              	.LVL109:
 768:.\Generated_Source\PSoC5/ADC.c ****         #endif /* CY_PSOC3 */
ARM GAS  C:\Users\HENRYA~1\AppData\Local\Temp\ccEyCdcC.s 			page 57


 1288              		.loc 1 768 0
 1289 0018 0A49     		ldr	r1, .L87+8
 1290 001a 0878     		ldrb	r0, [r1]	@ zero_extendqisi2
 1291 001c 42EA0020 		orr	r0, r2, r0, lsl #8
 1292              	.LVL110:
 770:.\Generated_Source\PSoC5/ADC.c ****         {   /* Dummy read of the MSB byte to unlock the coherency */
 1293              		.loc 1 770 0
 1294 0020 032B     		cmp	r3, #3
 1295 0022 01D1     		bne	.L85
 772:.\Generated_Source\PSoC5/ADC.c ****         }
 1296              		.loc 1 772 0
 1297 0024 084B     		ldr	r3, .L87+12
 1298              	.LVL111:
 1299 0026 1B78     		ldrb	r3, [r3]	@ zero_extendqisi2
 1300              	.L85:
 776:.\Generated_Source\PSoC5/ADC.c ****     {
 1301              		.loc 1 776 0
 1302 0028 084B     		ldr	r3, .L87+16
 1303 002a 1B79     		ldrb	r3, [r3, #4]	@ zero_extendqisi2
 1304 002c 13F0FF0F 		tst	r3, #255
 1305 0030 02D0     		beq	.L86
 778:.\Generated_Source\PSoC5/ADC.c ****     }
 1306              		.loc 1 778 0
 1307 0032 0022     		movs	r2, #0
 1308 0034 054B     		ldr	r3, .L87+16
 1309 0036 5A71     		strb	r2, [r3, #5]
 1310              	.L86:
 782:.\Generated_Source\PSoC5/ADC.c **** 
 1311              		.loc 1 782 0
 1312 0038 00B2     		sxth	r0, r0
 1313 003a 7047     		bx	lr
 1314              	.L88:
 1315              		.align	2
 1316              	.L87:
 1317 003c 144E0040 		.word	1073761812
 1318 0040 104E0040 		.word	1073761808
 1319 0044 114E0040 		.word	1073761809
 1320 0048 124E0040 		.word	1073761810
 1321 004c 00000000 		.word	.LANCHOR0
 1322              		.cfi_endproc
 1323              	.LFE12:
 1324              		.size	ADC_GetResult16, .-ADC_GetResult16
 1325              		.section	.text.ADC_GetResult32,"ax",%progbits
 1326              		.align	2
 1327              		.global	ADC_GetResult32
 1328              		.thumb
 1329              		.thumb_func
 1330              		.type	ADC_GetResult32, %function
 1331              	ADC_GetResult32:
 1332              	.LFB13:
 806:.\Generated_Source\PSoC5/ADC.c ****     uint32 result;
 1333              		.loc 1 806 0
 1334              		.cfi_startproc
 1335              		@ args = 0, pretend = 0, frame = 0
 1336              		@ frame_needed = 0, uses_anonymous_args = 0
 1337              		@ link register save eliminated.
 814:.\Generated_Source\PSoC5/ADC.c **** 
ARM GAS  C:\Users\HENRYA~1\AppData\Local\Temp\ccEyCdcC.s 			page 58


 1338              		.loc 1 814 0
 1339 0000 154B     		ldr	r3, .L94
 1340 0002 1B78     		ldrb	r3, [r3]	@ zero_extendqisi2
 1341 0004 03F00303 		and	r3, r3, #3
 1342              	.LVL112:
 816:.\Generated_Source\PSoC5/ADC.c ****     {   /*  Use default method to read result registers i.e. LSB byte read at the end*/
 1343              		.loc 1 816 0
 1344 0008 012B     		cmp	r3, #1
 1345 000a 07D8     		bhi	.L90
 827:.\Generated_Source\PSoC5/ADC.c ****             result = (result << 16u) | (CY_GET_REG16(ADC_DEC_SAMP_16B_PTR));
 1346              		.loc 1 827 0
 1347 000c 134B     		ldr	r3, .L94+4
 1348              	.LVL113:
 1349 000e 1888     		ldrh	r0, [r3]
 1350              	.LVL114:
 828:.\Generated_Source\PSoC5/ADC.c ****         #endif /* CY_PSOC3 */
 1351              		.loc 1 828 0
 1352 0010 023B     		subs	r3, r3, #2
 1353 0012 1B88     		ldrh	r3, [r3]
 1354 0014 9BB2     		uxth	r3, r3
 1355 0016 43EA0040 		orr	r0, r3, r0, lsl #16
 1356              	.LVL115:
 1357 001a 13E0     		b	.L91
 1358              	.LVL116:
 1359              	.L90:
 831:.\Generated_Source\PSoC5/ADC.c ****     {   /* Read middle byte at the end */
 1360              		.loc 1 831 0
 1361 001c 022B     		cmp	r3, #2
 1362 001e 0AD1     		bne	.L92
 841:.\Generated_Source\PSoC5/ADC.c ****             result = (result << 16u) | ADC_DEC_SAMP_REG;
 1363              		.loc 1 841 0
 1364 0020 0E4B     		ldr	r3, .L94+4
 1365              	.LVL117:
 1366 0022 1888     		ldrh	r0, [r3]
 1367              	.LVL118:
 842:.\Generated_Source\PSoC5/ADC.c ****             result |=  (uint32)((uint32)ADC_DEC_SAMPM_REG << 8u);
 1368              		.loc 1 842 0
 1369 0024 023B     		subs	r3, r3, #2
 1370 0026 1B78     		ldrb	r3, [r3]	@ zero_extendqisi2
 1371 0028 43EA0043 		orr	r3, r3, r0, lsl #16
 1372              	.LVL119:
 843:.\Generated_Source\PSoC5/ADC.c ****         #endif /* CY_PSOC3 */
 1373              		.loc 1 843 0
 1374 002c 0C4A     		ldr	r2, .L94+8
 1375 002e 1078     		ldrb	r0, [r2]	@ zero_extendqisi2
 1376 0030 43EA0020 		orr	r0, r3, r0, lsl #8
 1377              	.LVL120:
 1378 0034 06E0     		b	.L91
 1379              	.LVL121:
 1380              	.L92:
 858:.\Generated_Source\PSoC5/ADC.c ****             result |= (uint32)((uint32)CY_GET_REG16(ADC_DEC_SAMPH_16B_PTR) << 16u);
 1381              		.loc 1 858 0
 1382 0036 0B4B     		ldr	r3, .L94+12
 1383              	.LVL122:
 1384 0038 1888     		ldrh	r0, [r3]
 1385 003a 83B2     		uxth	r3, r0
 1386              	.LVL123:
ARM GAS  C:\Users\HENRYA~1\AppData\Local\Temp\ccEyCdcC.s 			page 59


 859:.\Generated_Source\PSoC5/ADC.c ****         #endif /* CY_PSOC3 */
 1387              		.loc 1 859 0
 1388 003c 074A     		ldr	r2, .L94+4
 1389 003e 1088     		ldrh	r0, [r2]
 1390 0040 43EA0040 		orr	r0, r3, r0, lsl #16
 1391              	.LVL124:
 1392              	.L91:
 863:.\Generated_Source\PSoC5/ADC.c ****     {
 1393              		.loc 1 863 0
 1394 0044 084B     		ldr	r3, .L94+16
 1395 0046 1B79     		ldrb	r3, [r3, #4]	@ zero_extendqisi2
 1396 0048 13F0FF0F 		tst	r3, #255
 1397 004c 02D0     		beq	.L93
 865:.\Generated_Source\PSoC5/ADC.c ****     }
 1398              		.loc 1 865 0
 1399 004e 0022     		movs	r2, #0
 1400 0050 054B     		ldr	r3, .L94+16
 1401 0052 5A71     		strb	r2, [r3, #5]
 1402              	.L93:
 869:.\Generated_Source\PSoC5/ADC.c **** 
 1403              		.loc 1 869 0
 1404 0054 7047     		bx	lr
 1405              	.L95:
 1406 0056 00BF     		.align	2
 1407              	.L94:
 1408 0058 144E0040 		.word	1073761812
 1409 005c 124E0040 		.word	1073761810
 1410 0060 114E0040 		.word	1073761809
 1411 0064 104E0040 		.word	1073761808
 1412 0068 00000000 		.word	.LANCHOR0
 1413              		.cfi_endproc
 1414              	.LFE13:
 1415              		.size	ADC_GetResult32, .-ADC_GetResult32
 1416              		.section	.text.ADC_SetOffset,"ax",%progbits
 1417              		.align	2
 1418              		.global	ADC_SetOffset
 1419              		.thumb
 1420              		.thumb_func
 1421              		.type	ADC_SetOffset, %function
 1422              	ADC_SetOffset:
 1423              	.LFB14:
 899:.\Generated_Source\PSoC5/ADC.c **** 
 1424              		.loc 1 899 0
 1425              		.cfi_startproc
 1426              		@ args = 0, pretend = 0, frame = 0
 1427              		@ frame_needed = 0, uses_anonymous_args = 0
 1428              		@ link register save eliminated.
 1429              	.LVL125:
 901:.\Generated_Source\PSoC5/ADC.c **** }
 1430              		.loc 1 901 0
 1431 0000 014B     		ldr	r3, .L97
 1432 0002 1860     		str	r0, [r3]
 1433 0004 7047     		bx	lr
 1434              	.L98:
 1435 0006 00BF     		.align	2
 1436              	.L97:
 1437 0008 00000000 		.word	ADC_Offset
ARM GAS  C:\Users\HENRYA~1\AppData\Local\Temp\ccEyCdcC.s 			page 60


 1438              		.cfi_endproc
 1439              	.LFE14:
 1440              		.size	ADC_SetOffset, .-ADC_SetOffset
 1441              		.section	.text.ADC_SetGain,"ax",%progbits
 1442              		.align	2
 1443              		.global	ADC_SetGain
 1444              		.thumb
 1445              		.thumb_func
 1446              		.type	ADC_SetGain, %function
 1447              	ADC_SetGain:
 1448              	.LFB15:
 934:.\Generated_Source\PSoC5/ADC.c ****     ADC_CountsPerVolt = adcGain;
 1449              		.loc 1 934 0
 1450              		.cfi_startproc
 1451              		@ args = 0, pretend = 0, frame = 0
 1452              		@ frame_needed = 0, uses_anonymous_args = 0
 1453              		@ link register save eliminated.
 1454              	.LVL126:
 935:.\Generated_Source\PSoC5/ADC.c **** }
 1455              		.loc 1 935 0
 1456 0000 014B     		ldr	r3, .L100
 1457 0002 1860     		str	r0, [r3]
 1458 0004 7047     		bx	lr
 1459              	.L101:
 1460 0006 00BF     		.align	2
 1461              	.L100:
 1462 0008 00000000 		.word	ADC_CountsPerVolt
 1463              		.cfi_endproc
 1464              	.LFE15:
 1465              		.size	ADC_SetGain, .-ADC_SetGain
 1466              		.section	.text.ADC_CountsTo_mVolts,"ax",%progbits
 1467              		.align	2
 1468              		.global	ADC_CountsTo_mVolts
 1469              		.thumb
 1470              		.thumb_func
 1471              		.type	ADC_CountsTo_mVolts, %function
 1472              	ADC_CountsTo_mVolts:
 1473              	.LFB16:
 961:.\Generated_Source\PSoC5/ADC.c **** 
 1474              		.loc 1 961 0
 1475              		.cfi_startproc
 1476              		@ args = 0, pretend = 0, frame = 0
 1477              		@ frame_needed = 0, uses_anonymous_args = 0
 1478              		@ link register save eliminated.
 1479              	.LVL127:
 992:.\Generated_Source\PSoC5/ADC.c **** 
 1480              		.loc 1 992 0
 1481 0000 064B     		ldr	r3, .L103
 1482 0002 1B68     		ldr	r3, [r3]
 1483 0004 C01A     		subs	r0, r0, r3
 1484              	.LVL128:
 994:.\Generated_Source\PSoC5/ADC.c **** 
 1485              		.loc 1 994 0
 1486 0006 4FF47A73 		mov	r3, #1000
 1487 000a 03FB00F0 		mul	r0, r3, r0
 1488              	.LVL129:
 1489 000e 044B     		ldr	r3, .L103+4
ARM GAS  C:\Users\HENRYA~1\AppData\Local\Temp\ccEyCdcC.s 			page 61


 1490 0010 1B68     		ldr	r3, [r3]
 1491 0012 90FBF3F0 		sdiv	r0, r0, r3
 1492              	.LVL130:
 997:.\Generated_Source\PSoC5/ADC.c **** 
 1493              		.loc 1 997 0
 1494 0016 00B2     		sxth	r0, r0
 1495 0018 7047     		bx	lr
 1496              	.L104:
 1497 001a 00BF     		.align	2
 1498              	.L103:
 1499 001c 00000000 		.word	ADC_Offset
 1500 0020 00000000 		.word	ADC_CountsPerVolt
 1501              		.cfi_endproc
 1502              	.LFE16:
 1503              		.size	ADC_CountsTo_mVolts, .-ADC_CountsTo_mVolts
 1504              		.global	__aeabi_i2f
 1505              		.global	__aeabi_fdiv
 1506              		.section	.text.ADC_CountsTo_Volts,"ax",%progbits
 1507              		.align	2
 1508              		.global	ADC_CountsTo_Volts
 1509              		.thumb
 1510              		.thumb_func
 1511              		.type	ADC_CountsTo_Volts, %function
 1512              	ADC_CountsTo_Volts:
 1513              	.LFB17:
1022:.\Generated_Source\PSoC5/ADC.c **** 
 1514              		.loc 1 1022 0
 1515              		.cfi_startproc
 1516              		@ args = 0, pretend = 0, frame = 0
 1517              		@ frame_needed = 0, uses_anonymous_args = 0
 1518              	.LVL131:
 1519 0000 10B5     		push	{r4, lr}
 1520              		.cfi_def_cfa_offset 8
 1521              		.cfi_offset 4, -8
 1522              		.cfi_offset 14, -4
1053:.\Generated_Source\PSoC5/ADC.c **** 
 1523              		.loc 1 1053 0
 1524 0002 074B     		ldr	r3, .L107
 1525 0004 1B68     		ldr	r3, [r3]
 1526              	.LVL132:
1055:.\Generated_Source\PSoC5/ADC.c **** 
 1527              		.loc 1 1055 0
 1528 0006 C01A     		subs	r0, r0, r3
 1529              	.LVL133:
 1530 0008 FFF7FEFF 		bl	__aeabi_i2f
 1531              	.LVL134:
 1532 000c 0446     		mov	r4, r0
 1533 000e 054B     		ldr	r3, .L107+4
 1534 0010 1868     		ldr	r0, [r3]
 1535 0012 FFF7FEFF 		bl	__aeabi_i2f
 1536              	.LVL135:
 1537 0016 0146     		mov	r1, r0
 1538 0018 2046     		mov	r0, r4
 1539 001a FFF7FEFF 		bl	__aeabi_fdiv
 1540              	.LVL136:
1058:.\Generated_Source\PSoC5/ADC.c **** 
 1541              		.loc 1 1058 0
ARM GAS  C:\Users\HENRYA~1\AppData\Local\Temp\ccEyCdcC.s 			page 62


 1542 001e 10BD     		pop	{r4, pc}
 1543              	.L108:
 1544              		.align	2
 1545              	.L107:
 1546 0020 00000000 		.word	ADC_Offset
 1547 0024 00000000 		.word	ADC_CountsPerVolt
 1548              		.cfi_endproc
 1549              	.LFE17:
 1550              		.size	ADC_CountsTo_Volts, .-ADC_CountsTo_Volts
 1551              		.section	.text.ADC_CountsTo_uVolts,"ax",%progbits
 1552              		.align	2
 1553              		.global	ADC_CountsTo_uVolts
 1554              		.thumb
 1555              		.thumb_func
 1556              		.type	ADC_CountsTo_uVolts, %function
 1557              	ADC_CountsTo_uVolts:
 1558              	.LFB18:
1088:.\Generated_Source\PSoC5/ADC.c **** 
 1559              		.loc 1 1088 0
 1560              		.cfi_startproc
 1561              		@ args = 0, pretend = 0, frame = 0
 1562              		@ frame_needed = 0, uses_anonymous_args = 0
 1563              		@ link register save eliminated.
 1564              	.LVL137:
1097:.\Generated_Source\PSoC5/ADC.c ****     {
 1565              		.loc 1 1097 0
 1566 0000 144B     		ldr	r3, .L117
 1567 0002 1B78     		ldrb	r3, [r3]	@ zero_extendqisi2
 1568 0004 DBB2     		uxtb	r3, r3
 1569 0006 012B     		cmp	r3, #1
 1570 0008 08D0     		beq	.L113
1104:.\Generated_Source\PSoC5/ADC.c ****     {
 1571              		.loc 1 1104 0
 1572 000a 124B     		ldr	r3, .L117
 1573 000c 1B78     		ldrb	r3, [r3]	@ zero_extendqisi2
 1574 000e DBB2     		uxtb	r3, r3
 1575 0010 022B     		cmp	r3, #2
 1576 0012 05D0     		beq	.L114
1111:.\Generated_Source\PSoC5/ADC.c ****     {
 1577              		.loc 1 1111 0
 1578 0014 0F4B     		ldr	r3, .L117
 1579 0016 1B78     		ldrb	r3, [r3]	@ zero_extendqisi2
1113:.\Generated_Source\PSoC5/ADC.c ****         #if(ADC_CFG3_DEC_DIV != 0)
 1580              		.loc 1 1113 0
 1581 0018 1023     		movs	r3, #16
 1582 001a 02E0     		b	.L110
 1583              	.L113:
1099:.\Generated_Source\PSoC5/ADC.c ****         #if(ADC_CFG1_DEC_DIV != 0)
 1584              		.loc 1 1099 0
 1585 001c 0823     		movs	r3, #8
 1586 001e 00E0     		b	.L110
 1587              	.L114:
1106:.\Generated_Source\PSoC5/ADC.c ****         #if(ADC_CFG2_DEC_DIV != 0)
 1588              		.loc 1 1106 0
 1589 0020 1023     		movs	r3, #16
 1590              	.L110:
 1591              	.LVL138:
ARM GAS  C:\Users\HENRYA~1\AppData\Local\Temp\ccEyCdcC.s 			page 63


1126:.\Generated_Source\PSoC5/ADC.c ****     {
 1592              		.loc 1 1126 0
 1593 0022 102B     		cmp	r3, #16
 1594 0024 03D1     		bne	.L116
1170:.\Generated_Source\PSoC5/ADC.c ****                 break;
 1595              		.loc 1 1170 0
 1596 0026 2021     		movs	r1, #32
1169:.\Generated_Source\PSoC5/ADC.c ****                 coefB = ADC_DIVISOR_32;
 1597              		.loc 1 1169 0
 1598 0028 47F61223 		movw	r3, #31250
 1599              	.LVL139:
 1600 002c 01E0     		b	.L111
 1601              	.LVL140:
 1602              	.L116:
1212:.\Generated_Source\PSoC5/ADC.c ****             break;
 1603              		.loc 1 1212 0
 1604 002e 0121     		movs	r1, #1
1211:.\Generated_Source\PSoC5/ADC.c ****             coefB = ADC_DIVISOR_1;
 1605              		.loc 1 1211 0
 1606 0030 094B     		ldr	r3, .L117+4
 1607              	.LVL141:
 1608              	.L111:
1215:.\Generated_Source\PSoC5/ADC.c ****     uVolts = ((coefA * adcCounts) / coefB) - ((coefA * ADC_Offset) / coefB);
 1609              		.loc 1 1215 0
 1610 0032 0A4A     		ldr	r2, .L117+8
 1611 0034 1268     		ldr	r2, [r2]
 1612 0036 92FBF1F1 		sdiv	r1, r2, r1
 1613              	.LVL142:
1216:.\Generated_Source\PSoC5/ADC.c **** 
 1614              		.loc 1 1216 0
 1615 003a 00FB03F0 		mul	r0, r0, r3
 1616              	.LVL143:
 1617 003e 90FBF1F0 		sdiv	r0, r0, r1
 1618 0042 074A     		ldr	r2, .L117+12
 1619 0044 1268     		ldr	r2, [r2]
 1620 0046 02FB03F3 		mul	r3, r2, r3
 1621              	.LVL144:
 1622 004a 93FBF1F3 		sdiv	r3, r3, r1
 1623              	.LVL145:
1219:.\Generated_Source\PSoC5/ADC.c **** 
 1624              		.loc 1 1219 0
 1625 004e C01A     		subs	r0, r0, r3
 1626              	.LVL146:
 1627 0050 7047     		bx	lr
 1628              	.L118:
 1629 0052 00BF     		.align	2
 1630              	.L117:
 1631 0054 00000000 		.word	.LANCHOR1
 1632 0058 40420F00 		.word	1000000
 1633 005c 00000000 		.word	ADC_CountsPerVolt
 1634 0060 00000000 		.word	ADC_Offset
 1635              		.cfi_endproc
 1636              	.LFE18:
 1637              		.size	ADC_CountsTo_uVolts, .-ADC_CountsTo_uVolts
 1638              		.section	.text.ADC_SelectConfiguration,"ax",%progbits
 1639              		.align	2
 1640              		.global	ADC_SelectConfiguration
ARM GAS  C:\Users\HENRYA~1\AppData\Local\Temp\ccEyCdcC.s 			page 64


 1641              		.thumb
 1642              		.thumb_func
 1643              		.type	ADC_SelectConfiguration, %function
 1644              	ADC_SelectConfiguration:
 1645              	.LFB20:
1554:.\Generated_Source\PSoC5/ADC.c ****     /* Check whether the configuration number is valid or not */
 1646              		.loc 1 1554 0
 1647              		.cfi_startproc
 1648              		@ args = 0, pretend = 0, frame = 0
 1649              		@ frame_needed = 0, uses_anonymous_args = 0
 1650              	.LVL147:
 1651 0000 38B5     		push	{r3, r4, r5, lr}
 1652              		.cfi_def_cfa_offset 16
 1653              		.cfi_offset 3, -16
 1654              		.cfi_offset 4, -12
 1655              		.cfi_offset 5, -8
 1656              		.cfi_offset 14, -4
 1657 0002 0446     		mov	r4, r0
1556:.\Generated_Source\PSoC5/ADC.c ****     {
 1658              		.loc 1 1556 0
 1659 0004 0128     		cmp	r0, #1
 1660 0006 1FD1     		bne	.L120
 1661 0008 0D46     		mov	r5, r1
1561:.\Generated_Source\PSoC5/ADC.c ****         {
 1662              		.loc 1 1561 0
 1663 000a 114B     		ldr	r3, .L124
 1664 000c 9B79     		ldrb	r3, [r3, #6]	@ zero_extendqisi2
 1665 000e 13B9     		cbnz	r3, .L121
1563:.\Generated_Source\PSoC5/ADC.c ****         }
 1666              		.loc 1 1563 0
 1667 0010 0122     		movs	r2, #1
 1668 0012 0F4B     		ldr	r3, .L124
 1669 0014 DA71     		strb	r2, [r3, #7]
 1670              	.L121:
1567:.\Generated_Source\PSoC5/ADC.c **** 
 1671              		.loc 1 1567 0
 1672 0016 0F4B     		ldr	r3, .L124+4
 1673 0018 1C70     		strb	r4, [r3]
1570:.\Generated_Source\PSoC5/ADC.c **** 
 1674              		.loc 1 1570 0
 1675 001a FFF7FEFF 		bl	ADC_Stop
 1676              	.LVL148:
1573:.\Generated_Source\PSoC5/ADC.c **** 
 1677              		.loc 1 1573 0
 1678 001e 2046     		mov	r0, r4
 1679 0020 FFF7FEFF 		bl	ADC_InitConfig
 1680              	.LVL149:
1576:.\Generated_Source\PSoC5/ADC.c ****         CY_SET_REG16(ADC_DEC_GCOR_16B_PTR, ADC_gcor[config - 1u].gcor);
 1681              		.loc 1 1576 0
 1682 0024 013C     		subs	r4, r4, #1
 1683 0026 0A4B     		ldr	r3, .L124
 1684 0028 03EB8402 		add	r2, r3, r4, lsl #2
 1685 002c 9178     		ldrb	r1, [r2, #2]	@ zero_extendqisi2
 1686 002e 0A4A     		ldr	r2, .L124+8
 1687 0030 1170     		strb	r1, [r2]
1577:.\Generated_Source\PSoC5/ADC.c **** 
 1688              		.loc 1 1577 0
ARM GAS  C:\Users\HENRYA~1\AppData\Local\Temp\ccEyCdcC.s 			page 65


 1689 0032 33F82420 		ldrh	r2, [r3, r4, lsl #2]
 1690 0036 094B     		ldr	r3, .L124+12
 1691 0038 1A80     		strh	r2, [r3]	@ movhi
1579:.\Generated_Source\PSoC5/ADC.c ****         {
 1692              		.loc 1 1579 0
 1693 003a 012D     		cmp	r5, #1
 1694 003c 07D1     		bne	.L119
1582:.\Generated_Source\PSoC5/ADC.c **** 
 1695              		.loc 1 1582 0
 1696 003e FFF7FEFF 		bl	ADC_Start
 1697              	.LVL150:
1585:.\Generated_Source\PSoC5/ADC.c ****         }
 1698              		.loc 1 1585 0
 1699 0042 FFF7FEFF 		bl	ADC_StartConvert
 1700              	.LVL151:
 1701 0046 38BD     		pop	{r3, r4, r5, pc}
 1702              	.LVL152:
 1703              	.L120:
1591:.\Generated_Source\PSoC5/ADC.c ****     }
 1704              		.loc 1 1591 0 discriminator 1
 1705 0048 0020     		movs	r0, #0
 1706              	.LVL153:
 1707 004a FFF7FEFF 		bl	CyHalt
 1708              	.LVL154:
 1709              	.L119:
 1710 004e 38BD     		pop	{r3, r4, r5, pc}
 1711              	.L125:
 1712              		.align	2
 1713              	.L124:
 1714 0050 00000000 		.word	.LANCHOR0
 1715 0054 00000000 		.word	.LANCHOR1
 1716 0058 0E4E0040 		.word	1073761806
 1717 005c 0C4E0040 		.word	1073761804
 1718              		.cfi_endproc
 1719              	.LFE20:
 1720              		.size	ADC_SelectConfiguration, .-ADC_SelectConfiguration
 1721              		.section	.text.ADC_Read8,"ax",%progbits
 1722              		.align	2
 1723              		.global	ADC_Read8
 1724              		.thumb
 1725              		.thumb_func
 1726              		.type	ADC_Read8, %function
 1727              	ADC_Read8:
 1728              	.LFB23:
1741:.\Generated_Source\PSoC5/ADC.c **** }
1742:.\Generated_Source\PSoC5/ADC.c **** 
1743:.\Generated_Source\PSoC5/ADC.c **** 
1744:.\Generated_Source\PSoC5/ADC.c **** /*******************************************************************************
1745:.\Generated_Source\PSoC5/ADC.c **** * Function Name: ADC_Read8
1746:.\Generated_Source\PSoC5/ADC.c **** ********************************************************************************
1747:.\Generated_Source\PSoC5/ADC.c **** *
1748:.\Generated_Source\PSoC5/ADC.c **** * Summary:
1749:.\Generated_Source\PSoC5/ADC.c **** *  This function simplifies getting results from the ADC when only a
1750:.\Generated_Source\PSoC5/ADC.c **** *  single reading is required. When called, it will start ADC
1751:.\Generated_Source\PSoC5/ADC.c **** *  conversions, wait for the conversion to be complete, stop ADC
1752:.\Generated_Source\PSoC5/ADC.c **** *  conversion and return the result. This is a blocking function and will
1753:.\Generated_Source\PSoC5/ADC.c **** *  not return until the result is ready.
ARM GAS  C:\Users\HENRYA~1\AppData\Local\Temp\ccEyCdcC.s 			page 66


1754:.\Generated_Source\PSoC5/ADC.c **** *
1755:.\Generated_Source\PSoC5/ADC.c **** * Parameters:
1756:.\Generated_Source\PSoC5/ADC.c **** *  None
1757:.\Generated_Source\PSoC5/ADC.c **** *
1758:.\Generated_Source\PSoC5/ADC.c **** * Return:
1759:.\Generated_Source\PSoC5/ADC.c **** *  int8:  ADC result.
1760:.\Generated_Source\PSoC5/ADC.c **** *
1761:.\Generated_Source\PSoC5/ADC.c **** *******************************************************************************/
1762:.\Generated_Source\PSoC5/ADC.c **** int8 ADC_Read8(void) 
1763:.\Generated_Source\PSoC5/ADC.c **** {
 1729              		.loc 1 1763 0
 1730              		.cfi_startproc
 1731              		@ args = 0, pretend = 0, frame = 0
 1732              		@ frame_needed = 0, uses_anonymous_args = 0
 1733 0000 10B5     		push	{r4, lr}
 1734              		.cfi_def_cfa_offset 8
 1735              		.cfi_offset 4, -8
 1736              		.cfi_offset 14, -4
1764:.\Generated_Source\PSoC5/ADC.c ****     int8 result;
1765:.\Generated_Source\PSoC5/ADC.c **** 
1766:.\Generated_Source\PSoC5/ADC.c ****     /* Clear pending conversion done status */
1767:.\Generated_Source\PSoC5/ADC.c ****     ADC_DEC_SR_REG |= ADC_DEC_INTR_CLEAR;
 1737              		.loc 1 1767 0
 1738 0002 084A     		ldr	r2, .L128
 1739 0004 1378     		ldrb	r3, [r2]	@ zero_extendqisi2
 1740 0006 43F00403 		orr	r3, r3, #4
 1741 000a 1370     		strb	r3, [r2]
1768:.\Generated_Source\PSoC5/ADC.c ****     ADC_StartConvert();
 1742              		.loc 1 1768 0
 1743 000c FFF7FEFF 		bl	ADC_StartConvert
 1744              	.LVL155:
1769:.\Generated_Source\PSoC5/ADC.c ****     (void)ADC_IsEndConversion(ADC_WAIT_FOR_RESULT);
 1745              		.loc 1 1769 0
 1746 0010 0020     		movs	r0, #0
 1747 0012 FFF7FEFF 		bl	ADC_IsEndConversion
 1748              	.LVL156:
1770:.\Generated_Source\PSoC5/ADC.c ****      result = ADC_GetResult8();
 1749              		.loc 1 1770 0
 1750 0016 FFF7FEFF 		bl	ADC_GetResult8
 1751              	.LVL157:
 1752 001a 0446     		mov	r4, r0
 1753              	.LVL158:
1771:.\Generated_Source\PSoC5/ADC.c ****     ADC_StopConvert();
 1754              		.loc 1 1771 0
 1755 001c FFF7FEFF 		bl	ADC_StopConvert
 1756              	.LVL159:
1772:.\Generated_Source\PSoC5/ADC.c ****     
1773:.\Generated_Source\PSoC5/ADC.c ****      return(result);
1774:.\Generated_Source\PSoC5/ADC.c **** }
 1757              		.loc 1 1774 0
 1758 0020 2046     		mov	r0, r4
 1759 0022 10BD     		pop	{r4, pc}
 1760              	.LVL160:
 1761              	.L129:
 1762              		.align	2
 1763              	.L128:
 1764 0024 014E0040 		.word	1073761793
ARM GAS  C:\Users\HENRYA~1\AppData\Local\Temp\ccEyCdcC.s 			page 67


 1765              		.cfi_endproc
 1766              	.LFE23:
 1767              		.size	ADC_Read8, .-ADC_Read8
 1768              		.section	.text.ADC_Read16,"ax",%progbits
 1769              		.align	2
 1770              		.global	ADC_Read16
 1771              		.thumb
 1772              		.thumb_func
 1773              		.type	ADC_Read16, %function
 1774              	ADC_Read16:
 1775              	.LFB24:
1775:.\Generated_Source\PSoC5/ADC.c **** 
1776:.\Generated_Source\PSoC5/ADC.c **** 
1777:.\Generated_Source\PSoC5/ADC.c **** /*******************************************************************************
1778:.\Generated_Source\PSoC5/ADC.c **** * Function Name: ADC_Read16
1779:.\Generated_Source\PSoC5/ADC.c **** ********************************************************************************
1780:.\Generated_Source\PSoC5/ADC.c **** *
1781:.\Generated_Source\PSoC5/ADC.c **** * Summary:
1782:.\Generated_Source\PSoC5/ADC.c **** *  This function simplifies getting results from the ADC when only a
1783:.\Generated_Source\PSoC5/ADC.c **** *  single reading is required. When called, it will start ADC
1784:.\Generated_Source\PSoC5/ADC.c **** *  conversions, wait for the conversion to be complete, stop ADC
1785:.\Generated_Source\PSoC5/ADC.c **** *  conversion and return the result. This is a blocking function and will
1786:.\Generated_Source\PSoC5/ADC.c **** *  not return until the result is ready.
1787:.\Generated_Source\PSoC5/ADC.c **** *
1788:.\Generated_Source\PSoC5/ADC.c **** * Parameters:
1789:.\Generated_Source\PSoC5/ADC.c **** *   void
1790:.\Generated_Source\PSoC5/ADC.c **** *
1791:.\Generated_Source\PSoC5/ADC.c **** * Return:
1792:.\Generated_Source\PSoC5/ADC.c **** *  int16:  ADC result.
1793:.\Generated_Source\PSoC5/ADC.c **** *
1794:.\Generated_Source\PSoC5/ADC.c **** *******************************************************************************/
1795:.\Generated_Source\PSoC5/ADC.c **** int16 ADC_Read16(void) 
1796:.\Generated_Source\PSoC5/ADC.c **** {
 1776              		.loc 1 1796 0
 1777              		.cfi_startproc
 1778              		@ args = 0, pretend = 0, frame = 0
 1779              		@ frame_needed = 0, uses_anonymous_args = 0
 1780 0000 10B5     		push	{r4, lr}
 1781              		.cfi_def_cfa_offset 8
 1782              		.cfi_offset 4, -8
 1783              		.cfi_offset 14, -4
1797:.\Generated_Source\PSoC5/ADC.c ****     int16 result;
1798:.\Generated_Source\PSoC5/ADC.c **** 
1799:.\Generated_Source\PSoC5/ADC.c ****     /* Clear pending conversion done status */
1800:.\Generated_Source\PSoC5/ADC.c ****     ADC_DEC_SR_REG |= ADC_DEC_INTR_CLEAR;
 1784              		.loc 1 1800 0
 1785 0002 084A     		ldr	r2, .L132
 1786 0004 1378     		ldrb	r3, [r2]	@ zero_extendqisi2
 1787 0006 43F00403 		orr	r3, r3, #4
 1788 000a 1370     		strb	r3, [r2]
1801:.\Generated_Source\PSoC5/ADC.c ****     ADC_StartConvert();
 1789              		.loc 1 1801 0
 1790 000c FFF7FEFF 		bl	ADC_StartConvert
 1791              	.LVL161:
1802:.\Generated_Source\PSoC5/ADC.c ****     (void)ADC_IsEndConversion(ADC_WAIT_FOR_RESULT);
 1792              		.loc 1 1802 0
 1793 0010 0020     		movs	r0, #0
ARM GAS  C:\Users\HENRYA~1\AppData\Local\Temp\ccEyCdcC.s 			page 68


 1794 0012 FFF7FEFF 		bl	ADC_IsEndConversion
 1795              	.LVL162:
1803:.\Generated_Source\PSoC5/ADC.c ****      result = ADC_GetResult16();
 1796              		.loc 1 1803 0
 1797 0016 FFF7FEFF 		bl	ADC_GetResult16
 1798              	.LVL163:
 1799 001a 0446     		mov	r4, r0
 1800              	.LVL164:
1804:.\Generated_Source\PSoC5/ADC.c ****     ADC_StopConvert();
 1801              		.loc 1 1804 0
 1802 001c FFF7FEFF 		bl	ADC_StopConvert
 1803              	.LVL165:
1805:.\Generated_Source\PSoC5/ADC.c ****     
1806:.\Generated_Source\PSoC5/ADC.c ****      return(result);
1807:.\Generated_Source\PSoC5/ADC.c **** }
 1804              		.loc 1 1807 0
 1805 0020 2046     		mov	r0, r4
 1806 0022 10BD     		pop	{r4, pc}
 1807              	.LVL166:
 1808              	.L133:
 1809              		.align	2
 1810              	.L132:
 1811 0024 014E0040 		.word	1073761793
 1812              		.cfi_endproc
 1813              	.LFE24:
 1814              		.size	ADC_Read16, .-ADC_Read16
 1815              		.section	.text.ADC_Read32,"ax",%progbits
 1816              		.align	2
 1817              		.global	ADC_Read32
 1818              		.thumb
 1819              		.thumb_func
 1820              		.type	ADC_Read32, %function
 1821              	ADC_Read32:
 1822              	.LFB25:
1808:.\Generated_Source\PSoC5/ADC.c **** 
1809:.\Generated_Source\PSoC5/ADC.c **** 
1810:.\Generated_Source\PSoC5/ADC.c **** /*******************************************************************************
1811:.\Generated_Source\PSoC5/ADC.c **** * Function Name: ADC_Read32
1812:.\Generated_Source\PSoC5/ADC.c **** ********************************************************************************
1813:.\Generated_Source\PSoC5/ADC.c **** *
1814:.\Generated_Source\PSoC5/ADC.c **** * Summary:
1815:.\Generated_Source\PSoC5/ADC.c **** *  This function simplifies getting results from the ADC when only a
1816:.\Generated_Source\PSoC5/ADC.c **** *  single reading is required. When called, it will start ADC
1817:.\Generated_Source\PSoC5/ADC.c **** *  conversions, wait for the conversion to be complete, stop ADC
1818:.\Generated_Source\PSoC5/ADC.c **** *  conversion and return the result. This is a blocking function and will
1819:.\Generated_Source\PSoC5/ADC.c **** *  not return until the result is ready.
1820:.\Generated_Source\PSoC5/ADC.c **** *
1821:.\Generated_Source\PSoC5/ADC.c **** * Parameters:
1822:.\Generated_Source\PSoC5/ADC.c **** *  None
1823:.\Generated_Source\PSoC5/ADC.c **** *
1824:.\Generated_Source\PSoC5/ADC.c **** * Return:
1825:.\Generated_Source\PSoC5/ADC.c **** *  int32: ADC result.
1826:.\Generated_Source\PSoC5/ADC.c **** *
1827:.\Generated_Source\PSoC5/ADC.c **** *******************************************************************************/
1828:.\Generated_Source\PSoC5/ADC.c **** int32 ADC_Read32(void) 
1829:.\Generated_Source\PSoC5/ADC.c **** {
 1823              		.loc 1 1829 0
ARM GAS  C:\Users\HENRYA~1\AppData\Local\Temp\ccEyCdcC.s 			page 69


 1824              		.cfi_startproc
 1825              		@ args = 0, pretend = 0, frame = 0
 1826              		@ frame_needed = 0, uses_anonymous_args = 0
 1827 0000 10B5     		push	{r4, lr}
 1828              		.cfi_def_cfa_offset 8
 1829              		.cfi_offset 4, -8
 1830              		.cfi_offset 14, -4
1830:.\Generated_Source\PSoC5/ADC.c ****     int32 result;
1831:.\Generated_Source\PSoC5/ADC.c ****     
1832:.\Generated_Source\PSoC5/ADC.c ****     /* Clear pending conversion done status */
1833:.\Generated_Source\PSoC5/ADC.c ****     ADC_DEC_SR_REG |= ADC_DEC_INTR_CLEAR;
 1831              		.loc 1 1833 0
 1832 0002 084A     		ldr	r2, .L136
 1833 0004 1378     		ldrb	r3, [r2]	@ zero_extendqisi2
 1834 0006 43F00403 		orr	r3, r3, #4
 1835 000a 1370     		strb	r3, [r2]
1834:.\Generated_Source\PSoC5/ADC.c ****     ADC_StartConvert();
 1836              		.loc 1 1834 0
 1837 000c FFF7FEFF 		bl	ADC_StartConvert
 1838              	.LVL167:
1835:.\Generated_Source\PSoC5/ADC.c ****     (void)ADC_IsEndConversion(ADC_WAIT_FOR_RESULT);
 1839              		.loc 1 1835 0
 1840 0010 0020     		movs	r0, #0
 1841 0012 FFF7FEFF 		bl	ADC_IsEndConversion
 1842              	.LVL168:
1836:.\Generated_Source\PSoC5/ADC.c ****      result = ADC_GetResult32();
 1843              		.loc 1 1836 0
 1844 0016 FFF7FEFF 		bl	ADC_GetResult32
 1845              	.LVL169:
 1846 001a 0446     		mov	r4, r0
 1847              	.LVL170:
1837:.\Generated_Source\PSoC5/ADC.c ****     ADC_StopConvert();
 1848              		.loc 1 1837 0
 1849 001c FFF7FEFF 		bl	ADC_StopConvert
 1850              	.LVL171:
1838:.\Generated_Source\PSoC5/ADC.c ****     
1839:.\Generated_Source\PSoC5/ADC.c ****      return(result);
1840:.\Generated_Source\PSoC5/ADC.c **** }
 1851              		.loc 1 1840 0
 1852 0020 2046     		mov	r0, r4
 1853 0022 10BD     		pop	{r4, pc}
 1854              	.LVL172:
 1855              	.L137:
 1856              		.align	2
 1857              	.L136:
 1858 0024 014E0040 		.word	1073761793
 1859              		.cfi_endproc
 1860              	.LFE25:
 1861              		.size	ADC_Read32, .-ADC_Read32
 1862              		.comm	ADC_CountsPerVolt,4,4
 1863              		.comm	ADC_Offset,4,4
 1864              		.global	ADC_Config
 1865              		.global	ADC_started
 1866              		.global	ADC_initVar
 1867              		.global	ADC_stopConversion
 1868              		.global	ADC_convDone
 1869              		.data
ARM GAS  C:\Users\HENRYA~1\AppData\Local\Temp\ccEyCdcC.s 			page 70


 1870              		.set	.LANCHOR1,. + 0
 1871              		.type	ADC_Config, %object
 1872              		.size	ADC_Config, 1
 1873              	ADC_Config:
 1874 0000 01       		.byte	1
 1875              		.bss
 1876              		.align	2
 1877              		.set	.LANCHOR0,. + 0
 1878              		.type	ADC_gcor, %object
 1879              		.size	ADC_gcor, 4
 1880              	ADC_gcor:
 1881 0000 00000000 		.space	4
 1882              		.type	ADC_stopConversion, %object
 1883              		.size	ADC_stopConversion, 1
 1884              	ADC_stopConversion:
 1885 0004 00       		.space	1
 1886              		.type	ADC_convDone, %object
 1887              		.size	ADC_convDone, 1
 1888              	ADC_convDone:
 1889 0005 00       		.space	1
 1890              		.type	ADC_initVar, %object
 1891              		.size	ADC_initVar, 1
 1892              	ADC_initVar:
 1893 0006 00       		.space	1
 1894              		.type	ADC_started, %object
 1895              		.size	ADC_started, 1
 1896              	ADC_started:
 1897 0007 00       		.space	1
 1898              		.text
 1899              	.Letext0:
 1900              		.file 2 ".\\Generated_Source\\PSoC5\\cytypes.h"
 1901              		.file 3 ".\\Generated_Source\\PSoC5\\ADC.h"
 1902              		.file 4 ".\\Generated_Source\\PSoC5\\CyLib.h"
 1903              		.file 5 ".\\Generated_Source\\PSoC5\\ADC_AMux.h"
 1904              		.file 6 ".\\Generated_Source\\PSoC5\\ADC_Ext_CP_Clk.h"
 1905              		.file 7 ".\\Generated_Source\\PSoC5\\ADC_theACLK.h"
 1906              		.section	.debug_info,"",%progbits
 1907              	.Ldebug_info0:
 1908 0000 730A0000 		.4byte	0xa73
 1909 0004 0400     		.2byte	0x4
 1910 0006 00000000 		.4byte	.Ldebug_abbrev0
 1911 000a 04       		.byte	0x4
 1912 000b 01       		.uleb128 0x1
 1913 000c A0040000 		.4byte	.LASF98
 1914 0010 01       		.byte	0x1
 1915 0011 F1000000 		.4byte	.LASF99
 1916 0015 3B050000 		.4byte	.LASF100
 1917 0019 00000000 		.4byte	.Ldebug_ranges0+0
 1918 001d 00000000 		.4byte	0
 1919 0021 00000000 		.4byte	.Ldebug_line0
 1920 0025 02       		.uleb128 0x2
 1921 0026 04       		.byte	0x4
 1922 0027 04       		.byte	0x4
 1923 0028 1E030000 		.4byte	.LASF0
 1924 002c 02       		.uleb128 0x2
 1925 002d 01       		.byte	0x1
 1926 002e 06       		.byte	0x6
ARM GAS  C:\Users\HENRYA~1\AppData\Local\Temp\ccEyCdcC.s 			page 71


 1927 002f CC000000 		.4byte	.LASF1
 1928 0033 02       		.uleb128 0x2
 1929 0034 01       		.byte	0x1
 1930 0035 08       		.byte	0x8
 1931 0036 5C030000 		.4byte	.LASF2
 1932 003a 02       		.uleb128 0x2
 1933 003b 02       		.byte	0x2
 1934 003c 05       		.byte	0x5
 1935 003d 82030000 		.4byte	.LASF3
 1936 0041 02       		.uleb128 0x2
 1937 0042 02       		.byte	0x2
 1938 0043 07       		.byte	0x7
 1939 0044 2B020000 		.4byte	.LASF4
 1940 0048 02       		.uleb128 0x2
 1941 0049 04       		.byte	0x4
 1942 004a 05       		.byte	0x5
 1943 004b 2D010000 		.4byte	.LASF5
 1944 004f 02       		.uleb128 0x2
 1945 0050 04       		.byte	0x4
 1946 0051 07       		.byte	0x7
 1947 0052 F2010000 		.4byte	.LASF6
 1948 0056 02       		.uleb128 0x2
 1949 0057 08       		.byte	0x8
 1950 0058 05       		.byte	0x5
 1951 0059 BE000000 		.4byte	.LASF7
 1952 005d 02       		.uleb128 0x2
 1953 005e 08       		.byte	0x8
 1954 005f 07       		.byte	0x7
 1955 0060 7B000000 		.4byte	.LASF8
 1956 0064 03       		.uleb128 0x3
 1957 0065 04       		.byte	0x4
 1958 0066 05       		.byte	0x5
 1959 0067 696E7400 		.ascii	"int\000"
 1960 006b 02       		.uleb128 0x2
 1961 006c 04       		.byte	0x4
 1962 006d 07       		.byte	0x7
 1963 006e DE010000 		.4byte	.LASF9
 1964 0072 04       		.uleb128 0x4
 1965 0073 50010000 		.4byte	.LASF10
 1966 0077 02       		.byte	0x2
 1967 0078 9201     		.2byte	0x192
 1968 007a 33000000 		.4byte	0x33
 1969 007e 04       		.uleb128 0x4
 1970 007f 00000000 		.4byte	.LASF11
 1971 0083 02       		.byte	0x2
 1972 0084 9301     		.2byte	0x193
 1973 0086 41000000 		.4byte	0x41
 1974 008a 04       		.uleb128 0x4
 1975 008b 7D010000 		.4byte	.LASF12
 1976 008f 02       		.byte	0x2
 1977 0090 9401     		.2byte	0x194
 1978 0092 4F000000 		.4byte	0x4f
 1979 0096 04       		.uleb128 0x4
 1980 0097 3E020000 		.4byte	.LASF13
 1981 009b 02       		.byte	0x2
 1982 009c 9501     		.2byte	0x195
 1983 009e 2C000000 		.4byte	0x2c
ARM GAS  C:\Users\HENRYA~1\AppData\Local\Temp\ccEyCdcC.s 			page 72


 1984 00a2 04       		.uleb128 0x4
 1985 00a3 8E050000 		.4byte	.LASF14
 1986 00a7 02       		.byte	0x2
 1987 00a8 9601     		.2byte	0x196
 1988 00aa 3A000000 		.4byte	0x3a
 1989 00ae 04       		.uleb128 0x4
 1990 00af 10010000 		.4byte	.LASF15
 1991 00b3 02       		.byte	0x2
 1992 00b4 9701     		.2byte	0x197
 1993 00b6 48000000 		.4byte	0x48
 1994 00ba 04       		.uleb128 0x4
 1995 00bb 7E020000 		.4byte	.LASF16
 1996 00bf 02       		.byte	0x2
 1997 00c0 9801     		.2byte	0x198
 1998 00c2 25000000 		.4byte	0x25
 1999 00c6 02       		.uleb128 0x2
 2000 00c7 08       		.byte	0x8
 2001 00c8 04       		.byte	0x4
 2002 00c9 60010000 		.4byte	.LASF17
 2003 00cd 02       		.uleb128 0x2
 2004 00ce 01       		.byte	0x1
 2005 00cf 08       		.byte	0x8
 2006 00d0 17040000 		.4byte	.LASF18
 2007 00d4 04       		.uleb128 0x4
 2008 00d5 38030000 		.4byte	.LASF19
 2009 00d9 02       		.byte	0x2
 2010 00da 3C02     		.2byte	0x23c
 2011 00dc E0000000 		.4byte	0xe0
 2012 00e0 05       		.uleb128 0x5
 2013 00e1 72000000 		.4byte	0x72
 2014 00e5 04       		.uleb128 0x4
 2015 00e6 4A010000 		.4byte	.LASF20
 2016 00ea 02       		.byte	0x2
 2017 00eb 3D02     		.2byte	0x23d
 2018 00ed F1000000 		.4byte	0xf1
 2019 00f1 05       		.uleb128 0x5
 2020 00f2 7E000000 		.4byte	0x7e
 2021 00f6 04       		.uleb128 0x4
 2022 00f7 78020000 		.4byte	.LASF21
 2023 00fb 02       		.byte	0x2
 2024 00fc 3E02     		.2byte	0x23e
 2025 00fe 02010000 		.4byte	0x102
 2026 0102 05       		.uleb128 0x5
 2027 0103 8A000000 		.4byte	0x8a
 2028 0107 04       		.uleb128 0x4
 2029 0108 23040000 		.4byte	.LASF22
 2030 010c 02       		.byte	0x2
 2031 010d 4E02     		.2byte	0x24e
 2032 010f 13010000 		.4byte	0x113
 2033 0113 06       		.uleb128 0x6
 2034 0114 04       		.byte	0x4
 2035 0115 19010000 		.4byte	0x119
 2036 0119 07       		.uleb128 0x7
 2037 011a 02       		.uleb128 0x2
 2038 011b 04       		.byte	0x4
 2039 011c 07       		.byte	0x7
 2040 011d 86020000 		.4byte	.LASF23
ARM GAS  C:\Users\HENRYA~1\AppData\Local\Temp\ccEyCdcC.s 			page 73


 2041 0121 08       		.uleb128 0x8
 2042 0122 04       		.byte	0x4
 2043 0123 03       		.byte	0x3
 2044 0124 2F       		.byte	0x2f
 2045 0125 42010000 		.4byte	0x142
 2046 0129 09       		.uleb128 0x9
 2047 012a 6D000000 		.4byte	.LASF24
 2048 012e 03       		.byte	0x3
 2049 012f 31       		.byte	0x31
 2050 0130 7E000000 		.4byte	0x7e
 2051 0134 00       		.byte	0
 2052 0135 09       		.uleb128 0x9
 2053 0136 37040000 		.4byte	.LASF25
 2054 013a 03       		.byte	0x3
 2055 013b 32       		.byte	0x32
 2056 013c 72000000 		.4byte	0x72
 2057 0140 02       		.byte	0x2
 2058 0141 00       		.byte	0
 2059 0142 0A       		.uleb128 0xa
 2060 0143 1B020000 		.4byte	.LASF26
 2061 0147 03       		.byte	0x3
 2062 0148 33       		.byte	0x33
 2063 0149 21010000 		.4byte	0x121
 2064 014d 0B       		.uleb128 0xb
 2065 014e 5D020000 		.4byte	.LASF36
 2066 0152 01       		.byte	0x1
 2067 0153 5106     		.2byte	0x651
 2068 0155 00000000 		.4byte	.LFB21
 2069 0159 CC000000 		.4byte	.LFE21-.LFB21
 2070 015d 01       		.uleb128 0x1
 2071 015e 9C       		.byte	0x9c
 2072 015f 03020000 		.4byte	0x203
 2073 0163 0C       		.uleb128 0xc
 2074 0164 25000000 		.4byte	.LASF27
 2075 0168 01       		.byte	0x1
 2076 0169 5106     		.2byte	0x651
 2077 016b 72000000 		.4byte	0x72
 2078 016f 00000000 		.4byte	.LLST0
 2079 0173 0C       		.uleb128 0xc
 2080 0174 3D030000 		.4byte	.LASF28
 2081 0178 01       		.byte	0x1
 2082 0179 5106     		.2byte	0x651
 2083 017b 7E000000 		.4byte	0x7e
 2084 017f 3A000000 		.4byte	.LLST1
 2085 0183 0C       		.uleb128 0xc
 2086 0184 AE000000 		.4byte	.LASF29
 2087 0188 01       		.byte	0x1
 2088 0189 5106     		.2byte	0x651
 2089 018b 7E000000 		.4byte	0x7e
 2090 018f 74000000 		.4byte	.LLST2
 2091 0193 0C       		.uleb128 0xc
 2092 0194 D3030000 		.4byte	.LASF30
 2093 0198 01       		.byte	0x1
 2094 0199 5206     		.2byte	0x652
 2095 019b 72000000 		.4byte	0x72
 2096 019f AE000000 		.4byte	.LLST3
 2097 01a3 0C       		.uleb128 0xc
ARM GAS  C:\Users\HENRYA~1\AppData\Local\Temp\ccEyCdcC.s 			page 74


 2098 01a4 30040000 		.4byte	.LASF31
 2099 01a8 01       		.byte	0x1
 2100 01a9 5206     		.2byte	0x652
 2101 01ab 72000000 		.4byte	0x72
 2102 01af 01010000 		.4byte	.LLST4
 2103 01b3 0D       		.uleb128 0xd
 2104 01b4 72020000 		.4byte	.LASF32
 2105 01b8 01       		.byte	0x1
 2106 01b9 5406     		.2byte	0x654
 2107 01bb 96000000 		.4byte	0x96
 2108 01bf 2D010000 		.4byte	.LLST5
 2109 01c3 0D       		.uleb128 0xd
 2110 01c4 4A030000 		.4byte	.LASF33
 2111 01c8 01       		.byte	0x1
 2112 01c9 5506     		.2byte	0x655
 2113 01cb AE000000 		.4byte	0xae
 2114 01cf 98010000 		.4byte	.LLST6
 2115 01d3 0D       		.uleb128 0xd
 2116 01d4 53020000 		.4byte	.LASF34
 2117 01d8 01       		.byte	0x1
 2118 01d9 5606     		.2byte	0x656
 2119 01db 7E000000 		.4byte	0x7e
 2120 01df AB010000 		.4byte	.LLST7
 2121 01e3 0D       		.uleb128 0xd
 2122 01e4 95030000 		.4byte	.LASF35
 2123 01e8 01       		.byte	0x1
 2124 01e9 5706     		.2byte	0x657
 2125 01eb 8A000000 		.4byte	0x8a
 2126 01ef D4010000 		.4byte	.LLST8
 2127 01f3 0E       		.uleb128 0xe
 2128 01f4 A6000000 		.4byte	.LVL31
 2129 01f8 AD090000 		.4byte	0x9ad
 2130 01fc 0F       		.uleb128 0xf
 2131 01fd 01       		.uleb128 0x1
 2132 01fe 50       		.byte	0x50
 2133 01ff 01       		.uleb128 0x1
 2134 0200 30       		.byte	0x30
 2135 0201 00       		.byte	0
 2136 0202 00       		.byte	0
 2137 0203 0B       		.uleb128 0xb
 2138 0204 9F010000 		.4byte	.LASF37
 2139 0208 01       		.byte	0x1
 2140 0209 BC06     		.2byte	0x6bc
 2141 020b 00000000 		.4byte	.LFB22
 2142 020f 4C000000 		.4byte	.LFE22-.LFB22
 2143 0213 01       		.uleb128 0x1
 2144 0214 9C       		.byte	0x9c
 2145 0215 66020000 		.4byte	0x266
 2146 0219 0C       		.uleb128 0xc
 2147 021a B1010000 		.4byte	.LASF38
 2148 021e 01       		.byte	0x1
 2149 021f BC06     		.2byte	0x6bc
 2150 0221 72000000 		.4byte	0x72
 2151 0225 E7010000 		.4byte	.LLST9
 2152 0229 0D       		.uleb128 0xd
 2153 022a 84040000 		.4byte	.LASF39
 2154 022e 01       		.byte	0x1
ARM GAS  C:\Users\HENRYA~1\AppData\Local\Temp\ccEyCdcC.s 			page 75


 2155 022f BE06     		.2byte	0x6be
 2156 0231 72000000 		.4byte	0x72
 2157 0235 08020000 		.4byte	.LLST10
 2158 0239 10       		.uleb128 0x10
 2159 023a 08000000 		.4byte	.LVL34
 2160 023e BE090000 		.4byte	0x9be
 2161 0242 11       		.uleb128 0x11
 2162 0243 28000000 		.4byte	.LVL36
 2163 0247 C9090000 		.4byte	0x9c9
 2164 024b 55020000 		.4byte	0x255
 2165 024f 0F       		.uleb128 0xf
 2166 0250 01       		.uleb128 0x1
 2167 0251 50       		.byte	0x50
 2168 0252 01       		.uleb128 0x1
 2169 0253 33       		.byte	0x33
 2170 0254 00       		.byte	0
 2171 0255 0E       		.uleb128 0xe
 2172 0256 3E000000 		.4byte	.LVL37
 2173 025a DA090000 		.4byte	0x9da
 2174 025e 0F       		.uleb128 0xf
 2175 025f 01       		.uleb128 0x1
 2176 0260 50       		.byte	0x50
 2177 0261 02       		.uleb128 0x2
 2178 0262 76       		.byte	0x76
 2179 0263 00       		.sleb128 0
 2180 0264 00       		.byte	0
 2181 0265 00       		.byte	0
 2182 0266 0B       		.uleb128 0xb
 2183 0267 B8020000 		.4byte	.LASF40
 2184 026b 01       		.byte	0x1
 2185 026c DA04     		.2byte	0x4da
 2186 026e 00000000 		.4byte	.LFB19
 2187 0272 E8000000 		.4byte	.LFE19-.LFB19
 2188 0276 01       		.uleb128 0x1
 2189 0277 9C       		.byte	0x9c
 2190 0278 F7020000 		.4byte	0x2f7
 2191 027c 0C       		.uleb128 0xc
 2192 027d 30040000 		.4byte	.LASF31
 2193 0281 01       		.byte	0x1
 2194 0282 DA04     		.2byte	0x4da
 2195 0284 72000000 		.4byte	0x72
 2196 0288 1B020000 		.4byte	.LLST11
 2197 028c 11       		.uleb128 0x11
 2198 028d 8C000000 		.4byte	.LVL41
 2199 0291 03020000 		.4byte	0x203
 2200 0295 A0020000 		.4byte	0x2a0
 2201 0299 0F       		.uleb128 0xf
 2202 029a 01       		.uleb128 0x1
 2203 029b 50       		.byte	0x50
 2204 029c 02       		.uleb128 0x2
 2205 029d 08       		.byte	0x8
 2206 029e 52       		.byte	0x52
 2207 029f 00       		.byte	0
 2208 02a0 11       		.uleb128 0x11
 2209 02a1 AE000000 		.4byte	.LVL42
 2210 02a5 EB090000 		.4byte	0x9eb
 2211 02a9 B4020000 		.4byte	0x2b4
ARM GAS  C:\Users\HENRYA~1\AppData\Local\Temp\ccEyCdcC.s 			page 76


 2212 02ad 0F       		.uleb128 0xf
 2213 02ae 01       		.uleb128 0x1
 2214 02af 50       		.byte	0x50
 2215 02b0 02       		.uleb128 0x2
 2216 02b1 74       		.byte	0x74
 2217 02b2 00       		.sleb128 0
 2218 02b3 00       		.byte	0
 2219 02b4 11       		.uleb128 0x11
 2220 02b5 BC000000 		.4byte	.LVL43
 2221 02b9 FC090000 		.4byte	0x9fc
 2222 02bd CE020000 		.4byte	0x2ce
 2223 02c1 0F       		.uleb128 0xf
 2224 02c2 01       		.uleb128 0x1
 2225 02c3 51       		.byte	0x51
 2226 02c4 02       		.uleb128 0x2
 2227 02c5 75       		.byte	0x75
 2228 02c6 00       		.sleb128 0
 2229 02c7 0F       		.uleb128 0xf
 2230 02c8 01       		.uleb128 0x1
 2231 02c9 50       		.byte	0x50
 2232 02ca 02       		.uleb128 0x2
 2233 02cb 76       		.byte	0x76
 2234 02cc 00       		.sleb128 0
 2235 02cd 00       		.byte	0
 2236 02ce 11       		.uleb128 0x11
 2237 02cf C4000000 		.4byte	.LVL44
 2238 02d3 120A0000 		.4byte	0xa12
 2239 02d7 E7020000 		.4byte	0x2e7
 2240 02db 0F       		.uleb128 0xf
 2241 02dc 01       		.uleb128 0x1
 2242 02dd 51       		.byte	0x51
 2243 02de 02       		.uleb128 0x2
 2244 02df 75       		.byte	0x75
 2245 02e0 00       		.sleb128 0
 2246 02e1 0F       		.uleb128 0xf
 2247 02e2 01       		.uleb128 0x1
 2248 02e3 50       		.byte	0x50
 2249 02e4 01       		.uleb128 0x1
 2250 02e5 4C       		.byte	0x4c
 2251 02e6 00       		.byte	0
 2252 02e7 0E       		.uleb128 0xe
 2253 02e8 CC000000 		.4byte	.LVL45
 2254 02ec 280A0000 		.4byte	0xa28
 2255 02f0 0F       		.uleb128 0xf
 2256 02f1 01       		.uleb128 0x1
 2257 02f2 50       		.byte	0x50
 2258 02f3 01       		.uleb128 0x1
 2259 02f4 4D       		.byte	0x4d
 2260 02f5 00       		.byte	0
 2261 02f6 00       		.byte	0
 2262 02f7 12       		.uleb128 0x12
 2263 02f8 72000000 		.4byte	.LASF41
 2264 02fc 01       		.byte	0x1
 2265 02fd 5B       		.byte	0x5b
 2266 02fe 00000000 		.4byte	.LFB0
 2267 0302 C4000000 		.4byte	.LFE0-.LFB0
 2268 0306 01       		.uleb128 0x1
ARM GAS  C:\Users\HENRYA~1\AppData\Local\Temp\ccEyCdcC.s 			page 77


 2269 0307 9C       		.byte	0x9c
 2270 0308 81030000 		.4byte	0x381
 2271 030c 11       		.uleb128 0x11
 2272 030d 16000000 		.4byte	.LVL47
 2273 0311 420A0000 		.4byte	0xa42
 2274 0315 1F030000 		.4byte	0x31f
 2275 0319 0F       		.uleb128 0xf
 2276 031a 01       		.uleb128 0x1
 2277 031b 50       		.byte	0x50
 2278 031c 01       		.uleb128 0x1
 2279 031d 40       		.byte	0x40
 2280 031e 00       		.byte	0
 2281 031f 11       		.uleb128 0x11
 2282 0320 1C000000 		.4byte	.LVL48
 2283 0324 530A0000 		.4byte	0xa53
 2284 0328 32030000 		.4byte	0x332
 2285 032c 0F       		.uleb128 0xf
 2286 032d 01       		.uleb128 0x1
 2287 032e 50       		.byte	0x50
 2288 032f 01       		.uleb128 0x1
 2289 0330 40       		.byte	0x40
 2290 0331 00       		.byte	0
 2291 0332 11       		.uleb128 0x11
 2292 0333 24000000 		.4byte	.LVL49
 2293 0337 640A0000 		.4byte	0xa64
 2294 033b 4A030000 		.4byte	0x34a
 2295 033f 0F       		.uleb128 0xf
 2296 0340 01       		.uleb128 0x1
 2297 0341 51       		.byte	0x51
 2298 0342 01       		.uleb128 0x1
 2299 0343 37       		.byte	0x37
 2300 0344 0F       		.uleb128 0xf
 2301 0345 01       		.uleb128 0x1
 2302 0346 50       		.byte	0x50
 2303 0347 01       		.uleb128 0x1
 2304 0348 4D       		.byte	0x4d
 2305 0349 00       		.byte	0
 2306 034a 11       		.uleb128 0x11
 2307 034b 84000000 		.4byte	.LVL50
 2308 034f 4D010000 		.4byte	0x14d
 2309 0353 77030000 		.4byte	0x377
 2310 0357 0F       		.uleb128 0xf
 2311 0358 01       		.uleb128 0x1
 2312 0359 53       		.byte	0x53
 2313 035a 01       		.uleb128 0x1
 2314 035b 38       		.byte	0x38
 2315 035c 0F       		.uleb128 0xf
 2316 035d 01       		.uleb128 0x1
 2317 035e 52       		.byte	0x52
 2318 035f 03       		.uleb128 0x3
 2319 0360 0B       		.byte	0xb
 2320 0361 0080     		.2byte	0x8000
 2321 0363 0F       		.uleb128 0xf
 2322 0364 01       		.uleb128 0x1
 2323 0365 51       		.byte	0x51
 2324 0366 03       		.uleb128 0x3
 2325 0367 0B       		.byte	0xb
ARM GAS  C:\Users\HENRYA~1\AppData\Local\Temp\ccEyCdcC.s 			page 78


 2326 0368 6B8D     		.2byte	0x8d6b
 2327 036a 0F       		.uleb128 0xf
 2328 036b 01       		.uleb128 0x1
 2329 036c 50       		.byte	0x50
 2330 036d 01       		.uleb128 0x1
 2331 036e 32       		.byte	0x32
 2332 036f 0F       		.uleb128 0xf
 2333 0370 02       		.uleb128 0x2
 2334 0371 7D       		.byte	0x7d
 2335 0372 00       		.sleb128 0
 2336 0373 02       		.uleb128 0x2
 2337 0374 77       		.byte	0x77
 2338 0375 00       		.sleb128 0
 2339 0376 00       		.byte	0
 2340 0377 10       		.uleb128 0x10
 2341 0378 A4000000 		.4byte	.LVL51
 2342 037c 66020000 		.4byte	0x266
 2343 0380 00       		.byte	0
 2344 0381 12       		.uleb128 0x12
 2345 0382 95040000 		.4byte	.LASF42
 2346 0386 01       		.byte	0x1
 2347 0387 B8       		.byte	0xb8
 2348 0388 00000000 		.4byte	.LFB1
 2349 038c D8000000 		.4byte	.LFE1-.LFB1
 2350 0390 01       		.uleb128 0x1
 2351 0391 9C       		.byte	0x9c
 2352 0392 DD030000 		.4byte	0x3dd
 2353 0396 13       		.uleb128 0x13
 2354 0397 30040000 		.4byte	.LASF31
 2355 039b 01       		.byte	0x1
 2356 039c BA       		.byte	0xba
 2357 039d 72000000 		.4byte	0x72
 2358 03a1 14       		.uleb128 0x14
 2359 03a2 84040000 		.4byte	.LASF39
 2360 03a6 01       		.byte	0x1
 2361 03a7 BB       		.byte	0xbb
 2362 03a8 72000000 		.4byte	0x72
 2363 03ac 47020000 		.4byte	.LLST12
 2364 03b0 10       		.uleb128 0x10
 2365 03b1 06000000 		.4byte	.LVL52
 2366 03b5 BE090000 		.4byte	0x9be
 2367 03b9 11       		.uleb128 0x11
 2368 03ba 54000000 		.4byte	.LVL55
 2369 03be C9090000 		.4byte	0x9c9
 2370 03c2 CC030000 		.4byte	0x3cc
 2371 03c6 0F       		.uleb128 0xf
 2372 03c7 01       		.uleb128 0x1
 2373 03c8 50       		.byte	0x50
 2374 03c9 01       		.uleb128 0x1
 2375 03ca 33       		.byte	0x33
 2376 03cb 00       		.byte	0
 2377 03cc 0E       		.uleb128 0xe
 2378 03cd B0000000 		.4byte	.LVL56
 2379 03d1 DA090000 		.4byte	0x9da
 2380 03d5 0F       		.uleb128 0xf
 2381 03d6 01       		.uleb128 0x1
 2382 03d7 50       		.byte	0x50
ARM GAS  C:\Users\HENRYA~1\AppData\Local\Temp\ccEyCdcC.s 			page 79


 2383 03d8 02       		.uleb128 0x2
 2384 03d9 76       		.byte	0x76
 2385 03da 00       		.sleb128 0
 2386 03db 00       		.byte	0
 2387 03dc 00       		.byte	0
 2388 03dd 15       		.uleb128 0x15
 2389 03de 16010000 		.4byte	.LASF43
 2390 03e2 01       		.byte	0x1
 2391 03e3 4901     		.2byte	0x149
 2392 03e5 00000000 		.4byte	.LFB2
 2393 03e9 28000000 		.4byte	.LFE2-.LFB2
 2394 03ed 01       		.uleb128 0x1
 2395 03ee 9C       		.byte	0x9c
 2396 03ef 06040000 		.4byte	0x406
 2397 03f3 10       		.uleb128 0x10
 2398 03f4 16000000 		.4byte	.LVL58
 2399 03f8 F7020000 		.4byte	0x2f7
 2400 03fc 10       		.uleb128 0x10
 2401 03fd 20000000 		.4byte	.LVL59
 2402 0401 81030000 		.4byte	0x381
 2403 0405 00       		.byte	0
 2404 0406 15       		.uleb128 0x15
 2405 0407 8C030000 		.4byte	.LASF44
 2406 040b 01       		.byte	0x1
 2407 040c 6A01     		.2byte	0x16a
 2408 040e 00000000 		.4byte	.LFB3
 2409 0412 E4000000 		.4byte	.LFE3-.LFB3
 2410 0416 01       		.uleb128 0x1
 2411 0417 9C       		.byte	0x9c
 2412 0418 59040000 		.4byte	0x459
 2413 041c 0D       		.uleb128 0xd
 2414 041d 84040000 		.4byte	.LASF39
 2415 0421 01       		.byte	0x1
 2416 0422 6C01     		.2byte	0x16c
 2417 0424 72000000 		.4byte	0x72
 2418 0428 5A020000 		.4byte	.LLST13
 2419 042c 10       		.uleb128 0x10
 2420 042d 06000000 		.4byte	.LVL60
 2421 0431 BE090000 		.4byte	0x9be
 2422 0435 11       		.uleb128 0x11
 2423 0436 4C000000 		.4byte	.LVL62
 2424 043a C9090000 		.4byte	0x9c9
 2425 043e 48040000 		.4byte	0x448
 2426 0442 0F       		.uleb128 0xf
 2427 0443 01       		.uleb128 0x1
 2428 0444 50       		.byte	0x50
 2429 0445 01       		.uleb128 0x1
 2430 0446 33       		.byte	0x33
 2431 0447 00       		.byte	0
 2432 0448 0E       		.uleb128 0xe
 2433 0449 CC000000 		.4byte	.LVL63
 2434 044d DA090000 		.4byte	0x9da
 2435 0451 0F       		.uleb128 0xf
 2436 0452 01       		.uleb128 0x1
 2437 0453 50       		.byte	0x50
 2438 0454 02       		.uleb128 0x2
 2439 0455 76       		.byte	0x76
ARM GAS  C:\Users\HENRYA~1\AppData\Local\Temp\ccEyCdcC.s 			page 80


 2440 0456 00       		.sleb128 0
 2441 0457 00       		.byte	0
 2442 0458 00       		.byte	0
 2443 0459 15       		.uleb128 0x15
 2444 045a DF000000 		.4byte	.LASF45
 2445 045e 01       		.byte	0x1
 2446 045f AD01     		.2byte	0x1ad
 2447 0461 00000000 		.4byte	.LFB4
 2448 0465 18000000 		.4byte	.LFE4-.LFB4
 2449 0469 01       		.uleb128 0x1
 2450 046a 9C       		.byte	0x9c
 2451 046b 90040000 		.4byte	0x490
 2452 046f 0C       		.uleb128 0xc
 2453 0470 0D030000 		.4byte	.LASF46
 2454 0474 01       		.byte	0x1
 2455 0475 AD01     		.2byte	0x1ad
 2456 0477 72000000 		.4byte	0x72
 2457 047b 6D020000 		.4byte	.LLST14
 2458 047f 0D       		.uleb128 0xd
 2459 0480 B4050000 		.4byte	.LASF47
 2460 0484 01       		.byte	0x1
 2461 0485 AF01     		.2byte	0x1af
 2462 0487 72000000 		.4byte	0x72
 2463 048b 8E020000 		.4byte	.LLST15
 2464 048f 00       		.byte	0
 2465 0490 15       		.uleb128 0x15
 2466 0491 54040000 		.4byte	.LASF48
 2467 0495 01       		.byte	0x1
 2468 0496 D101     		.2byte	0x1d1
 2469 0498 00000000 		.4byte	.LFB5
 2470 049c 18000000 		.4byte	.LFE5-.LFB5
 2471 04a0 01       		.uleb128 0x1
 2472 04a1 9C       		.byte	0x9c
 2473 04a2 C7040000 		.4byte	0x4c7
 2474 04a6 0C       		.uleb128 0xc
 2475 04a7 F2020000 		.4byte	.LASF49
 2476 04ab 01       		.byte	0x1
 2477 04ac D101     		.2byte	0x1d1
 2478 04ae 72000000 		.4byte	0x72
 2479 04b2 AC020000 		.4byte	.LLST16
 2480 04b6 0D       		.uleb128 0xd
 2481 04b7 B4050000 		.4byte	.LASF47
 2482 04bb 01       		.byte	0x1
 2483 04bc D301     		.2byte	0x1d3
 2484 04be 72000000 		.4byte	0x72
 2485 04c2 CD020000 		.4byte	.LLST17
 2486 04c6 00       		.byte	0
 2487 04c7 16       		.uleb128 0x16
 2488 04c8 8F020000 		.4byte	.LASF53
 2489 04cc 01       		.byte	0x1
 2490 04cd F901     		.2byte	0x1f9
 2491 04cf 72000000 		.4byte	0x72
 2492 04d3 00000000 		.4byte	.LFB6
 2493 04d7 74000000 		.4byte	.LFE6-.LFB6
 2494 04db 01       		.uleb128 0x1
 2495 04dc 9C       		.byte	0x9c
 2496 04dd 22050000 		.4byte	0x522
ARM GAS  C:\Users\HENRYA~1\AppData\Local\Temp\ccEyCdcC.s 			page 81


 2497 04e1 0C       		.uleb128 0xc
 2498 04e2 83050000 		.4byte	.LASF50
 2499 04e6 01       		.byte	0x1
 2500 04e7 F901     		.2byte	0x1f9
 2501 04e9 BA000000 		.4byte	0xba
 2502 04ed EB020000 		.4byte	.LLST18
 2503 04f1 0D       		.uleb128 0xd
 2504 04f2 B4050000 		.4byte	.LASF47
 2505 04f6 01       		.byte	0x1
 2506 04f7 FB01     		.2byte	0x1fb
 2507 04f9 7E000000 		.4byte	0x7e
 2508 04fd 19030000 		.4byte	.LLST19
 2509 0501 0D       		.uleb128 0xd
 2510 0502 D8000000 		.4byte	.LASF51
 2511 0506 01       		.byte	0x1
 2512 0507 FC01     		.2byte	0x1fc
 2513 0509 72000000 		.4byte	0x72
 2514 050d 51030000 		.4byte	.LLST20
 2515 0511 0D       		.uleb128 0xd
 2516 0512 44040000 		.4byte	.LASF52
 2517 0516 01       		.byte	0x1
 2518 0517 FD01     		.2byte	0x1fd
 2519 0519 BA000000 		.4byte	0xba
 2520 051d 70030000 		.4byte	.LLST21
 2521 0521 00       		.byte	0
 2522 0522 17       		.uleb128 0x17
 2523 0523 2E050000 		.4byte	.LASF54
 2524 0527 01       		.byte	0x1
 2525 0528 2802     		.2byte	0x228
 2526 052a 7E000000 		.4byte	0x7e
 2527 052e 00000000 		.4byte	.LFB7
 2528 0532 24000000 		.4byte	.LFE7-.LFB7
 2529 0536 01       		.uleb128 0x1
 2530 0537 9C       		.byte	0x9c
 2531 0538 5D050000 		.4byte	0x55d
 2532 053c 0D       		.uleb128 0xd
 2533 053d 1C040000 		.4byte	.LASF55
 2534 0541 01       		.byte	0x1
 2535 0542 2A02     		.2byte	0x22a
 2536 0544 72000000 		.4byte	0x72
 2537 0548 AF030000 		.4byte	.LLST22
 2538 054c 0D       		.uleb128 0xd
 2539 054d 53020000 		.4byte	.LASF34
 2540 0551 01       		.byte	0x1
 2541 0552 2B02     		.2byte	0x22b
 2542 0554 7E000000 		.4byte	0x7e
 2543 0558 C2030000 		.4byte	.LLST23
 2544 055c 00       		.byte	0
 2545 055d 18       		.uleb128 0x18
 2546 055e 9D000000 		.4byte	.LASF56
 2547 0562 01       		.byte	0x1
 2548 0563 4A02     		.2byte	0x24a
 2549 0565 00000000 		.4byte	.LFB8
 2550 0569 10000000 		.4byte	.LFE8-.LFB8
 2551 056d 01       		.uleb128 0x1
 2552 056e 9C       		.byte	0x9c
 2553 056f 18       		.uleb128 0x18
ARM GAS  C:\Users\HENRYA~1\AppData\Local\Temp\ccEyCdcC.s 			page 82


 2554 0570 43020000 		.4byte	.LASF57
 2555 0574 01       		.byte	0x1
 2556 0575 6102     		.2byte	0x261
 2557 0577 00000000 		.4byte	.LFB9
 2558 057b 10000000 		.4byte	.LFE9-.LFB9
 2559 057f 01       		.uleb128 0x1
 2560 0580 9C       		.byte	0x9c
 2561 0581 17       		.uleb128 0x17
 2562 0582 9B020000 		.4byte	.LASF58
 2563 0586 01       		.byte	0x1
 2564 0587 8402     		.2byte	0x284
 2565 0589 72000000 		.4byte	0x72
 2566 058d 00000000 		.4byte	.LFB10
 2567 0591 30000000 		.4byte	.LFE10-.LFB10
 2568 0595 01       		.uleb128 0x1
 2569 0596 9C       		.byte	0x9c
 2570 0597 BC050000 		.4byte	0x5bc
 2571 059b 0C       		.uleb128 0xc
 2572 059c B7010000 		.4byte	.LASF59
 2573 05a0 01       		.byte	0x1
 2574 05a1 8402     		.2byte	0x284
 2575 05a3 72000000 		.4byte	0x72
 2576 05a7 E0030000 		.4byte	.LLST24
 2577 05ab 0D       		.uleb128 0xd
 2578 05ac D8000000 		.4byte	.LASF51
 2579 05b0 01       		.byte	0x1
 2580 05b1 8602     		.2byte	0x286
 2581 05b3 72000000 		.4byte	0x72
 2582 05b7 01040000 		.4byte	.LLST25
 2583 05bb 00       		.byte	0
 2584 05bc 17       		.uleb128 0x17
 2585 05bd C7020000 		.4byte	.LASF60
 2586 05c1 01       		.byte	0x1
 2587 05c2 B302     		.2byte	0x2b3
 2588 05c4 96000000 		.4byte	0x96
 2589 05c8 00000000 		.4byte	.LFB11
 2590 05cc 48000000 		.4byte	.LFE11-.LFB11
 2591 05d0 01       		.uleb128 0x1
 2592 05d1 9C       		.byte	0x9c
 2593 05d2 F5050000 		.4byte	0x5f5
 2594 05d6 19       		.uleb128 0x19
 2595 05d7 BB050000 		.4byte	.LASF61
 2596 05db 01       		.byte	0x1
 2597 05dc B502     		.2byte	0x2b5
 2598 05de 96000000 		.4byte	0x96
 2599 05e2 01       		.uleb128 0x1
 2600 05e3 50       		.byte	0x50
 2601 05e4 0D       		.uleb128 0xd
 2602 05e5 F2020000 		.4byte	.LASF49
 2603 05e9 01       		.byte	0x1
 2604 05ea B602     		.2byte	0x2b6
 2605 05ec 72000000 		.4byte	0x72
 2606 05f0 1F040000 		.4byte	.LLST26
 2607 05f4 00       		.byte	0
 2608 05f5 17       		.uleb128 0x17
 2609 05f6 C2050000 		.4byte	.LASF62
 2610 05fa 01       		.byte	0x1
ARM GAS  C:\Users\HENRYA~1\AppData\Local\Temp\ccEyCdcC.s 			page 83


 2611 05fb E902     		.2byte	0x2e9
 2612 05fd A2000000 		.4byte	0xa2
 2613 0601 00000000 		.4byte	.LFB12
 2614 0605 50000000 		.4byte	.LFE12-.LFB12
 2615 0609 01       		.uleb128 0x1
 2616 060a 9C       		.byte	0x9c
 2617 060b 30060000 		.4byte	0x630
 2618 060f 0D       		.uleb128 0xd
 2619 0610 BB050000 		.4byte	.LASF61
 2620 0614 01       		.byte	0x1
 2621 0615 EB02     		.2byte	0x2eb
 2622 0617 7E000000 		.4byte	0x7e
 2623 061b 3D040000 		.4byte	.LLST27
 2624 061f 0D       		.uleb128 0xd
 2625 0620 F2020000 		.4byte	.LASF49
 2626 0624 01       		.byte	0x1
 2627 0625 EC02     		.2byte	0x2ec
 2628 0627 72000000 		.4byte	0x72
 2629 062b 66040000 		.4byte	.LLST28
 2630 062f 00       		.byte	0
 2631 0630 17       		.uleb128 0x17
 2632 0631 67010000 		.4byte	.LASF63
 2633 0635 01       		.byte	0x1
 2634 0636 2503     		.2byte	0x325
 2635 0638 AE000000 		.4byte	0xae
 2636 063c 00000000 		.4byte	.LFB13
 2637 0640 6C000000 		.4byte	.LFE13-.LFB13
 2638 0644 01       		.uleb128 0x1
 2639 0645 9C       		.byte	0x9c
 2640 0646 6B060000 		.4byte	0x66b
 2641 064a 0D       		.uleb128 0xd
 2642 064b BB050000 		.4byte	.LASF61
 2643 064f 01       		.byte	0x1
 2644 0650 2703     		.2byte	0x327
 2645 0652 8A000000 		.4byte	0x8a
 2646 0656 84040000 		.4byte	.LLST29
 2647 065a 0D       		.uleb128 0xd
 2648 065b F2020000 		.4byte	.LASF49
 2649 065f 01       		.byte	0x1
 2650 0660 2803     		.2byte	0x328
 2651 0662 72000000 		.4byte	0x72
 2652 0666 E5040000 		.4byte	.LLST30
 2653 066a 00       		.byte	0
 2654 066b 15       		.uleb128 0x15
 2655 066c 94050000 		.4byte	.LASF64
 2656 0670 01       		.byte	0x1
 2657 0671 8203     		.2byte	0x382
 2658 0673 00000000 		.4byte	.LFB14
 2659 0677 0C000000 		.4byte	.LFE14-.LFB14
 2660 067b 01       		.uleb128 0x1
 2661 067c 9C       		.byte	0x9c
 2662 067d 90060000 		.4byte	0x690
 2663 0681 1A       		.uleb128 0x1a
 2664 0682 4D040000 		.4byte	.LASF65
 2665 0686 01       		.byte	0x1
 2666 0687 8203     		.2byte	0x382
 2667 0689 AE000000 		.4byte	0xae
ARM GAS  C:\Users\HENRYA~1\AppData\Local\Temp\ccEyCdcC.s 			page 84


 2668 068d 01       		.uleb128 0x1
 2669 068e 50       		.byte	0x50
 2670 068f 00       		.byte	0
 2671 0690 15       		.uleb128 0x15
 2672 0691 12030000 		.4byte	.LASF66
 2673 0695 01       		.byte	0x1
 2674 0696 A503     		.2byte	0x3a5
 2675 0698 00000000 		.4byte	.LFB15
 2676 069c 0C000000 		.4byte	.LFE15-.LFB15
 2677 06a0 01       		.uleb128 0x1
 2678 06a1 9C       		.byte	0x9c
 2679 06a2 B5060000 		.4byte	0x6b5
 2680 06a6 1A       		.uleb128 0x1a
 2681 06a7 07000000 		.4byte	.LASF67
 2682 06ab 01       		.byte	0x1
 2683 06ac A503     		.2byte	0x3a5
 2684 06ae AE000000 		.4byte	0xae
 2685 06b2 01       		.uleb128 0x1
 2686 06b3 50       		.byte	0x50
 2687 06b4 00       		.byte	0
 2688 06b5 17       		.uleb128 0x17
 2689 06b6 24030000 		.4byte	.LASF68
 2690 06ba 01       		.byte	0x1
 2691 06bb C003     		.2byte	0x3c0
 2692 06bd A2000000 		.4byte	0xa2
 2693 06c1 00000000 		.4byte	.LFB16
 2694 06c5 24000000 		.4byte	.LFE16-.LFB16
 2695 06c9 01       		.uleb128 0x1
 2696 06ca 9C       		.byte	0x9c
 2697 06cb EE060000 		.4byte	0x6ee
 2698 06cf 0C       		.uleb128 0xc
 2699 06d0 6F040000 		.4byte	.LASF69
 2700 06d4 01       		.byte	0x1
 2701 06d5 C003     		.2byte	0x3c0
 2702 06d7 AE000000 		.4byte	0xae
 2703 06db 0E050000 		.4byte	.LLST31
 2704 06df 19       		.uleb128 0x19
 2705 06e0 BC030000 		.4byte	.LASF70
 2706 06e4 01       		.byte	0x1
 2707 06e5 C303     		.2byte	0x3c3
 2708 06e7 A2000000 		.4byte	0xa2
 2709 06eb 01       		.uleb128 0x1
 2710 06ec 50       		.byte	0x50
 2711 06ed 00       		.byte	0
 2712 06ee 16       		.uleb128 0x16
 2713 06ef 30000000 		.4byte	.LASF71
 2714 06f3 01       		.byte	0x1
 2715 06f4 FD03     		.2byte	0x3fd
 2716 06f6 BA000000 		.4byte	0xba
 2717 06fa 00000000 		.4byte	.LFB17
 2718 06fe 28000000 		.4byte	.LFE17-.LFB17
 2719 0702 01       		.uleb128 0x1
 2720 0703 9C       		.byte	0x9c
 2721 0704 27070000 		.4byte	0x727
 2722 0708 0C       		.uleb128 0xc
 2723 0709 6F040000 		.4byte	.LASF69
 2724 070d 01       		.byte	0x1
ARM GAS  C:\Users\HENRYA~1\AppData\Local\Temp\ccEyCdcC.s 			page 85


 2725 070e FD03     		.2byte	0x3fd
 2726 0710 AE000000 		.4byte	0xae
 2727 0714 2C050000 		.4byte	.LLST32
 2728 0718 19       		.uleb128 0x19
 2729 0719 77010000 		.4byte	.LASF72
 2730 071d 01       		.byte	0x1
 2731 071e 0004     		.2byte	0x400
 2732 0720 BA000000 		.4byte	0xba
 2733 0724 01       		.uleb128 0x1
 2734 0725 50       		.byte	0x50
 2735 0726 00       		.byte	0
 2736 0727 17       		.uleb128 0x17
 2737 0728 36010000 		.4byte	.LASF73
 2738 072c 01       		.byte	0x1
 2739 072d 3F04     		.2byte	0x43f
 2740 072f AE000000 		.4byte	0xae
 2741 0733 00000000 		.4byte	.LFB18
 2742 0737 64000000 		.4byte	.LFE18-.LFB18
 2743 073b 01       		.uleb128 0x1
 2744 073c 9C       		.byte	0x9c
 2745 073d 90070000 		.4byte	0x790
 2746 0741 0C       		.uleb128 0xc
 2747 0742 6F040000 		.4byte	.LASF69
 2748 0746 01       		.byte	0x1
 2749 0747 3F04     		.2byte	0x43f
 2750 0749 AE000000 		.4byte	0xae
 2751 074d 5A050000 		.4byte	.LLST33
 2752 0751 0D       		.uleb128 0xd
 2753 0752 EB010000 		.4byte	.LASF74
 2754 0756 01       		.byte	0x1
 2755 0757 4204     		.2byte	0x442
 2756 0759 AE000000 		.4byte	0xae
 2757 075d 7B050000 		.4byte	.LLST34
 2758 0761 0D       		.uleb128 0xd
 2759 0762 E9030000 		.4byte	.LASF75
 2760 0766 01       		.byte	0x1
 2761 0767 4304     		.2byte	0x443
 2762 0769 AE000000 		.4byte	0xae
 2763 076d 9E050000 		.4byte	.LLST35
 2764 0771 19       		.uleb128 0x19
 2765 0772 EF030000 		.4byte	.LASF76
 2766 0776 01       		.byte	0x1
 2767 0777 4404     		.2byte	0x444
 2768 0779 AE000000 		.4byte	0xae
 2769 077d 01       		.uleb128 0x1
 2770 077e 51       		.byte	0x51
 2771 077f 0D       		.uleb128 0xd
 2772 0780 D3030000 		.4byte	.LASF30
 2773 0784 01       		.byte	0x1
 2774 0785 4504     		.2byte	0x445
 2775 0787 72000000 		.4byte	0x72
 2776 078b B1050000 		.4byte	.LLST36
 2777 078f 00       		.byte	0
 2778 0790 15       		.uleb128 0x15
 2779 0791 6A030000 		.4byte	.LASF77
 2780 0795 01       		.byte	0x1
 2781 0796 1006     		.2byte	0x610
ARM GAS  C:\Users\HENRYA~1\AppData\Local\Temp\ccEyCdcC.s 			page 86


 2782 0798 00000000 		.4byte	.LFB20
 2783 079c 60000000 		.4byte	.LFE20-.LFB20
 2784 07a0 01       		.uleb128 0x1
 2785 07a1 9C       		.byte	0x9c
 2786 07a2 05080000 		.4byte	0x805
 2787 07a6 0C       		.uleb128 0xc
 2788 07a7 30040000 		.4byte	.LASF31
 2789 07ab 01       		.byte	0x1
 2790 07ac 1006     		.2byte	0x610
 2791 07ae 72000000 		.4byte	0x72
 2792 07b2 CF050000 		.4byte	.LLST37
 2793 07b6 0C       		.uleb128 0xc
 2794 07b7 3C040000 		.4byte	.LASF78
 2795 07bb 01       		.byte	0x1
 2796 07bc 1006     		.2byte	0x610
 2797 07be 72000000 		.4byte	0x72
 2798 07c2 09060000 		.4byte	.LLST38
 2799 07c6 10       		.uleb128 0x10
 2800 07c7 1E000000 		.4byte	.LVL148
 2801 07cb 06040000 		.4byte	0x406
 2802 07cf 11       		.uleb128 0x11
 2803 07d0 24000000 		.4byte	.LVL149
 2804 07d4 66020000 		.4byte	0x266
 2805 07d8 E3070000 		.4byte	0x7e3
 2806 07dc 0F       		.uleb128 0xf
 2807 07dd 01       		.uleb128 0x1
 2808 07de 50       		.byte	0x50
 2809 07df 02       		.uleb128 0x2
 2810 07e0 74       		.byte	0x74
 2811 07e1 00       		.sleb128 0
 2812 07e2 00       		.byte	0
 2813 07e3 10       		.uleb128 0x10
 2814 07e4 42000000 		.4byte	.LVL150
 2815 07e8 DD030000 		.4byte	0x3dd
 2816 07ec 10       		.uleb128 0x10
 2817 07ed 46000000 		.4byte	.LVL151
 2818 07f1 5D050000 		.4byte	0x55d
 2819 07f5 0E       		.uleb128 0xe
 2820 07f6 4E000000 		.4byte	.LVL154
 2821 07fa AD090000 		.4byte	0x9ad
 2822 07fe 0F       		.uleb128 0xf
 2823 07ff 01       		.uleb128 0x1
 2824 0800 50       		.byte	0x50
 2825 0801 01       		.uleb128 0x1
 2826 0802 30       		.byte	0x30
 2827 0803 00       		.byte	0
 2828 0804 00       		.byte	0
 2829 0805 17       		.uleb128 0x17
 2830 0806 65040000 		.4byte	.LASF79
 2831 080a 01       		.byte	0x1
 2832 080b E206     		.2byte	0x6e2
 2833 080d 96000000 		.4byte	0x96
 2834 0811 00000000 		.4byte	.LFB23
 2835 0815 28000000 		.4byte	.LFE23-.LFB23
 2836 0819 01       		.uleb128 0x1
 2837 081a 9C       		.byte	0x9c
 2838 081b 5E080000 		.4byte	0x85e
ARM GAS  C:\Users\HENRYA~1\AppData\Local\Temp\ccEyCdcC.s 			page 87


 2839 081f 0D       		.uleb128 0xd
 2840 0820 BB050000 		.4byte	.LASF61
 2841 0824 01       		.byte	0x1
 2842 0825 E406     		.2byte	0x6e4
 2843 0827 96000000 		.4byte	0x96
 2844 082b 43060000 		.4byte	.LLST39
 2845 082f 10       		.uleb128 0x10
 2846 0830 10000000 		.4byte	.LVL155
 2847 0834 5D050000 		.4byte	0x55d
 2848 0838 11       		.uleb128 0x11
 2849 0839 16000000 		.4byte	.LVL156
 2850 083d 81050000 		.4byte	0x581
 2851 0841 4B080000 		.4byte	0x84b
 2852 0845 0F       		.uleb128 0xf
 2853 0846 01       		.uleb128 0x1
 2854 0847 50       		.byte	0x50
 2855 0848 01       		.uleb128 0x1
 2856 0849 30       		.byte	0x30
 2857 084a 00       		.byte	0
 2858 084b 10       		.uleb128 0x10
 2859 084c 1A000000 		.4byte	.LVL157
 2860 0850 BC050000 		.4byte	0x5bc
 2861 0854 10       		.uleb128 0x10
 2862 0855 20000000 		.4byte	.LVL159
 2863 0859 6F050000 		.4byte	0x56f
 2864 085d 00       		.byte	0
 2865 085e 17       		.uleb128 0x17
 2866 085f 62000000 		.4byte	.LASF80
 2867 0863 01       		.byte	0x1
 2868 0864 0307     		.2byte	0x703
 2869 0866 A2000000 		.4byte	0xa2
 2870 086a 00000000 		.4byte	.LFB24
 2871 086e 28000000 		.4byte	.LFE24-.LFB24
 2872 0872 01       		.uleb128 0x1
 2873 0873 9C       		.byte	0x9c
 2874 0874 B7080000 		.4byte	0x8b7
 2875 0878 0D       		.uleb128 0xd
 2876 0879 BB050000 		.4byte	.LASF61
 2877 087d 01       		.byte	0x1
 2878 087e 0507     		.2byte	0x705
 2879 0880 A2000000 		.4byte	0xa2
 2880 0884 56060000 		.4byte	.LLST40
 2881 0888 10       		.uleb128 0x10
 2882 0889 10000000 		.4byte	.LVL161
 2883 088d 5D050000 		.4byte	0x55d
 2884 0891 11       		.uleb128 0x11
 2885 0892 16000000 		.4byte	.LVL162
 2886 0896 81050000 		.4byte	0x581
 2887 089a A4080000 		.4byte	0x8a4
 2888 089e 0F       		.uleb128 0xf
 2889 089f 01       		.uleb128 0x1
 2890 08a0 50       		.byte	0x50
 2891 08a1 01       		.uleb128 0x1
 2892 08a2 30       		.byte	0x30
 2893 08a3 00       		.byte	0
 2894 08a4 10       		.uleb128 0x10
 2895 08a5 1A000000 		.4byte	.LVL163
ARM GAS  C:\Users\HENRYA~1\AppData\Local\Temp\ccEyCdcC.s 			page 88


 2896 08a9 F5050000 		.4byte	0x5f5
 2897 08ad 10       		.uleb128 0x10
 2898 08ae 20000000 		.4byte	.LVL165
 2899 08b2 6F050000 		.4byte	0x56f
 2900 08b6 00       		.byte	0
 2901 08b7 17       		.uleb128 0x17
 2902 08b8 79040000 		.4byte	.LASF81
 2903 08bc 01       		.byte	0x1
 2904 08bd 2407     		.2byte	0x724
 2905 08bf AE000000 		.4byte	0xae
 2906 08c3 00000000 		.4byte	.LFB25
 2907 08c7 28000000 		.4byte	.LFE25-.LFB25
 2908 08cb 01       		.uleb128 0x1
 2909 08cc 9C       		.byte	0x9c
 2910 08cd 10090000 		.4byte	0x910
 2911 08d1 0D       		.uleb128 0xd
 2912 08d2 BB050000 		.4byte	.LASF61
 2913 08d6 01       		.byte	0x1
 2914 08d7 2607     		.2byte	0x726
 2915 08d9 AE000000 		.4byte	0xae
 2916 08dd 69060000 		.4byte	.LLST41
 2917 08e1 10       		.uleb128 0x10
 2918 08e2 10000000 		.4byte	.LVL167
 2919 08e6 5D050000 		.4byte	0x55d
 2920 08ea 11       		.uleb128 0x11
 2921 08eb 16000000 		.4byte	.LVL168
 2922 08ef 81050000 		.4byte	0x581
 2923 08f3 FD080000 		.4byte	0x8fd
 2924 08f7 0F       		.uleb128 0xf
 2925 08f8 01       		.uleb128 0x1
 2926 08f9 50       		.byte	0x50
 2927 08fa 01       		.uleb128 0x1
 2928 08fb 30       		.byte	0x30
 2929 08fc 00       		.byte	0
 2930 08fd 10       		.uleb128 0x10
 2931 08fe 1A000000 		.4byte	.LVL169
 2932 0902 30060000 		.4byte	0x630
 2933 0906 10       		.uleb128 0x10
 2934 0907 20000000 		.4byte	.LVL171
 2935 090b 6F050000 		.4byte	0x56f
 2936 090f 00       		.byte	0
 2937 0910 1B       		.uleb128 0x1b
 2938 0911 42010000 		.4byte	0x142
 2939 0915 20090000 		.4byte	0x920
 2940 0919 1C       		.uleb128 0x1c
 2941 091a 1A010000 		.4byte	0x11a
 2942 091e 00       		.byte	0
 2943 091f 00       		.byte	0
 2944 0920 1D       		.uleb128 0x1d
 2945 0921 AF020000 		.4byte	.LASF82
 2946 0925 01       		.byte	0x1
 2947 0926 3D       		.byte	0x3d
 2948 0927 10090000 		.4byte	0x910
 2949 092b 05       		.uleb128 0x5
 2950 092c 03       		.byte	0x3
 2951 092d 00000000 		.4byte	ADC_gcor
 2952 0931 1E       		.uleb128 0x1e
ARM GAS  C:\Users\HENRYA~1\AppData\Local\Temp\ccEyCdcC.s 			page 89


 2953 0932 93010000 		.4byte	.LASF83
 2954 0936 01       		.byte	0x1
 2955 0937 2C       		.byte	0x2c
 2956 0938 72000000 		.4byte	0x72
 2957 093c 05       		.uleb128 0x5
 2958 093d 03       		.byte	0x3
 2959 093e 00000000 		.4byte	ADC_initVar
 2960 0942 1E       		.uleb128 0x1e
 2961 0943 20010000 		.4byte	.LASF84
 2962 0947 01       		.byte	0x1
 2963 0948 24       		.byte	0x24
 2964 0949 E0000000 		.4byte	0xe0
 2965 094d 05       		.uleb128 0x5
 2966 094e 03       		.byte	0x3
 2967 094f 00000000 		.4byte	ADC_convDone
 2968 0953 1E       		.uleb128 0x1e
 2969 0954 43000000 		.4byte	.LASF85
 2970 0958 01       		.byte	0x1
 2971 0959 29       		.byte	0x29
 2972 095a E0000000 		.4byte	0xe0
 2973 095e 05       		.uleb128 0x5
 2974 095f 03       		.byte	0x3
 2975 0960 00000000 		.4byte	ADC_stopConversion
 2976 0964 1E       		.uleb128 0x1e
 2977 0965 56000000 		.4byte	.LASF86
 2978 0969 01       		.byte	0x1
 2979 096a 2F       		.byte	0x2f
 2980 096b E0000000 		.4byte	0xe0
 2981 096f 05       		.uleb128 0x5
 2982 0970 03       		.byte	0x3
 2983 0971 00000000 		.4byte	ADC_started
 2984 0975 1E       		.uleb128 0x1e
 2985 0976 92000000 		.4byte	.LASF87
 2986 097a 01       		.byte	0x1
 2987 097b 32       		.byte	0x32
 2988 097c E0000000 		.4byte	0xe0
 2989 0980 05       		.uleb128 0x5
 2990 0981 03       		.byte	0x3
 2991 0982 00000000 		.4byte	ADC_Config
 2992 0986 1E       		.uleb128 0x1e
 2993 0987 DE030000 		.4byte	.LASF88
 2994 098b 01       		.byte	0x1
 2995 098c 34       		.byte	0x34
 2996 098d 97090000 		.4byte	0x997
 2997 0991 05       		.uleb128 0x5
 2998 0992 03       		.byte	0x3
 2999 0993 00000000 		.4byte	ADC_Offset
 3000 0997 05       		.uleb128 0x5
 3001 0998 AE000000 		.4byte	0xae
 3002 099c 1E       		.uleb128 0x1e
 3003 099d A2050000 		.4byte	.LASF89
 3004 09a1 01       		.byte	0x1
 3005 09a2 35       		.byte	0x35
 3006 09a3 97090000 		.4byte	0x997
 3007 09a7 05       		.uleb128 0x5
 3008 09a8 03       		.byte	0x3
 3009 09a9 00000000 		.4byte	ADC_CountsPerVolt
ARM GAS  C:\Users\HENRYA~1\AppData\Local\Temp\ccEyCdcC.s 			page 90


 3010 09ad 1F       		.uleb128 0x1f
 3011 09ae 55030000 		.4byte	.LASF90
 3012 09b2 04       		.byte	0x4
 3013 09b3 7F       		.byte	0x7f
 3014 09b4 BE090000 		.4byte	0x9be
 3015 09b8 20       		.uleb128 0x20
 3016 09b9 72000000 		.4byte	0x72
 3017 09bd 00       		.byte	0
 3018 09be 21       		.uleb128 0x21
 3019 09bf 04020000 		.4byte	.LASF101
 3020 09c3 04       		.byte	0x4
 3021 09c4 7D       		.byte	0x7d
 3022 09c5 72000000 		.4byte	0x72
 3023 09c9 1F       		.uleb128 0x1f
 3024 09ca 56010000 		.4byte	.LASF91
 3025 09ce 04       		.byte	0x4
 3026 09cf 77       		.byte	0x77
 3027 09d0 DA090000 		.4byte	0x9da
 3028 09d4 20       		.uleb128 0x20
 3029 09d5 7E000000 		.4byte	0x7e
 3030 09d9 00       		.byte	0
 3031 09da 1F       		.uleb128 0x1f
 3032 09db 0F000000 		.4byte	.LASF92
 3033 09df 04       		.byte	0x4
 3034 09e0 7E       		.byte	0x7e
 3035 09e1 EB090000 		.4byte	0x9eb
 3036 09e5 20       		.uleb128 0x20
 3037 09e6 72000000 		.4byte	0x72
 3038 09ea 00       		.byte	0
 3039 09eb 1F       		.uleb128 0x1f
 3040 09ec C3030000 		.4byte	.LASF93
 3041 09f0 05       		.byte	0x5
 3042 09f1 50       		.byte	0x50
 3043 09f2 FC090000 		.4byte	0x9fc
 3044 09f6 20       		.uleb128 0x20
 3045 09f7 72000000 		.4byte	0x72
 3046 09fb 00       		.byte	0
 3047 09fc 1F       		.uleb128 0x1f
 3048 09fd F5030000 		.4byte	.LASF94
 3049 0a01 06       		.byte	0x6
 3050 0a02 2F       		.byte	0x2f
 3051 0a03 120A0000 		.4byte	0xa12
 3052 0a07 20       		.uleb128 0x20
 3053 0a08 7E000000 		.4byte	0x7e
 3054 0a0c 20       		.uleb128 0x20
 3055 0a0d 72000000 		.4byte	0x72
 3056 0a11 00       		.byte	0
 3057 0a12 1F       		.uleb128 0x1f
 3058 0a13 BF010000 		.4byte	.LASF95
 3059 0a17 07       		.byte	0x7
 3060 0a18 2F       		.byte	0x2f
 3061 0a19 280A0000 		.4byte	0xa28
 3062 0a1d 20       		.uleb128 0x20
 3063 0a1e 7E000000 		.4byte	0x7e
 3064 0a22 20       		.uleb128 0x20
 3065 0a23 72000000 		.4byte	0x72
 3066 0a27 00       		.byte	0
ARM GAS  C:\Users\HENRYA~1\AppData\Local\Temp\ccEyCdcC.s 			page 91


 3067 0a28 22       		.uleb128 0x22
 3068 0a29 84010000 		.4byte	.LASF102
 3069 0a2d 04       		.byte	0x4
 3070 0a2e 88       		.byte	0x88
 3071 0a2f 07010000 		.4byte	0x107
 3072 0a33 420A0000 		.4byte	0xa42
 3073 0a37 20       		.uleb128 0x20
 3074 0a38 72000000 		.4byte	0x72
 3075 0a3c 20       		.uleb128 0x20
 3076 0a3d 07010000 		.4byte	0x107
 3077 0a41 00       		.byte	0
 3078 0a42 1F       		.uleb128 0x1f
 3079 0a43 9D030000 		.4byte	.LASF96
 3080 0a47 06       		.byte	0x6
 3081 0a48 32       		.byte	0x32
 3082 0a49 530A0000 		.4byte	0xa53
 3083 0a4d 20       		.uleb128 0x20
 3084 0a4e 72000000 		.4byte	0x72
 3085 0a52 00       		.byte	0
 3086 0a53 1F       		.uleb128 0x1f
 3087 0a54 D6020000 		.4byte	.LASF97
 3088 0a58 07       		.byte	0x7
 3089 0a59 32       		.byte	0x32
 3090 0a5a 640A0000 		.4byte	0xa64
 3091 0a5e 20       		.uleb128 0x20
 3092 0a5f 72000000 		.4byte	0x72
 3093 0a63 00       		.byte	0
 3094 0a64 23       		.uleb128 0x23
 3095 0a65 FC020000 		.4byte	.LASF103
 3096 0a69 04       		.byte	0x4
 3097 0a6a 8B       		.byte	0x8b
 3098 0a6b 20       		.uleb128 0x20
 3099 0a6c 72000000 		.4byte	0x72
 3100 0a70 20       		.uleb128 0x20
 3101 0a71 72000000 		.4byte	0x72
 3102 0a75 00       		.byte	0
 3103 0a76 00       		.byte	0
 3104              		.section	.debug_abbrev,"",%progbits
 3105              	.Ldebug_abbrev0:
 3106 0000 01       		.uleb128 0x1
 3107 0001 11       		.uleb128 0x11
 3108 0002 01       		.byte	0x1
 3109 0003 25       		.uleb128 0x25
 3110 0004 0E       		.uleb128 0xe
 3111 0005 13       		.uleb128 0x13
 3112 0006 0B       		.uleb128 0xb
 3113 0007 03       		.uleb128 0x3
 3114 0008 0E       		.uleb128 0xe
 3115 0009 1B       		.uleb128 0x1b
 3116 000a 0E       		.uleb128 0xe
 3117 000b 55       		.uleb128 0x55
 3118 000c 17       		.uleb128 0x17
 3119 000d 11       		.uleb128 0x11
 3120 000e 01       		.uleb128 0x1
 3121 000f 10       		.uleb128 0x10
 3122 0010 17       		.uleb128 0x17
 3123 0011 00       		.byte	0
ARM GAS  C:\Users\HENRYA~1\AppData\Local\Temp\ccEyCdcC.s 			page 92


 3124 0012 00       		.byte	0
 3125 0013 02       		.uleb128 0x2
 3126 0014 24       		.uleb128 0x24
 3127 0015 00       		.byte	0
 3128 0016 0B       		.uleb128 0xb
 3129 0017 0B       		.uleb128 0xb
 3130 0018 3E       		.uleb128 0x3e
 3131 0019 0B       		.uleb128 0xb
 3132 001a 03       		.uleb128 0x3
 3133 001b 0E       		.uleb128 0xe
 3134 001c 00       		.byte	0
 3135 001d 00       		.byte	0
 3136 001e 03       		.uleb128 0x3
 3137 001f 24       		.uleb128 0x24
 3138 0020 00       		.byte	0
 3139 0021 0B       		.uleb128 0xb
 3140 0022 0B       		.uleb128 0xb
 3141 0023 3E       		.uleb128 0x3e
 3142 0024 0B       		.uleb128 0xb
 3143 0025 03       		.uleb128 0x3
 3144 0026 08       		.uleb128 0x8
 3145 0027 00       		.byte	0
 3146 0028 00       		.byte	0
 3147 0029 04       		.uleb128 0x4
 3148 002a 16       		.uleb128 0x16
 3149 002b 00       		.byte	0
 3150 002c 03       		.uleb128 0x3
 3151 002d 0E       		.uleb128 0xe
 3152 002e 3A       		.uleb128 0x3a
 3153 002f 0B       		.uleb128 0xb
 3154 0030 3B       		.uleb128 0x3b
 3155 0031 05       		.uleb128 0x5
 3156 0032 49       		.uleb128 0x49
 3157 0033 13       		.uleb128 0x13
 3158 0034 00       		.byte	0
 3159 0035 00       		.byte	0
 3160 0036 05       		.uleb128 0x5
 3161 0037 35       		.uleb128 0x35
 3162 0038 00       		.byte	0
 3163 0039 49       		.uleb128 0x49
 3164 003a 13       		.uleb128 0x13
 3165 003b 00       		.byte	0
 3166 003c 00       		.byte	0
 3167 003d 06       		.uleb128 0x6
 3168 003e 0F       		.uleb128 0xf
 3169 003f 00       		.byte	0
 3170 0040 0B       		.uleb128 0xb
 3171 0041 0B       		.uleb128 0xb
 3172 0042 49       		.uleb128 0x49
 3173 0043 13       		.uleb128 0x13
 3174 0044 00       		.byte	0
 3175 0045 00       		.byte	0
 3176 0046 07       		.uleb128 0x7
 3177 0047 15       		.uleb128 0x15
 3178 0048 00       		.byte	0
 3179 0049 27       		.uleb128 0x27
 3180 004a 19       		.uleb128 0x19
ARM GAS  C:\Users\HENRYA~1\AppData\Local\Temp\ccEyCdcC.s 			page 93


 3181 004b 00       		.byte	0
 3182 004c 00       		.byte	0
 3183 004d 08       		.uleb128 0x8
 3184 004e 13       		.uleb128 0x13
 3185 004f 01       		.byte	0x1
 3186 0050 0B       		.uleb128 0xb
 3187 0051 0B       		.uleb128 0xb
 3188 0052 3A       		.uleb128 0x3a
 3189 0053 0B       		.uleb128 0xb
 3190 0054 3B       		.uleb128 0x3b
 3191 0055 0B       		.uleb128 0xb
 3192 0056 01       		.uleb128 0x1
 3193 0057 13       		.uleb128 0x13
 3194 0058 00       		.byte	0
 3195 0059 00       		.byte	0
 3196 005a 09       		.uleb128 0x9
 3197 005b 0D       		.uleb128 0xd
 3198 005c 00       		.byte	0
 3199 005d 03       		.uleb128 0x3
 3200 005e 0E       		.uleb128 0xe
 3201 005f 3A       		.uleb128 0x3a
 3202 0060 0B       		.uleb128 0xb
 3203 0061 3B       		.uleb128 0x3b
 3204 0062 0B       		.uleb128 0xb
 3205 0063 49       		.uleb128 0x49
 3206 0064 13       		.uleb128 0x13
 3207 0065 38       		.uleb128 0x38
 3208 0066 0B       		.uleb128 0xb
 3209 0067 00       		.byte	0
 3210 0068 00       		.byte	0
 3211 0069 0A       		.uleb128 0xa
 3212 006a 16       		.uleb128 0x16
 3213 006b 00       		.byte	0
 3214 006c 03       		.uleb128 0x3
 3215 006d 0E       		.uleb128 0xe
 3216 006e 3A       		.uleb128 0x3a
 3217 006f 0B       		.uleb128 0xb
 3218 0070 3B       		.uleb128 0x3b
 3219 0071 0B       		.uleb128 0xb
 3220 0072 49       		.uleb128 0x49
 3221 0073 13       		.uleb128 0x13
 3222 0074 00       		.byte	0
 3223 0075 00       		.byte	0
 3224 0076 0B       		.uleb128 0xb
 3225 0077 2E       		.uleb128 0x2e
 3226 0078 01       		.byte	0x1
 3227 0079 03       		.uleb128 0x3
 3228 007a 0E       		.uleb128 0xe
 3229 007b 3A       		.uleb128 0x3a
 3230 007c 0B       		.uleb128 0xb
 3231 007d 3B       		.uleb128 0x3b
 3232 007e 05       		.uleb128 0x5
 3233 007f 27       		.uleb128 0x27
 3234 0080 19       		.uleb128 0x19
 3235 0081 11       		.uleb128 0x11
 3236 0082 01       		.uleb128 0x1
 3237 0083 12       		.uleb128 0x12
ARM GAS  C:\Users\HENRYA~1\AppData\Local\Temp\ccEyCdcC.s 			page 94


 3238 0084 06       		.uleb128 0x6
 3239 0085 40       		.uleb128 0x40
 3240 0086 18       		.uleb128 0x18
 3241 0087 9742     		.uleb128 0x2117
 3242 0089 19       		.uleb128 0x19
 3243 008a 01       		.uleb128 0x1
 3244 008b 13       		.uleb128 0x13
 3245 008c 00       		.byte	0
 3246 008d 00       		.byte	0
 3247 008e 0C       		.uleb128 0xc
 3248 008f 05       		.uleb128 0x5
 3249 0090 00       		.byte	0
 3250 0091 03       		.uleb128 0x3
 3251 0092 0E       		.uleb128 0xe
 3252 0093 3A       		.uleb128 0x3a
 3253 0094 0B       		.uleb128 0xb
 3254 0095 3B       		.uleb128 0x3b
 3255 0096 05       		.uleb128 0x5
 3256 0097 49       		.uleb128 0x49
 3257 0098 13       		.uleb128 0x13
 3258 0099 02       		.uleb128 0x2
 3259 009a 17       		.uleb128 0x17
 3260 009b 00       		.byte	0
 3261 009c 00       		.byte	0
 3262 009d 0D       		.uleb128 0xd
 3263 009e 34       		.uleb128 0x34
 3264 009f 00       		.byte	0
 3265 00a0 03       		.uleb128 0x3
 3266 00a1 0E       		.uleb128 0xe
 3267 00a2 3A       		.uleb128 0x3a
 3268 00a3 0B       		.uleb128 0xb
 3269 00a4 3B       		.uleb128 0x3b
 3270 00a5 05       		.uleb128 0x5
 3271 00a6 49       		.uleb128 0x49
 3272 00a7 13       		.uleb128 0x13
 3273 00a8 02       		.uleb128 0x2
 3274 00a9 17       		.uleb128 0x17
 3275 00aa 00       		.byte	0
 3276 00ab 00       		.byte	0
 3277 00ac 0E       		.uleb128 0xe
 3278 00ad 898201   		.uleb128 0x4109
 3279 00b0 01       		.byte	0x1
 3280 00b1 11       		.uleb128 0x11
 3281 00b2 01       		.uleb128 0x1
 3282 00b3 31       		.uleb128 0x31
 3283 00b4 13       		.uleb128 0x13
 3284 00b5 00       		.byte	0
 3285 00b6 00       		.byte	0
 3286 00b7 0F       		.uleb128 0xf
 3287 00b8 8A8201   		.uleb128 0x410a
 3288 00bb 00       		.byte	0
 3289 00bc 02       		.uleb128 0x2
 3290 00bd 18       		.uleb128 0x18
 3291 00be 9142     		.uleb128 0x2111
 3292 00c0 18       		.uleb128 0x18
 3293 00c1 00       		.byte	0
 3294 00c2 00       		.byte	0
ARM GAS  C:\Users\HENRYA~1\AppData\Local\Temp\ccEyCdcC.s 			page 95


 3295 00c3 10       		.uleb128 0x10
 3296 00c4 898201   		.uleb128 0x4109
 3297 00c7 00       		.byte	0
 3298 00c8 11       		.uleb128 0x11
 3299 00c9 01       		.uleb128 0x1
 3300 00ca 31       		.uleb128 0x31
 3301 00cb 13       		.uleb128 0x13
 3302 00cc 00       		.byte	0
 3303 00cd 00       		.byte	0
 3304 00ce 11       		.uleb128 0x11
 3305 00cf 898201   		.uleb128 0x4109
 3306 00d2 01       		.byte	0x1
 3307 00d3 11       		.uleb128 0x11
 3308 00d4 01       		.uleb128 0x1
 3309 00d5 31       		.uleb128 0x31
 3310 00d6 13       		.uleb128 0x13
 3311 00d7 01       		.uleb128 0x1
 3312 00d8 13       		.uleb128 0x13
 3313 00d9 00       		.byte	0
 3314 00da 00       		.byte	0
 3315 00db 12       		.uleb128 0x12
 3316 00dc 2E       		.uleb128 0x2e
 3317 00dd 01       		.byte	0x1
 3318 00de 3F       		.uleb128 0x3f
 3319 00df 19       		.uleb128 0x19
 3320 00e0 03       		.uleb128 0x3
 3321 00e1 0E       		.uleb128 0xe
 3322 00e2 3A       		.uleb128 0x3a
 3323 00e3 0B       		.uleb128 0xb
 3324 00e4 3B       		.uleb128 0x3b
 3325 00e5 0B       		.uleb128 0xb
 3326 00e6 27       		.uleb128 0x27
 3327 00e7 19       		.uleb128 0x19
 3328 00e8 11       		.uleb128 0x11
 3329 00e9 01       		.uleb128 0x1
 3330 00ea 12       		.uleb128 0x12
 3331 00eb 06       		.uleb128 0x6
 3332 00ec 40       		.uleb128 0x40
 3333 00ed 18       		.uleb128 0x18
 3334 00ee 9742     		.uleb128 0x2117
 3335 00f0 19       		.uleb128 0x19
 3336 00f1 01       		.uleb128 0x1
 3337 00f2 13       		.uleb128 0x13
 3338 00f3 00       		.byte	0
 3339 00f4 00       		.byte	0
 3340 00f5 13       		.uleb128 0x13
 3341 00f6 34       		.uleb128 0x34
 3342 00f7 00       		.byte	0
 3343 00f8 03       		.uleb128 0x3
 3344 00f9 0E       		.uleb128 0xe
 3345 00fa 3A       		.uleb128 0x3a
 3346 00fb 0B       		.uleb128 0xb
 3347 00fc 3B       		.uleb128 0x3b
 3348 00fd 0B       		.uleb128 0xb
 3349 00fe 49       		.uleb128 0x49
 3350 00ff 13       		.uleb128 0x13
 3351 0100 00       		.byte	0
ARM GAS  C:\Users\HENRYA~1\AppData\Local\Temp\ccEyCdcC.s 			page 96


 3352 0101 00       		.byte	0
 3353 0102 14       		.uleb128 0x14
 3354 0103 34       		.uleb128 0x34
 3355 0104 00       		.byte	0
 3356 0105 03       		.uleb128 0x3
 3357 0106 0E       		.uleb128 0xe
 3358 0107 3A       		.uleb128 0x3a
 3359 0108 0B       		.uleb128 0xb
 3360 0109 3B       		.uleb128 0x3b
 3361 010a 0B       		.uleb128 0xb
 3362 010b 49       		.uleb128 0x49
 3363 010c 13       		.uleb128 0x13
 3364 010d 02       		.uleb128 0x2
 3365 010e 17       		.uleb128 0x17
 3366 010f 00       		.byte	0
 3367 0110 00       		.byte	0
 3368 0111 15       		.uleb128 0x15
 3369 0112 2E       		.uleb128 0x2e
 3370 0113 01       		.byte	0x1
 3371 0114 3F       		.uleb128 0x3f
 3372 0115 19       		.uleb128 0x19
 3373 0116 03       		.uleb128 0x3
 3374 0117 0E       		.uleb128 0xe
 3375 0118 3A       		.uleb128 0x3a
 3376 0119 0B       		.uleb128 0xb
 3377 011a 3B       		.uleb128 0x3b
 3378 011b 05       		.uleb128 0x5
 3379 011c 27       		.uleb128 0x27
 3380 011d 19       		.uleb128 0x19
 3381 011e 11       		.uleb128 0x11
 3382 011f 01       		.uleb128 0x1
 3383 0120 12       		.uleb128 0x12
 3384 0121 06       		.uleb128 0x6
 3385 0122 40       		.uleb128 0x40
 3386 0123 18       		.uleb128 0x18
 3387 0124 9742     		.uleb128 0x2117
 3388 0126 19       		.uleb128 0x19
 3389 0127 01       		.uleb128 0x1
 3390 0128 13       		.uleb128 0x13
 3391 0129 00       		.byte	0
 3392 012a 00       		.byte	0
 3393 012b 16       		.uleb128 0x16
 3394 012c 2E       		.uleb128 0x2e
 3395 012d 01       		.byte	0x1
 3396 012e 3F       		.uleb128 0x3f
 3397 012f 19       		.uleb128 0x19
 3398 0130 03       		.uleb128 0x3
 3399 0131 0E       		.uleb128 0xe
 3400 0132 3A       		.uleb128 0x3a
 3401 0133 0B       		.uleb128 0xb
 3402 0134 3B       		.uleb128 0x3b
 3403 0135 05       		.uleb128 0x5
 3404 0136 27       		.uleb128 0x27
 3405 0137 19       		.uleb128 0x19
 3406 0138 49       		.uleb128 0x49
 3407 0139 13       		.uleb128 0x13
 3408 013a 11       		.uleb128 0x11
ARM GAS  C:\Users\HENRYA~1\AppData\Local\Temp\ccEyCdcC.s 			page 97


 3409 013b 01       		.uleb128 0x1
 3410 013c 12       		.uleb128 0x12
 3411 013d 06       		.uleb128 0x6
 3412 013e 40       		.uleb128 0x40
 3413 013f 18       		.uleb128 0x18
 3414 0140 9642     		.uleb128 0x2116
 3415 0142 19       		.uleb128 0x19
 3416 0143 01       		.uleb128 0x1
 3417 0144 13       		.uleb128 0x13
 3418 0145 00       		.byte	0
 3419 0146 00       		.byte	0
 3420 0147 17       		.uleb128 0x17
 3421 0148 2E       		.uleb128 0x2e
 3422 0149 01       		.byte	0x1
 3423 014a 3F       		.uleb128 0x3f
 3424 014b 19       		.uleb128 0x19
 3425 014c 03       		.uleb128 0x3
 3426 014d 0E       		.uleb128 0xe
 3427 014e 3A       		.uleb128 0x3a
 3428 014f 0B       		.uleb128 0xb
 3429 0150 3B       		.uleb128 0x3b
 3430 0151 05       		.uleb128 0x5
 3431 0152 27       		.uleb128 0x27
 3432 0153 19       		.uleb128 0x19
 3433 0154 49       		.uleb128 0x49
 3434 0155 13       		.uleb128 0x13
 3435 0156 11       		.uleb128 0x11
 3436 0157 01       		.uleb128 0x1
 3437 0158 12       		.uleb128 0x12
 3438 0159 06       		.uleb128 0x6
 3439 015a 40       		.uleb128 0x40
 3440 015b 18       		.uleb128 0x18
 3441 015c 9742     		.uleb128 0x2117
 3442 015e 19       		.uleb128 0x19
 3443 015f 01       		.uleb128 0x1
 3444 0160 13       		.uleb128 0x13
 3445 0161 00       		.byte	0
 3446 0162 00       		.byte	0
 3447 0163 18       		.uleb128 0x18
 3448 0164 2E       		.uleb128 0x2e
 3449 0165 00       		.byte	0
 3450 0166 3F       		.uleb128 0x3f
 3451 0167 19       		.uleb128 0x19
 3452 0168 03       		.uleb128 0x3
 3453 0169 0E       		.uleb128 0xe
 3454 016a 3A       		.uleb128 0x3a
 3455 016b 0B       		.uleb128 0xb
 3456 016c 3B       		.uleb128 0x3b
 3457 016d 05       		.uleb128 0x5
 3458 016e 27       		.uleb128 0x27
 3459 016f 19       		.uleb128 0x19
 3460 0170 11       		.uleb128 0x11
 3461 0171 01       		.uleb128 0x1
 3462 0172 12       		.uleb128 0x12
 3463 0173 06       		.uleb128 0x6
 3464 0174 40       		.uleb128 0x40
 3465 0175 18       		.uleb128 0x18
ARM GAS  C:\Users\HENRYA~1\AppData\Local\Temp\ccEyCdcC.s 			page 98


 3466 0176 9742     		.uleb128 0x2117
 3467 0178 19       		.uleb128 0x19
 3468 0179 00       		.byte	0
 3469 017a 00       		.byte	0
 3470 017b 19       		.uleb128 0x19
 3471 017c 34       		.uleb128 0x34
 3472 017d 00       		.byte	0
 3473 017e 03       		.uleb128 0x3
 3474 017f 0E       		.uleb128 0xe
 3475 0180 3A       		.uleb128 0x3a
 3476 0181 0B       		.uleb128 0xb
 3477 0182 3B       		.uleb128 0x3b
 3478 0183 05       		.uleb128 0x5
 3479 0184 49       		.uleb128 0x49
 3480 0185 13       		.uleb128 0x13
 3481 0186 02       		.uleb128 0x2
 3482 0187 18       		.uleb128 0x18
 3483 0188 00       		.byte	0
 3484 0189 00       		.byte	0
 3485 018a 1A       		.uleb128 0x1a
 3486 018b 05       		.uleb128 0x5
 3487 018c 00       		.byte	0
 3488 018d 03       		.uleb128 0x3
 3489 018e 0E       		.uleb128 0xe
 3490 018f 3A       		.uleb128 0x3a
 3491 0190 0B       		.uleb128 0xb
 3492 0191 3B       		.uleb128 0x3b
 3493 0192 05       		.uleb128 0x5
 3494 0193 49       		.uleb128 0x49
 3495 0194 13       		.uleb128 0x13
 3496 0195 02       		.uleb128 0x2
 3497 0196 18       		.uleb128 0x18
 3498 0197 00       		.byte	0
 3499 0198 00       		.byte	0
 3500 0199 1B       		.uleb128 0x1b
 3501 019a 01       		.uleb128 0x1
 3502 019b 01       		.byte	0x1
 3503 019c 49       		.uleb128 0x49
 3504 019d 13       		.uleb128 0x13
 3505 019e 01       		.uleb128 0x1
 3506 019f 13       		.uleb128 0x13
 3507 01a0 00       		.byte	0
 3508 01a1 00       		.byte	0
 3509 01a2 1C       		.uleb128 0x1c
 3510 01a3 21       		.uleb128 0x21
 3511 01a4 00       		.byte	0
 3512 01a5 49       		.uleb128 0x49
 3513 01a6 13       		.uleb128 0x13
 3514 01a7 2F       		.uleb128 0x2f
 3515 01a8 0B       		.uleb128 0xb
 3516 01a9 00       		.byte	0
 3517 01aa 00       		.byte	0
 3518 01ab 1D       		.uleb128 0x1d
 3519 01ac 34       		.uleb128 0x34
 3520 01ad 00       		.byte	0
 3521 01ae 03       		.uleb128 0x3
 3522 01af 0E       		.uleb128 0xe
ARM GAS  C:\Users\HENRYA~1\AppData\Local\Temp\ccEyCdcC.s 			page 99


 3523 01b0 3A       		.uleb128 0x3a
 3524 01b1 0B       		.uleb128 0xb
 3525 01b2 3B       		.uleb128 0x3b
 3526 01b3 0B       		.uleb128 0xb
 3527 01b4 49       		.uleb128 0x49
 3528 01b5 13       		.uleb128 0x13
 3529 01b6 02       		.uleb128 0x2
 3530 01b7 18       		.uleb128 0x18
 3531 01b8 00       		.byte	0
 3532 01b9 00       		.byte	0
 3533 01ba 1E       		.uleb128 0x1e
 3534 01bb 34       		.uleb128 0x34
 3535 01bc 00       		.byte	0
 3536 01bd 03       		.uleb128 0x3
 3537 01be 0E       		.uleb128 0xe
 3538 01bf 3A       		.uleb128 0x3a
 3539 01c0 0B       		.uleb128 0xb
 3540 01c1 3B       		.uleb128 0x3b
 3541 01c2 0B       		.uleb128 0xb
 3542 01c3 49       		.uleb128 0x49
 3543 01c4 13       		.uleb128 0x13
 3544 01c5 3F       		.uleb128 0x3f
 3545 01c6 19       		.uleb128 0x19
 3546 01c7 02       		.uleb128 0x2
 3547 01c8 18       		.uleb128 0x18
 3548 01c9 00       		.byte	0
 3549 01ca 00       		.byte	0
 3550 01cb 1F       		.uleb128 0x1f
 3551 01cc 2E       		.uleb128 0x2e
 3552 01cd 01       		.byte	0x1
 3553 01ce 3F       		.uleb128 0x3f
 3554 01cf 19       		.uleb128 0x19
 3555 01d0 03       		.uleb128 0x3
 3556 01d1 0E       		.uleb128 0xe
 3557 01d2 3A       		.uleb128 0x3a
 3558 01d3 0B       		.uleb128 0xb
 3559 01d4 3B       		.uleb128 0x3b
 3560 01d5 0B       		.uleb128 0xb
 3561 01d6 27       		.uleb128 0x27
 3562 01d7 19       		.uleb128 0x19
 3563 01d8 3C       		.uleb128 0x3c
 3564 01d9 19       		.uleb128 0x19
 3565 01da 01       		.uleb128 0x1
 3566 01db 13       		.uleb128 0x13
 3567 01dc 00       		.byte	0
 3568 01dd 00       		.byte	0
 3569 01de 20       		.uleb128 0x20
 3570 01df 05       		.uleb128 0x5
 3571 01e0 00       		.byte	0
 3572 01e1 49       		.uleb128 0x49
 3573 01e2 13       		.uleb128 0x13
 3574 01e3 00       		.byte	0
 3575 01e4 00       		.byte	0
 3576 01e5 21       		.uleb128 0x21
 3577 01e6 2E       		.uleb128 0x2e
 3578 01e7 00       		.byte	0
 3579 01e8 3F       		.uleb128 0x3f
ARM GAS  C:\Users\HENRYA~1\AppData\Local\Temp\ccEyCdcC.s 			page 100


 3580 01e9 19       		.uleb128 0x19
 3581 01ea 03       		.uleb128 0x3
 3582 01eb 0E       		.uleb128 0xe
 3583 01ec 3A       		.uleb128 0x3a
 3584 01ed 0B       		.uleb128 0xb
 3585 01ee 3B       		.uleb128 0x3b
 3586 01ef 0B       		.uleb128 0xb
 3587 01f0 27       		.uleb128 0x27
 3588 01f1 19       		.uleb128 0x19
 3589 01f2 49       		.uleb128 0x49
 3590 01f3 13       		.uleb128 0x13
 3591 01f4 3C       		.uleb128 0x3c
 3592 01f5 19       		.uleb128 0x19
 3593 01f6 00       		.byte	0
 3594 01f7 00       		.byte	0
 3595 01f8 22       		.uleb128 0x22
 3596 01f9 2E       		.uleb128 0x2e
 3597 01fa 01       		.byte	0x1
 3598 01fb 3F       		.uleb128 0x3f
 3599 01fc 19       		.uleb128 0x19
 3600 01fd 03       		.uleb128 0x3
 3601 01fe 0E       		.uleb128 0xe
 3602 01ff 3A       		.uleb128 0x3a
 3603 0200 0B       		.uleb128 0xb
 3604 0201 3B       		.uleb128 0x3b
 3605 0202 0B       		.uleb128 0xb
 3606 0203 27       		.uleb128 0x27
 3607 0204 19       		.uleb128 0x19
 3608 0205 49       		.uleb128 0x49
 3609 0206 13       		.uleb128 0x13
 3610 0207 3C       		.uleb128 0x3c
 3611 0208 19       		.uleb128 0x19
 3612 0209 01       		.uleb128 0x1
 3613 020a 13       		.uleb128 0x13
 3614 020b 00       		.byte	0
 3615 020c 00       		.byte	0
 3616 020d 23       		.uleb128 0x23
 3617 020e 2E       		.uleb128 0x2e
 3618 020f 01       		.byte	0x1
 3619 0210 3F       		.uleb128 0x3f
 3620 0211 19       		.uleb128 0x19
 3621 0212 03       		.uleb128 0x3
 3622 0213 0E       		.uleb128 0xe
 3623 0214 3A       		.uleb128 0x3a
 3624 0215 0B       		.uleb128 0xb
 3625 0216 3B       		.uleb128 0x3b
 3626 0217 0B       		.uleb128 0xb
 3627 0218 27       		.uleb128 0x27
 3628 0219 19       		.uleb128 0x19
 3629 021a 3C       		.uleb128 0x3c
 3630 021b 19       		.uleb128 0x19
 3631 021c 00       		.byte	0
 3632 021d 00       		.byte	0
 3633 021e 00       		.byte	0
 3634              		.section	.debug_loc,"",%progbits
 3635              	.Ldebug_loc0:
 3636              	.LLST0:
ARM GAS  C:\Users\HENRYA~1\AppData\Local\Temp\ccEyCdcC.s 			page 101


 3637 0000 00000000 		.4byte	.LVL0
 3638 0004 0C000000 		.4byte	.LVL1
 3639 0008 0100     		.2byte	0x1
 3640 000a 50       		.byte	0x50
 3641 000b 0C000000 		.4byte	.LVL1
 3642 000f A0000000 		.4byte	.LVL29
 3643 0013 0400     		.2byte	0x4
 3644 0015 F3       		.byte	0xf3
 3645 0016 01       		.uleb128 0x1
 3646 0017 50       		.byte	0x50
 3647 0018 9F       		.byte	0x9f
 3648 0019 A0000000 		.4byte	.LVL29
 3649 001d A2000000 		.4byte	.LVL30
 3650 0021 0100     		.2byte	0x1
 3651 0023 50       		.byte	0x50
 3652 0024 A2000000 		.4byte	.LVL30
 3653 0028 CC000000 		.4byte	.LFE21
 3654 002c 0400     		.2byte	0x4
 3655 002e F3       		.byte	0xf3
 3656 002f 01       		.uleb128 0x1
 3657 0030 50       		.byte	0x50
 3658 0031 9F       		.byte	0x9f
 3659 0032 00000000 		.4byte	0
 3660 0036 00000000 		.4byte	0
 3661              	.LLST1:
 3662 003a 00000000 		.4byte	.LVL0
 3663 003e 66000000 		.4byte	.LVL19
 3664 0042 0100     		.2byte	0x1
 3665 0044 51       		.byte	0x51
 3666 0045 66000000 		.4byte	.LVL19
 3667 0049 A0000000 		.4byte	.LVL29
 3668 004d 0400     		.2byte	0x4
 3669 004f F3       		.byte	0xf3
 3670 0050 01       		.uleb128 0x1
 3671 0051 51       		.byte	0x51
 3672 0052 9F       		.byte	0x9f
 3673 0053 A0000000 		.4byte	.LVL29
 3674 0057 A5000000 		.4byte	.LVL31-1
 3675 005b 0100     		.2byte	0x1
 3676 005d 51       		.byte	0x51
 3677 005e A5000000 		.4byte	.LVL31-1
 3678 0062 CC000000 		.4byte	.LFE21
 3679 0066 0400     		.2byte	0x4
 3680 0068 F3       		.byte	0xf3
 3681 0069 01       		.uleb128 0x1
 3682 006a 51       		.byte	0x51
 3683 006b 9F       		.byte	0x9f
 3684 006c 00000000 		.4byte	0
 3685 0070 00000000 		.4byte	0
 3686              	.LLST2:
 3687 0074 00000000 		.4byte	.LVL0
 3688 0078 6E000000 		.4byte	.LVL22
 3689 007c 0100     		.2byte	0x1
 3690 007e 52       		.byte	0x52
 3691 007f 6E000000 		.4byte	.LVL22
 3692 0083 A0000000 		.4byte	.LVL29
 3693 0087 0400     		.2byte	0x4
ARM GAS  C:\Users\HENRYA~1\AppData\Local\Temp\ccEyCdcC.s 			page 102


 3694 0089 F3       		.byte	0xf3
 3695 008a 01       		.uleb128 0x1
 3696 008b 52       		.byte	0x52
 3697 008c 9F       		.byte	0x9f
 3698 008d A0000000 		.4byte	.LVL29
 3699 0091 A5000000 		.4byte	.LVL31-1
 3700 0095 0100     		.2byte	0x1
 3701 0097 52       		.byte	0x52
 3702 0098 A5000000 		.4byte	.LVL31-1
 3703 009c CC000000 		.4byte	.LFE21
 3704 00a0 0400     		.2byte	0x4
 3705 00a2 F3       		.byte	0xf3
 3706 00a3 01       		.uleb128 0x1
 3707 00a4 52       		.byte	0x52
 3708 00a5 9F       		.byte	0x9f
 3709 00a6 00000000 		.4byte	0
 3710 00aa 00000000 		.4byte	0
 3711              	.LLST3:
 3712 00ae 00000000 		.4byte	.LVL0
 3713 00b2 84000000 		.4byte	.LVL26
 3714 00b6 0100     		.2byte	0x1
 3715 00b8 53       		.byte	0x53
 3716 00b9 84000000 		.4byte	.LVL26
 3717 00bd 8A000000 		.4byte	.LVL27
 3718 00c1 0400     		.2byte	0x4
 3719 00c3 F3       		.byte	0xf3
 3720 00c4 01       		.uleb128 0x1
 3721 00c5 53       		.byte	0x53
 3722 00c6 9F       		.byte	0x9f
 3723 00c7 8A000000 		.4byte	.LVL27
 3724 00cb 8C000000 		.4byte	.LVL28
 3725 00cf 0100     		.2byte	0x1
 3726 00d1 53       		.byte	0x53
 3727 00d2 8C000000 		.4byte	.LVL28
 3728 00d6 A0000000 		.4byte	.LVL29
 3729 00da 0400     		.2byte	0x4
 3730 00dc F3       		.byte	0xf3
 3731 00dd 01       		.uleb128 0x1
 3732 00de 53       		.byte	0x53
 3733 00df 9F       		.byte	0x9f
 3734 00e0 A0000000 		.4byte	.LVL29
 3735 00e4 A5000000 		.4byte	.LVL31-1
 3736 00e8 0100     		.2byte	0x1
 3737 00ea 53       		.byte	0x53
 3738 00eb A5000000 		.4byte	.LVL31-1
 3739 00ef CC000000 		.4byte	.LFE21
 3740 00f3 0400     		.2byte	0x4
 3741 00f5 F3       		.byte	0xf3
 3742 00f6 01       		.uleb128 0x1
 3743 00f7 53       		.byte	0x53
 3744 00f8 9F       		.byte	0x9f
 3745 00f9 00000000 		.4byte	0
 3746 00fd 00000000 		.4byte	0
 3747              	.LLST4:
 3748 0101 00000000 		.4byte	.LVL0
 3749 0105 A0000000 		.4byte	.LVL29
 3750 0109 0200     		.2byte	0x2
ARM GAS  C:\Users\HENRYA~1\AppData\Local\Temp\ccEyCdcC.s 			page 103


 3751 010b 91       		.byte	0x91
 3752 010c 00       		.sleb128 0
 3753 010d A0000000 		.4byte	.LVL29
 3754 0111 A8000000 		.4byte	.LVL32
 3755 0115 0200     		.2byte	0x2
 3756 0117 91       		.byte	0x91
 3757 0118 00       		.sleb128 0
 3758 0119 A8000000 		.4byte	.LVL32
 3759 011d CC000000 		.4byte	.LFE21
 3760 0121 0200     		.2byte	0x2
 3761 0123 7D       		.byte	0x7d
 3762 0124 00       		.sleb128 0
 3763 0125 00000000 		.4byte	0
 3764 0129 00000000 		.4byte	0
 3765              	.LLST5:
 3766 012d 26000000 		.4byte	.LVL2
 3767 0131 28000000 		.4byte	.LVL3
 3768 0135 0100     		.2byte	0x1
 3769 0137 50       		.byte	0x50
 3770 0138 2C000000 		.4byte	.LVL4
 3771 013c 2E000000 		.4byte	.LVL5
 3772 0140 0100     		.2byte	0x1
 3773 0142 50       		.byte	0x50
 3774 0143 36000000 		.4byte	.LVL6
 3775 0147 38000000 		.4byte	.LVL7
 3776 014b 0100     		.2byte	0x1
 3777 014d 50       		.byte	0x50
 3778 014e 3C000000 		.4byte	.LVL8
 3779 0152 3E000000 		.4byte	.LVL9
 3780 0156 0100     		.2byte	0x1
 3781 0158 50       		.byte	0x50
 3782 0159 46000000 		.4byte	.LVL10
 3783 015d 48000000 		.4byte	.LVL11
 3784 0161 0100     		.2byte	0x1
 3785 0163 50       		.byte	0x50
 3786 0164 4C000000 		.4byte	.LVL12
 3787 0168 4E000000 		.4byte	.LVL13
 3788 016c 0100     		.2byte	0x1
 3789 016e 50       		.byte	0x50
 3790 016f 56000000 		.4byte	.LVL14
 3791 0173 58000000 		.4byte	.LVL15
 3792 0177 0100     		.2byte	0x1
 3793 0179 50       		.byte	0x50
 3794 017a 5C000000 		.4byte	.LVL16
 3795 017e 5E000000 		.4byte	.LVL17
 3796 0182 0100     		.2byte	0x1
 3797 0184 50       		.byte	0x50
 3798 0185 60000000 		.4byte	.LVL18
 3799 0189 A0000000 		.4byte	.LVL29
 3800 018d 0100     		.2byte	0x1
 3801 018f 50       		.byte	0x50
 3802 0190 00000000 		.4byte	0
 3803 0194 00000000 		.4byte	0
 3804              	.LLST6:
 3805 0198 66000000 		.4byte	.LVL19
 3806 019c 6A000000 		.4byte	.LVL20
 3807 01a0 0100     		.2byte	0x1
ARM GAS  C:\Users\HENRYA~1\AppData\Local\Temp\ccEyCdcC.s 			page 104


 3808 01a2 51       		.byte	0x51
 3809 01a3 00000000 		.4byte	0
 3810 01a7 00000000 		.4byte	0
 3811              	.LLST7:
 3812 01ab 6E000000 		.4byte	.LVL22
 3813 01af 76000000 		.4byte	.LVL23
 3814 01b3 0100     		.2byte	0x1
 3815 01b5 52       		.byte	0x52
 3816 01b6 76000000 		.4byte	.LVL23
 3817 01ba 7A000000 		.4byte	.LVL24
 3818 01be 0100     		.2byte	0x1
 3819 01c0 51       		.byte	0x51
 3820 01c1 7C000000 		.4byte	.LVL25
 3821 01c5 A0000000 		.4byte	.LVL29
 3822 01c9 0100     		.2byte	0x1
 3823 01cb 52       		.byte	0x52
 3824 01cc 00000000 		.4byte	0
 3825 01d0 00000000 		.4byte	0
 3826              	.LLST8:
 3827 01d4 6A000000 		.4byte	.LVL20
 3828 01d8 6C000000 		.4byte	.LVL21
 3829 01dc 0100     		.2byte	0x1
 3830 01de 51       		.byte	0x51
 3831 01df 00000000 		.4byte	0
 3832 01e3 00000000 		.4byte	0
 3833              	.LLST9:
 3834 01e7 00000000 		.4byte	.LVL33
 3835 01eb 07000000 		.4byte	.LVL34-1
 3836 01ef 0100     		.2byte	0x1
 3837 01f1 50       		.byte	0x50
 3838 01f2 07000000 		.4byte	.LVL34-1
 3839 01f6 4C000000 		.4byte	.LFE22
 3840 01fa 0400     		.2byte	0x4
 3841 01fc F3       		.byte	0xf3
 3842 01fd 01       		.uleb128 0x1
 3843 01fe 50       		.byte	0x50
 3844 01ff 9F       		.byte	0x9f
 3845 0200 00000000 		.4byte	0
 3846 0204 00000000 		.4byte	0
 3847              	.LLST10:
 3848 0208 0A000000 		.4byte	.LVL35
 3849 020c 40000000 		.4byte	.LVL38
 3850 0210 0100     		.2byte	0x1
 3851 0212 56       		.byte	0x56
 3852 0213 00000000 		.4byte	0
 3853 0217 00000000 		.4byte	0
 3854              	.LLST11:
 3855 021b 00000000 		.4byte	.LVL39
 3856 021f 88000000 		.4byte	.LVL40
 3857 0223 0100     		.2byte	0x1
 3858 0225 50       		.byte	0x50
 3859 0226 88000000 		.4byte	.LVL40
 3860 022a D0000000 		.4byte	.LVL46
 3861 022e 0400     		.2byte	0x4
 3862 0230 F3       		.byte	0xf3
 3863 0231 01       		.uleb128 0x1
 3864 0232 50       		.byte	0x50
ARM GAS  C:\Users\HENRYA~1\AppData\Local\Temp\ccEyCdcC.s 			page 105


 3865 0233 9F       		.byte	0x9f
 3866 0234 D0000000 		.4byte	.LVL46
 3867 0238 E8000000 		.4byte	.LFE19
 3868 023c 0100     		.2byte	0x1
 3869 023e 50       		.byte	0x50
 3870 023f 00000000 		.4byte	0
 3871 0243 00000000 		.4byte	0
 3872              	.LLST12:
 3873 0247 08000000 		.4byte	.LVL53
 3874 024b B2000000 		.4byte	.LVL57
 3875 024f 0100     		.2byte	0x1
 3876 0251 56       		.byte	0x56
 3877 0252 00000000 		.4byte	0
 3878 0256 00000000 		.4byte	0
 3879              	.LLST13:
 3880 025a 08000000 		.4byte	.LVL61
 3881 025e CE000000 		.4byte	.LVL64
 3882 0262 0100     		.2byte	0x1
 3883 0264 56       		.byte	0x56
 3884 0265 00000000 		.4byte	0
 3885 0269 00000000 		.4byte	0
 3886              	.LLST14:
 3887 026d 00000000 		.4byte	.LVL65
 3888 0271 0A000000 		.4byte	.LVL67
 3889 0275 0100     		.2byte	0x1
 3890 0277 50       		.byte	0x50
 3891 0278 0A000000 		.4byte	.LVL67
 3892 027c 18000000 		.4byte	.LFE4
 3893 0280 0400     		.2byte	0x4
 3894 0282 F3       		.byte	0xf3
 3895 0283 01       		.uleb128 0x1
 3896 0284 50       		.byte	0x50
 3897 0285 9F       		.byte	0x9f
 3898 0286 00000000 		.4byte	0
 3899 028a 00000000 		.4byte	0
 3900              	.LLST15:
 3901 028e 08000000 		.4byte	.LVL66
 3902 0292 10000000 		.4byte	.LVL68
 3903 0296 0100     		.2byte	0x1
 3904 0298 53       		.byte	0x53
 3905 0299 10000000 		.4byte	.LVL68
 3906 029d 18000000 		.4byte	.LFE4
 3907 02a1 0100     		.2byte	0x1
 3908 02a3 50       		.byte	0x50
 3909 02a4 00000000 		.4byte	0
 3910 02a8 00000000 		.4byte	0
 3911              	.LLST16:
 3912 02ac 00000000 		.4byte	.LVL69
 3913 02b0 0C000000 		.4byte	.LVL71
 3914 02b4 0100     		.2byte	0x1
 3915 02b6 50       		.byte	0x50
 3916 02b7 0C000000 		.4byte	.LVL71
 3917 02bb 18000000 		.4byte	.LFE5
 3918 02bf 0400     		.2byte	0x4
 3919 02c1 F3       		.byte	0xf3
 3920 02c2 01       		.uleb128 0x1
 3921 02c3 50       		.byte	0x50
ARM GAS  C:\Users\HENRYA~1\AppData\Local\Temp\ccEyCdcC.s 			page 106


 3922 02c4 9F       		.byte	0x9f
 3923 02c5 00000000 		.4byte	0
 3924 02c9 00000000 		.4byte	0
 3925              	.LLST17:
 3926 02cd 08000000 		.4byte	.LVL70
 3927 02d1 0E000000 		.4byte	.LVL72
 3928 02d5 0100     		.2byte	0x1
 3929 02d7 53       		.byte	0x53
 3930 02d8 0E000000 		.4byte	.LVL72
 3931 02dc 18000000 		.4byte	.LFE5
 3932 02e0 0100     		.2byte	0x1
 3933 02e2 50       		.byte	0x50
 3934 02e3 00000000 		.4byte	0
 3935 02e7 00000000 		.4byte	0
 3936              	.LLST18:
 3937 02eb 00000000 		.4byte	.LVL73
 3938 02ef 10000000 		.4byte	.LVL75
 3939 02f3 0100     		.2byte	0x1
 3940 02f5 50       		.byte	0x50
 3941 02f6 10000000 		.4byte	.LVL75
 3942 02fa 24000000 		.4byte	.LVL79
 3943 02fe 0100     		.2byte	0x1
 3944 0300 54       		.byte	0x54
 3945 0301 24000000 		.4byte	.LVL79
 3946 0305 74000000 		.4byte	.LFE6
 3947 0309 0600     		.2byte	0x6
 3948 030b F3       		.byte	0xf3
 3949 030c 03       		.uleb128 0x3
 3950 030d F5       		.byte	0xf5
 3951 030e 00       		.uleb128 0
 3952 030f 25       		.uleb128 0x25
 3953 0310 9F       		.byte	0x9f
 3954 0311 00000000 		.4byte	0
 3955 0315 00000000 		.4byte	0
 3956              	.LLST19:
 3957 0319 0A000000 		.4byte	.LVL74
 3958 031d 13000000 		.4byte	.LVL76-1
 3959 0321 0A00     		.2byte	0xa
 3960 0323 73       		.byte	0x73
 3961 0324 00       		.sleb128 0
 3962 0325 32       		.byte	0x32
 3963 0326 24       		.byte	0x24
 3964 0327 03       		.byte	0x3
 3965 0328 00000000 		.4byte	.LANCHOR0
 3966 032c 22       		.byte	0x22
 3967 032d 44000000 		.4byte	.LVL84
 3968 0331 56000000 		.4byte	.LVL86
 3969 0335 0100     		.2byte	0x1
 3970 0337 50       		.byte	0x50
 3971 0338 56000000 		.4byte	.LVL86
 3972 033c 58000000 		.4byte	.LVL87
 3973 0340 0700     		.2byte	0x7
 3974 0342 73       		.byte	0x73
 3975 0343 00       		.sleb128 0
 3976 0344 32       		.byte	0x32
 3977 0345 24       		.byte	0x24
 3978 0346 72       		.byte	0x72
ARM GAS  C:\Users\HENRYA~1\AppData\Local\Temp\ccEyCdcC.s 			page 107


 3979 0347 00       		.sleb128 0
 3980 0348 22       		.byte	0x22
 3981 0349 00000000 		.4byte	0
 3982 034d 00000000 		.4byte	0
 3983              	.LLST20:
 3984 0351 54000000 		.4byte	.LVL85
 3985 0355 58000000 		.4byte	.LVL87
 3986 0359 0200     		.2byte	0x2
 3987 035b 30       		.byte	0x30
 3988 035c 9F       		.byte	0x9f
 3989 035d 5A000000 		.4byte	.LVL88
 3990 0361 74000000 		.4byte	.LFE6
 3991 0365 0100     		.2byte	0x1
 3992 0367 50       		.byte	0x50
 3993 0368 00000000 		.4byte	0
 3994 036c 00000000 		.4byte	0
 3995              	.LLST21:
 3996 0370 1C000000 		.4byte	.LVL77
 3997 0374 21000000 		.4byte	.LVL78-1
 3998 0378 0100     		.2byte	0x1
 3999 037a 50       		.byte	0x50
 4000 037b 24000000 		.4byte	.LVL79
 4001 037f 27000000 		.4byte	.LVL80-1
 4002 0383 0100     		.2byte	0x1
 4003 0385 50       		.byte	0x50
 4004 0386 27000000 		.4byte	.LVL80-1
 4005 038a 3E000000 		.4byte	.LVL82
 4006 038e 0100     		.2byte	0x1
 4007 0390 54       		.byte	0x54
 4008 0391 3E000000 		.4byte	.LVL82
 4009 0395 41000000 		.4byte	.LVL83-1
 4010 0399 0100     		.2byte	0x1
 4011 039b 50       		.byte	0x50
 4012 039c 58000000 		.4byte	.LVL87
 4013 03a0 5C000000 		.4byte	.LVL89
 4014 03a4 0100     		.2byte	0x1
 4015 03a6 54       		.byte	0x54
 4016 03a7 00000000 		.4byte	0
 4017 03ab 00000000 		.4byte	0
 4018              	.LLST22:
 4019 03af 06000000 		.4byte	.LVL90
 4020 03b3 14000000 		.4byte	.LVL92
 4021 03b7 0100     		.2byte	0x1
 4022 03b9 53       		.byte	0x53
 4023 03ba 00000000 		.4byte	0
 4024 03be 00000000 		.4byte	0
 4025              	.LLST23:
 4026 03c2 0C000000 		.4byte	.LVL91
 4027 03c6 16000000 		.4byte	.LVL93
 4028 03ca 0100     		.2byte	0x1
 4029 03cc 50       		.byte	0x50
 4030 03cd 18000000 		.4byte	.LVL94
 4031 03d1 24000000 		.4byte	.LFE7
 4032 03d5 0100     		.2byte	0x1
 4033 03d7 50       		.byte	0x50
 4034 03d8 00000000 		.4byte	0
 4035 03dc 00000000 		.4byte	0
ARM GAS  C:\Users\HENRYA~1\AppData\Local\Temp\ccEyCdcC.s 			page 108


 4036              	.LLST24:
 4037 03e0 00000000 		.4byte	.LVL95
 4038 03e4 24000000 		.4byte	.LVL99
 4039 03e8 0100     		.2byte	0x1
 4040 03ea 50       		.byte	0x50
 4041 03eb 24000000 		.4byte	.LVL99
 4042 03ef 30000000 		.4byte	.LFE10
 4043 03f3 0400     		.2byte	0x4
 4044 03f5 F3       		.byte	0xf3
 4045 03f6 01       		.uleb128 0x1
 4046 03f7 50       		.byte	0x50
 4047 03f8 9F       		.byte	0x9f
 4048 03f9 00000000 		.4byte	0
 4049 03fd 00000000 		.4byte	0
 4050              	.LLST25:
 4051 0401 10000000 		.4byte	.LVL96
 4052 0405 12000000 		.4byte	.LVL97
 4053 0409 0100     		.2byte	0x1
 4054 040b 53       		.byte	0x53
 4055 040c 1A000000 		.4byte	.LVL98
 4056 0410 30000000 		.4byte	.LFE10
 4057 0414 0100     		.2byte	0x1
 4058 0416 53       		.byte	0x53
 4059 0417 00000000 		.4byte	0
 4060 041b 00000000 		.4byte	0
 4061              	.LLST26:
 4062 041f 08000000 		.4byte	.LVL100
 4063 0423 12000000 		.4byte	.LVL102
 4064 0427 0100     		.2byte	0x1
 4065 0429 53       		.byte	0x53
 4066 042a 16000000 		.4byte	.LVL103
 4067 042e 1C000000 		.4byte	.LVL104
 4068 0432 0100     		.2byte	0x1
 4069 0434 53       		.byte	0x53
 4070 0435 00000000 		.4byte	0
 4071 0439 00000000 		.4byte	0
 4072              	.LLST27:
 4073 043d 12000000 		.4byte	.LVL107
 4074 0441 14000000 		.4byte	.LVL108
 4075 0445 0100     		.2byte	0x1
 4076 0447 50       		.byte	0x50
 4077 0448 18000000 		.4byte	.LVL109
 4078 044c 20000000 		.4byte	.LVL110
 4079 0450 0100     		.2byte	0x1
 4080 0452 52       		.byte	0x52
 4081 0453 20000000 		.4byte	.LVL110
 4082 0457 50000000 		.4byte	.LFE12
 4083 045b 0100     		.2byte	0x1
 4084 045d 50       		.byte	0x50
 4085 045e 00000000 		.4byte	0
 4086 0462 00000000 		.4byte	0
 4087              	.LLST28:
 4088 0466 08000000 		.4byte	.LVL105
 4089 046a 0E000000 		.4byte	.LVL106
 4090 046e 0100     		.2byte	0x1
 4091 0470 53       		.byte	0x53
 4092 0471 14000000 		.4byte	.LVL108
ARM GAS  C:\Users\HENRYA~1\AppData\Local\Temp\ccEyCdcC.s 			page 109


 4093 0475 26000000 		.4byte	.LVL111
 4094 0479 0100     		.2byte	0x1
 4095 047b 53       		.byte	0x53
 4096 047c 00000000 		.4byte	0
 4097 0480 00000000 		.4byte	0
 4098              	.LLST29:
 4099 0484 10000000 		.4byte	.LVL114
 4100 0488 1A000000 		.4byte	.LVL115
 4101 048c 0700     		.2byte	0x7
 4102 048e 70       		.byte	0x70
 4103 048f 00       		.sleb128 0
 4104 0490 0A       		.byte	0xa
 4105 0491 FFFF     		.2byte	0xffff
 4106 0493 1A       		.byte	0x1a
 4107 0494 9F       		.byte	0x9f
 4108 0495 1A000000 		.4byte	.LVL115
 4109 0499 1C000000 		.4byte	.LVL116
 4110 049d 0100     		.2byte	0x1
 4111 049f 50       		.byte	0x50
 4112 04a0 24000000 		.4byte	.LVL118
 4113 04a4 2C000000 		.4byte	.LVL119
 4114 04a8 0700     		.2byte	0x7
 4115 04aa 70       		.byte	0x70
 4116 04ab 00       		.sleb128 0
 4117 04ac 0A       		.byte	0xa
 4118 04ad FFFF     		.2byte	0xffff
 4119 04af 1A       		.byte	0x1a
 4120 04b0 9F       		.byte	0x9f
 4121 04b1 2C000000 		.4byte	.LVL119
 4122 04b5 34000000 		.4byte	.LVL120
 4123 04b9 0100     		.2byte	0x1
 4124 04bb 53       		.byte	0x53
 4125 04bc 34000000 		.4byte	.LVL120
 4126 04c0 36000000 		.4byte	.LVL121
 4127 04c4 0100     		.2byte	0x1
 4128 04c6 50       		.byte	0x50
 4129 04c7 3C000000 		.4byte	.LVL123
 4130 04cb 44000000 		.4byte	.LVL124
 4131 04cf 0100     		.2byte	0x1
 4132 04d1 53       		.byte	0x53
 4133 04d2 44000000 		.4byte	.LVL124
 4134 04d6 6C000000 		.4byte	.LFE13
 4135 04da 0100     		.2byte	0x1
 4136 04dc 50       		.byte	0x50
 4137 04dd 00000000 		.4byte	0
 4138 04e1 00000000 		.4byte	0
 4139              	.LLST30:
 4140 04e5 08000000 		.4byte	.LVL112
 4141 04e9 0E000000 		.4byte	.LVL113
 4142 04ed 0100     		.2byte	0x1
 4143 04ef 53       		.byte	0x53
 4144 04f0 1C000000 		.4byte	.LVL116
 4145 04f4 22000000 		.4byte	.LVL117
 4146 04f8 0100     		.2byte	0x1
 4147 04fa 53       		.byte	0x53
 4148 04fb 36000000 		.4byte	.LVL121
 4149 04ff 38000000 		.4byte	.LVL122
ARM GAS  C:\Users\HENRYA~1\AppData\Local\Temp\ccEyCdcC.s 			page 110


 4150 0503 0100     		.2byte	0x1
 4151 0505 53       		.byte	0x53
 4152 0506 00000000 		.4byte	0
 4153 050a 00000000 		.4byte	0
 4154              	.LLST31:
 4155 050e 00000000 		.4byte	.LVL127
 4156 0512 06000000 		.4byte	.LVL128
 4157 0516 0100     		.2byte	0x1
 4158 0518 50       		.byte	0x50
 4159 0519 06000000 		.4byte	.LVL128
 4160 051d 0E000000 		.4byte	.LVL129
 4161 0521 0100     		.2byte	0x1
 4162 0523 50       		.byte	0x50
 4163 0524 00000000 		.4byte	0
 4164 0528 00000000 		.4byte	0
 4165              	.LLST32:
 4166 052c 00000000 		.4byte	.LVL131
 4167 0530 06000000 		.4byte	.LVL132
 4168 0534 0100     		.2byte	0x1
 4169 0536 50       		.byte	0x50
 4170 0537 06000000 		.4byte	.LVL132
 4171 053b 08000000 		.4byte	.LVL133
 4172 053f 0600     		.2byte	0x6
 4173 0541 70       		.byte	0x70
 4174 0542 00       		.sleb128 0
 4175 0543 73       		.byte	0x73
 4176 0544 00       		.sleb128 0
 4177 0545 1C       		.byte	0x1c
 4178 0546 9F       		.byte	0x9f
 4179 0547 08000000 		.4byte	.LVL133
 4180 054b 0B000000 		.4byte	.LVL134-1
 4181 054f 0100     		.2byte	0x1
 4182 0551 50       		.byte	0x50
 4183 0552 00000000 		.4byte	0
 4184 0556 00000000 		.4byte	0
 4185              	.LLST33:
 4186 055a 00000000 		.4byte	.LVL137
 4187 055e 3E000000 		.4byte	.LVL143
 4188 0562 0100     		.2byte	0x1
 4189 0564 50       		.byte	0x50
 4190 0565 3E000000 		.4byte	.LVL143
 4191 0569 64000000 		.4byte	.LFE18
 4192 056d 0400     		.2byte	0x4
 4193 056f F3       		.byte	0xf3
 4194 0570 01       		.uleb128 0x1
 4195 0571 50       		.byte	0x50
 4196 0572 9F       		.byte	0x9f
 4197 0573 00000000 		.4byte	0
 4198 0577 00000000 		.4byte	0
 4199              	.LLST34:
 4200 057b 4E000000 		.4byte	.LVL145
 4201 057f 50000000 		.4byte	.LVL146
 4202 0583 0600     		.2byte	0x6
 4203 0585 70       		.byte	0x70
 4204 0586 00       		.sleb128 0
 4205 0587 73       		.byte	0x73
 4206 0588 00       		.sleb128 0
ARM GAS  C:\Users\HENRYA~1\AppData\Local\Temp\ccEyCdcC.s 			page 111


 4207 0589 1C       		.byte	0x1c
 4208 058a 9F       		.byte	0x9f
 4209 058b 50000000 		.4byte	.LVL146
 4210 058f 64000000 		.4byte	.LFE18
 4211 0593 0100     		.2byte	0x1
 4212 0595 50       		.byte	0x50
 4213 0596 00000000 		.4byte	0
 4214 059a 00000000 		.4byte	0
 4215              	.LLST35:
 4216 059e 32000000 		.4byte	.LVL141
 4217 05a2 4A000000 		.4byte	.LVL144
 4218 05a6 0100     		.2byte	0x1
 4219 05a8 53       		.byte	0x53
 4220 05a9 00000000 		.4byte	0
 4221 05ad 00000000 		.4byte	0
 4222              	.LLST36:
 4223 05b1 22000000 		.4byte	.LVL138
 4224 05b5 2C000000 		.4byte	.LVL139
 4225 05b9 0100     		.2byte	0x1
 4226 05bb 53       		.byte	0x53
 4227 05bc 2E000000 		.4byte	.LVL140
 4228 05c0 32000000 		.4byte	.LVL141
 4229 05c4 0100     		.2byte	0x1
 4230 05c6 53       		.byte	0x53
 4231 05c7 00000000 		.4byte	0
 4232 05cb 00000000 		.4byte	0
 4233              	.LLST37:
 4234 05cf 00000000 		.4byte	.LVL147
 4235 05d3 1D000000 		.4byte	.LVL148-1
 4236 05d7 0100     		.2byte	0x1
 4237 05d9 50       		.byte	0x50
 4238 05da 1D000000 		.4byte	.LVL148-1
 4239 05de 48000000 		.4byte	.LVL152
 4240 05e2 0400     		.2byte	0x4
 4241 05e4 F3       		.byte	0xf3
 4242 05e5 01       		.uleb128 0x1
 4243 05e6 50       		.byte	0x50
 4244 05e7 9F       		.byte	0x9f
 4245 05e8 48000000 		.4byte	.LVL152
 4246 05ec 4A000000 		.4byte	.LVL153
 4247 05f0 0100     		.2byte	0x1
 4248 05f2 50       		.byte	0x50
 4249 05f3 4A000000 		.4byte	.LVL153
 4250 05f7 60000000 		.4byte	.LFE20
 4251 05fb 0400     		.2byte	0x4
 4252 05fd F3       		.byte	0xf3
 4253 05fe 01       		.uleb128 0x1
 4254 05ff 50       		.byte	0x50
 4255 0600 9F       		.byte	0x9f
 4256 0601 00000000 		.4byte	0
 4257 0605 00000000 		.4byte	0
 4258              	.LLST38:
 4259 0609 00000000 		.4byte	.LVL147
 4260 060d 1D000000 		.4byte	.LVL148-1
 4261 0611 0100     		.2byte	0x1
 4262 0613 51       		.byte	0x51
 4263 0614 1D000000 		.4byte	.LVL148-1
ARM GAS  C:\Users\HENRYA~1\AppData\Local\Temp\ccEyCdcC.s 			page 112


 4264 0618 48000000 		.4byte	.LVL152
 4265 061c 0400     		.2byte	0x4
 4266 061e F3       		.byte	0xf3
 4267 061f 01       		.uleb128 0x1
 4268 0620 51       		.byte	0x51
 4269 0621 9F       		.byte	0x9f
 4270 0622 48000000 		.4byte	.LVL152
 4271 0626 4D000000 		.4byte	.LVL154-1
 4272 062a 0100     		.2byte	0x1
 4273 062c 51       		.byte	0x51
 4274 062d 4D000000 		.4byte	.LVL154-1
 4275 0631 60000000 		.4byte	.LFE20
 4276 0635 0400     		.2byte	0x4
 4277 0637 F3       		.byte	0xf3
 4278 0638 01       		.uleb128 0x1
 4279 0639 51       		.byte	0x51
 4280 063a 9F       		.byte	0x9f
 4281 063b 00000000 		.4byte	0
 4282 063f 00000000 		.4byte	0
 4283              	.LLST39:
 4284 0643 1C000000 		.4byte	.LVL158
 4285 0647 24000000 		.4byte	.LVL160
 4286 064b 0100     		.2byte	0x1
 4287 064d 54       		.byte	0x54
 4288 064e 00000000 		.4byte	0
 4289 0652 00000000 		.4byte	0
 4290              	.LLST40:
 4291 0656 1C000000 		.4byte	.LVL164
 4292 065a 24000000 		.4byte	.LVL166
 4293 065e 0100     		.2byte	0x1
 4294 0660 54       		.byte	0x54
 4295 0661 00000000 		.4byte	0
 4296 0665 00000000 		.4byte	0
 4297              	.LLST41:
 4298 0669 1C000000 		.4byte	.LVL170
 4299 066d 1F000000 		.4byte	.LVL171-1
 4300 0671 0100     		.2byte	0x1
 4301 0673 50       		.byte	0x50
 4302 0674 1F000000 		.4byte	.LVL171-1
 4303 0678 24000000 		.4byte	.LVL172
 4304 067c 0100     		.2byte	0x1
 4305 067e 54       		.byte	0x54
 4306 067f 24000000 		.4byte	.LVL172
 4307 0683 28000000 		.4byte	.LFE25
 4308 0687 0100     		.2byte	0x1
 4309 0689 50       		.byte	0x50
 4310 068a 00000000 		.4byte	0
 4311 068e 00000000 		.4byte	0
 4312              		.section	.debug_aranges,"",%progbits
 4313 0000 E4000000 		.4byte	0xe4
 4314 0004 0200     		.2byte	0x2
 4315 0006 00000000 		.4byte	.Ldebug_info0
 4316 000a 04       		.byte	0x4
 4317 000b 00       		.byte	0
 4318 000c 0000     		.2byte	0
 4319 000e 0000     		.2byte	0
 4320 0010 00000000 		.4byte	.LFB21
ARM GAS  C:\Users\HENRYA~1\AppData\Local\Temp\ccEyCdcC.s 			page 113


 4321 0014 CC000000 		.4byte	.LFE21-.LFB21
 4322 0018 00000000 		.4byte	.LFB22
 4323 001c 4C000000 		.4byte	.LFE22-.LFB22
 4324 0020 00000000 		.4byte	.LFB19
 4325 0024 E8000000 		.4byte	.LFE19-.LFB19
 4326 0028 00000000 		.4byte	.LFB0
 4327 002c C4000000 		.4byte	.LFE0-.LFB0
 4328 0030 00000000 		.4byte	.LFB1
 4329 0034 D8000000 		.4byte	.LFE1-.LFB1
 4330 0038 00000000 		.4byte	.LFB2
 4331 003c 28000000 		.4byte	.LFE2-.LFB2
 4332 0040 00000000 		.4byte	.LFB3
 4333 0044 E4000000 		.4byte	.LFE3-.LFB3
 4334 0048 00000000 		.4byte	.LFB4
 4335 004c 18000000 		.4byte	.LFE4-.LFB4
 4336 0050 00000000 		.4byte	.LFB5
 4337 0054 18000000 		.4byte	.LFE5-.LFB5
 4338 0058 00000000 		.4byte	.LFB6
 4339 005c 74000000 		.4byte	.LFE6-.LFB6
 4340 0060 00000000 		.4byte	.LFB7
 4341 0064 24000000 		.4byte	.LFE7-.LFB7
 4342 0068 00000000 		.4byte	.LFB8
 4343 006c 10000000 		.4byte	.LFE8-.LFB8
 4344 0070 00000000 		.4byte	.LFB9
 4345 0074 10000000 		.4byte	.LFE9-.LFB9
 4346 0078 00000000 		.4byte	.LFB10
 4347 007c 30000000 		.4byte	.LFE10-.LFB10
 4348 0080 00000000 		.4byte	.LFB11
 4349 0084 48000000 		.4byte	.LFE11-.LFB11
 4350 0088 00000000 		.4byte	.LFB12
 4351 008c 50000000 		.4byte	.LFE12-.LFB12
 4352 0090 00000000 		.4byte	.LFB13
 4353 0094 6C000000 		.4byte	.LFE13-.LFB13
 4354 0098 00000000 		.4byte	.LFB14
 4355 009c 0C000000 		.4byte	.LFE14-.LFB14
 4356 00a0 00000000 		.4byte	.LFB15
 4357 00a4 0C000000 		.4byte	.LFE15-.LFB15
 4358 00a8 00000000 		.4byte	.LFB16
 4359 00ac 24000000 		.4byte	.LFE16-.LFB16
 4360 00b0 00000000 		.4byte	.LFB17
 4361 00b4 28000000 		.4byte	.LFE17-.LFB17
 4362 00b8 00000000 		.4byte	.LFB18
 4363 00bc 64000000 		.4byte	.LFE18-.LFB18
 4364 00c0 00000000 		.4byte	.LFB20
 4365 00c4 60000000 		.4byte	.LFE20-.LFB20
 4366 00c8 00000000 		.4byte	.LFB23
 4367 00cc 28000000 		.4byte	.LFE23-.LFB23
 4368 00d0 00000000 		.4byte	.LFB24
 4369 00d4 28000000 		.4byte	.LFE24-.LFB24
 4370 00d8 00000000 		.4byte	.LFB25
 4371 00dc 28000000 		.4byte	.LFE25-.LFB25
 4372 00e0 00000000 		.4byte	0
 4373 00e4 00000000 		.4byte	0
 4374              		.section	.debug_ranges,"",%progbits
 4375              	.Ldebug_ranges0:
 4376 0000 00000000 		.4byte	.LFB21
 4377 0004 CC000000 		.4byte	.LFE21
ARM GAS  C:\Users\HENRYA~1\AppData\Local\Temp\ccEyCdcC.s 			page 114


 4378 0008 00000000 		.4byte	.LFB22
 4379 000c 4C000000 		.4byte	.LFE22
 4380 0010 00000000 		.4byte	.LFB19
 4381 0014 E8000000 		.4byte	.LFE19
 4382 0018 00000000 		.4byte	.LFB0
 4383 001c C4000000 		.4byte	.LFE0
 4384 0020 00000000 		.4byte	.LFB1
 4385 0024 D8000000 		.4byte	.LFE1
 4386 0028 00000000 		.4byte	.LFB2
 4387 002c 28000000 		.4byte	.LFE2
 4388 0030 00000000 		.4byte	.LFB3
 4389 0034 E4000000 		.4byte	.LFE3
 4390 0038 00000000 		.4byte	.LFB4
 4391 003c 18000000 		.4byte	.LFE4
 4392 0040 00000000 		.4byte	.LFB5
 4393 0044 18000000 		.4byte	.LFE5
 4394 0048 00000000 		.4byte	.LFB6
 4395 004c 74000000 		.4byte	.LFE6
 4396 0050 00000000 		.4byte	.LFB7
 4397 0054 24000000 		.4byte	.LFE7
 4398 0058 00000000 		.4byte	.LFB8
 4399 005c 10000000 		.4byte	.LFE8
 4400 0060 00000000 		.4byte	.LFB9
 4401 0064 10000000 		.4byte	.LFE9
 4402 0068 00000000 		.4byte	.LFB10
 4403 006c 30000000 		.4byte	.LFE10
 4404 0070 00000000 		.4byte	.LFB11
 4405 0074 48000000 		.4byte	.LFE11
 4406 0078 00000000 		.4byte	.LFB12
 4407 007c 50000000 		.4byte	.LFE12
 4408 0080 00000000 		.4byte	.LFB13
 4409 0084 6C000000 		.4byte	.LFE13
 4410 0088 00000000 		.4byte	.LFB14
 4411 008c 0C000000 		.4byte	.LFE14
 4412 0090 00000000 		.4byte	.LFB15
 4413 0094 0C000000 		.4byte	.LFE15
 4414 0098 00000000 		.4byte	.LFB16
 4415 009c 24000000 		.4byte	.LFE16
 4416 00a0 00000000 		.4byte	.LFB17
 4417 00a4 28000000 		.4byte	.LFE17
 4418 00a8 00000000 		.4byte	.LFB18
 4419 00ac 64000000 		.4byte	.LFE18
 4420 00b0 00000000 		.4byte	.LFB20
 4421 00b4 60000000 		.4byte	.LFE20
 4422 00b8 00000000 		.4byte	.LFB23
 4423 00bc 28000000 		.4byte	.LFE23
 4424 00c0 00000000 		.4byte	.LFB24
 4425 00c4 28000000 		.4byte	.LFE24
 4426 00c8 00000000 		.4byte	.LFB25
 4427 00cc 28000000 		.4byte	.LFE25
 4428 00d0 00000000 		.4byte	0
 4429 00d4 00000000 		.4byte	0
 4430              		.section	.debug_line,"",%progbits
 4431              	.Ldebug_line0:
 4432 0000 5B030000 		.section	.debug_str,"MS",%progbits,1
 4432      02008900 
 4432      00000201 
ARM GAS  C:\Users\HENRYA~1\AppData\Local\Temp\ccEyCdcC.s 			page 115


 4432      FB0E0D00 
 4432      01010101 
 4433              	.LASF11:
 4434 0000 75696E74 		.ascii	"uint16\000"
 4434      313600
 4435              	.LASF67:
 4436 0007 61646347 		.ascii	"adcGain\000"
 4436      61696E00 
 4437              	.LASF92:
 4438 000f 43794578 		.ascii	"CyExitCriticalSection\000"
 4438      69744372 
 4438      69746963 
 4438      616C5365 
 4438      6374696F 
 4439              	.LASF27:
 4440 0025 696E7075 		.ascii	"inputRange\000"
 4440      7452616E 
 4440      676500
 4441              	.LASF71:
 4442 0030 4144435F 		.ascii	"ADC_CountsTo_Volts\000"
 4442      436F756E 
 4442      7473546F 
 4442      5F566F6C 
 4442      747300
 4443              	.LASF85:
 4444 0043 4144435F 		.ascii	"ADC_stopConversion\000"
 4444      73746F70 
 4444      436F6E76 
 4444      65727369 
 4444      6F6E00
 4445              	.LASF86:
 4446 0056 4144435F 		.ascii	"ADC_started\000"
 4446      73746172 
 4446      74656400 
 4447              	.LASF80:
 4448 0062 4144435F 		.ascii	"ADC_Read16\000"
 4448      52656164 
 4448      313600
 4449              	.LASF24:
 4450 006d 67636F72 		.ascii	"gcor\000"
 4450      00
 4451              	.LASF41:
 4452 0072 4144435F 		.ascii	"ADC_Init\000"
 4452      496E6974 
 4452      00
 4453              	.LASF8:
 4454 007b 6C6F6E67 		.ascii	"long long unsigned int\000"
 4454      206C6F6E 
 4454      6720756E 
 4454      7369676E 
 4454      65642069 
 4455              	.LASF87:
 4456 0092 4144435F 		.ascii	"ADC_Config\000"
 4456      436F6E66 
 4456      696700
 4457              	.LASF56:
 4458 009d 4144435F 		.ascii	"ADC_StartConvert\000"
ARM GAS  C:\Users\HENRYA~1\AppData\Local\Temp\ccEyCdcC.s 			page 116


 4458      53746172 
 4458      74436F6E 
 4458      76657274 
 4458      00
 4459              	.LASF29:
 4460 00ae 69646561 		.ascii	"idealOddDecGain\000"
 4460      6C4F6464 
 4460      44656347 
 4460      61696E00 
 4461              	.LASF7:
 4462 00be 6C6F6E67 		.ascii	"long long int\000"
 4462      206C6F6E 
 4462      6720696E 
 4462      7400
 4463              	.LASF1:
 4464 00cc 7369676E 		.ascii	"signed char\000"
 4464      65642063 
 4464      68617200 
 4465              	.LASF51:
 4466 00d8 73746174 		.ascii	"status\000"
 4466      757300
 4467              	.LASF45:
 4468 00df 4144435F 		.ascii	"ADC_SetBufferGain\000"
 4468      53657442 
 4468      75666665 
 4468      72476169 
 4468      6E00
 4469              	.LASF99:
 4470 00f1 2E5C4765 		.ascii	".\\Generated_Source\\PSoC5\\ADC.c\000"
 4470      6E657261 
 4470      7465645F 
 4470      536F7572 
 4470      63655C50 
 4471              	.LASF15:
 4472 0110 696E7433 		.ascii	"int32\000"
 4472      3200
 4473              	.LASF43:
 4474 0116 4144435F 		.ascii	"ADC_Start\000"
 4474      53746172 
 4474      7400
 4475              	.LASF84:
 4476 0120 4144435F 		.ascii	"ADC_convDone\000"
 4476      636F6E76 
 4476      446F6E65 
 4476      00
 4477              	.LASF5:
 4478 012d 6C6F6E67 		.ascii	"long int\000"
 4478      20696E74 
 4478      00
 4479              	.LASF73:
 4480 0136 4144435F 		.ascii	"ADC_CountsTo_uVolts\000"
 4480      436F756E 
 4480      7473546F 
 4480      5F75566F 
 4480      6C747300 
 4481              	.LASF20:
 4482 014a 72656731 		.ascii	"reg16\000"
ARM GAS  C:\Users\HENRYA~1\AppData\Local\Temp\ccEyCdcC.s 			page 117


 4482      3600
 4483              	.LASF10:
 4484 0150 75696E74 		.ascii	"uint8\000"
 4484      3800
 4485              	.LASF91:
 4486 0156 43794465 		.ascii	"CyDelayUs\000"
 4486      6C617955 
 4486      7300
 4487              	.LASF17:
 4488 0160 646F7562 		.ascii	"double\000"
 4488      6C6500
 4489              	.LASF63:
 4490 0167 4144435F 		.ascii	"ADC_GetResult32\000"
 4490      47657452 
 4490      6573756C 
 4490      74333200 
 4491              	.LASF72:
 4492 0177 566F6C74 		.ascii	"Volts\000"
 4492      7300
 4493              	.LASF12:
 4494 017d 75696E74 		.ascii	"uint32\000"
 4494      333200
 4495              	.LASF102:
 4496 0184 4379496E 		.ascii	"CyIntSetVector\000"
 4496      74536574 
 4496      56656374 
 4496      6F7200
 4497              	.LASF83:
 4498 0193 4144435F 		.ascii	"ADC_initVar\000"
 4498      696E6974 
 4498      56617200 
 4499              	.LASF37:
 4500 019f 4144435F 		.ascii	"ADC_SetDSMRef0Reg\000"
 4500      53657444 
 4500      534D5265 
 4500      66305265 
 4500      6700
 4501              	.LASF38:
 4502 01b1 76616C75 		.ascii	"value\000"
 4502      6500
 4503              	.LASF59:
 4504 01b7 7265744D 		.ascii	"retMode\000"
 4504      6F646500 
 4505              	.LASF95:
 4506 01bf 4144435F 		.ascii	"ADC_theACLK_SetDividerRegister\000"
 4506      74686541 
 4506      434C4B5F 
 4506      53657444 
 4506      69766964 
 4507              	.LASF9:
 4508 01de 756E7369 		.ascii	"unsigned int\000"
 4508      676E6564 
 4508      20696E74 
 4508      00
 4509              	.LASF74:
 4510 01eb 75566F6C 		.ascii	"uVolts\000"
 4510      747300
ARM GAS  C:\Users\HENRYA~1\AppData\Local\Temp\ccEyCdcC.s 			page 118


 4511              	.LASF6:
 4512 01f2 6C6F6E67 		.ascii	"long unsigned int\000"
 4512      20756E73 
 4512      69676E65 
 4512      6420696E 
 4512      7400
 4513              	.LASF101:
 4514 0204 4379456E 		.ascii	"CyEnterCriticalSection\000"
 4514      74657243 
 4514      72697469 
 4514      63616C53 
 4514      65637469 
 4515              	.LASF26:
 4516 021b 4144435F 		.ascii	"ADC_GCOR_STRUCT\000"
 4516      47434F52 
 4516      5F535452 
 4516      55435400 
 4517              	.LASF4:
 4518 022b 73686F72 		.ascii	"short unsigned int\000"
 4518      7420756E 
 4518      7369676E 
 4518      65642069 
 4518      6E7400
 4519              	.LASF13:
 4520 023e 696E7438 		.ascii	"int8\000"
 4520      00
 4521              	.LASF57:
 4522 0243 4144435F 		.ascii	"ADC_StopConvert\000"
 4522      53746F70 
 4522      436F6E76 
 4522      65727400 
 4523              	.LASF34:
 4524 0253 67636F72 		.ascii	"gcorValue\000"
 4524      56616C75 
 4524      6500
 4525              	.LASF36:
 4526 025d 4144435F 		.ascii	"ADC_GainCompensation\000"
 4526      4761696E 
 4526      436F6D70 
 4526      656E7361 
 4526      74696F6E 
 4527              	.LASF32:
 4528 0272 666C6173 		.ascii	"flash\000"
 4528      6800
 4529              	.LASF21:
 4530 0278 72656733 		.ascii	"reg32\000"
 4530      3200
 4531              	.LASF16:
 4532 027e 666C6F61 		.ascii	"float32\000"
 4532      74333200 
 4533              	.LASF23:
 4534 0286 73697A65 		.ascii	"sizetype\000"
 4534      74797065 
 4534      00
 4535              	.LASF53:
 4536 028f 4144435F 		.ascii	"ADC_SetGCOR\000"
 4536      53657447 
ARM GAS  C:\Users\HENRYA~1\AppData\Local\Temp\ccEyCdcC.s 			page 119


 4536      434F5200 
 4537              	.LASF58:
 4538 029b 4144435F 		.ascii	"ADC_IsEndConversion\000"
 4538      4973456E 
 4538      64436F6E 
 4538      76657273 
 4538      696F6E00 
 4539              	.LASF82:
 4540 02af 4144435F 		.ascii	"ADC_gcor\000"
 4540      67636F72 
 4540      00
 4541              	.LASF40:
 4542 02b8 4144435F 		.ascii	"ADC_InitConfig\000"
 4542      496E6974 
 4542      436F6E66 
 4542      696700
 4543              	.LASF60:
 4544 02c7 4144435F 		.ascii	"ADC_GetResult8\000"
 4544      47657452 
 4544      6573756C 
 4544      743800
 4545              	.LASF97:
 4546 02d6 4144435F 		.ascii	"ADC_theACLK_SetModeRegister\000"
 4546      74686541 
 4546      434C4B5F 
 4546      5365744D 
 4546      6F646552 
 4547              	.LASF49:
 4548 02f2 636F6865 		.ascii	"coherency\000"
 4548      72656E63 
 4548      7900
 4549              	.LASF103:
 4550 02fc 4379496E 		.ascii	"CyIntSetPriority\000"
 4550      74536574 
 4550      5072696F 
 4550      72697479 
 4550      00
 4551              	.LASF46:
 4552 030d 6761696E 		.ascii	"gain\000"
 4552      00
 4553              	.LASF66:
 4554 0312 4144435F 		.ascii	"ADC_SetGain\000"
 4554      53657447 
 4554      61696E00 
 4555              	.LASF0:
 4556 031e 666C6F61 		.ascii	"float\000"
 4556      7400
 4557              	.LASF68:
 4558 0324 4144435F 		.ascii	"ADC_CountsTo_mVolts\000"
 4558      436F756E 
 4558      7473546F 
 4558      5F6D566F 
 4558      6C747300 
 4559              	.LASF19:
 4560 0338 72656738 		.ascii	"reg8\000"
 4560      00
 4561              	.LASF28:
ARM GAS  C:\Users\HENRYA~1\AppData\Local\Temp\ccEyCdcC.s 			page 120


 4562 033d 69646561 		.ascii	"idealDecGain\000"
 4562      6C446563 
 4562      4761696E 
 4562      00
 4563              	.LASF33:
 4564 034a 6E6F726D 		.ascii	"normalised\000"
 4564      616C6973 
 4564      656400
 4565              	.LASF90:
 4566 0355 43794861 		.ascii	"CyHalt\000"
 4566      6C7400
 4567              	.LASF2:
 4568 035c 756E7369 		.ascii	"unsigned char\000"
 4568      676E6564 
 4568      20636861 
 4568      7200
 4569              	.LASF77:
 4570 036a 4144435F 		.ascii	"ADC_SelectConfiguration\000"
 4570      53656C65 
 4570      6374436F 
 4570      6E666967 
 4570      75726174 
 4571              	.LASF3:
 4572 0382 73686F72 		.ascii	"short int\000"
 4572      7420696E 
 4572      7400
 4573              	.LASF44:
 4574 038c 4144435F 		.ascii	"ADC_Stop\000"
 4574      53746F70 
 4574      00
 4575              	.LASF35:
 4576 0395 67636F72 		.ascii	"gcorTmp\000"
 4576      546D7000 
 4577              	.LASF96:
 4578 039d 4144435F 		.ascii	"ADC_Ext_CP_Clk_SetModeRegister\000"
 4578      4578745F 
 4578      43505F43 
 4578      6C6B5F53 
 4578      65744D6F 
 4579              	.LASF70:
 4580 03bc 6D566F6C 		.ascii	"mVolts\000"
 4580      747300
 4581              	.LASF93:
 4582 03c3 4144435F 		.ascii	"ADC_AMux_Select\000"
 4582      414D7578 
 4582      5F53656C 
 4582      65637400 
 4583              	.LASF30:
 4584 03d3 7265736F 		.ascii	"resolution\000"
 4584      6C757469 
 4584      6F6E00
 4585              	.LASF88:
 4586 03de 4144435F 		.ascii	"ADC_Offset\000"
 4586      4F666673 
 4586      657400
 4587              	.LASF75:
 4588 03e9 636F6566 		.ascii	"coefA\000"
ARM GAS  C:\Users\HENRYA~1\AppData\Local\Temp\ccEyCdcC.s 			page 121


 4588      4100
 4589              	.LASF76:
 4590 03ef 636F6566 		.ascii	"coefB\000"
 4590      4200
 4591              	.LASF94:
 4592 03f5 4144435F 		.ascii	"ADC_Ext_CP_Clk_SetDividerRegister\000"
 4592      4578745F 
 4592      43505F43 
 4592      6C6B5F53 
 4592      65744469 
 4593              	.LASF18:
 4594 0417 63686172 		.ascii	"char\000"
 4594      00
 4595              	.LASF55:
 4596 041c 6756616C 		.ascii	"gValue\000"
 4596      756500
 4597              	.LASF22:
 4598 0423 63796973 		.ascii	"cyisraddress\000"
 4598      72616464 
 4598      72657373 
 4598      00
 4599              	.LASF31:
 4600 0430 636F6E66 		.ascii	"config\000"
 4600      696700
 4601              	.LASF25:
 4602 0437 6776616C 		.ascii	"gval\000"
 4602      00
 4603              	.LASF78:
 4604 043c 72657374 		.ascii	"restart\000"
 4604      61727400 
 4605              	.LASF52:
 4606 0444 746D7056 		.ascii	"tmpValue\000"
 4606      616C7565 
 4606      00
 4607              	.LASF65:
 4608 044d 6F666673 		.ascii	"offset\000"
 4608      657400
 4609              	.LASF48:
 4610 0454 4144435F 		.ascii	"ADC_SetCoherency\000"
 4610      53657443 
 4610      6F686572 
 4610      656E6379 
 4610      00
 4611              	.LASF79:
 4612 0465 4144435F 		.ascii	"ADC_Read8\000"
 4612      52656164 
 4612      3800
 4613              	.LASF69:
 4614 046f 61646343 		.ascii	"adcCounts\000"
 4614      6F756E74 
 4614      7300
 4615              	.LASF81:
 4616 0479 4144435F 		.ascii	"ADC_Read32\000"
 4616      52656164 
 4616      333200
 4617              	.LASF39:
 4618 0484 656E6162 		.ascii	"enableInterrupts\000"
ARM GAS  C:\Users\HENRYA~1\AppData\Local\Temp\ccEyCdcC.s 			page 122


 4618      6C65496E 
 4618      74657272 
 4618      75707473 
 4618      00
 4619              	.LASF42:
 4620 0495 4144435F 		.ascii	"ADC_Enable\000"
 4620      456E6162 
 4620      6C6500
 4621              	.LASF98:
 4622 04a0 474E5520 		.ascii	"GNU C 4.9.3 20150303 (release) [ARM/embedded-4_9-br"
 4622      4320342E 
 4622      392E3320 
 4622      32303135 
 4622      30333033 
 4623 04d3 616E6368 		.ascii	"anch revision 221220] -mcpu=cortex-m3 -mthumb -g -O"
 4623      20726576 
 4623      6973696F 
 4623      6E203232 
 4623      31323230 
 4624 0506 67202D66 		.ascii	"g -ffunction-sections -ffat-lto-objects\000"
 4624      66756E63 
 4624      74696F6E 
 4624      2D736563 
 4624      74696F6E 
 4625              	.LASF54:
 4626 052e 4144435F 		.ascii	"ADC_ReadGCOR\000"
 4626      52656164 
 4626      47434F52 
 4626      00
 4627              	.LASF100:
 4628 053b 433A5C55 		.ascii	"C:\\Users\\Henry Alberto\\Desktop\\Protocolos\\CAN_"
 4628      73657273 
 4628      5C48656E 
 4628      72792041 
 4628      6C626572 
 4629 0569 4144435F 		.ascii	"ADC_1_BIDIRECCIONAL.cydsn\000"
 4629      315F4249 
 4629      44495245 
 4629      4343494F 
 4629      4E414C2E 
 4630              	.LASF50:
 4631 0583 6761696E 		.ascii	"gainAdjust\000"
 4631      41646A75 
 4631      737400
 4632              	.LASF14:
 4633 058e 696E7431 		.ascii	"int16\000"
 4633      3600
 4634              	.LASF64:
 4635 0594 4144435F 		.ascii	"ADC_SetOffset\000"
 4635      5365744F 
 4635      66667365 
 4635      7400
 4636              	.LASF89:
 4637 05a2 4144435F 		.ascii	"ADC_CountsPerVolt\000"
 4637      436F756E 
 4637      74735065 
 4637      72566F6C 
ARM GAS  C:\Users\HENRYA~1\AppData\Local\Temp\ccEyCdcC.s 			page 123


 4637      7400
 4638              	.LASF47:
 4639 05b4 746D7052 		.ascii	"tmpReg\000"
 4639      656700
 4640              	.LASF61:
 4641 05bb 72657375 		.ascii	"result\000"
 4641      6C7400
 4642              	.LASF62:
 4643 05c2 4144435F 		.ascii	"ADC_GetResult16\000"
 4643      47657452 
 4643      6573756C 
 4643      74313600 
 4644              		.ident	"GCC: (GNU Tools for ARM Embedded Processors) 4.9.3 20150303 (release) [ARM/embedded-4_9-br
