ARM GAS  C:\Users\HENRYA~1\AppData\Local\Temp\ccgVxlis.s 			page 1


   1              		.cpu cortex-m0
   2              		.fpu softvfp
   3              		.eabi_attribute 20, 1
   4              		.eabi_attribute 21, 1
   5              		.eabi_attribute 23, 3
   6              		.eabi_attribute 24, 1
   7              		.eabi_attribute 25, 1
   8              		.eabi_attribute 26, 1
   9              		.eabi_attribute 30, 1
  10              		.eabi_attribute 34, 0
  11              		.eabi_attribute 18, 4
  12              		.code	16
  13              		.file	"main.c"
  14              		.text
  15              	.Ltext0:
  16              		.cfi_sections	.debug_frame
  17              		.section	.text.LED,"ax",%progbits
  18              		.align	2
  19              		.global	LED
  20              		.code	16
  21              		.thumb_func
  22              		.type	LED, %function
  23              	LED:
  24              	.LFB36:
  25              		.file 1 ".\\main.c"
   1:.\main.c      **** #include <project.h>
   2:.\main.c      **** #include <DynamixelSerial1.h>
   3:.\main.c      **** int8 Checksum;
   4:.\main.c      **** //The functions are based on the arduino library
   5:.\main.c      **** int LED(unsigned char ID, int Status){    
  26              		.loc 1 5 0
  27              		.cfi_startproc
  28              	.LVL0:
  29 0000 70B5     		push	{r4, r5, r6, lr}
  30              		.cfi_def_cfa_offset 16
  31              		.cfi_offset 4, -16
  32              		.cfi_offset 5, -12
  33              		.cfi_offset 6, -8
  34              		.cfi_offset 14, -4
  35 0002 041C     		mov	r4, r0
   6:.\main.c      ****     //Checksum for verification data to send
   7:.\main.c      ****     Checksum = (~(ID + AX_LED_LENGTH + AX_WRITE_DATA + AX_LED + Status))&0xFF;
  36              		.loc 1 7 0
  37 0004 CDB2     		uxtb	r5, r1
  38 0006 114E     		ldr	r6, .L2
  39 0008 2B18     		add	r3, r5, r0
  40 000a 2033     		add	r3, r3, #32
  41 000c DB43     		mvn	r3, r3
  42 000e 3370     		strb	r3, [r6]
   8:.\main.c      ****     // Send Instructions over Serial
   9:.\main.c      ****     MOTOR_PutChar(AX_START);              
  43              		.loc 1 9 0
  44 0010 FF20     		mov	r0, #255
  45              	.LVL1:
  46 0012 FFF7FEFF 		bl	MOTOR_PutChar
  47              	.LVL2:
  10:.\main.c      ****     MOTOR_PutChar(AX_START);
ARM GAS  C:\Users\HENRYA~1\AppData\Local\Temp\ccgVxlis.s 			page 2


  48              		.loc 1 10 0
  49 0016 FF20     		mov	r0, #255
  50 0018 FFF7FEFF 		bl	MOTOR_PutChar
  51              	.LVL3:
  11:.\main.c      ****     MOTOR_PutChar(ID);
  52              		.loc 1 11 0
  53 001c 201C     		mov	r0, r4
  54 001e FFF7FEFF 		bl	MOTOR_PutChar
  55              	.LVL4:
  12:.\main.c      ****     MOTOR_PutChar(AX_LED_LENGTH);
  56              		.loc 1 12 0
  57 0022 0420     		mov	r0, #4
  58 0024 FFF7FEFF 		bl	MOTOR_PutChar
  59              	.LVL5:
  13:.\main.c      ****     MOTOR_PutChar(AX_WRITE_DATA);
  60              		.loc 1 13 0
  61 0028 0320     		mov	r0, #3
  62 002a FFF7FEFF 		bl	MOTOR_PutChar
  63              	.LVL6:
  14:.\main.c      ****     MOTOR_PutChar(AX_LED);
  64              		.loc 1 14 0
  65 002e 1920     		mov	r0, #25
  66 0030 FFF7FEFF 		bl	MOTOR_PutChar
  67              	.LVL7:
  15:.\main.c      ****     MOTOR_PutChar(Status);
  68              		.loc 1 15 0
  69 0034 281C     		mov	r0, r5
  70 0036 FFF7FEFF 		bl	MOTOR_PutChar
  71              	.LVL8:
  16:.\main.c      ****     MOTOR_PutChar(Checksum);
  72              		.loc 1 16 0
  73 003a 3078     		ldrb	r0, [r6]
  74 003c FFF7FEFF 		bl	MOTOR_PutChar
  75              	.LVL9:
  17:.\main.c      ****     CyDelayUs(TX_DELAY_TIME);
  76              		.loc 1 17 0
  77 0040 C820     		mov	r0, #200
  78 0042 4000     		lsl	r0, r0, #1
  79 0044 FFF7FEFF 		bl	CyDelayUs
  80              	.LVL10:
  18:.\main.c      ****     //Finish Function
  19:.\main.c      ****     return 1;
  20:.\main.c      **** }
  81              		.loc 1 20 0
  82 0048 0120     		mov	r0, #1
  83              		@ sp needed
  84 004a 70BD     		pop	{r4, r5, r6, pc}
  85              	.L3:
  86              		.align	2
  87              	.L2:
  88 004c 00000000 		.word	Checksum
  89              		.cfi_endproc
  90              	.LFE36:
  91              		.size	LED, .-LED
  92              		.section	.text.Move,"ax",%progbits
  93              		.align	2
  94              		.global	Move
ARM GAS  C:\Users\HENRYA~1\AppData\Local\Temp\ccgVxlis.s 			page 3


  95              		.code	16
  96              		.thumb_func
  97              		.type	Move, %function
  98              	Move:
  99              	.LFB37:
  21:.\main.c      **** 
  22:.\main.c      **** int Move(unsigned char ID, int Position){
 100              		.loc 1 22 0
 101              		.cfi_startproc
 102              	.LVL11:
 103 0000 F8B5     		push	{r3, r4, r5, r6, r7, lr}
 104              		.cfi_def_cfa_offset 24
 105              		.cfi_offset 3, -24
 106              		.cfi_offset 4, -20
 107              		.cfi_offset 5, -16
 108              		.cfi_offset 6, -12
 109              		.cfi_offset 7, -8
 110              		.cfi_offset 14, -4
 111 0002 041C     		mov	r4, r0
  23:.\main.c      ****     char Position_H,Position_L;
  24:.\main.c      ****     //Shift register 16 bits
  25:.\main.c      ****     Position_H = Position >> 8;           
 112              		.loc 1 25 0
 113 0004 0E12     		asr	r6, r1, #8
 114 0006 F6B2     		uxtb	r6, r6
 115              	.LVL12:
  26:.\main.c      ****     Position_L = Position;
 116              		.loc 1 26 0
 117 0008 CDB2     		uxtb	r5, r1
 118              	.LVL13:
  27:.\main.c      **** 	Checksum = (~(ID + AX_GOAL_LENGTH + AX_WRITE_DATA + AX_GOAL_POSITION_L + Position_L + Position_H))
 119              		.loc 1 27 0
 120 000a 144F     		ldr	r7, .L5
 121 000c 4319     		add	r3, r0, r5
 122 000e F318     		add	r3, r6, r3
 123 0010 2633     		add	r3, r3, #38
 124 0012 DB43     		mvn	r3, r3
 125 0014 3B70     		strb	r3, [r7]
  28:.\main.c      ****     // Send Instructions over Serial
  29:.\main.c      ****     MOTOR_PutChar(AX_START);                 
 126              		.loc 1 29 0
 127 0016 FF20     		mov	r0, #255
 128              	.LVL14:
 129 0018 FFF7FEFF 		bl	MOTOR_PutChar
 130              	.LVL15:
  30:.\main.c      ****     MOTOR_PutChar(AX_START);
 131              		.loc 1 30 0
 132 001c FF20     		mov	r0, #255
 133 001e FFF7FEFF 		bl	MOTOR_PutChar
 134              	.LVL16:
  31:.\main.c      ****     MOTOR_PutChar(ID);
 135              		.loc 1 31 0
 136 0022 201C     		mov	r0, r4
 137 0024 FFF7FEFF 		bl	MOTOR_PutChar
 138              	.LVL17:
  32:.\main.c      ****     MOTOR_PutChar(AX_GOAL_LENGTH);
 139              		.loc 1 32 0
ARM GAS  C:\Users\HENRYA~1\AppData\Local\Temp\ccgVxlis.s 			page 4


 140 0028 0520     		mov	r0, #5
 141 002a FFF7FEFF 		bl	MOTOR_PutChar
 142              	.LVL18:
  33:.\main.c      ****     MOTOR_PutChar(AX_WRITE_DATA);
 143              		.loc 1 33 0
 144 002e 0320     		mov	r0, #3
 145 0030 FFF7FEFF 		bl	MOTOR_PutChar
 146              	.LVL19:
  34:.\main.c      ****     MOTOR_PutChar(AX_GOAL_POSITION_L);
 147              		.loc 1 34 0
 148 0034 1E20     		mov	r0, #30
 149 0036 FFF7FEFF 		bl	MOTOR_PutChar
 150              	.LVL20:
  35:.\main.c      ****     MOTOR_PutChar(Position_L);
 151              		.loc 1 35 0
 152 003a 281C     		mov	r0, r5
 153 003c FFF7FEFF 		bl	MOTOR_PutChar
 154              	.LVL21:
  36:.\main.c      ****     MOTOR_PutChar(Position_H);
 155              		.loc 1 36 0
 156 0040 301C     		mov	r0, r6
 157 0042 FFF7FEFF 		bl	MOTOR_PutChar
 158              	.LVL22:
  37:.\main.c      ****     MOTOR_PutChar(Checksum);
 159              		.loc 1 37 0
 160 0046 3878     		ldrb	r0, [r7]
 161 0048 FFF7FEFF 		bl	MOTOR_PutChar
 162              	.LVL23:
  38:.\main.c      **** 	CyDelayUs(TX_DELAY_TIME);
 163              		.loc 1 38 0
 164 004c C820     		mov	r0, #200
 165 004e 4000     		lsl	r0, r0, #1
 166 0050 FFF7FEFF 		bl	CyDelayUs
 167              	.LVL24:
  39:.\main.c      ****     // Return the read error
  40:.\main.c      ****     return MOTOR_ReadRxData();                 
 168              		.loc 1 40 0
 169 0054 FFF7FEFF 		bl	MOTOR_ReadRxData
 170              	.LVL25:
  41:.\main.c      **** }
 171              		.loc 1 41 0
 172              		@ sp needed
 173              	.LVL26:
 174              	.LVL27:
 175 0058 F8BD     		pop	{r3, r4, r5, r6, r7, pc}
 176              	.L6:
 177 005a C046     		.align	2
 178              	.L5:
 179 005c 00000000 		.word	Checksum
 180              		.cfi_endproc
 181              	.LFE37:
 182              		.size	Move, .-Move
 183              		.section	.text.setEndless,"ax",%progbits
 184              		.align	2
 185              		.global	setEndless
 186              		.code	16
 187              		.thumb_func
ARM GAS  C:\Users\HENRYA~1\AppData\Local\Temp\ccgVxlis.s 			page 5


 188              		.type	setEndless, %function
 189              	setEndless:
 190              	.LFB38:
  42:.\main.c      **** 
  43:.\main.c      **** int setEndless(unsigned char ID, int Status){
 191              		.loc 1 43 0
 192              		.cfi_startproc
 193              	.LVL28:
 194 0000 38B5     		push	{r3, r4, r5, lr}
 195              		.cfi_def_cfa_offset 16
 196              		.cfi_offset 3, -16
 197              		.cfi_offset 4, -12
 198              		.cfi_offset 5, -8
 199              		.cfi_offset 14, -4
 200 0002 041C     		mov	r4, r0
  44:.\main.c      ****     if (Status){	
 201              		.loc 1 44 0
 202 0004 0029     		cmp	r1, #0
 203 0006 26D0     		beq	.L8
 204              	.LVL29:
 205              	.LBB2:
  45:.\main.c      ****     char AX_CCW_AL_LT = 0;     
  46:.\main.c      ****     // Changing the CCW Angle Limits for Full Rotation.
  47:.\main.c      **** 	Checksum = (~(ID + AX_GOAL_LENGTH + AX_WRITE_DATA + AX_CCW_ANGLE_LIMIT_L))&0xFF;
 206              		.loc 1 47 0
 207 0008 264D     		ldr	r5, .L10
 208 000a 031C     		mov	r3, r0
 209 000c 1033     		add	r3, r3, #16
 210 000e DB43     		mvn	r3, r3
 211 0010 2B70     		strb	r3, [r5]
  48:.\main.c      ****     // Send Instructions over Serial
  49:.\main.c      ****     //Checksum for verification data to send
  50:.\main.c      ****     MOTOR_PutChar(AX_START);                
 212              		.loc 1 50 0
 213 0012 FF20     		mov	r0, #255
 214              	.LVL30:
 215 0014 FFF7FEFF 		bl	MOTOR_PutChar
 216              	.LVL31:
  51:.\main.c      ****     MOTOR_PutChar(AX_START);
 217              		.loc 1 51 0
 218 0018 FF20     		mov	r0, #255
 219 001a FFF7FEFF 		bl	MOTOR_PutChar
 220              	.LVL32:
  52:.\main.c      ****     MOTOR_PutChar(ID);
 221              		.loc 1 52 0
 222 001e 201C     		mov	r0, r4
 223 0020 FFF7FEFF 		bl	MOTOR_PutChar
 224              	.LVL33:
  53:.\main.c      ****     MOTOR_PutChar(AX_GOAL_LENGTH);
 225              		.loc 1 53 0
 226 0024 0520     		mov	r0, #5
 227 0026 FFF7FEFF 		bl	MOTOR_PutChar
 228              	.LVL34:
  54:.\main.c      ****     MOTOR_PutChar(AX_WRITE_DATA);
 229              		.loc 1 54 0
 230 002a 0320     		mov	r0, #3
 231 002c FFF7FEFF 		bl	MOTOR_PutChar
ARM GAS  C:\Users\HENRYA~1\AppData\Local\Temp\ccgVxlis.s 			page 6


 232              	.LVL35:
  55:.\main.c      ****     MOTOR_PutChar(AX_CCW_ANGLE_LIMIT_L );
 233              		.loc 1 55 0
 234 0030 0820     		mov	r0, #8
 235 0032 FFF7FEFF 		bl	MOTOR_PutChar
 236              	.LVL36:
  56:.\main.c      ****     MOTOR_PutChar(AX_CCW_AL_LT);
 237              		.loc 1 56 0
 238 0036 0020     		mov	r0, #0
 239 0038 FFF7FEFF 		bl	MOTOR_PutChar
 240              	.LVL37:
  57:.\main.c      ****     MOTOR_PutChar(AX_CCW_AL_LT);
 241              		.loc 1 57 0
 242 003c 0020     		mov	r0, #0
 243 003e FFF7FEFF 		bl	MOTOR_PutChar
 244              	.LVL38:
  58:.\main.c      ****     MOTOR_PutChar(Checksum);
 245              		.loc 1 58 0
 246 0042 2878     		ldrb	r0, [r5]
 247 0044 FFF7FEFF 		bl	MOTOR_PutChar
 248              	.LVL39:
  59:.\main.c      ****     CyDelayUs(TX_DELAY_TIME);
 249              		.loc 1 59 0
 250 0048 C820     		mov	r0, #200
 251 004a 4000     		lsl	r0, r0, #1
 252 004c FFF7FEFF 		bl	CyDelayUs
 253              	.LVL40:
  60:.\main.c      **** 	return MOTOR_ReadRxData(); 
 254              		.loc 1 60 0
 255 0050 FFF7FEFF 		bl	MOTOR_ReadRxData
 256              	.LVL41:
 257 0054 25E0     		b	.L9
 258              	.LVL42:
 259              	.L8:
 260              	.LBE2:
  61:.\main.c      ****  }
  62:.\main.c      ****  else{
  63:.\main.c      **** 	Checksum = (~(ID + AX_GOAL_LENGTH + AX_WRITE_DATA + AX_CCW_ANGLE_LIMIT_L + AX_CCW_AL_L + AX_CCW_AL
 261              		.loc 1 63 0
 262 0056 134D     		ldr	r5, .L10
 263 0058 031C     		mov	r3, r0
 264 005a 1233     		add	r3, r3, #18
 265 005c DB43     		mvn	r3, r3
 266 005e 2B70     		strb	r3, [r5]
  64:.\main.c      ****     // Send Instructions over Serial
  65:.\main.c      ****     //Checksum for verification data to send
  66:.\main.c      **** 	MOTOR_PutChar(AX_START);                 
 267              		.loc 1 66 0
 268 0060 FF20     		mov	r0, #255
 269              	.LVL43:
 270 0062 FFF7FEFF 		bl	MOTOR_PutChar
 271              	.LVL44:
  67:.\main.c      **** 	MOTOR_PutChar(AX_START);
 272              		.loc 1 67 0
 273 0066 FF20     		mov	r0, #255
 274 0068 FFF7FEFF 		bl	MOTOR_PutChar
 275              	.LVL45:
ARM GAS  C:\Users\HENRYA~1\AppData\Local\Temp\ccgVxlis.s 			page 7


  68:.\main.c      **** 	MOTOR_PutChar(ID);
 276              		.loc 1 68 0
 277 006c 201C     		mov	r0, r4
 278 006e FFF7FEFF 		bl	MOTOR_PutChar
 279              	.LVL46:
  69:.\main.c      **** 	MOTOR_PutChar(AX_GOAL_LENGTH);
 280              		.loc 1 69 0
 281 0072 0520     		mov	r0, #5
 282 0074 FFF7FEFF 		bl	MOTOR_PutChar
 283              	.LVL47:
  70:.\main.c      **** 	MOTOR_PutChar(AX_WRITE_DATA);
 284              		.loc 1 70 0
 285 0078 0320     		mov	r0, #3
 286 007a FFF7FEFF 		bl	MOTOR_PutChar
 287              	.LVL48:
  71:.\main.c      **** 	MOTOR_PutChar(AX_CCW_ANGLE_LIMIT_L);
 288              		.loc 1 71 0
 289 007e 0820     		mov	r0, #8
 290 0080 FFF7FEFF 		bl	MOTOR_PutChar
 291              	.LVL49:
  72:.\main.c      **** 	MOTOR_PutChar(AX_CCW_AL_L);
 292              		.loc 1 72 0
 293 0084 FF20     		mov	r0, #255
 294 0086 FFF7FEFF 		bl	MOTOR_PutChar
 295              	.LVL50:
  73:.\main.c      **** 	MOTOR_PutChar(AX_CCW_AL_H);
 296              		.loc 1 73 0
 297 008a 0320     		mov	r0, #3
 298 008c FFF7FEFF 		bl	MOTOR_PutChar
 299              	.LVL51:
  74:.\main.c      **** 	MOTOR_PutChar(Checksum);
 300              		.loc 1 74 0
 301 0090 2878     		ldrb	r0, [r5]
 302 0092 FFF7FEFF 		bl	MOTOR_PutChar
 303              	.LVL52:
  75:.\main.c      **** 	CyDelayUs(TX_DELAY_TIME);
 304              		.loc 1 75 0
 305 0096 C820     		mov	r0, #200
 306 0098 4000     		lsl	r0, r0, #1
 307 009a FFF7FEFF 		bl	CyDelayUs
 308              	.LVL53:
  76:.\main.c      ****     // Return the read error
  77:.\main.c      **** 	return MOTOR_ReadRxData();                 
 309              		.loc 1 77 0
 310 009e FFF7FEFF 		bl	MOTOR_ReadRxData
 311              	.LVL54:
 312              	.L9:
  78:.\main.c      ****   }
  79:.\main.c      ****  } 
 313              		.loc 1 79 0
 314              		@ sp needed
 315 00a2 38BD     		pop	{r3, r4, r5, pc}
 316              	.L11:
 317              		.align	2
 318              	.L10:
 319 00a4 00000000 		.word	Checksum
 320              		.cfi_endproc
ARM GAS  C:\Users\HENRYA~1\AppData\Local\Temp\ccgVxlis.s 			page 8


 321              	.LFE38:
 322              		.size	setEndless, .-setEndless
 323              		.section	.text.torqueStatus,"ax",%progbits
 324              		.align	2
 325              		.global	torqueStatus
 326              		.code	16
 327              		.thumb_func
 328              		.type	torqueStatus, %function
 329              	torqueStatus:
 330              	.LFB39:
  80:.\main.c      **** 
  81:.\main.c      **** int torqueStatus( unsigned char ID, int Status){
 331              		.loc 1 81 0
 332              		.cfi_startproc
 333              	.LVL55:
 334 0000 70B5     		push	{r4, r5, r6, lr}
 335              		.cfi_def_cfa_offset 16
 336              		.cfi_offset 4, -16
 337              		.cfi_offset 5, -12
 338              		.cfi_offset 6, -8
 339              		.cfi_offset 14, -4
 340 0002 041C     		mov	r4, r0
  82:.\main.c      ****     Checksum = (~(ID + AX_TORQUE_LENGTH + AX_WRITE_DATA + AX_TORQUE_ENABLE + Status))&0xFF;
 341              		.loc 1 82 0
 342 0004 CDB2     		uxtb	r5, r1
 343 0006 124E     		ldr	r6, .L13
 344 0008 2B18     		add	r3, r5, r0
 345 000a 1F33     		add	r3, r3, #31
 346 000c DB43     		mvn	r3, r3
 347 000e 3370     		strb	r3, [r6]
  83:.\main.c      ****     // Send Instructions over Serial
  84:.\main.c      ****     //Checksum for verification data to send
  85:.\main.c      ****     MOTOR_PutChar(AX_START); 
 348              		.loc 1 85 0
 349 0010 FF20     		mov	r0, #255
 350              	.LVL56:
 351 0012 FFF7FEFF 		bl	MOTOR_PutChar
 352              	.LVL57:
  86:.\main.c      ****     MOTOR_PutChar(AX_START);
 353              		.loc 1 86 0
 354 0016 FF20     		mov	r0, #255
 355 0018 FFF7FEFF 		bl	MOTOR_PutChar
 356              	.LVL58:
  87:.\main.c      ****     MOTOR_PutChar(ID);
 357              		.loc 1 87 0
 358 001c 201C     		mov	r0, r4
 359 001e FFF7FEFF 		bl	MOTOR_PutChar
 360              	.LVL59:
  88:.\main.c      ****     MOTOR_PutChar(AX_TORQUE_LENGTH);
 361              		.loc 1 88 0
 362 0022 0420     		mov	r0, #4
 363 0024 FFF7FEFF 		bl	MOTOR_PutChar
 364              	.LVL60:
  89:.\main.c      ****     MOTOR_PutChar(AX_WRITE_DATA);
 365              		.loc 1 89 0
 366 0028 0320     		mov	r0, #3
 367 002a FFF7FEFF 		bl	MOTOR_PutChar
ARM GAS  C:\Users\HENRYA~1\AppData\Local\Temp\ccgVxlis.s 			page 9


 368              	.LVL61:
  90:.\main.c      ****     MOTOR_PutChar(AX_TORQUE_ENABLE);
 369              		.loc 1 90 0
 370 002e 1820     		mov	r0, #24
 371 0030 FFF7FEFF 		bl	MOTOR_PutChar
 372              	.LVL62:
  91:.\main.c      ****     MOTOR_PutChar(Status);
 373              		.loc 1 91 0
 374 0034 281C     		mov	r0, r5
 375 0036 FFF7FEFF 		bl	MOTOR_PutChar
 376              	.LVL63:
  92:.\main.c      ****     MOTOR_PutChar(Checksum);
 377              		.loc 1 92 0
 378 003a 3078     		ldrb	r0, [r6]
 379 003c FFF7FEFF 		bl	MOTOR_PutChar
 380              	.LVL64:
  93:.\main.c      ****     CyDelayUs(TX_DELAY_TIME);
 381              		.loc 1 93 0
 382 0040 C820     		mov	r0, #200
 383 0042 4000     		lsl	r0, r0, #1
 384 0044 FFF7FEFF 		bl	CyDelayUs
 385              	.LVL65:
  94:.\main.c      ****     // Return the read error
  95:.\main.c      ****     return MOTOR_ReadRxData();               
 386              		.loc 1 95 0
 387 0048 FFF7FEFF 		bl	MOTOR_ReadRxData
 388              	.LVL66:
  96:.\main.c      **** }
 389              		.loc 1 96 0
 390              		@ sp needed
 391 004c 70BD     		pop	{r4, r5, r6, pc}
 392              	.L14:
 393 004e C046     		.align	2
 394              	.L13:
 395 0050 00000000 		.word	Checksum
 396              		.cfi_endproc
 397              	.LFE39:
 398              		.size	torqueStatus, .-torqueStatus
 399              		.section	.text.MoveSpeed,"ax",%progbits
 400              		.align	2
 401              		.global	MoveSpeed
 402              		.code	16
 403              		.thumb_func
 404              		.type	MoveSpeed, %function
 405              	MoveSpeed:
 406              	.LFB40:
  97:.\main.c      **** 
  98:.\main.c      **** int MoveSpeed(unsigned char ID, int Position, int Speed){
 407              		.loc 1 98 0
 408              		.cfi_startproc
 409              	.LVL67:
 410 0000 F0B5     		push	{r4, r5, r6, r7, lr}
 411              		.cfi_def_cfa_offset 20
 412              		.cfi_offset 4, -20
 413              		.cfi_offset 5, -16
 414              		.cfi_offset 6, -12
 415              		.cfi_offset 7, -8
ARM GAS  C:\Users\HENRYA~1\AppData\Local\Temp\ccgVxlis.s 			page 10


 416              		.cfi_offset 14, -4
 417 0002 4746     		mov	r7, r8
 418 0004 80B4     		push	{r7}
 419              		.cfi_def_cfa_offset 24
 420              		.cfi_offset 8, -24
 421 0006 82B0     		sub	sp, sp, #8
 422              		.cfi_def_cfa_offset 32
  99:.\main.c      ****     char Position_H,Position_L,Speed_H,Speed_L;
 100:.\main.c      ****     //Shift register 16 bits
 101:.\main.c      ****     Position_H = Position >> 8;    
 423              		.loc 1 101 0
 424 0008 0B12     		asr	r3, r1, #8
 425 000a DBB2     		uxtb	r3, r3
 426 000c 9846     		mov	r8, r3
 427              	.LVL68:
 102:.\main.c      ****     Position_L = Position;                
 428              		.loc 1 102 0
 429 000e CEB2     		uxtb	r6, r1
 430              	.LVL69:
 103:.\main.c      ****     //Shift register 16 bits
 104:.\main.c      ****     Speed_H = Speed >> 8;
 431              		.loc 1 104 0
 432 0010 1712     		asr	r7, r2, #8
 433 0012 FFB2     		uxtb	r7, r7
 434              	.LVL70:
 105:.\main.c      ****     Speed_L = Speed;        
 435              		.loc 1 105 0
 436 0014 D4B2     		uxtb	r4, r2
 437              	.LVL71:
 106:.\main.c      ****     //Checksum for verification data to send
 107:.\main.c      **** 	Checksum = (~(ID + AX_GOAL_SP_LENGTH + AX_WRITE_DATA + AX_GOAL_POSITION_L + Position_L + Position_
 438              		.loc 1 107 0
 439 0016 1A4D     		ldr	r5, .L16
 440 0018 0190     		str	r0, [sp, #4]
 441 001a 8319     		add	r3, r0, r6
 442 001c 4344     		add	r3, r3, r8
 443 001e E318     		add	r3, r4, r3
 444 0020 FB18     		add	r3, r7, r3
 445 0022 2833     		add	r3, r3, #40
 446 0024 DB43     		mvn	r3, r3
 447 0026 2B70     		strb	r3, [r5]
 108:.\main.c      ****     // Send Instructions over Serial
 109:.\main.c      ****     MOTOR_PutChar(AX_START);
 448              		.loc 1 109 0
 449 0028 FF20     		mov	r0, #255
 450              	.LVL72:
 451 002a FFF7FEFF 		bl	MOTOR_PutChar
 452              	.LVL73:
 110:.\main.c      ****     MOTOR_PutChar(AX_START);
 453              		.loc 1 110 0
 454 002e FF20     		mov	r0, #255
 455 0030 FFF7FEFF 		bl	MOTOR_PutChar
 456              	.LVL74:
 111:.\main.c      ****     MOTOR_PutChar(ID);
 457              		.loc 1 111 0
 458 0034 0198     		ldr	r0, [sp, #4]
 459 0036 FFF7FEFF 		bl	MOTOR_PutChar
ARM GAS  C:\Users\HENRYA~1\AppData\Local\Temp\ccgVxlis.s 			page 11


 460              	.LVL75:
 112:.\main.c      ****     MOTOR_PutChar(AX_GOAL_SP_LENGTH);
 461              		.loc 1 112 0
 462 003a 0720     		mov	r0, #7
 463 003c FFF7FEFF 		bl	MOTOR_PutChar
 464              	.LVL76:
 113:.\main.c      ****     MOTOR_PutChar(AX_WRITE_DATA);
 465              		.loc 1 113 0
 466 0040 0320     		mov	r0, #3
 467 0042 FFF7FEFF 		bl	MOTOR_PutChar
 468              	.LVL77:
 114:.\main.c      ****     MOTOR_PutChar(AX_GOAL_POSITION_L);
 469              		.loc 1 114 0
 470 0046 1E20     		mov	r0, #30
 471 0048 FFF7FEFF 		bl	MOTOR_PutChar
 472              	.LVL78:
 115:.\main.c      ****     MOTOR_PutChar(Position_L);
 473              		.loc 1 115 0
 474 004c 301C     		mov	r0, r6
 475 004e FFF7FEFF 		bl	MOTOR_PutChar
 476              	.LVL79:
 116:.\main.c      ****     MOTOR_PutChar(Position_H);
 477              		.loc 1 116 0
 478 0052 4046     		mov	r0, r8
 479 0054 FFF7FEFF 		bl	MOTOR_PutChar
 480              	.LVL80:
 117:.\main.c      ****     MOTOR_PutChar(Speed_L);
 481              		.loc 1 117 0
 482 0058 201C     		mov	r0, r4
 483 005a FFF7FEFF 		bl	MOTOR_PutChar
 484              	.LVL81:
 118:.\main.c      ****     MOTOR_PutChar(Speed_H);
 485              		.loc 1 118 0
 486 005e 381C     		mov	r0, r7
 487 0060 FFF7FEFF 		bl	MOTOR_PutChar
 488              	.LVL82:
 119:.\main.c      ****     MOTOR_PutChar(Checksum);
 489              		.loc 1 119 0
 490 0064 2878     		ldrb	r0, [r5]
 491 0066 FFF7FEFF 		bl	MOTOR_PutChar
 492              	.LVL83:
 120:.\main.c      ****     CyDelayUs(TX_DELAY_TIME);
 493              		.loc 1 120 0
 494 006a C820     		mov	r0, #200
 495 006c 4000     		lsl	r0, r0, #1
 496 006e FFF7FEFF 		bl	CyDelayUs
 497              	.LVL84:
 121:.\main.c      ****     // Return the read error
 122:.\main.c      ****     return MOTOR_ReadRxData();                
 498              		.loc 1 122 0
 499 0072 FFF7FEFF 		bl	MOTOR_ReadRxData
 500              	.LVL85:
 123:.\main.c      **** }
 501              		.loc 1 123 0
 502 0076 02B0     		add	sp, sp, #8
 503              		@ sp needed
 504              	.LVL86:
ARM GAS  C:\Users\HENRYA~1\AppData\Local\Temp\ccgVxlis.s 			page 12


 505              	.LVL87:
 506              	.LVL88:
 507              	.LVL89:
 508 0078 04BC     		pop	{r2}
 509 007a 9046     		mov	r8, r2
 510 007c F0BD     		pop	{r4, r5, r6, r7, pc}
 511              	.L17:
 512 007e C046     		.align	2
 513              	.L16:
 514 0080 00000000 		.word	Checksum
 515              		.cfi_endproc
 516              	.LFE40:
 517              		.size	MoveSpeed, .-MoveSpeed
 518              		.section	.text.moveRW,"ax",%progbits
 519              		.align	2
 520              		.global	moveRW
 521              		.code	16
 522              		.thumb_func
 523              		.type	moveRW, %function
 524              	moveRW:
 525              	.LFB41:
 124:.\main.c      **** 
 125:.\main.c      **** int moveRW(unsigned char ID, int Position){
 526              		.loc 1 125 0
 527              		.cfi_startproc
 528              	.LVL90:
 529 0000 F8B5     		push	{r3, r4, r5, r6, r7, lr}
 530              		.cfi_def_cfa_offset 24
 531              		.cfi_offset 3, -24
 532              		.cfi_offset 4, -20
 533              		.cfi_offset 5, -16
 534              		.cfi_offset 6, -12
 535              		.cfi_offset 7, -8
 536              		.cfi_offset 14, -4
 537 0002 041C     		mov	r4, r0
 126:.\main.c      ****     char Position_H,Position_L;
 127:.\main.c      ****     //Shift register 16 bits
 128:.\main.c      ****     Position_H = Position >> 8;           
 538              		.loc 1 128 0
 539 0004 0E12     		asr	r6, r1, #8
 540 0006 F6B2     		uxtb	r6, r6
 541              	.LVL91:
 129:.\main.c      ****     Position_L = Position;
 542              		.loc 1 129 0
 543 0008 CDB2     		uxtb	r5, r1
 544              	.LVL92:
 130:.\main.c      ****     //Checksum for verification data to send
 131:.\main.c      ****     Checksum = (~(ID + AX_GOAL_LENGTH + AX_REG_WRITE + AX_GOAL_POSITION_L + Position_L + Position_H
 545              		.loc 1 131 0
 546 000a 144F     		ldr	r7, .L19
 547 000c 4319     		add	r3, r0, r5
 548 000e F318     		add	r3, r6, r3
 549 0010 2733     		add	r3, r3, #39
 550 0012 DB43     		mvn	r3, r3
 551 0014 3B70     		strb	r3, [r7]
 132:.\main.c      ****     // Send Instructions over Serial
 133:.\main.c      ****     MOTOR_PutChar(AX_START); 
ARM GAS  C:\Users\HENRYA~1\AppData\Local\Temp\ccgVxlis.s 			page 13


 552              		.loc 1 133 0
 553 0016 FF20     		mov	r0, #255
 554              	.LVL93:
 555 0018 FFF7FEFF 		bl	MOTOR_PutChar
 556              	.LVL94:
 134:.\main.c      ****     MOTOR_PutChar(AX_START);
 557              		.loc 1 134 0
 558 001c FF20     		mov	r0, #255
 559 001e FFF7FEFF 		bl	MOTOR_PutChar
 560              	.LVL95:
 135:.\main.c      ****     MOTOR_PutChar(ID);
 561              		.loc 1 135 0
 562 0022 201C     		mov	r0, r4
 563 0024 FFF7FEFF 		bl	MOTOR_PutChar
 564              	.LVL96:
 136:.\main.c      ****     MOTOR_PutChar(AX_GOAL_LENGTH);
 565              		.loc 1 136 0
 566 0028 0520     		mov	r0, #5
 567 002a FFF7FEFF 		bl	MOTOR_PutChar
 568              	.LVL97:
 137:.\main.c      ****     MOTOR_PutChar(AX_REG_WRITE);
 569              		.loc 1 137 0
 570 002e 0420     		mov	r0, #4
 571 0030 FFF7FEFF 		bl	MOTOR_PutChar
 572              	.LVL98:
 138:.\main.c      ****     MOTOR_PutChar(AX_GOAL_POSITION_L);
 573              		.loc 1 138 0
 574 0034 1E20     		mov	r0, #30
 575 0036 FFF7FEFF 		bl	MOTOR_PutChar
 576              	.LVL99:
 139:.\main.c      ****     MOTOR_PutChar(Position_L);
 577              		.loc 1 139 0
 578 003a 281C     		mov	r0, r5
 579 003c FFF7FEFF 		bl	MOTOR_PutChar
 580              	.LVL100:
 140:.\main.c      ****     MOTOR_PutChar(Position_H);
 581              		.loc 1 140 0
 582 0040 301C     		mov	r0, r6
 583 0042 FFF7FEFF 		bl	MOTOR_PutChar
 584              	.LVL101:
 141:.\main.c      ****     MOTOR_PutChar(Checksum);
 585              		.loc 1 141 0
 586 0046 3878     		ldrb	r0, [r7]
 587 0048 FFF7FEFF 		bl	MOTOR_PutChar
 588              	.LVL102:
 142:.\main.c      **** 	CyDelayUs(TX_DELAY_TIME);
 589              		.loc 1 142 0
 590 004c C820     		mov	r0, #200
 591 004e 4000     		lsl	r0, r0, #1
 592 0050 FFF7FEFF 		bl	CyDelayUs
 593              	.LVL103:
 143:.\main.c      ****     // Return the read error
 144:.\main.c      ****     return MOTOR_ReadRxData();                  
 594              		.loc 1 144 0
 595 0054 FFF7FEFF 		bl	MOTOR_ReadRxData
 596              	.LVL104:
 145:.\main.c      **** }
ARM GAS  C:\Users\HENRYA~1\AppData\Local\Temp\ccgVxlis.s 			page 14


 597              		.loc 1 145 0
 598              		@ sp needed
 599              	.LVL105:
 600              	.LVL106:
 601 0058 F8BD     		pop	{r3, r4, r5, r6, r7, pc}
 602              	.L20:
 603 005a C046     		.align	2
 604              	.L19:
 605 005c 00000000 		.word	Checksum
 606              		.cfi_endproc
 607              	.LFE41:
 608              		.size	moveRW, .-moveRW
 609              		.section	.text.action,"ax",%progbits
 610              		.align	2
 611              		.global	action
 612              		.code	16
 613              		.thumb_func
 614              		.type	action, %function
 615              	action:
 616              	.LFB42:
 146:.\main.c      **** 
 147:.\main.c      **** void action(){
 617              		.loc 1 147 0
 618              		.cfi_startproc
 619 0000 08B5     		push	{r3, lr}
 620              		.cfi_def_cfa_offset 8
 621              		.cfi_offset 3, -8
 622              		.cfi_offset 14, -4
 148:.\main.c      **** 	// Send Instructions over Serial
 149:.\main.c      ****     MOTOR_PutChar(AX_START);                
 623              		.loc 1 149 0
 624 0002 FF20     		mov	r0, #255
 625 0004 FFF7FEFF 		bl	MOTOR_PutChar
 626              	.LVL107:
 150:.\main.c      ****     MOTOR_PutChar(AX_START);
 627              		.loc 1 150 0
 628 0008 FF20     		mov	r0, #255
 629 000a FFF7FEFF 		bl	MOTOR_PutChar
 630              	.LVL108:
 151:.\main.c      ****     MOTOR_PutChar(BROADCAST_ID);
 631              		.loc 1 151 0
 632 000e FE20     		mov	r0, #254
 633 0010 FFF7FEFF 		bl	MOTOR_PutChar
 634              	.LVL109:
 152:.\main.c      ****     MOTOR_PutChar(AX_ACTION_LENGTH);
 635              		.loc 1 152 0
 636 0014 0220     		mov	r0, #2
 637 0016 FFF7FEFF 		bl	MOTOR_PutChar
 638              	.LVL110:
 153:.\main.c      ****     MOTOR_PutChar(AX_ACTION);
 639              		.loc 1 153 0
 640 001a 0520     		mov	r0, #5
 641 001c FFF7FEFF 		bl	MOTOR_PutChar
 642              	.LVL111:
 154:.\main.c      ****     MOTOR_PutChar(AX_ACTION_CHECKSUM);
 643              		.loc 1 154 0
 644 0020 FA20     		mov	r0, #250
ARM GAS  C:\Users\HENRYA~1\AppData\Local\Temp\ccgVxlis.s 			page 15


 645 0022 FFF7FEFF 		bl	MOTOR_PutChar
 646              	.LVL112:
 155:.\main.c      **** 	CyDelayUs(TX_DELAY_TIME);
 647              		.loc 1 155 0
 648 0026 C820     		mov	r0, #200
 649 0028 4000     		lsl	r0, r0, #1
 650 002a FFF7FEFF 		bl	CyDelayUs
 651              	.LVL113:
 156:.\main.c      **** }
 652              		.loc 1 156 0
 653              		@ sp needed
 654 002e 08BD     		pop	{r3, pc}
 655              		.cfi_endproc
 656              	.LFE42:
 657              		.size	action, .-action
 658              		.section	.text.turn,"ax",%progbits
 659              		.align	2
 660              		.global	turn
 661              		.code	16
 662              		.thumb_func
 663              		.type	turn, %function
 664              	turn:
 665              	.LFB43:
 157:.\main.c      **** 
 158:.\main.c      **** int turn(unsigned char ID, int SIDE, int Speed){		
 666              		.loc 1 158 0
 667              		.cfi_startproc
 668              	.LVL114:
 669 0000 F8B5     		push	{r3, r4, r5, r6, r7, lr}
 670              		.cfi_def_cfa_offset 24
 671              		.cfi_offset 3, -24
 672              		.cfi_offset 4, -20
 673              		.cfi_offset 5, -16
 674              		.cfi_offset 6, -12
 675              		.cfi_offset 7, -8
 676              		.cfi_offset 14, -4
 677 0002 051C     		mov	r5, r0
 159:.\main.c      **** 		if (SIDE == 0){                          
 678              		.loc 1 159 0
 679 0004 0029     		cmp	r1, #0
 680 0006 2AD1     		bne	.L23
 681              	.LBB3:
 160:.\main.c      **** 			//Left Move
 161:.\main.c      **** 			char Speed_H,Speed_L;
 162:.\main.c      ****             //Shift register 16 bits
 163:.\main.c      **** 			Speed_H = Speed >> 8;
 682              		.loc 1 163 0
 683 0008 1612     		asr	r6, r2, #8
 684 000a F6B2     		uxtb	r6, r6
 685              	.LVL115:
 164:.\main.c      **** 			Speed_L = Speed;        
 686              		.loc 1 164 0
 687 000c D4B2     		uxtb	r4, r2
 688              	.LVL116:
 165:.\main.c      ****             //Checksum for verification data to send
 166:.\main.c      **** 			Checksum = (~(ID + AX_SPEED_LENGTH + AX_WRITE_DATA + AX_GOAL_SPEED_L + Speed_L + Speed_H))&0xFF;
 689              		.loc 1 166 0
ARM GAS  C:\Users\HENRYA~1\AppData\Local\Temp\ccgVxlis.s 			page 16


 690 000e 2A4F     		ldr	r7, .L25
 691 0010 0319     		add	r3, r0, r4
 692 0012 F318     		add	r3, r6, r3
 693 0014 2833     		add	r3, r3, #40
 694 0016 DB43     		mvn	r3, r3
 695 0018 3B70     		strb	r3, [r7]
 167:.\main.c      **** 		    // Send Instructions over Serial
 168:.\main.c      **** 			MOTOR_PutChar(AX_START);                
 696              		.loc 1 168 0
 697 001a FF20     		mov	r0, #255
 698              	.LVL117:
 699 001c FFF7FEFF 		bl	MOTOR_PutChar
 700              	.LVL118:
 169:.\main.c      **** 			MOTOR_PutChar(AX_START);
 701              		.loc 1 169 0
 702 0020 FF20     		mov	r0, #255
 703 0022 FFF7FEFF 		bl	MOTOR_PutChar
 704              	.LVL119:
 170:.\main.c      **** 			MOTOR_PutChar(ID);
 705              		.loc 1 170 0
 706 0026 281C     		mov	r0, r5
 707 0028 FFF7FEFF 		bl	MOTOR_PutChar
 708              	.LVL120:
 171:.\main.c      **** 			MOTOR_PutChar(AX_SPEED_LENGTH);
 709              		.loc 1 171 0
 710 002c 0520     		mov	r0, #5
 711 002e FFF7FEFF 		bl	MOTOR_PutChar
 712              	.LVL121:
 172:.\main.c      **** 			MOTOR_PutChar(AX_WRITE_DATA);
 713              		.loc 1 172 0
 714 0032 0320     		mov	r0, #3
 715 0034 FFF7FEFF 		bl	MOTOR_PutChar
 716              	.LVL122:
 173:.\main.c      **** 			MOTOR_PutChar(AX_GOAL_SPEED_L);
 717              		.loc 1 173 0
 718 0038 2020     		mov	r0, #32
 719 003a FFF7FEFF 		bl	MOTOR_PutChar
 720              	.LVL123:
 174:.\main.c      **** 			MOTOR_PutChar(Speed_L);
 721              		.loc 1 174 0
 722 003e 201C     		mov	r0, r4
 723 0040 FFF7FEFF 		bl	MOTOR_PutChar
 724              	.LVL124:
 175:.\main.c      **** 			MOTOR_PutChar(Speed_H);
 725              		.loc 1 175 0
 726 0044 301C     		mov	r0, r6
 727 0046 FFF7FEFF 		bl	MOTOR_PutChar
 728              	.LVL125:
 176:.\main.c      **** 			MOTOR_PutChar(Checksum);
 729              		.loc 1 176 0
 730 004a 3878     		ldrb	r0, [r7]
 731 004c FFF7FEFF 		bl	MOTOR_PutChar
 732              	.LVL126:
 177:.\main.c      **** 			CyDelayUs(TX_DELAY_TIME);
 733              		.loc 1 177 0
 734 0050 C820     		mov	r0, #200
 735 0052 4000     		lsl	r0, r0, #1
ARM GAS  C:\Users\HENRYA~1\AppData\Local\Temp\ccgVxlis.s 			page 17


 736 0054 FFF7FEFF 		bl	CyDelayUs
 737              	.LVL127:
 178:.\main.c      **** 			// Return the read error	
 179:.\main.c      **** 			return MOTOR_ReadRxData();                	
 738              		.loc 1 179 0
 739 0058 FFF7FEFF 		bl	MOTOR_ReadRxData
 740              	.LVL128:
 741 005c 2AE0     		b	.L24
 742              	.LVL129:
 743              	.L23:
 744              	.LBE3:
 745              	.LBB4:
 180:.\main.c      **** 		}
 181:.\main.c      **** 		else
 182:.\main.c      **** 		{                                            
 183:.\main.c      ****             // Rigth Move
 184:.\main.c      **** 			char Speed_H,Speed_L;
 185:.\main.c      ****             //Shift register 16 bits
 186:.\main.c      **** 			Speed_H = (Speed >> 8) + 4;
 746              		.loc 1 186 0
 747 005e 1612     		asr	r6, r2, #8
 748 0060 0436     		add	r6, r6, #4
 749 0062 F6B2     		uxtb	r6, r6
 750              	.LVL130:
 187:.\main.c      **** 			Speed_L = Speed;              
 751              		.loc 1 187 0
 752 0064 D4B2     		uxtb	r4, r2
 753              	.LVL131:
 188:.\main.c      ****             //Checksum for verification data to send
 189:.\main.c      **** 			Checksum = (~(ID + AX_SPEED_LENGTH + AX_WRITE_DATA + AX_GOAL_SPEED_L + Speed_L + Speed_H))&0xFF;
 754              		.loc 1 189 0
 755 0066 144F     		ldr	r7, .L25
 756 0068 0319     		add	r3, r0, r4
 757 006a F318     		add	r3, r6, r3
 758 006c 2833     		add	r3, r3, #40
 759 006e DB43     		mvn	r3, r3
 760 0070 3B70     		strb	r3, [r7]
 190:.\main.c      **** 			// Send Instructions over Serial
 191:.\main.c      **** 			MOTOR_PutChar(AX_START);                
 761              		.loc 1 191 0
 762 0072 FF20     		mov	r0, #255
 763              	.LVL132:
 764 0074 FFF7FEFF 		bl	MOTOR_PutChar
 765              	.LVL133:
 192:.\main.c      **** 			MOTOR_PutChar(AX_START);
 766              		.loc 1 192 0
 767 0078 FF20     		mov	r0, #255
 768 007a FFF7FEFF 		bl	MOTOR_PutChar
 769              	.LVL134:
 193:.\main.c      **** 			MOTOR_PutChar(ID);
 770              		.loc 1 193 0
 771 007e 281C     		mov	r0, r5
 772 0080 FFF7FEFF 		bl	MOTOR_PutChar
 773              	.LVL135:
 194:.\main.c      **** 			MOTOR_PutChar(AX_SPEED_LENGTH);
 774              		.loc 1 194 0
 775 0084 0520     		mov	r0, #5
ARM GAS  C:\Users\HENRYA~1\AppData\Local\Temp\ccgVxlis.s 			page 18


 776 0086 FFF7FEFF 		bl	MOTOR_PutChar
 777              	.LVL136:
 195:.\main.c      **** 			MOTOR_PutChar(AX_WRITE_DATA);
 778              		.loc 1 195 0
 779 008a 0320     		mov	r0, #3
 780 008c FFF7FEFF 		bl	MOTOR_PutChar
 781              	.LVL137:
 196:.\main.c      **** 			MOTOR_PutChar(AX_GOAL_SPEED_L);
 782              		.loc 1 196 0
 783 0090 2020     		mov	r0, #32
 784 0092 FFF7FEFF 		bl	MOTOR_PutChar
 785              	.LVL138:
 197:.\main.c      **** 			MOTOR_PutChar(Speed_L);
 786              		.loc 1 197 0
 787 0096 201C     		mov	r0, r4
 788 0098 FFF7FEFF 		bl	MOTOR_PutChar
 789              	.LVL139:
 198:.\main.c      **** 			MOTOR_PutChar(Speed_H);
 790              		.loc 1 198 0
 791 009c 301C     		mov	r0, r6
 792 009e FFF7FEFF 		bl	MOTOR_PutChar
 793              	.LVL140:
 199:.\main.c      **** 			MOTOR_PutChar(Checksum);
 794              		.loc 1 199 0
 795 00a2 3878     		ldrb	r0, [r7]
 796 00a4 FFF7FEFF 		bl	MOTOR_PutChar
 797              	.LVL141:
 200:.\main.c      **** 			CyDelayUs(TX_DELAY_TIME);
 798              		.loc 1 200 0
 799 00a8 C820     		mov	r0, #200
 800 00aa 4000     		lsl	r0, r0, #1
 801 00ac FFF7FEFF 		bl	CyDelayUs
 802              	.LVL142:
 201:.\main.c      **** 			// Return the read error			
 202:.\main.c      **** 			return MOTOR_ReadRxData();                	
 803              		.loc 1 202 0
 804 00b0 FFF7FEFF 		bl	MOTOR_ReadRxData
 805              	.LVL143:
 806              	.L24:
 807              	.LBE4:
 203:.\main.c      **** 		}
 204:.\main.c      **** }
 808              		.loc 1 204 0
 809              		@ sp needed
 810 00b4 F8BD     		pop	{r3, r4, r5, r6, r7, pc}
 811              	.L26:
 812 00b6 C046     		.align	2
 813              	.L25:
 814 00b8 00000000 		.word	Checksum
 815              		.cfi_endproc
 816              	.LFE43:
 817              		.size	turn, .-turn
 818              		.section	.text.main,"ax",%progbits
 819              		.align	2
 820              		.global	main
 821              		.code	16
 822              		.thumb_func
ARM GAS  C:\Users\HENRYA~1\AppData\Local\Temp\ccgVxlis.s 			page 19


 823              		.type	main, %function
 824              	main:
 825              	.LFB44:
 205:.\main.c      **** 
 206:.\main.c      **** int main(){
 826              		.loc 1 206 0
 827              		.cfi_startproc
 828 0000 70B5     		push	{r4, r5, r6, lr}
 829              		.cfi_def_cfa_offset 16
 830              		.cfi_offset 4, -16
 831              		.cfi_offset 5, -12
 832              		.cfi_offset 6, -8
 833              		.cfi_offset 14, -4
 207:.\main.c      ****     CyGlobalIntEnable;
 834              		.loc 1 207 0
 835              	@ 207 ".\main.c" 1
 836 0002 62B6     		CPSIE   i
 837              	@ 0 "" 2
 208:.\main.c      ****     MOTOR_Start();
 838              		.loc 1 208 0
 839              		.code	16
 840 0004 FFF7FEFF 		bl	MOTOR_Start
 841              	.LVL144:
 842              	.L28:
 209:.\main.c      ****     for(;;)
 210:.\main.c      ****     {
 211:.\main.c      ****         //Move Motor to Left
 212:.\main.c      ****         LED_2_Write(1);
 843              		.loc 1 212 0 discriminator 1
 844 0008 0120     		mov	r0, #1
 845 000a FFF7FEFF 		bl	LED_2_Write
 846              	.LVL145:
 213:.\main.c      ****         LED(1,1);
 847              		.loc 1 213 0 discriminator 1
 848 000e 0120     		mov	r0, #1
 849 0010 0121     		mov	r1, #1
 850 0012 FFF7FEFF 		bl	LED
 851              	.LVL146:
 214:.\main.c      ****         action();
 852              		.loc 1 214 0 discriminator 1
 853 0016 FFF7FEFF 		bl	action
 854              	.LVL147:
 215:.\main.c      ****         turn(1,0,300);
 855              		.loc 1 215 0 discriminator 1
 856 001a 9626     		mov	r6, #150
 857 001c 7600     		lsl	r6, r6, #1
 858 001e 0120     		mov	r0, #1
 859 0020 0021     		mov	r1, #0
 860 0022 321C     		mov	r2, r6
 861 0024 FFF7FEFF 		bl	turn
 862              	.LVL148:
 216:.\main.c      ****         Move(1,200);
 863              		.loc 1 216 0 discriminator 1
 864 0028 0120     		mov	r0, #1
 865 002a C821     		mov	r1, #200
 866 002c FFF7FEFF 		bl	Move
 867              	.LVL149:
ARM GAS  C:\Users\HENRYA~1\AppData\Local\Temp\ccgVxlis.s 			page 20


 217:.\main.c      ****         CyDelay(1000);
 868              		.loc 1 217 0 discriminator 1
 869 0030 FA25     		mov	r5, #250
 870 0032 AD00     		lsl	r5, r5, #2
 871 0034 281C     		mov	r0, r5
 872 0036 FFF7FEFF 		bl	CyDelay
 873              	.LVL150:
 218:.\main.c      ****         //Shutdown Motor
 219:.\main.c      ****         LED_2_Write(0);
 874              		.loc 1 219 0 discriminator 1
 875 003a 0020     		mov	r0, #0
 876 003c FFF7FEFF 		bl	LED_2_Write
 877              	.LVL151:
 220:.\main.c      ****         LED(1,0);
 878              		.loc 1 220 0 discriminator 1
 879 0040 0120     		mov	r0, #1
 880 0042 0021     		mov	r1, #0
 881 0044 FFF7FEFF 		bl	LED
 882              	.LVL152:
 221:.\main.c      ****         action();
 883              		.loc 1 221 0 discriminator 1
 884 0048 FFF7FEFF 		bl	action
 885              	.LVL153:
 222:.\main.c      ****         MoveSpeed(1,0,0);
 886              		.loc 1 222 0 discriminator 1
 887 004c 0120     		mov	r0, #1
 888 004e 0021     		mov	r1, #0
 889 0050 0022     		mov	r2, #0
 890 0052 FFF7FEFF 		bl	MoveSpeed
 891              	.LVL154:
 223:.\main.c      ****         CyDelay(2000);
 892              		.loc 1 223 0 discriminator 1
 893 0056 FA24     		mov	r4, #250
 894 0058 E400     		lsl	r4, r4, #3
 895 005a 201C     		mov	r0, r4
 896 005c FFF7FEFF 		bl	CyDelay
 897              	.LVL155:
 224:.\main.c      ****         //Move Motor to Rigth
 225:.\main.c      ****         LED_2_Write(1);
 898              		.loc 1 225 0 discriminator 1
 899 0060 0120     		mov	r0, #1
 900 0062 FFF7FEFF 		bl	LED_2_Write
 901              	.LVL156:
 226:.\main.c      ****         LED(1,1);
 902              		.loc 1 226 0 discriminator 1
 903 0066 0120     		mov	r0, #1
 904 0068 0121     		mov	r1, #1
 905 006a FFF7FEFF 		bl	LED
 906              	.LVL157:
 227:.\main.c      ****         action();
 907              		.loc 1 227 0 discriminator 1
 908 006e FFF7FEFF 		bl	action
 909              	.LVL158:
 228:.\main.c      ****         turn(1,1,300);
 910              		.loc 1 228 0 discriminator 1
 911 0072 0120     		mov	r0, #1
 912 0074 0121     		mov	r1, #1
ARM GAS  C:\Users\HENRYA~1\AppData\Local\Temp\ccgVxlis.s 			page 21


 913 0076 321C     		mov	r2, r6
 914 0078 FFF7FEFF 		bl	turn
 915              	.LVL159:
 229:.\main.c      ****         Move(1,200);
 916              		.loc 1 229 0 discriminator 1
 917 007c 0120     		mov	r0, #1
 918 007e C821     		mov	r1, #200
 919 0080 FFF7FEFF 		bl	Move
 920              	.LVL160:
 230:.\main.c      ****         CyDelay(1000); 
 921              		.loc 1 230 0 discriminator 1
 922 0084 281C     		mov	r0, r5
 923 0086 FFF7FEFF 		bl	CyDelay
 924              	.LVL161:
 231:.\main.c      ****         //Shutdown Motor
 232:.\main.c      ****         LED_2_Write(0);
 925              		.loc 1 232 0 discriminator 1
 926 008a 0020     		mov	r0, #0
 927 008c FFF7FEFF 		bl	LED_2_Write
 928              	.LVL162:
 233:.\main.c      ****         LED(1,0);
 929              		.loc 1 233 0 discriminator 1
 930 0090 0120     		mov	r0, #1
 931 0092 0021     		mov	r1, #0
 932 0094 FFF7FEFF 		bl	LED
 933              	.LVL163:
 234:.\main.c      ****         action();
 934              		.loc 1 234 0 discriminator 1
 935 0098 FFF7FEFF 		bl	action
 936              	.LVL164:
 235:.\main.c      ****         MoveSpeed(1,0,0);
 937              		.loc 1 235 0 discriminator 1
 938 009c 0120     		mov	r0, #1
 939 009e 0021     		mov	r1, #0
 940 00a0 0022     		mov	r2, #0
 941 00a2 FFF7FEFF 		bl	MoveSpeed
 942              	.LVL165:
 236:.\main.c      ****         CyDelay(2000);
 943              		.loc 1 236 0 discriminator 1
 944 00a6 201C     		mov	r0, r4
 945 00a8 FFF7FEFF 		bl	CyDelay
 946              	.LVL166:
 237:.\main.c      ****         }
 947              		.loc 1 237 0 discriminator 1
 948 00ac ACE7     		b	.L28
 949              		.cfi_endproc
 950              	.LFE44:
 951              		.size	main, .-main
 952              		.comm	Checksum,1,1
 953 00ae C046     		.text
 954              	.Letext0:
 955              		.file 2 "Generated_Source\\PSoC4/cytypes.h"
 956              		.file 3 "Generated_Source\\PSoC4/MOTOR.h"
 957              		.file 4 "Generated_Source\\PSoC4/CyLib.h"
 958              		.file 5 "Generated_Source\\PSoC4/LED_2.h"