ARM GAS  C:\Users\HENRYA~1\AppData\Local\Temp\ccawlI5Y.s 			page 1


   1              		.syntax unified
   2              		.cpu cortex-m3
   3              		.fpu softvfp
   4              		.eabi_attribute 20, 1
   5              		.eabi_attribute 21, 1
   6              		.eabi_attribute 23, 3
   7              		.eabi_attribute 24, 1
   8              		.eabi_attribute 25, 1
   9              		.eabi_attribute 26, 1
  10              		.eabi_attribute 30, 1
  11              		.eabi_attribute 34, 1
  12              		.eabi_attribute 18, 4
  13              		.thumb
  14              		.file	"RX_CAN_INT.c"
  15              		.text
  16              	.Ltext0:
  17              		.cfi_sections	.debug_frame
  18              		.section	.text.RX_CAN_BusOffIsr,"ax",%progbits
  19              		.align	2
  20              		.global	RX_CAN_BusOffIsr
  21              		.thumb
  22              		.thumb_func
  23              		.type	RX_CAN_BusOffIsr, %function
  24              	RX_CAN_BusOffIsr:
  25              	.LFB0:
  26              		.file 1 ".\\Generated_Source\\PSoC5\\RX_CAN_INT.c"
   1:.\Generated_Source\PSoC5/RX_CAN_INT.c **** /*******************************************************************************
   2:.\Generated_Source\PSoC5/RX_CAN_INT.c **** * File Name: RX_CAN_INT.c
   3:.\Generated_Source\PSoC5/RX_CAN_INT.c **** * Version 3.0
   4:.\Generated_Source\PSoC5/RX_CAN_INT.c **** *
   5:.\Generated_Source\PSoC5/RX_CAN_INT.c **** * Description:
   6:.\Generated_Source\PSoC5/RX_CAN_INT.c **** *  This file contains Interrupt Service Routine (ISR) for CAN Component.
   7:.\Generated_Source\PSoC5/RX_CAN_INT.c **** *  The Interrupt handlers functions are generated accordingly to the PSoC
   8:.\Generated_Source\PSoC5/RX_CAN_INT.c **** *  Creator Customizer inputs.
   9:.\Generated_Source\PSoC5/RX_CAN_INT.c **** *
  10:.\Generated_Source\PSoC5/RX_CAN_INT.c **** * Note:
  11:.\Generated_Source\PSoC5/RX_CAN_INT.c **** *  None
  12:.\Generated_Source\PSoC5/RX_CAN_INT.c **** *
  13:.\Generated_Source\PSoC5/RX_CAN_INT.c **** ********************************************************************************
  14:.\Generated_Source\PSoC5/RX_CAN_INT.c **** * Copyright 2008-2015, Cypress Semiconductor Corporation.  All rights reserved.
  15:.\Generated_Source\PSoC5/RX_CAN_INT.c **** * You may use this file only in accordance with the license, terms, conditions,
  16:.\Generated_Source\PSoC5/RX_CAN_INT.c **** * disclaimers, and limitations in the end user license agreement accompanying
  17:.\Generated_Source\PSoC5/RX_CAN_INT.c **** * the software package with which this file was provided.
  18:.\Generated_Source\PSoC5/RX_CAN_INT.c **** *******************************************************************************/
  19:.\Generated_Source\PSoC5/RX_CAN_INT.c **** 
  20:.\Generated_Source\PSoC5/RX_CAN_INT.c **** #include "RX_CAN.h"
  21:.\Generated_Source\PSoC5/RX_CAN_INT.c **** #include "cyapicallbacks.h"
  22:.\Generated_Source\PSoC5/RX_CAN_INT.c **** 
  23:.\Generated_Source\PSoC5/RX_CAN_INT.c **** /* `#START CAN_INT_C_CODE_DEFINITION` */
  24:.\Generated_Source\PSoC5/RX_CAN_INT.c **** 
  25:.\Generated_Source\PSoC5/RX_CAN_INT.c **** /* `#END` */
  26:.\Generated_Source\PSoC5/RX_CAN_INT.c **** 
  27:.\Generated_Source\PSoC5/RX_CAN_INT.c **** #if (RX_CAN_ARB_LOST)
  28:.\Generated_Source\PSoC5/RX_CAN_INT.c ****     /*******************************************************************************
  29:.\Generated_Source\PSoC5/RX_CAN_INT.c ****     * FUNCTION NAME:   RX_CAN_ArbLostIsr
  30:.\Generated_Source\PSoC5/RX_CAN_INT.c ****     ********************************************************************************
  31:.\Generated_Source\PSoC5/RX_CAN_INT.c ****     *
ARM GAS  C:\Users\HENRYA~1\AppData\Local\Temp\ccawlI5Y.s 			page 2


  32:.\Generated_Source\PSoC5/RX_CAN_INT.c ****     * Summary:
  33:.\Generated_Source\PSoC5/RX_CAN_INT.c ****     *  This function is entry point to Arbitration Lost Interrupt. Clears
  34:.\Generated_Source\PSoC5/RX_CAN_INT.c ****     *  Arbitration Lost interrupt flag. Only generated if Arbitration Lost
  35:.\Generated_Source\PSoC5/RX_CAN_INT.c ****     *  Interrupt enable in Customizer.
  36:.\Generated_Source\PSoC5/RX_CAN_INT.c ****     *
  37:.\Generated_Source\PSoC5/RX_CAN_INT.c ****     * Parameters:
  38:.\Generated_Source\PSoC5/RX_CAN_INT.c ****     *  None.
  39:.\Generated_Source\PSoC5/RX_CAN_INT.c ****     *
  40:.\Generated_Source\PSoC5/RX_CAN_INT.c ****     * Return:
  41:.\Generated_Source\PSoC5/RX_CAN_INT.c ****     *  None.
  42:.\Generated_Source\PSoC5/RX_CAN_INT.c ****     *
  43:.\Generated_Source\PSoC5/RX_CAN_INT.c ****     * Reentrant:
  44:.\Generated_Source\PSoC5/RX_CAN_INT.c ****     *  Depends on Customer code.
  45:.\Generated_Source\PSoC5/RX_CAN_INT.c ****     *
  46:.\Generated_Source\PSoC5/RX_CAN_INT.c ****     *******************************************************************************/
  47:.\Generated_Source\PSoC5/RX_CAN_INT.c ****     void RX_CAN_ArbLostIsr(void) 
  48:.\Generated_Source\PSoC5/RX_CAN_INT.c ****     {
  49:.\Generated_Source\PSoC5/RX_CAN_INT.c ****         /* Clear Arbitration Lost flag */
  50:.\Generated_Source\PSoC5/RX_CAN_INT.c ****         RX_CAN_INT_SR_REG.byte[0u] = RX_CAN_ARBITRATION_LOST_MASK;
  51:.\Generated_Source\PSoC5/RX_CAN_INT.c **** 
  52:.\Generated_Source\PSoC5/RX_CAN_INT.c ****         /* `#START ARBITRATION_LOST_ISR` */
  53:.\Generated_Source\PSoC5/RX_CAN_INT.c **** 
  54:.\Generated_Source\PSoC5/RX_CAN_INT.c ****         /* `#END` */
  55:.\Generated_Source\PSoC5/RX_CAN_INT.c **** 
  56:.\Generated_Source\PSoC5/RX_CAN_INT.c ****         #ifdef RX_CAN_ARB_LOST_ISR_CALLBACK
  57:.\Generated_Source\PSoC5/RX_CAN_INT.c ****             RX_CAN_ArbLostIsr_Callback();
  58:.\Generated_Source\PSoC5/RX_CAN_INT.c ****         #endif /* RX_CAN_ARB_LOST_ISR_CALLBACK */
  59:.\Generated_Source\PSoC5/RX_CAN_INT.c ****     }
  60:.\Generated_Source\PSoC5/RX_CAN_INT.c **** #endif /* RX_CAN_ARB_LOST */
  61:.\Generated_Source\PSoC5/RX_CAN_INT.c **** 
  62:.\Generated_Source\PSoC5/RX_CAN_INT.c **** 
  63:.\Generated_Source\PSoC5/RX_CAN_INT.c **** #if (RX_CAN_OVERLOAD)
  64:.\Generated_Source\PSoC5/RX_CAN_INT.c ****     /*******************************************************************************
  65:.\Generated_Source\PSoC5/RX_CAN_INT.c ****     * FUNCTION NAME:   RX_CAN_OvrLdErrorIsr
  66:.\Generated_Source\PSoC5/RX_CAN_INT.c ****     ********************************************************************************
  67:.\Generated_Source\PSoC5/RX_CAN_INT.c ****     *
  68:.\Generated_Source\PSoC5/RX_CAN_INT.c ****     * Summary:
  69:.\Generated_Source\PSoC5/RX_CAN_INT.c ****     *  This function is entry point to Overload Error Interrupt. Clears Overload
  70:.\Generated_Source\PSoC5/RX_CAN_INT.c ****     *  Error interrupt flag. Only generated if Overload Error Interrupt enable
  71:.\Generated_Source\PSoC5/RX_CAN_INT.c ****     *  in Customizer.
  72:.\Generated_Source\PSoC5/RX_CAN_INT.c ****     *
  73:.\Generated_Source\PSoC5/RX_CAN_INT.c ****     * Parameters:
  74:.\Generated_Source\PSoC5/RX_CAN_INT.c ****     *  None.
  75:.\Generated_Source\PSoC5/RX_CAN_INT.c ****     *
  76:.\Generated_Source\PSoC5/RX_CAN_INT.c ****     * Return:
  77:.\Generated_Source\PSoC5/RX_CAN_INT.c ****     *  None.
  78:.\Generated_Source\PSoC5/RX_CAN_INT.c ****     *
  79:.\Generated_Source\PSoC5/RX_CAN_INT.c ****     * Reentrant:
  80:.\Generated_Source\PSoC5/RX_CAN_INT.c ****     *  Depends on Customer code.
  81:.\Generated_Source\PSoC5/RX_CAN_INT.c ****     *
  82:.\Generated_Source\PSoC5/RX_CAN_INT.c ****     *******************************************************************************/
  83:.\Generated_Source\PSoC5/RX_CAN_INT.c ****     void RX_CAN_OvrLdErrorIsr(void) 
  84:.\Generated_Source\PSoC5/RX_CAN_INT.c ****     {
  85:.\Generated_Source\PSoC5/RX_CAN_INT.c ****         /* Clear Overload Error flag */
  86:.\Generated_Source\PSoC5/RX_CAN_INT.c ****         RX_CAN_INT_SR_REG.byte[0u] = RX_CAN_OVERLOAD_ERROR_MASK;
  87:.\Generated_Source\PSoC5/RX_CAN_INT.c **** 
  88:.\Generated_Source\PSoC5/RX_CAN_INT.c ****         /* `#START OVER_LOAD_ERROR_ISR` */
ARM GAS  C:\Users\HENRYA~1\AppData\Local\Temp\ccawlI5Y.s 			page 3


  89:.\Generated_Source\PSoC5/RX_CAN_INT.c **** 
  90:.\Generated_Source\PSoC5/RX_CAN_INT.c ****         /* `#END` */
  91:.\Generated_Source\PSoC5/RX_CAN_INT.c **** 
  92:.\Generated_Source\PSoC5/RX_CAN_INT.c ****         #ifdef RX_CAN_OVR_LD_ERROR_ISR_CALLBACK
  93:.\Generated_Source\PSoC5/RX_CAN_INT.c ****             RX_CAN_OvrLdErrorIsr_Callback();
  94:.\Generated_Source\PSoC5/RX_CAN_INT.c ****         #endif /* RX_CAN_OVR_LD_ERROR_ISR_CALLBACK */
  95:.\Generated_Source\PSoC5/RX_CAN_INT.c ****     }
  96:.\Generated_Source\PSoC5/RX_CAN_INT.c **** #endif /* RX_CAN_OVERLOAD */
  97:.\Generated_Source\PSoC5/RX_CAN_INT.c **** 
  98:.\Generated_Source\PSoC5/RX_CAN_INT.c **** 
  99:.\Generated_Source\PSoC5/RX_CAN_INT.c **** #if (RX_CAN_BIT_ERR)
 100:.\Generated_Source\PSoC5/RX_CAN_INT.c ****     /*******************************************************************************
 101:.\Generated_Source\PSoC5/RX_CAN_INT.c ****     * FUNCTION NAME:   RX_CAN_BitErrorIsr
 102:.\Generated_Source\PSoC5/RX_CAN_INT.c ****     ********************************************************************************
 103:.\Generated_Source\PSoC5/RX_CAN_INT.c ****     *
 104:.\Generated_Source\PSoC5/RX_CAN_INT.c ****     * Summary:
 105:.\Generated_Source\PSoC5/RX_CAN_INT.c ****     *  This function is entry point to Bit Error Interrupt. Clears Bit Error
 106:.\Generated_Source\PSoC5/RX_CAN_INT.c ****     *  interrupt flag. Only generated if Bit Error Interrupt enable in Customizer.
 107:.\Generated_Source\PSoC5/RX_CAN_INT.c ****     *
 108:.\Generated_Source\PSoC5/RX_CAN_INT.c ****     * Parameters:
 109:.\Generated_Source\PSoC5/RX_CAN_INT.c ****     *  None.
 110:.\Generated_Source\PSoC5/RX_CAN_INT.c ****     *
 111:.\Generated_Source\PSoC5/RX_CAN_INT.c ****     * Return:
 112:.\Generated_Source\PSoC5/RX_CAN_INT.c ****     *  None.
 113:.\Generated_Source\PSoC5/RX_CAN_INT.c ****     *
 114:.\Generated_Source\PSoC5/RX_CAN_INT.c ****     * Reentrant:
 115:.\Generated_Source\PSoC5/RX_CAN_INT.c ****     *  Depends on Customer code.
 116:.\Generated_Source\PSoC5/RX_CAN_INT.c ****     *
 117:.\Generated_Source\PSoC5/RX_CAN_INT.c ****     *******************************************************************************/
 118:.\Generated_Source\PSoC5/RX_CAN_INT.c ****     void RX_CAN_BitErrorIsr(void) 
 119:.\Generated_Source\PSoC5/RX_CAN_INT.c ****     {
 120:.\Generated_Source\PSoC5/RX_CAN_INT.c ****         /* Clear Bit Error flag */
 121:.\Generated_Source\PSoC5/RX_CAN_INT.c ****         RX_CAN_INT_SR_REG.byte[0u] = RX_CAN_BIT_ERROR_MASK;
 122:.\Generated_Source\PSoC5/RX_CAN_INT.c **** 
 123:.\Generated_Source\PSoC5/RX_CAN_INT.c ****         /* `#START BIT_ERROR_ISR` */
 124:.\Generated_Source\PSoC5/RX_CAN_INT.c **** 
 125:.\Generated_Source\PSoC5/RX_CAN_INT.c ****         /* `#END` */
 126:.\Generated_Source\PSoC5/RX_CAN_INT.c **** 
 127:.\Generated_Source\PSoC5/RX_CAN_INT.c ****         #ifdef RX_CAN_BIT_ERROR_ISR_CALLBACK
 128:.\Generated_Source\PSoC5/RX_CAN_INT.c ****             RX_CAN_BitErrorIsr_Callback();
 129:.\Generated_Source\PSoC5/RX_CAN_INT.c ****         #endif /* RX_CAN_BIT_ERROR_ISR_CALLBACK */
 130:.\Generated_Source\PSoC5/RX_CAN_INT.c ****     }
 131:.\Generated_Source\PSoC5/RX_CAN_INT.c **** #endif /* RX_CAN_BIT_ERR */
 132:.\Generated_Source\PSoC5/RX_CAN_INT.c **** 
 133:.\Generated_Source\PSoC5/RX_CAN_INT.c **** 
 134:.\Generated_Source\PSoC5/RX_CAN_INT.c **** #if (RX_CAN_STUFF_ERR)
 135:.\Generated_Source\PSoC5/RX_CAN_INT.c ****     /*******************************************************************************
 136:.\Generated_Source\PSoC5/RX_CAN_INT.c ****     * FUNCTION NAME:   RX_CAN_BitStuffErrorIsr
 137:.\Generated_Source\PSoC5/RX_CAN_INT.c ****     ********************************************************************************
 138:.\Generated_Source\PSoC5/RX_CAN_INT.c ****     *
 139:.\Generated_Source\PSoC5/RX_CAN_INT.c ****     * Summary:
 140:.\Generated_Source\PSoC5/RX_CAN_INT.c ****     *  This function is entry point to Bit Stuff Error Interrupt. Clears Bit Stuff
 141:.\Generated_Source\PSoC5/RX_CAN_INT.c ****     *  Error interrupt flag. Only generated if Bit Stuff Error Interrupt enable
 142:.\Generated_Source\PSoC5/RX_CAN_INT.c ****     *  in Customizer.
 143:.\Generated_Source\PSoC5/RX_CAN_INT.c ****     *
 144:.\Generated_Source\PSoC5/RX_CAN_INT.c ****     * Parameters:
 145:.\Generated_Source\PSoC5/RX_CAN_INT.c ****     *  None.
ARM GAS  C:\Users\HENRYA~1\AppData\Local\Temp\ccawlI5Y.s 			page 4


 146:.\Generated_Source\PSoC5/RX_CAN_INT.c ****     *
 147:.\Generated_Source\PSoC5/RX_CAN_INT.c ****     * Return:
 148:.\Generated_Source\PSoC5/RX_CAN_INT.c ****     *  None.
 149:.\Generated_Source\PSoC5/RX_CAN_INT.c ****     *
 150:.\Generated_Source\PSoC5/RX_CAN_INT.c ****     * Reentrant:
 151:.\Generated_Source\PSoC5/RX_CAN_INT.c ****     *  Depends on Customer code.
 152:.\Generated_Source\PSoC5/RX_CAN_INT.c ****     *
 153:.\Generated_Source\PSoC5/RX_CAN_INT.c ****     *******************************************************************************/
 154:.\Generated_Source\PSoC5/RX_CAN_INT.c ****     void RX_CAN_BitStuffErrorIsr(void) 
 155:.\Generated_Source\PSoC5/RX_CAN_INT.c ****     {
 156:.\Generated_Source\PSoC5/RX_CAN_INT.c ****         /* Clear Stuff Error flag */
 157:.\Generated_Source\PSoC5/RX_CAN_INT.c ****         RX_CAN_INT_SR_REG.byte[0u] = RX_CAN_STUFF_ERROR_MASK;
 158:.\Generated_Source\PSoC5/RX_CAN_INT.c **** 
 159:.\Generated_Source\PSoC5/RX_CAN_INT.c ****         /* `#START BIT_STUFF_ERROR_ISR` */
 160:.\Generated_Source\PSoC5/RX_CAN_INT.c **** 
 161:.\Generated_Source\PSoC5/RX_CAN_INT.c ****         /* `#END` */
 162:.\Generated_Source\PSoC5/RX_CAN_INT.c **** 
 163:.\Generated_Source\PSoC5/RX_CAN_INT.c ****         #ifdef RX_CAN_BIT_STUFF_ERROR_ISR_CALLBACK
 164:.\Generated_Source\PSoC5/RX_CAN_INT.c ****             RX_CAN_BitStuffErrorIsr_Callback();
 165:.\Generated_Source\PSoC5/RX_CAN_INT.c ****         #endif /* RX_CAN_BIT_STUFF_ERROR_ISR_CALLBACK */
 166:.\Generated_Source\PSoC5/RX_CAN_INT.c ****     }
 167:.\Generated_Source\PSoC5/RX_CAN_INT.c **** #endif /* RX_CAN_STUFF_ERR */
 168:.\Generated_Source\PSoC5/RX_CAN_INT.c **** 
 169:.\Generated_Source\PSoC5/RX_CAN_INT.c **** 
 170:.\Generated_Source\PSoC5/RX_CAN_INT.c **** #if (RX_CAN_ACK_ERR)
 171:.\Generated_Source\PSoC5/RX_CAN_INT.c ****     /*******************************************************************************
 172:.\Generated_Source\PSoC5/RX_CAN_INT.c ****     * FUNCTION NAME:   RX_CAN_AckErrorIsr
 173:.\Generated_Source\PSoC5/RX_CAN_INT.c ****     ********************************************************************************
 174:.\Generated_Source\PSoC5/RX_CAN_INT.c ****     *
 175:.\Generated_Source\PSoC5/RX_CAN_INT.c ****     * Summary:
 176:.\Generated_Source\PSoC5/RX_CAN_INT.c ****     *  This function is entry point to Acknowledge Error Interrupt. Clears
 177:.\Generated_Source\PSoC5/RX_CAN_INT.c ****     *  Acknowledge Error interrupt flag. Only generated if Acknowledge Error
 178:.\Generated_Source\PSoC5/RX_CAN_INT.c ****     *  Interrupt enable in Customizer.
 179:.\Generated_Source\PSoC5/RX_CAN_INT.c ****     *
 180:.\Generated_Source\PSoC5/RX_CAN_INT.c ****     * Parameters:
 181:.\Generated_Source\PSoC5/RX_CAN_INT.c ****     *  None.
 182:.\Generated_Source\PSoC5/RX_CAN_INT.c ****     *
 183:.\Generated_Source\PSoC5/RX_CAN_INT.c ****     * Return:
 184:.\Generated_Source\PSoC5/RX_CAN_INT.c ****     *  None.
 185:.\Generated_Source\PSoC5/RX_CAN_INT.c ****     *
 186:.\Generated_Source\PSoC5/RX_CAN_INT.c ****     * Reentrant:
 187:.\Generated_Source\PSoC5/RX_CAN_INT.c ****     *  Depends on Customer code.
 188:.\Generated_Source\PSoC5/RX_CAN_INT.c ****     *
 189:.\Generated_Source\PSoC5/RX_CAN_INT.c ****     *******************************************************************************/
 190:.\Generated_Source\PSoC5/RX_CAN_INT.c ****     void RX_CAN_AckErrorIsr(void) 
 191:.\Generated_Source\PSoC5/RX_CAN_INT.c ****     {
 192:.\Generated_Source\PSoC5/RX_CAN_INT.c ****         /* Clear Acknoledge Error flag */
 193:.\Generated_Source\PSoC5/RX_CAN_INT.c ****         RX_CAN_INT_SR_REG.byte[0u] = RX_CAN_ACK_ERROR_MASK;
 194:.\Generated_Source\PSoC5/RX_CAN_INT.c **** 
 195:.\Generated_Source\PSoC5/RX_CAN_INT.c ****         /* `#START ACKNOWLEDGE_ERROR_ISR` */
 196:.\Generated_Source\PSoC5/RX_CAN_INT.c **** 
 197:.\Generated_Source\PSoC5/RX_CAN_INT.c ****         /* `#END` */
 198:.\Generated_Source\PSoC5/RX_CAN_INT.c **** 
 199:.\Generated_Source\PSoC5/RX_CAN_INT.c ****         #ifdef RX_CAN_ACK_ERROR_ISR_CALLBACK
 200:.\Generated_Source\PSoC5/RX_CAN_INT.c ****             RX_CAN_AckErrorIsr_Callback();
 201:.\Generated_Source\PSoC5/RX_CAN_INT.c ****         #endif /* RX_CAN_ACK_ERROR_ISR_CALLBACK */
 202:.\Generated_Source\PSoC5/RX_CAN_INT.c ****     }
ARM GAS  C:\Users\HENRYA~1\AppData\Local\Temp\ccawlI5Y.s 			page 5


 203:.\Generated_Source\PSoC5/RX_CAN_INT.c **** #endif /* RX_CAN_ACK_ERR */
 204:.\Generated_Source\PSoC5/RX_CAN_INT.c **** 
 205:.\Generated_Source\PSoC5/RX_CAN_INT.c **** 
 206:.\Generated_Source\PSoC5/RX_CAN_INT.c **** #if (RX_CAN_FORM_ERR)
 207:.\Generated_Source\PSoC5/RX_CAN_INT.c ****     /*******************************************************************************
 208:.\Generated_Source\PSoC5/RX_CAN_INT.c ****     * FUNCTION NAME:   RX_CAN_MsgErrorIsr
 209:.\Generated_Source\PSoC5/RX_CAN_INT.c ****     ********************************************************************************
 210:.\Generated_Source\PSoC5/RX_CAN_INT.c ****     *
 211:.\Generated_Source\PSoC5/RX_CAN_INT.c ****     * Summary:
 212:.\Generated_Source\PSoC5/RX_CAN_INT.c ****     *  This function is entry point to Form Error Interrupt. Clears Form Error
 213:.\Generated_Source\PSoC5/RX_CAN_INT.c ****     *  interrupt flag. Only generated if Form Error Interrupt enable in Customizer.
 214:.\Generated_Source\PSoC5/RX_CAN_INT.c ****     *
 215:.\Generated_Source\PSoC5/RX_CAN_INT.c ****     * Parameters:
 216:.\Generated_Source\PSoC5/RX_CAN_INT.c ****     *  None.
 217:.\Generated_Source\PSoC5/RX_CAN_INT.c ****     *
 218:.\Generated_Source\PSoC5/RX_CAN_INT.c ****     * Return:
 219:.\Generated_Source\PSoC5/RX_CAN_INT.c ****     *  None.
 220:.\Generated_Source\PSoC5/RX_CAN_INT.c ****     *
 221:.\Generated_Source\PSoC5/RX_CAN_INT.c ****     * Reentrant:
 222:.\Generated_Source\PSoC5/RX_CAN_INT.c ****     *  Depends on Customer code.
 223:.\Generated_Source\PSoC5/RX_CAN_INT.c ****     *
 224:.\Generated_Source\PSoC5/RX_CAN_INT.c ****     *******************************************************************************/
 225:.\Generated_Source\PSoC5/RX_CAN_INT.c ****     void RX_CAN_MsgErrorIsr(void) 
 226:.\Generated_Source\PSoC5/RX_CAN_INT.c ****     {
 227:.\Generated_Source\PSoC5/RX_CAN_INT.c ****         /* Clear Form Error flag */
 228:.\Generated_Source\PSoC5/RX_CAN_INT.c ****         RX_CAN_INT_SR_REG.byte[0u] = RX_CAN_FORM_ERROR_MASK;
 229:.\Generated_Source\PSoC5/RX_CAN_INT.c **** 
 230:.\Generated_Source\PSoC5/RX_CAN_INT.c ****         /* `#START MESSAGE_ERROR_ISR` */
 231:.\Generated_Source\PSoC5/RX_CAN_INT.c **** 
 232:.\Generated_Source\PSoC5/RX_CAN_INT.c ****         /* `#END` */
 233:.\Generated_Source\PSoC5/RX_CAN_INT.c **** 
 234:.\Generated_Source\PSoC5/RX_CAN_INT.c ****         #ifdef RX_CAN_MSG_ERROR_ISR_CALLBACK
 235:.\Generated_Source\PSoC5/RX_CAN_INT.c ****             RX_CAN_MsgErrorIsr_Callback();
 236:.\Generated_Source\PSoC5/RX_CAN_INT.c ****         #endif /* RX_CAN_MSG_ERROR_ISR_CALLBACK */
 237:.\Generated_Source\PSoC5/RX_CAN_INT.c ****     }
 238:.\Generated_Source\PSoC5/RX_CAN_INT.c **** #endif /* RX_CAN_FORM_ERR */
 239:.\Generated_Source\PSoC5/RX_CAN_INT.c **** 
 240:.\Generated_Source\PSoC5/RX_CAN_INT.c **** 
 241:.\Generated_Source\PSoC5/RX_CAN_INT.c **** #if (RX_CAN_CRC_ERR)
 242:.\Generated_Source\PSoC5/RX_CAN_INT.c ****     /*******************************************************************************
 243:.\Generated_Source\PSoC5/RX_CAN_INT.c ****     * FUNCTION NAME:   RX_CAN_CrcErrorIsr
 244:.\Generated_Source\PSoC5/RX_CAN_INT.c ****     ********************************************************************************
 245:.\Generated_Source\PSoC5/RX_CAN_INT.c ****     *
 246:.\Generated_Source\PSoC5/RX_CAN_INT.c ****     * Summary:
 247:.\Generated_Source\PSoC5/RX_CAN_INT.c ****     *  This function is entry point to CRC Error Interrupt. Clears CRC Error
 248:.\Generated_Source\PSoC5/RX_CAN_INT.c ****     *  interrupt flag. Only generated if CRC Error Interrupt enable in Customizer.
 249:.\Generated_Source\PSoC5/RX_CAN_INT.c ****     *
 250:.\Generated_Source\PSoC5/RX_CAN_INT.c ****     * Parameters:
 251:.\Generated_Source\PSoC5/RX_CAN_INT.c ****     *  None.
 252:.\Generated_Source\PSoC5/RX_CAN_INT.c ****     *
 253:.\Generated_Source\PSoC5/RX_CAN_INT.c ****     * Return:
 254:.\Generated_Source\PSoC5/RX_CAN_INT.c ****     *  None.
 255:.\Generated_Source\PSoC5/RX_CAN_INT.c ****     *
 256:.\Generated_Source\PSoC5/RX_CAN_INT.c ****     * Reentrant:
 257:.\Generated_Source\PSoC5/RX_CAN_INT.c ****     *  Depends on Customer code.
 258:.\Generated_Source\PSoC5/RX_CAN_INT.c ****     *
 259:.\Generated_Source\PSoC5/RX_CAN_INT.c ****     *******************************************************************************/
ARM GAS  C:\Users\HENRYA~1\AppData\Local\Temp\ccawlI5Y.s 			page 6


 260:.\Generated_Source\PSoC5/RX_CAN_INT.c ****     void RX_CAN_CrcErrorIsr(void) 
 261:.\Generated_Source\PSoC5/RX_CAN_INT.c ****     {
 262:.\Generated_Source\PSoC5/RX_CAN_INT.c ****         /* Clear CRC Error flag */
 263:.\Generated_Source\PSoC5/RX_CAN_INT.c ****         RX_CAN_INT_SR_REG.byte[1u] = RX_CAN_CRC_ERROR_MASK;
 264:.\Generated_Source\PSoC5/RX_CAN_INT.c **** 
 265:.\Generated_Source\PSoC5/RX_CAN_INT.c ****         /* `#START CRC_ERROR_ISR` */
 266:.\Generated_Source\PSoC5/RX_CAN_INT.c **** 
 267:.\Generated_Source\PSoC5/RX_CAN_INT.c ****         /* `#END` */
 268:.\Generated_Source\PSoC5/RX_CAN_INT.c **** 
 269:.\Generated_Source\PSoC5/RX_CAN_INT.c ****         #ifdef RX_CAN_CRC_ERROR_ISR_CALLBACK
 270:.\Generated_Source\PSoC5/RX_CAN_INT.c ****             RX_CAN_CrcErrorIsr_Callback();
 271:.\Generated_Source\PSoC5/RX_CAN_INT.c ****         #endif /* RX_CAN_CRC_ERROR_ISR_CALLBACK */
 272:.\Generated_Source\PSoC5/RX_CAN_INT.c ****     }
 273:.\Generated_Source\PSoC5/RX_CAN_INT.c **** #endif /* RX_CAN_CRC_ERR */
 274:.\Generated_Source\PSoC5/RX_CAN_INT.c **** 
 275:.\Generated_Source\PSoC5/RX_CAN_INT.c **** 
 276:.\Generated_Source\PSoC5/RX_CAN_INT.c **** #if (RX_CAN_BUS_OFF)
 277:.\Generated_Source\PSoC5/RX_CAN_INT.c ****     /*******************************************************************************
 278:.\Generated_Source\PSoC5/RX_CAN_INT.c ****     * FUNCTION NAME:   RX_CAN_BusOffIsr
 279:.\Generated_Source\PSoC5/RX_CAN_INT.c ****     ********************************************************************************
 280:.\Generated_Source\PSoC5/RX_CAN_INT.c ****     *
 281:.\Generated_Source\PSoC5/RX_CAN_INT.c ****     * Summary:
 282:.\Generated_Source\PSoC5/RX_CAN_INT.c ****     *  This function is entry point to Bus Off Interrupt. Places CAN Component
 283:.\Generated_Source\PSoC5/RX_CAN_INT.c ****     *  to Stop mode. Only generated if Bus Off Interrupt enable in Customizer.
 284:.\Generated_Source\PSoC5/RX_CAN_INT.c ****     *  Recommended setting to enable this interrupt.
 285:.\Generated_Source\PSoC5/RX_CAN_INT.c ****     *
 286:.\Generated_Source\PSoC5/RX_CAN_INT.c ****     * Parameters:
 287:.\Generated_Source\PSoC5/RX_CAN_INT.c ****     *  None.
 288:.\Generated_Source\PSoC5/RX_CAN_INT.c ****     *
 289:.\Generated_Source\PSoC5/RX_CAN_INT.c ****     * Return:
 290:.\Generated_Source\PSoC5/RX_CAN_INT.c ****     *  None.
 291:.\Generated_Source\PSoC5/RX_CAN_INT.c ****     *
 292:.\Generated_Source\PSoC5/RX_CAN_INT.c ****     * Side Effects:
 293:.\Generated_Source\PSoC5/RX_CAN_INT.c ****     *  Stops CAN component operation.
 294:.\Generated_Source\PSoC5/RX_CAN_INT.c ****     *
 295:.\Generated_Source\PSoC5/RX_CAN_INT.c ****     *******************************************************************************/
 296:.\Generated_Source\PSoC5/RX_CAN_INT.c ****     void RX_CAN_BusOffIsr(void) 
 297:.\Generated_Source\PSoC5/RX_CAN_INT.c ****     {
  27              		.loc 1 297 0
  28              		.cfi_startproc
  29              		@ args = 0, pretend = 0, frame = 0
  30              		@ frame_needed = 0, uses_anonymous_args = 0
  31 0000 08B5     		push	{r3, lr}
  32              		.cfi_def_cfa_offset 8
  33              		.cfi_offset 3, -8
  34              		.cfi_offset 14, -4
 298:.\Generated_Source\PSoC5/RX_CAN_INT.c ****         /* Clear Bus Off flag */
 299:.\Generated_Source\PSoC5/RX_CAN_INT.c ****         RX_CAN_INT_SR_REG.byte[1u] = RX_CAN_BUS_OFF_MASK;
  35              		.loc 1 299 0
  36 0002 0222     		movs	r2, #2
  37 0004 034B     		ldr	r3, .L3
  38 0006 5A70     		strb	r2, [r3, #1]
 300:.\Generated_Source\PSoC5/RX_CAN_INT.c ****         (void) RX_CAN_GlobalIntDisable();
  39              		.loc 1 300 0
  40 0008 FFF7FEFF 		bl	RX_CAN_GlobalIntDisable
  41              	.LVL0:
 301:.\Generated_Source\PSoC5/RX_CAN_INT.c **** 
ARM GAS  C:\Users\HENRYA~1\AppData\Local\Temp\ccawlI5Y.s 			page 7


 302:.\Generated_Source\PSoC5/RX_CAN_INT.c ****         /* `#START BUS_OFF_ISR` */
 303:.\Generated_Source\PSoC5/RX_CAN_INT.c **** 
 304:.\Generated_Source\PSoC5/RX_CAN_INT.c ****         /* `#END` */
 305:.\Generated_Source\PSoC5/RX_CAN_INT.c **** 
 306:.\Generated_Source\PSoC5/RX_CAN_INT.c ****         #ifdef RX_CAN_BUS_OFF_ISR_CALLBACK
 307:.\Generated_Source\PSoC5/RX_CAN_INT.c ****             RX_CAN_BusOffIsr_Callback();
 308:.\Generated_Source\PSoC5/RX_CAN_INT.c ****         #endif /* RX_CAN_BUS_OFF_ISR_CALLBACK */
 309:.\Generated_Source\PSoC5/RX_CAN_INT.c **** 
 310:.\Generated_Source\PSoC5/RX_CAN_INT.c ****         (void) RX_CAN_Stop();
  42              		.loc 1 310 0
  43 000c FFF7FEFF 		bl	RX_CAN_Stop
  44              	.LVL1:
  45 0010 08BD     		pop	{r3, pc}
  46              	.L4:
  47 0012 00BF     		.align	2
  48              	.L3:
  49 0014 00A00040 		.word	1073782784
  50              		.cfi_endproc
  51              	.LFE0:
  52              		.size	RX_CAN_BusOffIsr, .-RX_CAN_BusOffIsr
  53              		.section	.text.RX_CAN_MsgTXIsr,"ax",%progbits
  54              		.align	2
  55              		.global	RX_CAN_MsgTXIsr
  56              		.thumb
  57              		.thumb_func
  58              		.type	RX_CAN_MsgTXIsr, %function
  59              	RX_CAN_MsgTXIsr:
  60              	.LFB1:
 311:.\Generated_Source\PSoC5/RX_CAN_INT.c ****     }
 312:.\Generated_Source\PSoC5/RX_CAN_INT.c **** #endif /* RX_CAN_BUS_OFF */
 313:.\Generated_Source\PSoC5/RX_CAN_INT.c **** 
 314:.\Generated_Source\PSoC5/RX_CAN_INT.c **** 
 315:.\Generated_Source\PSoC5/RX_CAN_INT.c **** #if (RX_CAN_RX_MSG_LOST)
 316:.\Generated_Source\PSoC5/RX_CAN_INT.c ****     /*******************************************************************************
 317:.\Generated_Source\PSoC5/RX_CAN_INT.c ****     * FUNCTION NAME:   RX_CAN_MsgLostIsr
 318:.\Generated_Source\PSoC5/RX_CAN_INT.c ****     ********************************************************************************
 319:.\Generated_Source\PSoC5/RX_CAN_INT.c ****     *
 320:.\Generated_Source\PSoC5/RX_CAN_INT.c ****     * Summary:
 321:.\Generated_Source\PSoC5/RX_CAN_INT.c ****     *  This function is entry point to Message Lost Interrupt. Clears Message Lost
 322:.\Generated_Source\PSoC5/RX_CAN_INT.c ****     *  interrupt flag. Only generated if Message Lost Interrupt enable in Customizer
 323:.\Generated_Source\PSoC5/RX_CAN_INT.c ****     *
 324:.\Generated_Source\PSoC5/RX_CAN_INT.c ****     * Parameters:
 325:.\Generated_Source\PSoC5/RX_CAN_INT.c ****     *  None.
 326:.\Generated_Source\PSoC5/RX_CAN_INT.c ****     *
 327:.\Generated_Source\PSoC5/RX_CAN_INT.c ****     * Return:
 328:.\Generated_Source\PSoC5/RX_CAN_INT.c ****     *  None.
 329:.\Generated_Source\PSoC5/RX_CAN_INT.c ****     *
 330:.\Generated_Source\PSoC5/RX_CAN_INT.c ****     * Reentrant:
 331:.\Generated_Source\PSoC5/RX_CAN_INT.c ****     *  Depends on Customer code.
 332:.\Generated_Source\PSoC5/RX_CAN_INT.c ****     *
 333:.\Generated_Source\PSoC5/RX_CAN_INT.c ****     *******************************************************************************/
 334:.\Generated_Source\PSoC5/RX_CAN_INT.c ****     void RX_CAN_MsgLostIsr(void) 
 335:.\Generated_Source\PSoC5/RX_CAN_INT.c ****     {
 336:.\Generated_Source\PSoC5/RX_CAN_INT.c ****         /* Clear Receive Message Lost flag */
 337:.\Generated_Source\PSoC5/RX_CAN_INT.c ****         RX_CAN_INT_SR_REG.byte[1u] = RX_CAN_RX_MSG_LOST_MASK;
 338:.\Generated_Source\PSoC5/RX_CAN_INT.c **** 
 339:.\Generated_Source\PSoC5/RX_CAN_INT.c ****         /* `#START MESSAGE_LOST_ISR` */
ARM GAS  C:\Users\HENRYA~1\AppData\Local\Temp\ccawlI5Y.s 			page 8


 340:.\Generated_Source\PSoC5/RX_CAN_INT.c **** 
 341:.\Generated_Source\PSoC5/RX_CAN_INT.c ****         /* `#END` */
 342:.\Generated_Source\PSoC5/RX_CAN_INT.c **** 
 343:.\Generated_Source\PSoC5/RX_CAN_INT.c ****         #ifdef RX_CAN_MSG_LOST_ISR_CALLBACK
 344:.\Generated_Source\PSoC5/RX_CAN_INT.c ****             RX_CAN_MsgLostIsr_Callback();
 345:.\Generated_Source\PSoC5/RX_CAN_INT.c ****         #endif /* RX_CAN_MSG_LOST_ISR_CALLBACK */
 346:.\Generated_Source\PSoC5/RX_CAN_INT.c ****     }
 347:.\Generated_Source\PSoC5/RX_CAN_INT.c **** #endif /* RX_CAN_RX_MSG_LOST */
 348:.\Generated_Source\PSoC5/RX_CAN_INT.c **** 
 349:.\Generated_Source\PSoC5/RX_CAN_INT.c **** 
 350:.\Generated_Source\PSoC5/RX_CAN_INT.c **** #if (RX_CAN_TX_MESSAGE)
 351:.\Generated_Source\PSoC5/RX_CAN_INT.c ****     /*******************************************************************************
 352:.\Generated_Source\PSoC5/RX_CAN_INT.c ****     * FUNCTION NAME:   RX_CAN_MsgTXIsr
 353:.\Generated_Source\PSoC5/RX_CAN_INT.c ****     ********************************************************************************
 354:.\Generated_Source\PSoC5/RX_CAN_INT.c ****     *
 355:.\Generated_Source\PSoC5/RX_CAN_INT.c ****     * Summary:
 356:.\Generated_Source\PSoC5/RX_CAN_INT.c ****     *  This function is entry point to Transmit Message Interrupt. Clears Transmit
 357:.\Generated_Source\PSoC5/RX_CAN_INT.c ****     *  Message interrupt flag. Only generated if Transmit Message Interrupt enable
 358:.\Generated_Source\PSoC5/RX_CAN_INT.c ****     *  in Customizer.
 359:.\Generated_Source\PSoC5/RX_CAN_INT.c ****     *
 360:.\Generated_Source\PSoC5/RX_CAN_INT.c ****     * Parameters:
 361:.\Generated_Source\PSoC5/RX_CAN_INT.c ****     *  None.
 362:.\Generated_Source\PSoC5/RX_CAN_INT.c ****     *
 363:.\Generated_Source\PSoC5/RX_CAN_INT.c ****     * Return:
 364:.\Generated_Source\PSoC5/RX_CAN_INT.c ****     *  None.
 365:.\Generated_Source\PSoC5/RX_CAN_INT.c ****     *
 366:.\Generated_Source\PSoC5/RX_CAN_INT.c ****     * Reentrant:
 367:.\Generated_Source\PSoC5/RX_CAN_INT.c ****     *  Depends on Customer code.
 368:.\Generated_Source\PSoC5/RX_CAN_INT.c ****     *
 369:.\Generated_Source\PSoC5/RX_CAN_INT.c ****     *******************************************************************************/
 370:.\Generated_Source\PSoC5/RX_CAN_INT.c ****     void RX_CAN_MsgTXIsr(void) 
 371:.\Generated_Source\PSoC5/RX_CAN_INT.c ****     {
  61              		.loc 1 371 0
  62              		.cfi_startproc
  63              		@ args = 0, pretend = 0, frame = 0
  64              		@ frame_needed = 0, uses_anonymous_args = 0
  65              		@ link register save eliminated.
 372:.\Generated_Source\PSoC5/RX_CAN_INT.c ****         /* Clear Transmit Message flag */
 373:.\Generated_Source\PSoC5/RX_CAN_INT.c ****         RX_CAN_INT_SR_REG.byte[1u] = RX_CAN_TX_MESSAGE_MASK;
  66              		.loc 1 373 0
  67 0000 0822     		movs	r2, #8
  68 0002 014B     		ldr	r3, .L6
  69 0004 5A70     		strb	r2, [r3, #1]
  70 0006 7047     		bx	lr
  71              	.L7:
  72              		.align	2
  73              	.L6:
  74 0008 00A00040 		.word	1073782784
  75              		.cfi_endproc
  76              	.LFE1:
  77              		.size	RX_CAN_MsgTXIsr, .-RX_CAN_MsgTXIsr
  78              		.section	.text.RX_CAN_MsgRXIsr,"ax",%progbits
  79              		.align	2
  80              		.global	RX_CAN_MsgRXIsr
  81              		.thumb
  82              		.thumb_func
  83              		.type	RX_CAN_MsgRXIsr, %function
ARM GAS  C:\Users\HENRYA~1\AppData\Local\Temp\ccawlI5Y.s 			page 9


  84              	RX_CAN_MsgRXIsr:
  85              	.LFB2:
 374:.\Generated_Source\PSoC5/RX_CAN_INT.c **** 
 375:.\Generated_Source\PSoC5/RX_CAN_INT.c ****         /* `#START MESSAGE_TRANSMITTED_ISR` */
 376:.\Generated_Source\PSoC5/RX_CAN_INT.c **** 
 377:.\Generated_Source\PSoC5/RX_CAN_INT.c ****         /* `#END` */
 378:.\Generated_Source\PSoC5/RX_CAN_INT.c **** 
 379:.\Generated_Source\PSoC5/RX_CAN_INT.c ****         #ifdef RX_CAN_MSG_TX_ISR_CALLBACK
 380:.\Generated_Source\PSoC5/RX_CAN_INT.c ****             RX_CAN_MsgTXIsr_Callback();
 381:.\Generated_Source\PSoC5/RX_CAN_INT.c ****         #endif /* RX_CAN_MSG_TX_ISR_CALLBACK */
 382:.\Generated_Source\PSoC5/RX_CAN_INT.c ****     }
 383:.\Generated_Source\PSoC5/RX_CAN_INT.c **** #endif /* RX_CAN_TX_MESSAGE */
 384:.\Generated_Source\PSoC5/RX_CAN_INT.c **** 
 385:.\Generated_Source\PSoC5/RX_CAN_INT.c **** 
 386:.\Generated_Source\PSoC5/RX_CAN_INT.c **** #if (RX_CAN_RX_MESSAGE)
 387:.\Generated_Source\PSoC5/RX_CAN_INT.c ****     /*******************************************************************************
 388:.\Generated_Source\PSoC5/RX_CAN_INT.c ****     * FUNCTION NAME:   RX_CAN_MsgRXIsr
 389:.\Generated_Source\PSoC5/RX_CAN_INT.c ****     ********************************************************************************
 390:.\Generated_Source\PSoC5/RX_CAN_INT.c ****     *
 391:.\Generated_Source\PSoC5/RX_CAN_INT.c ****     * Summary:
 392:.\Generated_Source\PSoC5/RX_CAN_INT.c ****     *  This function is entry point to Receive Message Interrupt. Clears Receive
 393:.\Generated_Source\PSoC5/RX_CAN_INT.c ****     *  Message interrupt flag and call appropriate handlers for Basic and Full
 394:.\Generated_Source\PSoC5/RX_CAN_INT.c ****     *  interrupt based mailboxes. Only generated if Receive Message Interrupt
 395:.\Generated_Source\PSoC5/RX_CAN_INT.c ****     *  enable in Customizer. Recommended setting to enable this interrupt.
 396:.\Generated_Source\PSoC5/RX_CAN_INT.c ****     *
 397:.\Generated_Source\PSoC5/RX_CAN_INT.c ****     * Parameters:
 398:.\Generated_Source\PSoC5/RX_CAN_INT.c ****     *  None.
 399:.\Generated_Source\PSoC5/RX_CAN_INT.c ****     *
 400:.\Generated_Source\PSoC5/RX_CAN_INT.c ****     * Return:
 401:.\Generated_Source\PSoC5/RX_CAN_INT.c ****     *  None.
 402:.\Generated_Source\PSoC5/RX_CAN_INT.c ****     *
 403:.\Generated_Source\PSoC5/RX_CAN_INT.c ****     *******************************************************************************/
 404:.\Generated_Source\PSoC5/RX_CAN_INT.c ****     void RX_CAN_MsgRXIsr(void) 
 405:.\Generated_Source\PSoC5/RX_CAN_INT.c ****     {
  86              		.loc 1 405 0
  87              		.cfi_startproc
  88              		@ args = 0, pretend = 0, frame = 0
  89              		@ frame_needed = 0, uses_anonymous_args = 0
  90 0000 38B5     		push	{r3, r4, r5, lr}
  91              		.cfi_def_cfa_offset 16
  92              		.cfi_offset 3, -16
  93              		.cfi_offset 4, -12
  94              		.cfi_offset 5, -8
  95              		.cfi_offset 14, -4
  96              	.LVL2:
 406:.\Generated_Source\PSoC5/RX_CAN_INT.c ****         uint8 mailboxNumber;
 407:.\Generated_Source\PSoC5/RX_CAN_INT.c ****         uint16 shift = 0x01u;
 408:.\Generated_Source\PSoC5/RX_CAN_INT.c **** 
 409:.\Generated_Source\PSoC5/RX_CAN_INT.c ****         /* Clear Receive Message flag */
 410:.\Generated_Source\PSoC5/RX_CAN_INT.c ****         RX_CAN_INT_SR_REG.byte[1u] = RX_CAN_RX_MESSAGE_MASK;
  97              		.loc 1 410 0
  98 0002 1022     		movs	r2, #16
  99 0004 124B     		ldr	r3, .L16
 100 0006 5A70     		strb	r2, [r3, #1]
 101              	.LVL3:
 407:.\Generated_Source\PSoC5/RX_CAN_INT.c **** 
 102              		.loc 1 407 0
ARM GAS  C:\Users\HENRYA~1\AppData\Local\Temp\ccawlI5Y.s 			page 10


 103 0008 0125     		movs	r5, #1
 411:.\Generated_Source\PSoC5/RX_CAN_INT.c **** 
 412:.\Generated_Source\PSoC5/RX_CAN_INT.c ****         /* `#START MESSAGE_RECEIVE_ISR` */
 413:.\Generated_Source\PSoC5/RX_CAN_INT.c **** 
 414:.\Generated_Source\PSoC5/RX_CAN_INT.c ****         /* `#END` */
 415:.\Generated_Source\PSoC5/RX_CAN_INT.c **** 
 416:.\Generated_Source\PSoC5/RX_CAN_INT.c ****         #ifdef RX_CAN_MSG_RX_ISR_CALLBACK
 417:.\Generated_Source\PSoC5/RX_CAN_INT.c ****             RX_CAN_MsgRXIsr_Callback();
 418:.\Generated_Source\PSoC5/RX_CAN_INT.c ****         #endif /* RX_CAN_MSG_RX_ISR_CALLBACK */
 419:.\Generated_Source\PSoC5/RX_CAN_INT.c **** 
 420:.\Generated_Source\PSoC5/RX_CAN_INT.c ****         for (mailboxNumber = 0u; mailboxNumber < RX_CAN_NUMBER_OF_RX_MAILBOXES; mailboxNumber++)
 104              		.loc 1 420 0
 105 000a 0024     		movs	r4, #0
 106 000c 1DE0     		b	.L9
 107              	.LVL4:
 108              	.L14:
 421:.\Generated_Source\PSoC5/RX_CAN_INT.c ****         {
 422:.\Generated_Source\PSoC5/RX_CAN_INT.c ****             if ((CY_GET_REG16((reg16 *) &RX_CAN_BUF_SR_REG.byte[0u]) & shift) != 0u)
 109              		.loc 1 422 0
 110 000e 114B     		ldr	r3, .L16+4
 111 0010 1B88     		ldrh	r3, [r3]
 112 0012 1D42     		tst	r5, r3
 113 0014 15D0     		beq	.L10
 423:.\Generated_Source\PSoC5/RX_CAN_INT.c ****             {
 424:.\Generated_Source\PSoC5/RX_CAN_INT.c ****                 if ((RX_CAN_RX[mailboxNumber].rxcmd.byte[0u] & RX_CAN_RX_INT_ENABLE_MASK) != 0u)
 114              		.loc 1 424 0
 115 0016 6301     		lsls	r3, r4, #5
 116 0018 0F4A     		ldr	r2, .L16+8
 117 001a 9B5C     		ldrb	r3, [r3, r2]	@ zero_extendqisi2
 118 001c 13F0200F 		tst	r3, #32
 119 0020 0FD0     		beq	.L10
 425:.\Generated_Source\PSoC5/RX_CAN_INT.c ****                 {
 426:.\Generated_Source\PSoC5/RX_CAN_INT.c ****                     if ((RX_CAN_RX_MAILBOX_TYPE & shift) != 0u)
 120              		.loc 1 426 0
 121 0022 15F0090F 		tst	r5, #9
 122 0026 09D0     		beq	.L11
 427:.\Generated_Source\PSoC5/RX_CAN_INT.c ****                     {
 428:.\Generated_Source\PSoC5/RX_CAN_INT.c ****                         /* RX Full mailboxes handler */
 429:.\Generated_Source\PSoC5/RX_CAN_INT.c ****                         switch(mailboxNumber)
 123              		.loc 1 429 0
 124 0028 14B1     		cbz	r4, .L12
 125 002a 032C     		cmp	r4, #3
 126 002c 03D0     		beq	.L13
 127 002e 08E0     		b	.L10
 128              	.L12:
 430:.\Generated_Source\PSoC5/RX_CAN_INT.c ****                         {
 431:.\Generated_Source\PSoC5/RX_CAN_INT.c ****                             case 0u : RX_CAN_ReceiveMsg0();
 129              		.loc 1 431 0
 130 0030 FFF7FEFF 		bl	RX_CAN_ReceiveMsg0
 131              	.LVL5:
 432:.\Generated_Source\PSoC5/RX_CAN_INT.c ****                             break;
 132              		.loc 1 432 0
 133 0034 05E0     		b	.L10
 134              	.L13:
 433:.\Generated_Source\PSoC5/RX_CAN_INT.c ****                             case 3u : RX_CAN_ReceiveMsg3();
 135              		.loc 1 433 0
 136 0036 FFF7FEFF 		bl	RX_CAN_ReceiveMsg3
ARM GAS  C:\Users\HENRYA~1\AppData\Local\Temp\ccawlI5Y.s 			page 11


 137              	.LVL6:
 434:.\Generated_Source\PSoC5/RX_CAN_INT.c ****                             break;
 138              		.loc 1 434 0
 139 003a 02E0     		b	.L10
 140              	.L11:
 435:.\Generated_Source\PSoC5/RX_CAN_INT.c ****                             default:
 436:.\Generated_Source\PSoC5/RX_CAN_INT.c ****                             break;
 437:.\Generated_Source\PSoC5/RX_CAN_INT.c ****                         }
 438:.\Generated_Source\PSoC5/RX_CAN_INT.c ****                     }
 439:.\Generated_Source\PSoC5/RX_CAN_INT.c ****                     else
 440:.\Generated_Source\PSoC5/RX_CAN_INT.c ****                     {
 441:.\Generated_Source\PSoC5/RX_CAN_INT.c ****                         /* RX Basic mailbox handler */
 442:.\Generated_Source\PSoC5/RX_CAN_INT.c ****                         RX_CAN_ReceiveMsg(mailboxNumber);
 141              		.loc 1 442 0
 142 003c 2046     		mov	r0, r4
 143 003e FFF7FEFF 		bl	RX_CAN_ReceiveMsg
 144              	.LVL7:
 145              	.L10:
 443:.\Generated_Source\PSoC5/RX_CAN_INT.c ****                     }
 444:.\Generated_Source\PSoC5/RX_CAN_INT.c ****                 }
 445:.\Generated_Source\PSoC5/RX_CAN_INT.c ****             }
 446:.\Generated_Source\PSoC5/RX_CAN_INT.c ****             shift <<= 1u;
 146              		.loc 1 446 0 discriminator 2
 147 0042 6D00     		lsls	r5, r5, #1
 148              	.LVL8:
 149 0044 ADB2     		uxth	r5, r5
 150              	.LVL9:
 420:.\Generated_Source\PSoC5/RX_CAN_INT.c ****         {
 151              		.loc 1 420 0 discriminator 2
 152 0046 0134     		adds	r4, r4, #1
 153              	.LVL10:
 154 0048 E4B2     		uxtb	r4, r4
 155              	.LVL11:
 156              	.L9:
 420:.\Generated_Source\PSoC5/RX_CAN_INT.c ****         {
 157              		.loc 1 420 0 is_stmt 0 discriminator 1
 158 004a 0F2C     		cmp	r4, #15
 159 004c DFD9     		bls	.L14
 447:.\Generated_Source\PSoC5/RX_CAN_INT.c ****         }
 448:.\Generated_Source\PSoC5/RX_CAN_INT.c ****     }
 160              		.loc 1 448 0 is_stmt 1
 161 004e 38BD     		pop	{r3, r4, r5, pc}
 162              	.LVL12:
 163              	.L17:
 164              		.align	2
 165              	.L16:
 166 0050 00A00040 		.word	1073782784
 167 0054 08A00040 		.word	1073782792
 168 0058 A0A00040 		.word	1073782944
 169              		.cfi_endproc
 170              	.LFE2:
 171              		.size	RX_CAN_MsgRXIsr, .-RX_CAN_MsgRXIsr
 172              		.section	.text.RX_CAN_ISR,"ax",%progbits
 173              		.align	2
 174              		.global	RX_CAN_ISR
 175              		.thumb
 176              		.thumb_func
ARM GAS  C:\Users\HENRYA~1\AppData\Local\Temp\ccawlI5Y.s 			page 12


 177              		.type	RX_CAN_ISR, %function
 178              	RX_CAN_ISR:
 179              	.LFB3:
 449:.\Generated_Source\PSoC5/RX_CAN_INT.c **** #endif /* RX_CAN_RX_MESSAGE */
 450:.\Generated_Source\PSoC5/RX_CAN_INT.c **** 
 451:.\Generated_Source\PSoC5/RX_CAN_INT.c **** 
 452:.\Generated_Source\PSoC5/RX_CAN_INT.c **** /*******************************************************************************
 453:.\Generated_Source\PSoC5/RX_CAN_INT.c **** * Function Name: RX_CAN_ISR
 454:.\Generated_Source\PSoC5/RX_CAN_INT.c **** ********************************************************************************
 455:.\Generated_Source\PSoC5/RX_CAN_INT.c **** *
 456:.\Generated_Source\PSoC5/RX_CAN_INT.c **** * Summary:
 457:.\Generated_Source\PSoC5/RX_CAN_INT.c **** *  This ISR is executed when CAN Core generates and interrupt on one of events:
 458:.\Generated_Source\PSoC5/RX_CAN_INT.c **** *  Arb_lost, Overload, Bit_err, Stuff_err, Ack_err, Form_err, Crc_err,
 459:.\Generated_Source\PSoC5/RX_CAN_INT.c **** *  Buss_off, Rx_msg_lost, Tx_msg or Rx_msg. The interrupt sources depends
 460:.\Generated_Source\PSoC5/RX_CAN_INT.c **** *  on the Customizer inputs.
 461:.\Generated_Source\PSoC5/RX_CAN_INT.c **** *
 462:.\Generated_Source\PSoC5/RX_CAN_INT.c **** * Parameters:
 463:.\Generated_Source\PSoC5/RX_CAN_INT.c **** *  None.
 464:.\Generated_Source\PSoC5/RX_CAN_INT.c **** *
 465:.\Generated_Source\PSoC5/RX_CAN_INT.c **** * Return:
 466:.\Generated_Source\PSoC5/RX_CAN_INT.c **** *  None.
 467:.\Generated_Source\PSoC5/RX_CAN_INT.c **** *
 468:.\Generated_Source\PSoC5/RX_CAN_INT.c **** *******************************************************************************/
 469:.\Generated_Source\PSoC5/RX_CAN_INT.c **** CY_ISR(RX_CAN_ISR)
 470:.\Generated_Source\PSoC5/RX_CAN_INT.c **** {
 180              		.loc 1 470 0
 181              		.cfi_startproc
 182              		@ args = 0, pretend = 0, frame = 0
 183              		@ frame_needed = 0, uses_anonymous_args = 0
 184 0000 08B5     		push	{r3, lr}
 185              		.cfi_def_cfa_offset 8
 186              		.cfi_offset 3, -8
 187              		.cfi_offset 14, -4
 471:.\Generated_Source\PSoC5/RX_CAN_INT.c ****     #ifdef RX_CAN_ISR_INTERRUPT_CALLBACK
 472:.\Generated_Source\PSoC5/RX_CAN_INT.c ****         RX_CAN_ISR_InterruptCallback();
 473:.\Generated_Source\PSoC5/RX_CAN_INT.c ****     #endif /* RX_CAN_ISR_INTERRUPT_CALLBACK */
 474:.\Generated_Source\PSoC5/RX_CAN_INT.c ****     
 475:.\Generated_Source\PSoC5/RX_CAN_INT.c ****     /* Place your Interrupt code here. */
 476:.\Generated_Source\PSoC5/RX_CAN_INT.c ****     /* `#START CAN_ISR` */
 477:.\Generated_Source\PSoC5/RX_CAN_INT.c **** 
 478:.\Generated_Source\PSoC5/RX_CAN_INT.c ****     /* `#END` */
 479:.\Generated_Source\PSoC5/RX_CAN_INT.c ****     
 480:.\Generated_Source\PSoC5/RX_CAN_INT.c ****     /* Arbitration */
 481:.\Generated_Source\PSoC5/RX_CAN_INT.c ****     #if (RX_CAN_ARB_LOST && (RX_CAN_ARB_LOST_USE_HELPER || \
 482:.\Generated_Source\PSoC5/RX_CAN_INT.c ****         (!RX_CAN_ADVANCED_INTERRUPT_CFG)))
 483:.\Generated_Source\PSoC5/RX_CAN_INT.c ****         if ((RX_CAN_INT_SR_REG.byte[0u] & RX_CAN_ARBITRATION_LOST_MASK) != 0u)
 484:.\Generated_Source\PSoC5/RX_CAN_INT.c ****         {
 485:.\Generated_Source\PSoC5/RX_CAN_INT.c ****             RX_CAN_ArbLostIsr();
 486:.\Generated_Source\PSoC5/RX_CAN_INT.c ****         }
 487:.\Generated_Source\PSoC5/RX_CAN_INT.c ****     #endif /* RX_CAN_ARB_LOST && RX_CAN_ARB_LOST_USE_HELPER */
 488:.\Generated_Source\PSoC5/RX_CAN_INT.c **** 
 489:.\Generated_Source\PSoC5/RX_CAN_INT.c ****     /* Overload Error */
 490:.\Generated_Source\PSoC5/RX_CAN_INT.c ****     #if (RX_CAN_OVERLOAD && (RX_CAN_OVERLOAD_USE_HELPER || \
 491:.\Generated_Source\PSoC5/RX_CAN_INT.c ****         (!RX_CAN_ADVANCED_INTERRUPT_CFG)))
 492:.\Generated_Source\PSoC5/RX_CAN_INT.c ****         if ((RX_CAN_INT_SR_REG.byte[0u] & RX_CAN_OVERLOAD_ERROR_MASK) != 0u)
 493:.\Generated_Source\PSoC5/RX_CAN_INT.c ****         {
 494:.\Generated_Source\PSoC5/RX_CAN_INT.c ****             RX_CAN_OvrLdErrorIsr();
ARM GAS  C:\Users\HENRYA~1\AppData\Local\Temp\ccawlI5Y.s 			page 13


 495:.\Generated_Source\PSoC5/RX_CAN_INT.c ****         }
 496:.\Generated_Source\PSoC5/RX_CAN_INT.c ****     #endif /* RX_CAN_OVERLOAD && RX_CAN_OVERLOAD_USE_HELPER */
 497:.\Generated_Source\PSoC5/RX_CAN_INT.c **** 
 498:.\Generated_Source\PSoC5/RX_CAN_INT.c ****     /* Bit Error */
 499:.\Generated_Source\PSoC5/RX_CAN_INT.c ****     #if (RX_CAN_BIT_ERR && (RX_CAN_BIT_ERR_USE_HELPER || \
 500:.\Generated_Source\PSoC5/RX_CAN_INT.c ****         (!RX_CAN_ADVANCED_INTERRUPT_CFG)))
 501:.\Generated_Source\PSoC5/RX_CAN_INT.c ****         if ((RX_CAN_INT_SR_REG.byte[0u] & RX_CAN_BIT_ERROR_MASK) != 0u)
 502:.\Generated_Source\PSoC5/RX_CAN_INT.c ****         {
 503:.\Generated_Source\PSoC5/RX_CAN_INT.c ****             RX_CAN_BitErrorIsr();
 504:.\Generated_Source\PSoC5/RX_CAN_INT.c ****         }
 505:.\Generated_Source\PSoC5/RX_CAN_INT.c ****     #endif /* RX_CAN_BIT_ERR && RX_CAN_BIT_ERR_USE_HELPER */
 506:.\Generated_Source\PSoC5/RX_CAN_INT.c **** 
 507:.\Generated_Source\PSoC5/RX_CAN_INT.c ****     /* Bit Staff Error */
 508:.\Generated_Source\PSoC5/RX_CAN_INT.c ****     #if (RX_CAN_STUFF_ERR && (RX_CAN_STUFF_ERR_USE_HELPER || \
 509:.\Generated_Source\PSoC5/RX_CAN_INT.c ****         (!RX_CAN_ADVANCED_INTERRUPT_CFG)))
 510:.\Generated_Source\PSoC5/RX_CAN_INT.c ****         if ((RX_CAN_INT_SR_REG.byte[0u] & RX_CAN_STUFF_ERROR_MASK) != 0u)
 511:.\Generated_Source\PSoC5/RX_CAN_INT.c ****         {
 512:.\Generated_Source\PSoC5/RX_CAN_INT.c ****             RX_CAN_BitStuffErrorIsr();
 513:.\Generated_Source\PSoC5/RX_CAN_INT.c ****         }
 514:.\Generated_Source\PSoC5/RX_CAN_INT.c ****     #endif /* RX_CAN_STUFF_ERR && RX_CAN_STUFF_ERR_USE_HELPER */
 515:.\Generated_Source\PSoC5/RX_CAN_INT.c **** 
 516:.\Generated_Source\PSoC5/RX_CAN_INT.c ****     /* ACK Error */
 517:.\Generated_Source\PSoC5/RX_CAN_INT.c ****     #if (RX_CAN_ACK_ERR && (RX_CAN_ACK_ERR_USE_HELPER || \
 518:.\Generated_Source\PSoC5/RX_CAN_INT.c ****         (!RX_CAN_ADVANCED_INTERRUPT_CFG)))
 519:.\Generated_Source\PSoC5/RX_CAN_INT.c ****         if ((RX_CAN_INT_SR_REG.byte[0u] & RX_CAN_ACK_ERROR_MASK) != 0u)
 520:.\Generated_Source\PSoC5/RX_CAN_INT.c ****         {
 521:.\Generated_Source\PSoC5/RX_CAN_INT.c ****             RX_CAN_AckErrorIsr();
 522:.\Generated_Source\PSoC5/RX_CAN_INT.c ****         }
 523:.\Generated_Source\PSoC5/RX_CAN_INT.c ****     #endif /* RX_CAN_ACK_ERR && RX_CAN_ACK_ERR_USE_HELPER */
 524:.\Generated_Source\PSoC5/RX_CAN_INT.c **** 
 525:.\Generated_Source\PSoC5/RX_CAN_INT.c ****     /* Form(msg) Error */
 526:.\Generated_Source\PSoC5/RX_CAN_INT.c ****     #if (RX_CAN_FORM_ERR && (RX_CAN_FORM_ERR_USE_HELPER || \
 527:.\Generated_Source\PSoC5/RX_CAN_INT.c ****         (!RX_CAN_ADVANCED_INTERRUPT_CFG)))
 528:.\Generated_Source\PSoC5/RX_CAN_INT.c ****         if ((RX_CAN_INT_SR_REG.byte[0u] & RX_CAN_FORM_ERROR_MASK) != 0u)
 529:.\Generated_Source\PSoC5/RX_CAN_INT.c ****         {
 530:.\Generated_Source\PSoC5/RX_CAN_INT.c ****             RX_CAN_MsgErrorIsr();
 531:.\Generated_Source\PSoC5/RX_CAN_INT.c ****         }
 532:.\Generated_Source\PSoC5/RX_CAN_INT.c ****     #endif /* RX_CAN_FORM_ERR && RX_CAN_FORM_ERR_USE_HELPER */
 533:.\Generated_Source\PSoC5/RX_CAN_INT.c **** 
 534:.\Generated_Source\PSoC5/RX_CAN_INT.c ****     /* CRC Error */
 535:.\Generated_Source\PSoC5/RX_CAN_INT.c ****     #if (RX_CAN_CRC_ERR && (RX_CAN_CRC_ERR_USE_HELPER || \
 536:.\Generated_Source\PSoC5/RX_CAN_INT.c ****         (!RX_CAN_ADVANCED_INTERRUPT_CFG)))
 537:.\Generated_Source\PSoC5/RX_CAN_INT.c ****         if ((RX_CAN_INT_SR_REG.byte[1u] & RX_CAN_CRC_ERROR_MASK) != 0u)
 538:.\Generated_Source\PSoC5/RX_CAN_INT.c ****         {
 539:.\Generated_Source\PSoC5/RX_CAN_INT.c ****             RX_CAN_CrcErrorIsr();
 540:.\Generated_Source\PSoC5/RX_CAN_INT.c ****         }
 541:.\Generated_Source\PSoC5/RX_CAN_INT.c ****     #endif /* RX_CAN_CRC_ERR && RX_CAN_CRC_ERR_USE_HELPER */
 542:.\Generated_Source\PSoC5/RX_CAN_INT.c **** 
 543:.\Generated_Source\PSoC5/RX_CAN_INT.c ****     /* Bus Off state */
 544:.\Generated_Source\PSoC5/RX_CAN_INT.c ****     #if (RX_CAN_BUS_OFF && (RX_CAN_BUS_OFF_USE_HELPER || \
 545:.\Generated_Source\PSoC5/RX_CAN_INT.c ****         (!RX_CAN_ADVANCED_INTERRUPT_CFG)))
 546:.\Generated_Source\PSoC5/RX_CAN_INT.c ****         if ((RX_CAN_INT_SR_REG.byte[1u] & RX_CAN_BUS_OFF_MASK) != 0u)
 188              		.loc 1 546 0
 189 0002 0B4B     		ldr	r3, .L23
 190 0004 5B78     		ldrb	r3, [r3, #1]	@ zero_extendqisi2
 191 0006 13F0020F 		tst	r3, #2
 192 000a 01D0     		beq	.L19
ARM GAS  C:\Users\HENRYA~1\AppData\Local\Temp\ccawlI5Y.s 			page 14


 547:.\Generated_Source\PSoC5/RX_CAN_INT.c ****         {
 548:.\Generated_Source\PSoC5/RX_CAN_INT.c ****             RX_CAN_BusOffIsr();
 193              		.loc 1 548 0
 194 000c FFF7FEFF 		bl	RX_CAN_BusOffIsr
 195              	.LVL13:
 196              	.L19:
 549:.\Generated_Source\PSoC5/RX_CAN_INT.c ****         }
 550:.\Generated_Source\PSoC5/RX_CAN_INT.c ****     #endif /* RX_CAN_BUS_OFF && RX_CAN_BUS_OFF_USE_HELPER */
 551:.\Generated_Source\PSoC5/RX_CAN_INT.c **** 
 552:.\Generated_Source\PSoC5/RX_CAN_INT.c ****     /* Message Lost */
 553:.\Generated_Source\PSoC5/RX_CAN_INT.c ****     #if (RX_CAN_RX_MSG_LOST && (RX_CAN_RX_MSG_LOST_USE_HELPER || \
 554:.\Generated_Source\PSoC5/RX_CAN_INT.c ****         (!RX_CAN_ADVANCED_INTERRUPT_CFG)))
 555:.\Generated_Source\PSoC5/RX_CAN_INT.c ****         if ((RX_CAN_INT_SR_REG.byte[1u] & RX_CAN_RX_MSG_LOST_MASK) != 0u)
 556:.\Generated_Source\PSoC5/RX_CAN_INT.c ****         {
 557:.\Generated_Source\PSoC5/RX_CAN_INT.c ****             RX_CAN_MsgLostIsr();
 558:.\Generated_Source\PSoC5/RX_CAN_INT.c ****         }
 559:.\Generated_Source\PSoC5/RX_CAN_INT.c ****     #endif /* RX_CAN_RX_MSG_LOST && RX_CAN_RX_MSG_LOST_USE_HELPER */
 560:.\Generated_Source\PSoC5/RX_CAN_INT.c **** 
 561:.\Generated_Source\PSoC5/RX_CAN_INT.c ****     /* TX Message Send */
 562:.\Generated_Source\PSoC5/RX_CAN_INT.c ****     #if (RX_CAN_TX_MESSAGE && (RX_CAN_TX_MESSAGE_USE_HELPER || \
 563:.\Generated_Source\PSoC5/RX_CAN_INT.c ****         (!RX_CAN_ADVANCED_INTERRUPT_CFG)))
 564:.\Generated_Source\PSoC5/RX_CAN_INT.c ****         if ((RX_CAN_INT_SR_REG.byte[1u] & RX_CAN_TX_MESSAGE_MASK) != 0u)
 197              		.loc 1 564 0
 198 0010 074B     		ldr	r3, .L23
 199 0012 5B78     		ldrb	r3, [r3, #1]	@ zero_extendqisi2
 200 0014 13F0080F 		tst	r3, #8
 201 0018 01D0     		beq	.L20
 565:.\Generated_Source\PSoC5/RX_CAN_INT.c ****         {
 566:.\Generated_Source\PSoC5/RX_CAN_INT.c ****             RX_CAN_MsgTXIsr();
 202              		.loc 1 566 0
 203 001a FFF7FEFF 		bl	RX_CAN_MsgTXIsr
 204              	.LVL14:
 205              	.L20:
 567:.\Generated_Source\PSoC5/RX_CAN_INT.c ****         }
 568:.\Generated_Source\PSoC5/RX_CAN_INT.c ****     #endif /* RX_CAN_TX_MESSAGE && RX_CAN_TX_MESSAGE_USE_HELPER */
 569:.\Generated_Source\PSoC5/RX_CAN_INT.c **** 
 570:.\Generated_Source\PSoC5/RX_CAN_INT.c ****     /* RX Message Available */
 571:.\Generated_Source\PSoC5/RX_CAN_INT.c ****     #if (RX_CAN_RX_MESSAGE && (RX_CAN_RX_MESSAGE_USE_HELPER || \
 572:.\Generated_Source\PSoC5/RX_CAN_INT.c ****         (!RX_CAN_ADVANCED_INTERRUPT_CFG)))
 573:.\Generated_Source\PSoC5/RX_CAN_INT.c ****         if ((RX_CAN_INT_SR_REG.byte[1u] & RX_CAN_RX_MESSAGE_MASK) != 0u)
 206              		.loc 1 573 0
 207 001e 044B     		ldr	r3, .L23
 208 0020 5B78     		ldrb	r3, [r3, #1]	@ zero_extendqisi2
 209 0022 13F0100F 		tst	r3, #16
 210 0026 01D0     		beq	.L18
 574:.\Generated_Source\PSoC5/RX_CAN_INT.c ****         {
 575:.\Generated_Source\PSoC5/RX_CAN_INT.c ****             RX_CAN_MsgRXIsr();
 211              		.loc 1 575 0
 212 0028 FFF7FEFF 		bl	RX_CAN_MsgRXIsr
 213              	.LVL15:
 214              	.L18:
 215 002c 08BD     		pop	{r3, pc}
 216              	.L24:
 217 002e 00BF     		.align	2
 218              	.L23:
 219 0030 00A00040 		.word	1073782784
 220              		.cfi_endproc
ARM GAS  C:\Users\HENRYA~1\AppData\Local\Temp\ccawlI5Y.s 			page 15


 221              	.LFE3:
 222              		.size	RX_CAN_ISR, .-RX_CAN_ISR
 223              		.text
 224              	.Letext0:
 225              		.file 2 ".\\Generated_Source\\PSoC5\\cytypes.h"
 226              		.file 3 ".\\Generated_Source\\PSoC5\\RX_CAN.h"