ARM GAS  C:\Users\HENRYA~1\AppData\Local\Temp\ccQShem7.s 			page 1


   1              		.cpu cortex-m0
   2              		.fpu softvfp
   3              		.eabi_attribute 20, 1
   4              		.eabi_attribute 21, 1
   5              		.eabi_attribute 23, 3
   6              		.eabi_attribute 24, 1
   7              		.eabi_attribute 25, 1
   8              		.eabi_attribute 26, 1
   9              		.eabi_attribute 30, 1
  10              		.eabi_attribute 34, 0
  11              		.eabi_attribute 18, 4
  12              		.code	16
  13              		.file	"CyFlash.c"
  14              		.text
  15              	.Ltext0:
  16              		.cfi_sections	.debug_frame
  17              		.section	.text.CySysFlashClockBackup,"ax",%progbits
  18              		.align	2
  19              		.code	16
  20              		.thumb_func
  21              		.type	CySysFlashClockBackup, %function
  22              	CySysFlashClockBackup:
  23              	.LFB4:
  24              		.file 1 ".\\Generated_Source\\PSoC4\\CyFlash.c"
   1:.\Generated_Source\PSoC4/CyFlash.c **** /***************************************************************************//**
   2:.\Generated_Source\PSoC4/CyFlash.c **** * \file CyFlash.c
   3:.\Generated_Source\PSoC4/CyFlash.c **** * \version 5.40
   4:.\Generated_Source\PSoC4/CyFlash.c **** *
   5:.\Generated_Source\PSoC4/CyFlash.c **** * \brief Provides an API for the FLASH.
   6:.\Generated_Source\PSoC4/CyFlash.c **** *
   7:.\Generated_Source\PSoC4/CyFlash.c **** * \note This code is endian agnostic.
   8:.\Generated_Source\PSoC4/CyFlash.c **** *
   9:.\Generated_Source\PSoC4/CyFlash.c **** * \note Documentation of the API's in this file is located in the System
  10:.\Generated_Source\PSoC4/CyFlash.c **** * Reference Guide provided with PSoC Creator.
  11:.\Generated_Source\PSoC4/CyFlash.c **** *
  12:.\Generated_Source\PSoC4/CyFlash.c **** ********************************************************************************
  13:.\Generated_Source\PSoC4/CyFlash.c **** * \copyright
  14:.\Generated_Source\PSoC4/CyFlash.c **** * Copyright 2010-2016, Cypress Semiconductor Corporation.  All rights reserved.
  15:.\Generated_Source\PSoC4/CyFlash.c **** * You may use this file only in accordance with the license, terms, conditions,
  16:.\Generated_Source\PSoC4/CyFlash.c **** * disclaimers, and limitations in the end user license agreement accompanying
  17:.\Generated_Source\PSoC4/CyFlash.c **** * the software package with which this file was provided.
  18:.\Generated_Source\PSoC4/CyFlash.c **** *******************************************************************************/
  19:.\Generated_Source\PSoC4/CyFlash.c **** 
  20:.\Generated_Source\PSoC4/CyFlash.c **** #include "CyFlash.h"
  21:.\Generated_Source\PSoC4/CyFlash.c **** 
  22:.\Generated_Source\PSoC4/CyFlash.c **** 
  23:.\Generated_Source\PSoC4/CyFlash.c **** /*******************************************************************************
  24:.\Generated_Source\PSoC4/CyFlash.c **** * Cypress identified a defect with the Flash write functionality of the
  25:.\Generated_Source\PSoC4/CyFlash.c **** * PSoC 4000, PSoC 4100, and PSoC 4200 devices. The CySysFlashWriteRow() function
  26:.\Generated_Source\PSoC4/CyFlash.c **** * now checks the data to be written and, if necessary, modifies it to have a
  27:.\Generated_Source\PSoC4/CyFlash.c **** * non-zero checksum. After writing to Flash, the modified data is replaced
  28:.\Generated_Source\PSoC4/CyFlash.c **** * (Flash program) with the correct (original) data.
  29:.\Generated_Source\PSoC4/CyFlash.c **** *******************************************************************************/
  30:.\Generated_Source\PSoC4/CyFlash.c **** #define CY_FLASH_CHECKSUM_WORKAROUND    (CY_PSOC4_4000 || CY_PSOC4_4100 || CY_PSOC4_4200)
  31:.\Generated_Source\PSoC4/CyFlash.c **** 
  32:.\Generated_Source\PSoC4/CyFlash.c **** #if (CY_IP_FM || ((!CY_PSOC4_4000) && CY_IP_SPCIF_SYNCHRONOUS) || (!CY_IP_FM) && CY_PSOC4_4000)
  33:.\Generated_Source\PSoC4/CyFlash.c ****     static CY_SYS_FLASH_CLOCK_BACKUP_STRUCT cySysFlashBackup;
ARM GAS  C:\Users\HENRYA~1\AppData\Local\Temp\ccQShem7.s 			page 2


  34:.\Generated_Source\PSoC4/CyFlash.c **** #endif /* (CY_IP_FM || ((!CY_PSOC4_4000) && CY_IP_SPCIF_SYNCHRONOUS) || (!CY_IP_FM) && CY_PSOC4_400
  35:.\Generated_Source\PSoC4/CyFlash.c **** 
  36:.\Generated_Source\PSoC4/CyFlash.c **** static cystatus CySysFlashClockBackup(void);
  37:.\Generated_Source\PSoC4/CyFlash.c **** static cystatus CySysFlashClockRestore(void);
  38:.\Generated_Source\PSoC4/CyFlash.c **** #if(CY_IP_SPCIF_SYNCHRONOUS)
  39:.\Generated_Source\PSoC4/CyFlash.c ****     static cystatus CySysFlashClockConfig(void);
  40:.\Generated_Source\PSoC4/CyFlash.c **** #endif  /* (CY_IP_SPCIF_SYNCHRONOUS) */
  41:.\Generated_Source\PSoC4/CyFlash.c **** 
  42:.\Generated_Source\PSoC4/CyFlash.c **** 
  43:.\Generated_Source\PSoC4/CyFlash.c **** /*******************************************************************************
  44:.\Generated_Source\PSoC4/CyFlash.c **** * Function Name: CySysFlashWriteRow
  45:.\Generated_Source\PSoC4/CyFlash.c **** ****************************************************************************//**
  46:.\Generated_Source\PSoC4/CyFlash.c **** *
  47:.\Generated_Source\PSoC4/CyFlash.c **** * Erases a row of Flash and programs it with the new data.
  48:.\Generated_Source\PSoC4/CyFlash.c **** *
  49:.\Generated_Source\PSoC4/CyFlash.c **** * The IMO must be enabled before calling this function. The operation of the
  50:.\Generated_Source\PSoC4/CyFlash.c **** * flash writing hardware is dependent on the IMO.
  51:.\Generated_Source\PSoC4/CyFlash.c **** *
  52:.\Generated_Source\PSoC4/CyFlash.c **** * For PSoC 4000, PSoC 4100 BLE and PSoC 4200 BLE devices (PSoC 4100 BLE and
  53:.\Generated_Source\PSoC4/CyFlash.c **** * PSoC 4200 BLE devices with 256K of Flash memory are not affected), this API
  54:.\Generated_Source\PSoC4/CyFlash.c **** * will automatically modify the clock settings for the device. Writing to
  55:.\Generated_Source\PSoC4/CyFlash.c **** * flash requires that changes be made to the IMO and HFCLK settings. The
  56:.\Generated_Source\PSoC4/CyFlash.c **** * configuration is restored before returning. This will impact the operation
  57:.\Generated_Source\PSoC4/CyFlash.c **** * of most of the hardware in the device.
  58:.\Generated_Source\PSoC4/CyFlash.c **** *
  59:.\Generated_Source\PSoC4/CyFlash.c **** * For PSoC 4000 devices this API will automatically modify the clock settings
  60:.\Generated_Source\PSoC4/CyFlash.c **** * for the device. Writing to flash requires that changes be made to the IMO
  61:.\Generated_Source\PSoC4/CyFlash.c **** * and HFCLK settings. The configuration is restored before returning. HFCLK
  62:.\Generated_Source\PSoC4/CyFlash.c **** * will have several frequency changes during the operation of this API between
  63:.\Generated_Source\PSoC4/CyFlash.c **** * a minimum frequency of the current IMO frequency divided by 8 and a maximum
  64:.\Generated_Source\PSoC4/CyFlash.c **** * frequency of 12 MHz. This will impact the operation of most of the hardware
  65:.\Generated_Source\PSoC4/CyFlash.c **** * in the device.
  66:.\Generated_Source\PSoC4/CyFlash.c **** *
  67:.\Generated_Source\PSoC4/CyFlash.c **** * \param rowNum The flash row number. The number of the flash rows is defined by
  68:.\Generated_Source\PSoC4/CyFlash.c **** * the \ref CY_FLASH_NUMBER_ROWS macro for the selected device. Refer to the
  69:.\Generated_Source\PSoC4/CyFlash.c **** * device datasheet for the details.
  70:.\Generated_Source\PSoC4/CyFlash.c **** * \note The target flash array is calculated based on the specified flash row.
  71:.\Generated_Source\PSoC4/CyFlash.c **** *
  72:.\Generated_Source\PSoC4/CyFlash.c **** * \param rowData Array of bytes to write. The size of the array must be equal to
  73:.\Generated_Source\PSoC4/CyFlash.c **** * the flash row size. The flash row size for the selected device is defined by
  74:.\Generated_Source\PSoC4/CyFlash.c **** * the \ref CY_FLASH_SIZEOF_ROW macro. Refer to the device datasheet for the
  75:.\Generated_Source\PSoC4/CyFlash.c **** * details.
  76:.\Generated_Source\PSoC4/CyFlash.c **** *
  77:.\Generated_Source\PSoC4/CyFlash.c **** * \return \ref group_flash_status_codes
  78:.\Generated_Source\PSoC4/CyFlash.c **** *
  79:.\Generated_Source\PSoC4/CyFlash.c **** *******************************************************************************/
  80:.\Generated_Source\PSoC4/CyFlash.c **** uint32 CySysFlashWriteRow(uint32 rowNum, const uint8 rowData[])
  81:.\Generated_Source\PSoC4/CyFlash.c **** {
  82:.\Generated_Source\PSoC4/CyFlash.c ****     volatile uint32 retValue = CY_SYS_FLASH_SUCCESS;
  83:.\Generated_Source\PSoC4/CyFlash.c ****     volatile uint32 clkCnfRetValue = CY_SYS_FLASH_SUCCESS;
  84:.\Generated_Source\PSoC4/CyFlash.c ****     volatile uint32 parameters[(CY_FLASH_SIZEOF_ROW + CY_FLASH_SRAM_ROM_DATA) / sizeof(uint32)];
  85:.\Generated_Source\PSoC4/CyFlash.c ****     uint8  interruptState;
  86:.\Generated_Source\PSoC4/CyFlash.c **** 
  87:.\Generated_Source\PSoC4/CyFlash.c ****     #if (CY_FLASH_CHECKSUM_WORKAROUND)
  88:.\Generated_Source\PSoC4/CyFlash.c ****         uint32 needChecksumWorkaround = 0u;
  89:.\Generated_Source\PSoC4/CyFlash.c ****         uint32 savedIndex = 0u;
  90:.\Generated_Source\PSoC4/CyFlash.c ****         uint32 savedValue = 0u;
ARM GAS  C:\Users\HENRYA~1\AppData\Local\Temp\ccQShem7.s 			page 3


  91:.\Generated_Source\PSoC4/CyFlash.c ****         uint32 checksum = 0u;
  92:.\Generated_Source\PSoC4/CyFlash.c ****         uint32 bits = 0u;
  93:.\Generated_Source\PSoC4/CyFlash.c ****         uint32 i;
  94:.\Generated_Source\PSoC4/CyFlash.c ****     #endif  /* (CY_FLASH_CHECKSUM_WORKAROUND) */
  95:.\Generated_Source\PSoC4/CyFlash.c **** 
  96:.\Generated_Source\PSoC4/CyFlash.c ****     if ((rowNum < CY_FLASH_NUMBER_ROWS) && (rowData != 0u))
  97:.\Generated_Source\PSoC4/CyFlash.c ****     {
  98:.\Generated_Source\PSoC4/CyFlash.c ****         /* Copy data to be written into internal variable */
  99:.\Generated_Source\PSoC4/CyFlash.c ****         (void)memcpy((void *)&parameters[2u], rowData, CY_FLASH_SIZEOF_ROW);
 100:.\Generated_Source\PSoC4/CyFlash.c **** 
 101:.\Generated_Source\PSoC4/CyFlash.c ****         #if (CY_FLASH_CHECKSUM_WORKAROUND)
 102:.\Generated_Source\PSoC4/CyFlash.c **** 
 103:.\Generated_Source\PSoC4/CyFlash.c ****             for (i = 2u; i < ((CY_FLASH_SIZEOF_ROW / sizeof(uint32)) + 2u); i++)
 104:.\Generated_Source\PSoC4/CyFlash.c ****             {
 105:.\Generated_Source\PSoC4/CyFlash.c ****                 uint32 tmp = parameters[i];
 106:.\Generated_Source\PSoC4/CyFlash.c ****                 if (tmp != 0u)
 107:.\Generated_Source\PSoC4/CyFlash.c ****                 {
 108:.\Generated_Source\PSoC4/CyFlash.c ****                     checksum += tmp;
 109:.\Generated_Source\PSoC4/CyFlash.c ****                     bits |= tmp;
 110:.\Generated_Source\PSoC4/CyFlash.c ****                     savedIndex = i;
 111:.\Generated_Source\PSoC4/CyFlash.c ****                 }
 112:.\Generated_Source\PSoC4/CyFlash.c ****             }
 113:.\Generated_Source\PSoC4/CyFlash.c **** 
 114:.\Generated_Source\PSoC4/CyFlash.c ****             needChecksumWorkaround = ((checksum == 0u) && (bits != 0u)) ? 1u : 0u;
 115:.\Generated_Source\PSoC4/CyFlash.c ****             if (needChecksumWorkaround != 0u)
 116:.\Generated_Source\PSoC4/CyFlash.c ****             {
 117:.\Generated_Source\PSoC4/CyFlash.c ****                 savedValue = parameters[savedIndex];
 118:.\Generated_Source\PSoC4/CyFlash.c ****                 parameters[savedIndex] = 0u;
 119:.\Generated_Source\PSoC4/CyFlash.c ****             }
 120:.\Generated_Source\PSoC4/CyFlash.c ****         #endif  /* (CY_FLASH_CHECKSUM_WORKAROUND) */
 121:.\Generated_Source\PSoC4/CyFlash.c **** 
 122:.\Generated_Source\PSoC4/CyFlash.c ****         /* Load Flash Bytes */
 123:.\Generated_Source\PSoC4/CyFlash.c ****         parameters[0u] = (uint32) (CY_FLASH_GET_MACRO_FROM_ROW(rowNum)        << CY_FLASH_PARAM_MAC
 124:.\Generated_Source\PSoC4/CyFlash.c ****                          (uint32) (CY_FLASH_PAGE_LATCH_START_ADDR             << CY_FLASH_PARAM_ADD
 125:.\Generated_Source\PSoC4/CyFlash.c ****                          (uint32) (CY_FLASH_KEY_TWO(CY_FLASH_API_OPCODE_LOAD) << CY_FLASH_PARAM_KEY
 126:.\Generated_Source\PSoC4/CyFlash.c ****                          CY_FLASH_KEY_ONE;
 127:.\Generated_Source\PSoC4/CyFlash.c ****         parameters[1u] = CY_FLASH_SIZEOF_ROW - 1u;
 128:.\Generated_Source\PSoC4/CyFlash.c **** 
 129:.\Generated_Source\PSoC4/CyFlash.c ****         CY_FLASH_CPUSS_SYSARG_REG = (uint32) &parameters[0u];
 130:.\Generated_Source\PSoC4/CyFlash.c ****         CY_FLASH_CPUSS_SYSREQ_REG = CY_FLASH_CPUSS_REQ_START | CY_FLASH_API_OPCODE_LOAD;
 131:.\Generated_Source\PSoC4/CyFlash.c ****         CY_NOP;
 132:.\Generated_Source\PSoC4/CyFlash.c ****         retValue = CY_FLASH_API_RETURN;
 133:.\Generated_Source\PSoC4/CyFlash.c **** 
 134:.\Generated_Source\PSoC4/CyFlash.c ****         if(retValue == CY_SYS_FLASH_SUCCESS)
 135:.\Generated_Source\PSoC4/CyFlash.c ****         {
 136:.\Generated_Source\PSoC4/CyFlash.c ****             /***************************************************************
 137:.\Generated_Source\PSoC4/CyFlash.c ****             * Mask all the exceptions to guarantee that Flash write will
 138:.\Generated_Source\PSoC4/CyFlash.c ****             * occur in the atomic way. It will not affect system call
 139:.\Generated_Source\PSoC4/CyFlash.c ****             * execution (flash row write) since it is executed in the NMI
 140:.\Generated_Source\PSoC4/CyFlash.c ****             * context.
 141:.\Generated_Source\PSoC4/CyFlash.c ****             ***************************************************************/
 142:.\Generated_Source\PSoC4/CyFlash.c ****             interruptState = CyEnterCriticalSection();
 143:.\Generated_Source\PSoC4/CyFlash.c **** 
 144:.\Generated_Source\PSoC4/CyFlash.c ****             clkCnfRetValue = CySysFlashClockBackup();
 145:.\Generated_Source\PSoC4/CyFlash.c **** 
 146:.\Generated_Source\PSoC4/CyFlash.c ****         #if(CY_IP_SPCIF_SYNCHRONOUS)
 147:.\Generated_Source\PSoC4/CyFlash.c ****             if(clkCnfRetValue == CY_SYS_FLASH_SUCCESS)
ARM GAS  C:\Users\HENRYA~1\AppData\Local\Temp\ccQShem7.s 			page 4


 148:.\Generated_Source\PSoC4/CyFlash.c ****             {
 149:.\Generated_Source\PSoC4/CyFlash.c ****                 retValue = CySysFlashClockConfig();
 150:.\Generated_Source\PSoC4/CyFlash.c ****             }
 151:.\Generated_Source\PSoC4/CyFlash.c ****         #endif  /* (CY_IP_SPCIF_SYNCHRONOUS) */
 152:.\Generated_Source\PSoC4/CyFlash.c **** 
 153:.\Generated_Source\PSoC4/CyFlash.c ****             if(retValue == CY_SYS_FLASH_SUCCESS)
 154:.\Generated_Source\PSoC4/CyFlash.c ****             {
 155:.\Generated_Source\PSoC4/CyFlash.c ****                 /* Write Row */
 156:.\Generated_Source\PSoC4/CyFlash.c ****                 parameters[0u]  = (uint32) (((uint32) CY_FLASH_KEY_TWO(CY_FLASH_API_OPCODE_WRITE_RO
 157:.\Generated_Source\PSoC4/CyFlash.c ****                 parameters[0u] |= (uint32)(rowNum << 16u);
 158:.\Generated_Source\PSoC4/CyFlash.c **** 
 159:.\Generated_Source\PSoC4/CyFlash.c ****                 CY_FLASH_CPUSS_SYSARG_REG = (uint32) &parameters[0u];
 160:.\Generated_Source\PSoC4/CyFlash.c ****                 CY_FLASH_CPUSS_SYSREQ_REG = CY_FLASH_CPUSS_REQ_START | CY_FLASH_API_OPCODE_WRITE_RO
 161:.\Generated_Source\PSoC4/CyFlash.c ****                 CY_NOP;
 162:.\Generated_Source\PSoC4/CyFlash.c ****                 retValue = CY_FLASH_API_RETURN;
 163:.\Generated_Source\PSoC4/CyFlash.c ****             }
 164:.\Generated_Source\PSoC4/CyFlash.c **** 
 165:.\Generated_Source\PSoC4/CyFlash.c ****             #if (CY_FLASH_CHECKSUM_WORKAROUND)
 166:.\Generated_Source\PSoC4/CyFlash.c **** 
 167:.\Generated_Source\PSoC4/CyFlash.c ****                 if ((retValue == CYRET_SUCCESS) && (needChecksumWorkaround != 0u))
 168:.\Generated_Source\PSoC4/CyFlash.c ****                 {
 169:.\Generated_Source\PSoC4/CyFlash.c ****                     (void)memset((void *)&parameters[2u], 0, CY_FLASH_SIZEOF_ROW);
 170:.\Generated_Source\PSoC4/CyFlash.c ****                     parameters[savedIndex] = savedValue;
 171:.\Generated_Source\PSoC4/CyFlash.c **** 
 172:.\Generated_Source\PSoC4/CyFlash.c ****                     /* Load Flash Bytes */
 173:.\Generated_Source\PSoC4/CyFlash.c ****                     parameters[0u] = (uint32) (CY_FLASH_GET_MACRO_FROM_ROW(rowNum)        << CY_FLA
 174:.\Generated_Source\PSoC4/CyFlash.c ****                                      (uint32) (CY_FLASH_PAGE_LATCH_START_ADDR             << CY_FLA
 175:.\Generated_Source\PSoC4/CyFlash.c ****                                      (uint32) (CY_FLASH_KEY_TWO(CY_FLASH_API_OPCODE_LOAD) << CY_FLA
 176:.\Generated_Source\PSoC4/CyFlash.c ****                                      CY_FLASH_KEY_ONE;
 177:.\Generated_Source\PSoC4/CyFlash.c ****                     parameters[1u] = CY_FLASH_SIZEOF_ROW - 1u;
 178:.\Generated_Source\PSoC4/CyFlash.c **** 
 179:.\Generated_Source\PSoC4/CyFlash.c ****                     CY_FLASH_CPUSS_SYSARG_REG = (uint32) &parameters[0u];
 180:.\Generated_Source\PSoC4/CyFlash.c ****                     CY_FLASH_CPUSS_SYSREQ_REG = CY_FLASH_CPUSS_REQ_START | CY_FLASH_API_OPCODE_LOAD
 181:.\Generated_Source\PSoC4/CyFlash.c ****                     CY_NOP;
 182:.\Generated_Source\PSoC4/CyFlash.c ****                     retValue = CY_FLASH_API_RETURN;
 183:.\Generated_Source\PSoC4/CyFlash.c **** 
 184:.\Generated_Source\PSoC4/CyFlash.c **** 
 185:.\Generated_Source\PSoC4/CyFlash.c ****                     if(retValue == CY_SYS_FLASH_SUCCESS)
 186:.\Generated_Source\PSoC4/CyFlash.c ****                     {
 187:.\Generated_Source\PSoC4/CyFlash.c ****                         /* Program Row */
 188:.\Generated_Source\PSoC4/CyFlash.c ****                         parameters[0u]  =
 189:.\Generated_Source\PSoC4/CyFlash.c ****                             (uint32) (((uint32) CY_FLASH_KEY_TWO(CY_FLASH_API_OPCODE_PROGRAM_ROW) <
 190:.\Generated_Source\PSoC4/CyFlash.c ****                                                     CY_FLASH_PARAM_KEY_TWO_OFFSET) | CY_FLASH_KEY_O
 191:.\Generated_Source\PSoC4/CyFlash.c ****                         parameters[0u] |= (uint32)(rowNum << 16u);
 192:.\Generated_Source\PSoC4/CyFlash.c **** 
 193:.\Generated_Source\PSoC4/CyFlash.c ****                         CY_FLASH_CPUSS_SYSARG_REG = (uint32) &parameters[0u];
 194:.\Generated_Source\PSoC4/CyFlash.c ****                         CY_FLASH_CPUSS_SYSREQ_REG = CY_FLASH_CPUSS_REQ_START | CY_FLASH_API_OPCODE_
 195:.\Generated_Source\PSoC4/CyFlash.c ****                         CY_NOP;
 196:.\Generated_Source\PSoC4/CyFlash.c ****                         retValue = CY_FLASH_API_RETURN;
 197:.\Generated_Source\PSoC4/CyFlash.c ****                     }
 198:.\Generated_Source\PSoC4/CyFlash.c ****                 }
 199:.\Generated_Source\PSoC4/CyFlash.c ****             #endif  /* (CY_FLASH_CHECKSUM_WORKAROUND) */
 200:.\Generated_Source\PSoC4/CyFlash.c **** 
 201:.\Generated_Source\PSoC4/CyFlash.c ****             if(clkCnfRetValue == CY_SYS_FLASH_SUCCESS)
 202:.\Generated_Source\PSoC4/CyFlash.c ****             {
 203:.\Generated_Source\PSoC4/CyFlash.c ****                 clkCnfRetValue = CySysFlashClockRestore();
 204:.\Generated_Source\PSoC4/CyFlash.c ****             }
ARM GAS  C:\Users\HENRYA~1\AppData\Local\Temp\ccQShem7.s 			page 5


 205:.\Generated_Source\PSoC4/CyFlash.c **** 
 206:.\Generated_Source\PSoC4/CyFlash.c ****             CyExitCriticalSection(interruptState);
 207:.\Generated_Source\PSoC4/CyFlash.c ****         }
 208:.\Generated_Source\PSoC4/CyFlash.c ****     }
 209:.\Generated_Source\PSoC4/CyFlash.c ****     else
 210:.\Generated_Source\PSoC4/CyFlash.c ****     {
 211:.\Generated_Source\PSoC4/CyFlash.c ****         retValue = CY_SYS_FLASH_INVALID_ADDR;
 212:.\Generated_Source\PSoC4/CyFlash.c ****     }
 213:.\Generated_Source\PSoC4/CyFlash.c **** 
 214:.\Generated_Source\PSoC4/CyFlash.c ****     return (retValue);
 215:.\Generated_Source\PSoC4/CyFlash.c **** }
 216:.\Generated_Source\PSoC4/CyFlash.c **** 
 217:.\Generated_Source\PSoC4/CyFlash.c **** 
 218:.\Generated_Source\PSoC4/CyFlash.c **** 
 219:.\Generated_Source\PSoC4/CyFlash.c **** #if (CY_IP_FLASH_PARALLEL_PGM_EN && (CY_IP_FLASH_MACROS > 1u))
 220:.\Generated_Source\PSoC4/CyFlash.c **** /*******************************************************************************
 221:.\Generated_Source\PSoC4/CyFlash.c **** * Function Name: CySysFlashStartWriteRow
 222:.\Generated_Source\PSoC4/CyFlash.c **** ****************************************************************************//**
 223:.\Generated_Source\PSoC4/CyFlash.c **** *
 224:.\Generated_Source\PSoC4/CyFlash.c **** * Initiates a write to a row of Flash. A call to this API is non-blocking. 
 225:.\Generated_Source\PSoC4/CyFlash.c **** * Use CySysFlashResumeWriteRow() to resume flash writes and 
 226:.\Generated_Source\PSoC4/CyFlash.c **** * CySysFlashGetWriteRowStatus() to ascertain status of the write operation.
 227:.\Generated_Source\PSoC4/CyFlash.c **** *
 228:.\Generated_Source\PSoC4/CyFlash.c **** * This API is applicable only for CCG3 device families.
 229:.\Generated_Source\PSoC4/CyFlash.c **** *
 230:.\Generated_Source\PSoC4/CyFlash.c **** * For CCG3 devices, parallel code execution and programming of flash is
 231:.\Generated_Source\PSoC4/CyFlash.c **** * supported since 128k flash is available as two banks of 64k. Please refer to
 232:.\Generated_Source\PSoC4/CyFlash.c **** * the device TRM for more details.
 233:.\Generated_Source\PSoC4/CyFlash.c **** *
 234:.\Generated_Source\PSoC4/CyFlash.c **** * CCG3 devices require HFCLK to be sourced by 48 MHz IMO during flash write.
 235:.\Generated_Source\PSoC4/CyFlash.c **** * This API will modify IMO configuration; it can be later restored to original
 236:.\Generated_Source\PSoC4/CyFlash.c **** * configuration by calling \ref CySysFlashGetWriteRowStatus().
 237:.\Generated_Source\PSoC4/CyFlash.c **** *
 238:.\Generated_Source\PSoC4/CyFlash.c **** * \param rowNum The flash row number. The number of the flash rows is defined by
 239:.\Generated_Source\PSoC4/CyFlash.c **** * the \ref CY_FLASH_NUMBER_ROWS macro for the selected device. Refer to the
 240:.\Generated_Source\PSoC4/CyFlash.c **** * device datasheet for the details.
 241:.\Generated_Source\PSoC4/CyFlash.c **** * \note The target flash array is calculated based on the specified flash row.
 242:.\Generated_Source\PSoC4/CyFlash.c **** *
 243:.\Generated_Source\PSoC4/CyFlash.c **** * \param rowData Array of bytes to write. The size of the array must be equal to
 244:.\Generated_Source\PSoC4/CyFlash.c **** * the flash row size. The flash row size for the selected device is defined by
 245:.\Generated_Source\PSoC4/CyFlash.c **** * the \ref CY_FLASH_SIZEOF_ROW macro. Refer to the device datasheet for the
 246:.\Generated_Source\PSoC4/CyFlash.c **** * details.
 247:.\Generated_Source\PSoC4/CyFlash.c **** *
 248:.\Generated_Source\PSoC4/CyFlash.c **** * \return \ref group_flash_status_codes
 249:.\Generated_Source\PSoC4/CyFlash.c **** *
 250:.\Generated_Source\PSoC4/CyFlash.c **** *******************************************************************************/
 251:.\Generated_Source\PSoC4/CyFlash.c **** uint32 CySysFlashStartWriteRow(uint32 rowNum, const uint8 rowData[])
 252:.\Generated_Source\PSoC4/CyFlash.c **** {
 253:.\Generated_Source\PSoC4/CyFlash.c ****     volatile uint32 retValue = CY_SYS_FLASH_SUCCESS;
 254:.\Generated_Source\PSoC4/CyFlash.c ****     volatile uint32 parameters[(CY_FLASH_SIZEOF_ROW + CY_FLASH_SRAM_ROM_DATA) / sizeof(uint32)];
 255:.\Generated_Source\PSoC4/CyFlash.c ****     uint8  interruptState;
 256:.\Generated_Source\PSoC4/CyFlash.c **** 
 257:.\Generated_Source\PSoC4/CyFlash.c **** #if(CY_IP_SPCIF_SYNCHRONOUS)
 258:.\Generated_Source\PSoC4/CyFlash.c ****     volatile uint32 clkCnfRetValue = CY_SYS_FLASH_SUCCESS;
 259:.\Generated_Source\PSoC4/CyFlash.c **** #endif  /* (CY_IP_SPCIF_SYNCHRONOUS) */    
 260:.\Generated_Source\PSoC4/CyFlash.c **** 
 261:.\Generated_Source\PSoC4/CyFlash.c ****     if ((rowNum < CY_FLASH_NUMBER_ROWS) && (rowData != 0u))
ARM GAS  C:\Users\HENRYA~1\AppData\Local\Temp\ccQShem7.s 			page 6


 262:.\Generated_Source\PSoC4/CyFlash.c ****     {
 263:.\Generated_Source\PSoC4/CyFlash.c ****         /* Copy data to be written into internal variable */
 264:.\Generated_Source\PSoC4/CyFlash.c ****         (void)memcpy((void *)&parameters[2u], rowData, CY_FLASH_SIZEOF_ROW);
 265:.\Generated_Source\PSoC4/CyFlash.c **** 
 266:.\Generated_Source\PSoC4/CyFlash.c ****         /* Load Flash Bytes */
 267:.\Generated_Source\PSoC4/CyFlash.c ****         parameters[0u] = (uint32) (CY_FLASH_GET_MACRO_FROM_ROW(rowNum)        << CY_FLASH_PARAM_MAC
 268:.\Generated_Source\PSoC4/CyFlash.c ****                          (uint32) (CY_FLASH_PAGE_LATCH_START_ADDR             << CY_FLASH_PARAM_ADD
 269:.\Generated_Source\PSoC4/CyFlash.c ****                          (uint32) (CY_FLASH_KEY_TWO(CY_FLASH_API_OPCODE_LOAD) << CY_FLASH_PARAM_KEY
 270:.\Generated_Source\PSoC4/CyFlash.c ****                          CY_FLASH_KEY_ONE;
 271:.\Generated_Source\PSoC4/CyFlash.c ****         parameters[1u] = CY_FLASH_SIZEOF_ROW - 1u;
 272:.\Generated_Source\PSoC4/CyFlash.c **** 
 273:.\Generated_Source\PSoC4/CyFlash.c ****         CY_FLASH_CPUSS_SYSARG_REG = (uint32) &parameters[0u];
 274:.\Generated_Source\PSoC4/CyFlash.c ****         CY_FLASH_CPUSS_SYSREQ_REG = CY_FLASH_CPUSS_REQ_START | CY_FLASH_API_OPCODE_LOAD;
 275:.\Generated_Source\PSoC4/CyFlash.c ****         CY_NOP;
 276:.\Generated_Source\PSoC4/CyFlash.c ****         retValue = CY_FLASH_API_RETURN;
 277:.\Generated_Source\PSoC4/CyFlash.c **** 
 278:.\Generated_Source\PSoC4/CyFlash.c ****         if(retValue == CY_SYS_FLASH_SUCCESS)
 279:.\Generated_Source\PSoC4/CyFlash.c ****         {
 280:.\Generated_Source\PSoC4/CyFlash.c ****             /***************************************************************
 281:.\Generated_Source\PSoC4/CyFlash.c ****             * Mask all the exceptions to guarantee that Flash write will
 282:.\Generated_Source\PSoC4/CyFlash.c ****             * occur in the atomic way. It will not affect system call
 283:.\Generated_Source\PSoC4/CyFlash.c ****             * execution (flash row write) since it is executed in the NMI
 284:.\Generated_Source\PSoC4/CyFlash.c ****             * context.
 285:.\Generated_Source\PSoC4/CyFlash.c ****             ***************************************************************/
 286:.\Generated_Source\PSoC4/CyFlash.c ****             interruptState = CyEnterCriticalSection();
 287:.\Generated_Source\PSoC4/CyFlash.c **** 
 288:.\Generated_Source\PSoC4/CyFlash.c ****         #if(CY_IP_SPCIF_SYNCHRONOUS)
 289:.\Generated_Source\PSoC4/CyFlash.c ****             clkCnfRetValue = CySysFlashClockBackup();
 290:.\Generated_Source\PSoC4/CyFlash.c ****             
 291:.\Generated_Source\PSoC4/CyFlash.c ****             if(clkCnfRetValue == CY_SYS_FLASH_SUCCESS)
 292:.\Generated_Source\PSoC4/CyFlash.c ****             {
 293:.\Generated_Source\PSoC4/CyFlash.c ****                 retValue = CySysFlashClockConfig();
 294:.\Generated_Source\PSoC4/CyFlash.c ****             }
 295:.\Generated_Source\PSoC4/CyFlash.c ****         #else
 296:.\Generated_Source\PSoC4/CyFlash.c ****             CySysFlashClockBackup();
 297:.\Generated_Source\PSoC4/CyFlash.c ****         #endif  /* (CY_IP_SPCIF_SYNCHRONOUS) */
 298:.\Generated_Source\PSoC4/CyFlash.c **** 
 299:.\Generated_Source\PSoC4/CyFlash.c ****             if(retValue == CY_SYS_FLASH_SUCCESS)
 300:.\Generated_Source\PSoC4/CyFlash.c ****             {
 301:.\Generated_Source\PSoC4/CyFlash.c ****                 /* Non-blocking Write Row */
 302:.\Generated_Source\PSoC4/CyFlash.c ****                 parameters[0u]  = (uint32) (((uint32) CY_FLASH_KEY_TWO(CY_FLASH_API_OPCODE_NON_BLOC
 303:.\Generated_Source\PSoC4/CyFlash.c ****                                                         CY_FLASH_PARAM_KEY_TWO_OFFSET) | CY_FLASH_K
 304:.\Generated_Source\PSoC4/CyFlash.c ****                 parameters[0u] |= (uint32)(rowNum << 16u);
 305:.\Generated_Source\PSoC4/CyFlash.c **** 
 306:.\Generated_Source\PSoC4/CyFlash.c ****                 CY_FLASH_CPUSS_SYSARG_REG = (uint32) &parameters[0u];
 307:.\Generated_Source\PSoC4/CyFlash.c ****                 CY_FLASH_CPUSS_SYSREQ_REG = CY_FLASH_CPUSS_REQ_START | CY_FLASH_API_OPCODE_NON_BLOC
 308:.\Generated_Source\PSoC4/CyFlash.c ****                 CY_NOP;
 309:.\Generated_Source\PSoC4/CyFlash.c ****                 retValue = CY_FLASH_API_RETURN;
 310:.\Generated_Source\PSoC4/CyFlash.c ****             }
 311:.\Generated_Source\PSoC4/CyFlash.c **** 
 312:.\Generated_Source\PSoC4/CyFlash.c ****             CyExitCriticalSection(interruptState);
 313:.\Generated_Source\PSoC4/CyFlash.c ****         }
 314:.\Generated_Source\PSoC4/CyFlash.c ****     }
 315:.\Generated_Source\PSoC4/CyFlash.c ****     else
 316:.\Generated_Source\PSoC4/CyFlash.c ****     {
 317:.\Generated_Source\PSoC4/CyFlash.c ****         retValue = CY_SYS_FLASH_INVALID_ADDR;
 318:.\Generated_Source\PSoC4/CyFlash.c ****     }
ARM GAS  C:\Users\HENRYA~1\AppData\Local\Temp\ccQShem7.s 			page 7


 319:.\Generated_Source\PSoC4/CyFlash.c **** 
 320:.\Generated_Source\PSoC4/CyFlash.c ****     return (retValue);
 321:.\Generated_Source\PSoC4/CyFlash.c **** }
 322:.\Generated_Source\PSoC4/CyFlash.c **** 
 323:.\Generated_Source\PSoC4/CyFlash.c **** 
 324:.\Generated_Source\PSoC4/CyFlash.c **** /*******************************************************************************
 325:.\Generated_Source\PSoC4/CyFlash.c **** * Function Name: CySysFlashGetWriteRowStatus
 326:.\Generated_Source\PSoC4/CyFlash.c **** ****************************************************************************//**
 327:.\Generated_Source\PSoC4/CyFlash.c **** *
 328:.\Generated_Source\PSoC4/CyFlash.c **** * Returns the current status of the flash write operation.
 329:.\Generated_Source\PSoC4/CyFlash.c **** *
 330:.\Generated_Source\PSoC4/CyFlash.c **** * This API is applicable only for CCG3 device families.
 331:.\Generated_Source\PSoC4/CyFlash.c **** *
 332:.\Generated_Source\PSoC4/CyFlash.c **** * For CCG3 devices, parallel code execution and programming of flash is
 333:.\Generated_Source\PSoC4/CyFlash.c **** * supported since 128k flash is available as two banks of 64k. Please refer to
 334:.\Generated_Source\PSoC4/CyFlash.c **** * the device TRM for more details.
 335:.\Generated_Source\PSoC4/CyFlash.c **** *
 336:.\Generated_Source\PSoC4/CyFlash.c **** * CCG3 devices require HFCLK to be sourced by 48 MHz IMO during flash write.
 337:.\Generated_Source\PSoC4/CyFlash.c **** * This API will restore original IMO configuration; that has been earlier
 338:.\Generated_Source\PSoC4/CyFlash.c **** * modified by \ref CySysFlashStartWriteRow().
 339:.\Generated_Source\PSoC4/CyFlash.c **** *
 340:.\Generated_Source\PSoC4/CyFlash.c **** * \return \ref group_flash_status_codes
 341:.\Generated_Source\PSoC4/CyFlash.c **** *
 342:.\Generated_Source\PSoC4/CyFlash.c **** *******************************************************************************/
 343:.\Generated_Source\PSoC4/CyFlash.c **** uint32 CySysFlashGetWriteRowStatus(void)
 344:.\Generated_Source\PSoC4/CyFlash.c **** {
 345:.\Generated_Source\PSoC4/CyFlash.c ****     volatile uint32 retValue = CY_SYS_FLASH_SUCCESS;
 346:.\Generated_Source\PSoC4/CyFlash.c **** 
 347:.\Generated_Source\PSoC4/CyFlash.c ****     CY_NOP;
 348:.\Generated_Source\PSoC4/CyFlash.c ****     retValue = CY_FLASH_API_RETURN;
 349:.\Generated_Source\PSoC4/CyFlash.c **** 
 350:.\Generated_Source\PSoC4/CyFlash.c ****     (void) CySysFlashClockRestore();
 351:.\Generated_Source\PSoC4/CyFlash.c **** 
 352:.\Generated_Source\PSoC4/CyFlash.c ****     return (retValue);
 353:.\Generated_Source\PSoC4/CyFlash.c **** }
 354:.\Generated_Source\PSoC4/CyFlash.c **** 
 355:.\Generated_Source\PSoC4/CyFlash.c **** 
 356:.\Generated_Source\PSoC4/CyFlash.c **** 
 357:.\Generated_Source\PSoC4/CyFlash.c **** /*******************************************************************************
 358:.\Generated_Source\PSoC4/CyFlash.c **** * Function Name: CySysFlashResumeWriteRow
 359:.\Generated_Source\PSoC4/CyFlash.c **** ****************************************************************************//**
 360:.\Generated_Source\PSoC4/CyFlash.c **** *
 361:.\Generated_Source\PSoC4/CyFlash.c **** * This API must be called, once the SPC interrupt is triggered to complete the
 362:.\Generated_Source\PSoC4/CyFlash.c **** * non-blocking operation. It is advised not to prolong calling this API for
 363:.\Generated_Source\PSoC4/CyFlash.c **** * more than 25 ms.
 364:.\Generated_Source\PSoC4/CyFlash.c **** *
 365:.\Generated_Source\PSoC4/CyFlash.c **** * The non-blocking write row API \ref CySysFlashStartWriteRow() requires that
 366:.\Generated_Source\PSoC4/CyFlash.c **** * this API be called 3 times to complete the write. This can be done by
 367:.\Generated_Source\PSoC4/CyFlash.c **** * configuring SPCIF interrupt and placing a call to this API.
 368:.\Generated_Source\PSoC4/CyFlash.c **** *
 369:.\Generated_Source\PSoC4/CyFlash.c **** * For CM0 based device, a non-blocking call to program a row of macro 0
 370:.\Generated_Source\PSoC4/CyFlash.c **** * requires the user to set the CPUSS_CONFIG.VECS_IN_RAM bit so that the
 371:.\Generated_Source\PSoC4/CyFlash.c **** * interrupt vector for the SPC is fetched from the SRAM rather than the FLASH.
 372:.\Generated_Source\PSoC4/CyFlash.c **** *
 373:.\Generated_Source\PSoC4/CyFlash.c **** * For CM0+ based device, if the user wants to keep the vector table in flash
 374:.\Generated_Source\PSoC4/CyFlash.c **** * when performing non-blocking flash write then they need to make sure the
 375:.\Generated_Source\PSoC4/CyFlash.c **** * vector table is placed in the flash macro which is not getting programmed by
ARM GAS  C:\Users\HENRYA~1\AppData\Local\Temp\ccQShem7.s 			page 8


 376:.\Generated_Source\PSoC4/CyFlash.c **** * configuring the VTOR register.
 377:.\Generated_Source\PSoC4/CyFlash.c **** *
 378:.\Generated_Source\PSoC4/CyFlash.c **** * This API is applicable only for CCG3 device families.
 379:.\Generated_Source\PSoC4/CyFlash.c **** *
 380:.\Generated_Source\PSoC4/CyFlash.c **** * \return \ref group_flash_status_codes
 381:.\Generated_Source\PSoC4/CyFlash.c **** *
 382:.\Generated_Source\PSoC4/CyFlash.c **** * \note Please consult the example project NonBlockingFlashWrite_Example for an
 383:.\Generated_Source\PSoC4/CyFlash.c **** * implementation.
 384:.\Generated_Source\PSoC4/CyFlash.c **** *
 385:.\Generated_Source\PSoC4/CyFlash.c **** *******************************************************************************/
 386:.\Generated_Source\PSoC4/CyFlash.c **** uint32 CySysFlashResumeWriteRow(void)
 387:.\Generated_Source\PSoC4/CyFlash.c **** {
 388:.\Generated_Source\PSoC4/CyFlash.c ****     volatile uint32 retValue = CY_SYS_FLASH_SUCCESS;
 389:.\Generated_Source\PSoC4/CyFlash.c ****     static volatile uint32 parameters[1u];
 390:.\Generated_Source\PSoC4/CyFlash.c **** 
 391:.\Generated_Source\PSoC4/CyFlash.c ****     /* Resume */
 392:.\Generated_Source\PSoC4/CyFlash.c ****     parameters[0u] = (uint32) (((uint32) CY_FLASH_KEY_TWO(CY_FLASH_API_OPCODE_RESUME_NON_BLOCKING) 
 393:.\Generated_Source\PSoC4/CyFlash.c ****                                          CY_FLASH_PARAM_KEY_TWO_OFFSET) | CY_FLASH_KEY_ONE);
 394:.\Generated_Source\PSoC4/CyFlash.c ****     CY_FLASH_CPUSS_SYSARG_REG = (uint32) &parameters[0u];
 395:.\Generated_Source\PSoC4/CyFlash.c ****     CY_FLASH_CPUSS_SYSREQ_REG = CY_FLASH_CPUSS_REQ_START | CY_FLASH_API_OPCODE_RESUME_NON_BLOCKING;
 396:.\Generated_Source\PSoC4/CyFlash.c ****     
 397:.\Generated_Source\PSoC4/CyFlash.c ****     CY_NOP;
 398:.\Generated_Source\PSoC4/CyFlash.c ****     retValue = CY_FLASH_API_RETURN;
 399:.\Generated_Source\PSoC4/CyFlash.c ****     
 400:.\Generated_Source\PSoC4/CyFlash.c ****     return (retValue);
 401:.\Generated_Source\PSoC4/CyFlash.c **** }
 402:.\Generated_Source\PSoC4/CyFlash.c **** 
 403:.\Generated_Source\PSoC4/CyFlash.c **** #endif /* (CY_IP_FLASH_PARALLEL_PGM_EN && (CY_IP_FLASH_MACROS > 1u)) */
 404:.\Generated_Source\PSoC4/CyFlash.c **** 
 405:.\Generated_Source\PSoC4/CyFlash.c **** 
 406:.\Generated_Source\PSoC4/CyFlash.c **** /*******************************************************************************
 407:.\Generated_Source\PSoC4/CyFlash.c **** * Function Name: CySysFlashSetWaitCycles
 408:.\Generated_Source\PSoC4/CyFlash.c **** ****************************************************************************//**
 409:.\Generated_Source\PSoC4/CyFlash.c **** *
 410:.\Generated_Source\PSoC4/CyFlash.c **** * Sets the number of clock cycles the cache will wait before it samples data
 411:.\Generated_Source\PSoC4/CyFlash.c **** * coming back from Flash. This function must be called before increasing the
 412:.\Generated_Source\PSoC4/CyFlash.c **** * SYSCLK clock frequency. It can optionally be called after lowering SYSCLK
 413:.\Generated_Source\PSoC4/CyFlash.c **** * clock frequency in order to improve the CPU performance.
 414:.\Generated_Source\PSoC4/CyFlash.c **** *
 415:.\Generated_Source\PSoC4/CyFlash.c **** * \param freq The System clock frequency in MHz.
 416:.\Generated_Source\PSoC4/CyFlash.c **** *
 417:.\Generated_Source\PSoC4/CyFlash.c **** * \note Invalid frequency will be ignored in Release mode and the CPU will be
 418:.\Generated_Source\PSoC4/CyFlash.c **** * halted if project is compiled in Debug mode.
 419:.\Generated_Source\PSoC4/CyFlash.c **** *
 420:.\Generated_Source\PSoC4/CyFlash.c **** *******************************************************************************/
 421:.\Generated_Source\PSoC4/CyFlash.c **** void CySysFlashSetWaitCycles(uint32 freq)
 422:.\Generated_Source\PSoC4/CyFlash.c **** {
 423:.\Generated_Source\PSoC4/CyFlash.c ****     uint8  interruptState;
 424:.\Generated_Source\PSoC4/CyFlash.c **** 
 425:.\Generated_Source\PSoC4/CyFlash.c ****     interruptState = CyEnterCriticalSection();
 426:.\Generated_Source\PSoC4/CyFlash.c **** 
 427:.\Generated_Source\PSoC4/CyFlash.c ****     #if (CY_IP_CPUSS)
 428:.\Generated_Source\PSoC4/CyFlash.c **** 
 429:.\Generated_Source\PSoC4/CyFlash.c ****         if ( freq <= CY_FLASH_SYSCLK_BOUNDARY_MHZ )
 430:.\Generated_Source\PSoC4/CyFlash.c ****         {
 431:.\Generated_Source\PSoC4/CyFlash.c ****             CY_SYS_CLK_SELECT_REG &= (uint32)(~CY_FLASH_WAIT_STATE_EN);
 432:.\Generated_Source\PSoC4/CyFlash.c ****         }
ARM GAS  C:\Users\HENRYA~1\AppData\Local\Temp\ccQShem7.s 			page 9


 433:.\Generated_Source\PSoC4/CyFlash.c ****         else
 434:.\Generated_Source\PSoC4/CyFlash.c ****         {
 435:.\Generated_Source\PSoC4/CyFlash.c ****             CY_SYS_CLK_SELECT_REG |= CY_FLASH_WAIT_STATE_EN;
 436:.\Generated_Source\PSoC4/CyFlash.c ****         }
 437:.\Generated_Source\PSoC4/CyFlash.c ****     #else
 438:.\Generated_Source\PSoC4/CyFlash.c ****         #if (CY_IP_CPUSS_FLASHC_PRESENT)
 439:.\Generated_Source\PSoC4/CyFlash.c ****             /* CY_IP_FM and CY_IP_FS */
 440:.\Generated_Source\PSoC4/CyFlash.c ****             if (freq <= CY_FLASH_CTL_WS_0_FREQ_MAX)
 441:.\Generated_Source\PSoC4/CyFlash.c ****             {
 442:.\Generated_Source\PSoC4/CyFlash.c ****                 CY_FLASH_CTL_REG = (CY_FLASH_CTL_REG & ~CY_FLASH_CTL_WS_MASK) | CY_FLASH_CTL_WS_0_V
 443:.\Generated_Source\PSoC4/CyFlash.c ****             } else
 444:.\Generated_Source\PSoC4/CyFlash.c ****             if (freq <= CY_FLASH_CTL_WS_1_FREQ_MAX)
 445:.\Generated_Source\PSoC4/CyFlash.c ****             {
 446:.\Generated_Source\PSoC4/CyFlash.c ****                 CY_FLASH_CTL_REG = (CY_FLASH_CTL_REG & ~CY_FLASH_CTL_WS_MASK) | CY_FLASH_CTL_WS_1_V
 447:.\Generated_Source\PSoC4/CyFlash.c ****             } else
 448:.\Generated_Source\PSoC4/CyFlash.c ****             #if (CY_IP_FMLT || CY_IP_FSLT)
 449:.\Generated_Source\PSoC4/CyFlash.c ****                 if (freq <= CY_FLASH_CTL_WS_2_FREQ_MAX)
 450:.\Generated_Source\PSoC4/CyFlash.c ****                 {
 451:.\Generated_Source\PSoC4/CyFlash.c ****                     CY_FLASH_CTL_REG = (CY_FLASH_CTL_REG & ~CY_FLASH_CTL_WS_MASK) | CY_FLASH_CTL_WS
 452:.\Generated_Source\PSoC4/CyFlash.c ****                 }
 453:.\Generated_Source\PSoC4/CyFlash.c ****                 else
 454:.\Generated_Source\PSoC4/CyFlash.c ****             #endif  /* (CY_IP_FMLT || CY_IP_FSLT) */
 455:.\Generated_Source\PSoC4/CyFlash.c ****         #endif /* (CY_IP_CPUSS_FLASHC_PRESENT) */
 456:.\Generated_Source\PSoC4/CyFlash.c ****         {
 457:.\Generated_Source\PSoC4/CyFlash.c ****             /* Halt CPU in debug mode if frequency is invalid */
 458:.\Generated_Source\PSoC4/CyFlash.c ****             CYASSERT(0u != 0u);
 459:.\Generated_Source\PSoC4/CyFlash.c ****         }
 460:.\Generated_Source\PSoC4/CyFlash.c **** 
 461:.\Generated_Source\PSoC4/CyFlash.c ****     #endif  /* (CY_IP_CPUSS) */
 462:.\Generated_Source\PSoC4/CyFlash.c **** 
 463:.\Generated_Source\PSoC4/CyFlash.c ****     CyExitCriticalSection(interruptState);
 464:.\Generated_Source\PSoC4/CyFlash.c **** }
 465:.\Generated_Source\PSoC4/CyFlash.c **** 
 466:.\Generated_Source\PSoC4/CyFlash.c **** 
 467:.\Generated_Source\PSoC4/CyFlash.c **** #if (CY_SFLASH_XTRA_ROWS)
 468:.\Generated_Source\PSoC4/CyFlash.c **** /*******************************************************************************
 469:.\Generated_Source\PSoC4/CyFlash.c **** * Function Name: CySysSFlashWriteUserRow
 470:.\Generated_Source\PSoC4/CyFlash.c **** ****************************************************************************//**
 471:.\Generated_Source\PSoC4/CyFlash.c **** *
 472:.\Generated_Source\PSoC4/CyFlash.c **** * Writes data to a row of SFlash user configurable area.
 473:.\Generated_Source\PSoC4/CyFlash.c **** *
 474:.\Generated_Source\PSoC4/CyFlash.c **** * This API is applicable for PSoC 4100 BLE, PSoC 4200 BLE, PSoC 4100M,
 475:.\Generated_Source\PSoC4/CyFlash.c **** * PSoC 4200M, and PSoC 4200L family of devices.
 476:.\Generated_Source\PSoC4/CyFlash.c **** *
 477:.\Generated_Source\PSoC4/CyFlash.c **** * \param rowNum The flash row number. The flash row number. The number of the
 478:.\Generated_Source\PSoC4/CyFlash.c **** * flash rows is defined by the CY_SFLASH_NUMBER_USERROWS macro for the selected
 479:.\Generated_Source\PSoC4/CyFlash.c **** * device. Valid range is 0-3. Refer to the device TRM for details.
 480:.\Generated_Source\PSoC4/CyFlash.c **** *
 481:.\Generated_Source\PSoC4/CyFlash.c **** * \param rowData Array of bytes to write. The size of the array must be equal to
 482:.\Generated_Source\PSoC4/CyFlash.c **** * the flash row size. The flash row size for the selected device is defined by
 483:.\Generated_Source\PSoC4/CyFlash.c **** * the \ref CY_SFLASH_SIZEOF_USERROW macro. Refer to the device TRM for the
 484:.\Generated_Source\PSoC4/CyFlash.c **** * details.
 485:.\Generated_Source\PSoC4/CyFlash.c **** *
 486:.\Generated_Source\PSoC4/CyFlash.c **** * \return \ref group_flash_status_codes
 487:.\Generated_Source\PSoC4/CyFlash.c **** *
 488:.\Generated_Source\PSoC4/CyFlash.c **** *******************************************************************************/
 489:.\Generated_Source\PSoC4/CyFlash.c **** uint32 CySysSFlashWriteUserRow(uint32 rowNum, const uint8 rowData[])
ARM GAS  C:\Users\HENRYA~1\AppData\Local\Temp\ccQShem7.s 			page 10


 490:.\Generated_Source\PSoC4/CyFlash.c **** {
 491:.\Generated_Source\PSoC4/CyFlash.c ****     volatile uint32 retValue = CY_SYS_FLASH_SUCCESS;
 492:.\Generated_Source\PSoC4/CyFlash.c ****     volatile uint32 clkCnfRetValue = CY_SYS_FLASH_SUCCESS;
 493:.\Generated_Source\PSoC4/CyFlash.c ****     volatile uint32 parameters[(CY_FLASH_SIZEOF_ROW + CY_FLASH_SRAM_ROM_DATA)/4u];
 494:.\Generated_Source\PSoC4/CyFlash.c ****     uint8  interruptState;
 495:.\Generated_Source\PSoC4/CyFlash.c **** 
 496:.\Generated_Source\PSoC4/CyFlash.c **** 
 497:.\Generated_Source\PSoC4/CyFlash.c ****     if ((rowNum < CY_SFLASH_NUMBER_USERROWS) && (rowData != 0u))
 498:.\Generated_Source\PSoC4/CyFlash.c ****     {
 499:.\Generated_Source\PSoC4/CyFlash.c ****         /* Load Flash Bytes */
 500:.\Generated_Source\PSoC4/CyFlash.c ****         parameters[0u] = (uint32) (CY_FLASH_GET_MACRO_FROM_ROW(rowNum)        << CY_FLASH_PARAM_MAC
 501:.\Generated_Source\PSoC4/CyFlash.c ****                          (uint32) (CY_FLASH_PAGE_LATCH_START_ADDR             << CY_FLASH_PARAM_ADD
 502:.\Generated_Source\PSoC4/CyFlash.c ****                          (uint32) (CY_FLASH_KEY_TWO(CY_FLASH_API_OPCODE_LOAD) << CY_FLASH_PARAM_KEY
 503:.\Generated_Source\PSoC4/CyFlash.c ****                          CY_FLASH_KEY_ONE;
 504:.\Generated_Source\PSoC4/CyFlash.c ****         parameters[1u] = CY_FLASH_SIZEOF_ROW - 1u;
 505:.\Generated_Source\PSoC4/CyFlash.c **** 
 506:.\Generated_Source\PSoC4/CyFlash.c ****         (void)memcpy((void *)&parameters[2u], rowData, CY_FLASH_SIZEOF_ROW);
 507:.\Generated_Source\PSoC4/CyFlash.c ****         CY_FLASH_CPUSS_SYSARG_REG = (uint32) &parameters[0u];
 508:.\Generated_Source\PSoC4/CyFlash.c ****         CY_FLASH_CPUSS_SYSREQ_REG = CY_FLASH_CPUSS_REQ_START | CY_FLASH_API_OPCODE_LOAD;
 509:.\Generated_Source\PSoC4/CyFlash.c ****         CY_NOP;
 510:.\Generated_Source\PSoC4/CyFlash.c ****         retValue = CY_FLASH_API_RETURN;
 511:.\Generated_Source\PSoC4/CyFlash.c **** 
 512:.\Generated_Source\PSoC4/CyFlash.c ****         if(retValue == CY_SYS_FLASH_SUCCESS)
 513:.\Generated_Source\PSoC4/CyFlash.c ****         {
 514:.\Generated_Source\PSoC4/CyFlash.c ****             /***************************************************************
 515:.\Generated_Source\PSoC4/CyFlash.c ****             * Mask all the exceptions to guarantee that Flash write will
 516:.\Generated_Source\PSoC4/CyFlash.c ****             * occur in the atomic way. It will not affect system call
 517:.\Generated_Source\PSoC4/CyFlash.c ****             * execution (flash row write) since it is executed in the NMI
 518:.\Generated_Source\PSoC4/CyFlash.c ****             * context.
 519:.\Generated_Source\PSoC4/CyFlash.c ****             ***************************************************************/
 520:.\Generated_Source\PSoC4/CyFlash.c ****             interruptState = CyEnterCriticalSection();
 521:.\Generated_Source\PSoC4/CyFlash.c **** 
 522:.\Generated_Source\PSoC4/CyFlash.c ****             clkCnfRetValue = CySysFlashClockBackup();
 523:.\Generated_Source\PSoC4/CyFlash.c **** 
 524:.\Generated_Source\PSoC4/CyFlash.c ****         #if(CY_IP_SPCIF_SYNCHRONOUS)
 525:.\Generated_Source\PSoC4/CyFlash.c ****             if(clkCnfRetValue == CY_SYS_FLASH_SUCCESS)
 526:.\Generated_Source\PSoC4/CyFlash.c ****             {
 527:.\Generated_Source\PSoC4/CyFlash.c ****                 retValue = CySysFlashClockConfig();
 528:.\Generated_Source\PSoC4/CyFlash.c ****             }
 529:.\Generated_Source\PSoC4/CyFlash.c ****         #endif  /* (CY_IP_SPCIF_SYNCHRONOUS) */
 530:.\Generated_Source\PSoC4/CyFlash.c **** 
 531:.\Generated_Source\PSoC4/CyFlash.c ****             if(retValue == CY_SYS_FLASH_SUCCESS)
 532:.\Generated_Source\PSoC4/CyFlash.c ****             {
 533:.\Generated_Source\PSoC4/CyFlash.c ****                 /* Write User Sflash Row */
 534:.\Generated_Source\PSoC4/CyFlash.c ****                 parameters[0u]  = (uint32) (((uint32) CY_FLASH_KEY_TWO(CY_FLASH_API_OPCODE_WRITE_SF
 535:.\Generated_Source\PSoC4/CyFlash.c ****                 parameters[1u] = (uint32) rowNum;
 536:.\Generated_Source\PSoC4/CyFlash.c **** 
 537:.\Generated_Source\PSoC4/CyFlash.c ****                 CY_FLASH_CPUSS_SYSARG_REG = (uint32) &parameters[0u];
 538:.\Generated_Source\PSoC4/CyFlash.c ****                 CY_FLASH_CPUSS_SYSREQ_REG = CY_FLASH_CPUSS_REQ_START | CY_FLASH_API_OPCODE_WRITE_SF
 539:.\Generated_Source\PSoC4/CyFlash.c ****                 CY_NOP;
 540:.\Generated_Source\PSoC4/CyFlash.c ****                 retValue = CY_FLASH_API_RETURN;
 541:.\Generated_Source\PSoC4/CyFlash.c ****             }
 542:.\Generated_Source\PSoC4/CyFlash.c **** 
 543:.\Generated_Source\PSoC4/CyFlash.c ****             if(clkCnfRetValue == CY_SYS_FLASH_SUCCESS)
 544:.\Generated_Source\PSoC4/CyFlash.c ****             {
 545:.\Generated_Source\PSoC4/CyFlash.c ****                 clkCnfRetValue = CySysFlashClockRestore();
 546:.\Generated_Source\PSoC4/CyFlash.c ****             }
ARM GAS  C:\Users\HENRYA~1\AppData\Local\Temp\ccQShem7.s 			page 11


 547:.\Generated_Source\PSoC4/CyFlash.c ****             CyExitCriticalSection(interruptState);
 548:.\Generated_Source\PSoC4/CyFlash.c ****         }
 549:.\Generated_Source\PSoC4/CyFlash.c ****     }
 550:.\Generated_Source\PSoC4/CyFlash.c ****     else
 551:.\Generated_Source\PSoC4/CyFlash.c ****     {
 552:.\Generated_Source\PSoC4/CyFlash.c ****         retValue = CY_SYS_FLASH_INVALID_ADDR;
 553:.\Generated_Source\PSoC4/CyFlash.c ****     }
 554:.\Generated_Source\PSoC4/CyFlash.c **** 
 555:.\Generated_Source\PSoC4/CyFlash.c ****     return (retValue);
 556:.\Generated_Source\PSoC4/CyFlash.c **** }
 557:.\Generated_Source\PSoC4/CyFlash.c **** #endif /* (CY_SFLASH_XTRA_ROWS) */
 558:.\Generated_Source\PSoC4/CyFlash.c **** 
 559:.\Generated_Source\PSoC4/CyFlash.c **** 
 560:.\Generated_Source\PSoC4/CyFlash.c **** /*******************************************************************************
 561:.\Generated_Source\PSoC4/CyFlash.c **** * Function Name: CySysFlashClockBackup
 562:.\Generated_Source\PSoC4/CyFlash.c **** ****************************************************************************//**
 563:.\Generated_Source\PSoC4/CyFlash.c **** *
 564:.\Generated_Source\PSoC4/CyFlash.c **** * Backups the device clock configuration.
 565:.\Generated_Source\PSoC4/CyFlash.c **** *
 566:.\Generated_Source\PSoC4/CyFlash.c **** * \return The same as \ref CySysFlashWriteRow().
 567:.\Generated_Source\PSoC4/CyFlash.c **** *
 568:.\Generated_Source\PSoC4/CyFlash.c **** *******************************************************************************/
 569:.\Generated_Source\PSoC4/CyFlash.c **** static cystatus CySysFlashClockBackup(void)
 570:.\Generated_Source\PSoC4/CyFlash.c **** {
  25              		.loc 1 570 0
  26              		.cfi_startproc
  27              	.LVL0:
 571:.\Generated_Source\PSoC4/CyFlash.c ****     cystatus retValue = CY_SYS_FLASH_SUCCESS;
 572:.\Generated_Source\PSoC4/CyFlash.c **** #if(!CY_IP_FM)
 573:.\Generated_Source\PSoC4/CyFlash.c ****     #if !(CY_PSOC4_4000)
 574:.\Generated_Source\PSoC4/CyFlash.c ****         #if (CY_IP_SPCIF_SYNCHRONOUS)
 575:.\Generated_Source\PSoC4/CyFlash.c ****             volatile uint32   parameters[2u];
 576:.\Generated_Source\PSoC4/CyFlash.c ****         #endif /* (CY_IP_SPCIF_SYNCHRONOUS) */
 577:.\Generated_Source\PSoC4/CyFlash.c ****     #endif  /* !(CY_PSOC4_4000) */
 578:.\Generated_Source\PSoC4/CyFlash.c **** #endif  /* (!CY_IP_FM) */
 579:.\Generated_Source\PSoC4/CyFlash.c **** 
 580:.\Generated_Source\PSoC4/CyFlash.c **** #if(CY_IP_FM)
 581:.\Generated_Source\PSoC4/CyFlash.c **** 
 582:.\Generated_Source\PSoC4/CyFlash.c ****     /***************************************************************
 583:.\Generated_Source\PSoC4/CyFlash.c ****     * Preserve IMO configuration that could be changed during
 584:.\Generated_Source\PSoC4/CyFlash.c ****     * system call execution (Cypress ID #150448).
 585:.\Generated_Source\PSoC4/CyFlash.c ****     ***************************************************************/
 586:.\Generated_Source\PSoC4/CyFlash.c ****     cySysFlashBackup.imoConfigReg = CY_SYS_CLK_IMO_CONFIG_REG;
 587:.\Generated_Source\PSoC4/CyFlash.c **** 
 588:.\Generated_Source\PSoC4/CyFlash.c **** #else   /* (CY_IP_FMLT) */
 589:.\Generated_Source\PSoC4/CyFlash.c **** 
 590:.\Generated_Source\PSoC4/CyFlash.c ****     #if (CY_PSOC4_4000)
 591:.\Generated_Source\PSoC4/CyFlash.c **** 
 592:.\Generated_Source\PSoC4/CyFlash.c ****         /***************************************************************************
 593:.\Generated_Source\PSoC4/CyFlash.c ****         * Perform firmware clock settings backup for the PSOC4 4000 devices (the
 594:.\Generated_Source\PSoC4/CyFlash.c ****         * corresponding system call is not available).
 595:.\Generated_Source\PSoC4/CyFlash.c ****         ***************************************************************************/
 596:.\Generated_Source\PSoC4/CyFlash.c **** 
 597:.\Generated_Source\PSoC4/CyFlash.c ****         /***************************************************************************
 598:.\Generated_Source\PSoC4/CyFlash.c ****         * The registers listed below are modified by CySysFlashClockConfig().
 599:.\Generated_Source\PSoC4/CyFlash.c ****         *
 600:.\Generated_Source\PSoC4/CyFlash.c ****         * The registers to be saved:
ARM GAS  C:\Users\HENRYA~1\AppData\Local\Temp\ccQShem7.s 			page 12


 601:.\Generated_Source\PSoC4/CyFlash.c ****         * - CY_SYS_CLK_IMO_CONFIG_REG - IMO enable state.
 602:.\Generated_Source\PSoC4/CyFlash.c ****         * - CY_SYS_CLK_SELECT_REG     - HFCLK source, divider, pump source. Save
 603:.\Generated_Source\PSoC4/CyFlash.c ****         *                               entire register as it can be directly
 604:.\Generated_Source\PSoC4/CyFlash.c ****         *                               written on restore (no special
 605:.\Generated_Source\PSoC4/CyFlash.c ****         *                               requirements).
 606:.\Generated_Source\PSoC4/CyFlash.c ****         * - CY_SYS_CLK_IMO_SELECT_REG - Save IMO frequency.
 607:.\Generated_Source\PSoC4/CyFlash.c ****         *
 608:.\Generated_Source\PSoC4/CyFlash.c ****         * The registers not to be saved:
 609:.\Generated_Source\PSoC4/CyFlash.c ****         * - CY_SYS_CLK_IMO_TRIM1_REG  - No need to save. Function of frequency.
 610:.\Generated_Source\PSoC4/CyFlash.c ****         *                               Restored by CySysClkWriteImoFreq().
 611:.\Generated_Source\PSoC4/CyFlash.c ****         * - CY_SYS_CLK_IMO_TRIM3_REG  - No need to save. Function of frequency.
 612:.\Generated_Source\PSoC4/CyFlash.c ****         *                               Restored by CySysClkWriteImoFreq().
 613:.\Generated_Source\PSoC4/CyFlash.c ****         * - REG_CPUSS_FLASH_CTL       - Flash wait cycles. Unmodified due to system
 614:.\Generated_Source\PSoC4/CyFlash.c ****         *                               clock 16 MHz limit.
 615:.\Generated_Source\PSoC4/CyFlash.c ****         ***************************************************************************/
 616:.\Generated_Source\PSoC4/CyFlash.c **** 
 617:.\Generated_Source\PSoC4/CyFlash.c ****         cySysFlashBackup.clkSelectReg = CY_SYS_CLK_SELECT_REG;
 618:.\Generated_Source\PSoC4/CyFlash.c ****         cySysFlashBackup.clkImoEna    = CY_SYS_CLK_IMO_CONFIG_REG & CY_SYS_CLK_IMO_CONFIG_ENABLE;
 619:.\Generated_Source\PSoC4/CyFlash.c ****         cySysFlashBackup.clkImoFreq   = CY_SYS_CLK_IMO_MIN_FREQ_MHZ + (CY_SYS_CLK_IMO_SELECT_REG <<
 620:.\Generated_Source\PSoC4/CyFlash.c **** 
 621:.\Generated_Source\PSoC4/CyFlash.c ****     #else
 622:.\Generated_Source\PSoC4/CyFlash.c **** 
 623:.\Generated_Source\PSoC4/CyFlash.c ****         #if (CY_IP_SPCIF_SYNCHRONOUS)
 624:.\Generated_Source\PSoC4/CyFlash.c ****             /* FM-Lite Clock Backup System Call */
 625:.\Generated_Source\PSoC4/CyFlash.c ****             parameters[0u] =
 626:.\Generated_Source\PSoC4/CyFlash.c ****                 (uint32) ((CY_FLASH_KEY_TWO(CY_FLASH_API_OPCODE_CLK_BACKUP) <<  CY_FLASH_PARAM_KEY_
 627:.\Generated_Source\PSoC4/CyFlash.c ****                             CY_FLASH_KEY_ONE);
 628:.\Generated_Source\PSoC4/CyFlash.c ****             parameters[1u] = (uint32) &cySysFlashBackup.clockSettings[0u];
 629:.\Generated_Source\PSoC4/CyFlash.c ****             CY_FLASH_CPUSS_SYSARG_REG = (uint32) &parameters[0u];
 630:.\Generated_Source\PSoC4/CyFlash.c ****             CY_FLASH_CPUSS_SYSREQ_REG = CY_FLASH_CPUSS_REQ_START | CY_FLASH_API_OPCODE_CLK_BACKUP;
 631:.\Generated_Source\PSoC4/CyFlash.c ****             CY_NOP;
 632:.\Generated_Source\PSoC4/CyFlash.c ****             retValue = CY_FLASH_API_RETURN;
 633:.\Generated_Source\PSoC4/CyFlash.c ****         #endif /* (CY_IP_SPCIF_SYNCHRONOUS) */
 634:.\Generated_Source\PSoC4/CyFlash.c **** 
 635:.\Generated_Source\PSoC4/CyFlash.c ****     #endif  /* (CY_PSOC4_4000) */
 636:.\Generated_Source\PSoC4/CyFlash.c **** 
 637:.\Generated_Source\PSoC4/CyFlash.c **** #endif  /* (CY_IP_FM) */
 638:.\Generated_Source\PSoC4/CyFlash.c **** 
 639:.\Generated_Source\PSoC4/CyFlash.c ****     return (retValue);
 640:.\Generated_Source\PSoC4/CyFlash.c **** }
  28              		.loc 1 640 0
  29 0000 0020     		mov	r0, #0
  30              		@ sp needed
  31 0002 7047     		bx	lr
  32              		.cfi_endproc
  33              	.LFE4:
  34              		.size	CySysFlashClockBackup, .-CySysFlashClockBackup
  35              		.section	.text.CySysFlashClockRestore,"ax",%progbits
  36              		.align	2
  37              		.code	16
  38              		.thumb_func
  39              		.type	CySysFlashClockRestore, %function
  40              	CySysFlashClockRestore:
  41              	.LFB5:
 641:.\Generated_Source\PSoC4/CyFlash.c **** 
 642:.\Generated_Source\PSoC4/CyFlash.c **** 
 643:.\Generated_Source\PSoC4/CyFlash.c **** #if(CY_IP_SPCIF_SYNCHRONOUS)
ARM GAS  C:\Users\HENRYA~1\AppData\Local\Temp\ccQShem7.s 			page 13


 644:.\Generated_Source\PSoC4/CyFlash.c **** /*******************************************************************************
 645:.\Generated_Source\PSoC4/CyFlash.c **** * Function Name: CySysFlashClockConfig
 646:.\Generated_Source\PSoC4/CyFlash.c **** ****************************************************************************//**
 647:.\Generated_Source\PSoC4/CyFlash.c **** *
 648:.\Generated_Source\PSoC4/CyFlash.c **** * Configures the device clocks for the flash writing.
 649:.\Generated_Source\PSoC4/CyFlash.c **** *
 650:.\Generated_Source\PSoC4/CyFlash.c **** * \return The same as \ref CySysFlashWriteRow().
 651:.\Generated_Source\PSoC4/CyFlash.c **** *
 652:.\Generated_Source\PSoC4/CyFlash.c **** *******************************************************************************/
 653:.\Generated_Source\PSoC4/CyFlash.c **** static cystatus CySysFlashClockConfig(void)
 654:.\Generated_Source\PSoC4/CyFlash.c **** {
 655:.\Generated_Source\PSoC4/CyFlash.c ****     cystatus retValue = CY_SYS_FLASH_SUCCESS;
 656:.\Generated_Source\PSoC4/CyFlash.c **** 
 657:.\Generated_Source\PSoC4/CyFlash.c ****     /***************************************************************************
 658:.\Generated_Source\PSoC4/CyFlash.c ****     * The FM-Lite IP uses the IMO at 48MHz for the pump clock and SPC timer
 659:.\Generated_Source\PSoC4/CyFlash.c ****     * clock. The PUMP_SEL and HF clock must be set to IMO before calling Flash
 660:.\Generated_Source\PSoC4/CyFlash.c ****     * write or erase operation.
 661:.\Generated_Source\PSoC4/CyFlash.c ****     ***************************************************************************/
 662:.\Generated_Source\PSoC4/CyFlash.c **** #if (CY_PSOC4_4000)
 663:.\Generated_Source\PSoC4/CyFlash.c **** 
 664:.\Generated_Source\PSoC4/CyFlash.c ****     /***************************************************************************
 665:.\Generated_Source\PSoC4/CyFlash.c ****     * Perform firmware clock settings setup for the PSOC4 4000 devices (the
 666:.\Generated_Source\PSoC4/CyFlash.c ****     * corresponding system call is not reliable):
 667:.\Generated_Source\PSoC4/CyFlash.c ****     * - The IMO frequency should be 48 MHz
 668:.\Generated_Source\PSoC4/CyFlash.c ****     * - The IMO should be source for the HFCLK
 669:.\Generated_Source\PSoC4/CyFlash.c ****     * - The IMO should be the source for the charge pump clock
 670:.\Generated_Source\PSoC4/CyFlash.c ****     *
 671:.\Generated_Source\PSoC4/CyFlash.c ****     * Note The structure members used below are initialized by
 672:.\Generated_Source\PSoC4/CyFlash.c ****     * the CySysFlashClockBackup() function.
 673:.\Generated_Source\PSoC4/CyFlash.c ****     ***************************************************************************/
 674:.\Generated_Source\PSoC4/CyFlash.c ****     if ((cySysFlashBackup.clkImoFreq != 48u) ||
 675:.\Generated_Source\PSoC4/CyFlash.c ****         ((cySysFlashBackup.clkSelectReg & CY_SYS_CLK_SELECT_DIRECT_SEL_MASK) != CY_SYS_CLK_HFCLK_IM
 676:.\Generated_Source\PSoC4/CyFlash.c ****         (((cySysFlashBackup.clkSelectReg >> CY_SYS_CLK_SELECT_PUMP_SEL_SHIFT) & CY_SYS_CLK_SELECT_P
 677:.\Generated_Source\PSoC4/CyFlash.c ****             CY_SYS_CLK_SELECT_PUMP_SEL_IMO))
 678:.\Generated_Source\PSoC4/CyFlash.c ****     {
 679:.\Generated_Source\PSoC4/CyFlash.c ****         /***********************************************************************
 680:.\Generated_Source\PSoC4/CyFlash.c ****          Set HFCLK divider to divide-by-4 to ensure that System clock frequency
 681:.\Generated_Source\PSoC4/CyFlash.c ****         * is within the valid limit (16 MHz for the PSoC4 4000).
 682:.\Generated_Source\PSoC4/CyFlash.c ****         ***********************************************************************/
 683:.\Generated_Source\PSoC4/CyFlash.c ****         CySysClkWriteHfclkDiv(CY_SYS_CLK_HFCLK_DIV_4);
 684:.\Generated_Source\PSoC4/CyFlash.c **** 
 685:.\Generated_Source\PSoC4/CyFlash.c ****         /* The IMO frequency should be 48 MHz */
 686:.\Generated_Source\PSoC4/CyFlash.c ****         if (cySysFlashBackup.clkImoFreq != 48u)
 687:.\Generated_Source\PSoC4/CyFlash.c ****         {
 688:.\Generated_Source\PSoC4/CyFlash.c ****             CySysClkWriteImoFreq(48u);
 689:.\Generated_Source\PSoC4/CyFlash.c ****         }
 690:.\Generated_Source\PSoC4/CyFlash.c ****         CySysClkImoStart();
 691:.\Generated_Source\PSoC4/CyFlash.c **** 
 692:.\Generated_Source\PSoC4/CyFlash.c ****         /* The IMO should be source for the HFCLK */
 693:.\Generated_Source\PSoC4/CyFlash.c ****         CySysClkWriteHfclkDirect(CY_SYS_CLK_HFCLK_IMO);
 694:.\Generated_Source\PSoC4/CyFlash.c **** 
 695:.\Generated_Source\PSoC4/CyFlash.c ****         /* The IMO should be the source for the charge pump clock */
 696:.\Generated_Source\PSoC4/CyFlash.c ****         CY_SYS_CLK_SELECT_REG =  (CY_SYS_CLK_SELECT_REG &
 697:.\Generated_Source\PSoC4/CyFlash.c ****             ((uint32)~(uint32)(CY_SYS_CLK_SELECT_PUMP_SEL_MASK << CY_SYS_CLK_SELECT_PUMP_SEL_SHIFT)
 698:.\Generated_Source\PSoC4/CyFlash.c ****             ((uint32)((uint32)1u << CY_SYS_CLK_SELECT_PUMP_SEL_SHIFT));
 699:.\Generated_Source\PSoC4/CyFlash.c ****     }
 700:.\Generated_Source\PSoC4/CyFlash.c **** 
ARM GAS  C:\Users\HENRYA~1\AppData\Local\Temp\ccQShem7.s 			page 14


 701:.\Generated_Source\PSoC4/CyFlash.c **** #else
 702:.\Generated_Source\PSoC4/CyFlash.c **** 
 703:.\Generated_Source\PSoC4/CyFlash.c ****     /* FM-Lite Clock Configuration */
 704:.\Generated_Source\PSoC4/CyFlash.c ****     CY_FLASH_CPUSS_SYSARG_REG =
 705:.\Generated_Source\PSoC4/CyFlash.c ****         (uint32) ((CY_FLASH_KEY_TWO(CY_FLASH_API_OPCODE_CLK_CONFIG) <<  CY_FLASH_PARAM_KEY_TWO_OFFS
 706:.\Generated_Source\PSoC4/CyFlash.c ****                     CY_FLASH_KEY_ONE);
 707:.\Generated_Source\PSoC4/CyFlash.c ****     CY_FLASH_CPUSS_SYSREQ_REG = CY_FLASH_CPUSS_REQ_START | CY_FLASH_API_OPCODE_CLK_CONFIG;
 708:.\Generated_Source\PSoC4/CyFlash.c ****     CY_NOP;
 709:.\Generated_Source\PSoC4/CyFlash.c ****     retValue = CY_FLASH_API_RETURN;
 710:.\Generated_Source\PSoC4/CyFlash.c **** 
 711:.\Generated_Source\PSoC4/CyFlash.c **** #endif  /* (CY_PSOC4_4000) */
 712:.\Generated_Source\PSoC4/CyFlash.c **** 
 713:.\Generated_Source\PSoC4/CyFlash.c ****     return (retValue);
 714:.\Generated_Source\PSoC4/CyFlash.c **** }
 715:.\Generated_Source\PSoC4/CyFlash.c **** #endif  /* (CY_IP_SPCIF_SYNCHRONOUS) */
 716:.\Generated_Source\PSoC4/CyFlash.c **** 
 717:.\Generated_Source\PSoC4/CyFlash.c **** 
 718:.\Generated_Source\PSoC4/CyFlash.c **** /*******************************************************************************
 719:.\Generated_Source\PSoC4/CyFlash.c **** * Function Name: CySysFlashClockRestore
 720:.\Generated_Source\PSoC4/CyFlash.c **** ****************************************************************************//**
 721:.\Generated_Source\PSoC4/CyFlash.c **** *
 722:.\Generated_Source\PSoC4/CyFlash.c **** * Restores the device clock configuration.
 723:.\Generated_Source\PSoC4/CyFlash.c **** *
 724:.\Generated_Source\PSoC4/CyFlash.c **** * \return The same as \ref CySysFlashWriteRow().
 725:.\Generated_Source\PSoC4/CyFlash.c **** *
 726:.\Generated_Source\PSoC4/CyFlash.c **** *******************************************************************************/
 727:.\Generated_Source\PSoC4/CyFlash.c **** static cystatus CySysFlashClockRestore(void)
 728:.\Generated_Source\PSoC4/CyFlash.c **** {
  42              		.loc 1 728 0
  43              		.cfi_startproc
  44              	.LVL1:
 729:.\Generated_Source\PSoC4/CyFlash.c ****     cystatus retValue = CY_SYS_FLASH_SUCCESS;
 730:.\Generated_Source\PSoC4/CyFlash.c **** #if(!CY_IP_FM)
 731:.\Generated_Source\PSoC4/CyFlash.c ****     #if !(CY_PSOC4_4000)
 732:.\Generated_Source\PSoC4/CyFlash.c ****         #if (CY_IP_SPCIF_SYNCHRONOUS)
 733:.\Generated_Source\PSoC4/CyFlash.c ****             volatile uint32   parameters[2u];
 734:.\Generated_Source\PSoC4/CyFlash.c ****         #endif /* (CY_IP_SPCIF_SYNCHRONOUS) */
 735:.\Generated_Source\PSoC4/CyFlash.c ****     #endif  /* !(CY_PSOC4_4000) */
 736:.\Generated_Source\PSoC4/CyFlash.c **** #endif  /* (!CY_IP_FM) */
 737:.\Generated_Source\PSoC4/CyFlash.c **** 
 738:.\Generated_Source\PSoC4/CyFlash.c **** #if(CY_IP_FM)
 739:.\Generated_Source\PSoC4/CyFlash.c **** 
 740:.\Generated_Source\PSoC4/CyFlash.c ****     /***************************************************************
 741:.\Generated_Source\PSoC4/CyFlash.c ****     * Restore IMO configuration that could be changed during
 742:.\Generated_Source\PSoC4/CyFlash.c ****     * system call execution (Cypress ID #150448).
 743:.\Generated_Source\PSoC4/CyFlash.c ****     ***************************************************************/
 744:.\Generated_Source\PSoC4/CyFlash.c ****     CY_SYS_CLK_IMO_CONFIG_REG = cySysFlashBackup.imoConfigReg;
 745:.\Generated_Source\PSoC4/CyFlash.c **** 
 746:.\Generated_Source\PSoC4/CyFlash.c **** #else
 747:.\Generated_Source\PSoC4/CyFlash.c **** 
 748:.\Generated_Source\PSoC4/CyFlash.c ****     #if (CY_PSOC4_4000)
 749:.\Generated_Source\PSoC4/CyFlash.c **** 
 750:.\Generated_Source\PSoC4/CyFlash.c ****         /***************************************************************************
 751:.\Generated_Source\PSoC4/CyFlash.c ****         * Perform firmware clock settings restore for the PSOC4 4000 devices (the
 752:.\Generated_Source\PSoC4/CyFlash.c ****         * corresponding system call is not available).
 753:.\Generated_Source\PSoC4/CyFlash.c ****         ***************************************************************************/
 754:.\Generated_Source\PSoC4/CyFlash.c **** 
ARM GAS  C:\Users\HENRYA~1\AppData\Local\Temp\ccQShem7.s 			page 15


 755:.\Generated_Source\PSoC4/CyFlash.c ****         /* Restore clock settings */
 756:.\Generated_Source\PSoC4/CyFlash.c ****         if ((cySysFlashBackup.clkImoFreq != 48u) ||
 757:.\Generated_Source\PSoC4/CyFlash.c ****             ((cySysFlashBackup.clkSelectReg & CY_SYS_CLK_SELECT_DIRECT_SEL_MASK) != CY_SYS_CLK_HFCL
 758:.\Generated_Source\PSoC4/CyFlash.c ****             (((cySysFlashBackup.clkSelectReg >> CY_SYS_CLK_SELECT_PUMP_SEL_SHIFT) & CY_SYS_CLK_SELE
 759:.\Generated_Source\PSoC4/CyFlash.c ****                 CY_SYS_CLK_SELECT_PUMP_SEL_IMO))
 760:.\Generated_Source\PSoC4/CyFlash.c ****         {
 761:.\Generated_Source\PSoC4/CyFlash.c ****             /* Restore IMO frequency if needed */
 762:.\Generated_Source\PSoC4/CyFlash.c ****             if (cySysFlashBackup.clkImoFreq != 48u)
 763:.\Generated_Source\PSoC4/CyFlash.c ****             {
 764:.\Generated_Source\PSoC4/CyFlash.c ****                 CySysClkWriteImoFreq(cySysFlashBackup.clkImoFreq);
 765:.\Generated_Source\PSoC4/CyFlash.c ****             }
 766:.\Generated_Source\PSoC4/CyFlash.c **** 
 767:.\Generated_Source\PSoC4/CyFlash.c ****             /* Restore HFCLK clock source */
 768:.\Generated_Source\PSoC4/CyFlash.c ****             CySysClkWriteHfclkDirect(cySysFlashBackup.clkSelectReg & CY_SYS_CLK_SELECT_DIRECT_SEL_M
 769:.\Generated_Source\PSoC4/CyFlash.c **** 
 770:.\Generated_Source\PSoC4/CyFlash.c ****             /* Restore HFCLK divider and source for pump  */
 771:.\Generated_Source\PSoC4/CyFlash.c ****             CY_SYS_CLK_SELECT_REG = cySysFlashBackup.clkSelectReg;
 772:.\Generated_Source\PSoC4/CyFlash.c **** 
 773:.\Generated_Source\PSoC4/CyFlash.c ****             /* Stop IMO if needed */
 774:.\Generated_Source\PSoC4/CyFlash.c ****             if (0u == cySysFlashBackup.clkImoEna)
 775:.\Generated_Source\PSoC4/CyFlash.c ****             {
 776:.\Generated_Source\PSoC4/CyFlash.c ****                 CySysClkImoStop();
 777:.\Generated_Source\PSoC4/CyFlash.c ****             }
 778:.\Generated_Source\PSoC4/CyFlash.c ****         }
 779:.\Generated_Source\PSoC4/CyFlash.c **** 
 780:.\Generated_Source\PSoC4/CyFlash.c ****     #else
 781:.\Generated_Source\PSoC4/CyFlash.c **** 
 782:.\Generated_Source\PSoC4/CyFlash.c ****         #if (CY_IP_SPCIF_SYNCHRONOUS)
 783:.\Generated_Source\PSoC4/CyFlash.c ****             /* FM-Lite Clock Restore */
 784:.\Generated_Source\PSoC4/CyFlash.c ****             parameters[0u] =
 785:.\Generated_Source\PSoC4/CyFlash.c ****                 (uint32) ((CY_FLASH_KEY_TWO(CY_FLASH_API_OPCODE_CLK_RESTORE) <<  CY_FLASH_PARAM_KEY
 786:.\Generated_Source\PSoC4/CyFlash.c ****                             CY_FLASH_KEY_ONE);
 787:.\Generated_Source\PSoC4/CyFlash.c ****             parameters[1u] = (uint32) &cySysFlashBackup.clockSettings[0u];
 788:.\Generated_Source\PSoC4/CyFlash.c ****             CY_FLASH_CPUSS_SYSARG_REG = (uint32) &parameters[0u];
 789:.\Generated_Source\PSoC4/CyFlash.c ****             CY_FLASH_CPUSS_SYSREQ_REG = CY_FLASH_CPUSS_REQ_START | CY_FLASH_API_OPCODE_CLK_RESTORE;
 790:.\Generated_Source\PSoC4/CyFlash.c ****             CY_NOP;
 791:.\Generated_Source\PSoC4/CyFlash.c ****             retValue = CY_FLASH_API_RETURN;
 792:.\Generated_Source\PSoC4/CyFlash.c ****         #endif /* (CY_IP_SPCIF_SYNCHRONOUS) */
 793:.\Generated_Source\PSoC4/CyFlash.c **** 
 794:.\Generated_Source\PSoC4/CyFlash.c ****     #endif  /* (CY_PSOC4_4000) */
 795:.\Generated_Source\PSoC4/CyFlash.c **** 
 796:.\Generated_Source\PSoC4/CyFlash.c **** #endif  /* (CY_IP_FM) */
 797:.\Generated_Source\PSoC4/CyFlash.c **** 
 798:.\Generated_Source\PSoC4/CyFlash.c ****     return (retValue);
 799:.\Generated_Source\PSoC4/CyFlash.c **** }
  45              		.loc 1 799 0
  46 0000 0020     		mov	r0, #0
  47              		@ sp needed
  48 0002 7047     		bx	lr
  49              		.cfi_endproc
  50              	.LFE5:
  51              		.size	CySysFlashClockRestore, .-CySysFlashClockRestore
  52              		.section	.text.CySysFlashWriteRow,"ax",%progbits
  53              		.align	2
  54              		.global	CySysFlashWriteRow
  55              		.code	16
  56              		.thumb_func
ARM GAS  C:\Users\HENRYA~1\AppData\Local\Temp\ccQShem7.s 			page 16


  57              		.type	CySysFlashWriteRow, %function
  58              	CySysFlashWriteRow:
  59              	.LFB1:
  81:.\Generated_Source\PSoC4/CyFlash.c ****     volatile uint32 retValue = CY_SYS_FLASH_SUCCESS;
  60              		.loc 1 81 0
  61              		.cfi_startproc
  62              	.LVL2:
  63 0000 30B5     		push	{r4, r5, lr}
  64              		.cfi_def_cfa_offset 12
  65              		.cfi_offset 4, -12
  66              		.cfi_offset 5, -8
  67              		.cfi_offset 14, -4
  68 0002 A5B0     		sub	sp, sp, #148
  69              		.cfi_def_cfa_offset 160
  82:.\Generated_Source\PSoC4/CyFlash.c ****     volatile uint32 clkCnfRetValue = CY_SYS_FLASH_SUCCESS;
  70              		.loc 1 82 0
  71 0004 0023     		mov	r3, #0
  72 0006 2393     		str	r3, [sp, #140]
  83:.\Generated_Source\PSoC4/CyFlash.c ****     volatile uint32 parameters[(CY_FLASH_SIZEOF_ROW + CY_FLASH_SRAM_ROM_DATA) / sizeof(uint32)];
  73              		.loc 1 83 0
  74 0008 2293     		str	r3, [sp, #136]
  96:.\Generated_Source\PSoC4/CyFlash.c ****     {
  75              		.loc 1 96 0
  76 000a 344B     		ldr	r3, .L18
  77 000c 9842     		cmp	r0, r3
  78 000e 5FD8     		bhi	.L4
  96:.\Generated_Source\PSoC4/CyFlash.c ****     {
  79              		.loc 1 96 0 is_stmt 0 discriminator 1
  80 0010 0029     		cmp	r1, #0
  81 0012 5DD0     		beq	.L4
  82 0014 041C     		mov	r4, r0
  99:.\Generated_Source\PSoC4/CyFlash.c **** 
  83              		.loc 1 99 0 is_stmt 1
  84 0016 02A8     		add	r0, sp, #8
  85              	.LVL3:
  86 0018 8022     		mov	r2, #128
  87 001a FFF7FEFF 		bl	memcpy
  88              	.LVL4:
 125:.\Generated_Source\PSoC4/CyFlash.c ****                          CY_FLASH_KEY_ONE;
  89              		.loc 1 125 0
  90 001e 304B     		ldr	r3, .L18+4
  91 0020 9C42     		cmp	r4, r3
  92 0022 01D9     		bls	.L15
  93 0024 2F4B     		ldr	r3, .L18+8
  94 0026 00E0     		b	.L5
  95              	.L15:
  96 0028 2F4B     		ldr	r3, .L18+12
  97              	.L5:
 123:.\Generated_Source\PSoC4/CyFlash.c ****                          (uint32) (CY_FLASH_PAGE_LATCH_START_ADDR             << CY_FLASH_PARAM_ADD
  98              		.loc 1 123 0
  99 002a 0093     		str	r3, [sp]
 127:.\Generated_Source\PSoC4/CyFlash.c **** 
 100              		.loc 1 127 0
 101 002c 7F23     		mov	r3, #127
 102 002e 0193     		str	r3, [sp, #4]
 129:.\Generated_Source\PSoC4/CyFlash.c ****         CY_FLASH_CPUSS_SYSREQ_REG = CY_FLASH_CPUSS_REQ_START | CY_FLASH_API_OPCODE_LOAD;
 103              		.loc 1 129 0
ARM GAS  C:\Users\HENRYA~1\AppData\Local\Temp\ccQShem7.s 			page 17


 104 0030 2E4B     		ldr	r3, .L18+16
 105 0032 6A46     		mov	r2, sp
 106 0034 1A60     		str	r2, [r3]
 130:.\Generated_Source\PSoC4/CyFlash.c ****         CY_NOP;
 107              		.loc 1 130 0
 108 0036 2E49     		ldr	r1, .L18+20
 109 0038 2E4A     		ldr	r2, .L18+24
 110 003a 1160     		str	r1, [r2]
 131:.\Generated_Source\PSoC4/CyFlash.c ****         retValue = CY_FLASH_API_RETURN;
 111              		.loc 1 131 0
 112              	@ 131 ".\Generated_Source\PSoC4\CyFlash.c" 1
 113 003c C046     		NOP
 114              	
 115              	@ 0 "" 2
 132:.\Generated_Source\PSoC4/CyFlash.c **** 
 116              		.loc 1 132 0
 117              		.code	16
 118 003e 1B68     		ldr	r3, [r3]
 119 0040 1B0F     		lsr	r3, r3, #28
 120 0042 0F2B     		cmp	r3, #15
 121 0044 04D1     		bne	.L6
 132:.\Generated_Source\PSoC4/CyFlash.c **** 
 122              		.loc 1 132 0 is_stmt 0 discriminator 1
 123 0046 294B     		ldr	r3, .L18+16
 124 0048 1B68     		ldr	r3, [r3]
 125 004a FF22     		mov	r2, #255
 126 004c 1340     		and	r3, r2
 127 004e 08E0     		b	.L7
 128              	.L6:
 132:.\Generated_Source\PSoC4/CyFlash.c **** 
 129              		.loc 1 132 0 discriminator 2
 130 0050 264B     		ldr	r3, .L18+16
 131 0052 1B68     		ldr	r3, [r3]
 132 0054 1B0F     		lsr	r3, r3, #28
 133 0056 0A2B     		cmp	r3, #10
 134 0058 02D0     		beq	.L16
 132:.\Generated_Source\PSoC4/CyFlash.c **** 
 135              		.loc 1 132 0 discriminator 4
 136 005a 244B     		ldr	r3, .L18+16
 137 005c 1B68     		ldr	r3, [r3]
 138 005e 00E0     		b	.L7
 139              	.L16:
 132:.\Generated_Source\PSoC4/CyFlash.c **** 
 140              		.loc 1 132 0
 141 0060 0023     		mov	r3, #0
 142              	.L7:
 132:.\Generated_Source\PSoC4/CyFlash.c **** 
 143              		.loc 1 132 0 discriminator 8
 144 0062 2393     		str	r3, [sp, #140]
 134:.\Generated_Source\PSoC4/CyFlash.c ****         {
 145              		.loc 1 134 0 is_stmt 1 discriminator 8
 146 0064 239B     		ldr	r3, [sp, #140]
 147 0066 002B     		cmp	r3, #0
 148 0068 34D1     		bne	.L9
 142:.\Generated_Source\PSoC4/CyFlash.c **** 
 149              		.loc 1 142 0
 150 006a FFF7FEFF 		bl	CyEnterCriticalSection
ARM GAS  C:\Users\HENRYA~1\AppData\Local\Temp\ccQShem7.s 			page 18


 151              	.LVL5:
 152 006e 051C     		mov	r5, r0
 153              	.LVL6:
 144:.\Generated_Source\PSoC4/CyFlash.c **** 
 154              		.loc 1 144 0
 155 0070 FFF7FEFF 		bl	CySysFlashClockBackup
 156              	.LVL7:
 157 0074 2290     		str	r0, [sp, #136]
 153:.\Generated_Source\PSoC4/CyFlash.c ****             {
 158              		.loc 1 153 0
 159 0076 239B     		ldr	r3, [sp, #140]
 160 0078 002B     		cmp	r3, #0
 161 007a 1FD1     		bne	.L10
 156:.\Generated_Source\PSoC4/CyFlash.c ****                 parameters[0u] |= (uint32)(rowNum << 16u);
 162              		.loc 1 156 0
 163 007c 1E4B     		ldr	r3, .L18+28
 164 007e 0093     		str	r3, [sp]
 157:.\Generated_Source\PSoC4/CyFlash.c **** 
 165              		.loc 1 157 0
 166 0080 009B     		ldr	r3, [sp]
 167 0082 2004     		lsl	r0, r4, #16
 168 0084 1843     		orr	r0, r3
 169 0086 0090     		str	r0, [sp]
 159:.\Generated_Source\PSoC4/CyFlash.c ****                 CY_FLASH_CPUSS_SYSREQ_REG = CY_FLASH_CPUSS_REQ_START | CY_FLASH_API_OPCODE_WRITE_RO
 170              		.loc 1 159 0
 171 0088 184B     		ldr	r3, .L18+16
 172 008a 6A46     		mov	r2, sp
 173 008c 1A60     		str	r2, [r3]
 160:.\Generated_Source\PSoC4/CyFlash.c ****                 CY_NOP;
 174              		.loc 1 160 0
 175 008e 1B49     		ldr	r1, .L18+32
 176 0090 184A     		ldr	r2, .L18+24
 177 0092 1160     		str	r1, [r2]
 161:.\Generated_Source\PSoC4/CyFlash.c ****                 retValue = CY_FLASH_API_RETURN;
 178              		.loc 1 161 0
 179              	@ 161 ".\Generated_Source\PSoC4\CyFlash.c" 1
 180 0094 C046     		NOP
 181              	
 182              	@ 0 "" 2
 162:.\Generated_Source\PSoC4/CyFlash.c ****             }
 183              		.loc 1 162 0
 184              		.code	16
 185 0096 1B68     		ldr	r3, [r3]
 186 0098 1B0F     		lsr	r3, r3, #28
 187 009a 0F2B     		cmp	r3, #15
 188 009c 04D1     		bne	.L11
 162:.\Generated_Source\PSoC4/CyFlash.c ****             }
 189              		.loc 1 162 0 is_stmt 0 discriminator 1
 190 009e 134B     		ldr	r3, .L18+16
 191 00a0 1B68     		ldr	r3, [r3]
 192 00a2 FF22     		mov	r2, #255
 193 00a4 1340     		and	r3, r2
 194 00a6 08E0     		b	.L12
 195              	.L11:
 162:.\Generated_Source\PSoC4/CyFlash.c ****             }
 196              		.loc 1 162 0 discriminator 2
 197 00a8 104B     		ldr	r3, .L18+16
ARM GAS  C:\Users\HENRYA~1\AppData\Local\Temp\ccQShem7.s 			page 19


 198 00aa 1B68     		ldr	r3, [r3]
 199 00ac 1B0F     		lsr	r3, r3, #28
 200 00ae 0A2B     		cmp	r3, #10
 201 00b0 02D0     		beq	.L17
 162:.\Generated_Source\PSoC4/CyFlash.c ****             }
 202              		.loc 1 162 0 discriminator 4
 203 00b2 0E4B     		ldr	r3, .L18+16
 204 00b4 1B68     		ldr	r3, [r3]
 205 00b6 00E0     		b	.L12
 206              	.L17:
 162:.\Generated_Source\PSoC4/CyFlash.c ****             }
 207              		.loc 1 162 0
 208 00b8 0023     		mov	r3, #0
 209              	.L12:
 162:.\Generated_Source\PSoC4/CyFlash.c ****             }
 210              		.loc 1 162 0 discriminator 8
 211 00ba 2393     		str	r3, [sp, #140]
 212              	.L10:
 201:.\Generated_Source\PSoC4/CyFlash.c ****             {
 213              		.loc 1 201 0 is_stmt 1
 214 00bc 229B     		ldr	r3, [sp, #136]
 215 00be 002B     		cmp	r3, #0
 216 00c0 02D1     		bne	.L14
 203:.\Generated_Source\PSoC4/CyFlash.c ****             }
 217              		.loc 1 203 0
 218 00c2 FFF7FEFF 		bl	CySysFlashClockRestore
 219              	.LVL8:
 220 00c6 2290     		str	r0, [sp, #136]
 221              	.L14:
 206:.\Generated_Source\PSoC4/CyFlash.c ****         }
 222              		.loc 1 206 0
 223 00c8 281C     		mov	r0, r5
 224 00ca FFF7FEFF 		bl	CyExitCriticalSection
 225              	.LVL9:
 226 00ce 01E0     		b	.L9
 227              	.LVL10:
 228              	.L4:
 211:.\Generated_Source\PSoC4/CyFlash.c ****     }
 229              		.loc 1 211 0
 230 00d0 0423     		mov	r3, #4
 231 00d2 2393     		str	r3, [sp, #140]
 232              	.LVL11:
 233              	.L9:
 214:.\Generated_Source\PSoC4/CyFlash.c **** }
 234              		.loc 1 214 0
 235 00d4 2398     		ldr	r0, [sp, #140]
 215:.\Generated_Source\PSoC4/CyFlash.c **** 
 236              		.loc 1 215 0
 237 00d6 25B0     		add	sp, sp, #148
 238              		@ sp needed
 239 00d8 30BD     		pop	{r4, r5, pc}
 240              	.L19:
 241 00da C046     		.align	2
 242              	.L18:
 243 00dc FF030000 		.word	1023
 244 00e0 FF010000 		.word	511
 245 00e4 B6D70001 		.word	16832438
ARM GAS  C:\Users\HENRYA~1\AppData\Local\Temp\ccQShem7.s 			page 20


 246 00e8 B6D70000 		.word	55222
 247 00ec 08001040 		.word	1074790408
 248 00f0 04000080 		.word	-2147483644
 249 00f4 04001040 		.word	1074790404
 250 00f8 B6D80000 		.word	55478
 251 00fc 05000080 		.word	-2147483643
 252              		.cfi_endproc
 253              	.LFE1:
 254              		.size	CySysFlashWriteRow, .-CySysFlashWriteRow
 255              		.section	.text.CySysFlashSetWaitCycles,"ax",%progbits
 256              		.align	2
 257              		.global	CySysFlashSetWaitCycles
 258              		.code	16
 259              		.thumb_func
 260              		.type	CySysFlashSetWaitCycles, %function
 261              	CySysFlashSetWaitCycles:
 262              	.LFB2:
 422:.\Generated_Source\PSoC4/CyFlash.c ****     uint8  interruptState;
 263              		.loc 1 422 0
 264              		.cfi_startproc
 265              	.LVL12:
 266 0000 38B5     		push	{r3, r4, r5, lr}
 267              		.cfi_def_cfa_offset 16
 268              		.cfi_offset 3, -16
 269              		.cfi_offset 4, -12
 270              		.cfi_offset 5, -8
 271              		.cfi_offset 14, -4
 272 0002 041C     		mov	r4, r0
 425:.\Generated_Source\PSoC4/CyFlash.c **** 
 273              		.loc 1 425 0
 274 0004 FFF7FEFF 		bl	CyEnterCriticalSection
 275              	.LVL13:
 276 0008 051C     		mov	r5, r0
 277              	.LVL14:
 440:.\Generated_Source\PSoC4/CyFlash.c ****             {
 278              		.loc 1 440 0
 279 000a 102C     		cmp	r4, #16
 280 000c 05D8     		bhi	.L21
 442:.\Generated_Source\PSoC4/CyFlash.c ****             } else
 281              		.loc 1 442 0
 282 000e 104A     		ldr	r2, .L25
 283 0010 1368     		ldr	r3, [r2]
 284 0012 0321     		mov	r1, #3
 285 0014 8B43     		bic	r3, r1
 286 0016 1360     		str	r3, [r2]
 287 0018 16E0     		b	.L22
 288              	.L21:
 444:.\Generated_Source\PSoC4/CyFlash.c ****             {
 289              		.loc 1 444 0
 290 001a 202C     		cmp	r4, #32
 291 001c 07D8     		bhi	.L23
 446:.\Generated_Source\PSoC4/CyFlash.c ****             } else
 292              		.loc 1 446 0
 293 001e 0C49     		ldr	r1, .L25
 294 0020 0B68     		ldr	r3, [r1]
 295 0022 0322     		mov	r2, #3
 296 0024 9343     		bic	r3, r2
ARM GAS  C:\Users\HENRYA~1\AppData\Local\Temp\ccQShem7.s 			page 21


 297 0026 023A     		sub	r2, r2, #2
 298 0028 1343     		orr	r3, r2
 299 002a 0B60     		str	r3, [r1]
 300 002c 0CE0     		b	.L22
 301              	.L23:
 449:.\Generated_Source\PSoC4/CyFlash.c ****                 {
 302              		.loc 1 449 0
 303 002e 302C     		cmp	r4, #48
 304 0030 07D8     		bhi	.L24
 451:.\Generated_Source\PSoC4/CyFlash.c ****                 }
 305              		.loc 1 451 0
 306 0032 0749     		ldr	r1, .L25
 307 0034 0B68     		ldr	r3, [r1]
 308 0036 0322     		mov	r2, #3
 309 0038 9343     		bic	r3, r2
 310 003a 013A     		sub	r2, r2, #1
 311 003c 1343     		orr	r3, r2
 312 003e 0B60     		str	r3, [r1]
 313 0040 02E0     		b	.L22
 314              	.L24:
 458:.\Generated_Source\PSoC4/CyFlash.c ****         }
 315              		.loc 1 458 0 discriminator 1
 316 0042 0020     		mov	r0, #0
 317 0044 FFF7FEFF 		bl	CyHalt
 318              	.LVL15:
 319              	.L22:
 463:.\Generated_Source\PSoC4/CyFlash.c **** }
 320              		.loc 1 463 0
 321 0048 281C     		mov	r0, r5
 322 004a FFF7FEFF 		bl	CyExitCriticalSection
 323              	.LVL16:
 464:.\Generated_Source\PSoC4/CyFlash.c **** 
 324              		.loc 1 464 0
 325              		@ sp needed
 326              	.LVL17:
 327              	.LVL18:
 328 004e 38BD     		pop	{r3, r4, r5, pc}
 329              	.L26:
 330              		.align	2
 331              	.L25:
 332 0050 30001040 		.word	1074790448
 333              		.cfi_endproc
 334              	.LFE2:
 335              		.size	CySysFlashSetWaitCycles, .-CySysFlashSetWaitCycles
 336              		.section	.text.CySysSFlashWriteUserRow,"ax",%progbits
 337              		.align	2
 338              		.global	CySysSFlashWriteUserRow
 339              		.code	16
 340              		.thumb_func
 341              		.type	CySysSFlashWriteUserRow, %function
 342              	CySysSFlashWriteUserRow:
 343              	.LFB3:
 490:.\Generated_Source\PSoC4/CyFlash.c ****     volatile uint32 retValue = CY_SYS_FLASH_SUCCESS;
 344              		.loc 1 490 0
 345              		.cfi_startproc
 346              	.LVL19:
 347 0000 30B5     		push	{r4, r5, lr}
ARM GAS  C:\Users\HENRYA~1\AppData\Local\Temp\ccQShem7.s 			page 22


 348              		.cfi_def_cfa_offset 12
 349              		.cfi_offset 4, -12
 350              		.cfi_offset 5, -8
 351              		.cfi_offset 14, -4
 352 0002 A5B0     		sub	sp, sp, #148
 353              		.cfi_def_cfa_offset 160
 491:.\Generated_Source\PSoC4/CyFlash.c ****     volatile uint32 clkCnfRetValue = CY_SYS_FLASH_SUCCESS;
 354              		.loc 1 491 0
 355 0004 0023     		mov	r3, #0
 356 0006 2393     		str	r3, [sp, #140]
 492:.\Generated_Source\PSoC4/CyFlash.c ****     volatile uint32 parameters[(CY_FLASH_SIZEOF_ROW + CY_FLASH_SRAM_ROM_DATA)/4u];
 357              		.loc 1 492 0
 358 0008 2293     		str	r3, [sp, #136]
 497:.\Generated_Source\PSoC4/CyFlash.c ****     {
 359              		.loc 1 497 0
 360 000a 0328     		cmp	r0, #3
 361 000c 5CD8     		bhi	.L28
 497:.\Generated_Source\PSoC4/CyFlash.c ****     {
 362              		.loc 1 497 0 is_stmt 0 discriminator 1
 363 000e 0029     		cmp	r1, #0
 364 0010 5AD0     		beq	.L28
 502:.\Generated_Source\PSoC4/CyFlash.c ****                          CY_FLASH_KEY_ONE;
 365              		.loc 1 502 0 is_stmt 1
 366 0012 304B     		ldr	r3, .L42
 367 0014 9842     		cmp	r0, r3
 368 0016 01D9     		bls	.L39
 369 0018 2F4B     		ldr	r3, .L42+4
 370 001a 00E0     		b	.L29
 371              	.L39:
 372 001c 2F4B     		ldr	r3, .L42+8
 373              	.L29:
 374 001e 041C     		mov	r4, r0
 500:.\Generated_Source\PSoC4/CyFlash.c ****                          (uint32) (CY_FLASH_PAGE_LATCH_START_ADDR             << CY_FLASH_PARAM_ADD
 375              		.loc 1 500 0
 376 0020 0093     		str	r3, [sp]
 504:.\Generated_Source\PSoC4/CyFlash.c **** 
 377              		.loc 1 504 0
 378 0022 7F23     		mov	r3, #127
 379 0024 0193     		str	r3, [sp, #4]
 506:.\Generated_Source\PSoC4/CyFlash.c ****         CY_FLASH_CPUSS_SYSARG_REG = (uint32) &parameters[0u];
 380              		.loc 1 506 0
 381 0026 02A8     		add	r0, sp, #8
 382              	.LVL20:
 383 0028 8022     		mov	r2, #128
 384 002a FFF7FEFF 		bl	memcpy
 385              	.LVL21:
 507:.\Generated_Source\PSoC4/CyFlash.c ****         CY_FLASH_CPUSS_SYSREQ_REG = CY_FLASH_CPUSS_REQ_START | CY_FLASH_API_OPCODE_LOAD;
 386              		.loc 1 507 0
 387 002e 2C4B     		ldr	r3, .L42+12
 388 0030 6A46     		mov	r2, sp
 389 0032 1A60     		str	r2, [r3]
 508:.\Generated_Source\PSoC4/CyFlash.c ****         CY_NOP;
 390              		.loc 1 508 0
 391 0034 2B49     		ldr	r1, .L42+16
 392 0036 2C4A     		ldr	r2, .L42+20
 393 0038 1160     		str	r1, [r2]
 509:.\Generated_Source\PSoC4/CyFlash.c ****         retValue = CY_FLASH_API_RETURN;
ARM GAS  C:\Users\HENRYA~1\AppData\Local\Temp\ccQShem7.s 			page 23


 394              		.loc 1 509 0
 395              	@ 509 ".\Generated_Source\PSoC4\CyFlash.c" 1
 396 003a C046     		NOP
 397              	
 398              	@ 0 "" 2
 510:.\Generated_Source\PSoC4/CyFlash.c **** 
 399              		.loc 1 510 0
 400              		.code	16
 401 003c 1B68     		ldr	r3, [r3]
 402 003e 1B0F     		lsr	r3, r3, #28
 403 0040 0F2B     		cmp	r3, #15
 404 0042 04D1     		bne	.L30
 510:.\Generated_Source\PSoC4/CyFlash.c **** 
 405              		.loc 1 510 0 is_stmt 0 discriminator 1
 406 0044 264B     		ldr	r3, .L42+12
 407 0046 1B68     		ldr	r3, [r3]
 408 0048 FF22     		mov	r2, #255
 409 004a 1340     		and	r3, r2
 410 004c 08E0     		b	.L31
 411              	.L30:
 510:.\Generated_Source\PSoC4/CyFlash.c **** 
 412              		.loc 1 510 0 discriminator 2
 413 004e 244B     		ldr	r3, .L42+12
 414 0050 1B68     		ldr	r3, [r3]
 415 0052 1B0F     		lsr	r3, r3, #28
 416 0054 0A2B     		cmp	r3, #10
 417 0056 02D0     		beq	.L40
 510:.\Generated_Source\PSoC4/CyFlash.c **** 
 418              		.loc 1 510 0 discriminator 4
 419 0058 214B     		ldr	r3, .L42+12
 420 005a 1B68     		ldr	r3, [r3]
 421 005c 00E0     		b	.L31
 422              	.L40:
 510:.\Generated_Source\PSoC4/CyFlash.c **** 
 423              		.loc 1 510 0
 424 005e 0023     		mov	r3, #0
 425              	.L31:
 510:.\Generated_Source\PSoC4/CyFlash.c **** 
 426              		.loc 1 510 0 discriminator 8
 427 0060 2393     		str	r3, [sp, #140]
 512:.\Generated_Source\PSoC4/CyFlash.c ****         {
 428              		.loc 1 512 0 is_stmt 1 discriminator 8
 429 0062 239B     		ldr	r3, [sp, #140]
 430 0064 002B     		cmp	r3, #0
 431 0066 31D1     		bne	.L33
 520:.\Generated_Source\PSoC4/CyFlash.c **** 
 432              		.loc 1 520 0
 433 0068 FFF7FEFF 		bl	CyEnterCriticalSection
 434              	.LVL22:
 435 006c 051C     		mov	r5, r0
 436              	.LVL23:
 522:.\Generated_Source\PSoC4/CyFlash.c **** 
 437              		.loc 1 522 0
 438 006e FFF7FEFF 		bl	CySysFlashClockBackup
 439              	.LVL24:
 440 0072 2290     		str	r0, [sp, #136]
 531:.\Generated_Source\PSoC4/CyFlash.c ****             {
ARM GAS  C:\Users\HENRYA~1\AppData\Local\Temp\ccQShem7.s 			page 24


 441              		.loc 1 531 0
 442 0074 239B     		ldr	r3, [sp, #140]
 443 0076 002B     		cmp	r3, #0
 444 0078 1CD1     		bne	.L34
 534:.\Generated_Source\PSoC4/CyFlash.c ****                 parameters[1u] = (uint32) rowNum;
 445              		.loc 1 534 0
 446 007a 1C4B     		ldr	r3, .L42+24
 447 007c 0093     		str	r3, [sp]
 535:.\Generated_Source\PSoC4/CyFlash.c **** 
 448              		.loc 1 535 0
 449 007e 0194     		str	r4, [sp, #4]
 537:.\Generated_Source\PSoC4/CyFlash.c ****                 CY_FLASH_CPUSS_SYSREQ_REG = CY_FLASH_CPUSS_REQ_START | CY_FLASH_API_OPCODE_WRITE_SF
 450              		.loc 1 537 0
 451 0080 174B     		ldr	r3, .L42+12
 452 0082 6A46     		mov	r2, sp
 453 0084 1A60     		str	r2, [r3]
 538:.\Generated_Source\PSoC4/CyFlash.c ****                 CY_NOP;
 454              		.loc 1 538 0
 455 0086 1A49     		ldr	r1, .L42+28
 456 0088 174A     		ldr	r2, .L42+20
 457 008a 1160     		str	r1, [r2]
 539:.\Generated_Source\PSoC4/CyFlash.c ****                 retValue = CY_FLASH_API_RETURN;
 458              		.loc 1 539 0
 459              	@ 539 ".\Generated_Source\PSoC4\CyFlash.c" 1
 460 008c C046     		NOP
 461              	
 462              	@ 0 "" 2
 540:.\Generated_Source\PSoC4/CyFlash.c ****             }
 463              		.loc 1 540 0
 464              		.code	16
 465 008e 1B68     		ldr	r3, [r3]
 466 0090 1B0F     		lsr	r3, r3, #28
 467 0092 0F2B     		cmp	r3, #15
 468 0094 04D1     		bne	.L35
 540:.\Generated_Source\PSoC4/CyFlash.c ****             }
 469              		.loc 1 540 0 is_stmt 0 discriminator 1
 470 0096 124B     		ldr	r3, .L42+12
 471 0098 1B68     		ldr	r3, [r3]
 472 009a FF22     		mov	r2, #255
 473 009c 1340     		and	r3, r2
 474 009e 08E0     		b	.L36
 475              	.L35:
 540:.\Generated_Source\PSoC4/CyFlash.c ****             }
 476              		.loc 1 540 0 discriminator 2
 477 00a0 0F4B     		ldr	r3, .L42+12
 478 00a2 1B68     		ldr	r3, [r3]
 479 00a4 1B0F     		lsr	r3, r3, #28
 480 00a6 0A2B     		cmp	r3, #10
 481 00a8 02D0     		beq	.L41
 540:.\Generated_Source\PSoC4/CyFlash.c ****             }
 482              		.loc 1 540 0 discriminator 4
 483 00aa 0D4B     		ldr	r3, .L42+12
 484 00ac 1B68     		ldr	r3, [r3]
 485 00ae 00E0     		b	.L36
 486              	.L41:
 540:.\Generated_Source\PSoC4/CyFlash.c ****             }
 487              		.loc 1 540 0
ARM GAS  C:\Users\HENRYA~1\AppData\Local\Temp\ccQShem7.s 			page 25


 488 00b0 0023     		mov	r3, #0
 489              	.L36:
 540:.\Generated_Source\PSoC4/CyFlash.c ****             }
 490              		.loc 1 540 0 discriminator 8
 491 00b2 2393     		str	r3, [sp, #140]
 492              	.L34:
 543:.\Generated_Source\PSoC4/CyFlash.c ****             {
 493              		.loc 1 543 0 is_stmt 1
 494 00b4 229B     		ldr	r3, [sp, #136]
 495 00b6 002B     		cmp	r3, #0
 496 00b8 02D1     		bne	.L38
 545:.\Generated_Source\PSoC4/CyFlash.c ****             }
 497              		.loc 1 545 0
 498 00ba FFF7FEFF 		bl	CySysFlashClockRestore
 499              	.LVL25:
 500 00be 2290     		str	r0, [sp, #136]
 501              	.L38:
 547:.\Generated_Source\PSoC4/CyFlash.c ****         }
 502              		.loc 1 547 0
 503 00c0 281C     		mov	r0, r5
 504 00c2 FFF7FEFF 		bl	CyExitCriticalSection
 505              	.LVL26:
 506 00c6 01E0     		b	.L33
 507              	.LVL27:
 508              	.L28:
 552:.\Generated_Source\PSoC4/CyFlash.c ****     }
 509              		.loc 1 552 0
 510 00c8 0423     		mov	r3, #4
 511 00ca 2393     		str	r3, [sp, #140]
 512              	.LVL28:
 513              	.L33:
 555:.\Generated_Source\PSoC4/CyFlash.c **** }
 514              		.loc 1 555 0
 515 00cc 2398     		ldr	r0, [sp, #140]
 556:.\Generated_Source\PSoC4/CyFlash.c **** #endif /* (CY_SFLASH_XTRA_ROWS) */
 516              		.loc 1 556 0
 517 00ce 25B0     		add	sp, sp, #148
 518              		@ sp needed
 519 00d0 30BD     		pop	{r4, r5, pc}
 520              	.L43:
 521 00d2 C046     		.align	2
 522              	.L42:
 523 00d4 FF010000 		.word	511
 524 00d8 B6D70001 		.word	16832438
 525 00dc B6D70000 		.word	55222
 526 00e0 08001040 		.word	1074790408
 527 00e4 04000080 		.word	-2147483644
 528 00e8 04001040 		.word	1074790404
 529 00ec B6EB0000 		.word	60342
 530 00f0 18000080 		.word	-2147483624
 531              		.cfi_endproc
 532              	.LFE3:
 533              		.size	CySysSFlashWriteUserRow, .-CySysSFlashWriteUserRow
 534              		.text
 535              	.Letext0:
 536              		.file 2 ".\\Generated_Source\\PSoC4\\cytypes.h"
 537              		.file 3 ".\\Generated_Source\\PSoC4\\CyLib.h"
ARM GAS  C:\Users\HENRYA~1\AppData\Local\Temp\ccQShem7.s 			page 26

