ARM GAS  C:\Users\HENRYA~1\AppData\Local\Temp\ccDgvymd.s 			page 1


   1              		.syntax unified
   2              		.cpu cortex-m0
   3              		.fpu softvfp
   4              		.eabi_attribute 20, 1
   5              		.eabi_attribute 21, 1
   6              		.eabi_attribute 23, 3
   7              		.eabi_attribute 24, 1
   8              		.eabi_attribute 25, 1
   9              		.eabi_attribute 26, 1
  10              		.eabi_attribute 30, 1
  11              		.eabi_attribute 34, 0
  12              		.eabi_attribute 18, 4
  13              		.thumb
  14              		.syntax unified
  15              		.file	"main.c"
  16              		.text
  17              	.Ltext0:
  18              		.cfi_sections	.debug_frame
  19              		.section	.text.writeVCNL_1,"ax",%progbits
  20              		.align	2
  21              		.global	writeVCNL_1
  22              		.code	16
  23              		.thumb_func
  24              		.type	writeVCNL_1, %function
  25              	writeVCNL_1:
  26              	.LFB36:
  27              		.file 1 "./VCNL4010_1.h"
   1:./VCNL4010_1.h **** #include <project.h>
   2:./VCNL4010_1.h **** #define VCNL4010_ADDRESS 0x13
   3:./VCNL4010_1.h **** int i=0;
   4:./VCNL4010_1.h **** //Send Data
   5:./VCNL4010_1.h **** void writeVCNL_1(int address, int data){
  28              		.loc 1 5 0
  29              		.cfi_startproc
  30              		@ args = 0, pretend = 0, frame = 8
  31              		@ frame_needed = 0, uses_anonymous_args = 0
  32              	.LVL0:
  33 0000 10B5     		push	{r4, lr}
  34              		.cfi_def_cfa_offset 8
  35              		.cfi_offset 4, -8
  36              		.cfi_offset 14, -4
  37 0002 82B0     		sub	sp, sp, #8
  38              		.cfi_def_cfa_offset 16
   6:./VCNL4010_1.h ****     uint8 Write_buf[2]={0};
  39              		.loc 1 6 0
  40 0004 01AC     		add	r4, sp, #4
   7:./VCNL4010_1.h ****     Write_buf[0]=address;
  41              		.loc 1 7 0
  42 0006 2070     		strb	r0, [r4]
   8:./VCNL4010_1.h ****     Write_buf[1]=data;
  43              		.loc 1 8 0
  44 0008 6170     		strb	r1, [r4, #1]
   9:./VCNL4010_1.h ****     SENSOR_1_I2CMasterWriteBuf(VCNL4010_ADDRESS,(uint8 *)Write_buf,2,SENSOR_1_I2C_MODE_COMPLETE_XFE
  45              		.loc 1 9 0
  46 000a 0023     		movs	r3, #0
  47 000c 0222     		movs	r2, #2
  48 000e 2100     		movs	r1, r4
ARM GAS  C:\Users\HENRYA~1\AppData\Local\Temp\ccDgvymd.s 			page 2


  49              	.LVL1:
  50 0010 1320     		movs	r0, #19
  51              	.LVL2:
  52 0012 FFF7FEFF 		bl	SENSOR_1_I2CMasterWriteBuf
  53              	.LVL3:
  54              	.L2:
  10:./VCNL4010_1.h ****     while((SENSOR_1_I2CMasterStatus()&SENSOR_1_I2C_MSTAT_WR_CMPLT)==0){}
  55              		.loc 1 10 0 discriminator 1
  56 0016 FFF7FEFF 		bl	SENSOR_1_I2CMasterStatus
  57              	.LVL4:
  58 001a 8307     		lsls	r3, r0, #30
  59 001c FBD5     		bpl	.L2
  11:./VCNL4010_1.h ****     return;
  12:./VCNL4010_1.h **** }
  60              		.loc 1 12 0
  61 001e 02B0     		add	sp, sp, #8
  62              		@ sp needed
  63 0020 10BD     		pop	{r4, pc}
  64              		.cfi_endproc
  65              	.LFE36:
  66              		.size	writeVCNL_1, .-writeVCNL_1
  67 0022 C046     		.section	.text.readVCNL_1,"ax",%progbits
  68              		.align	2
  69              		.global	readVCNL_1
  70              		.code	16
  71              		.thumb_func
  72              		.type	readVCNL_1, %function
  73              	readVCNL_1:
  74              	.LFB37:
  13:./VCNL4010_1.h **** //Read Data
  14:./VCNL4010_1.h **** int readVCNL_1(int address){
  75              		.loc 1 14 0
  76              		.cfi_startproc
  77              		@ args = 0, pretend = 0, frame = 8
  78              		@ frame_needed = 0, uses_anonymous_args = 0
  79              	.LVL5:
  80 0000 00B5     		push	{lr}
  81              		.cfi_def_cfa_offset 4
  82              		.cfi_offset 14, -4
  83 0002 83B0     		sub	sp, sp, #12
  84              		.cfi_def_cfa_offset 16
  15:./VCNL4010_1.h ****     uint8 Write_buf[1]={0};
  85              		.loc 1 15 0
  86 0004 01A9     		add	r1, sp, #4
  16:./VCNL4010_1.h ****     Write_buf[0]=address;
  87              		.loc 1 16 0
  88 0006 0870     		strb	r0, [r1]
  17:./VCNL4010_1.h ****     uint8 read_Buf[1]={0};
  89              		.loc 1 17 0
  90 0008 0023     		movs	r3, #0
  91 000a 6A46     		mov	r2, sp
  92 000c 1370     		strb	r3, [r2]
  18:./VCNL4010_1.h ****     SENSOR_1_I2CMasterWriteBuf(VCNL4010_ADDRESS,(uint8 *)Write_buf,1,SENSOR_1_I2C_MODE_NO_STOP);
  93              		.loc 1 18 0
  94 000e 0233     		adds	r3, r3, #2
  95 0010 0122     		movs	r2, #1
  96 0012 1320     		movs	r0, #19
ARM GAS  C:\Users\HENRYA~1\AppData\Local\Temp\ccDgvymd.s 			page 3


  97              	.LVL6:
  98 0014 FFF7FEFF 		bl	SENSOR_1_I2CMasterWriteBuf
  99              	.LVL7:
 100              	.L4:
  19:./VCNL4010_1.h ****     while((SENSOR_1_I2CMasterStatus()&SENSOR_1_I2C_MSTAT_WR_CMPLT)==0){}
 101              		.loc 1 19 0 discriminator 1
 102 0018 FFF7FEFF 		bl	SENSOR_1_I2CMasterStatus
 103              	.LVL8:
 104 001c 8307     		lsls	r3, r0, #30
 105 001e FBD5     		bpl	.L4
  20:./VCNL4010_1.h ****     SENSOR_1_I2CMasterReadBuf(VCNL4010_ADDRESS,(uint8 *)read_Buf,1,SENSOR_1_I2C_MODE_REPEAT_START);
 106              		.loc 1 20 0
 107 0020 0123     		movs	r3, #1
 108 0022 0122     		movs	r2, #1
 109 0024 6946     		mov	r1, sp
 110 0026 1320     		movs	r0, #19
 111 0028 FFF7FEFF 		bl	SENSOR_1_I2CMasterReadBuf
 112              	.LVL9:
 113              	.L5:
  21:./VCNL4010_1.h ****     while((SENSOR_1_I2CMasterStatus()&SENSOR_1_I2C_MSTAT_RD_CMPLT)==0){}
 114              		.loc 1 21 0 discriminator 1
 115 002c FFF7FEFF 		bl	SENSOR_1_I2CMasterStatus
 116              	.LVL10:
 117 0030 C307     		lsls	r3, r0, #31
 118 0032 FBD5     		bpl	.L5
  22:./VCNL4010_1.h ****     return read_Buf[0];
 119              		.loc 1 22 0
 120 0034 6B46     		mov	r3, sp
 121 0036 1878     		ldrb	r0, [r3]
  23:./VCNL4010_1.h **** }
 122              		.loc 1 23 0
 123 0038 03B0     		add	sp, sp, #12
 124              		@ sp needed
 125 003a 00BD     		pop	{pc}
 126              		.cfi_endproc
 127              	.LFE37:
 128              		.size	readVCNL_1, .-readVCNL_1
 129              		.section	.text.initVCNL_1,"ax",%progbits
 130              		.align	2
 131              		.global	initVCNL_1
 132              		.code	16
 133              		.thumb_func
 134              		.type	initVCNL_1, %function
 135              	initVCNL_1:
 136              	.LFB38:
  24:./VCNL4010_1.h **** //Init Sensor
  25:./VCNL4010_1.h **** void initVCNL_1(){
 137              		.loc 1 25 0
 138              		.cfi_startproc
 139              		@ args = 0, pretend = 0, frame = 0
 140              		@ frame_needed = 0, uses_anonymous_args = 0
 141 0000 10B5     		push	{r4, lr}
 142              		.cfi_def_cfa_offset 8
 143              		.cfi_offset 4, -8
 144              		.cfi_offset 14, -4
  26:./VCNL4010_1.h ****   int temp = readVCNL_1(0x81);
 145              		.loc 1 26 0
ARM GAS  C:\Users\HENRYA~1\AppData\Local\Temp\ccDgvymd.s 			page 4


 146 0002 8120     		movs	r0, #129
 147 0004 FFF7FEFF 		bl	readVCNL_1
 148              	.LVL11:
  27:./VCNL4010_1.h ****   if (temp != 0x21){  
 149              		.loc 1 27 0
 150 0008 2128     		cmp	r0, #33
 151 000a 0ED0     		beq	.L7
  28:./VCNL4010_1.h ****     //Led Sequence Fail
  29:./VCNL4010_1.h ****     LED_1_Write(1);
 152              		.loc 1 29 0
 153 000c 0120     		movs	r0, #1
 154              	.LVL12:
 155 000e FFF7FEFF 		bl	LED_1_Write
 156              	.LVL13:
  30:./VCNL4010_1.h ****     CyDelay(500);
 157              		.loc 1 30 0
 158 0012 FA24     		movs	r4, #250
 159 0014 6400     		lsls	r4, r4, #1
 160 0016 2000     		movs	r0, r4
 161 0018 FFF7FEFF 		bl	CyDelay
 162              	.LVL14:
  31:./VCNL4010_1.h ****     LED_1_Write(0);
 163              		.loc 1 31 0
 164 001c 0020     		movs	r0, #0
 165 001e FFF7FEFF 		bl	LED_1_Write
 166              	.LVL15:
  32:./VCNL4010_1.h ****     CyDelay(500);    
 167              		.loc 1 32 0
 168 0022 2000     		movs	r0, r4
 169 0024 FFF7FEFF 		bl	CyDelay
 170              	.LVL16:
 171 0028 1DE0     		b	.L8
 172              	.LVL17:
 173              	.L7:
  33:./VCNL4010_1.h ****   }
  34:./VCNL4010_1.h ****    else{
  35:./VCNL4010_1.h ****     //Led Sequence Sucess
  36:./VCNL4010_1.h ****     LED_1_Write(0);
 174              		.loc 1 36 0
 175 002a 0020     		movs	r0, #0
 176              	.LVL18:
 177 002c FFF7FEFF 		bl	LED_1_Write
 178              	.LVL19:
  37:./VCNL4010_1.h ****     for(i=1;i<5;i++){
 179              		.loc 1 37 0
 180 0030 0122     		movs	r2, #1
 181 0032 154B     		ldr	r3, .L11
 182 0034 1A60     		str	r2, [r3]
 183 0036 0FE0     		b	.L9
 184              	.L10:
  38:./VCNL4010_1.h ****         LED_1_Write(1);
 185              		.loc 1 38 0 discriminator 3
 186 0038 0120     		movs	r0, #1
 187 003a FFF7FEFF 		bl	LED_1_Write
 188              	.LVL20:
  39:./VCNL4010_1.h ****         CyDelay(200);
 189              		.loc 1 39 0 discriminator 3
ARM GAS  C:\Users\HENRYA~1\AppData\Local\Temp\ccDgvymd.s 			page 5


 190 003e C820     		movs	r0, #200
 191 0040 FFF7FEFF 		bl	CyDelay
 192              	.LVL21:
  40:./VCNL4010_1.h ****         LED_1_Write(0);
 193              		.loc 1 40 0 discriminator 3
 194 0044 0020     		movs	r0, #0
 195 0046 FFF7FEFF 		bl	LED_1_Write
 196              	.LVL22:
  41:./VCNL4010_1.h ****         CyDelay(200); 
 197              		.loc 1 41 0 discriminator 3
 198 004a C820     		movs	r0, #200
 199 004c FFF7FEFF 		bl	CyDelay
 200              	.LVL23:
  37:./VCNL4010_1.h ****         LED_1_Write(1);
 201              		.loc 1 37 0 discriminator 3
 202 0050 0D4A     		ldr	r2, .L11
 203 0052 1368     		ldr	r3, [r2]
 204 0054 0133     		adds	r3, r3, #1
 205 0056 1360     		str	r3, [r2]
 206              	.L9:
  37:./VCNL4010_1.h ****         LED_1_Write(1);
 207              		.loc 1 37 0 is_stmt 0 discriminator 1
 208 0058 0B4B     		ldr	r3, .L11
 209 005a 1B68     		ldr	r3, [r3]
 210 005c 042B     		cmp	r3, #4
 211 005e EBDD     		ble	.L10
  42:./VCNL4010_1.h ****         }
  43:./VCNL4010_1.h ****     LED_1_Write(0);
 212              		.loc 1 43 0 is_stmt 1
 213 0060 0020     		movs	r0, #0
 214 0062 FFF7FEFF 		bl	LED_1_Write
 215              	.LVL24:
 216              	.L8:
  44:./VCNL4010_1.h ****   } 
  45:./VCNL4010_1.h ****   //VCNL Init Params
  46:./VCNL4010_1.h ****   writeVCNL_1(0x84, 0x0F); // Configures ambient light measures - Single conversion mode, 128 avera
 217              		.loc 1 46 0
 218 0066 0F21     		movs	r1, #15
 219 0068 8420     		movs	r0, #132
 220 006a FFF7FEFF 		bl	writeVCNL_1
 221              	.LVL25:
  47:./VCNL4010_1.h ****   writeVCNL_1(0x83, 20);   // sets IR current in steps of 10mA 0-200mA --> 200mA
 222              		.loc 1 47 0
 223 006e 1421     		movs	r1, #20
 224 0070 8320     		movs	r0, #131
 225 0072 FFF7FEFF 		bl	writeVCNL_1
 226              	.LVL26:
  48:./VCNL4010_1.h ****   writeVCNL_1(0x89, 0);    // Proximity IR test signal freq, 0-3 - 781.25 kHz
 227              		.loc 1 48 0
 228 0076 0021     		movs	r1, #0
 229 0078 8920     		movs	r0, #137
 230 007a FFF7FEFF 		bl	writeVCNL_1
 231              	.LVL27:
  49:./VCNL4010_1.h ****   writeVCNL_1(0x8A, 0x81); // proximity modulator timing - 129, recommended by Vishay 
 232              		.loc 1 49 0
 233 007e 8121     		movs	r1, #129
 234 0080 8A20     		movs	r0, #138
ARM GAS  C:\Users\HENRYA~1\AppData\Local\Temp\ccDgvymd.s 			page 6


 235 0082 FFF7FEFF 		bl	writeVCNL_1
 236              	.LVL28:
  50:./VCNL4010_1.h **** }
 237              		.loc 1 50 0
 238              		@ sp needed
 239 0086 10BD     		pop	{r4, pc}
 240              	.L12:
 241              		.align	2
 242              	.L11:
 243 0088 00000000 		.word	.LANCHOR0
 244              		.cfi_endproc
 245              	.LFE38:
 246              		.size	initVCNL_1, .-initVCNL_1
 247              		.section	.text.readProximity_1,"ax",%progbits
 248              		.align	2
 249              		.global	readProximity_1
 250              		.code	16
 251              		.thumb_func
 252              		.type	readProximity_1, %function
 253              	readProximity_1:
 254              	.LFB39:
  51:./VCNL4010_1.h **** //Read Distance Signal
  52:./VCNL4010_1.h **** unsigned int readProximity_1(){
 255              		.loc 1 52 0
 256              		.cfi_startproc
 257              		@ args = 0, pretend = 0, frame = 0
 258              		@ frame_needed = 0, uses_anonymous_args = 0
 259 0000 10B5     		push	{r4, lr}
 260              		.cfi_def_cfa_offset 8
 261              		.cfi_offset 4, -8
 262              		.cfi_offset 14, -4
  53:./VCNL4010_1.h ****   int temp = readVCNL_1(0x80);
 263              		.loc 1 53 0
 264 0002 8020     		movs	r0, #128
 265 0004 FFF7FEFF 		bl	readVCNL_1
 266              	.LVL29:
  54:./VCNL4010_1.h ****   writeVCNL_1(0x80, temp | 0x08);             // command the sensor to perform a proximity measure
 267              		.loc 1 54 0
 268 0008 0823     		movs	r3, #8
 269 000a 0100     		movs	r1, r0
 270 000c 1943     		orrs	r1, r3
 271 000e 8020     		movs	r0, #128
 272              	.LVL30:
 273 0010 FFF7FEFF 		bl	writeVCNL_1
 274              	.LVL31:
 275              	.L14:
  55:./VCNL4010_1.h ****   while(!(readVCNL_1(0x80)&0x20));            // Wait for the proximity data ready bit to be set
 276              		.loc 1 55 0 discriminator 1
 277 0014 8020     		movs	r0, #128
 278 0016 FFF7FEFF 		bl	readVCNL_1
 279              	.LVL32:
 280 001a 8306     		lsls	r3, r0, #26
 281 001c FAD5     		bpl	.L14
  56:./VCNL4010_1.h ****   unsigned int data = readVCNL_1(0x87) << 8;
 282              		.loc 1 56 0
 283 001e 8720     		movs	r0, #135
 284 0020 FFF7FEFF 		bl	readVCNL_1
ARM GAS  C:\Users\HENRYA~1\AppData\Local\Temp\ccDgvymd.s 			page 7


 285              	.LVL33:
 286 0024 0402     		lsls	r4, r0, #8
 287              	.LVL34:
  57:./VCNL4010_1.h ****   data |= readVCNL_1(0x88);
 288              		.loc 1 57 0
 289 0026 8820     		movs	r0, #136
 290 0028 FFF7FEFF 		bl	readVCNL_1
 291              	.LVL35:
 292 002c 2043     		orrs	r0, r4
 293              	.LVL36:
  58:./VCNL4010_1.h ****   return data;
  59:./VCNL4010_1.h **** }
 294              		.loc 1 59 0
 295              		@ sp needed
 296 002e 10BD     		pop	{r4, pc}
 297              		.cfi_endproc
 298              	.LFE39:
 299              		.size	readProximity_1, .-readProximity_1
 300              		.section	.text.readAmbient_1,"ax",%progbits
 301              		.align	2
 302              		.global	readAmbient_1
 303              		.code	16
 304              		.thumb_func
 305              		.type	readAmbient_1, %function
 306              	readAmbient_1:
 307              	.LFB40:
  60:./VCNL4010_1.h **** //Read Ambient Signal
  61:./VCNL4010_1.h **** unsigned int readAmbient_1(){
 308              		.loc 1 61 0
 309              		.cfi_startproc
 310              		@ args = 0, pretend = 0, frame = 0
 311              		@ frame_needed = 0, uses_anonymous_args = 0
 312 0000 10B5     		push	{r4, lr}
 313              		.cfi_def_cfa_offset 8
 314              		.cfi_offset 4, -8
 315              		.cfi_offset 14, -4
  62:./VCNL4010_1.h ****   int temp = readVCNL_1(0x80);
 316              		.loc 1 62 0
 317 0002 8020     		movs	r0, #128
 318 0004 FFF7FEFF 		bl	readVCNL_1
 319              	.LVL37:
  63:./VCNL4010_1.h ****   writeVCNL_1(0x80, temp | 0x10);             // command the sensor to perform ambient measure
 320              		.loc 1 63 0
 321 0008 1023     		movs	r3, #16
 322 000a 0100     		movs	r1, r0
 323 000c 1943     		orrs	r1, r3
 324 000e 8020     		movs	r0, #128
 325              	.LVL38:
 326 0010 FFF7FEFF 		bl	writeVCNL_1
 327              	.LVL39:
 328              	.L16:
  64:./VCNL4010_1.h ****   while(!(readVCNL_1(0x80)&0x40));            // wait for the proximity data ready bit to be set
 329              		.loc 1 64 0 discriminator 1
 330 0014 8020     		movs	r0, #128
 331 0016 FFF7FEFF 		bl	readVCNL_1
 332              	.LVL40:
 333 001a 4306     		lsls	r3, r0, #25
ARM GAS  C:\Users\HENRYA~1\AppData\Local\Temp\ccDgvymd.s 			page 8


 334 001c FAD5     		bpl	.L16
  65:./VCNL4010_1.h ****   unsigned int data = readVCNL_1(0x85) << 8;  
 335              		.loc 1 65 0
 336 001e 8520     		movs	r0, #133
 337 0020 FFF7FEFF 		bl	readVCNL_1
 338              	.LVL41:
 339 0024 0402     		lsls	r4, r0, #8
 340              	.LVL42:
  66:./VCNL4010_1.h ****   data |= readVCNL_1(0x86);
 341              		.loc 1 66 0
 342 0026 8620     		movs	r0, #134
 343 0028 FFF7FEFF 		bl	readVCNL_1
 344              	.LVL43:
 345 002c 2043     		orrs	r0, r4
 346              	.LVL44:
  67:./VCNL4010_1.h ****   return data;
  68:./VCNL4010_1.h **** }
 347              		.loc 1 68 0
 348              		@ sp needed
 349 002e 10BD     		pop	{r4, pc}
 350              		.cfi_endproc
 351              	.LFE40:
 352              		.size	readAmbient_1, .-readAmbient_1
 353              		.section	.text.writeVCNL_2,"ax",%progbits
 354              		.align	2
 355              		.global	writeVCNL_2
 356              		.code	16
 357              		.thumb_func
 358              		.type	writeVCNL_2, %function
 359              	writeVCNL_2:
 360              	.LFB41:
 361              		.file 2 "./VCNL4010_2.h"
   1:./VCNL4010_2.h **** #include <project.h>
   2:./VCNL4010_2.h **** #define VCNL4010_ADDRESS 0x13
   3:./VCNL4010_2.h **** 
   4:./VCNL4010_2.h **** int ii=0;
   5:./VCNL4010_2.h **** //Send Data
   6:./VCNL4010_2.h **** void writeVCNL_2(int address, int data){
 362              		.loc 2 6 0
 363              		.cfi_startproc
 364              		@ args = 0, pretend = 0, frame = 8
 365              		@ frame_needed = 0, uses_anonymous_args = 0
 366              	.LVL45:
 367 0000 10B5     		push	{r4, lr}
 368              		.cfi_def_cfa_offset 8
 369              		.cfi_offset 4, -8
 370              		.cfi_offset 14, -4
 371 0002 82B0     		sub	sp, sp, #8
 372              		.cfi_def_cfa_offset 16
   7:./VCNL4010_2.h ****     uint8 Write_buf[2]={0};
 373              		.loc 2 7 0
 374 0004 01AC     		add	r4, sp, #4
   8:./VCNL4010_2.h ****     Write_buf[0]=address;
 375              		.loc 2 8 0
 376 0006 2070     		strb	r0, [r4]
   9:./VCNL4010_2.h ****     Write_buf[1]=data;
 377              		.loc 2 9 0
ARM GAS  C:\Users\HENRYA~1\AppData\Local\Temp\ccDgvymd.s 			page 9


 378 0008 6170     		strb	r1, [r4, #1]
  10:./VCNL4010_2.h ****     SENSOR_2_I2CMasterWriteBuf(VCNL4010_ADDRESS,(uint8 *)Write_buf,2,SENSOR_2_I2C_MODE_COMPLETE_XFE
 379              		.loc 2 10 0
 380 000a 0023     		movs	r3, #0
 381 000c 0222     		movs	r2, #2
 382 000e 2100     		movs	r1, r4
 383              	.LVL46:
 384 0010 1320     		movs	r0, #19
 385              	.LVL47:
 386 0012 FFF7FEFF 		bl	SENSOR_2_I2CMasterWriteBuf
 387              	.LVL48:
 388              	.L18:
  11:./VCNL4010_2.h ****     while((SENSOR_2_I2CMasterStatus()&SENSOR_2_I2C_MSTAT_WR_CMPLT)==0){}
 389              		.loc 2 11 0 discriminator 1
 390 0016 FFF7FEFF 		bl	SENSOR_2_I2CMasterStatus
 391              	.LVL49:
 392 001a 8307     		lsls	r3, r0, #30
 393 001c FBD5     		bpl	.L18
  12:./VCNL4010_2.h ****     return;
  13:./VCNL4010_2.h **** }
 394              		.loc 2 13 0
 395 001e 02B0     		add	sp, sp, #8
 396              		@ sp needed
 397 0020 10BD     		pop	{r4, pc}
 398              		.cfi_endproc
 399              	.LFE41:
 400              		.size	writeVCNL_2, .-writeVCNL_2
 401 0022 C046     		.section	.text.readVCNL_2,"ax",%progbits
 402              		.align	2
 403              		.global	readVCNL_2
 404              		.code	16
 405              		.thumb_func
 406              		.type	readVCNL_2, %function
 407              	readVCNL_2:
 408              	.LFB42:
  14:./VCNL4010_2.h **** //Read Data
  15:./VCNL4010_2.h **** int readVCNL_2(int address){
 409              		.loc 2 15 0
 410              		.cfi_startproc
 411              		@ args = 0, pretend = 0, frame = 8
 412              		@ frame_needed = 0, uses_anonymous_args = 0
 413              	.LVL50:
 414 0000 00B5     		push	{lr}
 415              		.cfi_def_cfa_offset 4
 416              		.cfi_offset 14, -4
 417 0002 83B0     		sub	sp, sp, #12
 418              		.cfi_def_cfa_offset 16
  16:./VCNL4010_2.h ****     uint8 Write_buf[1]={0};
 419              		.loc 2 16 0
 420 0004 01A9     		add	r1, sp, #4
  17:./VCNL4010_2.h ****     Write_buf[0]=address;
 421              		.loc 2 17 0
 422 0006 0870     		strb	r0, [r1]
  18:./VCNL4010_2.h ****     uint8 read_Buf[1]={0};
 423              		.loc 2 18 0
 424 0008 0023     		movs	r3, #0
 425 000a 6A46     		mov	r2, sp
ARM GAS  C:\Users\HENRYA~1\AppData\Local\Temp\ccDgvymd.s 			page 10


 426 000c 1370     		strb	r3, [r2]
  19:./VCNL4010_2.h ****     SENSOR_2_I2CMasterWriteBuf(VCNL4010_ADDRESS,(uint8 *)Write_buf,1,SENSOR_2_I2C_MODE_NO_STOP);
 427              		.loc 2 19 0
 428 000e 0233     		adds	r3, r3, #2
 429 0010 0122     		movs	r2, #1
 430 0012 1320     		movs	r0, #19
 431              	.LVL51:
 432 0014 FFF7FEFF 		bl	SENSOR_2_I2CMasterWriteBuf
 433              	.LVL52:
 434              	.L20:
  20:./VCNL4010_2.h ****     while((SENSOR_2_I2CMasterStatus()&SENSOR_2_I2C_MSTAT_WR_CMPLT)==0){}
 435              		.loc 2 20 0 discriminator 1
 436 0018 FFF7FEFF 		bl	SENSOR_2_I2CMasterStatus
 437              	.LVL53:
 438 001c 8307     		lsls	r3, r0, #30
 439 001e FBD5     		bpl	.L20
  21:./VCNL4010_2.h ****     SENSOR_2_I2CMasterReadBuf(VCNL4010_ADDRESS,(uint8 *)read_Buf,1,SENSOR_2_I2C_MODE_REPEAT_START);
 440              		.loc 2 21 0
 441 0020 0123     		movs	r3, #1
 442 0022 0122     		movs	r2, #1
 443 0024 6946     		mov	r1, sp
 444 0026 1320     		movs	r0, #19
 445 0028 FFF7FEFF 		bl	SENSOR_2_I2CMasterReadBuf
 446              	.LVL54:
 447              	.L21:
  22:./VCNL4010_2.h ****     while((SENSOR_2_I2CMasterStatus()&SENSOR_2_I2C_MSTAT_RD_CMPLT)==0){}
 448              		.loc 2 22 0 discriminator 1
 449 002c FFF7FEFF 		bl	SENSOR_2_I2CMasterStatus
 450              	.LVL55:
 451 0030 C307     		lsls	r3, r0, #31
 452 0032 FBD5     		bpl	.L21
  23:./VCNL4010_2.h ****     return read_Buf[0];
 453              		.loc 2 23 0
 454 0034 6B46     		mov	r3, sp
 455 0036 1878     		ldrb	r0, [r3]
  24:./VCNL4010_2.h **** }
 456              		.loc 2 24 0
 457 0038 03B0     		add	sp, sp, #12
 458              		@ sp needed
 459 003a 00BD     		pop	{pc}
 460              		.cfi_endproc
 461              	.LFE42:
 462              		.size	readVCNL_2, .-readVCNL_2
 463              		.section	.text.initVCNL_2,"ax",%progbits
 464              		.align	2
 465              		.global	initVCNL_2
 466              		.code	16
 467              		.thumb_func
 468              		.type	initVCNL_2, %function
 469              	initVCNL_2:
 470              	.LFB43:
  25:./VCNL4010_2.h **** //Init Sensor
  26:./VCNL4010_2.h **** void initVCNL_2(){
 471              		.loc 2 26 0
 472              		.cfi_startproc
 473              		@ args = 0, pretend = 0, frame = 0
 474              		@ frame_needed = 0, uses_anonymous_args = 0
ARM GAS  C:\Users\HENRYA~1\AppData\Local\Temp\ccDgvymd.s 			page 11


 475 0000 10B5     		push	{r4, lr}
 476              		.cfi_def_cfa_offset 8
 477              		.cfi_offset 4, -8
 478              		.cfi_offset 14, -4
  27:./VCNL4010_2.h ****   int temp = readVCNL_2(0x81);
 479              		.loc 2 27 0
 480 0002 8120     		movs	r0, #129
 481 0004 FFF7FEFF 		bl	readVCNL_2
 482              	.LVL56:
  28:./VCNL4010_2.h ****   if (temp != 0x21){  
 483              		.loc 2 28 0
 484 0008 2128     		cmp	r0, #33
 485 000a 0ED0     		beq	.L23
  29:./VCNL4010_2.h ****     //Led Sequence Fail
  30:./VCNL4010_2.h ****     LED_2_Write(1);
 486              		.loc 2 30 0
 487 000c 0120     		movs	r0, #1
 488              	.LVL57:
 489 000e FFF7FEFF 		bl	LED_2_Write
 490              	.LVL58:
  31:./VCNL4010_2.h ****     CyDelay(500);
 491              		.loc 2 31 0
 492 0012 FA24     		movs	r4, #250
 493 0014 6400     		lsls	r4, r4, #1
 494 0016 2000     		movs	r0, r4
 495 0018 FFF7FEFF 		bl	CyDelay
 496              	.LVL59:
  32:./VCNL4010_2.h ****     LED_2_Write(0);
 497              		.loc 2 32 0
 498 001c 0020     		movs	r0, #0
 499 001e FFF7FEFF 		bl	LED_2_Write
 500              	.LVL60:
  33:./VCNL4010_2.h ****     CyDelay(500);    
 501              		.loc 2 33 0
 502 0022 2000     		movs	r0, r4
 503 0024 FFF7FEFF 		bl	CyDelay
 504              	.LVL61:
 505 0028 1DE0     		b	.L24
 506              	.LVL62:
 507              	.L23:
  34:./VCNL4010_2.h ****   }
  35:./VCNL4010_2.h ****    else{
  36:./VCNL4010_2.h ****     //Led Sequence Sucess
  37:./VCNL4010_2.h ****     LED_2_Write(0);
 508              		.loc 2 37 0
 509 002a 0020     		movs	r0, #0
 510              	.LVL63:
 511 002c FFF7FEFF 		bl	LED_2_Write
 512              	.LVL64:
  38:./VCNL4010_2.h ****     for(ii=1;ii<5;ii++){
 513              		.loc 2 38 0
 514 0030 0122     		movs	r2, #1
 515 0032 154B     		ldr	r3, .L27
 516 0034 5A60     		str	r2, [r3, #4]
 517 0036 0FE0     		b	.L25
 518              	.L26:
  39:./VCNL4010_2.h ****         LED_2_Write(1);
ARM GAS  C:\Users\HENRYA~1\AppData\Local\Temp\ccDgvymd.s 			page 12


 519              		.loc 2 39 0 discriminator 3
 520 0038 0120     		movs	r0, #1
 521 003a FFF7FEFF 		bl	LED_2_Write
 522              	.LVL65:
  40:./VCNL4010_2.h ****         CyDelay(200);
 523              		.loc 2 40 0 discriminator 3
 524 003e C820     		movs	r0, #200
 525 0040 FFF7FEFF 		bl	CyDelay
 526              	.LVL66:
  41:./VCNL4010_2.h ****         LED_2_Write(0);
 527              		.loc 2 41 0 discriminator 3
 528 0044 0020     		movs	r0, #0
 529 0046 FFF7FEFF 		bl	LED_2_Write
 530              	.LVL67:
  42:./VCNL4010_2.h ****         CyDelay(200); 
 531              		.loc 2 42 0 discriminator 3
 532 004a C820     		movs	r0, #200
 533 004c FFF7FEFF 		bl	CyDelay
 534              	.LVL68:
  38:./VCNL4010_2.h ****         LED_2_Write(1);
 535              		.loc 2 38 0 discriminator 3
 536 0050 0D4A     		ldr	r2, .L27
 537 0052 5368     		ldr	r3, [r2, #4]
 538 0054 0133     		adds	r3, r3, #1
 539 0056 5360     		str	r3, [r2, #4]
 540              	.L25:
  38:./VCNL4010_2.h ****         LED_2_Write(1);
 541              		.loc 2 38 0 is_stmt 0 discriminator 1
 542 0058 0B4B     		ldr	r3, .L27
 543 005a 5B68     		ldr	r3, [r3, #4]
 544 005c 042B     		cmp	r3, #4
 545 005e EBDD     		ble	.L26
  43:./VCNL4010_2.h ****         }
  44:./VCNL4010_2.h ****     LED_2_Write(0);
 546              		.loc 2 44 0 is_stmt 1
 547 0060 0020     		movs	r0, #0
 548 0062 FFF7FEFF 		bl	LED_2_Write
 549              	.LVL69:
 550              	.L24:
  45:./VCNL4010_2.h ****   } 
  46:./VCNL4010_2.h ****   //VCNL Init Params
  47:./VCNL4010_2.h ****   writeVCNL_2(0x84, 0x0F); // Configures ambient light measures - Single conversion mode, 128 avera
 551              		.loc 2 47 0
 552 0066 0F21     		movs	r1, #15
 553 0068 8420     		movs	r0, #132
 554 006a FFF7FEFF 		bl	writeVCNL_2
 555              	.LVL70:
  48:./VCNL4010_2.h ****   writeVCNL_2(0x83, 20);   // sets IR current in steps of 10mA 0-200mA --> 200mA
 556              		.loc 2 48 0
 557 006e 1421     		movs	r1, #20
 558 0070 8320     		movs	r0, #131
 559 0072 FFF7FEFF 		bl	writeVCNL_2
 560              	.LVL71:
  49:./VCNL4010_2.h ****   writeVCNL_2(0x89, 0);    // Proximity IR test signal freq, 0-3 - 781.25 kHz
 561              		.loc 2 49 0
 562 0076 0021     		movs	r1, #0
 563 0078 8920     		movs	r0, #137
ARM GAS  C:\Users\HENRYA~1\AppData\Local\Temp\ccDgvymd.s 			page 13


 564 007a FFF7FEFF 		bl	writeVCNL_2
 565              	.LVL72:
  50:./VCNL4010_2.h ****   writeVCNL_2(0x8A, 0x81); // proximity modulator timing - 129, recommended by Vishay 
 566              		.loc 2 50 0
 567 007e 8121     		movs	r1, #129
 568 0080 8A20     		movs	r0, #138
 569 0082 FFF7FEFF 		bl	writeVCNL_2
 570              	.LVL73:
  51:./VCNL4010_2.h **** }
 571              		.loc 2 51 0
 572              		@ sp needed
 573 0086 10BD     		pop	{r4, pc}
 574              	.L28:
 575              		.align	2
 576              	.L27:
 577 0088 00000000 		.word	.LANCHOR0
 578              		.cfi_endproc
 579              	.LFE43:
 580              		.size	initVCNL_2, .-initVCNL_2
 581              		.section	.text.readProximity_2,"ax",%progbits
 582              		.align	2
 583              		.global	readProximity_2
 584              		.code	16
 585              		.thumb_func
 586              		.type	readProximity_2, %function
 587              	readProximity_2:
 588              	.LFB44:
  52:./VCNL4010_2.h **** //Read Distance Signal
  53:./VCNL4010_2.h **** unsigned int readProximity_2(){
 589              		.loc 2 53 0
 590              		.cfi_startproc
 591              		@ args = 0, pretend = 0, frame = 0
 592              		@ frame_needed = 0, uses_anonymous_args = 0
 593 0000 10B5     		push	{r4, lr}
 594              		.cfi_def_cfa_offset 8
 595              		.cfi_offset 4, -8
 596              		.cfi_offset 14, -4
  54:./VCNL4010_2.h ****   int temp = readVCNL_2(0x80);
 597              		.loc 2 54 0
 598 0002 8020     		movs	r0, #128
 599 0004 FFF7FEFF 		bl	readVCNL_2
 600              	.LVL74:
  55:./VCNL4010_2.h ****   writeVCNL_2(0x80, temp | 0x08);             // command the sensor to perform a proximity measure
 601              		.loc 2 55 0
 602 0008 0823     		movs	r3, #8
 603 000a 0100     		movs	r1, r0
 604 000c 1943     		orrs	r1, r3
 605 000e 8020     		movs	r0, #128
 606              	.LVL75:
 607 0010 FFF7FEFF 		bl	writeVCNL_2
 608              	.LVL76:
 609              	.L30:
  56:./VCNL4010_2.h ****   while(!(readVCNL_2(0x80)&0x20));            // Wait for the proximity data ready bit to be set
 610              		.loc 2 56 0 discriminator 1
 611 0014 8020     		movs	r0, #128
 612 0016 FFF7FEFF 		bl	readVCNL_2
 613              	.LVL77:
ARM GAS  C:\Users\HENRYA~1\AppData\Local\Temp\ccDgvymd.s 			page 14


 614 001a 8306     		lsls	r3, r0, #26
 615 001c FAD5     		bpl	.L30
  57:./VCNL4010_2.h ****   unsigned int data = readVCNL_2(0x87) << 8;
 616              		.loc 2 57 0
 617 001e 8720     		movs	r0, #135
 618 0020 FFF7FEFF 		bl	readVCNL_2
 619              	.LVL78:
 620 0024 0402     		lsls	r4, r0, #8
 621              	.LVL79:
  58:./VCNL4010_2.h ****   data |= readVCNL_2(0x88);
 622              		.loc 2 58 0
 623 0026 8820     		movs	r0, #136
 624 0028 FFF7FEFF 		bl	readVCNL_2
 625              	.LVL80:
 626 002c 2043     		orrs	r0, r4
 627              	.LVL81:
  59:./VCNL4010_2.h ****   return data;
  60:./VCNL4010_2.h **** }
 628              		.loc 2 60 0
 629              		@ sp needed
 630 002e 10BD     		pop	{r4, pc}
 631              		.cfi_endproc
 632              	.LFE44:
 633              		.size	readProximity_2, .-readProximity_2
 634              		.section	.text.readAmbient_2,"ax",%progbits
 635              		.align	2
 636              		.global	readAmbient_2
 637              		.code	16
 638              		.thumb_func
 639              		.type	readAmbient_2, %function
 640              	readAmbient_2:
 641              	.LFB45:
  61:./VCNL4010_2.h **** //Read Ambient Signal
  62:./VCNL4010_2.h **** unsigned int readAmbient_2(){
 642              		.loc 2 62 0
 643              		.cfi_startproc
 644              		@ args = 0, pretend = 0, frame = 0
 645              		@ frame_needed = 0, uses_anonymous_args = 0
 646 0000 10B5     		push	{r4, lr}
 647              		.cfi_def_cfa_offset 8
 648              		.cfi_offset 4, -8
 649              		.cfi_offset 14, -4
  63:./VCNL4010_2.h ****   int temp = readVCNL_2(0x80);
 650              		.loc 2 63 0
 651 0002 8020     		movs	r0, #128
 652 0004 FFF7FEFF 		bl	readVCNL_2
 653              	.LVL82:
  64:./VCNL4010_2.h ****   writeVCNL_2(0x80, temp | 0x10);             // command the sensor to perform ambient measure
 654              		.loc 2 64 0
 655 0008 1023     		movs	r3, #16
 656 000a 0100     		movs	r1, r0
 657 000c 1943     		orrs	r1, r3
 658 000e 8020     		movs	r0, #128
 659              	.LVL83:
 660 0010 FFF7FEFF 		bl	writeVCNL_2
 661              	.LVL84:
 662              	.L32:
ARM GAS  C:\Users\HENRYA~1\AppData\Local\Temp\ccDgvymd.s 			page 15


  65:./VCNL4010_2.h ****   while(!(readVCNL_2(0x80)&0x40));            // wait for the proximity data ready bit to be set
 663              		.loc 2 65 0 discriminator 1
 664 0014 8020     		movs	r0, #128
 665 0016 FFF7FEFF 		bl	readVCNL_2
 666              	.LVL85:
 667 001a 4306     		lsls	r3, r0, #25
 668 001c FAD5     		bpl	.L32
  66:./VCNL4010_2.h ****   unsigned int data = readVCNL_2(0x85) << 8;  
 669              		.loc 2 66 0
 670 001e 8520     		movs	r0, #133
 671 0020 FFF7FEFF 		bl	readVCNL_2
 672              	.LVL86:
 673 0024 0402     		lsls	r4, r0, #8
 674              	.LVL87:
  67:./VCNL4010_2.h ****   data |= readVCNL_2(0x86);
 675              		.loc 2 67 0
 676 0026 8620     		movs	r0, #134
 677 0028 FFF7FEFF 		bl	readVCNL_2
 678              	.LVL88:
 679 002c 2043     		orrs	r0, r4
 680              	.LVL89:
  68:./VCNL4010_2.h ****   return data;
  69:./VCNL4010_2.h **** }
 681              		.loc 2 69 0
 682              		@ sp needed
 683 002e 10BD     		pop	{r4, pc}
 684              		.cfi_endproc
 685              	.LFE45:
 686              		.size	readAmbient_2, .-readAmbient_2
 687              		.section	.text.writeVCNL_3,"ax",%progbits
 688              		.align	2
 689              		.global	writeVCNL_3
 690              		.code	16
 691              		.thumb_func
 692              		.type	writeVCNL_3, %function
 693              	writeVCNL_3:
 694              	.LFB46:
 695              		.file 3 "./VCNL4010_3.h"
   1:./VCNL4010_3.h **** #include <project.h>
   2:./VCNL4010_3.h **** #define VCNL4010_ADDRESS 0x13
   3:./VCNL4010_3.h **** 
   4:./VCNL4010_3.h **** int iii=0;
   5:./VCNL4010_3.h **** //Send Data
   6:./VCNL4010_3.h **** void writeVCNL_3(int address, int data){
 696              		.loc 3 6 0
 697              		.cfi_startproc
 698              		@ args = 0, pretend = 0, frame = 8
 699              		@ frame_needed = 0, uses_anonymous_args = 0
 700              	.LVL90:
 701 0000 10B5     		push	{r4, lr}
 702              		.cfi_def_cfa_offset 8
 703              		.cfi_offset 4, -8
 704              		.cfi_offset 14, -4
 705 0002 82B0     		sub	sp, sp, #8
 706              		.cfi_def_cfa_offset 16
   7:./VCNL4010_3.h ****     uint8 Write_buf[2]={0};
 707              		.loc 3 7 0
ARM GAS  C:\Users\HENRYA~1\AppData\Local\Temp\ccDgvymd.s 			page 16


 708 0004 01AC     		add	r4, sp, #4
   8:./VCNL4010_3.h ****     Write_buf[0]=address;
 709              		.loc 3 8 0
 710 0006 2070     		strb	r0, [r4]
   9:./VCNL4010_3.h ****     Write_buf[1]=data;
 711              		.loc 3 9 0
 712 0008 6170     		strb	r1, [r4, #1]
  10:./VCNL4010_3.h ****     SENSOR_3_I2CMasterWriteBuf(VCNL4010_ADDRESS,(uint8 *)Write_buf,2,SENSOR_3_I2C_MODE_COMPLETE_XFE
 713              		.loc 3 10 0
 714 000a 0023     		movs	r3, #0
 715 000c 0222     		movs	r2, #2
 716 000e 2100     		movs	r1, r4
 717              	.LVL91:
 718 0010 1320     		movs	r0, #19
 719              	.LVL92:
 720 0012 FFF7FEFF 		bl	SENSOR_3_I2CMasterWriteBuf
 721              	.LVL93:
 722              	.L34:
  11:./VCNL4010_3.h ****     while((SENSOR_3_I2CMasterStatus()&SENSOR_3_I2C_MSTAT_WR_CMPLT)==0){}
 723              		.loc 3 11 0 discriminator 1
 724 0016 FFF7FEFF 		bl	SENSOR_3_I2CMasterStatus
 725              	.LVL94:
 726 001a 8307     		lsls	r3, r0, #30
 727 001c FBD5     		bpl	.L34
  12:./VCNL4010_3.h ****     return;
  13:./VCNL4010_3.h **** }
 728              		.loc 3 13 0
 729 001e 02B0     		add	sp, sp, #8
 730              		@ sp needed
 731 0020 10BD     		pop	{r4, pc}
 732              		.cfi_endproc
 733              	.LFE46:
 734              		.size	writeVCNL_3, .-writeVCNL_3
 735 0022 C046     		.section	.text.readVCNL_3,"ax",%progbits
 736              		.align	2
 737              		.global	readVCNL_3
 738              		.code	16
 739              		.thumb_func
 740              		.type	readVCNL_3, %function
 741              	readVCNL_3:
 742              	.LFB47:
  14:./VCNL4010_3.h **** //Read Data
  15:./VCNL4010_3.h **** int readVCNL_3(int address){
 743              		.loc 3 15 0
 744              		.cfi_startproc
 745              		@ args = 0, pretend = 0, frame = 8
 746              		@ frame_needed = 0, uses_anonymous_args = 0
 747              	.LVL95:
 748 0000 00B5     		push	{lr}
 749              		.cfi_def_cfa_offset 4
 750              		.cfi_offset 14, -4
 751 0002 83B0     		sub	sp, sp, #12
 752              		.cfi_def_cfa_offset 16
  16:./VCNL4010_3.h ****     uint8 Write_buf[1]={0};
 753              		.loc 3 16 0
 754 0004 01A9     		add	r1, sp, #4
  17:./VCNL4010_3.h ****     Write_buf[0]=address;
ARM GAS  C:\Users\HENRYA~1\AppData\Local\Temp\ccDgvymd.s 			page 17


 755              		.loc 3 17 0
 756 0006 0870     		strb	r0, [r1]
  18:./VCNL4010_3.h ****     uint8 read_Buf[1]={0};
 757              		.loc 3 18 0
 758 0008 0023     		movs	r3, #0
 759 000a 6A46     		mov	r2, sp
 760 000c 1370     		strb	r3, [r2]
  19:./VCNL4010_3.h ****     SENSOR_3_I2CMasterWriteBuf(VCNL4010_ADDRESS,(uint8 *)Write_buf,1,SENSOR_3_I2C_MODE_NO_STOP);
 761              		.loc 3 19 0
 762 000e 0233     		adds	r3, r3, #2
 763 0010 0122     		movs	r2, #1
 764 0012 1320     		movs	r0, #19
 765              	.LVL96:
 766 0014 FFF7FEFF 		bl	SENSOR_3_I2CMasterWriteBuf
 767              	.LVL97:
 768              	.L36:
  20:./VCNL4010_3.h ****     while((SENSOR_3_I2CMasterStatus()&SENSOR_3_I2C_MSTAT_WR_CMPLT)==0){}
 769              		.loc 3 20 0 discriminator 1
 770 0018 FFF7FEFF 		bl	SENSOR_3_I2CMasterStatus
 771              	.LVL98:
 772 001c 8307     		lsls	r3, r0, #30
 773 001e FBD5     		bpl	.L36
  21:./VCNL4010_3.h ****     SENSOR_3_I2CMasterReadBuf(VCNL4010_ADDRESS,(uint8 *)read_Buf,1,SENSOR_3_I2C_MODE_REPEAT_START);
 774              		.loc 3 21 0
 775 0020 0123     		movs	r3, #1
 776 0022 0122     		movs	r2, #1
 777 0024 6946     		mov	r1, sp
 778 0026 1320     		movs	r0, #19
 779 0028 FFF7FEFF 		bl	SENSOR_3_I2CMasterReadBuf
 780              	.LVL99:
 781              	.L37:
  22:./VCNL4010_3.h ****     while((SENSOR_3_I2CMasterStatus()&SENSOR_3_I2C_MSTAT_RD_CMPLT)==0){}
 782              		.loc 3 22 0 discriminator 1
 783 002c FFF7FEFF 		bl	SENSOR_3_I2CMasterStatus
 784              	.LVL100:
 785 0030 C307     		lsls	r3, r0, #31
 786 0032 FBD5     		bpl	.L37
  23:./VCNL4010_3.h ****     return read_Buf[0];
 787              		.loc 3 23 0
 788 0034 6B46     		mov	r3, sp
 789 0036 1878     		ldrb	r0, [r3]
  24:./VCNL4010_3.h **** }
 790              		.loc 3 24 0
 791 0038 03B0     		add	sp, sp, #12
 792              		@ sp needed
 793 003a 00BD     		pop	{pc}
 794              		.cfi_endproc
 795              	.LFE47:
 796              		.size	readVCNL_3, .-readVCNL_3
 797              		.section	.text.initVCNL_3,"ax",%progbits
 798              		.align	2
 799              		.global	initVCNL_3
 800              		.code	16
 801              		.thumb_func
 802              		.type	initVCNL_3, %function
 803              	initVCNL_3:
 804              	.LFB48:
ARM GAS  C:\Users\HENRYA~1\AppData\Local\Temp\ccDgvymd.s 			page 18


  25:./VCNL4010_3.h **** //Init Sensor
  26:./VCNL4010_3.h **** void initVCNL_3(){
 805              		.loc 3 26 0
 806              		.cfi_startproc
 807              		@ args = 0, pretend = 0, frame = 0
 808              		@ frame_needed = 0, uses_anonymous_args = 0
 809 0000 10B5     		push	{r4, lr}
 810              		.cfi_def_cfa_offset 8
 811              		.cfi_offset 4, -8
 812              		.cfi_offset 14, -4
  27:./VCNL4010_3.h ****   int temp = readVCNL_3(0x81);
 813              		.loc 3 27 0
 814 0002 8120     		movs	r0, #129
 815 0004 FFF7FEFF 		bl	readVCNL_3
 816              	.LVL101:
  28:./VCNL4010_3.h ****   if (temp != 0x21){  
 817              		.loc 3 28 0
 818 0008 2128     		cmp	r0, #33
 819 000a 0ED0     		beq	.L39
  29:./VCNL4010_3.h ****     //Led Sequence Fail
  30:./VCNL4010_3.h ****     LED_3_Write(1);
 820              		.loc 3 30 0
 821 000c 0120     		movs	r0, #1
 822              	.LVL102:
 823 000e FFF7FEFF 		bl	LED_3_Write
 824              	.LVL103:
  31:./VCNL4010_3.h ****     CyDelay(500);
 825              		.loc 3 31 0
 826 0012 FA24     		movs	r4, #250
 827 0014 6400     		lsls	r4, r4, #1
 828 0016 2000     		movs	r0, r4
 829 0018 FFF7FEFF 		bl	CyDelay
 830              	.LVL104:
  32:./VCNL4010_3.h ****     LED_3_Write(0);
 831              		.loc 3 32 0
 832 001c 0020     		movs	r0, #0
 833 001e FFF7FEFF 		bl	LED_3_Write
 834              	.LVL105:
  33:./VCNL4010_3.h ****     CyDelay(500);    
 835              		.loc 3 33 0
 836 0022 2000     		movs	r0, r4
 837 0024 FFF7FEFF 		bl	CyDelay
 838              	.LVL106:
 839 0028 1DE0     		b	.L40
 840              	.LVL107:
 841              	.L39:
  34:./VCNL4010_3.h ****   }
  35:./VCNL4010_3.h ****    else{
  36:./VCNL4010_3.h ****     //Led Sequence Sucess
  37:./VCNL4010_3.h ****     LED_3_Write(0);
 842              		.loc 3 37 0
 843 002a 0020     		movs	r0, #0
 844              	.LVL108:
 845 002c FFF7FEFF 		bl	LED_3_Write
 846              	.LVL109:
  38:./VCNL4010_3.h ****     for(iii=1;iii<5;iii++){
 847              		.loc 3 38 0
ARM GAS  C:\Users\HENRYA~1\AppData\Local\Temp\ccDgvymd.s 			page 19


 848 0030 0122     		movs	r2, #1
 849 0032 154B     		ldr	r3, .L43
 850 0034 9A60     		str	r2, [r3, #8]
 851 0036 0FE0     		b	.L41
 852              	.L42:
  39:./VCNL4010_3.h ****         LED_3_Write(1);
 853              		.loc 3 39 0 discriminator 3
 854 0038 0120     		movs	r0, #1
 855 003a FFF7FEFF 		bl	LED_3_Write
 856              	.LVL110:
  40:./VCNL4010_3.h ****         CyDelay(200);
 857              		.loc 3 40 0 discriminator 3
 858 003e C820     		movs	r0, #200
 859 0040 FFF7FEFF 		bl	CyDelay
 860              	.LVL111:
  41:./VCNL4010_3.h ****         LED_3_Write(0);
 861              		.loc 3 41 0 discriminator 3
 862 0044 0020     		movs	r0, #0
 863 0046 FFF7FEFF 		bl	LED_3_Write
 864              	.LVL112:
  42:./VCNL4010_3.h ****         CyDelay(200); 
 865              		.loc 3 42 0 discriminator 3
 866 004a C820     		movs	r0, #200
 867 004c FFF7FEFF 		bl	CyDelay
 868              	.LVL113:
  38:./VCNL4010_3.h ****         LED_3_Write(1);
 869              		.loc 3 38 0 discriminator 3
 870 0050 0D4A     		ldr	r2, .L43
 871 0052 9368     		ldr	r3, [r2, #8]
 872 0054 0133     		adds	r3, r3, #1
 873 0056 9360     		str	r3, [r2, #8]
 874              	.L41:
  38:./VCNL4010_3.h ****         LED_3_Write(1);
 875              		.loc 3 38 0 is_stmt 0 discriminator 1
 876 0058 0B4B     		ldr	r3, .L43
 877 005a 9B68     		ldr	r3, [r3, #8]
 878 005c 042B     		cmp	r3, #4
 879 005e EBDD     		ble	.L42
  43:./VCNL4010_3.h ****         }
  44:./VCNL4010_3.h ****     LED_2_Write(0);
 880              		.loc 3 44 0 is_stmt 1
 881 0060 0020     		movs	r0, #0
 882 0062 FFF7FEFF 		bl	LED_2_Write
 883              	.LVL114:
 884              	.L40:
  45:./VCNL4010_3.h ****   } 
  46:./VCNL4010_3.h ****   //VCNL Init Params
  47:./VCNL4010_3.h ****   writeVCNL_3(0x84, 0x0F); // Configures ambient light measures - Single conversion mode, 128 avera
 885              		.loc 3 47 0
 886 0066 0F21     		movs	r1, #15
 887 0068 8420     		movs	r0, #132
 888 006a FFF7FEFF 		bl	writeVCNL_3
 889              	.LVL115:
  48:./VCNL4010_3.h ****   writeVCNL_3(0x83, 20);   // sets IR current in steps of 10mA 0-200mA --> 200mA
 890              		.loc 3 48 0
 891 006e 1421     		movs	r1, #20
 892 0070 8320     		movs	r0, #131
ARM GAS  C:\Users\HENRYA~1\AppData\Local\Temp\ccDgvymd.s 			page 20


 893 0072 FFF7FEFF 		bl	writeVCNL_3
 894              	.LVL116:
  49:./VCNL4010_3.h ****   writeVCNL_3(0x89, 0);    // Proximity IR test signal freq, 0-3 - 781.25 kHz
 895              		.loc 3 49 0
 896 0076 0021     		movs	r1, #0
 897 0078 8920     		movs	r0, #137
 898 007a FFF7FEFF 		bl	writeVCNL_3
 899              	.LVL117:
  50:./VCNL4010_3.h ****   writeVCNL_3(0x8A, 0x81); // proximity modulator timing - 129, recommended by Vishay 
 900              		.loc 3 50 0
 901 007e 8121     		movs	r1, #129
 902 0080 8A20     		movs	r0, #138
 903 0082 FFF7FEFF 		bl	writeVCNL_3
 904              	.LVL118:
  51:./VCNL4010_3.h **** }
 905              		.loc 3 51 0
 906              		@ sp needed
 907 0086 10BD     		pop	{r4, pc}
 908              	.L44:
 909              		.align	2
 910              	.L43:
 911 0088 00000000 		.word	.LANCHOR0
 912              		.cfi_endproc
 913              	.LFE48:
 914              		.size	initVCNL_3, .-initVCNL_3
 915              		.section	.text.readProximity_3,"ax",%progbits
 916              		.align	2
 917              		.global	readProximity_3
 918              		.code	16
 919              		.thumb_func
 920              		.type	readProximity_3, %function
 921              	readProximity_3:
 922              	.LFB49:
  52:./VCNL4010_3.h **** //Read Distance Signal
  53:./VCNL4010_3.h **** unsigned int readProximity_3(){
 923              		.loc 3 53 0
 924              		.cfi_startproc
 925              		@ args = 0, pretend = 0, frame = 0
 926              		@ frame_needed = 0, uses_anonymous_args = 0
 927 0000 10B5     		push	{r4, lr}
 928              		.cfi_def_cfa_offset 8
 929              		.cfi_offset 4, -8
 930              		.cfi_offset 14, -4
  54:./VCNL4010_3.h ****   int temp = readVCNL_3(0x80);
 931              		.loc 3 54 0
 932 0002 8020     		movs	r0, #128
 933 0004 FFF7FEFF 		bl	readVCNL_3
 934              	.LVL119:
  55:./VCNL4010_3.h ****   writeVCNL_3(0x80, temp | 0x08);             // command the sensor to perform a proximity measure
 935              		.loc 3 55 0
 936 0008 0823     		movs	r3, #8
 937 000a 0100     		movs	r1, r0
 938 000c 1943     		orrs	r1, r3
 939 000e 8020     		movs	r0, #128
 940              	.LVL120:
 941 0010 FFF7FEFF 		bl	writeVCNL_3
 942              	.LVL121:
ARM GAS  C:\Users\HENRYA~1\AppData\Local\Temp\ccDgvymd.s 			page 21


 943              	.L46:
  56:./VCNL4010_3.h ****   while(!(readVCNL_3(0x80)&0x20));            // Wait for the proximity data ready bit to be set
 944              		.loc 3 56 0 discriminator 1
 945 0014 8020     		movs	r0, #128
 946 0016 FFF7FEFF 		bl	readVCNL_3
 947              	.LVL122:
 948 001a 8306     		lsls	r3, r0, #26
 949 001c FAD5     		bpl	.L46
  57:./VCNL4010_3.h ****   unsigned int data = readVCNL_3(0x87) << 8;
 950              		.loc 3 57 0
 951 001e 8720     		movs	r0, #135
 952 0020 FFF7FEFF 		bl	readVCNL_3
 953              	.LVL123:
 954 0024 0402     		lsls	r4, r0, #8
 955              	.LVL124:
  58:./VCNL4010_3.h ****   data |= readVCNL_3(0x88);
 956              		.loc 3 58 0
 957 0026 8820     		movs	r0, #136
 958 0028 FFF7FEFF 		bl	readVCNL_3
 959              	.LVL125:
 960 002c 2043     		orrs	r0, r4
 961              	.LVL126:
  59:./VCNL4010_3.h ****   return data;
  60:./VCNL4010_3.h **** }
 962              		.loc 3 60 0
 963              		@ sp needed
 964 002e 10BD     		pop	{r4, pc}
 965              		.cfi_endproc
 966              	.LFE49:
 967              		.size	readProximity_3, .-readProximity_3
 968              		.section	.text.readAmbient_3,"ax",%progbits
 969              		.align	2
 970              		.global	readAmbient_3
 971              		.code	16
 972              		.thumb_func
 973              		.type	readAmbient_3, %function
 974              	readAmbient_3:
 975              	.LFB50:
  61:./VCNL4010_3.h **** //Read Ambient Signal
  62:./VCNL4010_3.h **** unsigned int readAmbient_3(){
 976              		.loc 3 62 0
 977              		.cfi_startproc
 978              		@ args = 0, pretend = 0, frame = 0
 979              		@ frame_needed = 0, uses_anonymous_args = 0
 980 0000 10B5     		push	{r4, lr}
 981              		.cfi_def_cfa_offset 8
 982              		.cfi_offset 4, -8
 983              		.cfi_offset 14, -4
  63:./VCNL4010_3.h ****   int temp = readVCNL_3(0x80);
 984              		.loc 3 63 0
 985 0002 8020     		movs	r0, #128
 986 0004 FFF7FEFF 		bl	readVCNL_3
 987              	.LVL127:
  64:./VCNL4010_3.h ****   writeVCNL_3(0x80, temp | 0x10);             // command the sensor to perform ambient measure
 988              		.loc 3 64 0
 989 0008 1023     		movs	r3, #16
 990 000a 0100     		movs	r1, r0
ARM GAS  C:\Users\HENRYA~1\AppData\Local\Temp\ccDgvymd.s 			page 22


 991 000c 1943     		orrs	r1, r3
 992 000e 8020     		movs	r0, #128
 993              	.LVL128:
 994 0010 FFF7FEFF 		bl	writeVCNL_3
 995              	.LVL129:
 996              	.L48:
  65:./VCNL4010_3.h ****   while(!(readVCNL_3(0x80)&0x40));            // wait for the proximity data ready bit to be set
 997              		.loc 3 65 0 discriminator 1
 998 0014 8020     		movs	r0, #128
 999 0016 FFF7FEFF 		bl	readVCNL_3
 1000              	.LVL130:
 1001 001a 4306     		lsls	r3, r0, #25
 1002 001c FAD5     		bpl	.L48
  66:./VCNL4010_3.h ****   unsigned int data = readVCNL_3(0x85) << 8;  
 1003              		.loc 3 66 0
 1004 001e 8520     		movs	r0, #133
 1005 0020 FFF7FEFF 		bl	readVCNL_3
 1006              	.LVL131:
 1007 0024 0402     		lsls	r4, r0, #8
 1008              	.LVL132:
  67:./VCNL4010_3.h ****   data |= readVCNL_3(0x86);
 1009              		.loc 3 67 0
 1010 0026 8620     		movs	r0, #134
 1011 0028 FFF7FEFF 		bl	readVCNL_3
 1012              	.LVL133:
 1013 002c 2043     		orrs	r0, r4
 1014              	.LVL134:
  68:./VCNL4010_3.h ****   return data;
  69:./VCNL4010_3.h **** }
 1015              		.loc 3 69 0
 1016              		@ sp needed
 1017 002e 10BD     		pop	{r4, pc}
 1018              		.cfi_endproc
 1019              	.LFE50:
 1020              		.size	readAmbient_3, .-readAmbient_3
 1021              		.section	.text.writeVCNL_4,"ax",%progbits
 1022              		.align	2
 1023              		.global	writeVCNL_4
 1024              		.code	16
 1025              		.thumb_func
 1026              		.type	writeVCNL_4, %function
 1027              	writeVCNL_4:
 1028              	.LFB51:
 1029              		.file 4 "./VCNL4010_4.h"
   1:./VCNL4010_4.h **** #include <project.h>
   2:./VCNL4010_4.h **** #define VCNL4010_ADDRESS 0x13
   3:./VCNL4010_4.h **** 
   4:./VCNL4010_4.h **** int iiii=0;
   5:./VCNL4010_4.h **** //Send Data
   6:./VCNL4010_4.h **** void writeVCNL_4(int address, int data){
 1030              		.loc 4 6 0
 1031              		.cfi_startproc
 1032              		@ args = 0, pretend = 0, frame = 8
 1033              		@ frame_needed = 0, uses_anonymous_args = 0
 1034              	.LVL135:
 1035 0000 10B5     		push	{r4, lr}
 1036              		.cfi_def_cfa_offset 8
ARM GAS  C:\Users\HENRYA~1\AppData\Local\Temp\ccDgvymd.s 			page 23


 1037              		.cfi_offset 4, -8
 1038              		.cfi_offset 14, -4
 1039 0002 82B0     		sub	sp, sp, #8
 1040              		.cfi_def_cfa_offset 16
   7:./VCNL4010_4.h ****     uint8 Write_buf[2]={0};
 1041              		.loc 4 7 0
 1042 0004 01AC     		add	r4, sp, #4
   8:./VCNL4010_4.h ****     Write_buf[0]=address;
 1043              		.loc 4 8 0
 1044 0006 2070     		strb	r0, [r4]
   9:./VCNL4010_4.h ****     Write_buf[1]=data;
 1045              		.loc 4 9 0
 1046 0008 6170     		strb	r1, [r4, #1]
  10:./VCNL4010_4.h ****     SENSOR_4_I2CMasterWriteBuf(VCNL4010_ADDRESS,(uint8 *)Write_buf,2,SENSOR_4_I2C_MODE_COMPLETE_XFE
 1047              		.loc 4 10 0
 1048 000a 0023     		movs	r3, #0
 1049 000c 0222     		movs	r2, #2
 1050 000e 2100     		movs	r1, r4
 1051              	.LVL136:
 1052 0010 1320     		movs	r0, #19
 1053              	.LVL137:
 1054 0012 FFF7FEFF 		bl	SENSOR_4_I2CMasterWriteBuf
 1055              	.LVL138:
 1056              	.L50:
  11:./VCNL4010_4.h ****     while((SENSOR_4_I2CMasterStatus()&SENSOR_4_I2C_MSTAT_WR_CMPLT)==0){}
 1057              		.loc 4 11 0 discriminator 1
 1058 0016 FFF7FEFF 		bl	SENSOR_4_I2CMasterStatus
 1059              	.LVL139:
 1060 001a 8307     		lsls	r3, r0, #30
 1061 001c FBD5     		bpl	.L50
  12:./VCNL4010_4.h ****     return;
  13:./VCNL4010_4.h **** }
 1062              		.loc 4 13 0
 1063 001e 02B0     		add	sp, sp, #8
 1064              		@ sp needed
 1065 0020 10BD     		pop	{r4, pc}
 1066              		.cfi_endproc
 1067              	.LFE51:
 1068              		.size	writeVCNL_4, .-writeVCNL_4
 1069 0022 C046     		.section	.text.readVCNL_4,"ax",%progbits
 1070              		.align	2
 1071              		.global	readVCNL_4
 1072              		.code	16
 1073              		.thumb_func
 1074              		.type	readVCNL_4, %function
 1075              	readVCNL_4:
 1076              	.LFB52:
  14:./VCNL4010_4.h **** //Read Data
  15:./VCNL4010_4.h **** int readVCNL_4(int address){
 1077              		.loc 4 15 0
 1078              		.cfi_startproc
 1079              		@ args = 0, pretend = 0, frame = 8
 1080              		@ frame_needed = 0, uses_anonymous_args = 0
 1081              	.LVL140:
 1082 0000 00B5     		push	{lr}
 1083              		.cfi_def_cfa_offset 4
 1084              		.cfi_offset 14, -4
ARM GAS  C:\Users\HENRYA~1\AppData\Local\Temp\ccDgvymd.s 			page 24


 1085 0002 83B0     		sub	sp, sp, #12
 1086              		.cfi_def_cfa_offset 16
  16:./VCNL4010_4.h ****     uint8 Write_buf[1]={0};
 1087              		.loc 4 16 0
 1088 0004 01A9     		add	r1, sp, #4
  17:./VCNL4010_4.h ****     Write_buf[0]=address;
 1089              		.loc 4 17 0
 1090 0006 0870     		strb	r0, [r1]
  18:./VCNL4010_4.h ****     uint8 read_Buf[1]={0};
 1091              		.loc 4 18 0
 1092 0008 0023     		movs	r3, #0
 1093 000a 6A46     		mov	r2, sp
 1094 000c 1370     		strb	r3, [r2]
  19:./VCNL4010_4.h ****     SENSOR_4_I2CMasterWriteBuf(VCNL4010_ADDRESS,(uint8 *)Write_buf,1,SENSOR_4_I2C_MODE_NO_STOP);
 1095              		.loc 4 19 0
 1096 000e 0233     		adds	r3, r3, #2
 1097 0010 0122     		movs	r2, #1
 1098 0012 1320     		movs	r0, #19
 1099              	.LVL141:
 1100 0014 FFF7FEFF 		bl	SENSOR_4_I2CMasterWriteBuf
 1101              	.LVL142:
 1102              	.L52:
  20:./VCNL4010_4.h ****     while((SENSOR_4_I2CMasterStatus()&SENSOR_4_I2C_MSTAT_WR_CMPLT)==0){}
 1103              		.loc 4 20 0 discriminator 1
 1104 0018 FFF7FEFF 		bl	SENSOR_4_I2CMasterStatus
 1105              	.LVL143:
 1106 001c 8307     		lsls	r3, r0, #30
 1107 001e FBD5     		bpl	.L52
  21:./VCNL4010_4.h ****     SENSOR_4_I2CMasterReadBuf(VCNL4010_ADDRESS,(uint8 *)read_Buf,1,SENSOR_4_I2C_MODE_REPEAT_START);
 1108              		.loc 4 21 0
 1109 0020 0123     		movs	r3, #1
 1110 0022 0122     		movs	r2, #1
 1111 0024 6946     		mov	r1, sp
 1112 0026 1320     		movs	r0, #19
 1113 0028 FFF7FEFF 		bl	SENSOR_4_I2CMasterReadBuf
 1114              	.LVL144:
 1115              	.L53:
  22:./VCNL4010_4.h ****     while((SENSOR_4_I2CMasterStatus()&SENSOR_4_I2C_MSTAT_RD_CMPLT)==0){}
 1116              		.loc 4 22 0 discriminator 1
 1117 002c FFF7FEFF 		bl	SENSOR_4_I2CMasterStatus
 1118              	.LVL145:
 1119 0030 C307     		lsls	r3, r0, #31
 1120 0032 FBD5     		bpl	.L53
  23:./VCNL4010_4.h ****     return read_Buf[0];
 1121              		.loc 4 23 0
 1122 0034 6B46     		mov	r3, sp
 1123 0036 1878     		ldrb	r0, [r3]
  24:./VCNL4010_4.h **** }
 1124              		.loc 4 24 0
 1125 0038 03B0     		add	sp, sp, #12
 1126              		@ sp needed
 1127 003a 00BD     		pop	{pc}
 1128              		.cfi_endproc
 1129              	.LFE52:
 1130              		.size	readVCNL_4, .-readVCNL_4
 1131              		.section	.text.initVCNL_4,"ax",%progbits
 1132              		.align	2
ARM GAS  C:\Users\HENRYA~1\AppData\Local\Temp\ccDgvymd.s 			page 25


 1133              		.global	initVCNL_4
 1134              		.code	16
 1135              		.thumb_func
 1136              		.type	initVCNL_4, %function
 1137              	initVCNL_4:
 1138              	.LFB53:
  25:./VCNL4010_4.h **** //Init Sensor
  26:./VCNL4010_4.h **** void initVCNL_4(){
 1139              		.loc 4 26 0
 1140              		.cfi_startproc
 1141              		@ args = 0, pretend = 0, frame = 0
 1142              		@ frame_needed = 0, uses_anonymous_args = 0
 1143 0000 10B5     		push	{r4, lr}
 1144              		.cfi_def_cfa_offset 8
 1145              		.cfi_offset 4, -8
 1146              		.cfi_offset 14, -4
  27:./VCNL4010_4.h ****   int temp = readVCNL_4(0x81);
 1147              		.loc 4 27 0
 1148 0002 8120     		movs	r0, #129
 1149 0004 FFF7FEFF 		bl	readVCNL_4
 1150              	.LVL146:
  28:./VCNL4010_4.h ****   if (temp != 0x21){  
 1151              		.loc 4 28 0
 1152 0008 2128     		cmp	r0, #33
 1153 000a 0ED0     		beq	.L55
  29:./VCNL4010_4.h ****     //Led Sequence Fail
  30:./VCNL4010_4.h ****     LED_4_Write(1);
 1154              		.loc 4 30 0
 1155 000c 0120     		movs	r0, #1
 1156              	.LVL147:
 1157 000e FFF7FEFF 		bl	LED_4_Write
 1158              	.LVL148:
  31:./VCNL4010_4.h ****     CyDelay(500);
 1159              		.loc 4 31 0
 1160 0012 FA24     		movs	r4, #250
 1161 0014 6400     		lsls	r4, r4, #1
 1162 0016 2000     		movs	r0, r4
 1163 0018 FFF7FEFF 		bl	CyDelay
 1164              	.LVL149:
  32:./VCNL4010_4.h ****     LED_4_Write(0);
 1165              		.loc 4 32 0
 1166 001c 0020     		movs	r0, #0
 1167 001e FFF7FEFF 		bl	LED_4_Write
 1168              	.LVL150:
  33:./VCNL4010_4.h ****     CyDelay(500);    
 1169              		.loc 4 33 0
 1170 0022 2000     		movs	r0, r4
 1171 0024 FFF7FEFF 		bl	CyDelay
 1172              	.LVL151:
 1173 0028 1DE0     		b	.L56
 1174              	.LVL152:
 1175              	.L55:
  34:./VCNL4010_4.h ****   }
  35:./VCNL4010_4.h ****    else{
  36:./VCNL4010_4.h ****     //Led Sequence Sucess
  37:./VCNL4010_4.h ****     LED_4_Write(0);
 1176              		.loc 4 37 0
ARM GAS  C:\Users\HENRYA~1\AppData\Local\Temp\ccDgvymd.s 			page 26


 1177 002a 0020     		movs	r0, #0
 1178              	.LVL153:
 1179 002c FFF7FEFF 		bl	LED_4_Write
 1180              	.LVL154:
  38:./VCNL4010_4.h ****     for(iiii=1;iiii<5;iiii++){
 1181              		.loc 4 38 0
 1182 0030 0122     		movs	r2, #1
 1183 0032 154B     		ldr	r3, .L59
 1184 0034 DA60     		str	r2, [r3, #12]
 1185 0036 0FE0     		b	.L57
 1186              	.L58:
  39:./VCNL4010_4.h ****         LED_4_Write(1);
 1187              		.loc 4 39 0 discriminator 3
 1188 0038 0120     		movs	r0, #1
 1189 003a FFF7FEFF 		bl	LED_4_Write
 1190              	.LVL155:
  40:./VCNL4010_4.h ****         CyDelay(200);
 1191              		.loc 4 40 0 discriminator 3
 1192 003e C820     		movs	r0, #200
 1193 0040 FFF7FEFF 		bl	CyDelay
 1194              	.LVL156:
  41:./VCNL4010_4.h ****         LED_4_Write(0);
 1195              		.loc 4 41 0 discriminator 3
 1196 0044 0020     		movs	r0, #0
 1197 0046 FFF7FEFF 		bl	LED_4_Write
 1198              	.LVL157:
  42:./VCNL4010_4.h ****         CyDelay(200); 
 1199              		.loc 4 42 0 discriminator 3
 1200 004a C820     		movs	r0, #200
 1201 004c FFF7FEFF 		bl	CyDelay
 1202              	.LVL158:
  38:./VCNL4010_4.h ****         LED_4_Write(1);
 1203              		.loc 4 38 0 discriminator 3
 1204 0050 0D4A     		ldr	r2, .L59
 1205 0052 D368     		ldr	r3, [r2, #12]
 1206 0054 0133     		adds	r3, r3, #1
 1207 0056 D360     		str	r3, [r2, #12]
 1208              	.L57:
  38:./VCNL4010_4.h ****         LED_4_Write(1);
 1209              		.loc 4 38 0 is_stmt 0 discriminator 1
 1210 0058 0B4B     		ldr	r3, .L59
 1211 005a DB68     		ldr	r3, [r3, #12]
 1212 005c 042B     		cmp	r3, #4
 1213 005e EBDD     		ble	.L58
  43:./VCNL4010_4.h ****         }
  44:./VCNL4010_4.h ****     LED_4_Write(0);
 1214              		.loc 4 44 0 is_stmt 1
 1215 0060 0020     		movs	r0, #0
 1216 0062 FFF7FEFF 		bl	LED_4_Write
 1217              	.LVL159:
 1218              	.L56:
  45:./VCNL4010_4.h ****   } 
  46:./VCNL4010_4.h ****   //VCNL Init Params
  47:./VCNL4010_4.h ****   writeVCNL_4(0x84, 0x0F); // Configures ambient light measures - Single conversion mode, 128 avera
 1219              		.loc 4 47 0
 1220 0066 0F21     		movs	r1, #15
 1221 0068 8420     		movs	r0, #132
ARM GAS  C:\Users\HENRYA~1\AppData\Local\Temp\ccDgvymd.s 			page 27


 1222 006a FFF7FEFF 		bl	writeVCNL_4
 1223              	.LVL160:
  48:./VCNL4010_4.h ****   writeVCNL_4(0x83, 20);   // sets IR current in steps of 10mA 0-200mA --> 200mA
 1224              		.loc 4 48 0
 1225 006e 1421     		movs	r1, #20
 1226 0070 8320     		movs	r0, #131
 1227 0072 FFF7FEFF 		bl	writeVCNL_4
 1228              	.LVL161:
  49:./VCNL4010_4.h ****   writeVCNL_4(0x89, 0);    // Proximity IR test signal freq, 0-3 - 781.25 kHz
 1229              		.loc 4 49 0
 1230 0076 0021     		movs	r1, #0
 1231 0078 8920     		movs	r0, #137
 1232 007a FFF7FEFF 		bl	writeVCNL_4
 1233              	.LVL162:
  50:./VCNL4010_4.h ****   writeVCNL_4(0x8A, 0x81); // proximity modulator timing - 129, recommended by Vishay 
 1234              		.loc 4 50 0
 1235 007e 8121     		movs	r1, #129
 1236 0080 8A20     		movs	r0, #138
 1237 0082 FFF7FEFF 		bl	writeVCNL_4
 1238              	.LVL163:
  51:./VCNL4010_4.h **** }
 1239              		.loc 4 51 0
 1240              		@ sp needed
 1241 0086 10BD     		pop	{r4, pc}
 1242              	.L60:
 1243              		.align	2
 1244              	.L59:
 1245 0088 00000000 		.word	.LANCHOR0
 1246              		.cfi_endproc
 1247              	.LFE53:
 1248              		.size	initVCNL_4, .-initVCNL_4
 1249              		.section	.text.readProximity_4,"ax",%progbits
 1250              		.align	2
 1251              		.global	readProximity_4
 1252              		.code	16
 1253              		.thumb_func
 1254              		.type	readProximity_4, %function
 1255              	readProximity_4:
 1256              	.LFB54:
  52:./VCNL4010_4.h **** //Read Distance Signal
  53:./VCNL4010_4.h **** unsigned int readProximity_4(){
 1257              		.loc 4 53 0
 1258              		.cfi_startproc
 1259              		@ args = 0, pretend = 0, frame = 0
 1260              		@ frame_needed = 0, uses_anonymous_args = 0
 1261 0000 10B5     		push	{r4, lr}
 1262              		.cfi_def_cfa_offset 8
 1263              		.cfi_offset 4, -8
 1264              		.cfi_offset 14, -4
  54:./VCNL4010_4.h ****   int temp = readVCNL_4(0x80);
 1265              		.loc 4 54 0
 1266 0002 8020     		movs	r0, #128
 1267 0004 FFF7FEFF 		bl	readVCNL_4
 1268              	.LVL164:
  55:./VCNL4010_4.h ****   writeVCNL_4(0x80, temp | 0x08);             // command the sensor to perform a proximity measure
 1269              		.loc 4 55 0
 1270 0008 0823     		movs	r3, #8
ARM GAS  C:\Users\HENRYA~1\AppData\Local\Temp\ccDgvymd.s 			page 28


 1271 000a 0100     		movs	r1, r0
 1272 000c 1943     		orrs	r1, r3
 1273 000e 8020     		movs	r0, #128
 1274              	.LVL165:
 1275 0010 FFF7FEFF 		bl	writeVCNL_4
 1276              	.LVL166:
 1277              	.L62:
  56:./VCNL4010_4.h ****   while(!(readVCNL_4(0x80)&0x20));            // Wait for the proximity data ready bit to be set
 1278              		.loc 4 56 0 discriminator 1
 1279 0014 8020     		movs	r0, #128
 1280 0016 FFF7FEFF 		bl	readVCNL_4
 1281              	.LVL167:
 1282 001a 8306     		lsls	r3, r0, #26
 1283 001c FAD5     		bpl	.L62
  57:./VCNL4010_4.h ****   unsigned int data = readVCNL_4(0x87) << 8;
 1284              		.loc 4 57 0
 1285 001e 8720     		movs	r0, #135
 1286 0020 FFF7FEFF 		bl	readVCNL_4
 1287              	.LVL168:
 1288 0024 0402     		lsls	r4, r0, #8
 1289              	.LVL169:
  58:./VCNL4010_4.h ****   data |= readVCNL_4(0x88);
 1290              		.loc 4 58 0
 1291 0026 8820     		movs	r0, #136
 1292 0028 FFF7FEFF 		bl	readVCNL_4
 1293              	.LVL170:
 1294 002c 2043     		orrs	r0, r4
 1295              	.LVL171:
  59:./VCNL4010_4.h ****   return data;
  60:./VCNL4010_4.h **** }
 1296              		.loc 4 60 0
 1297              		@ sp needed
 1298 002e 10BD     		pop	{r4, pc}
 1299              		.cfi_endproc
 1300              	.LFE54:
 1301              		.size	readProximity_4, .-readProximity_4
 1302              		.section	.text.readAmbient_4,"ax",%progbits
 1303              		.align	2
 1304              		.global	readAmbient_4
 1305              		.code	16
 1306              		.thumb_func
 1307              		.type	readAmbient_4, %function
 1308              	readAmbient_4:
 1309              	.LFB55:
  61:./VCNL4010_4.h **** //Read Ambient Signal
  62:./VCNL4010_4.h **** unsigned int readAmbient_4(){
 1310              		.loc 4 62 0
 1311              		.cfi_startproc
 1312              		@ args = 0, pretend = 0, frame = 0
 1313              		@ frame_needed = 0, uses_anonymous_args = 0
 1314 0000 10B5     		push	{r4, lr}
 1315              		.cfi_def_cfa_offset 8
 1316              		.cfi_offset 4, -8
 1317              		.cfi_offset 14, -4
  63:./VCNL4010_4.h ****   int temp = readVCNL_4(0x80);
 1318              		.loc 4 63 0
 1319 0002 8020     		movs	r0, #128
ARM GAS  C:\Users\HENRYA~1\AppData\Local\Temp\ccDgvymd.s 			page 29


 1320 0004 FFF7FEFF 		bl	readVCNL_4
 1321              	.LVL172:
  64:./VCNL4010_4.h ****   writeVCNL_4(0x80, temp | 0x10);             // command the sensor to perform ambient measure
 1322              		.loc 4 64 0
 1323 0008 1023     		movs	r3, #16
 1324 000a 0100     		movs	r1, r0
 1325 000c 1943     		orrs	r1, r3
 1326 000e 8020     		movs	r0, #128
 1327              	.LVL173:
 1328 0010 FFF7FEFF 		bl	writeVCNL_4
 1329              	.LVL174:
 1330              	.L64:
  65:./VCNL4010_4.h ****   while(!(readVCNL_4(0x80)&0x40));            // wait for the proximity data ready bit to be set
 1331              		.loc 4 65 0 discriminator 1
 1332 0014 8020     		movs	r0, #128
 1333 0016 FFF7FEFF 		bl	readVCNL_4
 1334              	.LVL175:
 1335 001a 4306     		lsls	r3, r0, #25
 1336 001c FAD5     		bpl	.L64
  66:./VCNL4010_4.h ****   unsigned int data = readVCNL_4(0x85) << 8;  
 1337              		.loc 4 66 0
 1338 001e 8520     		movs	r0, #133
 1339 0020 FFF7FEFF 		bl	readVCNL_4
 1340              	.LVL176:
 1341 0024 0402     		lsls	r4, r0, #8
 1342              	.LVL177:
  67:./VCNL4010_4.h ****   data |= readVCNL_4(0x86);
 1343              		.loc 4 67 0
 1344 0026 8620     		movs	r0, #134
 1345 0028 FFF7FEFF 		bl	readVCNL_4
 1346              	.LVL178:
 1347 002c 2043     		orrs	r0, r4
 1348              	.LVL179:
  68:./VCNL4010_4.h ****   return data;
  69:./VCNL4010_4.h **** }
 1349              		.loc 4 69 0
 1350              		@ sp needed
 1351 002e 10BD     		pop	{r4, pc}
 1352              		.cfi_endproc
 1353              	.LFE55:
 1354              		.size	readAmbient_4, .-readAmbient_4
 1355              		.section	.text.main,"ax",%progbits
 1356              		.align	2
 1357              		.global	main
 1358              		.code	16
 1359              		.thumb_func
 1360              		.type	main, %function
 1361              	main:
 1362              	.LFB56:
 1363              		.file 5 "main.c"
   1:main.c        **** #include <project.h>
   2:main.c        **** #include <VCNL4010_1.h>
   3:main.c        **** #include <VCNL4010_2.h>
   4:main.c        **** #include <VCNL4010_3.h>
   5:main.c        **** #include <VCNL4010_4.h>
   6:main.c        **** // If any sensor does not work the program will not start
   7:main.c        **** int16 P=0;
ARM GAS  C:\Users\HENRYA~1\AppData\Local\Temp\ccDgvymd.s 			page 30


   8:main.c        **** 
   9:main.c        **** int main()
  10:main.c        **** {
 1364              		.loc 5 10 0
 1365              		.cfi_startproc
 1366              		@ Volatile: function does not return.
 1367              		@ args = 0, pretend = 0, frame = 0
 1368              		@ frame_needed = 0, uses_anonymous_args = 0
 1369 0000 10B5     		push	{r4, lr}
 1370              		.cfi_def_cfa_offset 8
 1371              		.cfi_offset 4, -8
 1372              		.cfi_offset 14, -4
  11:main.c        ****     CyGlobalIntEnable; 
 1373              		.loc 5 11 0
 1374              		.syntax divided
 1375              	@ 11 "main.c" 1
 1376 0002 62B6     		CPSIE   i
 1377              	@ 0 "" 2
  12:main.c        ****     //Init LED's
  13:main.c        ****     LED_1_Write(0);
 1378              		.loc 5 13 0
 1379              		.thumb
 1380              		.syntax unified
 1381 0004 0020     		movs	r0, #0
 1382 0006 FFF7FEFF 		bl	LED_1_Write
 1383              	.LVL180:
  14:main.c        ****     LED_2_Write(0);
 1384              		.loc 5 14 0
 1385 000a 0020     		movs	r0, #0
 1386 000c FFF7FEFF 		bl	LED_2_Write
 1387              	.LVL181:
  15:main.c        ****     LED_3_Write(0);
 1388              		.loc 5 15 0
 1389 0010 0020     		movs	r0, #0
 1390 0012 FFF7FEFF 		bl	LED_3_Write
 1391              	.LVL182:
  16:main.c        ****     LED_4_Write(0);
 1392              		.loc 5 16 0
 1393 0016 0020     		movs	r0, #0
 1394 0018 FFF7FEFF 		bl	LED_4_Write
 1395              	.LVL183:
  17:main.c        ****     //Init Sensor's
  18:main.c        ****     SENSOR_1_Start();
 1396              		.loc 5 18 0
 1397 001c FFF7FEFF 		bl	SENSOR_1_Start
 1398              	.LVL184:
  19:main.c        ****     SENSOR_1_Enable();
 1399              		.loc 5 19 0
 1400 0020 FFF7FEFF 		bl	SENSOR_1_Enable
 1401              	.LVL185:
  20:main.c        ****     SENSOR_2_Start();
 1402              		.loc 5 20 0
 1403 0024 FFF7FEFF 		bl	SENSOR_2_Start
 1404              	.LVL186:
  21:main.c        ****     SENSOR_2_Enable();
 1405              		.loc 5 21 0
 1406 0028 FFF7FEFF 		bl	SENSOR_2_Enable
ARM GAS  C:\Users\HENRYA~1\AppData\Local\Temp\ccDgvymd.s 			page 31


 1407              	.LVL187:
  22:main.c        ****     SENSOR_3_Start();
 1408              		.loc 5 22 0
 1409 002c FFF7FEFF 		bl	SENSOR_3_Start
 1410              	.LVL188:
  23:main.c        ****     SENSOR_3_Enable();
 1411              		.loc 5 23 0
 1412 0030 FFF7FEFF 		bl	SENSOR_3_Enable
 1413              	.LVL189:
  24:main.c        ****     SENSOR_4_Start();
 1414              		.loc 5 24 0
 1415 0034 FFF7FEFF 		bl	SENSOR_4_Start
 1416              	.LVL190:
  25:main.c        ****     SENSOR_4_Enable();    
 1417              		.loc 5 25 0
 1418 0038 FFF7FEFF 		bl	SENSOR_4_Enable
 1419              	.LVL191:
  26:main.c        ****     CyDelay(100);
 1420              		.loc 5 26 0
 1421 003c 6420     		movs	r0, #100
 1422 003e FFF7FEFF 		bl	CyDelay
 1423              	.LVL192:
  27:main.c        ****     initVCNL_1();
 1424              		.loc 5 27 0
 1425 0042 FFF7FEFF 		bl	initVCNL_1
 1426              	.LVL193:
  28:main.c        ****     initVCNL_2();
 1427              		.loc 5 28 0
 1428 0046 FFF7FEFF 		bl	initVCNL_2
 1429              	.LVL194:
  29:main.c        ****     initVCNL_3();
 1430              		.loc 5 29 0
 1431 004a FFF7FEFF 		bl	initVCNL_3
 1432              	.LVL195:
  30:main.c        ****     initVCNL_4();
 1433              		.loc 5 30 0
 1434 004e FFF7FEFF 		bl	initVCNL_4
 1435              	.LVL196:
 1436              	.L66:
  31:main.c        ****     for(;;)
  32:main.c        ****     {
  33:main.c        ****         //P=readProximity_1();
  34:main.c        ****         if(P<3000){
 1437              		.loc 5 34 0
 1438 0052 1D4B     		ldr	r3, .L75
 1439 0054 1022     		movs	r2, #16
 1440 0056 9A5E     		ldrsh	r2, [r3, r2]
 1441 0058 1C4B     		ldr	r3, .L75+4
 1442 005a 9A42     		cmp	r2, r3
 1443 005c 03DC     		bgt	.L67
  35:main.c        ****             LED_1_Write(1);
 1444              		.loc 5 35 0
 1445 005e 0120     		movs	r0, #1
 1446 0060 FFF7FEFF 		bl	LED_1_Write
 1447              	.LVL197:
 1448 0064 02E0     		b	.L68
 1449              	.L67:
ARM GAS  C:\Users\HENRYA~1\AppData\Local\Temp\ccDgvymd.s 			page 32


  36:main.c        ****         }
  37:main.c        ****         else{
  38:main.c        ****             LED_1_Write(0);
 1450              		.loc 5 38 0
 1451 0066 0020     		movs	r0, #0
 1452 0068 FFF7FEFF 		bl	LED_1_Write
 1453              	.LVL198:
 1454              	.L68:
  39:main.c        ****         }
  40:main.c        ****         P=readProximity_2();
 1455              		.loc 5 40 0
 1456 006c FFF7FEFF 		bl	readProximity_2
 1457              	.LVL199:
 1458 0070 00B2     		sxth	r0, r0
 1459 0072 154B     		ldr	r3, .L75
 1460 0074 1882     		strh	r0, [r3, #16]
  41:main.c        ****         if(P<3000){
 1461              		.loc 5 41 0
 1462 0076 154B     		ldr	r3, .L75+4
 1463 0078 9842     		cmp	r0, r3
 1464 007a 03DC     		bgt	.L69
  42:main.c        ****             LED_2_Write(1);
 1465              		.loc 5 42 0
 1466 007c 0120     		movs	r0, #1
 1467 007e FFF7FEFF 		bl	LED_2_Write
 1468              	.LVL200:
 1469 0082 02E0     		b	.L70
 1470              	.L69:
  43:main.c        ****         }
  44:main.c        ****         else{
  45:main.c        ****             LED_2_Write(0);
 1471              		.loc 5 45 0
 1472 0084 0020     		movs	r0, #0
 1473 0086 FFF7FEFF 		bl	LED_2_Write
 1474              	.LVL201:
 1475              	.L70:
  46:main.c        ****         }
  47:main.c        ****         P=readProximity_3();
 1476              		.loc 5 47 0
 1477 008a FFF7FEFF 		bl	readProximity_3
 1478              	.LVL202:
 1479 008e 00B2     		sxth	r0, r0
 1480 0090 0D4B     		ldr	r3, .L75
 1481 0092 1882     		strh	r0, [r3, #16]
  48:main.c        ****         if(P<3000){
 1482              		.loc 5 48 0
 1483 0094 0D4B     		ldr	r3, .L75+4
 1484 0096 9842     		cmp	r0, r3
 1485 0098 03DC     		bgt	.L71
  49:main.c        ****             LED_3_Write(1);
 1486              		.loc 5 49 0
 1487 009a 0120     		movs	r0, #1
 1488 009c FFF7FEFF 		bl	LED_3_Write
 1489              	.LVL203:
 1490 00a0 02E0     		b	.L72
 1491              	.L71:
  50:main.c        ****         }
ARM GAS  C:\Users\HENRYA~1\AppData\Local\Temp\ccDgvymd.s 			page 33


  51:main.c        ****         else{
  52:main.c        ****             LED_3_Write(0);
 1492              		.loc 5 52 0
 1493 00a2 0020     		movs	r0, #0
 1494 00a4 FFF7FEFF 		bl	LED_3_Write
 1495              	.LVL204:
 1496              	.L72:
  53:main.c        ****         }
  54:main.c        ****         P=readProximity_4();
 1497              		.loc 5 54 0
 1498 00a8 FFF7FEFF 		bl	readProximity_4
 1499              	.LVL205:
 1500 00ac 00B2     		sxth	r0, r0
 1501 00ae 064B     		ldr	r3, .L75
 1502 00b0 1882     		strh	r0, [r3, #16]
  55:main.c        ****         if(P<3000){
 1503              		.loc 5 55 0
 1504 00b2 064B     		ldr	r3, .L75+4
 1505 00b4 9842     		cmp	r0, r3
 1506 00b6 03DC     		bgt	.L73
  56:main.c        ****             LED_4_Write(1);
 1507              		.loc 5 56 0
 1508 00b8 0120     		movs	r0, #1
 1509 00ba FFF7FEFF 		bl	LED_4_Write
 1510              	.LVL206:
 1511 00be C8E7     		b	.L66
 1512              	.L73:
  57:main.c        ****         }
  58:main.c        ****         else{
  59:main.c        ****             LED_4_Write(0);
 1513              		.loc 5 59 0
 1514 00c0 0020     		movs	r0, #0
 1515 00c2 FFF7FEFF 		bl	LED_4_Write
 1516              	.LVL207:
 1517 00c6 C4E7     		b	.L66
 1518              	.L76:
 1519              		.align	2
 1520              	.L75:
 1521 00c8 00000000 		.word	.LANCHOR0
 1522 00cc B70B0000 		.word	2999
 1523              		.cfi_endproc
 1524              	.LFE56:
 1525              		.size	main, .-main
 1526              		.global	P
 1527              		.global	iiii
 1528              		.global	iii
 1529              		.global	ii
 1530              		.global	i
 1531              		.bss
 1532              		.align	2
 1533              		.set	.LANCHOR0,. + 0
 1534              		.type	i, %object
 1535              		.size	i, 4
 1536              	i:
 1537 0000 00000000 		.space	4
 1538              		.type	ii, %object
 1539              		.size	ii, 4
ARM GAS  C:\Users\HENRYA~1\AppData\Local\Temp\ccDgvymd.s 			page 34


 1540              	ii:
 1541 0004 00000000 		.space	4
 1542              		.type	iii, %object
 1543              		.size	iii, 4
 1544              	iii:
 1545 0008 00000000 		.space	4
 1546              		.type	iiii, %object
 1547              		.size	iiii, 4
 1548              	iiii:
 1549 000c 00000000 		.space	4
 1550              		.type	P, %object
 1551              		.size	P, 2
 1552              	P:
 1553 0010 0000     		.space	2
 1554              		.text
 1555              	.Letext0:
 1556              		.file 6 "Generated_Source\\PSoC4/cytypes.h"
 1557              		.file 7 "Generated_Source\\PSoC4/SENSOR_1_I2C.h"
 1558              		.file 8 "Generated_Source\\PSoC4/LED_1.h"
 1559              		.file 9 "Generated_Source\\PSoC4/CyLib.h"
 1560              		.file 10 "Generated_Source\\PSoC4/SENSOR_2_I2C.h"
 1561              		.file 11 "Generated_Source\\PSoC4/LED_2.h"
 1562              		.file 12 "Generated_Source\\PSoC4/SENSOR_3_I2C.h"
 1563              		.file 13 "Generated_Source\\PSoC4/LED_3.h"
 1564              		.file 14 "Generated_Source\\PSoC4/SENSOR_4_I2C.h"
 1565              		.file 15 "Generated_Source\\PSoC4/LED_4.h"
 1566              		.file 16 "Generated_Source\\PSoC4/SENSOR_1.h"
 1567              		.file 17 "Generated_Source\\PSoC4/SENSOR_2.h"
 1568              		.file 18 "Generated_Source\\PSoC4/SENSOR_3.h"
 1569              		.file 19 "Generated_Source\\PSoC4/SENSOR_4.h"