ARM GAS  C:\Users\HENRYA~1\AppData\Local\Temp\ccHZJuai.s 			page 1


   1              		.syntax unified
   2              		.cpu cortex-m0
   3              		.fpu softvfp
   4              		.eabi_attribute 20, 1
   5              		.eabi_attribute 21, 1
   6              		.eabi_attribute 23, 3
   7              		.eabi_attribute 24, 1
   8              		.eabi_attribute 25, 1
   9              		.eabi_attribute 26, 1
  10              		.eabi_attribute 30, 1
  11              		.eabi_attribute 34, 0
  12              		.eabi_attribute 18, 4
  13              		.thumb
  14              		.syntax unified
  15              		.file	"main.c"
  16              		.text
  17              	.Ltext0:
  18              		.cfi_sections	.debug_frame
  19              		.section	.text.Oyente_Mail_1,"ax",%progbits
  20              		.align	2
  21              		.global	Oyente_Mail_1
  22              		.code	16
  23              		.thumb_func
  24              		.type	Oyente_Mail_1, %function
  25              	Oyente_Mail_1:
  26              	.LFB37:
  27              		.file 1 "main.c"
   1:main.c        **** //Import Libraries
   2:main.c        **** #include <project.h>
   3:main.c        **** #include <stdio.h>
   4:main.c        **** #include <math.h>
   5:main.c        **** #include <protocolo can.h>
   6:main.c        **** 
   7:main.c        **** //Global Variables
   8:main.c        **** uint8 dato_recibido;
   9:main.c        **** char publicar[6];
  10:main.c        **** char* formato=" %i";
  11:main.c        **** uint8 mailbox0[8];
  12:main.c        **** uint8 mailbox1[8];
  13:main.c        **** uint8 mailbox2[8];
  14:main.c        **** uint8 mailbox3[8];
  15:main.c        **** uint8 mailbox4[8];
  16:main.c        **** uint8 dato_enviado[8];
  17:main.c        **** uint8 dato_enviado_1[8];
  18:main.c        **** int memoria=1;
  19:main.c        **** int conta=0;
  20:main.c        **** float Amplitud_2=0.0;
  21:main.c        **** float Fase_2=0.0;
  22:main.c        **** float Offset_2=0.0;
  23:main.c        **** int Orientacion_2=V;
  24:main.c        **** 
  25:main.c        **** void Oyente_Mail_1(){
  28              		.loc 1 25 0
  29              		.cfi_startproc
  30              		@ args = 0, pretend = 0, frame = 0
  31              		@ frame_needed = 0, uses_anonymous_args = 0
  32 0000 70B5     		push	{r4, r5, r6, lr}
ARM GAS  C:\Users\HENRYA~1\AppData\Local\Temp\ccHZJuai.s 			page 2


  33              		.cfi_def_cfa_offset 16
  34              		.cfi_offset 4, -16
  35              		.cfi_offset 5, -12
  36              		.cfi_offset 6, -8
  37              		.cfi_offset 14, -4
  26:main.c        ****     XBEE_PutString("MB_0= ");
  38              		.loc 1 26 0
  39 0002 2548     		ldr	r0, .L2
  40 0004 FFF7FEFF 		bl	XBEE_PutString
  41              	.LVL0:
  27:main.c        ****     sprintf(publicar, formato, mailbox0[0]);
  42              		.loc 1 27 0
  43 0008 244E     		ldr	r6, .L2+4
  44 000a 3278     		ldrb	r2, [r6]
  45 000c 244D     		ldr	r5, .L2+8
  46 000e 254C     		ldr	r4, .L2+12
  47 0010 2968     		ldr	r1, [r5]
  48 0012 2000     		movs	r0, r4
  49 0014 FFF7FEFF 		bl	sprintf
  50              	.LVL1:
  28:main.c        ****     XBEE_PutString(publicar);
  51              		.loc 1 28 0
  52 0018 2000     		movs	r0, r4
  53 001a FFF7FEFF 		bl	XBEE_PutString
  54              	.LVL2:
  29:main.c        ****     sprintf(publicar, formato, mailbox0[1]);
  55              		.loc 1 29 0
  56 001e 7278     		ldrb	r2, [r6, #1]
  57 0020 2968     		ldr	r1, [r5]
  58 0022 2000     		movs	r0, r4
  59 0024 FFF7FEFF 		bl	sprintf
  60              	.LVL3:
  30:main.c        ****     XBEE_PutString(publicar);
  61              		.loc 1 30 0
  62 0028 2000     		movs	r0, r4
  63 002a FFF7FEFF 		bl	XBEE_PutString
  64              	.LVL4:
  31:main.c        ****     sprintf(publicar, formato, mailbox0[2]);
  65              		.loc 1 31 0
  66 002e B278     		ldrb	r2, [r6, #2]
  67 0030 2968     		ldr	r1, [r5]
  68 0032 2000     		movs	r0, r4
  69 0034 FFF7FEFF 		bl	sprintf
  70              	.LVL5:
  32:main.c        ****     XBEE_PutString(publicar);    
  71              		.loc 1 32 0
  72 0038 2000     		movs	r0, r4
  73 003a FFF7FEFF 		bl	XBEE_PutString
  74              	.LVL6:
  33:main.c        ****     sprintf(publicar, formato, mailbox0[3]);
  75              		.loc 1 33 0
  76 003e F278     		ldrb	r2, [r6, #3]
  77 0040 2968     		ldr	r1, [r5]
  78 0042 2000     		movs	r0, r4
  79 0044 FFF7FEFF 		bl	sprintf
  80              	.LVL7:
  34:main.c        ****     XBEE_PutString(publicar);    
ARM GAS  C:\Users\HENRYA~1\AppData\Local\Temp\ccHZJuai.s 			page 3


  81              		.loc 1 34 0
  82 0048 2000     		movs	r0, r4
  83 004a FFF7FEFF 		bl	XBEE_PutString
  84              	.LVL8:
  35:main.c        ****     sprintf(publicar, formato, mailbox0[4]);
  85              		.loc 1 35 0
  86 004e 3279     		ldrb	r2, [r6, #4]
  87 0050 2968     		ldr	r1, [r5]
  88 0052 2000     		movs	r0, r4
  89 0054 FFF7FEFF 		bl	sprintf
  90              	.LVL9:
  36:main.c        ****     XBEE_PutString(publicar);    
  91              		.loc 1 36 0
  92 0058 2000     		movs	r0, r4
  93 005a FFF7FEFF 		bl	XBEE_PutString
  94              	.LVL10:
  37:main.c        ****     sprintf(publicar, formato, mailbox0[5]);
  95              		.loc 1 37 0
  96 005e 7279     		ldrb	r2, [r6, #5]
  97 0060 2968     		ldr	r1, [r5]
  98 0062 2000     		movs	r0, r4
  99 0064 FFF7FEFF 		bl	sprintf
 100              	.LVL11:
  38:main.c        ****     XBEE_PutString(publicar);    
 101              		.loc 1 38 0
 102 0068 2000     		movs	r0, r4
 103 006a FFF7FEFF 		bl	XBEE_PutString
 104              	.LVL12:
  39:main.c        ****     sprintf(publicar, formato, mailbox0[6]);
 105              		.loc 1 39 0
 106 006e B279     		ldrb	r2, [r6, #6]
 107 0070 2968     		ldr	r1, [r5]
 108 0072 2000     		movs	r0, r4
 109 0074 FFF7FEFF 		bl	sprintf
 110              	.LVL13:
  40:main.c        ****     XBEE_PutString(publicar);    
 111              		.loc 1 40 0
 112 0078 2000     		movs	r0, r4
 113 007a FFF7FEFF 		bl	XBEE_PutString
 114              	.LVL14:
  41:main.c        ****     sprintf(publicar, formato, mailbox0[7]);
 115              		.loc 1 41 0
 116 007e F279     		ldrb	r2, [r6, #7]
 117 0080 2968     		ldr	r1, [r5]
 118 0082 2000     		movs	r0, r4
 119 0084 FFF7FEFF 		bl	sprintf
 120              	.LVL15:
  42:main.c        ****     XBEE_PutString(publicar); 
 121              		.loc 1 42 0
 122 0088 2000     		movs	r0, r4
 123 008a FFF7FEFF 		bl	XBEE_PutString
 124              	.LVL16:
  43:main.c        ****     XBEE_PutCRLF(0);
 125              		.loc 1 43 0
 126 008e 0020     		movs	r0, #0
 127 0090 FFF7FEFF 		bl	XBEE_PutCRLF
 128              	.LVL17:
ARM GAS  C:\Users\HENRYA~1\AppData\Local\Temp\ccHZJuai.s 			page 4


  44:main.c        **** }
 129              		.loc 1 44 0
 130              		@ sp needed
 131 0094 70BD     		pop	{r4, r5, r6, pc}
 132              	.L3:
 133 0096 C046     		.align	2
 134              	.L2:
 135 0098 00000000 		.word	.LC0
 136 009c 00000000 		.word	mailbox0
 137 00a0 00000000 		.word	.LANCHOR0
 138 00a4 00000000 		.word	publicar
 139              		.cfi_endproc
 140              	.LFE37:
 141              		.size	Oyente_Mail_1, .-Oyente_Mail_1
 142              		.section	.text.Oyente_Mail_2,"ax",%progbits
 143              		.align	2
 144              		.global	Oyente_Mail_2
 145              		.code	16
 146              		.thumb_func
 147              		.type	Oyente_Mail_2, %function
 148              	Oyente_Mail_2:
 149              	.LFB38:
  45:main.c        **** 
  46:main.c        **** void Oyente_Mail_2(){
 150              		.loc 1 46 0
 151              		.cfi_startproc
 152              		@ args = 0, pretend = 0, frame = 0
 153              		@ frame_needed = 0, uses_anonymous_args = 0
 154 0000 70B5     		push	{r4, r5, r6, lr}
 155              		.cfi_def_cfa_offset 16
 156              		.cfi_offset 4, -16
 157              		.cfi_offset 5, -12
 158              		.cfi_offset 6, -8
 159              		.cfi_offset 14, -4
  47:main.c        ****     XBEE_PutString("MB_1= ");
 160              		.loc 1 47 0
 161 0002 2548     		ldr	r0, .L5
 162 0004 FFF7FEFF 		bl	XBEE_PutString
 163              	.LVL18:
  48:main.c        ****     sprintf(publicar, formato, mailbox1[0]);
 164              		.loc 1 48 0
 165 0008 244E     		ldr	r6, .L5+4
 166 000a 3278     		ldrb	r2, [r6]
 167 000c 244D     		ldr	r5, .L5+8
 168 000e 254C     		ldr	r4, .L5+12
 169 0010 2968     		ldr	r1, [r5]
 170 0012 2000     		movs	r0, r4
 171 0014 FFF7FEFF 		bl	sprintf
 172              	.LVL19:
  49:main.c        ****     XBEE_PutString(publicar);
 173              		.loc 1 49 0
 174 0018 2000     		movs	r0, r4
 175 001a FFF7FEFF 		bl	XBEE_PutString
 176              	.LVL20:
  50:main.c        ****     sprintf(publicar, formato, mailbox1[1]);
 177              		.loc 1 50 0
 178 001e 7278     		ldrb	r2, [r6, #1]
ARM GAS  C:\Users\HENRYA~1\AppData\Local\Temp\ccHZJuai.s 			page 5


 179 0020 2968     		ldr	r1, [r5]
 180 0022 2000     		movs	r0, r4
 181 0024 FFF7FEFF 		bl	sprintf
 182              	.LVL21:
  51:main.c        ****     XBEE_PutString(publicar);
 183              		.loc 1 51 0
 184 0028 2000     		movs	r0, r4
 185 002a FFF7FEFF 		bl	XBEE_PutString
 186              	.LVL22:
  52:main.c        ****     sprintf(publicar, formato, mailbox1[2]);
 187              		.loc 1 52 0
 188 002e B278     		ldrb	r2, [r6, #2]
 189 0030 2968     		ldr	r1, [r5]
 190 0032 2000     		movs	r0, r4
 191 0034 FFF7FEFF 		bl	sprintf
 192              	.LVL23:
  53:main.c        ****     XBEE_PutString(publicar);    
 193              		.loc 1 53 0
 194 0038 2000     		movs	r0, r4
 195 003a FFF7FEFF 		bl	XBEE_PutString
 196              	.LVL24:
  54:main.c        ****     sprintf(publicar, formato, mailbox1[3]);
 197              		.loc 1 54 0
 198 003e F278     		ldrb	r2, [r6, #3]
 199 0040 2968     		ldr	r1, [r5]
 200 0042 2000     		movs	r0, r4
 201 0044 FFF7FEFF 		bl	sprintf
 202              	.LVL25:
  55:main.c        ****     XBEE_PutString(publicar);    
 203              		.loc 1 55 0
 204 0048 2000     		movs	r0, r4
 205 004a FFF7FEFF 		bl	XBEE_PutString
 206              	.LVL26:
  56:main.c        ****     sprintf(publicar, formato, mailbox1[4]);
 207              		.loc 1 56 0
 208 004e 3279     		ldrb	r2, [r6, #4]
 209 0050 2968     		ldr	r1, [r5]
 210 0052 2000     		movs	r0, r4
 211 0054 FFF7FEFF 		bl	sprintf
 212              	.LVL27:
  57:main.c        ****     XBEE_PutString(publicar);    
 213              		.loc 1 57 0
 214 0058 2000     		movs	r0, r4
 215 005a FFF7FEFF 		bl	XBEE_PutString
 216              	.LVL28:
  58:main.c        ****     sprintf(publicar, formato, mailbox1[5]);
 217              		.loc 1 58 0
 218 005e 7279     		ldrb	r2, [r6, #5]
 219 0060 2968     		ldr	r1, [r5]
 220 0062 2000     		movs	r0, r4
 221 0064 FFF7FEFF 		bl	sprintf
 222              	.LVL29:
  59:main.c        ****     XBEE_PutString(publicar);    
 223              		.loc 1 59 0
 224 0068 2000     		movs	r0, r4
 225 006a FFF7FEFF 		bl	XBEE_PutString
 226              	.LVL30:
ARM GAS  C:\Users\HENRYA~1\AppData\Local\Temp\ccHZJuai.s 			page 6


  60:main.c        ****     sprintf(publicar, formato, mailbox1[6]);
 227              		.loc 1 60 0
 228 006e B279     		ldrb	r2, [r6, #6]
 229 0070 2968     		ldr	r1, [r5]
 230 0072 2000     		movs	r0, r4
 231 0074 FFF7FEFF 		bl	sprintf
 232              	.LVL31:
  61:main.c        ****     XBEE_PutString(publicar);    
 233              		.loc 1 61 0
 234 0078 2000     		movs	r0, r4
 235 007a FFF7FEFF 		bl	XBEE_PutString
 236              	.LVL32:
  62:main.c        ****     sprintf(publicar, formato, mailbox1[7]);
 237              		.loc 1 62 0
 238 007e F279     		ldrb	r2, [r6, #7]
 239 0080 2968     		ldr	r1, [r5]
 240 0082 2000     		movs	r0, r4
 241 0084 FFF7FEFF 		bl	sprintf
 242              	.LVL33:
  63:main.c        ****     XBEE_PutString(publicar); 
 243              		.loc 1 63 0
 244 0088 2000     		movs	r0, r4
 245 008a FFF7FEFF 		bl	XBEE_PutString
 246              	.LVL34:
  64:main.c        ****     XBEE_PutCRLF(0);     
 247              		.loc 1 64 0
 248 008e 0020     		movs	r0, #0
 249 0090 FFF7FEFF 		bl	XBEE_PutCRLF
 250              	.LVL35:
  65:main.c        **** }
 251              		.loc 1 65 0
 252              		@ sp needed
 253 0094 70BD     		pop	{r4, r5, r6, pc}
 254              	.L6:
 255 0096 C046     		.align	2
 256              	.L5:
 257 0098 08000000 		.word	.LC5
 258 009c 00000000 		.word	mailbox1
 259 00a0 00000000 		.word	.LANCHOR0
 260 00a4 00000000 		.word	publicar
 261              		.cfi_endproc
 262              	.LFE38:
 263              		.size	Oyente_Mail_2, .-Oyente_Mail_2
 264              		.section	.text.Oyente_Mail_3,"ax",%progbits
 265              		.align	2
 266              		.global	Oyente_Mail_3
 267              		.code	16
 268              		.thumb_func
 269              		.type	Oyente_Mail_3, %function
 270              	Oyente_Mail_3:
 271              	.LFB39:
  66:main.c        **** 
  67:main.c        **** void Oyente_Mail_3(){
 272              		.loc 1 67 0
 273              		.cfi_startproc
 274              		@ args = 0, pretend = 0, frame = 0
 275              		@ frame_needed = 0, uses_anonymous_args = 0
ARM GAS  C:\Users\HENRYA~1\AppData\Local\Temp\ccHZJuai.s 			page 7


 276 0000 70B5     		push	{r4, r5, r6, lr}
 277              		.cfi_def_cfa_offset 16
 278              		.cfi_offset 4, -16
 279              		.cfi_offset 5, -12
 280              		.cfi_offset 6, -8
 281              		.cfi_offset 14, -4
  68:main.c        ****     XBEE_PutString("MB_3= ");
 282              		.loc 1 68 0
 283 0002 2548     		ldr	r0, .L8
 284 0004 FFF7FEFF 		bl	XBEE_PutString
 285              	.LVL36:
  69:main.c        ****     sprintf(publicar, formato, mailbox2[0]);
 286              		.loc 1 69 0
 287 0008 244E     		ldr	r6, .L8+4
 288 000a 3278     		ldrb	r2, [r6]
 289 000c 244D     		ldr	r5, .L8+8
 290 000e 254C     		ldr	r4, .L8+12
 291 0010 2968     		ldr	r1, [r5]
 292 0012 2000     		movs	r0, r4
 293 0014 FFF7FEFF 		bl	sprintf
 294              	.LVL37:
  70:main.c        ****     XBEE_PutString(publicar);
 295              		.loc 1 70 0
 296 0018 2000     		movs	r0, r4
 297 001a FFF7FEFF 		bl	XBEE_PutString
 298              	.LVL38:
  71:main.c        ****     sprintf(publicar, formato, mailbox2[1]);
 299              		.loc 1 71 0
 300 001e 7278     		ldrb	r2, [r6, #1]
 301 0020 2968     		ldr	r1, [r5]
 302 0022 2000     		movs	r0, r4
 303 0024 FFF7FEFF 		bl	sprintf
 304              	.LVL39:
  72:main.c        ****     XBEE_PutString(publicar);
 305              		.loc 1 72 0
 306 0028 2000     		movs	r0, r4
 307 002a FFF7FEFF 		bl	XBEE_PutString
 308              	.LVL40:
  73:main.c        ****     sprintf(publicar, formato, mailbox2[2]);
 309              		.loc 1 73 0
 310 002e B278     		ldrb	r2, [r6, #2]
 311 0030 2968     		ldr	r1, [r5]
 312 0032 2000     		movs	r0, r4
 313 0034 FFF7FEFF 		bl	sprintf
 314              	.LVL41:
  74:main.c        ****     XBEE_PutString(publicar);    
 315              		.loc 1 74 0
 316 0038 2000     		movs	r0, r4
 317 003a FFF7FEFF 		bl	XBEE_PutString
 318              	.LVL42:
  75:main.c        ****     sprintf(publicar, formato, mailbox2[3]);
 319              		.loc 1 75 0
 320 003e F278     		ldrb	r2, [r6, #3]
 321 0040 2968     		ldr	r1, [r5]
 322 0042 2000     		movs	r0, r4
 323 0044 FFF7FEFF 		bl	sprintf
 324              	.LVL43:
ARM GAS  C:\Users\HENRYA~1\AppData\Local\Temp\ccHZJuai.s 			page 8


  76:main.c        ****     XBEE_PutString(publicar);    
 325              		.loc 1 76 0
 326 0048 2000     		movs	r0, r4
 327 004a FFF7FEFF 		bl	XBEE_PutString
 328              	.LVL44:
  77:main.c        ****     sprintf(publicar, formato, mailbox2[4]);
 329              		.loc 1 77 0
 330 004e 3279     		ldrb	r2, [r6, #4]
 331 0050 2968     		ldr	r1, [r5]
 332 0052 2000     		movs	r0, r4
 333 0054 FFF7FEFF 		bl	sprintf
 334              	.LVL45:
  78:main.c        ****     XBEE_PutString(publicar);    
 335              		.loc 1 78 0
 336 0058 2000     		movs	r0, r4
 337 005a FFF7FEFF 		bl	XBEE_PutString
 338              	.LVL46:
  79:main.c        ****     sprintf(publicar, formato, mailbox2[5]);
 339              		.loc 1 79 0
 340 005e 7279     		ldrb	r2, [r6, #5]
 341 0060 2968     		ldr	r1, [r5]
 342 0062 2000     		movs	r0, r4
 343 0064 FFF7FEFF 		bl	sprintf
 344              	.LVL47:
  80:main.c        ****     XBEE_PutString(publicar);    
 345              		.loc 1 80 0
 346 0068 2000     		movs	r0, r4
 347 006a FFF7FEFF 		bl	XBEE_PutString
 348              	.LVL48:
  81:main.c        ****     sprintf(publicar, formato, mailbox2[6]);
 349              		.loc 1 81 0
 350 006e B279     		ldrb	r2, [r6, #6]
 351 0070 2968     		ldr	r1, [r5]
 352 0072 2000     		movs	r0, r4
 353 0074 FFF7FEFF 		bl	sprintf
 354              	.LVL49:
  82:main.c        ****     XBEE_PutString(publicar);    
 355              		.loc 1 82 0
 356 0078 2000     		movs	r0, r4
 357 007a FFF7FEFF 		bl	XBEE_PutString
 358              	.LVL50:
  83:main.c        ****     sprintf(publicar, formato, mailbox2[7]);
 359              		.loc 1 83 0
 360 007e F279     		ldrb	r2, [r6, #7]
 361 0080 2968     		ldr	r1, [r5]
 362 0082 2000     		movs	r0, r4
 363 0084 FFF7FEFF 		bl	sprintf
 364              	.LVL51:
  84:main.c        ****     XBEE_PutString(publicar); 
 365              		.loc 1 84 0
 366 0088 2000     		movs	r0, r4
 367 008a FFF7FEFF 		bl	XBEE_PutString
 368              	.LVL52:
  85:main.c        ****     XBEE_PutCRLF(0);     
 369              		.loc 1 85 0
 370 008e 0020     		movs	r0, #0
 371 0090 FFF7FEFF 		bl	XBEE_PutCRLF
ARM GAS  C:\Users\HENRYA~1\AppData\Local\Temp\ccHZJuai.s 			page 9


 372              	.LVL53:
  86:main.c        **** }
 373              		.loc 1 86 0
 374              		@ sp needed
 375 0094 70BD     		pop	{r4, r5, r6, pc}
 376              	.L9:
 377 0096 C046     		.align	2
 378              	.L8:
 379 0098 10000000 		.word	.LC10
 380 009c 00000000 		.word	mailbox2
 381 00a0 00000000 		.word	.LANCHOR0
 382 00a4 00000000 		.word	publicar
 383              		.cfi_endproc
 384              	.LFE39:
 385              		.size	Oyente_Mail_3, .-Oyente_Mail_3
 386              		.section	.text.Oyente_Mail_4,"ax",%progbits
 387              		.align	2
 388              		.global	Oyente_Mail_4
 389              		.code	16
 390              		.thumb_func
 391              		.type	Oyente_Mail_4, %function
 392              	Oyente_Mail_4:
 393              	.LFB40:
  87:main.c        **** 
  88:main.c        **** void Oyente_Mail_4(){
 394              		.loc 1 88 0
 395              		.cfi_startproc
 396              		@ args = 0, pretend = 0, frame = 0
 397              		@ frame_needed = 0, uses_anonymous_args = 0
 398 0000 70B5     		push	{r4, r5, r6, lr}
 399              		.cfi_def_cfa_offset 16
 400              		.cfi_offset 4, -16
 401              		.cfi_offset 5, -12
 402              		.cfi_offset 6, -8
 403              		.cfi_offset 14, -4
  89:main.c        ****     sprintf(publicar, formato, mailbox3[0]);
 404              		.loc 1 89 0
 405 0002 0B4E     		ldr	r6, .L11
 406 0004 3278     		ldrb	r2, [r6]
 407 0006 0B4D     		ldr	r5, .L11+4
 408 0008 0B4C     		ldr	r4, .L11+8
 409 000a 2968     		ldr	r1, [r5]
 410 000c 2000     		movs	r0, r4
 411 000e FFF7FEFF 		bl	sprintf
 412              	.LVL54:
  90:main.c        ****     XBEE_PutString(publicar);
 413              		.loc 1 90 0
 414 0012 2000     		movs	r0, r4
 415 0014 FFF7FEFF 		bl	XBEE_PutString
 416              	.LVL55:
  91:main.c        ****     sprintf(publicar, formato, mailbox3[1]);
 417              		.loc 1 91 0
 418 0018 7278     		ldrb	r2, [r6, #1]
 419 001a 2968     		ldr	r1, [r5]
 420 001c 2000     		movs	r0, r4
 421 001e FFF7FEFF 		bl	sprintf
 422              	.LVL56:
ARM GAS  C:\Users\HENRYA~1\AppData\Local\Temp\ccHZJuai.s 			page 10


  92:main.c        ****     XBEE_PutString(publicar);
 423              		.loc 1 92 0
 424 0022 2000     		movs	r0, r4
 425 0024 FFF7FEFF 		bl	XBEE_PutString
 426              	.LVL57:
  93:main.c        ****     XBEE_PutCRLF(0); 
 427              		.loc 1 93 0
 428 0028 0020     		movs	r0, #0
 429 002a FFF7FEFF 		bl	XBEE_PutCRLF
 430              	.LVL58:
  94:main.c        **** }
 431              		.loc 1 94 0
 432              		@ sp needed
 433 002e 70BD     		pop	{r4, r5, r6, pc}
 434              	.L12:
 435              		.align	2
 436              	.L11:
 437 0030 00000000 		.word	mailbox3
 438 0034 00000000 		.word	.LANCHOR0
 439 0038 00000000 		.word	publicar
 440              		.cfi_endproc
 441              	.LFE40:
 442              		.size	Oyente_Mail_4, .-Oyente_Mail_4
 443              		.section	.text.Oyente_Mail_5,"ax",%progbits
 444              		.align	2
 445              		.global	Oyente_Mail_5
 446              		.code	16
 447              		.thumb_func
 448              		.type	Oyente_Mail_5, %function
 449              	Oyente_Mail_5:
 450              	.LFB41:
  95:main.c        **** 
  96:main.c        **** void Oyente_Mail_5(){
 451              		.loc 1 96 0
 452              		.cfi_startproc
 453              		@ args = 0, pretend = 0, frame = 0
 454              		@ frame_needed = 0, uses_anonymous_args = 0
 455 0000 70B5     		push	{r4, r5, r6, lr}
 456              		.cfi_def_cfa_offset 16
 457              		.cfi_offset 4, -16
 458              		.cfi_offset 5, -12
 459              		.cfi_offset 6, -8
 460              		.cfi_offset 14, -4
  97:main.c        ****     sprintf(publicar, formato, mailbox4[0]);
 461              		.loc 1 97 0
 462 0002 0F4E     		ldr	r6, .L14
 463 0004 3278     		ldrb	r2, [r6]
 464 0006 0F4D     		ldr	r5, .L14+4
 465 0008 0F4C     		ldr	r4, .L14+8
 466 000a 2968     		ldr	r1, [r5]
 467 000c 2000     		movs	r0, r4
 468 000e FFF7FEFF 		bl	sprintf
 469              	.LVL59:
  98:main.c        ****     XBEE_PutString(publicar);
 470              		.loc 1 98 0
 471 0012 2000     		movs	r0, r4
 472 0014 FFF7FEFF 		bl	XBEE_PutString
ARM GAS  C:\Users\HENRYA~1\AppData\Local\Temp\ccHZJuai.s 			page 11


 473              	.LVL60:
  99:main.c        ****     sprintf(publicar, formato, mailbox4[1]);
 474              		.loc 1 99 0
 475 0018 7278     		ldrb	r2, [r6, #1]
 476 001a 2968     		ldr	r1, [r5]
 477 001c 2000     		movs	r0, r4
 478 001e FFF7FEFF 		bl	sprintf
 479              	.LVL61:
 100:main.c        ****     XBEE_PutString(publicar);
 480              		.loc 1 100 0
 481 0022 2000     		movs	r0, r4
 482 0024 FFF7FEFF 		bl	XBEE_PutString
 483              	.LVL62:
 101:main.c        ****     sprintf(publicar, formato, mailbox4[2]);
 484              		.loc 1 101 0
 485 0028 B278     		ldrb	r2, [r6, #2]
 486 002a 2968     		ldr	r1, [r5]
 487 002c 2000     		movs	r0, r4
 488 002e FFF7FEFF 		bl	sprintf
 489              	.LVL63:
 102:main.c        ****     XBEE_PutString(publicar);
 490              		.loc 1 102 0
 491 0032 2000     		movs	r0, r4
 492 0034 FFF7FEFF 		bl	XBEE_PutString
 493              	.LVL64:
 103:main.c        ****     XBEE_PutCRLF(0); 
 494              		.loc 1 103 0
 495 0038 0020     		movs	r0, #0
 496 003a FFF7FEFF 		bl	XBEE_PutCRLF
 497              	.LVL65:
 104:main.c        **** }
 498              		.loc 1 104 0
 499              		@ sp needed
 500 003e 70BD     		pop	{r4, r5, r6, pc}
 501              	.L15:
 502              		.align	2
 503              	.L14:
 504 0040 00000000 		.word	mailbox4
 505 0044 00000000 		.word	.LANCHOR0
 506 0048 00000000 		.word	publicar
 507              		.cfi_endproc
 508              	.LFE41:
 509              		.size	Oyente_Mail_5, .-Oyente_Mail_5
 510              		.section	.text.interrutcan,"ax",%progbits
 511              		.align	2
 512              		.global	interrutcan
 513              		.code	16
 514              		.thumb_func
 515              		.type	interrutcan, %function
 516              	interrutcan:
 517              	.LFB42:
 105:main.c        **** 
 106:main.c        **** CY_ISR(interrutcan){
 518              		.loc 1 106 0
 519              		.cfi_startproc
 520              		@ args = 0, pretend = 0, frame = 0
 521              		@ frame_needed = 0, uses_anonymous_args = 0
ARM GAS  C:\Users\HENRYA~1\AppData\Local\Temp\ccHZJuai.s 			page 12


 522 0000 10B5     		push	{r4, lr}
 523              		.cfi_def_cfa_offset 8
 524              		.cfi_offset 4, -8
 525              		.cfi_offset 14, -4
 107:main.c        ****     LED_1_Write(1);
 526              		.loc 1 107 0
 527 0002 0120     		movs	r0, #1
 528 0004 FFF7FEFF 		bl	LED_1_Write
 529              	.LVL66:
 108:main.c        ****     CyGlobalIntDisable;
 530              		.loc 1 108 0
 531              		.syntax divided
 532              	@ 108 "main.c" 1
 533 0008 72B6     		CPSID   i
 534              	@ 0 "" 2
 109:main.c        ****     CAN_GlobalIntDisable();
 535              		.loc 1 109 0
 536              		.thumb
 537              		.syntax unified
 538 000a FFF7FEFF 		bl	CAN_GlobalIntDisable
 539              	.LVL67:
 110:main.c        ****     CAN_MsgRXIsr();   
 540              		.loc 1 110 0
 541 000e FFF7FEFF 		bl	CAN_MsgRXIsr
 542              	.LVL68:
 111:main.c        ****    // Oyente_Mail_1();
 112:main.c        ****    // Oyente_Mail_2(); 
 113:main.c        ****     Oyente_Mail_3();
 543              		.loc 1 113 0
 544 0012 FFF7FEFF 		bl	Oyente_Mail_3
 545              	.LVL69:
 114:main.c        ****    // Oyente_Mail_4();
 115:main.c        ****     Oyente_Mail_5();
 546              		.loc 1 115 0
 547 0016 FFF7FEFF 		bl	Oyente_Mail_5
 548              	.LVL70:
 116:main.c        ****     CAN_GlobalIntEnable();
 549              		.loc 1 116 0
 550 001a FFF7FEFF 		bl	CAN_GlobalIntEnable
 551              	.LVL71:
 117:main.c        ****     CyGlobalIntEnable;
 552              		.loc 1 117 0
 553              		.syntax divided
 554              	@ 117 "main.c" 1
 555 001e 62B6     		CPSIE   i
 556              	@ 0 "" 2
 118:main.c        ****     LED_1_Write(0);
 557              		.loc 1 118 0
 558              		.thumb
 559              		.syntax unified
 560 0020 0020     		movs	r0, #0
 561 0022 FFF7FEFF 		bl	LED_1_Write
 562              	.LVL72:
 119:main.c        **** }
 563              		.loc 1 119 0
 564              		@ sp needed
 565 0026 10BD     		pop	{r4, pc}
ARM GAS  C:\Users\HENRYA~1\AppData\Local\Temp\ccHZJuai.s 			page 13


 566              		.cfi_endproc
 567              	.LFE42:
 568              		.size	interrutcan, .-interrutcan
 569              		.global	__aeabi_fmul
 570              		.global	__aeabi_f2iz
 571              		.global	__aeabi_fcmplt
 572              		.section	.text.Enviar_Parametros,"ax",%progbits
 573              		.align	2
 574              		.global	Enviar_Parametros
 575              		.code	16
 576              		.thumb_func
 577              		.type	Enviar_Parametros, %function
 578              	Enviar_Parametros:
 579              	.LFB43:
 120:main.c        **** 
 121:main.c        **** void Enviar_Parametros(float Amplitud,float Phase,float Offset,int Orientacion){
 580              		.loc 1 121 0
 581              		.cfi_startproc
 582              		@ args = 0, pretend = 0, frame = 16
 583              		@ frame_needed = 0, uses_anonymous_args = 0
 584              	.LVL73:
 585 0000 F0B5     		push	{r4, r5, r6, r7, lr}
 586              		.cfi_def_cfa_offset 20
 587              		.cfi_offset 4, -20
 588              		.cfi_offset 5, -16
 589              		.cfi_offset 6, -12
 590              		.cfi_offset 7, -8
 591              		.cfi_offset 14, -4
 592 0002 85B0     		sub	sp, sp, #20
 593              		.cfi_def_cfa_offset 40
 594 0004 0190     		str	r0, [sp, #4]
 595 0006 0291     		str	r1, [sp, #8]
 596 0008 0392     		str	r2, [sp, #12]
 597 000a 1F00     		movs	r7, r3
 122:main.c        ****     //Convertir el Valor a entero para ser enviado
 123:main.c        ****     int Amp_env=(int)fabs(Amplitud*10000);
 598              		.loc 1 123 0
 599 000c 2749     		ldr	r1, .L27
 600              	.LVL74:
 601 000e FFF7FEFF 		bl	__aeabi_fmul
 602              	.LVL75:
 603 0012 4000     		lsls	r0, r0, #1
 604 0014 4008     		lsrs	r0, r0, #1
 605 0016 FFF7FEFF 		bl	__aeabi_f2iz
 606              	.LVL76:
 607 001a 0600     		movs	r6, r0
 608              	.LVL77:
 124:main.c        ****     int Phase_env=(int)fabs(Phase*10000);
 609              		.loc 1 124 0
 610 001c 2349     		ldr	r1, .L27
 611 001e 0298     		ldr	r0, [sp, #8]
 612              	.LVL78:
 613 0020 FFF7FEFF 		bl	__aeabi_fmul
 614              	.LVL79:
 615 0024 4000     		lsls	r0, r0, #1
 616 0026 4008     		lsrs	r0, r0, #1
 617 0028 FFF7FEFF 		bl	__aeabi_f2iz
ARM GAS  C:\Users\HENRYA~1\AppData\Local\Temp\ccHZJuai.s 			page 14


 618              	.LVL80:
 619 002c 0500     		movs	r5, r0
 620              	.LVL81:
 125:main.c        ****     int Offset_env=(int)fabs(Offset*10000);
 621              		.loc 1 125 0
 622 002e 1F49     		ldr	r1, .L27
 623 0030 0398     		ldr	r0, [sp, #12]
 624              	.LVL82:
 625 0032 FFF7FEFF 		bl	__aeabi_fmul
 626              	.LVL83:
 627 0036 4000     		lsls	r0, r0, #1
 628 0038 4008     		lsrs	r0, r0, #1
 629 003a FFF7FEFF 		bl	__aeabi_f2iz
 630              	.LVL84:
 631 003e 0400     		movs	r4, r0
 632              	.LVL85:
 126:main.c        ****     //Enviar datos
 127:main.c        ****     dato_enviado_1[0]=VER_M1;
 633              		.loc 1 127 0
 634 0040 1B4B     		ldr	r3, .L27+4
 635 0042 8122     		movs	r2, #129
 636 0044 1A70     		strb	r2, [r3]
 128:main.c        ****     dato_enviado_1[1]=Orientacion;
 637              		.loc 1 128 0
 638 0046 5F70     		strb	r7, [r3, #1]
 129:main.c        ****     //Convertir Amplitud
 130:main.c        ****     uint8 datoL=Amp_env;
 639              		.loc 1 130 0
 640 0048 F7B2     		uxtb	r7, r6
 641              	.LVL86:
 131:main.c        ****     uint8 datoH=Amp_env>>8;
 642              		.loc 1 131 0
 643 004a 3612     		asrs	r6, r6, #8
 644              	.LVL87:
 645 004c F6B2     		uxtb	r6, r6
 646              	.LVL88:
 132:main.c        ****     uint8 Aux=0;
 133:main.c        ****     if(Amplitud<0.0){
 647              		.loc 1 133 0
 648 004e 0021     		movs	r1, #0
 649 0050 0198     		ldr	r0, [sp, #4]
 650              	.LVL89:
 651 0052 FFF7FEFF 		bl	__aeabi_fcmplt
 652              	.LVL90:
 653 0056 0028     		cmp	r0, #0
 654 0058 01D0     		beq	.L18
 655              	.LVL91:
 134:main.c        ****         Aux=(1<<7);
 135:main.c        ****         datoH=datoH+Aux;
 656              		.loc 1 135 0
 657 005a 803E     		subs	r6, r6, #128
 658              	.LVL92:
 659 005c F6B2     		uxtb	r6, r6
 660              	.LVL93:
 661              	.L18:
 136:main.c        ****     }
 137:main.c        ****     else{
ARM GAS  C:\Users\HENRYA~1\AppData\Local\Temp\ccHZJuai.s 			page 15


 138:main.c        ****         Aux=(0<<7);
 139:main.c        ****         datoH=datoH+Aux;    
 140:main.c        ****     }
 141:main.c        ****     dato_enviado_1[2]=datoL;
 662              		.loc 1 141 0
 663 005e 144B     		ldr	r3, .L27+4
 664 0060 9F70     		strb	r7, [r3, #2]
 142:main.c        ****     dato_enviado_1[3]=datoH;
 665              		.loc 1 142 0
 666 0062 DE70     		strb	r6, [r3, #3]
 143:main.c        ****     //Convertir Fase
 144:main.c        ****     datoL=Phase_env;
 667              		.loc 1 144 0
 668 0064 EEB2     		uxtb	r6, r5
 669              	.LVL94:
 145:main.c        ****     datoH=Phase_env>>8;
 670              		.loc 1 145 0
 671 0066 2D12     		asrs	r5, r5, #8
 672              	.LVL95:
 673 0068 EDB2     		uxtb	r5, r5
 674              	.LVL96:
 146:main.c        ****     if(Phase<0.0){
 675              		.loc 1 146 0
 676 006a 0021     		movs	r1, #0
 677 006c 0298     		ldr	r0, [sp, #8]
 678 006e FFF7FEFF 		bl	__aeabi_fcmplt
 679              	.LVL97:
 680 0072 0028     		cmp	r0, #0
 681 0074 01D0     		beq	.L20
 682              	.LVL98:
 147:main.c        ****         Aux=(1<<7);
 148:main.c        ****         datoH=datoH+Aux;
 683              		.loc 1 148 0
 684 0076 803D     		subs	r5, r5, #128
 685              	.LVL99:
 686 0078 EDB2     		uxtb	r5, r5
 687              	.LVL100:
 688              	.L20:
 149:main.c        ****     }
 150:main.c        ****     else{
 151:main.c        ****         Aux=(0<<7);
 152:main.c        ****         datoH=datoH+Aux;    
 153:main.c        ****     }
 154:main.c        ****     dato_enviado_1[4]=datoL;
 689              		.loc 1 154 0
 690 007a 0D4B     		ldr	r3, .L27+4
 691 007c 1E71     		strb	r6, [r3, #4]
 155:main.c        ****     dato_enviado_1[5]=datoH;
 692              		.loc 1 155 0
 693 007e 5D71     		strb	r5, [r3, #5]
 156:main.c        ****     //Convertir Offset
 157:main.c        ****     datoL=Offset_env;
 694              		.loc 1 157 0
 695 0080 E5B2     		uxtb	r5, r4
 696              	.LVL101:
 158:main.c        ****     datoH=Offset_env>>8;
 697              		.loc 1 158 0
ARM GAS  C:\Users\HENRYA~1\AppData\Local\Temp\ccHZJuai.s 			page 16


 698 0082 2412     		asrs	r4, r4, #8
 699              	.LVL102:
 700 0084 E4B2     		uxtb	r4, r4
 701              	.LVL103:
 159:main.c        ****     if(Offset<0.0){
 702              		.loc 1 159 0
 703 0086 0021     		movs	r1, #0
 704 0088 0398     		ldr	r0, [sp, #12]
 705 008a FFF7FEFF 		bl	__aeabi_fcmplt
 706              	.LVL104:
 707 008e 0028     		cmp	r0, #0
 708 0090 01D0     		beq	.L22
 709              	.LVL105:
 160:main.c        ****         Aux=(1<<7);
 161:main.c        ****         datoH=datoH+Aux;
 710              		.loc 1 161 0
 711 0092 803C     		subs	r4, r4, #128
 712              	.LVL106:
 713 0094 E4B2     		uxtb	r4, r4
 714              	.LVL107:
 715              	.L22:
 162:main.c        ****     }
 163:main.c        ****     else{
 164:main.c        ****         Aux=(0<<7);
 165:main.c        ****         datoH=datoH+Aux;    
 166:main.c        ****     }
 167:main.c        ****     dato_enviado_1[6]=datoL;
 716              		.loc 1 167 0
 717 0096 064B     		ldr	r3, .L27+4
 718 0098 9D71     		strb	r5, [r3, #6]
 168:main.c        ****     dato_enviado_1[7]=datoH;    
 719              		.loc 1 168 0
 720 009a DC71     		strb	r4, [r3, #7]
 169:main.c        ****     CAN_SendMsg1();
 721              		.loc 1 169 0
 722 009c FFF7FEFF 		bl	CAN_SendMsg1
 723              	.LVL108:
 170:main.c        ****     CyDelay(25);
 724              		.loc 1 170 0
 725 00a0 1920     		movs	r0, #25
 726 00a2 FFF7FEFF 		bl	CyDelay
 727              	.LVL109:
 171:main.c        **** }
 728              		.loc 1 171 0
 729 00a6 05B0     		add	sp, sp, #20
 730              		@ sp needed
 731              	.LVL110:
 732              	.LVL111:
 733 00a8 F0BD     		pop	{r4, r5, r6, r7, pc}
 734              	.L28:
 735 00aa C046     		.align	2
 736              	.L27:
 737 00ac 00401C46 		.word	1176256512
 738 00b0 00000000 		.word	dato_enviado_1
 739              		.cfi_endproc
 740              	.LFE43:
 741              		.size	Enviar_Parametros, .-Enviar_Parametros
ARM GAS  C:\Users\HENRYA~1\AppData\Local\Temp\ccHZJuai.s 			page 17


 742              		.global	__aeabi_fcmpgt
 743              		.section	.text.Saturador,"ax",%progbits
 744              		.align	2
 745              		.global	Saturador
 746              		.code	16
 747              		.thumb_func
 748              		.type	Saturador, %function
 749              	Saturador:
 750              	.LFB44:
 172:main.c        **** 
 173:main.c        **** float Saturador(float numero_comprobar,float lim_inf, float lim_sup){
 751              		.loc 1 173 0
 752              		.cfi_startproc
 753              		@ args = 0, pretend = 0, frame = 0
 754              		@ frame_needed = 0, uses_anonymous_args = 0
 755              	.LVL112:
 756 0000 70B5     		push	{r4, r5, r6, lr}
 757              		.cfi_def_cfa_offset 16
 758              		.cfi_offset 4, -16
 759              		.cfi_offset 5, -12
 760              		.cfi_offset 6, -8
 761              		.cfi_offset 14, -4
 762 0002 051C     		adds	r5, r0, #0
 763 0004 0E1C     		adds	r6, r1, #0
 764 0006 141C     		adds	r4, r2, #0
 174:main.c        ****     if(numero_comprobar>lim_sup){return lim_sup;}
 765              		.loc 1 174 0
 766 0008 111C     		adds	r1, r2, #0
 767              	.LVL113:
 768 000a FFF7FEFF 		bl	__aeabi_fcmpgt
 769              	.LVL114:
 770 000e 0028     		cmp	r0, #0
 771 0010 07D1     		bne	.L32
 175:main.c        ****     else if (numero_comprobar<lim_inf){return lim_inf;}
 772              		.loc 1 175 0
 773 0012 311C     		adds	r1, r6, #0
 774 0014 281C     		adds	r0, r5, #0
 775 0016 FFF7FEFF 		bl	__aeabi_fcmplt
 776              	.LVL115:
 777 001a 0028     		cmp	r0, #0
 778 001c 03D0     		beq	.L35
 779 001e 301C     		adds	r0, r6, #0
 780 0020 02E0     		b	.L30
 781              	.L32:
 174:main.c        ****     if(numero_comprobar>lim_sup){return lim_sup;}
 782              		.loc 1 174 0
 783 0022 201C     		adds	r0, r4, #0
 784 0024 00E0     		b	.L30
 785              	.L35:
 176:main.c        ****     else{return numero_comprobar;}
 786              		.loc 1 176 0
 787 0026 281C     		adds	r0, r5, #0
 788              	.L30:
 177:main.c        **** }
 789              		.loc 1 177 0
 790              		@ sp needed
 791              	.LVL116:
ARM GAS  C:\Users\HENRYA~1\AppData\Local\Temp\ccHZJuai.s 			page 18


 792              	.LVL117:
 793              	.LVL118:
 794 0028 70BD     		pop	{r4, r5, r6, pc}
 795              		.cfi_endproc
 796              	.LFE44:
 797              		.size	Saturador, .-Saturador
 798              		.global	__aeabi_i2d
 799              		.global	__aeabi_ddiv
 800              		.global	__aeabi_d2f
 801 002a C046     		.section	.text.Interrupcion_F,"ax",%progbits
 802              		.align	2
 803              		.global	Interrupcion_F
 804              		.code	16
 805              		.thumb_func
 806              		.type	Interrupcion_F, %function
 807              	Interrupcion_F:
 808              	.LFB45:
 178:main.c        **** 
 179:main.c        **** CY_ISR(Interrupcion_F){
 809              		.loc 1 179 0
 810              		.cfi_startproc
 811              		@ args = 0, pretend = 0, frame = 0
 812              		@ frame_needed = 0, uses_anonymous_args = 0
 813 0000 F8B5     		push	{r3, r4, r5, r6, r7, lr}
 814              		.cfi_def_cfa_offset 24
 815              		.cfi_offset 3, -24
 816              		.cfi_offset 4, -20
 817              		.cfi_offset 5, -16
 818              		.cfi_offset 6, -12
 819              		.cfi_offset 7, -8
 820              		.cfi_offset 14, -4
 180:main.c        ****     CyGlobalIntDisable;
 821              		.loc 1 180 0
 822              		.syntax divided
 823              	@ 180 "main.c" 1
 824 0002 72B6     		CPSID   i
 825              	@ 0 "" 2
 181:main.c        ****     if(conta==0){
 826              		.loc 1 181 0
 827              		.thumb
 828              		.syntax unified
 829 0004 2F4B     		ldr	r3, .L41
 830 0006 1B68     		ldr	r3, [r3]
 831 0008 002B     		cmp	r3, #0
 832 000a 0FD1     		bne	.L37
 182:main.c        ****         Amplitud_2=XBEE_GetByte()/255.0;
 833              		.loc 1 182 0
 834 000c FFF7FEFF 		bl	XBEE_GetByte
 835              	.LVL119:
 836 0010 FFF7FEFF 		bl	__aeabi_i2d
 837              	.LVL120:
 838 0014 0022     		movs	r2, #0
 839 0016 2C4B     		ldr	r3, .L41+4
 840 0018 FFF7FEFF 		bl	__aeabi_ddiv
 841              	.LVL121:
 842 001c 294C     		ldr	r4, .L41
 843 001e FFF7FEFF 		bl	__aeabi_d2f
ARM GAS  C:\Users\HENRYA~1\AppData\Local\Temp\ccHZJuai.s 			page 19


 844              	.LVL122:
 845 0022 6060     		str	r0, [r4, #4]
 183:main.c        ****         conta++;}
 846              		.loc 1 183 0
 847 0024 2368     		ldr	r3, [r4]
 848 0026 0133     		adds	r3, r3, #1
 849 0028 2360     		str	r3, [r4]
 850 002a 2BE0     		b	.L38
 851              	.L37:
 184:main.c        ****     else if(conta==1){
 852              		.loc 1 184 0
 853 002c 012B     		cmp	r3, #1
 854 002e 0FD1     		bne	.L39
 185:main.c        ****         Offset_2=XBEE_GetByte()/255.0;
 855              		.loc 1 185 0
 856 0030 FFF7FEFF 		bl	XBEE_GetByte
 857              	.LVL123:
 858 0034 FFF7FEFF 		bl	__aeabi_i2d
 859              	.LVL124:
 860 0038 0022     		movs	r2, #0
 861 003a 234B     		ldr	r3, .L41+4
 862 003c FFF7FEFF 		bl	__aeabi_ddiv
 863              	.LVL125:
 864 0040 204C     		ldr	r4, .L41
 865 0042 FFF7FEFF 		bl	__aeabi_d2f
 866              	.LVL126:
 867 0046 A060     		str	r0, [r4, #8]
 186:main.c        ****         conta++;}
 868              		.loc 1 186 0
 869 0048 2368     		ldr	r3, [r4]
 870 004a 0133     		adds	r3, r3, #1
 871 004c 2360     		str	r3, [r4]
 872 004e 19E0     		b	.L38
 873              	.L39:
 187:main.c        ****     else if(conta==2){
 874              		.loc 1 187 0
 875 0050 022B     		cmp	r3, #2
 876 0052 0FD1     		bne	.L40
 188:main.c        ****         Fase_2=XBEE_GetByte()/255.0;
 877              		.loc 1 188 0
 878 0054 FFF7FEFF 		bl	XBEE_GetByte
 879              	.LVL127:
 880 0058 FFF7FEFF 		bl	__aeabi_i2d
 881              	.LVL128:
 882 005c 0022     		movs	r2, #0
 883 005e 1A4B     		ldr	r3, .L41+4
 884 0060 FFF7FEFF 		bl	__aeabi_ddiv
 885              	.LVL129:
 886 0064 174C     		ldr	r4, .L41
 887 0066 FFF7FEFF 		bl	__aeabi_d2f
 888              	.LVL130:
 889 006a E060     		str	r0, [r4, #12]
 189:main.c        ****         conta++;}
 890              		.loc 1 189 0
 891 006c 2368     		ldr	r3, [r4]
 892 006e 0133     		adds	r3, r3, #1
 893 0070 2360     		str	r3, [r4]
ARM GAS  C:\Users\HENRYA~1\AppData\Local\Temp\ccHZJuai.s 			page 20


 894 0072 07E0     		b	.L38
 895              	.L40:
 190:main.c        ****     else{
 191:main.c        ****         Orientacion_2=XBEE_GetByte();
 896              		.loc 1 191 0
 897 0074 FFF7FEFF 		bl	XBEE_GetByte
 898              	.LVL131:
 192:main.c        ****         conta=0;
 899              		.loc 1 192 0
 900 0078 0022     		movs	r2, #0
 901 007a 124B     		ldr	r3, .L41
 902 007c 1A60     		str	r2, [r3]
 193:main.c        ****         if(Orientacion_2!=H||Orientacion_2!=V){Orientacion_2=V;}
 903              		.loc 1 193 0
 904 007e 2132     		adds	r2, r2, #33
 905 0080 124B     		ldr	r3, .L41+8
 906 0082 5A60     		str	r2, [r3, #4]
 907              	.L38:
 194:main.c        ****     }
 195:main.c        ****     Amplitud_2=Saturador(Amplitud_2,0.0,0.2); 
 908              		.loc 1 195 0
 909 0084 124D     		ldr	r5, .L41+12
 910 0086 0F4C     		ldr	r4, .L41
 911 0088 2A1C     		adds	r2, r5, #0
 912 008a 0021     		movs	r1, #0
 913 008c 6068     		ldr	r0, [r4, #4]
 914 008e FFF7FEFF 		bl	Saturador
 915              	.LVL132:
 916 0092 061C     		adds	r6, r0, #0
 917 0094 6060     		str	r0, [r4, #4]
 196:main.c        ****     Offset_2=Saturador(Offset_2,0.0,0.2); 
 918              		.loc 1 196 0
 919 0096 2A1C     		adds	r2, r5, #0
 920 0098 0021     		movs	r1, #0
 921 009a A068     		ldr	r0, [r4, #8]
 922 009c FFF7FEFF 		bl	Saturador
 923              	.LVL133:
 924 00a0 071C     		adds	r7, r0, #0
 925 00a2 A060     		str	r0, [r4, #8]
 197:main.c        ****     Fase_2=Saturador(Fase_2,0.0,0.2); 
 926              		.loc 1 197 0
 927 00a4 2A1C     		adds	r2, r5, #0
 928 00a6 0021     		movs	r1, #0
 929 00a8 E068     		ldr	r0, [r4, #12]
 930 00aa FFF7FEFF 		bl	Saturador
 931              	.LVL134:
 932 00ae 011C     		adds	r1, r0, #0
 933 00b0 E060     		str	r0, [r4, #12]
 198:main.c        ****     Enviar_Parametros(Amplitud_2,Fase_2,Offset_2,Orientacion_2);
 934              		.loc 1 198 0
 935 00b2 064B     		ldr	r3, .L41+8
 936 00b4 5B68     		ldr	r3, [r3, #4]
 937 00b6 3A1C     		adds	r2, r7, #0
 938 00b8 301C     		adds	r0, r6, #0
 939 00ba FFF7FEFF 		bl	Enviar_Parametros
 940              	.LVL135:
 199:main.c        ****     CyGlobalIntEnable;
ARM GAS  C:\Users\HENRYA~1\AppData\Local\Temp\ccHZJuai.s 			page 21


 941              		.loc 1 199 0
 942              		.syntax divided
 943              	@ 199 "main.c" 1
 944 00be 62B6     		CPSIE   i
 945              	@ 0 "" 2
 200:main.c        **** }
 946              		.loc 1 200 0
 947              		.thumb
 948              		.syntax unified
 949              		@ sp needed
 950 00c0 F8BD     		pop	{r3, r4, r5, r6, r7, pc}
 951              	.L42:
 952 00c2 C046     		.align	2
 953              	.L41:
 954 00c4 00000000 		.word	.LANCHOR1
 955 00c8 00E06F40 		.word	1081073664
 956 00cc 00000000 		.word	.LANCHOR0
 957 00d0 CDCC4C3E 		.word	1045220557
 958              		.cfi_endproc
 959              	.LFE45:
 960              		.size	Interrupcion_F, .-Interrupcion_F
 961              		.section	.text.main,"ax",%progbits
 962              		.align	2
 963              		.global	main
 964              		.code	16
 965              		.thumb_func
 966              		.type	main, %function
 967              	main:
 968              	.LFB46:
 201:main.c        **** 
 202:main.c        **** int main()
 203:main.c        **** {
 969              		.loc 1 203 0
 970              		.cfi_startproc
 971              		@ Volatile: function does not return.
 972              		@ args = 0, pretend = 0, frame = 0
 973              		@ frame_needed = 0, uses_anonymous_args = 0
 974 0000 10B5     		push	{r4, lr}
 975              		.cfi_def_cfa_offset 8
 976              		.cfi_offset 4, -8
 977              		.cfi_offset 14, -4
 204:main.c        ****     //Init LED's
 205:main.c        ****     LED_1_Write(0);
 978              		.loc 1 205 0
 979 0002 0020     		movs	r0, #0
 980 0004 FFF7FEFF 		bl	LED_1_Write
 981              	.LVL136:
 206:main.c        ****     XBEE_Start();    
 982              		.loc 1 206 0
 983 0008 FFF7FEFF 		bl	XBEE_Start
 984              	.LVL137:
 207:main.c        ****     RESET_XBEE_Write(1);
 985              		.loc 1 207 0
 986 000c 0120     		movs	r0, #1
 987 000e FFF7FEFF 		bl	RESET_XBEE_Write
 988              	.LVL138:
 208:main.c        ****     CAN_Start();                            //Start CAN
ARM GAS  C:\Users\HENRYA~1\AppData\Local\Temp\ccHZJuai.s 			page 22


 989              		.loc 1 208 0
 990 0012 FFF7FEFF 		bl	CAN_Start
 991              	.LVL139:
 209:main.c        ****     CAN_isr_StartEx(interrutcan);           //Interrupcion CAN 
 992              		.loc 1 209 0
 993 0016 0348     		ldr	r0, .L45
 994 0018 FFF7FEFF 		bl	CAN_isr_StartEx
 995              	.LVL140:
 210:main.c        ****     //Interrupcion_StartEx(Interrupcion_F);   //Sino desea comunicar con el PC Comentaree esta line
 211:main.c        ****     CAN_GlobalIntEnable();
 996              		.loc 1 211 0
 997 001c FFF7FEFF 		bl	CAN_GlobalIntEnable
 998              	.LVL141:
 212:main.c        ****     CyGlobalIntEnable;
 999              		.loc 1 212 0
 1000              		.syntax divided
 1001              	@ 212 "main.c" 1
 1002 0020 62B6     		CPSIE   i
 1003              	@ 0 "" 2
 1004              		.thumb
 1005              		.syntax unified
 1006              	.L44:
 1007 0022 FEE7     		b	.L44
 1008              	.L46:
 1009              		.align	2
 1010              	.L45:
 1011 0024 00000000 		.word	interrutcan
 1012              		.cfi_endproc
 1013              	.LFE46:
 1014              		.size	main, .-main
 1015              		.global	Orientacion_2
 1016              		.global	Offset_2
 1017              		.global	Fase_2
 1018              		.global	Amplitud_2
 1019              		.global	conta
 1020              		.global	memoria
 1021              		.comm	dato_enviado_1,8,4
 1022              		.comm	dato_enviado,8,4
 1023              		.comm	mailbox4,8,4
 1024              		.comm	mailbox3,8,4
 1025              		.comm	mailbox2,8,4
 1026              		.comm	mailbox1,8,4
 1027              		.comm	mailbox0,8,4
 1028              		.global	formato
 1029              		.comm	publicar,6,4
 1030              		.comm	dato_recibido,1,1
 1031              		.data
 1032              		.align	2
 1033              		.set	.LANCHOR0,. + 0
 1034              		.type	formato, %object
 1035              		.size	formato, 4
 1036              	formato:
 1037 0000 18000000 		.word	.LC25
 1038              		.type	Orientacion_2, %object
 1039              		.size	Orientacion_2, 4
 1040              	Orientacion_2:
 1041 0004 21000000 		.word	33
ARM GAS  C:\Users\HENRYA~1\AppData\Local\Temp\ccHZJuai.s 			page 23


 1042              		.type	memoria, %object
 1043              		.size	memoria, 4
 1044              	memoria:
 1045 0008 01000000 		.word	1
 1046              		.section	.rodata.str1.4,"aMS",%progbits,1
 1047              		.align	2
 1048              	.LC0:
 1049 0000 4D425F30 		.ascii	"MB_0= \000"
 1049      3D2000
 1050 0007 00       		.space	1
 1051              	.LC5:
 1052 0008 4D425F31 		.ascii	"MB_1= \000"
 1052      3D2000
 1053 000f 00       		.space	1
 1054              	.LC10:
 1055 0010 4D425F33 		.ascii	"MB_3= \000"
 1055      3D2000
 1056 0017 00       		.space	1
 1057              	.LC25:
 1058 0018 20256900 		.ascii	" %i\000"
 1059              		.bss
 1060              		.align	2
 1061              		.set	.LANCHOR1,. + 0
 1062              		.type	conta, %object
 1063              		.size	conta, 4
 1064              	conta:
 1065 0000 00000000 		.space	4
 1066              		.type	Amplitud_2, %object
 1067              		.size	Amplitud_2, 4
 1068              	Amplitud_2:
 1069 0004 00000000 		.space	4
 1070              		.type	Offset_2, %object
 1071              		.size	Offset_2, 4
 1072              	Offset_2:
 1073 0008 00000000 		.space	4
 1074              		.type	Fase_2, %object
 1075              		.size	Fase_2, 4
 1076              	Fase_2:
 1077 000c 00000000 		.space	4
 1078              		.text
 1079              	.Letext0:
 1080              		.file 2 "Generated_Source\\PSoC4/XBEE.h"
 1081              		.file 3 "c:\\program files (x86)\\cypress\\psoc creator\\4.1\\psoc creator\\import\\gnu\\arm\\5.4.
 1082              		.file 4 "Generated_Source\\PSoC4/LED_1.h"
 1083              		.file 5 "Generated_Source\\PSoC4/CAN.h"
 1084              		.file 6 "Generated_Source\\PSoC4/CyLib.h"
 1085              		.file 7 "Generated_Source\\PSoC4/RESET_XBEE.h"
 1086              		.file 8 "Generated_Source\\PSoC4/CAN_isr.h"
 1087              		.file 9 "Generated_Source\\PSoC4/cytypes.h"