ARM GAS  C:\Users\HENRYA~1\AppData\Local\Temp\ccwFNWmq.s 			page 1


   1              		.syntax unified
   2              		.cpu cortex-m3
   3              		.fpu softvfp
   4              		.eabi_attribute 20, 1
   5              		.eabi_attribute 21, 1
   6              		.eabi_attribute 23, 3
   7              		.eabi_attribute 24, 1
   8              		.eabi_attribute 25, 1
   9              		.eabi_attribute 26, 1
  10              		.eabi_attribute 30, 1
  11              		.eabi_attribute 34, 1
  12              		.eabi_attribute 18, 4
  13              		.thumb
  14              		.file	"cyfitter_cfg.c"
  15              		.text
  16              	.Ltext0:
  17              		.cfi_sections	.debug_frame
  18              		.section	.text.CyClockStartupError,"ax",%progbits
  19              		.align	2
  20              		.thumb
  21              		.thumb_func
  22              		.type	CyClockStartupError, %function
  23              	CyClockStartupError:
  24              	.LFB3:
  25              		.file 1 ".\\Generated_Source\\PSoC5\\cyfitter_cfg.c"
   1:.\Generated_Source\PSoC5/cyfitter_cfg.c **** /*******************************************************************************
   2:.\Generated_Source\PSoC5/cyfitter_cfg.c **** * File Name: cyfitter_cfg.c
   3:.\Generated_Source\PSoC5/cyfitter_cfg.c **** * 
   4:.\Generated_Source\PSoC5/cyfitter_cfg.c **** * PSoC Creator  3.3 CP3
   5:.\Generated_Source\PSoC5/cyfitter_cfg.c **** *
   6:.\Generated_Source\PSoC5/cyfitter_cfg.c **** * Description:
   7:.\Generated_Source\PSoC5/cyfitter_cfg.c **** * This file contains device initialization code.
   8:.\Generated_Source\PSoC5/cyfitter_cfg.c **** * Except for the user defined sections in CyClockStartupError(), this file should not be modified.
   9:.\Generated_Source\PSoC5/cyfitter_cfg.c **** * This file is automatically generated by PSoC Creator.
  10:.\Generated_Source\PSoC5/cyfitter_cfg.c **** *
  11:.\Generated_Source\PSoC5/cyfitter_cfg.c **** ********************************************************************************
  12:.\Generated_Source\PSoC5/cyfitter_cfg.c **** * Copyright (c) 2007-2016 Cypress Semiconductor.  All rights reserved.
  13:.\Generated_Source\PSoC5/cyfitter_cfg.c **** * You may use this file only in accordance with the license, terms, conditions, 
  14:.\Generated_Source\PSoC5/cyfitter_cfg.c **** * disclaimers, and limitations in the end user license agreement accompanying 
  15:.\Generated_Source\PSoC5/cyfitter_cfg.c **** * the software package with which this file was provided.
  16:.\Generated_Source\PSoC5/cyfitter_cfg.c **** ********************************************************************************/
  17:.\Generated_Source\PSoC5/cyfitter_cfg.c **** 
  18:.\Generated_Source\PSoC5/cyfitter_cfg.c **** #include <string.h>
  19:.\Generated_Source\PSoC5/cyfitter_cfg.c **** #include "cytypes.h"
  20:.\Generated_Source\PSoC5/cyfitter_cfg.c **** #include "cydevice_trm.h"
  21:.\Generated_Source\PSoC5/cyfitter_cfg.c **** #include "cyfitter.h"
  22:.\Generated_Source\PSoC5/cyfitter_cfg.c **** #include "CyLib.h"
  23:.\Generated_Source\PSoC5/cyfitter_cfg.c **** #include "cyfitter_cfg.h"
  24:.\Generated_Source\PSoC5/cyfitter_cfg.c **** 
  25:.\Generated_Source\PSoC5/cyfitter_cfg.c **** #define CY_NEED_CYCLOCKSTARTUPERROR 1
  26:.\Generated_Source\PSoC5/cyfitter_cfg.c **** 
  27:.\Generated_Source\PSoC5/cyfitter_cfg.c **** 
  28:.\Generated_Source\PSoC5/cyfitter_cfg.c **** #if defined(__GNUC__) || defined(__ARMCC_VERSION)
  29:.\Generated_Source\PSoC5/cyfitter_cfg.c ****     #define CYPACKED 
  30:.\Generated_Source\PSoC5/cyfitter_cfg.c ****     #define CYPACKED_ATTR __attribute__ ((packed))
  31:.\Generated_Source\PSoC5/cyfitter_cfg.c ****     #define CYALIGNED __attribute__ ((aligned))
  32:.\Generated_Source\PSoC5/cyfitter_cfg.c ****     #define CY_CFG_UNUSED __attribute__ ((unused))
ARM GAS  C:\Users\HENRYA~1\AppData\Local\Temp\ccwFNWmq.s 			page 2


  33:.\Generated_Source\PSoC5/cyfitter_cfg.c ****     #ifndef CY_CFG_SECTION
  34:.\Generated_Source\PSoC5/cyfitter_cfg.c ****         #define CY_CFG_SECTION __attribute__ ((section(".psocinit")))
  35:.\Generated_Source\PSoC5/cyfitter_cfg.c ****     #endif
  36:.\Generated_Source\PSoC5/cyfitter_cfg.c ****     
  37:.\Generated_Source\PSoC5/cyfitter_cfg.c ****     #if defined(__ARMCC_VERSION)
  38:.\Generated_Source\PSoC5/cyfitter_cfg.c ****         #define CY_CFG_MEMORY_BARRIER() __memory_changed()
  39:.\Generated_Source\PSoC5/cyfitter_cfg.c ****     #else
  40:.\Generated_Source\PSoC5/cyfitter_cfg.c ****         #define CY_CFG_MEMORY_BARRIER() __sync_synchronize()
  41:.\Generated_Source\PSoC5/cyfitter_cfg.c ****     #endif
  42:.\Generated_Source\PSoC5/cyfitter_cfg.c ****     
  43:.\Generated_Source\PSoC5/cyfitter_cfg.c **** #elif defined(__ICCARM__)
  44:.\Generated_Source\PSoC5/cyfitter_cfg.c ****     #include <intrinsics.h>
  45:.\Generated_Source\PSoC5/cyfitter_cfg.c **** 
  46:.\Generated_Source\PSoC5/cyfitter_cfg.c ****     #define CYPACKED __packed
  47:.\Generated_Source\PSoC5/cyfitter_cfg.c ****     #define CYPACKED_ATTR 
  48:.\Generated_Source\PSoC5/cyfitter_cfg.c ****     #define CYALIGNED _Pragma("data_alignment=4")
  49:.\Generated_Source\PSoC5/cyfitter_cfg.c ****     #define CY_CFG_UNUSED _Pragma("diag_suppress=Pe177")
  50:.\Generated_Source\PSoC5/cyfitter_cfg.c ****     #define CY_CFG_SECTION _Pragma("location=\".psocinit\"")
  51:.\Generated_Source\PSoC5/cyfitter_cfg.c ****     
  52:.\Generated_Source\PSoC5/cyfitter_cfg.c ****     #define CY_CFG_MEMORY_BARRIER() __DMB()
  53:.\Generated_Source\PSoC5/cyfitter_cfg.c ****     
  54:.\Generated_Source\PSoC5/cyfitter_cfg.c **** #else
  55:.\Generated_Source\PSoC5/cyfitter_cfg.c ****     #error Unsupported toolchain
  56:.\Generated_Source\PSoC5/cyfitter_cfg.c **** #endif
  57:.\Generated_Source\PSoC5/cyfitter_cfg.c **** 
  58:.\Generated_Source\PSoC5/cyfitter_cfg.c **** 
  59:.\Generated_Source\PSoC5/cyfitter_cfg.c **** CY_CFG_UNUSED
  60:.\Generated_Source\PSoC5/cyfitter_cfg.c **** static void CYMEMZERO(void *s, size_t n);
  61:.\Generated_Source\PSoC5/cyfitter_cfg.c **** CY_CFG_UNUSED
  62:.\Generated_Source\PSoC5/cyfitter_cfg.c **** static void CYMEMZERO(void *s, size_t n)
  63:.\Generated_Source\PSoC5/cyfitter_cfg.c **** {
  64:.\Generated_Source\PSoC5/cyfitter_cfg.c **** 	(void)memset(s, 0, n);
  65:.\Generated_Source\PSoC5/cyfitter_cfg.c **** }
  66:.\Generated_Source\PSoC5/cyfitter_cfg.c **** CY_CFG_UNUSED
  67:.\Generated_Source\PSoC5/cyfitter_cfg.c **** static void CYCONFIGCPY(void *dest, const void *src, size_t n);
  68:.\Generated_Source\PSoC5/cyfitter_cfg.c **** CY_CFG_UNUSED
  69:.\Generated_Source\PSoC5/cyfitter_cfg.c **** static void CYCONFIGCPY(void *dest, const void *src, size_t n)
  70:.\Generated_Source\PSoC5/cyfitter_cfg.c **** {
  71:.\Generated_Source\PSoC5/cyfitter_cfg.c **** 	(void)memcpy(dest, src, n);
  72:.\Generated_Source\PSoC5/cyfitter_cfg.c **** }
  73:.\Generated_Source\PSoC5/cyfitter_cfg.c **** CY_CFG_UNUSED
  74:.\Generated_Source\PSoC5/cyfitter_cfg.c **** static void CYCONFIGCPYCODE(void *dest, const void *src, size_t n);
  75:.\Generated_Source\PSoC5/cyfitter_cfg.c **** CY_CFG_UNUSED
  76:.\Generated_Source\PSoC5/cyfitter_cfg.c **** static void CYCONFIGCPYCODE(void *dest, const void *src, size_t n)
  77:.\Generated_Source\PSoC5/cyfitter_cfg.c **** {
  78:.\Generated_Source\PSoC5/cyfitter_cfg.c **** 	(void)memcpy(dest, src, n);
  79:.\Generated_Source\PSoC5/cyfitter_cfg.c **** }
  80:.\Generated_Source\PSoC5/cyfitter_cfg.c **** 
  81:.\Generated_Source\PSoC5/cyfitter_cfg.c **** 
  82:.\Generated_Source\PSoC5/cyfitter_cfg.c **** 
  83:.\Generated_Source\PSoC5/cyfitter_cfg.c **** /* Clock startup error codes                                                   */
  84:.\Generated_Source\PSoC5/cyfitter_cfg.c **** #define CYCLOCKSTART_NO_ERROR    0u
  85:.\Generated_Source\PSoC5/cyfitter_cfg.c **** #define CYCLOCKSTART_XTAL_ERROR  1u
  86:.\Generated_Source\PSoC5/cyfitter_cfg.c **** #define CYCLOCKSTART_32KHZ_ERROR 2u
  87:.\Generated_Source\PSoC5/cyfitter_cfg.c **** #define CYCLOCKSTART_PLL_ERROR   3u
  88:.\Generated_Source\PSoC5/cyfitter_cfg.c **** 
  89:.\Generated_Source\PSoC5/cyfitter_cfg.c **** #ifdef CY_NEED_CYCLOCKSTARTUPERROR
ARM GAS  C:\Users\HENRYA~1\AppData\Local\Temp\ccwFNWmq.s 			page 3


  90:.\Generated_Source\PSoC5/cyfitter_cfg.c **** /*******************************************************************************
  91:.\Generated_Source\PSoC5/cyfitter_cfg.c **** * Function Name: CyClockStartupError
  92:.\Generated_Source\PSoC5/cyfitter_cfg.c **** ********************************************************************************
  93:.\Generated_Source\PSoC5/cyfitter_cfg.c **** * Summary:
  94:.\Generated_Source\PSoC5/cyfitter_cfg.c **** *  If an error is encountered during clock configuration (crystal startup error,
  95:.\Generated_Source\PSoC5/cyfitter_cfg.c **** *  PLL lock error, etc.), the system will end up here.  Unless reimplemented by
  96:.\Generated_Source\PSoC5/cyfitter_cfg.c **** *  the customer, this function will stop in an infinite loop.
  97:.\Generated_Source\PSoC5/cyfitter_cfg.c **** *
  98:.\Generated_Source\PSoC5/cyfitter_cfg.c **** * Parameters:
  99:.\Generated_Source\PSoC5/cyfitter_cfg.c **** *   void
 100:.\Generated_Source\PSoC5/cyfitter_cfg.c **** *
 101:.\Generated_Source\PSoC5/cyfitter_cfg.c **** * Return:
 102:.\Generated_Source\PSoC5/cyfitter_cfg.c **** *   void
 103:.\Generated_Source\PSoC5/cyfitter_cfg.c **** *
 104:.\Generated_Source\PSoC5/cyfitter_cfg.c **** *******************************************************************************/
 105:.\Generated_Source\PSoC5/cyfitter_cfg.c **** CY_CFG_UNUSED
 106:.\Generated_Source\PSoC5/cyfitter_cfg.c **** static void CyClockStartupError(uint8 errorCode);
 107:.\Generated_Source\PSoC5/cyfitter_cfg.c **** CY_CFG_UNUSED
 108:.\Generated_Source\PSoC5/cyfitter_cfg.c **** static void CyClockStartupError(uint8 errorCode)
 109:.\Generated_Source\PSoC5/cyfitter_cfg.c **** {
  26              		.loc 1 109 0
  27              		.cfi_startproc
  28              		@ Volatile: function does not return.
  29              		@ args = 0, pretend = 0, frame = 0
  30              		@ frame_needed = 0, uses_anonymous_args = 0
  31              		@ link register save eliminated.
  32              	.LVL0:
  33              	.L2:
 110:.\Generated_Source\PSoC5/cyfitter_cfg.c ****     /* To remove the compiler warning if errorCode not used.                */
 111:.\Generated_Source\PSoC5/cyfitter_cfg.c ****     errorCode = errorCode;
 112:.\Generated_Source\PSoC5/cyfitter_cfg.c **** 
 113:.\Generated_Source\PSoC5/cyfitter_cfg.c ****     /* `#START CyClockStartupError` */
 114:.\Generated_Source\PSoC5/cyfitter_cfg.c **** 
 115:.\Generated_Source\PSoC5/cyfitter_cfg.c ****     /* If we have a clock startup error (bad MHz crystal, PLL lock, etc.),  */
 116:.\Generated_Source\PSoC5/cyfitter_cfg.c ****     /* we will end up here to allow the customer to implement something to  */
 117:.\Generated_Source\PSoC5/cyfitter_cfg.c ****     /* deal with the clock condition.                                       */
 118:.\Generated_Source\PSoC5/cyfitter_cfg.c **** 
 119:.\Generated_Source\PSoC5/cyfitter_cfg.c ****     /* `#END` */
 120:.\Generated_Source\PSoC5/cyfitter_cfg.c **** 
 121:.\Generated_Source\PSoC5/cyfitter_cfg.c ****     /* If nothing else, stop here since the clocks have not started         */
 122:.\Generated_Source\PSoC5/cyfitter_cfg.c ****     /* correctly.                                                           */
 123:.\Generated_Source\PSoC5/cyfitter_cfg.c ****     while(1) {}
  34              		.loc 1 123 0 discriminator 1
  35 0000 FEE7     		b	.L2
  36              		.cfi_endproc
  37              	.LFE3:
  38              		.size	CyClockStartupError, .-CyClockStartupError
  39 0002 00BF     		.section	.text.cfg_write_bytes32,"ax",%progbits
  40              		.align	2
  41              		.thumb
  42              		.thumb_func
  43              		.type	cfg_write_bytes32, %function
  44              	cfg_write_bytes32:
  45              	.LFB4:
 124:.\Generated_Source\PSoC5/cyfitter_cfg.c **** }
 125:.\Generated_Source\PSoC5/cyfitter_cfg.c **** #endif
 126:.\Generated_Source\PSoC5/cyfitter_cfg.c **** 
ARM GAS  C:\Users\HENRYA~1\AppData\Local\Temp\ccwFNWmq.s 			page 4


 127:.\Generated_Source\PSoC5/cyfitter_cfg.c **** #define CY_CFG_BASE_ADDR_COUNT 14u
 128:.\Generated_Source\PSoC5/cyfitter_cfg.c **** CYPACKED typedef struct
 129:.\Generated_Source\PSoC5/cyfitter_cfg.c **** {
 130:.\Generated_Source\PSoC5/cyfitter_cfg.c **** 	uint8 offset;
 131:.\Generated_Source\PSoC5/cyfitter_cfg.c **** 	uint8 value;
 132:.\Generated_Source\PSoC5/cyfitter_cfg.c **** } CYPACKED_ATTR cy_cfg_addrvalue_t;
 133:.\Generated_Source\PSoC5/cyfitter_cfg.c **** 
 134:.\Generated_Source\PSoC5/cyfitter_cfg.c **** #define cy_cfg_addr_table ((const uint32 CYFAR *)0x48000000u)
 135:.\Generated_Source\PSoC5/cyfitter_cfg.c **** #define cy_cfg_data_table ((const cy_cfg_addrvalue_t CYFAR *)0x48000038u)
 136:.\Generated_Source\PSoC5/cyfitter_cfg.c **** 
 137:.\Generated_Source\PSoC5/cyfitter_cfg.c **** /* IOPINS0_0 Address: CYREG_PRT0_DM0 Size (bytes): 8 */
 138:.\Generated_Source\PSoC5/cyfitter_cfg.c **** #define BS_IOPINS0_0_VAL ((const uint8 CYFAR *)0x48000070u)
 139:.\Generated_Source\PSoC5/cyfitter_cfg.c **** 
 140:.\Generated_Source\PSoC5/cyfitter_cfg.c **** /* IOPINS0_2 Address: CYREG_PRT2_DM0 Size (bytes): 8 */
 141:.\Generated_Source\PSoC5/cyfitter_cfg.c **** #define BS_IOPINS0_2_VAL ((const uint8 CYFAR *)0x48000078u)
 142:.\Generated_Source\PSoC5/cyfitter_cfg.c **** 
 143:.\Generated_Source\PSoC5/cyfitter_cfg.c **** 
 144:.\Generated_Source\PSoC5/cyfitter_cfg.c **** /*******************************************************************************
 145:.\Generated_Source\PSoC5/cyfitter_cfg.c **** * Function Name: cfg_write_bytes32
 146:.\Generated_Source\PSoC5/cyfitter_cfg.c **** ********************************************************************************
 147:.\Generated_Source\PSoC5/cyfitter_cfg.c **** * Summary:
 148:.\Generated_Source\PSoC5/cyfitter_cfg.c **** *  This function is used for setting up the chip configuration areas that
 149:.\Generated_Source\PSoC5/cyfitter_cfg.c **** *  contain relatively sparse data.
 150:.\Generated_Source\PSoC5/cyfitter_cfg.c **** *
 151:.\Generated_Source\PSoC5/cyfitter_cfg.c **** * Parameters:
 152:.\Generated_Source\PSoC5/cyfitter_cfg.c **** *   void
 153:.\Generated_Source\PSoC5/cyfitter_cfg.c **** *
 154:.\Generated_Source\PSoC5/cyfitter_cfg.c **** * Return:
 155:.\Generated_Source\PSoC5/cyfitter_cfg.c **** *   void
 156:.\Generated_Source\PSoC5/cyfitter_cfg.c **** *
 157:.\Generated_Source\PSoC5/cyfitter_cfg.c **** *******************************************************************************/
 158:.\Generated_Source\PSoC5/cyfitter_cfg.c **** static void cfg_write_bytes32(const uint32 addr_table[], const cy_cfg_addrvalue_t data_table[]);
 159:.\Generated_Source\PSoC5/cyfitter_cfg.c **** static void cfg_write_bytes32(const uint32 addr_table[], const cy_cfg_addrvalue_t data_table[])
 160:.\Generated_Source\PSoC5/cyfitter_cfg.c **** {
  46              		.loc 1 160 0
  47              		.cfi_startproc
  48              		@ args = 0, pretend = 0, frame = 0
  49              		@ frame_needed = 0, uses_anonymous_args = 0
  50              		@ link register save eliminated.
  51              	.LVL1:
  52 0000 F0B4     		push	{r4, r5, r6, r7}
  53              		.cfi_def_cfa_offset 16
  54              		.cfi_offset 4, -16
  55              		.cfi_offset 5, -12
  56              		.cfi_offset 6, -8
  57              		.cfi_offset 7, -4
  58              	.LVL2:
 161:.\Generated_Source\PSoC5/cyfitter_cfg.c **** 	/* For 32-bit little-endian architectures */
 162:.\Generated_Source\PSoC5/cyfitter_cfg.c **** 	uint32 i, j = 0u;
  59              		.loc 1 162 0
  60 0002 0022     		movs	r2, #0
 163:.\Generated_Source\PSoC5/cyfitter_cfg.c **** 	for (i = 0u; i < CY_CFG_BASE_ADDR_COUNT; i++)
  61              		.loc 1 163 0
  62 0004 1746     		mov	r7, r2
  63 0006 11E0     		b	.L4
  64              	.LVL3:
  65              	.L7:
ARM GAS  C:\Users\HENRYA~1\AppData\Local\Temp\ccwFNWmq.s 			page 5


  66              	.LBB2:
 164:.\Generated_Source\PSoC5/cyfitter_cfg.c **** 	{
 165:.\Generated_Source\PSoC5/cyfitter_cfg.c **** 		uint32 baseAddr = addr_table[i];
  67              		.loc 1 165 0
  68 0008 50F82760 		ldr	r6, [r0, r7, lsl #2]
  69              	.LVL4:
 166:.\Generated_Source\PSoC5/cyfitter_cfg.c **** 		uint8 count = (uint8)baseAddr;
  70              		.loc 1 166 0
  71 000c F3B2     		uxtb	r3, r6
  72              	.LVL5:
 167:.\Generated_Source\PSoC5/cyfitter_cfg.c **** 		baseAddr &= 0xFFFFFF00u;
  73              		.loc 1 167 0
  74 000e 26F0FF06 		bic	r6, r6, #255
  75              	.LVL6:
 168:.\Generated_Source\PSoC5/cyfitter_cfg.c **** 		while (count != 0u)
  76              		.loc 1 168 0
  77 0012 08E0     		b	.L5
  78              	.L6:
 169:.\Generated_Source\PSoC5/cyfitter_cfg.c **** 		{
 170:.\Generated_Source\PSoC5/cyfitter_cfg.c **** 			CY_SET_XTND_REG8((void CYFAR *)(baseAddr + data_table[j].offset), data_table[j].value);
  79              		.loc 1 170 0
  80 0014 01EB4205 		add	r5, r1, r2, lsl #1
  81 0018 11F81240 		ldrb	r4, [r1, r2, lsl #1]	@ zero_extendqisi2
  82 001c 6D78     		ldrb	r5, [r5, #1]	@ zero_extendqisi2
  83 001e A555     		strb	r5, [r4, r6]
 171:.\Generated_Source\PSoC5/cyfitter_cfg.c **** 			j++;
  84              		.loc 1 171 0
  85 0020 0132     		adds	r2, r2, #1
  86              	.LVL7:
 172:.\Generated_Source\PSoC5/cyfitter_cfg.c **** 			count--;
  87              		.loc 1 172 0
  88 0022 013B     		subs	r3, r3, #1
  89              	.LVL8:
  90 0024 DBB2     		uxtb	r3, r3
  91              	.LVL9:
  92              	.L5:
 168:.\Generated_Source\PSoC5/cyfitter_cfg.c **** 		{
  93              		.loc 1 168 0
  94 0026 002B     		cmp	r3, #0
  95 0028 F4D1     		bne	.L6
  96              	.LBE2:
 163:.\Generated_Source\PSoC5/cyfitter_cfg.c **** 	{
  97              		.loc 1 163 0 discriminator 2
  98 002a 0137     		adds	r7, r7, #1
  99              	.LVL10:
 100              	.L4:
 163:.\Generated_Source\PSoC5/cyfitter_cfg.c **** 	{
 101              		.loc 1 163 0 is_stmt 0 discriminator 1
 102 002c 0D2F     		cmp	r7, #13
 103 002e EBD9     		bls	.L7
 173:.\Generated_Source\PSoC5/cyfitter_cfg.c **** 		}
 174:.\Generated_Source\PSoC5/cyfitter_cfg.c **** 	}
 175:.\Generated_Source\PSoC5/cyfitter_cfg.c **** }
 104              		.loc 1 175 0 is_stmt 1
 105 0030 F0BC     		pop	{r4, r5, r6, r7}
 106              		.cfi_restore 7
 107              		.cfi_restore 6
ARM GAS  C:\Users\HENRYA~1\AppData\Local\Temp\ccwFNWmq.s 			page 6


 108              		.cfi_restore 5
 109              		.cfi_restore 4
 110              		.cfi_def_cfa_offset 0
 111              	.LVL11:
 112 0032 7047     		bx	lr
 113              		.cfi_endproc
 114              	.LFE4:
 115              		.size	cfg_write_bytes32, .-cfg_write_bytes32
 116              		.section	.text.AnalogSetDefault,"ax",%progbits
 117              		.align	2
 118              		.thumb
 119              		.thumb_func
 120              		.type	AnalogSetDefault, %function
 121              	AnalogSetDefault:
 122              	.LFB6:
 176:.\Generated_Source\PSoC5/cyfitter_cfg.c **** 
 177:.\Generated_Source\PSoC5/cyfitter_cfg.c **** /*******************************************************************************
 178:.\Generated_Source\PSoC5/cyfitter_cfg.c **** * Function Name: ClockSetup
 179:.\Generated_Source\PSoC5/cyfitter_cfg.c **** ********************************************************************************
 180:.\Generated_Source\PSoC5/cyfitter_cfg.c **** *
 181:.\Generated_Source\PSoC5/cyfitter_cfg.c **** * Summary:
 182:.\Generated_Source\PSoC5/cyfitter_cfg.c **** *  Performs the initialization of all of the clocks in the device based on the
 183:.\Generated_Source\PSoC5/cyfitter_cfg.c **** *  settings in the Clock tab of the DWR.  This includes enabling the requested
 184:.\Generated_Source\PSoC5/cyfitter_cfg.c **** *  clocks and setting the necessary dividers to produce the desired frequency. 
 185:.\Generated_Source\PSoC5/cyfitter_cfg.c **** *
 186:.\Generated_Source\PSoC5/cyfitter_cfg.c **** * Parameters:
 187:.\Generated_Source\PSoC5/cyfitter_cfg.c **** *  void
 188:.\Generated_Source\PSoC5/cyfitter_cfg.c **** *
 189:.\Generated_Source\PSoC5/cyfitter_cfg.c **** * Return:
 190:.\Generated_Source\PSoC5/cyfitter_cfg.c **** *  void
 191:.\Generated_Source\PSoC5/cyfitter_cfg.c **** *
 192:.\Generated_Source\PSoC5/cyfitter_cfg.c **** *******************************************************************************/
 193:.\Generated_Source\PSoC5/cyfitter_cfg.c **** static void ClockSetup(void);
 194:.\Generated_Source\PSoC5/cyfitter_cfg.c **** static void ClockSetup(void)
 195:.\Generated_Source\PSoC5/cyfitter_cfg.c **** {
 196:.\Generated_Source\PSoC5/cyfitter_cfg.c **** 	uint32 timeout;
 197:.\Generated_Source\PSoC5/cyfitter_cfg.c **** 	uint8 pllLock;
 198:.\Generated_Source\PSoC5/cyfitter_cfg.c **** 
 199:.\Generated_Source\PSoC5/cyfitter_cfg.c **** 
 200:.\Generated_Source\PSoC5/cyfitter_cfg.c **** 	/* Configure ILO based on settings from Clock DWR */
 201:.\Generated_Source\PSoC5/cyfitter_cfg.c **** 	CY_SET_XTND_REG8((void CYFAR *)(CYREG_SLOWCLK_ILO_CR0), 0x02u);
 202:.\Generated_Source\PSoC5/cyfitter_cfg.c **** 	CY_SET_XTND_REG8((void CYFAR *)(CYREG_CLKDIST_CR), 0x08u);
 203:.\Generated_Source\PSoC5/cyfitter_cfg.c **** 
 204:.\Generated_Source\PSoC5/cyfitter_cfg.c **** 	/* Configure XTAL based on settings from Clock DWR */
 205:.\Generated_Source\PSoC5/cyfitter_cfg.c **** 	CY_SET_XTND_REG16((void CYFAR *)(CYREG_FASTCLK_XMHZ_CFG0), 0x3313u);
 206:.\Generated_Source\PSoC5/cyfitter_cfg.c **** 	CY_SET_XTND_REG8((void CYFAR *)(CYREG_FASTCLK_XMHZ_CSR), 0x05u);
 207:.\Generated_Source\PSoC5/cyfitter_cfg.c **** 	/* Wait up to 130000us for the XTAL to lock */
 208:.\Generated_Source\PSoC5/cyfitter_cfg.c **** 	CY_GET_XTND_REG8((void CYFAR *)CYREG_FASTCLK_XMHZ_CSR);
 209:.\Generated_Source\PSoC5/cyfitter_cfg.c **** 	for (timeout = 130000u / 10u; (timeout > 0u) && ((CY_GET_XTND_REG8((void CYFAR *)CYREG_FASTCLK_XMH
 210:.\Generated_Source\PSoC5/cyfitter_cfg.c **** 	{ 
 211:.\Generated_Source\PSoC5/cyfitter_cfg.c **** 		
 212:.\Generated_Source\PSoC5/cyfitter_cfg.c **** 		CyDelayCycles(10u * 48u); /* Delay 10us based on 48MHz clock */
 213:.\Generated_Source\PSoC5/cyfitter_cfg.c **** 	}
 214:.\Generated_Source\PSoC5/cyfitter_cfg.c **** 	if (timeout == 0u)
 215:.\Generated_Source\PSoC5/cyfitter_cfg.c **** 	{
 216:.\Generated_Source\PSoC5/cyfitter_cfg.c **** 		CyClockStartupError(CYCLOCKSTART_XTAL_ERROR);
 217:.\Generated_Source\PSoC5/cyfitter_cfg.c **** 	}
ARM GAS  C:\Users\HENRYA~1\AppData\Local\Temp\ccwFNWmq.s 			page 7


 218:.\Generated_Source\PSoC5/cyfitter_cfg.c **** 
 219:.\Generated_Source\PSoC5/cyfitter_cfg.c **** 	/* Configure Bus/Master Clock based on settings from Clock DWR */
 220:.\Generated_Source\PSoC5/cyfitter_cfg.c **** 	CY_SET_XTND_REG16((void CYFAR *)(CYREG_CLKDIST_MSTR0), 0x0200u);
 221:.\Generated_Source\PSoC5/cyfitter_cfg.c **** 
 222:.\Generated_Source\PSoC5/cyfitter_cfg.c **** 	/* Configure PLL based on settings from Clock DWR */
 223:.\Generated_Source\PSoC5/cyfitter_cfg.c **** 	CY_SET_XTND_REG16((void CYFAR *)(CYREG_FASTCLK_PLL_P), 0x0708u);
 224:.\Generated_Source\PSoC5/cyfitter_cfg.c **** 	CY_SET_XTND_REG8((void CYFAR *)(CYREG_CLKDIST_CR), 0x09u);
 225:.\Generated_Source\PSoC5/cyfitter_cfg.c **** 	CY_SET_XTND_REG16((void CYFAR *)(CYREG_FASTCLK_PLL_CFG0), 0x1251u);
 226:.\Generated_Source\PSoC5/cyfitter_cfg.c **** 	/* Wait up to 250us for the PLL to lock */
 227:.\Generated_Source\PSoC5/cyfitter_cfg.c **** 	pllLock = 0u;
 228:.\Generated_Source\PSoC5/cyfitter_cfg.c **** 	for (timeout = 250u / 10u; (timeout > 0u) && (pllLock != 0x03u); timeout--)
 229:.\Generated_Source\PSoC5/cyfitter_cfg.c **** 	{ 
 230:.\Generated_Source\PSoC5/cyfitter_cfg.c **** 		pllLock = 0x03u & ((uint8)((uint8)pllLock << 1) | ((CY_GET_XTND_REG8((void CYFAR *)CYREG_FASTCLK_
 231:.\Generated_Source\PSoC5/cyfitter_cfg.c **** 		CyDelayCycles(10u * 48u); /* Delay 10us based on 48MHz clock */
 232:.\Generated_Source\PSoC5/cyfitter_cfg.c **** 	}
 233:.\Generated_Source\PSoC5/cyfitter_cfg.c **** 	CY_SET_XTND_REG8((void CYFAR *)(CYREG_CLKDIST_CR), 0x49u);
 234:.\Generated_Source\PSoC5/cyfitter_cfg.c **** 
 235:.\Generated_Source\PSoC5/cyfitter_cfg.c **** 	/* Configure IMO based on settings from Clock DWR */
 236:.\Generated_Source\PSoC5/cyfitter_cfg.c **** 	CY_SET_XTND_REG8((void CYFAR *)(CYREG_FASTCLK_IMO_CR), 0x20u);
 237:.\Generated_Source\PSoC5/cyfitter_cfg.c **** 	CY_SET_XTND_REG8((void CYFAR *)(CYREG_CLKDIST_MSTR0), 0x07u);
 238:.\Generated_Source\PSoC5/cyfitter_cfg.c **** 	CY_SET_XTND_REG8((void CYFAR *)(CYREG_CLKDIST_BCFG0), 0x00u);
 239:.\Generated_Source\PSoC5/cyfitter_cfg.c **** 	CY_SET_XTND_REG8((void CYFAR *)(CYREG_CLKDIST_BCFG2), 0x48u);
 240:.\Generated_Source\PSoC5/cyfitter_cfg.c **** 	CY_SET_XTND_REG8((void CYFAR *)(CYREG_CLKDIST_MSTR0), 0x00u);
 241:.\Generated_Source\PSoC5/cyfitter_cfg.c **** 	CY_SET_XTND_REG8((void CYFAR *)(CYREG_CLKDIST_LD), 0x02u);
 242:.\Generated_Source\PSoC5/cyfitter_cfg.c **** }
 243:.\Generated_Source\PSoC5/cyfitter_cfg.c **** 
 244:.\Generated_Source\PSoC5/cyfitter_cfg.c **** 
 245:.\Generated_Source\PSoC5/cyfitter_cfg.c **** /* Analog API Functions */
 246:.\Generated_Source\PSoC5/cyfitter_cfg.c **** 
 247:.\Generated_Source\PSoC5/cyfitter_cfg.c **** 
 248:.\Generated_Source\PSoC5/cyfitter_cfg.c **** /*******************************************************************************
 249:.\Generated_Source\PSoC5/cyfitter_cfg.c **** * Function Name: AnalogSetDefault
 250:.\Generated_Source\PSoC5/cyfitter_cfg.c **** ********************************************************************************
 251:.\Generated_Source\PSoC5/cyfitter_cfg.c **** *
 252:.\Generated_Source\PSoC5/cyfitter_cfg.c **** * Summary:
 253:.\Generated_Source\PSoC5/cyfitter_cfg.c **** *  Sets up the analog portions of the chip to default values based on chip
 254:.\Generated_Source\PSoC5/cyfitter_cfg.c **** *  configuration options from the project.
 255:.\Generated_Source\PSoC5/cyfitter_cfg.c **** *
 256:.\Generated_Source\PSoC5/cyfitter_cfg.c **** * Parameters:
 257:.\Generated_Source\PSoC5/cyfitter_cfg.c **** *  void
 258:.\Generated_Source\PSoC5/cyfitter_cfg.c **** *
 259:.\Generated_Source\PSoC5/cyfitter_cfg.c **** * Return:
 260:.\Generated_Source\PSoC5/cyfitter_cfg.c **** *  void
 261:.\Generated_Source\PSoC5/cyfitter_cfg.c **** *
 262:.\Generated_Source\PSoC5/cyfitter_cfg.c **** *******************************************************************************/
 263:.\Generated_Source\PSoC5/cyfitter_cfg.c **** static void AnalogSetDefault(void);
 264:.\Generated_Source\PSoC5/cyfitter_cfg.c **** static void AnalogSetDefault(void)
 265:.\Generated_Source\PSoC5/cyfitter_cfg.c **** {
 123              		.loc 1 265 0
 124              		.cfi_startproc
 125              		@ args = 0, pretend = 0, frame = 0
 126              		@ frame_needed = 0, uses_anonymous_args = 0
 127              		@ link register save eliminated.
 266:.\Generated_Source\PSoC5/cyfitter_cfg.c **** 	uint8 bg_xover_inl_trim = CY_GET_XTND_REG8((void CYFAR *)(CYREG_FLSHID_MFG_CFG_BG_XOVER_INL_TRIM +
 128              		.loc 1 266 0
 129 0000 064B     		ldr	r3, .L10
 130 0002 1B78     		ldrb	r3, [r3]	@ zero_extendqisi2
ARM GAS  C:\Users\HENRYA~1\AppData\Local\Temp\ccwFNWmq.s 			page 8


 131 0004 DBB2     		uxtb	r3, r3
 132              	.LVL12:
 267:.\Generated_Source\PSoC5/cyfitter_cfg.c **** 	CY_SET_XTND_REG8((void CYFAR *)(CYREG_BG_DFT0), (bg_xover_inl_trim & 0x07u));
 133              		.loc 1 267 0
 134 0006 03F00701 		and	r1, r3, #7
 135 000a 054A     		ldr	r2, .L10+4
 136 000c 1170     		strb	r1, [r2]
 268:.\Generated_Source\PSoC5/cyfitter_cfg.c **** 	CY_SET_XTND_REG8((void CYFAR *)(CYREG_BG_DFT1), ((bg_xover_inl_trim >> 4) & 0x0Fu));
 137              		.loc 1 268 0
 138 000e 1B09     		lsrs	r3, r3, #4
 139              	.LVL13:
 140 0010 0132     		adds	r2, r2, #1
 141 0012 1370     		strb	r3, [r2]
 269:.\Generated_Source\PSoC5/cyfitter_cfg.c **** 	CY_SET_XTND_REG8((void CYFAR *)CYREG_PUMP_CR0, 0x44u);
 142              		.loc 1 269 0
 143 0014 4422     		movs	r2, #68
 144 0016 034B     		ldr	r3, .L10+8
 145 0018 1A70     		strb	r2, [r3]
 146 001a 7047     		bx	lr
 147              	.L11:
 148              		.align	2
 149              	.L10:
 150 001c CF010049 		.word	1224737231
 151 0020 6E580040 		.word	1073764462
 152 0024 76580040 		.word	1073764470
 153              		.cfi_endproc
 154              	.LFE6:
 155              		.size	AnalogSetDefault, .-AnalogSetDefault
 156              		.section	.text.CYMEMZERO,"ax",%progbits
 157              		.align	2
 158              		.thumb
 159              		.thumb_func
 160              		.type	CYMEMZERO, %function
 161              	CYMEMZERO:
 162              	.LFB0:
  63:.\Generated_Source\PSoC5/cyfitter_cfg.c **** 	(void)memset(s, 0, n);
 163              		.loc 1 63 0
 164              		.cfi_startproc
 165              		@ args = 0, pretend = 0, frame = 0
 166              		@ frame_needed = 0, uses_anonymous_args = 0
 167              	.LVL14:
 168 0000 08B5     		push	{r3, lr}
 169              		.cfi_def_cfa_offset 8
 170              		.cfi_offset 3, -8
 171              		.cfi_offset 14, -4
 172 0002 0A46     		mov	r2, r1
  64:.\Generated_Source\PSoC5/cyfitter_cfg.c **** }
 173              		.loc 1 64 0
 174 0004 0021     		movs	r1, #0
 175              	.LVL15:
 176 0006 FFF7FEFF 		bl	memset
 177              	.LVL16:
 178 000a 08BD     		pop	{r3, pc}
 179              		.cfi_endproc
 180              	.LFE0:
 181              		.size	CYMEMZERO, .-CYMEMZERO
 182              		.section	.text.ClockSetup,"ax",%progbits
ARM GAS  C:\Users\HENRYA~1\AppData\Local\Temp\ccwFNWmq.s 			page 9


 183              		.align	2
 184              		.thumb
 185              		.thumb_func
 186              		.type	ClockSetup, %function
 187              	ClockSetup:
 188              	.LFB5:
 195:.\Generated_Source\PSoC5/cyfitter_cfg.c **** 	uint32 timeout;
 189              		.loc 1 195 0
 190              		.cfi_startproc
 191              		@ args = 0, pretend = 0, frame = 0
 192              		@ frame_needed = 0, uses_anonymous_args = 0
 193 0000 38B5     		push	{r3, r4, r5, lr}
 194              		.cfi_def_cfa_offset 16
 195              		.cfi_offset 3, -16
 196              		.cfi_offset 4, -12
 197              		.cfi_offset 5, -8
 198              		.cfi_offset 14, -4
 201:.\Generated_Source\PSoC5/cyfitter_cfg.c **** 	CY_SET_XTND_REG8((void CYFAR *)(CYREG_CLKDIST_CR), 0x08u);
 199              		.loc 1 201 0
 200 0002 0222     		movs	r2, #2
 201 0004 2E4B     		ldr	r3, .L23
 202 0006 1A70     		strb	r2, [r3]
 202:.\Generated_Source\PSoC5/cyfitter_cfg.c **** 
 203              		.loc 1 202 0
 204 0008 0822     		movs	r2, #8
 205 000a 4FF04023 		mov	r3, #1073758208
 206 000e 1A70     		strb	r2, [r3]
 205:.\Generated_Source\PSoC5/cyfitter_cfg.c **** 	CY_SET_XTND_REG8((void CYFAR *)(CYREG_FASTCLK_XMHZ_CSR), 0x05u);
 207              		.loc 1 205 0
 208 0010 43F21332 		movw	r2, #13075
 209 0014 03F21223 		addw	r3, r3, #530
 210 0018 1A80     		strh	r2, [r3]	@ movhi
 206:.\Generated_Source\PSoC5/cyfitter_cfg.c **** 	/* Wait up to 130000us for the XTAL to lock */
 211              		.loc 1 206 0
 212 001a 023B     		subs	r3, r3, #2
 213 001c 0522     		movs	r2, #5
 214 001e 1A70     		strb	r2, [r3]
 208:.\Generated_Source\PSoC5/cyfitter_cfg.c **** 	for (timeout = 130000u / 10u; (timeout > 0u) && ((CY_GET_XTND_REG8((void CYFAR *)CYREG_FASTCLK_XMH
 215              		.loc 1 208 0
 216 0020 1B78     		ldrb	r3, [r3]	@ zero_extendqisi2
 217              	.LVL17:
 209:.\Generated_Source\PSoC5/cyfitter_cfg.c **** 	{ 
 218              		.loc 1 209 0
 219 0022 43F2C824 		movw	r4, #13000
 220 0026 04E0     		b	.L15
 221              	.LVL18:
 222              	.L17:
 212:.\Generated_Source\PSoC5/cyfitter_cfg.c **** 	}
 223              		.loc 1 212 0 discriminator 4
 224 0028 4FF4F070 		mov	r0, #480
 225 002c FFF7FEFF 		bl	CyDelayCycles
 226              	.LVL19:
 209:.\Generated_Source\PSoC5/cyfitter_cfg.c **** 	{ 
 227              		.loc 1 209 0 discriminator 4
 228 0030 013C     		subs	r4, r4, #1
 229              	.LVL20:
 230              	.L15:
ARM GAS  C:\Users\HENRYA~1\AppData\Local\Temp\ccwFNWmq.s 			page 10


 209:.\Generated_Source\PSoC5/cyfitter_cfg.c **** 	{ 
 231              		.loc 1 209 0 is_stmt 0 discriminator 1
 232 0032 24B1     		cbz	r4, .L16
 209:.\Generated_Source\PSoC5/cyfitter_cfg.c **** 	{ 
 233              		.loc 1 209 0 discriminator 3
 234 0034 234B     		ldr	r3, .L23+4
 235 0036 1B78     		ldrb	r3, [r3]	@ zero_extendqisi2
 236 0038 13F0800F 		tst	r3, #128
 237 003c F4D1     		bne	.L17
 238              	.L16:
 214:.\Generated_Source\PSoC5/cyfitter_cfg.c **** 	{
 239              		.loc 1 214 0 is_stmt 1
 240 003e 14B9     		cbnz	r4, .L18
 216:.\Generated_Source\PSoC5/cyfitter_cfg.c **** 	}
 241              		.loc 1 216 0
 242 0040 0120     		movs	r0, #1
 243 0042 FFF7FEFF 		bl	CyClockStartupError
 244              	.LVL21:
 245              	.L18:
 220:.\Generated_Source\PSoC5/cyfitter_cfg.c **** 
 246              		.loc 1 220 0
 247 0046 4FF40072 		mov	r2, #512
 248 004a 1F4B     		ldr	r3, .L23+8
 249 004c 1A80     		strh	r2, [r3]	@ movhi
 223:.\Generated_Source\PSoC5/cyfitter_cfg.c **** 	CY_SET_XTND_REG8((void CYFAR *)(CYREG_CLKDIST_CR), 0x09u);
 250              		.loc 1 223 0
 251 004e 4FF4E162 		mov	r2, #1800
 252 0052 03F21E23 		addw	r3, r3, #542
 253 0056 1A80     		strh	r2, [r3]	@ movhi
 224:.\Generated_Source\PSoC5/cyfitter_cfg.c **** 	CY_SET_XTND_REG16((void CYFAR *)(CYREG_FASTCLK_PLL_CFG0), 0x1251u);
 254              		.loc 1 224 0
 255 0058 0922     		movs	r2, #9
 256 005a 4FF04023 		mov	r3, #1073758208
 257 005e 1A70     		strb	r2, [r3]
 225:.\Generated_Source\PSoC5/cyfitter_cfg.c **** 	/* Wait up to 250us for the PLL to lock */
 258              		.loc 1 225 0
 259 0060 41F25122 		movw	r2, #4689
 260 0064 03F50873 		add	r3, r3, #544
 261 0068 1A80     		strh	r2, [r3]	@ movhi
 262              	.LVL22:
 227:.\Generated_Source\PSoC5/cyfitter_cfg.c **** 	for (timeout = 250u / 10u; (timeout > 0u) && (pllLock != 0x03u); timeout--)
 263              		.loc 1 227 0
 264 006a 0024     		movs	r4, #0
 228:.\Generated_Source\PSoC5/cyfitter_cfg.c **** 	{ 
 265              		.loc 1 228 0
 266 006c 1925     		movs	r5, #25
 267 006e 0CE0     		b	.L19
 268              	.LVL23:
 269              	.L21:
 230:.\Generated_Source\PSoC5/cyfitter_cfg.c **** 		CyDelayCycles(10u * 48u); /* Delay 10us based on 48MHz clock */
 270              		.loc 1 230 0 discriminator 4
 271 0070 164B     		ldr	r3, .L23+12
 272 0072 1B78     		ldrb	r3, [r3]	@ zero_extendqisi2
 273 0074 03F00103 		and	r3, r3, #1
 274 0078 43EA4404 		orr	r4, r3, r4, lsl #1
 275              	.LVL24:
 276 007c 04F00304 		and	r4, r4, #3
ARM GAS  C:\Users\HENRYA~1\AppData\Local\Temp\ccwFNWmq.s 			page 11


 277              	.LVL25:
 231:.\Generated_Source\PSoC5/cyfitter_cfg.c **** 	}
 278              		.loc 1 231 0 discriminator 4
 279 0080 4FF4F070 		mov	r0, #480
 280 0084 FFF7FEFF 		bl	CyDelayCycles
 281              	.LVL26:
 228:.\Generated_Source\PSoC5/cyfitter_cfg.c **** 	{ 
 282              		.loc 1 228 0 discriminator 4
 283 0088 013D     		subs	r5, r5, #1
 284              	.LVL27:
 285              	.L19:
 228:.\Generated_Source\PSoC5/cyfitter_cfg.c **** 	{ 
 286              		.loc 1 228 0 is_stmt 0 discriminator 1
 287 008a 0DB1     		cbz	r5, .L20
 228:.\Generated_Source\PSoC5/cyfitter_cfg.c **** 	{ 
 288              		.loc 1 228 0 discriminator 3
 289 008c 032C     		cmp	r4, #3
 290 008e EFD1     		bne	.L21
 291              	.L20:
 233:.\Generated_Source\PSoC5/cyfitter_cfg.c **** 
 292              		.loc 1 233 0 is_stmt 1
 293 0090 4922     		movs	r2, #73
 294 0092 4FF04023 		mov	r3, #1073758208
 295 0096 1A70     		strb	r2, [r3]
 236:.\Generated_Source\PSoC5/cyfitter_cfg.c **** 	CY_SET_XTND_REG8((void CYFAR *)(CYREG_CLKDIST_MSTR0), 0x07u);
 296              		.loc 1 236 0
 297 0098 2022     		movs	r2, #32
 298 009a 03F50073 		add	r3, r3, #512
 299 009e 1A70     		strb	r2, [r3]
 237:.\Generated_Source\PSoC5/cyfitter_cfg.c **** 	CY_SET_XTND_REG8((void CYFAR *)(CYREG_CLKDIST_BCFG0), 0x00u);
 300              		.loc 1 237 0
 301 00a0 A3F5FE73 		sub	r3, r3, #508
 302 00a4 0722     		movs	r2, #7
 303 00a6 1A70     		strb	r2, [r3]
 238:.\Generated_Source\PSoC5/cyfitter_cfg.c **** 	CY_SET_XTND_REG8((void CYFAR *)(CYREG_CLKDIST_BCFG2), 0x48u);
 304              		.loc 1 238 0
 305 00a8 0022     		movs	r2, #0
 306 00aa 0949     		ldr	r1, .L23+16
 307 00ac 0A70     		strb	r2, [r1]
 239:.\Generated_Source\PSoC5/cyfitter_cfg.c **** 	CY_SET_XTND_REG8((void CYFAR *)(CYREG_CLKDIST_MSTR0), 0x00u);
 308              		.loc 1 239 0
 309 00ae 4820     		movs	r0, #72
 310 00b0 0231     		adds	r1, r1, #2
 311 00b2 0870     		strb	r0, [r1]
 240:.\Generated_Source\PSoC5/cyfitter_cfg.c **** 	CY_SET_XTND_REG8((void CYFAR *)(CYREG_CLKDIST_LD), 0x02u);
 312              		.loc 1 240 0
 313 00b4 1A70     		strb	r2, [r3]
 241:.\Generated_Source\PSoC5/cyfitter_cfg.c **** }
 314              		.loc 1 241 0
 315 00b6 0222     		movs	r2, #2
 316 00b8 033B     		subs	r3, r3, #3
 317 00ba 1A70     		strb	r2, [r3]
 318 00bc 38BD     		pop	{r3, r4, r5, pc}
 319              	.LVL28:
 320              	.L24:
 321 00be 00BF     		.align	2
 322              	.L23:
ARM GAS  C:\Users\HENRYA~1\AppData\Local\Temp\ccwFNWmq.s 			page 12


 323 00c0 00430040 		.word	1073758976
 324 00c4 10420040 		.word	1073758736
 325 00c8 04400040 		.word	1073758212
 326 00cc 25420040 		.word	1073758757
 327 00d0 06400040 		.word	1073758214
 328              		.cfi_endproc
 329              	.LFE5:
 330              		.size	ClockSetup, .-ClockSetup
 331              		.section	.text.CYCONFIGCPY,"ax",%progbits
 332              		.align	2
 333              		.thumb
 334              		.thumb_func
 335              		.type	CYCONFIGCPY, %function
 336              	CYCONFIGCPY:
 337              	.LFB1:
  70:.\Generated_Source\PSoC5/cyfitter_cfg.c **** 	(void)memcpy(dest, src, n);
 338              		.loc 1 70 0
 339              		.cfi_startproc
 340              		@ args = 0, pretend = 0, frame = 0
 341              		@ frame_needed = 0, uses_anonymous_args = 0
 342              	.LVL29:
 343 0000 08B5     		push	{r3, lr}
 344              		.cfi_def_cfa_offset 8
 345              		.cfi_offset 3, -8
 346              		.cfi_offset 14, -4
  71:.\Generated_Source\PSoC5/cyfitter_cfg.c **** }
 347              		.loc 1 71 0
 348 0002 FFF7FEFF 		bl	memcpy
 349              	.LVL30:
 350 0006 08BD     		pop	{r3, pc}
 351              		.cfi_endproc
 352              	.LFE1:
 353              		.size	CYCONFIGCPY, .-CYCONFIGCPY
 354              		.section	.text.SetAnalogRoutingPumps,"ax",%progbits
 355              		.align	2
 356              		.global	SetAnalogRoutingPumps
 357              		.thumb
 358              		.thumb_func
 359              		.type	SetAnalogRoutingPumps, %function
 360              	SetAnalogRoutingPumps:
 361              	.LFB7:
 270:.\Generated_Source\PSoC5/cyfitter_cfg.c **** }
 271:.\Generated_Source\PSoC5/cyfitter_cfg.c **** 
 272:.\Generated_Source\PSoC5/cyfitter_cfg.c **** 
 273:.\Generated_Source\PSoC5/cyfitter_cfg.c **** /*******************************************************************************
 274:.\Generated_Source\PSoC5/cyfitter_cfg.c **** * Function Name: SetAnalogRoutingPumps
 275:.\Generated_Source\PSoC5/cyfitter_cfg.c **** ********************************************************************************
 276:.\Generated_Source\PSoC5/cyfitter_cfg.c **** *
 277:.\Generated_Source\PSoC5/cyfitter_cfg.c **** * Summary:
 278:.\Generated_Source\PSoC5/cyfitter_cfg.c **** * Enables or disables the analog pumps feeding analog routing switches.
 279:.\Generated_Source\PSoC5/cyfitter_cfg.c **** * Intended to be called at startup, based on the Vdda system configuration;
 280:.\Generated_Source\PSoC5/cyfitter_cfg.c **** * may be called during operation when the user informs us that the Vdda voltage
 281:.\Generated_Source\PSoC5/cyfitter_cfg.c **** * crossed the pump threshold.
 282:.\Generated_Source\PSoC5/cyfitter_cfg.c **** *
 283:.\Generated_Source\PSoC5/cyfitter_cfg.c **** * Parameters:
 284:.\Generated_Source\PSoC5/cyfitter_cfg.c **** *  enabled - 1 to enable the pumps, 0 to disable the pumps
 285:.\Generated_Source\PSoC5/cyfitter_cfg.c **** *
ARM GAS  C:\Users\HENRYA~1\AppData\Local\Temp\ccwFNWmq.s 			page 13


 286:.\Generated_Source\PSoC5/cyfitter_cfg.c **** * Return:
 287:.\Generated_Source\PSoC5/cyfitter_cfg.c **** *  void
 288:.\Generated_Source\PSoC5/cyfitter_cfg.c **** *
 289:.\Generated_Source\PSoC5/cyfitter_cfg.c **** *******************************************************************************/
 290:.\Generated_Source\PSoC5/cyfitter_cfg.c **** void SetAnalogRoutingPumps(uint8 enabled)
 291:.\Generated_Source\PSoC5/cyfitter_cfg.c **** {
 362              		.loc 1 291 0
 363              		.cfi_startproc
 364              		@ args = 0, pretend = 0, frame = 0
 365              		@ frame_needed = 0, uses_anonymous_args = 0
 366              		@ link register save eliminated.
 367              	.LVL31:
 292:.\Generated_Source\PSoC5/cyfitter_cfg.c **** 	uint8 regValue = CY_GET_XTND_REG8((void CYFAR *)CYREG_PUMP_CR0);
 368              		.loc 1 292 0
 369 0000 024A     		ldr	r2, .L28
 370 0002 1378     		ldrb	r3, [r2]	@ zero_extendqisi2
 371 0004 DBB2     		uxtb	r3, r3
 372              	.LVL32:
 293:.\Generated_Source\PSoC5/cyfitter_cfg.c **** 	if (enabled != 0u)
 294:.\Generated_Source\PSoC5/cyfitter_cfg.c **** 	{
 295:.\Generated_Source\PSoC5/cyfitter_cfg.c **** 		regValue |= 0x00u;
 296:.\Generated_Source\PSoC5/cyfitter_cfg.c **** 	}
 297:.\Generated_Source\PSoC5/cyfitter_cfg.c **** 	else
 298:.\Generated_Source\PSoC5/cyfitter_cfg.c **** 	{
 299:.\Generated_Source\PSoC5/cyfitter_cfg.c **** 		regValue &= (uint8)~0x00u;
 300:.\Generated_Source\PSoC5/cyfitter_cfg.c **** 	}
 301:.\Generated_Source\PSoC5/cyfitter_cfg.c **** 	CY_SET_XTND_REG8((void CYFAR *)CYREG_PUMP_CR0, regValue);
 373              		.loc 1 301 0
 374 0006 1370     		strb	r3, [r2]
 375 0008 7047     		bx	lr
 376              	.L29:
 377 000a 00BF     		.align	2
 378              	.L28:
 379 000c 76580040 		.word	1073764470
 380              		.cfi_endproc
 381              	.LFE7:
 382              		.size	SetAnalogRoutingPumps, .-SetAnalogRoutingPumps
 383              		.section	.text.cyfitter_cfg,"ax",%progbits
 384              		.align	2
 385              		.global	cyfitter_cfg
 386              		.thumb
 387              		.thumb_func
 388              		.type	cyfitter_cfg, %function
 389              	cyfitter_cfg:
 390              	.LFB8:
 302:.\Generated_Source\PSoC5/cyfitter_cfg.c **** }
 303:.\Generated_Source\PSoC5/cyfitter_cfg.c **** 
 304:.\Generated_Source\PSoC5/cyfitter_cfg.c **** #define CY_AMUX_UNUSED CYREG_BOOST_SR
 305:.\Generated_Source\PSoC5/cyfitter_cfg.c **** 
 306:.\Generated_Source\PSoC5/cyfitter_cfg.c **** 
 307:.\Generated_Source\PSoC5/cyfitter_cfg.c **** /*******************************************************************************
 308:.\Generated_Source\PSoC5/cyfitter_cfg.c **** * Function Name: cyfitter_cfg
 309:.\Generated_Source\PSoC5/cyfitter_cfg.c **** ********************************************************************************
 310:.\Generated_Source\PSoC5/cyfitter_cfg.c **** * Summary:
 311:.\Generated_Source\PSoC5/cyfitter_cfg.c **** *  This function is called by the start-up code for the selected device. It
 312:.\Generated_Source\PSoC5/cyfitter_cfg.c **** *  performs all of the necessary device configuration based on the design
 313:.\Generated_Source\PSoC5/cyfitter_cfg.c **** *  settings.  This includes settings from the Design Wide Resources (DWR) such
ARM GAS  C:\Users\HENRYA~1\AppData\Local\Temp\ccwFNWmq.s 			page 14


 314:.\Generated_Source\PSoC5/cyfitter_cfg.c **** *  as Clocks and Pins as well as any component configuration that is necessary.
 315:.\Generated_Source\PSoC5/cyfitter_cfg.c **** *
 316:.\Generated_Source\PSoC5/cyfitter_cfg.c **** * Parameters:  
 317:.\Generated_Source\PSoC5/cyfitter_cfg.c **** *   void
 318:.\Generated_Source\PSoC5/cyfitter_cfg.c **** *
 319:.\Generated_Source\PSoC5/cyfitter_cfg.c **** * Return:
 320:.\Generated_Source\PSoC5/cyfitter_cfg.c **** *   void
 321:.\Generated_Source\PSoC5/cyfitter_cfg.c **** *
 322:.\Generated_Source\PSoC5/cyfitter_cfg.c **** *******************************************************************************/
 323:.\Generated_Source\PSoC5/cyfitter_cfg.c **** 
 324:.\Generated_Source\PSoC5/cyfitter_cfg.c **** void cyfitter_cfg(void)
 325:.\Generated_Source\PSoC5/cyfitter_cfg.c **** {
 391              		.loc 1 325 0
 392              		.cfi_startproc
 393              		@ args = 0, pretend = 0, frame = 0
 394              		@ frame_needed = 0, uses_anonymous_args = 0
 395 0000 70B5     		push	{r4, r5, r6, lr}
 396              		.cfi_def_cfa_offset 16
 397              		.cfi_offset 4, -16
 398              		.cfi_offset 5, -12
 399              		.cfi_offset 6, -8
 400              		.cfi_offset 14, -4
 326:.\Generated_Source\PSoC5/cyfitter_cfg.c **** #ifdef CYGlobalIntDisable
 327:.\Generated_Source\PSoC5/cyfitter_cfg.c **** 	/* Disable interrupts by default. Let user enable if/when they want. */
 328:.\Generated_Source\PSoC5/cyfitter_cfg.c **** 	CYGlobalIntDisable
 401              		.loc 1 328 0
 402              	@ 328 ".\Generated_Source\PSoC5\cyfitter_cfg.c" 1
 403 0002 72B6     		CPSID   i
 404              	@ 0 "" 2
 329:.\Generated_Source\PSoC5/cyfitter_cfg.c **** #endif
 330:.\Generated_Source\PSoC5/cyfitter_cfg.c **** 
 331:.\Generated_Source\PSoC5/cyfitter_cfg.c **** 	/* Enable/Disable Debug functionality based on settings from System DWR */
 332:.\Generated_Source\PSoC5/cyfitter_cfg.c **** 	CY_SET_XTND_REG8((void CYFAR *)CYREG_MLOGIC_DEBUG, (CY_GET_XTND_REG8((void CYFAR *)CYREG_MLOGIC_DE
 405              		.loc 1 332 0
 406              		.thumb
 407 0004 284A     		ldr	r2, .L34
 408 0006 1378     		ldrb	r3, [r2]	@ zero_extendqisi2
 409 0008 43F00403 		orr	r3, r3, #4
 410 000c 1370     		strb	r3, [r2]
 411              	.LVL33:
 412              	.LBB3:
 333:.\Generated_Source\PSoC5/cyfitter_cfg.c **** 
 334:.\Generated_Source\PSoC5/cyfitter_cfg.c **** 	{
 335:.\Generated_Source\PSoC5/cyfitter_cfg.c **** 
 336:.\Generated_Source\PSoC5/cyfitter_cfg.c **** 		CYPACKED typedef struct {
 337:.\Generated_Source\PSoC5/cyfitter_cfg.c **** 			void CYFAR *address;
 338:.\Generated_Source\PSoC5/cyfitter_cfg.c **** 			uint16 size;
 339:.\Generated_Source\PSoC5/cyfitter_cfg.c **** 		} CYPACKED_ATTR cfg_memset_t;
 340:.\Generated_Source\PSoC5/cyfitter_cfg.c **** 
 341:.\Generated_Source\PSoC5/cyfitter_cfg.c **** 		static const cfg_memset_t CYCODE cfg_memset_list [] = {
 342:.\Generated_Source\PSoC5/cyfitter_cfg.c **** 			/* address, size */
 343:.\Generated_Source\PSoC5/cyfitter_cfg.c **** 			{(void CYFAR *)(CYREG_PRT1_DR), 16u},
 344:.\Generated_Source\PSoC5/cyfitter_cfg.c **** 			{(void CYFAR *)(CYREG_PRT3_DR), 64u},
 345:.\Generated_Source\PSoC5/cyfitter_cfg.c **** 			{(void CYFAR *)(CYREG_PRT12_DR), 16u},
 346:.\Generated_Source\PSoC5/cyfitter_cfg.c **** 			{(void CYFAR *)(CYREG_PRT15_DR), 16u},
 347:.\Generated_Source\PSoC5/cyfitter_cfg.c **** 			{(void CYFAR *)(CYDEV_UCFG_B0_P0_U0_BASE), 4096u},
 348:.\Generated_Source\PSoC5/cyfitter_cfg.c **** 			{(void CYFAR *)(CYDEV_UCFG_B1_P2_U0_BASE), 2048u},
ARM GAS  C:\Users\HENRYA~1\AppData\Local\Temp\ccwFNWmq.s 			page 15


 349:.\Generated_Source\PSoC5/cyfitter_cfg.c **** 			{(void CYFAR *)(CYDEV_UCFG_DSI0_BASE), 2560u},
 350:.\Generated_Source\PSoC5/cyfitter_cfg.c **** 			{(void CYFAR *)(CYDEV_UCFG_DSI12_BASE), 512u},
 351:.\Generated_Source\PSoC5/cyfitter_cfg.c **** 			{(void CYFAR *)(CYREG_BCTL0_MDCLK_EN), 32u},
 352:.\Generated_Source\PSoC5/cyfitter_cfg.c **** 		};
 353:.\Generated_Source\PSoC5/cyfitter_cfg.c **** 
 354:.\Generated_Source\PSoC5/cyfitter_cfg.c **** 		uint8 CYDATA i;
 355:.\Generated_Source\PSoC5/cyfitter_cfg.c **** 
 356:.\Generated_Source\PSoC5/cyfitter_cfg.c **** 		/* Zero out critical memory blocks before beginning configuration */
 357:.\Generated_Source\PSoC5/cyfitter_cfg.c **** 		for (i = 0u; i < (sizeof(cfg_memset_list)/sizeof(cfg_memset_list[0])); i++)
 413              		.loc 1 357 0
 414 000e 0024     		movs	r4, #0
 415 0010 0CE0     		b	.L31
 416              	.LVL34:
 417              	.L32:
 418              	.LBB4:
 358:.\Generated_Source\PSoC5/cyfitter_cfg.c **** 		{
 359:.\Generated_Source\PSoC5/cyfitter_cfg.c **** 			const cfg_memset_t CYCODE * CYDATA ms = &cfg_memset_list[i];
 360:.\Generated_Source\PSoC5/cyfitter_cfg.c **** 			CYMEMZERO(ms->address, (size_t)(uint32)(ms->size));
 419              		.loc 1 360 0 discriminator 3
 420 0012 2649     		ldr	r1, .L34+4
 421 0014 6300     		lsls	r3, r4, #1
 422 0016 1A19     		adds	r2, r3, r4
 423 0018 5200     		lsls	r2, r2, #1
 424 001a 0A44     		add	r2, r2, r1
 425 001c 2344     		add	r3, r3, r4
 426 001e 5B00     		lsls	r3, r3, #1
 427 0020 C858     		ldr	r0, [r1, r3]	@ unaligned
 428 0022 9188     		ldrh	r1, [r2, #4]
 429 0024 FFF7FEFF 		bl	CYMEMZERO
 430              	.LVL35:
 431              	.LBE4:
 357:.\Generated_Source\PSoC5/cyfitter_cfg.c **** 		{
 432              		.loc 1 357 0 discriminator 3
 433 0028 0134     		adds	r4, r4, #1
 434              	.LVL36:
 435 002a E4B2     		uxtb	r4, r4
 436              	.LVL37:
 437              	.L31:
 357:.\Generated_Source\PSoC5/cyfitter_cfg.c **** 		{
 438              		.loc 1 357 0 is_stmt 0 discriminator 1
 439 002c 082C     		cmp	r4, #8
 440 002e F0D9     		bls	.L32
 361:.\Generated_Source\PSoC5/cyfitter_cfg.c **** 		}
 362:.\Generated_Source\PSoC5/cyfitter_cfg.c **** 
 363:.\Generated_Source\PSoC5/cyfitter_cfg.c **** 		cfg_write_bytes32(cy_cfg_addr_table, cy_cfg_data_table);
 441              		.loc 1 363 0 is_stmt 1
 442 0030 4FF09040 		mov	r0, #1207959552
 443 0034 1E49     		ldr	r1, .L34+8
 444 0036 FFF7FEFF 		bl	cfg_write_bytes32
 445              	.LVL38:
 364:.\Generated_Source\PSoC5/cyfitter_cfg.c **** 
 365:.\Generated_Source\PSoC5/cyfitter_cfg.c **** 		/* Enable digital routing */
 366:.\Generated_Source\PSoC5/cyfitter_cfg.c **** 		CY_SET_XTND_REG8((void CYFAR *)CYREG_BCTL0_BANK_CTL, CY_GET_XTND_REG8((void CYFAR *)CYREG_BCTL0_B
 446              		.loc 1 366 0
 447 003a 1E4A     		ldr	r2, .L34+12
 448 003c 1378     		ldrb	r3, [r2]	@ zero_extendqisi2
 449 003e 43F00203 		orr	r3, r3, #2
ARM GAS  C:\Users\HENRYA~1\AppData\Local\Temp\ccwFNWmq.s 			page 16


 450 0042 1370     		strb	r3, [r2]
 367:.\Generated_Source\PSoC5/cyfitter_cfg.c **** 		CY_SET_XTND_REG8((void CYFAR *)CYREG_BCTL1_BANK_CTL, CY_GET_XTND_REG8((void CYFAR *)CYREG_BCTL1_B
 451              		.loc 1 367 0
 452 0044 1032     		adds	r2, r2, #16
 453 0046 1378     		ldrb	r3, [r2]	@ zero_extendqisi2
 454 0048 43F00203 		orr	r3, r3, #2
 455 004c 1370     		strb	r3, [r2]
 368:.\Generated_Source\PSoC5/cyfitter_cfg.c **** 
 369:.\Generated_Source\PSoC5/cyfitter_cfg.c **** 		/* Enable UDB array */
 370:.\Generated_Source\PSoC5/cyfitter_cfg.c **** 		CY_SET_XTND_REG8((void CYFAR *)CYREG_PM_ACT_CFG0, CY_GET_XTND_REG8((void CYFAR *)CYREG_PM_ACT_CFG
 456              		.loc 1 370 0
 457 004e 1A4C     		ldr	r4, .L34+16
 458              	.LVL39:
 459 0050 2378     		ldrb	r3, [r4]	@ zero_extendqisi2
 460 0052 43F04003 		orr	r3, r3, #64
 461 0056 2370     		strb	r3, [r4]
 371:.\Generated_Source\PSoC5/cyfitter_cfg.c **** 		CY_SET_XTND_REG8((void CYFAR *)CYREG_PM_AVAIL_CR2, CY_GET_XTND_REG8((void CYFAR *)CYREG_PM_AVAIL_
 462              		.loc 1 371 0
 463 0058 A2F58632 		sub	r2, r2, #68608
 464 005c 513A     		subs	r2, r2, #81
 465 005e 1378     		ldrb	r3, [r2]	@ zero_extendqisi2
 466 0060 43F01003 		orr	r3, r3, #16
 467 0064 1370     		strb	r3, [r2]
 468              	.LBE3:
 372:.\Generated_Source\PSoC5/cyfitter_cfg.c **** 	}
 373:.\Generated_Source\PSoC5/cyfitter_cfg.c **** 
 374:.\Generated_Source\PSoC5/cyfitter_cfg.c **** 
 375:.\Generated_Source\PSoC5/cyfitter_cfg.c **** 	/* Perform second pass device configuration. These items must be configured in specific order afte
 376:.\Generated_Source\PSoC5/cyfitter_cfg.c **** 	CYCONFIGCPY((void CYFAR *)(CYREG_PRT0_DM0), (const void CYFAR *)(BS_IOPINS0_0_VAL), 8u);
 469              		.loc 1 376 0
 470 0066 1548     		ldr	r0, .L34+20
 471 0068 1549     		ldr	r1, .L34+24
 472 006a 0822     		movs	r2, #8
 473 006c FFF7FEFF 		bl	CYCONFIGCPY
 474              	.LVL40:
 377:.\Generated_Source\PSoC5/cyfitter_cfg.c **** 	CYCONFIGCPY((void CYFAR *)(CYREG_PRT2_DM0), (const void CYFAR *)(BS_IOPINS0_2_VAL), 8u);
 475              		.loc 1 377 0
 476 0070 1448     		ldr	r0, .L34+28
 477 0072 1549     		ldr	r1, .L34+32
 478 0074 0822     		movs	r2, #8
 479 0076 FFF7FEFF 		bl	CYCONFIGCPY
 480              	.LVL41:
 378:.\Generated_Source\PSoC5/cyfitter_cfg.c **** 	/* Switch Boost to the precision bandgap reference from its internal reference */
 379:.\Generated_Source\PSoC5/cyfitter_cfg.c **** 	CY_SET_REG8((void CYXDATA *)CYREG_BOOST_CR2, (CY_GET_REG8((void CYXDATA *)CYREG_BOOST_CR2) | 0x08u
 481              		.loc 1 379 0
 482 007a 144A     		ldr	r2, .L34+36
 483 007c 1378     		ldrb	r3, [r2]	@ zero_extendqisi2
 484 007e 43F00803 		orr	r3, r3, #8
 485 0082 1370     		strb	r3, [r2]
 380:.\Generated_Source\PSoC5/cyfitter_cfg.c **** 
 381:.\Generated_Source\PSoC5/cyfitter_cfg.c **** 	/* Set Flash Cycles based on max possible frequency in case a glitch occurs during ClockSetup(). *
 382:.\Generated_Source\PSoC5/cyfitter_cfg.c **** 	CY_SET_XTND_REG8((void CYFAR *)(CYREG_CACHE_CC_CTL), (((CYDEV_INSTRUCT_CACHE_ENABLED) != 0) ? 0x01
 486              		.loc 1 382 0
 487 0084 124E     		ldr	r6, .L34+40
 488 0086 0125     		movs	r5, #1
 489 0088 3570     		strb	r5, [r6]
 383:.\Generated_Source\PSoC5/cyfitter_cfg.c **** 	/* Setup clocks based on selections from Clock DWR */
ARM GAS  C:\Users\HENRYA~1\AppData\Local\Temp\ccwFNWmq.s 			page 17


 384:.\Generated_Source\PSoC5/cyfitter_cfg.c **** 	ClockSetup();
 490              		.loc 1 384 0
 491 008a FFF7FEFF 		bl	ClockSetup
 492              	.LVL42:
 385:.\Generated_Source\PSoC5/cyfitter_cfg.c **** 	/* Set Flash Cycles based on newly configured 24.00MHz Bus Clock. */
 386:.\Generated_Source\PSoC5/cyfitter_cfg.c **** 	CY_SET_XTND_REG8((void CYFAR *)(CYREG_CACHE_CC_CTL), (((CYDEV_INSTRUCT_CACHE_ENABLED) != 0) ? 0x81
 493              		.loc 1 386 0
 494 008e 8123     		movs	r3, #129
 495 0090 3370     		strb	r3, [r6]
 387:.\Generated_Source\PSoC5/cyfitter_cfg.c **** 	CY_SET_XTND_REG8((void CYFAR *)(CYREG_PANTHER_WAITPIPE), 0x01u);
 496              		.loc 1 387 0
 497 0092 104B     		ldr	r3, .L34+44
 498 0094 1D70     		strb	r5, [r3]
 388:.\Generated_Source\PSoC5/cyfitter_cfg.c **** 
 389:.\Generated_Source\PSoC5/cyfitter_cfg.c **** 	/* Perform basic analog initialization to defaults */
 390:.\Generated_Source\PSoC5/cyfitter_cfg.c **** 	AnalogSetDefault();
 499              		.loc 1 390 0
 500 0096 FFF7FEFF 		bl	AnalogSetDefault
 501              	.LVL43:
 391:.\Generated_Source\PSoC5/cyfitter_cfg.c **** 
 392:.\Generated_Source\PSoC5/cyfitter_cfg.c **** 	/* Configure alternate active mode */
 393:.\Generated_Source\PSoC5/cyfitter_cfg.c **** 	CYCONFIGCPY((void CYFAR *)CYDEV_PM_STBY_BASE, (const void CYFAR *)CYDEV_PM_ACT_BASE, 14u);
 502              		.loc 1 393 0
 503 009a 0F48     		ldr	r0, .L34+48
 504 009c 2146     		mov	r1, r4
 505 009e 0E22     		movs	r2, #14
 506 00a0 FFF7FEFF 		bl	CYCONFIGCPY
 507              	.LVL44:
 508 00a4 70BD     		pop	{r4, r5, r6, pc}
 509              	.L35:
 510 00a6 00BF     		.align	2
 511              	.L34:
 512 00a8 E8460040 		.word	1073759976
 513 00ac 00000000 		.word	.LANCHOR0
 514 00b0 38000048 		.word	1207959608
 515 00b4 03500140 		.word	1073827843
 516 00b8 A0430040 		.word	1073759136
 517 00bc 02510040 		.word	1073762562
 518 00c0 70000048 		.word	1207959664
 519 00c4 22510040 		.word	1073762594
 520 00c8 78000048 		.word	1207959672
 521 00cc 22430040 		.word	1073759010
 522 00d0 00480040 		.word	1073760256
 523 00d4 04000840 		.word	1074266116
 524 00d8 B0430040 		.word	1073759152
 525              		.cfi_endproc
 526              	.LFE8:
 527              		.size	cyfitter_cfg, .-cyfitter_cfg
 528              		.section	.rodata
 529              		.align	2
 530              		.set	.LANCHOR0,. + 0
 531              		.type	cfg_memset_list.4883, %object
 532              		.size	cfg_memset_list.4883, 54
 533              	cfg_memset_list.4883:
 534 0000 10510040 		.word	1073762576
 535 0004 1000     		.short	16
 536 0006 30510040 		.4byte	1073762608
ARM GAS  C:\Users\HENRYA~1\AppData\Local\Temp\ccwFNWmq.s 			page 18


 537 000a 4000     		.short	64
 538 000c C0510040 		.word	1073762752
 539 0010 1000     		.short	16
 540 0012 F0510040 		.4byte	1073762800
 541 0016 1000     		.short	16
 542 0018 00000140 		.word	1073807360
 543 001c 0010     		.short	4096
 544 001e 00140140 		.4byte	1073812480
 545 0022 0008     		.short	2048
 546 0024 00400140 		.word	1073823744
 547 0028 000A     		.short	2560
 548 002a 004C0140 		.4byte	1073826816
 549 002e 0002     		.short	512
 550 0030 00500140 		.word	1073827840
 551 0034 2000     		.short	32
 552 0036 0000     		.text
 553              	.Letext0:
 554              		.file 2 "c:\\program files (x86)\\cypress\\psoc creator\\3.3\\psoc creator\\import\\gnu\\arm\\4.9.
 555              		.file 3 ".\\Generated_Source\\PSoC5\\cytypes.h"
 556              		.file 4 ".\\Generated_Source\\PSoC5\\CyLib.h"