ARM GAS  C:\Users\HENRYA~1\AppData\Local\Temp\ccgOQJJb.s 			page 1


   1              		.syntax unified
   2              		.cpu cortex-m0
   3              		.fpu softvfp
   4              		.eabi_attribute 20, 1
   5              		.eabi_attribute 21, 1
   6              		.eabi_attribute 23, 3
   7              		.eabi_attribute 24, 1
   8              		.eabi_attribute 25, 1
   9              		.eabi_attribute 26, 1
  10              		.eabi_attribute 30, 1
  11              		.eabi_attribute 34, 0
  12              		.eabi_attribute 18, 4
  13              		.thumb
  14              		.syntax unified
  15              		.file	"main.c"
  16              		.text
  17              	.Ltext0:
  18              		.cfi_sections	.debug_frame
  19              		.section	.text.Serial_Interrupt,"ax",%progbits
  20              		.align	2
  21              		.global	Serial_Interrupt
  22              		.code	16
  23              		.thumb_func
  24              		.type	Serial_Interrupt, %function
  25              	Serial_Interrupt:
  26              	.LFB45:
  27              		.file 1 "main.c"
   1:main.c        **** //Import Libraries
   2:main.c        **** #include <project.h>
   3:main.c        **** #include <stdio.h>
   4:main.c        **** #include <stdlib.h>
   5:main.c        **** #include <math.h>
   6:main.c        **** #include <protocolo can.h>
   7:main.c        **** //Global Variables
   8:main.c        **** uint8 mailbox0[8];
   9:main.c        **** uint8 mailbox1[8];
  10:main.c        **** uint8 mailbox2[8];
  11:main.c        **** uint8 dato_enviado[8];
  12:main.c        **** uint8 dato_enviado_1[8];
  13:main.c        **** char dist=0;
  14:main.c        **** int16 conta=0;
  15:main.c        **** int cantidadM=0;
  16:main.c        **** //Variables AE
  17:main.c        **** int16 Max_Conta=100;
  18:main.c        **** float Amplitud_H=0.0;
  19:main.c        **** float Amplitud_V=0.0;
  20:main.c        **** float Offset=0.833;
  21:main.c        **** float Fase=0.0;
  22:main.c        **** float peso_Amp_H=0.0;
  23:main.c        **** float peso_Fase_H=0.0;
  24:main.c        **** float peso_Off_H=0.0;
  25:main.c        **** float peso_Amp_V=0.0;
  26:main.c        **** float peso_Fase_V=0.0;
  27:main.c        **** float peso_Off_V=0.0;
  28:main.c        **** int flag=0;
  29:main.c        **** float L_actual=0.0;
  30:main.c        **** float L_anterior=0.0;
ARM GAS  C:\Users\HENRYA~1\AppData\Local\Temp\ccgOQJJb.s 			page 2


  31:main.c        **** int conta_H=0;
  32:main.c        **** int punto_a=0;
  33:main.c        **** int punto_b=0;
  34:main.c        **** int move_s=0;
  35:main.c        **** 
  36:main.c        **** //Generating Function of Random Numbers
  37:main.c        **** double randd() {
  38:main.c        ****   return (double)rand()/((double)RAND_MAX + 1);
  39:main.c        **** }
  40:main.c        **** 
  41:main.c        **** //Amplitud Generator
  42:main.c        **** double random_amplitud(){
  43:main.c        ****     return randd();
  44:main.c        **** }
  45:main.c        **** 
  46:main.c        **** //Phase Generator
  47:main.c        **** double random_Fase(){
  48:main.c        ****     float r=0.0;
  49:main.c        ****     r=randd();
  50:main.c        ****     if(r>0.5){return randd();}
  51:main.c        ****     else{return randd()*-1;}
  52:main.c        **** }
  53:main.c        **** 
  54:main.c        **** //Offset Genrator
  55:main.c        **** double random_Offset(){
  56:main.c        ****     float r=0.0;
  57:main.c        ****     r=randd();
  58:main.c        ****     r=r*0.5;
  59:main.c        ****     r=r+0.3;
  60:main.c        ****     return r;
  61:main.c        **** }
  62:main.c        **** 
  63:main.c        **** //Send Theta using CAN
  64:main.c        **** void Send_Angle(int datas,int Conta3){ 
  65:main.c        ****     int8 datoL=datas;
  66:main.c        ****     int8 datoH=datas>>8;  
  67:main.c        ****     dato_enviado[0]=VER2;       //Check Bit
  68:main.c        ****     dato_enviado[1]=Conta3;     //Address Previous Module
  69:main.c        ****     dato_enviado[2]=Conta3;     //Address Module Next
  70:main.c        ****     dato_enviado[3]=ANGLE;
  71:main.c        ****     dato_enviado[4]=0;          
  72:main.c        ****     dato_enviado[5]=0;          //who send
  73:main.c        ****     dato_enviado[6]=0;
  74:main.c        ****     dato_enviado[7]=Conta3;
  75:main.c        ****     CAN_SendMsg0(); 
  76:main.c        ****     CyDelay(50);
  77:main.c        **** }
  78:main.c        **** 
  79:main.c        **** void Enviar_Parametros(float Amplitud,float Phase,float Offset,int Orientacion){
  80:main.c        ****     //Convertir el Valor a entero para ser enviado
  81:main.c        ****     int Amp_env=(int)fabs(Amplitud*10000);
  82:main.c        ****     int Phase_env=(int)fabs(Phase*10000);
  83:main.c        ****     int Offset_env=(int)fabs(Offset*10000);
  84:main.c        ****     //Enviar datos
  85:main.c        ****     dato_enviado_1[0]=VER_M1;
  86:main.c        ****     dato_enviado_1[1]=Orientacion;
  87:main.c        ****     //Convertir Amplitud
ARM GAS  C:\Users\HENRYA~1\AppData\Local\Temp\ccgOQJJb.s 			page 3


  88:main.c        ****     uint8 datoL=Amp_env;
  89:main.c        ****     uint8 datoH=Amp_env>>8;
  90:main.c        ****     uint8 Aux=0;
  91:main.c        ****     if(Amplitud<0.0){
  92:main.c        ****         Aux=(1<<7);
  93:main.c        ****         datoH=datoH+Aux;
  94:main.c        ****     }
  95:main.c        ****     else{
  96:main.c        ****         Aux=(0<<7);
  97:main.c        ****         datoH=datoH+Aux;    
  98:main.c        ****     }
  99:main.c        ****     dato_enviado_1[2]=datoL;
 100:main.c        ****     dato_enviado_1[3]=datoH;
 101:main.c        ****     //Convertir Fase
 102:main.c        ****     datoL=Phase_env;
 103:main.c        ****     datoH=Phase_env>>8;
 104:main.c        ****     if(Phase<0.0){
 105:main.c        ****         Aux=(1<<7);
 106:main.c        ****         datoH=datoH+Aux;
 107:main.c        ****     }
 108:main.c        ****     else{
 109:main.c        ****         Aux=(0<<7);
 110:main.c        ****         datoH=datoH+Aux;    
 111:main.c        ****     }
 112:main.c        ****     dato_enviado_1[4]=datoL;
 113:main.c        ****     dato_enviado_1[5]=datoH;
 114:main.c        ****     //Convertir Offset
 115:main.c        ****     datoL=Offset_env;
 116:main.c        ****     datoH=Offset_env>>8;
 117:main.c        ****     if(Offset<0.0){
 118:main.c        ****         Aux=(1<<7);
 119:main.c        ****         datoH=datoH+Aux;
 120:main.c        ****     }
 121:main.c        ****     else{
 122:main.c        ****         Aux=(0<<7);
 123:main.c        ****         datoH=datoH+Aux;    
 124:main.c        ****     }
 125:main.c        ****     dato_enviado_1[6]=datoL;
 126:main.c        ****     dato_enviado_1[7]=datoH;    
 127:main.c        ****     CAN_SendMsg1();
 128:main.c        ****     CyDelay(25);
 129:main.c        **** }
 130:main.c        **** 
 131:main.c        **** //Interrupt's
 132:main.c        **** void Recibe_mail_0(){
 133:main.c        **** if(mailbox0[0]==VER){
 134:main.c        ****             switch(mailbox0[2]){
 135:main.c        ****             ///////////////////////////////////////////////////////
 136:main.c        ****             case ESCRITURA:{ 
 137:main.c        ****                 switch(mailbox0[3]){//////////+6+++++++++++++
 138:main.c        ****                     case CANTIDAD_MOD: 
 139:main.c        ****                             cantidadM=mailbox0[4];                           
 140:main.c        ****                     break;
 141:main.c        ****                     case START:
 142:main.c        ****                         
 143:main.c        ****                     break;
 144:main.c        ****                 }
ARM GAS  C:\Users\HENRYA~1\AppData\Local\Temp\ccgOQJJb.s 			page 4


 145:main.c        ****             }                                            
 146:main.c        ****         }    
 147:main.c        **** }
 148:main.c        **** if(mailbox0[0]==VER2){
 149:main.c        ****                 switch(mailbox0[3]){
 150:main.c        ****                 ///////////////////////////////////////////////////////
 151:main.c        ****                 case ANGLE:{
 152:main.c        ****                     int Contador=mailbox0[7];
 153:main.c        ****                     if(Contador>=cantidadM){
 154:main.c        ****                     } 
 155:main.c        ****                 }
 156:main.c        ****                 break;}
 157:main.c        ****             } 
 158:main.c        **** }
 159:main.c        **** 
 160:main.c        **** void Recibe_Mail_2(){
 161:main.c        ****     if(mailbox2[0]==SENSORES){
 162:main.c        ****         //Mailbox2[1] Derecha
 163:main.c        ****         //Mailbox2[2] Frente
 164:main.c        ****         //Mailbox2[3] Izquierda
 165:main.c        ****         if(mailbox2[1]==0&&mailbox2[2]==0&&mailbox2[3]==0)      {peso_Amp_V=1;peso_Fase_V=-0.5;peso
 166:main.c        ****         else if(mailbox2[1]==0&&mailbox2[2]==0&&mailbox2[3]==1) {peso_Amp_V=1;peso_Fase_V=-0.5;peso
 167:main.c        ****         else if(mailbox2[1]==0&&mailbox2[2]==1&&mailbox2[3]==0) {peso_Amp_V=0.3;peso_Fase_V=0.5;pes
 168:main.c        ****         else if(mailbox2[1]==0&&mailbox2[2]==1&&mailbox2[3]==1) {peso_Amp_V=0.3;peso_Fase_V=-0.5;pe
 169:main.c        ****         else if(mailbox2[1]==1&&mailbox2[2]==0&&mailbox2[3]==0) {peso_Amp_V=1;peso_Fase_V=-0.5;peso
 170:main.c        ****         else if(mailbox2[1]==1&&mailbox2[2]==0&&mailbox2[3]==1) {peso_Amp_V=1;peso_Fase_V=-0.5;peso
 171:main.c        ****         else if(mailbox2[1]==1&&mailbox2[2]==1&&mailbox2[3]==0) {peso_Amp_V=0.3;peso_Fase_V=-0.5;pe
 172:main.c        ****         else if(mailbox2[1]==1&&mailbox2[2]==1&&mailbox2[3]==1) {peso_Amp_V=1;peso_Fase_V=0.5;peso_
 173:main.c        ****         else                                                    {peso_Amp_V=1;peso_Fase_V=-0.5;peso
 174:main.c        ****     }
 175:main.c        **** }
 176:main.c        **** 
 177:main.c        **** CY_ISR(Serial_Interrupt){
  28              		.loc 1 177 0
  29              		.cfi_startproc
  30              		@ args = 0, pretend = 0, frame = 0
  31              		@ frame_needed = 0, uses_anonymous_args = 0
  32 0000 10B5     		push	{r4, lr}
  33              		.cfi_def_cfa_offset 8
  34              		.cfi_offset 4, -8
  35              		.cfi_offset 14, -4
 178:main.c        ****    dist=SENSOR_U_GetChar();
  36              		.loc 1 178 0
  37 0002 FFF7FEFF 		bl	SENSOR_U_GetChar
  38              	.LVL0:
  39 0006 014B     		ldr	r3, .L2
  40 0008 1870     		strb	r0, [r3]
 179:main.c        **** }
  41              		.loc 1 179 0
  42              		@ sp needed
  43 000a 10BD     		pop	{r4, pc}
  44              	.L3:
  45              		.align	2
  46              	.L2:
  47 000c 00000000 		.word	.LANCHOR0
  48              		.cfi_endproc
  49              	.LFE45:
ARM GAS  C:\Users\HENRYA~1\AppData\Local\Temp\ccgOQJJb.s 			page 5


  50              		.size	Serial_Interrupt, .-Serial_Interrupt
  51              		.global	__aeabi_i2d
  52              		.global	__aeabi_dmul
  53              		.section	.text.randd,"ax",%progbits
  54              		.align	2
  55              		.global	randd
  56              		.code	16
  57              		.thumb_func
  58              		.type	randd, %function
  59              	randd:
  60              	.LFB37:
  37:main.c        ****   return (double)rand()/((double)RAND_MAX + 1);
  61              		.loc 1 37 0
  62              		.cfi_startproc
  63              		@ args = 0, pretend = 0, frame = 0
  64              		@ frame_needed = 0, uses_anonymous_args = 0
  65 0000 10B5     		push	{r4, lr}
  66              		.cfi_def_cfa_offset 8
  67              		.cfi_offset 4, -8
  68              		.cfi_offset 14, -4
  38:main.c        **** }
  69              		.loc 1 38 0
  70 0002 FFF7FEFF 		bl	rand
  71              	.LVL1:
  72 0006 FFF7FEFF 		bl	__aeabi_i2d
  73              	.LVL2:
  74 000a 0022     		movs	r2, #0
  75 000c F823     		movs	r3, #248
  76 000e 9B05     		lsls	r3, r3, #22
  77 0010 FFF7FEFF 		bl	__aeabi_dmul
  78              	.LVL3:
  39:main.c        **** 
  79              		.loc 1 39 0
  80              		@ sp needed
  81 0014 10BD     		pop	{r4, pc}
  82              		.cfi_endproc
  83              	.LFE37:
  84              		.size	randd, .-randd
  85 0016 C046     		.section	.text.random_amplitud,"ax",%progbits
  86              		.align	2
  87              		.global	random_amplitud
  88              		.code	16
  89              		.thumb_func
  90              		.type	random_amplitud, %function
  91              	random_amplitud:
  92              	.LFB38:
  42:main.c        ****     return randd();
  93              		.loc 1 42 0
  94              		.cfi_startproc
  95              		@ args = 0, pretend = 0, frame = 0
  96              		@ frame_needed = 0, uses_anonymous_args = 0
  97 0000 10B5     		push	{r4, lr}
  98              		.cfi_def_cfa_offset 8
  99              		.cfi_offset 4, -8
 100              		.cfi_offset 14, -4
  43:main.c        **** }
 101              		.loc 1 43 0
ARM GAS  C:\Users\HENRYA~1\AppData\Local\Temp\ccgOQJJb.s 			page 6


 102 0002 FFF7FEFF 		bl	randd
 103              	.LVL4:
  44:main.c        **** 
 104              		.loc 1 44 0
 105              		@ sp needed
 106 0006 10BD     		pop	{r4, pc}
 107              		.cfi_endproc
 108              	.LFE38:
 109              		.size	random_amplitud, .-random_amplitud
 110              		.global	__aeabi_d2f
 111              		.global	__aeabi_fcmpgt
 112              		.section	.text.random_Fase,"ax",%progbits
 113              		.align	2
 114              		.global	random_Fase
 115              		.code	16
 116              		.thumb_func
 117              		.type	random_Fase, %function
 118              	random_Fase:
 119              	.LFB39:
  47:main.c        ****     float r=0.0;
 120              		.loc 1 47 0
 121              		.cfi_startproc
 122              		@ args = 0, pretend = 0, frame = 0
 123              		@ frame_needed = 0, uses_anonymous_args = 0
 124 0000 10B5     		push	{r4, lr}
 125              		.cfi_def_cfa_offset 8
 126              		.cfi_offset 4, -8
 127              		.cfi_offset 14, -4
 128              	.LVL5:
  49:main.c        ****     if(r>0.5){return randd();}
 129              		.loc 1 49 0
 130 0002 FFF7FEFF 		bl	randd
 131              	.LVL6:
 132 0006 FFF7FEFF 		bl	__aeabi_d2f
 133              	.LVL7:
  50:main.c        ****     else{return randd()*-1;}
 134              		.loc 1 50 0
 135 000a FC21     		movs	r1, #252
 136 000c 8905     		lsls	r1, r1, #22
 137 000e FFF7FEFF 		bl	__aeabi_fcmpgt
 138              	.LVL8:
 139 0012 0028     		cmp	r0, #0
 140 0014 02D0     		beq	.L11
  50:main.c        ****     else{return randd()*-1;}
 141              		.loc 1 50 0 is_stmt 0 discriminator 1
 142 0016 FFF7FEFF 		bl	randd
 143              	.LVL9:
 144 001a 05E0     		b	.L9
 145              	.L11:
  51:main.c        **** }
 146              		.loc 1 51 0 is_stmt 1
 147 001c FFF7FEFF 		bl	randd
 148              	.LVL10:
 149 0020 8023     		movs	r3, #128
 150 0022 1B06     		lsls	r3, r3, #24
 151 0024 9C46     		mov	ip, r3
 152 0026 6144     		add	r1, r1, ip
ARM GAS  C:\Users\HENRYA~1\AppData\Local\Temp\ccgOQJJb.s 			page 7


 153              	.L9:
  52:main.c        **** 
 154              		.loc 1 52 0
 155              		@ sp needed
 156 0028 10BD     		pop	{r4, pc}
 157              		.cfi_endproc
 158              	.LFE39:
 159              		.size	random_Fase, .-random_Fase
 160              		.global	__aeabi_fmul
 161              		.global	__aeabi_f2d
 162              		.global	__aeabi_dadd
 163 002a C046     		.section	.text.random_Offset,"ax",%progbits
 164              		.align	2
 165              		.global	random_Offset
 166              		.code	16
 167              		.thumb_func
 168              		.type	random_Offset, %function
 169              	random_Offset:
 170              	.LFB40:
  55:main.c        ****     float r=0.0;
 171              		.loc 1 55 0
 172              		.cfi_startproc
 173              		@ args = 0, pretend = 0, frame = 0
 174              		@ frame_needed = 0, uses_anonymous_args = 0
 175 0000 10B5     		push	{r4, lr}
 176              		.cfi_def_cfa_offset 8
 177              		.cfi_offset 4, -8
 178              		.cfi_offset 14, -4
 179              	.LVL11:
  57:main.c        ****     r=r*0.5;
 180              		.loc 1 57 0
 181 0002 FFF7FEFF 		bl	randd
 182              	.LVL12:
 183 0006 FFF7FEFF 		bl	__aeabi_d2f
 184              	.LVL13:
  58:main.c        ****     r=r+0.3;
 185              		.loc 1 58 0
 186 000a FC21     		movs	r1, #252
 187 000c 8905     		lsls	r1, r1, #22
 188 000e FFF7FEFF 		bl	__aeabi_fmul
 189              	.LVL14:
  59:main.c        ****     return r;
 190              		.loc 1 59 0
 191 0012 FFF7FEFF 		bl	__aeabi_f2d
 192              	.LVL15:
 193 0016 044A     		ldr	r2, .L13
 194 0018 044B     		ldr	r3, .L13+4
 195 001a FFF7FEFF 		bl	__aeabi_dadd
 196              	.LVL16:
 197 001e FFF7FEFF 		bl	__aeabi_d2f
 198              	.LVL17:
  60:main.c        **** }
 199              		.loc 1 60 0
 200 0022 FFF7FEFF 		bl	__aeabi_f2d
 201              	.LVL18:
  61:main.c        **** 
 202              		.loc 1 61 0
ARM GAS  C:\Users\HENRYA~1\AppData\Local\Temp\ccgOQJJb.s 			page 8


 203              		@ sp needed
 204 0026 10BD     		pop	{r4, pc}
 205              	.L14:
 206              		.align	2
 207              	.L13:
 208 0028 33333333 		.word	858993459
 209 002c 3333D33F 		.word	1070805811
 210              		.cfi_endproc
 211              	.LFE40:
 212              		.size	random_Offset, .-random_Offset
 213              		.section	.text.Send_Angle,"ax",%progbits
 214              		.align	2
 215              		.global	Send_Angle
 216              		.code	16
 217              		.thumb_func
 218              		.type	Send_Angle, %function
 219              	Send_Angle:
 220              	.LFB41:
  64:main.c        ****     int8 datoL=datas;
 221              		.loc 1 64 0
 222              		.cfi_startproc
 223              		@ args = 0, pretend = 0, frame = 0
 224              		@ frame_needed = 0, uses_anonymous_args = 0
 225              	.LVL19:
 226 0000 10B5     		push	{r4, lr}
 227              		.cfi_def_cfa_offset 8
 228              		.cfi_offset 4, -8
 229              		.cfi_offset 14, -4
 230              	.LVL20:
  67:main.c        ****     dato_enviado[1]=Conta3;     //Address Previous Module
 231              		.loc 1 67 0
 232 0002 094B     		ldr	r3, .L16
 233 0004 8022     		movs	r2, #128
 234 0006 1A70     		strb	r2, [r3]
  68:main.c        ****     dato_enviado[2]=Conta3;     //Address Module Next
 235              		.loc 1 68 0
 236 0008 C9B2     		uxtb	r1, r1
 237              	.LVL21:
 238 000a 5970     		strb	r1, [r3, #1]
  69:main.c        ****     dato_enviado[3]=ANGLE;
 239              		.loc 1 69 0
 240 000c 9970     		strb	r1, [r3, #2]
  70:main.c        ****     dato_enviado[4]=0;          
 241              		.loc 1 70 0
 242 000e 653A     		subs	r2, r2, #101
 243 0010 DA70     		strb	r2, [r3, #3]
  71:main.c        ****     dato_enviado[5]=0;          //who send
 244              		.loc 1 71 0
 245 0012 0022     		movs	r2, #0
 246 0014 1A71     		strb	r2, [r3, #4]
  72:main.c        ****     dato_enviado[6]=0;
 247              		.loc 1 72 0
 248 0016 5A71     		strb	r2, [r3, #5]
  73:main.c        ****     dato_enviado[7]=Conta3;
 249              		.loc 1 73 0
 250 0018 9A71     		strb	r2, [r3, #6]
  74:main.c        ****     CAN_SendMsg0(); 
ARM GAS  C:\Users\HENRYA~1\AppData\Local\Temp\ccgOQJJb.s 			page 9


 251              		.loc 1 74 0
 252 001a D971     		strb	r1, [r3, #7]
  75:main.c        ****     CyDelay(50);
 253              		.loc 1 75 0
 254 001c FFF7FEFF 		bl	CAN_SendMsg0
 255              	.LVL22:
  76:main.c        **** }
 256              		.loc 1 76 0
 257 0020 3220     		movs	r0, #50
 258 0022 FFF7FEFF 		bl	CyDelay
 259              	.LVL23:
  77:main.c        **** 
 260              		.loc 1 77 0
 261              		@ sp needed
 262 0026 10BD     		pop	{r4, pc}
 263              	.L17:
 264              		.align	2
 265              	.L16:
 266 0028 00000000 		.word	dato_enviado
 267              		.cfi_endproc
 268              	.LFE41:
 269              		.size	Send_Angle, .-Send_Angle
 270              		.global	__aeabi_f2iz
 271              		.global	__aeabi_fcmplt
 272              		.section	.text.Enviar_Parametros,"ax",%progbits
 273              		.align	2
 274              		.global	Enviar_Parametros
 275              		.code	16
 276              		.thumb_func
 277              		.type	Enviar_Parametros, %function
 278              	Enviar_Parametros:
 279              	.LFB42:
  79:main.c        ****     //Convertir el Valor a entero para ser enviado
 280              		.loc 1 79 0
 281              		.cfi_startproc
 282              		@ args = 0, pretend = 0, frame = 16
 283              		@ frame_needed = 0, uses_anonymous_args = 0
 284              	.LVL24:
 285 0000 F0B5     		push	{r4, r5, r6, r7, lr}
 286              		.cfi_def_cfa_offset 20
 287              		.cfi_offset 4, -20
 288              		.cfi_offset 5, -16
 289              		.cfi_offset 6, -12
 290              		.cfi_offset 7, -8
 291              		.cfi_offset 14, -4
 292 0002 85B0     		sub	sp, sp, #20
 293              		.cfi_def_cfa_offset 40
 294 0004 0190     		str	r0, [sp, #4]
 295 0006 0291     		str	r1, [sp, #8]
 296 0008 0392     		str	r2, [sp, #12]
 297 000a 1F00     		movs	r7, r3
  81:main.c        ****     int Phase_env=(int)fabs(Phase*10000);
 298              		.loc 1 81 0
 299 000c 2749     		ldr	r1, .L28
 300              	.LVL25:
 301 000e FFF7FEFF 		bl	__aeabi_fmul
 302              	.LVL26:
ARM GAS  C:\Users\HENRYA~1\AppData\Local\Temp\ccgOQJJb.s 			page 10


 303 0012 4000     		lsls	r0, r0, #1
 304 0014 4008     		lsrs	r0, r0, #1
 305 0016 FFF7FEFF 		bl	__aeabi_f2iz
 306              	.LVL27:
 307 001a 0600     		movs	r6, r0
 308              	.LVL28:
  82:main.c        ****     int Offset_env=(int)fabs(Offset*10000);
 309              		.loc 1 82 0
 310 001c 2349     		ldr	r1, .L28
 311 001e 0298     		ldr	r0, [sp, #8]
 312              	.LVL29:
 313 0020 FFF7FEFF 		bl	__aeabi_fmul
 314              	.LVL30:
 315 0024 4000     		lsls	r0, r0, #1
 316 0026 4008     		lsrs	r0, r0, #1
 317 0028 FFF7FEFF 		bl	__aeabi_f2iz
 318              	.LVL31:
 319 002c 0500     		movs	r5, r0
 320              	.LVL32:
  83:main.c        ****     //Enviar datos
 321              		.loc 1 83 0
 322 002e 1F49     		ldr	r1, .L28
 323 0030 0398     		ldr	r0, [sp, #12]
 324              	.LVL33:
 325 0032 FFF7FEFF 		bl	__aeabi_fmul
 326              	.LVL34:
 327 0036 4000     		lsls	r0, r0, #1
 328 0038 4008     		lsrs	r0, r0, #1
 329 003a FFF7FEFF 		bl	__aeabi_f2iz
 330              	.LVL35:
 331 003e 0400     		movs	r4, r0
 332              	.LVL36:
  85:main.c        ****     dato_enviado_1[1]=Orientacion;
 333              		.loc 1 85 0
 334 0040 1B4B     		ldr	r3, .L28+4
 335 0042 8122     		movs	r2, #129
 336 0044 1A70     		strb	r2, [r3]
  86:main.c        ****     //Convertir Amplitud
 337              		.loc 1 86 0
 338 0046 5F70     		strb	r7, [r3, #1]
  88:main.c        ****     uint8 datoH=Amp_env>>8;
 339              		.loc 1 88 0
 340 0048 F7B2     		uxtb	r7, r6
 341              	.LVL37:
  89:main.c        ****     uint8 Aux=0;
 342              		.loc 1 89 0
 343 004a 3612     		asrs	r6, r6, #8
 344              	.LVL38:
 345 004c F6B2     		uxtb	r6, r6
 346              	.LVL39:
  91:main.c        ****         Aux=(1<<7);
 347              		.loc 1 91 0
 348 004e 0021     		movs	r1, #0
 349 0050 0198     		ldr	r0, [sp, #4]
 350              	.LVL40:
 351 0052 FFF7FEFF 		bl	__aeabi_fcmplt
 352              	.LVL41:
ARM GAS  C:\Users\HENRYA~1\AppData\Local\Temp\ccgOQJJb.s 			page 11


 353 0056 0028     		cmp	r0, #0
 354 0058 01D0     		beq	.L19
 355              	.LVL42:
  93:main.c        ****     }
 356              		.loc 1 93 0
 357 005a 803E     		subs	r6, r6, #128
 358              	.LVL43:
 359 005c F6B2     		uxtb	r6, r6
 360              	.LVL44:
 361              	.L19:
  99:main.c        ****     dato_enviado_1[3]=datoH;
 362              		.loc 1 99 0
 363 005e 144B     		ldr	r3, .L28+4
 364 0060 9F70     		strb	r7, [r3, #2]
 100:main.c        ****     //Convertir Fase
 365              		.loc 1 100 0
 366 0062 DE70     		strb	r6, [r3, #3]
 102:main.c        ****     datoH=Phase_env>>8;
 367              		.loc 1 102 0
 368 0064 EEB2     		uxtb	r6, r5
 369              	.LVL45:
 103:main.c        ****     if(Phase<0.0){
 370              		.loc 1 103 0
 371 0066 2D12     		asrs	r5, r5, #8
 372              	.LVL46:
 373 0068 EDB2     		uxtb	r5, r5
 374              	.LVL47:
 104:main.c        ****         Aux=(1<<7);
 375              		.loc 1 104 0
 376 006a 0021     		movs	r1, #0
 377 006c 0298     		ldr	r0, [sp, #8]
 378 006e FFF7FEFF 		bl	__aeabi_fcmplt
 379              	.LVL48:
 380 0072 0028     		cmp	r0, #0
 381 0074 01D0     		beq	.L21
 382              	.LVL49:
 106:main.c        ****     }
 383              		.loc 1 106 0
 384 0076 803D     		subs	r5, r5, #128
 385              	.LVL50:
 386 0078 EDB2     		uxtb	r5, r5
 387              	.LVL51:
 388              	.L21:
 112:main.c        ****     dato_enviado_1[5]=datoH;
 389              		.loc 1 112 0
 390 007a 0D4B     		ldr	r3, .L28+4
 391 007c 1E71     		strb	r6, [r3, #4]
 113:main.c        ****     //Convertir Offset
 392              		.loc 1 113 0
 393 007e 5D71     		strb	r5, [r3, #5]
 115:main.c        ****     datoH=Offset_env>>8;
 394              		.loc 1 115 0
 395 0080 E5B2     		uxtb	r5, r4
 396              	.LVL52:
 116:main.c        ****     if(Offset<0.0){
 397              		.loc 1 116 0
 398 0082 2412     		asrs	r4, r4, #8
ARM GAS  C:\Users\HENRYA~1\AppData\Local\Temp\ccgOQJJb.s 			page 12


 399              	.LVL53:
 400 0084 E4B2     		uxtb	r4, r4
 401              	.LVL54:
 117:main.c        ****         Aux=(1<<7);
 402              		.loc 1 117 0
 403 0086 0021     		movs	r1, #0
 404 0088 0398     		ldr	r0, [sp, #12]
 405 008a FFF7FEFF 		bl	__aeabi_fcmplt
 406              	.LVL55:
 407 008e 0028     		cmp	r0, #0
 408 0090 01D0     		beq	.L23
 409              	.LVL56:
 119:main.c        ****     }
 410              		.loc 1 119 0
 411 0092 803C     		subs	r4, r4, #128
 412              	.LVL57:
 413 0094 E4B2     		uxtb	r4, r4
 414              	.LVL58:
 415              	.L23:
 125:main.c        ****     dato_enviado_1[7]=datoH;    
 416              		.loc 1 125 0
 417 0096 064B     		ldr	r3, .L28+4
 418 0098 9D71     		strb	r5, [r3, #6]
 126:main.c        ****     CAN_SendMsg1();
 419              		.loc 1 126 0
 420 009a DC71     		strb	r4, [r3, #7]
 127:main.c        ****     CyDelay(25);
 421              		.loc 1 127 0
 422 009c FFF7FEFF 		bl	CAN_SendMsg1
 423              	.LVL59:
 128:main.c        **** }
 424              		.loc 1 128 0
 425 00a0 1920     		movs	r0, #25
 426 00a2 FFF7FEFF 		bl	CyDelay
 427              	.LVL60:
 129:main.c        **** 
 428              		.loc 1 129 0
 429 00a6 05B0     		add	sp, sp, #20
 430              		@ sp needed
 431              	.LVL61:
 432              	.LVL62:
 433 00a8 F0BD     		pop	{r4, r5, r6, r7, pc}
 434              	.L29:
 435 00aa C046     		.align	2
 436              	.L28:
 437 00ac 00401C46 		.word	1176256512
 438 00b0 00000000 		.word	dato_enviado_1
 439              		.cfi_endproc
 440              	.LFE42:
 441              		.size	Enviar_Parametros, .-Enviar_Parametros
 442              		.global	__aeabi_fadd
 443              		.section	.text.Temporizador,"ax",%progbits
 444              		.align	2
 445              		.global	Temporizador
 446              		.code	16
 447              		.thumb_func
 448              		.type	Temporizador, %function
ARM GAS  C:\Users\HENRYA~1\AppData\Local\Temp\ccgOQJJb.s 			page 13


 449              	Temporizador:
 450              	.LFB47:
 180:main.c        **** 
 181:main.c        **** CY_ISR(interrutcan){
 182:main.c        ****     CAN_GlobalIntDisable();
 183:main.c        ****     CAN_MsgRXIsr();  
 184:main.c        ****     Recibe_mail_0();
 185:main.c        ****     Recibe_Mail_2();
 186:main.c        ****     CAN_GlobalIntEnable();
 187:main.c        **** }
 188:main.c        **** 
 189:main.c        **** CY_ISR(Temporizador){
 451              		.loc 1 189 0
 452              		.cfi_startproc
 453              		@ args = 0, pretend = 0, frame = 8
 454              		@ frame_needed = 0, uses_anonymous_args = 0
 455 0000 F0B5     		push	{r4, r5, r6, r7, lr}
 456              		.cfi_def_cfa_offset 20
 457              		.cfi_offset 4, -20
 458              		.cfi_offset 5, -16
 459              		.cfi_offset 6, -12
 460              		.cfi_offset 7, -8
 461              		.cfi_offset 14, -4
 462 0002 83B0     		sub	sp, sp, #12
 463              		.cfi_def_cfa_offset 32
 190:main.c        ****     conta++;
 464              		.loc 1 190 0
 465 0004 364A     		ldr	r2, .L39
 466 0006 5388     		ldrh	r3, [r2, #2]
 467 0008 0133     		adds	r3, r3, #1
 468 000a 1BB2     		sxth	r3, r3
 469 000c 5380     		strh	r3, [r2, #2]
 191:main.c        ****     if(conta==Max_Conta){    
 470              		.loc 1 191 0
 471 000e 354A     		ldr	r2, .L39+4
 472 0010 0021     		movs	r1, #0
 473 0012 525E     		ldrsh	r2, [r2, r1]
 474 0014 9342     		cmp	r3, r2
 475 0016 5ED1     		bne	.L31
 192:main.c        ****         LED_1_Write(1);
 476              		.loc 1 192 0
 477 0018 0120     		movs	r0, #1
 478 001a FFF7FEFF 		bl	LED_1_Write
 479              	.LVL63:
 193:main.c        ****         if(flag==0){//Verificar Sensores
 480              		.loc 1 193 0
 481 001e 304B     		ldr	r3, .L39
 482 0020 5B68     		ldr	r3, [r3, #4]
 483 0022 002B     		cmp	r3, #0
 484 0024 15D0     		beq	.L38
 485 0026 0025     		movs	r5, #0
 486 0028 49E0     		b	.L33
 487              	.LVL64:
 488              	.L34:
 489              	.LBB2:
 194:main.c        ****             for(int i=0;i<10;i++){
 195:main.c        ****                 Enviar_Parametros(0.0,Fase,Offset,H);
ARM GAS  C:\Users\HENRYA~1\AppData\Local\Temp\ccgOQJJb.s 			page 14


 490              		.loc 1 195 0 discriminator 3
 491 002a 2E4F     		ldr	r7, .L39+4
 492 002c 2C4E     		ldr	r6, .L39
 493 002e 0025     		movs	r5, #0
 494 0030 2023     		movs	r3, #32
 495 0032 7A68     		ldr	r2, [r7, #4]
 496 0034 B168     		ldr	r1, [r6, #8]
 497 0036 281C     		adds	r0, r5, #0
 498 0038 FFF7FEFF 		bl	Enviar_Parametros
 499              	.LVL65:
 196:main.c        ****                 Enviar_Parametros(0.0,Fase,Offset,V);
 500              		.loc 1 196 0 discriminator 3
 501 003c 7A68     		ldr	r2, [r7, #4]
 502 003e B168     		ldr	r1, [r6, #8]
 503 0040 2123     		movs	r3, #33
 504 0042 281C     		adds	r0, r5, #0
 505 0044 FFF7FEFF 		bl	Enviar_Parametros
 506              	.LVL66:
 197:main.c        ****                 CyDelay(20);
 507              		.loc 1 197 0 discriminator 3
 508 0048 1420     		movs	r0, #20
 509 004a FFF7FEFF 		bl	CyDelay
 510              	.LVL67:
 194:main.c        ****             for(int i=0;i<10;i++){
 511              		.loc 1 194 0 discriminator 3
 512 004e 0134     		adds	r4, r4, #1
 513              	.LVL68:
 514 0050 00E0     		b	.L32
 515              	.LVL69:
 516              	.L38:
 517              	.LBE2:
 518 0052 0024     		movs	r4, #0
 519              	.L32:
 520              	.LVL70:
 521              	.LBB3:
 194:main.c        ****             for(int i=0;i<10;i++){
 522              		.loc 1 194 0 is_stmt 0 discriminator 1
 523 0054 092C     		cmp	r4, #9
 524 0056 E8DD     		ble	.L34
 525              	.LBE3:
 198:main.c        ****             }
 199:main.c        ****             Max_Conta=10;
 526              		.loc 1 199 0 is_stmt 1
 527 0058 0A22     		movs	r2, #10
 528 005a 224B     		ldr	r3, .L39+4
 529 005c 1A80     		strh	r2, [r3]
 200:main.c        ****             flag=1;
 530              		.loc 1 200 0
 531 005e 093A     		subs	r2, r2, #9
 532 0060 1F4B     		ldr	r3, .L39
 533 0062 5A60     		str	r2, [r3, #4]
 534 0064 33E0     		b	.L35
 535              	.LVL71:
 536              	.L36:
 537              	.LBB4:
 201:main.c        ****         }
 202:main.c        ****         else{
ARM GAS  C:\Users\HENRYA~1\AppData\Local\Temp\ccgOQJJb.s 			page 15


 203:main.c        ****             for(int i=0;i<10;i++){
 204:main.c        ****                 Enviar_Parametros(Amplitud_H+peso_Amp_H,Fase+peso_Fase_H,Offset+peso_Off_H,H);
 538              		.loc 1 204 0 discriminator 3
 539 0066 1F4E     		ldr	r6, .L39+4
 540 0068 1D4C     		ldr	r4, .L39
 541 006a E168     		ldr	r1, [r4, #12]
 542 006c 7068     		ldr	r0, [r6, #4]
 543 006e FFF7FEFF 		bl	__aeabi_fadd
 544              	.LVL72:
 545 0072 071C     		adds	r7, r0, #0
 546 0074 2169     		ldr	r1, [r4, #16]
 547 0076 A068     		ldr	r0, [r4, #8]
 548 0078 FFF7FEFF 		bl	__aeabi_fadd
 549              	.LVL73:
 550 007c 0190     		str	r0, [sp, #4]
 551 007e A169     		ldr	r1, [r4, #24]
 552 0080 6069     		ldr	r0, [r4, #20]
 553 0082 FFF7FEFF 		bl	__aeabi_fadd
 554              	.LVL74:
 555 0086 2023     		movs	r3, #32
 556 0088 3A1C     		adds	r2, r7, #0
 557 008a 0199     		ldr	r1, [sp, #4]
 558 008c FFF7FEFF 		bl	Enviar_Parametros
 559              	.LVL75:
 205:main.c        ****                 Enviar_Parametros(Amplitud_V+peso_Amp_V,Fase+peso_Fase_V,Offset+peso_Off_V,V);
 560              		.loc 1 205 0 discriminator 3
 561 0090 E169     		ldr	r1, [r4, #28]
 562 0092 7068     		ldr	r0, [r6, #4]
 563 0094 FFF7FEFF 		bl	__aeabi_fadd
 564              	.LVL76:
 565 0098 071C     		adds	r7, r0, #0
 566 009a 216A     		ldr	r1, [r4, #32]
 567 009c A068     		ldr	r0, [r4, #8]
 568 009e FFF7FEFF 		bl	__aeabi_fadd
 569              	.LVL77:
 570 00a2 061C     		adds	r6, r0, #0
 571 00a4 A16A     		ldr	r1, [r4, #40]
 572 00a6 606A     		ldr	r0, [r4, #36]
 573 00a8 FFF7FEFF 		bl	__aeabi_fadd
 574              	.LVL78:
 575 00ac 2123     		movs	r3, #33
 576 00ae 3A1C     		adds	r2, r7, #0
 577 00b0 311C     		adds	r1, r6, #0
 578 00b2 FFF7FEFF 		bl	Enviar_Parametros
 579              	.LVL79:
 206:main.c        ****                 CyDelay(20);
 580              		.loc 1 206 0 discriminator 3
 581 00b6 1420     		movs	r0, #20
 582 00b8 FFF7FEFF 		bl	CyDelay
 583              	.LVL80:
 203:main.c        ****                 Enviar_Parametros(Amplitud_H+peso_Amp_H,Fase+peso_Fase_H,Offset+peso_Off_H,H);
 584              		.loc 1 203 0 discriminator 3
 585 00bc 0135     		adds	r5, r5, #1
 586              	.LVL81:
 587              	.L33:
 203:main.c        ****                 Enviar_Parametros(Amplitud_H+peso_Amp_H,Fase+peso_Fase_H,Offset+peso_Off_H,H);
 588              		.loc 1 203 0 is_stmt 0 discriminator 1
ARM GAS  C:\Users\HENRYA~1\AppData\Local\Temp\ccgOQJJb.s 			page 16


 589 00be 092D     		cmp	r5, #9
 590 00c0 D1DD     		ble	.L36
 591              	.LBE4:
 207:main.c        ****             }
 208:main.c        ****             Max_Conta=50;
 592              		.loc 1 208 0 is_stmt 1
 593 00c2 3222     		movs	r2, #50
 594 00c4 074B     		ldr	r3, .L39+4
 595 00c6 1A80     		strh	r2, [r3]
 209:main.c        ****             flag=0;
 596              		.loc 1 209 0
 597 00c8 0022     		movs	r2, #0
 598 00ca 054B     		ldr	r3, .L39
 599 00cc 5A60     		str	r2, [r3, #4]
 600              	.LVL82:
 601              	.L35:
 210:main.c        ****         }
 211:main.c        ****         conta=0;
 602              		.loc 1 211 0
 603 00ce 0022     		movs	r2, #0
 604 00d0 034B     		ldr	r3, .L39
 605 00d2 5A80     		strh	r2, [r3, #2]
 606 00d4 02E0     		b	.L30
 607              	.L31:
 212:main.c        ****     }
 213:main.c        ****     else{
 214:main.c        ****         LED_1_Write(0);
 608              		.loc 1 214 0
 609 00d6 0020     		movs	r0, #0
 610 00d8 FFF7FEFF 		bl	LED_1_Write
 611              	.LVL83:
 612              	.L30:
 215:main.c        ****     }  
 216:main.c        **** }
 613              		.loc 1 216 0
 614 00dc 03B0     		add	sp, sp, #12
 615              		@ sp needed
 616 00de F0BD     		pop	{r4, r5, r6, r7, pc}
 617              	.L40:
 618              		.align	2
 619              	.L39:
 620 00e0 00000000 		.word	.LANCHOR0
 621 00e4 00000000 		.word	.LANCHOR1
 622              		.cfi_endproc
 623              	.LFE47:
 624              		.size	Temporizador, .-Temporizador
 625              		.section	.text.Recibe_mail_0,"ax",%progbits
 626              		.align	2
 627              		.global	Recibe_mail_0
 628              		.code	16
 629              		.thumb_func
 630              		.type	Recibe_mail_0, %function
 631              	Recibe_mail_0:
 632              	.LFB43:
 132:main.c        **** if(mailbox0[0]==VER){
 633              		.loc 1 132 0
 634              		.cfi_startproc
ARM GAS  C:\Users\HENRYA~1\AppData\Local\Temp\ccgOQJJb.s 			page 17


 635              		@ args = 0, pretend = 0, frame = 0
 636              		@ frame_needed = 0, uses_anonymous_args = 0
 637              		@ link register save eliminated.
 133:main.c        ****             switch(mailbox0[2]){
 638              		.loc 1 133 0
 639 0000 084B     		ldr	r3, .L45
 640 0002 1B78     		ldrb	r3, [r3]
 641 0004 7F2B     		cmp	r3, #127
 642 0006 0BD1     		bne	.L41
 134:main.c        ****             ///////////////////////////////////////////////////////
 643              		.loc 1 134 0
 644 0008 064B     		ldr	r3, .L45
 645 000a 9B78     		ldrb	r3, [r3, #2]
 646 000c 022B     		cmp	r3, #2
 647 000e 07D1     		bne	.L41
 137:main.c        ****                     case CANTIDAD_MOD: 
 648              		.loc 1 137 0
 649 0010 044B     		ldr	r3, .L45
 650 0012 DB78     		ldrb	r3, [r3, #3]
 651 0014 2B2B     		cmp	r3, #43
 652 0016 03D1     		bne	.L41
 139:main.c        ****                     break;
 653              		.loc 1 139 0
 654 0018 024B     		ldr	r3, .L45
 655 001a 1A79     		ldrb	r2, [r3, #4]
 656 001c 024B     		ldr	r3, .L45+4
 657 001e DA62     		str	r2, [r3, #44]
 658              	.L41:
 158:main.c        **** 
 659              		.loc 1 158 0
 660              		@ sp needed
 661 0020 7047     		bx	lr
 662              	.L46:
 663 0022 C046     		.align	2
 664              	.L45:
 665 0024 00000000 		.word	mailbox0
 666 0028 00000000 		.word	.LANCHOR0
 667              		.cfi_endproc
 668              	.LFE43:
 669              		.size	Recibe_mail_0, .-Recibe_mail_0
 670              		.section	.text.Recibe_Mail_2,"ax",%progbits
 671              		.align	2
 672              		.global	Recibe_Mail_2
 673              		.code	16
 674              		.thumb_func
 675              		.type	Recibe_Mail_2, %function
 676              	Recibe_Mail_2:
 677              	.LFB44:
 160:main.c        ****     if(mailbox2[0]==SENSORES){
 678              		.loc 1 160 0
 679              		.cfi_startproc
 680              		@ args = 0, pretend = 0, frame = 0
 681              		@ frame_needed = 0, uses_anonymous_args = 0
 682              		@ link register save eliminated.
 161:main.c        ****         //Mailbox2[1] Derecha
 683              		.loc 1 161 0
 684 0000 694B     		ldr	r3, .L57
ARM GAS  C:\Users\HENRYA~1\AppData\Local\Temp\ccgOQJJb.s 			page 18


 685 0002 1B78     		ldrb	r3, [r3]
 686 0004 822B     		cmp	r3, #130
 687 0006 00D0     		beq	.LCB583
 688 0008 CCE0     		b	.L47	@long jump
 689              	.LCB583:
 165:main.c        ****         else if(mailbox2[1]==0&&mailbox2[2]==0&&mailbox2[3]==1) {peso_Amp_V=1;peso_Fase_V=-0.5;peso
 690              		.loc 1 165 0
 691 000a 674B     		ldr	r3, .L57
 692 000c 5B78     		ldrb	r3, [r3, #1]
 693 000e 002B     		cmp	r3, #0
 694 0010 14D1     		bne	.L49
 165:main.c        ****         else if(mailbox2[1]==0&&mailbox2[2]==0&&mailbox2[3]==1) {peso_Amp_V=1;peso_Fase_V=-0.5;peso
 695              		.loc 1 165 0 is_stmt 0 discriminator 1
 696 0012 654A     		ldr	r2, .L57
 697 0014 9278     		ldrb	r2, [r2, #2]
 698 0016 002A     		cmp	r2, #0
 699 0018 10D1     		bne	.L49
 165:main.c        ****         else if(mailbox2[1]==0&&mailbox2[2]==0&&mailbox2[3]==1) {peso_Amp_V=1;peso_Fase_V=-0.5;peso
 700              		.loc 1 165 0 discriminator 2
 701 001a 634A     		ldr	r2, .L57
 702 001c D278     		ldrb	r2, [r2, #3]
 703 001e 002A     		cmp	r2, #0
 704 0020 0CD1     		bne	.L49
 165:main.c        ****         else if(mailbox2[1]==0&&mailbox2[2]==0&&mailbox2[3]==1) {peso_Amp_V=1;peso_Fase_V=-0.5;peso
 705              		.loc 1 165 0 discriminator 3
 706 0022 624B     		ldr	r3, .L57+4
 707 0024 FE22     		movs	r2, #254
 708 0026 9205     		lsls	r2, r2, #22
 709 0028 9A62     		str	r2, [r3, #40]
 710 002a BF21     		movs	r1, #191
 711 002c 0906     		lsls	r1, r1, #24
 712 002e 1962     		str	r1, [r3, #32]
 713 0030 0022     		movs	r2, #0
 714 0032 DA61     		str	r2, [r3, #28]
 715 0034 9A61     		str	r2, [r3, #24]
 716 0036 1961     		str	r1, [r3, #16]
 717 0038 DA60     		str	r2, [r3, #12]
 718 003a B3E0     		b	.L47
 719              	.L49:
 166:main.c        ****         else if(mailbox2[1]==0&&mailbox2[2]==1&&mailbox2[3]==0) {peso_Amp_V=0.3;peso_Fase_V=0.5;pes
 720              		.loc 1 166 0 is_stmt 1
 721 003c 002B     		cmp	r3, #0
 722 003e 14D1     		bne	.L50
 166:main.c        ****         else if(mailbox2[1]==0&&mailbox2[2]==1&&mailbox2[3]==0) {peso_Amp_V=0.3;peso_Fase_V=0.5;pes
 723              		.loc 1 166 0 is_stmt 0 discriminator 1
 724 0040 594A     		ldr	r2, .L57
 725 0042 9278     		ldrb	r2, [r2, #2]
 726 0044 002A     		cmp	r2, #0
 727 0046 10D1     		bne	.L50
 166:main.c        ****         else if(mailbox2[1]==0&&mailbox2[2]==1&&mailbox2[3]==0) {peso_Amp_V=0.3;peso_Fase_V=0.5;pes
 728              		.loc 1 166 0 discriminator 2
 729 0048 574A     		ldr	r2, .L57
 730 004a D278     		ldrb	r2, [r2, #3]
 731 004c 012A     		cmp	r2, #1
 732 004e 0CD1     		bne	.L50
 166:main.c        ****         else if(mailbox2[1]==0&&mailbox2[2]==1&&mailbox2[3]==0) {peso_Amp_V=0.3;peso_Fase_V=0.5;pes
 733              		.loc 1 166 0 discriminator 3
ARM GAS  C:\Users\HENRYA~1\AppData\Local\Temp\ccgOQJJb.s 			page 19


 734 0050 564B     		ldr	r3, .L57+4
 735 0052 FE22     		movs	r2, #254
 736 0054 9205     		lsls	r2, r2, #22
 737 0056 9A62     		str	r2, [r3, #40]
 738 0058 BF21     		movs	r1, #191
 739 005a 0906     		lsls	r1, r1, #24
 740 005c 1962     		str	r1, [r3, #32]
 741 005e 0022     		movs	r2, #0
 742 0060 DA61     		str	r2, [r3, #28]
 743 0062 9A61     		str	r2, [r3, #24]
 744 0064 1961     		str	r1, [r3, #16]
 745 0066 DA60     		str	r2, [r3, #12]
 746 0068 9CE0     		b	.L47
 747              	.L50:
 167:main.c        ****         else if(mailbox2[1]==0&&mailbox2[2]==1&&mailbox2[3]==1) {peso_Amp_V=0.3;peso_Fase_V=-0.5;pe
 748              		.loc 1 167 0 is_stmt 1
 749 006a 002B     		cmp	r3, #0
 750 006c 17D1     		bne	.L51
 167:main.c        ****         else if(mailbox2[1]==0&&mailbox2[2]==1&&mailbox2[3]==1) {peso_Amp_V=0.3;peso_Fase_V=-0.5;pe
 751              		.loc 1 167 0 is_stmt 0 discriminator 1
 752 006e 4E4A     		ldr	r2, .L57
 753 0070 9278     		ldrb	r2, [r2, #2]
 754 0072 012A     		cmp	r2, #1
 755 0074 13D1     		bne	.L51
 167:main.c        ****         else if(mailbox2[1]==0&&mailbox2[2]==1&&mailbox2[3]==1) {peso_Amp_V=0.3;peso_Fase_V=-0.5;pe
 756              		.loc 1 167 0 discriminator 2
 757 0076 4C4A     		ldr	r2, .L57
 758 0078 D278     		ldrb	r2, [r2, #3]
 759 007a 002A     		cmp	r2, #0
 760 007c 0FD1     		bne	.L51
 167:main.c        ****         else if(mailbox2[1]==0&&mailbox2[2]==1&&mailbox2[3]==1) {peso_Amp_V=0.3;peso_Fase_V=-0.5;pe
 761              		.loc 1 167 0 discriminator 3
 762 007e 4B4B     		ldr	r3, .L57+4
 763 0080 4B4A     		ldr	r2, .L57+8
 764 0082 9A62     		str	r2, [r3, #40]
 765 0084 FC22     		movs	r2, #252
 766 0086 9205     		lsls	r2, r2, #22
 767 0088 1A62     		str	r2, [r3, #32]
 768 008a 0022     		movs	r2, #0
 769 008c DA61     		str	r2, [r3, #28]
 770 008e 494A     		ldr	r2, .L57+12
 771 0090 9A61     		str	r2, [r3, #24]
 772 0092 BF22     		movs	r2, #191
 773 0094 1206     		lsls	r2, r2, #24
 774 0096 1A61     		str	r2, [r3, #16]
 775 0098 474A     		ldr	r2, .L57+16
 776 009a DA60     		str	r2, [r3, #12]
 777 009c 82E0     		b	.L47
 778              	.L51:
 168:main.c        ****         else if(mailbox2[1]==1&&mailbox2[2]==0&&mailbox2[3]==0) {peso_Amp_V=1;peso_Fase_V=-0.5;peso
 779              		.loc 1 168 0 is_stmt 1
 780 009e 002B     		cmp	r3, #0
 781 00a0 15D1     		bne	.L52
 168:main.c        ****         else if(mailbox2[1]==1&&mailbox2[2]==0&&mailbox2[3]==0) {peso_Amp_V=1;peso_Fase_V=-0.5;peso
 782              		.loc 1 168 0 is_stmt 0 discriminator 1
 783 00a2 414A     		ldr	r2, .L57
 784 00a4 9278     		ldrb	r2, [r2, #2]
ARM GAS  C:\Users\HENRYA~1\AppData\Local\Temp\ccgOQJJb.s 			page 20


 785 00a6 012A     		cmp	r2, #1
 786 00a8 11D1     		bne	.L52
 168:main.c        ****         else if(mailbox2[1]==1&&mailbox2[2]==0&&mailbox2[3]==0) {peso_Amp_V=1;peso_Fase_V=-0.5;peso
 787              		.loc 1 168 0 discriminator 2
 788 00aa 3F4A     		ldr	r2, .L57
 789 00ac D278     		ldrb	r2, [r2, #3]
 790 00ae 012A     		cmp	r2, #1
 791 00b0 0DD1     		bne	.L52
 168:main.c        ****         else if(mailbox2[1]==1&&mailbox2[2]==0&&mailbox2[3]==0) {peso_Amp_V=1;peso_Fase_V=-0.5;peso
 792              		.loc 1 168 0 discriminator 3
 793 00b2 3E4B     		ldr	r3, .L57+4
 794 00b4 3E4A     		ldr	r2, .L57+8
 795 00b6 9A62     		str	r2, [r3, #40]
 796 00b8 BF22     		movs	r2, #191
 797 00ba 1206     		lsls	r2, r2, #24
 798 00bc 1A62     		str	r2, [r3, #32]
 799 00be 0021     		movs	r1, #0
 800 00c0 D961     		str	r1, [r3, #28]
 801 00c2 3C49     		ldr	r1, .L57+12
 802 00c4 9961     		str	r1, [r3, #24]
 803 00c6 1A61     		str	r2, [r3, #16]
 804 00c8 3B4A     		ldr	r2, .L57+16
 805 00ca DA60     		str	r2, [r3, #12]
 806 00cc 6AE0     		b	.L47
 807              	.L52:
 169:main.c        ****         else if(mailbox2[1]==1&&mailbox2[2]==0&&mailbox2[3]==1) {peso_Amp_V=1;peso_Fase_V=-0.5;peso
 808              		.loc 1 169 0 is_stmt 1
 809 00ce 012B     		cmp	r3, #1
 810 00d0 14D1     		bne	.L53
 169:main.c        ****         else if(mailbox2[1]==1&&mailbox2[2]==0&&mailbox2[3]==1) {peso_Amp_V=1;peso_Fase_V=-0.5;peso
 811              		.loc 1 169 0 is_stmt 0 discriminator 1
 812 00d2 354A     		ldr	r2, .L57
 813 00d4 9278     		ldrb	r2, [r2, #2]
 814 00d6 002A     		cmp	r2, #0
 815 00d8 10D1     		bne	.L53
 169:main.c        ****         else if(mailbox2[1]==1&&mailbox2[2]==0&&mailbox2[3]==1) {peso_Amp_V=1;peso_Fase_V=-0.5;peso
 816              		.loc 1 169 0 discriminator 2
 817 00da 334A     		ldr	r2, .L57
 818 00dc D278     		ldrb	r2, [r2, #3]
 819 00de 002A     		cmp	r2, #0
 820 00e0 0CD1     		bne	.L53
 169:main.c        ****         else if(mailbox2[1]==1&&mailbox2[2]==0&&mailbox2[3]==1) {peso_Amp_V=1;peso_Fase_V=-0.5;peso
 821              		.loc 1 169 0 discriminator 3
 822 00e2 324B     		ldr	r3, .L57+4
 823 00e4 FE22     		movs	r2, #254
 824 00e6 9205     		lsls	r2, r2, #22
 825 00e8 9A62     		str	r2, [r3, #40]
 826 00ea BF21     		movs	r1, #191
 827 00ec 0906     		lsls	r1, r1, #24
 828 00ee 1962     		str	r1, [r3, #32]
 829 00f0 0022     		movs	r2, #0
 830 00f2 DA61     		str	r2, [r3, #28]
 831 00f4 9A61     		str	r2, [r3, #24]
 832 00f6 1961     		str	r1, [r3, #16]
 833 00f8 DA60     		str	r2, [r3, #12]
 834 00fa 53E0     		b	.L47
 835              	.L53:
ARM GAS  C:\Users\HENRYA~1\AppData\Local\Temp\ccgOQJJb.s 			page 21


 170:main.c        ****         else if(mailbox2[1]==1&&mailbox2[2]==1&&mailbox2[3]==0) {peso_Amp_V=0.3;peso_Fase_V=-0.5;pe
 836              		.loc 1 170 0 is_stmt 1
 837 00fc 012B     		cmp	r3, #1
 838 00fe 14D1     		bne	.L54
 170:main.c        ****         else if(mailbox2[1]==1&&mailbox2[2]==1&&mailbox2[3]==0) {peso_Amp_V=0.3;peso_Fase_V=-0.5;pe
 839              		.loc 1 170 0 is_stmt 0 discriminator 1
 840 0100 294A     		ldr	r2, .L57
 841 0102 9278     		ldrb	r2, [r2, #2]
 842 0104 002A     		cmp	r2, #0
 843 0106 10D1     		bne	.L54
 170:main.c        ****         else if(mailbox2[1]==1&&mailbox2[2]==1&&mailbox2[3]==0) {peso_Amp_V=0.3;peso_Fase_V=-0.5;pe
 844              		.loc 1 170 0 discriminator 2
 845 0108 274A     		ldr	r2, .L57
 846 010a D278     		ldrb	r2, [r2, #3]
 847 010c 012A     		cmp	r2, #1
 848 010e 0CD1     		bne	.L54
 170:main.c        ****         else if(mailbox2[1]==1&&mailbox2[2]==1&&mailbox2[3]==0) {peso_Amp_V=0.3;peso_Fase_V=-0.5;pe
 849              		.loc 1 170 0 discriminator 3
 850 0110 264B     		ldr	r3, .L57+4
 851 0112 FE22     		movs	r2, #254
 852 0114 9205     		lsls	r2, r2, #22
 853 0116 9A62     		str	r2, [r3, #40]
 854 0118 BF21     		movs	r1, #191
 855 011a 0906     		lsls	r1, r1, #24
 856 011c 1962     		str	r1, [r3, #32]
 857 011e 0022     		movs	r2, #0
 858 0120 DA61     		str	r2, [r3, #28]
 859 0122 9A61     		str	r2, [r3, #24]
 860 0124 1961     		str	r1, [r3, #16]
 861 0126 DA60     		str	r2, [r3, #12]
 862 0128 3CE0     		b	.L47
 863              	.L54:
 171:main.c        ****         else if(mailbox2[1]==1&&mailbox2[2]==1&&mailbox2[3]==1) {peso_Amp_V=1;peso_Fase_V=0.5;peso_
 864              		.loc 1 171 0 is_stmt 1
 865 012a 012B     		cmp	r3, #1
 866 012c 15D1     		bne	.L55
 171:main.c        ****         else if(mailbox2[1]==1&&mailbox2[2]==1&&mailbox2[3]==1) {peso_Amp_V=1;peso_Fase_V=0.5;peso_
 867              		.loc 1 171 0 is_stmt 0 discriminator 1
 868 012e 1E4A     		ldr	r2, .L57
 869 0130 9278     		ldrb	r2, [r2, #2]
 870 0132 012A     		cmp	r2, #1
 871 0134 11D1     		bne	.L55
 171:main.c        ****         else if(mailbox2[1]==1&&mailbox2[2]==1&&mailbox2[3]==1) {peso_Amp_V=1;peso_Fase_V=0.5;peso_
 872              		.loc 1 171 0 discriminator 2
 873 0136 1C4A     		ldr	r2, .L57
 874 0138 D278     		ldrb	r2, [r2, #3]
 875 013a 002A     		cmp	r2, #0
 876 013c 0DD1     		bne	.L55
 171:main.c        ****         else if(mailbox2[1]==1&&mailbox2[2]==1&&mailbox2[3]==1) {peso_Amp_V=1;peso_Fase_V=0.5;peso_
 877              		.loc 1 171 0 discriminator 3
 878 013e 1B4B     		ldr	r3, .L57+4
 879 0140 1B4A     		ldr	r2, .L57+8
 880 0142 9A62     		str	r2, [r3, #40]
 881 0144 BF22     		movs	r2, #191
 882 0146 1206     		lsls	r2, r2, #24
 883 0148 1A62     		str	r2, [r3, #32]
 884 014a 0021     		movs	r1, #0
ARM GAS  C:\Users\HENRYA~1\AppData\Local\Temp\ccgOQJJb.s 			page 22


 885 014c D961     		str	r1, [r3, #28]
 886 014e 1949     		ldr	r1, .L57+12
 887 0150 9961     		str	r1, [r3, #24]
 888 0152 1A61     		str	r2, [r3, #16]
 889 0154 194A     		ldr	r2, .L57+20
 890 0156 DA60     		str	r2, [r3, #12]
 891 0158 24E0     		b	.L47
 892              	.L55:
 172:main.c        ****         else                                                    {peso_Amp_V=1;peso_Fase_V=-0.5;peso
 893              		.loc 1 172 0 is_stmt 1
 894 015a 012B     		cmp	r3, #1
 895 015c 16D1     		bne	.L56
 172:main.c        ****         else                                                    {peso_Amp_V=1;peso_Fase_V=-0.5;peso
 896              		.loc 1 172 0 is_stmt 0 discriminator 1
 897 015e 124B     		ldr	r3, .L57
 898 0160 9B78     		ldrb	r3, [r3, #2]
 899 0162 012B     		cmp	r3, #1
 900 0164 12D1     		bne	.L56
 172:main.c        ****         else                                                    {peso_Amp_V=1;peso_Fase_V=-0.5;peso
 901              		.loc 1 172 0 discriminator 2
 902 0166 104B     		ldr	r3, .L57
 903 0168 DB78     		ldrb	r3, [r3, #3]
 904 016a 012B     		cmp	r3, #1
 905 016c 0ED1     		bne	.L56
 172:main.c        ****         else                                                    {peso_Amp_V=1;peso_Fase_V=-0.5;peso
 906              		.loc 1 172 0 discriminator 3
 907 016e 0F4B     		ldr	r3, .L57+4
 908 0170 FE22     		movs	r2, #254
 909 0172 9205     		lsls	r2, r2, #22
 910 0174 9A62     		str	r2, [r3, #40]
 911 0176 FC22     		movs	r2, #252
 912 0178 9205     		lsls	r2, r2, #22
 913 017a 1A62     		str	r2, [r3, #32]
 914 017c 0022     		movs	r2, #0
 915 017e DA61     		str	r2, [r3, #28]
 916 0180 9A61     		str	r2, [r3, #24]
 917 0182 BF21     		movs	r1, #191
 918 0184 0906     		lsls	r1, r1, #24
 919 0186 1961     		str	r1, [r3, #16]
 920 0188 DA60     		str	r2, [r3, #12]
 921 018a 0BE0     		b	.L47
 922              	.L56:
 173:main.c        ****     }
 923              		.loc 1 173 0 is_stmt 1
 924 018c 074B     		ldr	r3, .L57+4
 925 018e FE22     		movs	r2, #254
 926 0190 9205     		lsls	r2, r2, #22
 927 0192 9A62     		str	r2, [r3, #40]
 928 0194 BF21     		movs	r1, #191
 929 0196 0906     		lsls	r1, r1, #24
 930 0198 1962     		str	r1, [r3, #32]
 931 019a 0022     		movs	r2, #0
 932 019c DA61     		str	r2, [r3, #28]
 933 019e 9A61     		str	r2, [r3, #24]
 934 01a0 1961     		str	r1, [r3, #16]
 935 01a2 DA60     		str	r2, [r3, #12]
 936              	.L47:
ARM GAS  C:\Users\HENRYA~1\AppData\Local\Temp\ccgOQJJb.s 			page 23


 175:main.c        **** 
 937              		.loc 1 175 0
 938              		@ sp needed
 939 01a4 7047     		bx	lr
 940              	.L58:
 941 01a6 C046     		.align	2
 942              	.L57:
 943 01a8 00000000 		.word	mailbox2
 944 01ac 00000000 		.word	.LANCHOR0
 945 01b0 9A99993E 		.word	1050253722
 946 01b4 CDCC4C3F 		.word	1061997773
 947 01b8 CDCC4C3E 		.word	1045220557
 948 01bc CDCC4CBE 		.word	-1102263091
 949              		.cfi_endproc
 950              	.LFE44:
 951              		.size	Recibe_Mail_2, .-Recibe_Mail_2
 952              		.section	.text.interrutcan,"ax",%progbits
 953              		.align	2
 954              		.global	interrutcan
 955              		.code	16
 956              		.thumb_func
 957              		.type	interrutcan, %function
 958              	interrutcan:
 959              	.LFB46:
 181:main.c        ****     CAN_GlobalIntDisable();
 960              		.loc 1 181 0
 961              		.cfi_startproc
 962              		@ args = 0, pretend = 0, frame = 0
 963              		@ frame_needed = 0, uses_anonymous_args = 0
 964 0000 10B5     		push	{r4, lr}
 965              		.cfi_def_cfa_offset 8
 966              		.cfi_offset 4, -8
 967              		.cfi_offset 14, -4
 182:main.c        ****     CAN_MsgRXIsr();  
 968              		.loc 1 182 0
 969 0002 FFF7FEFF 		bl	CAN_GlobalIntDisable
 970              	.LVL84:
 183:main.c        ****     Recibe_mail_0();
 971              		.loc 1 183 0
 972 0006 FFF7FEFF 		bl	CAN_MsgRXIsr
 973              	.LVL85:
 184:main.c        ****     Recibe_Mail_2();
 974              		.loc 1 184 0
 975 000a FFF7FEFF 		bl	Recibe_mail_0
 976              	.LVL86:
 185:main.c        ****     CAN_GlobalIntEnable();
 977              		.loc 1 185 0
 978 000e FFF7FEFF 		bl	Recibe_Mail_2
 979              	.LVL87:
 186:main.c        **** }
 980              		.loc 1 186 0
 981 0012 FFF7FEFF 		bl	CAN_GlobalIntEnable
 982              	.LVL88:
 187:main.c        **** 
 983              		.loc 1 187 0
 984              		@ sp needed
 985 0016 10BD     		pop	{r4, pc}
ARM GAS  C:\Users\HENRYA~1\AppData\Local\Temp\ccgOQJJb.s 			page 24


 986              		.cfi_endproc
 987              	.LFE46:
 988              		.size	interrutcan, .-interrutcan
 989              		.section	.text.main,"ax",%progbits
 990              		.align	2
 991              		.global	main
 992              		.code	16
 993              		.thumb_func
 994              		.type	main, %function
 995              	main:
 996              	.LFB48:
 217:main.c        **** 
 218:main.c        **** int main()
 219:main.c        **** {
 997              		.loc 1 219 0
 998              		.cfi_startproc
 999              		@ Volatile: function does not return.
 1000              		@ args = 0, pretend = 0, frame = 0
 1001              		@ frame_needed = 0, uses_anonymous_args = 0
 1002 0000 10B5     		push	{r4, lr}
 1003              		.cfi_def_cfa_offset 8
 1004              		.cfi_offset 4, -8
 1005              		.cfi_offset 14, -4
 220:main.c        ****     //Init LED's
 221:main.c        ****     CAN_Start(); ///  start CAN
 1006              		.loc 1 221 0
 1007 0002 FFF7FEFF 		bl	CAN_Start
 1008              	.LVL89:
 222:main.c        ****     Timer_1_Start();
 1009              		.loc 1 222 0
 1010 0006 FFF7FEFF 		bl	Timer_1_Start
 1011              	.LVL90:
 223:main.c        ****     Timer_Start();
 1012              		.loc 1 223 0
 1013 000a FFF7FEFF 		bl	Timer_Start
 1014              	.LVL91:
 224:main.c        ****     SENSOR_U_Start();
 1015              		.loc 1 224 0
 1016 000e FFF7FEFF 		bl	SENSOR_U_Start
 1017              	.LVL92:
 225:main.c        ****     CAN_isr_StartEx(interrutcan);
 1018              		.loc 1 225 0
 1019 0012 0848     		ldr	r0, .L62
 1020 0014 FFF7FEFF 		bl	CAN_isr_StartEx
 1021              	.LVL93:
 226:main.c        ****     CAN_GlobalIntEnable();
 1022              		.loc 1 226 0
 1023 0018 FFF7FEFF 		bl	CAN_GlobalIntEnable
 1024              	.LVL94:
 227:main.c        ****     Int_Serial_StartEx(Serial_Interrupt);
 1025              		.loc 1 227 0
 1026 001c 0648     		ldr	r0, .L62+4
 1027 001e FFF7FEFF 		bl	Int_Serial_StartEx
 1028              	.LVL95:
 228:main.c        ****     Timer_StartEx(Temporizador);
 1029              		.loc 1 228 0
 1030 0022 0648     		ldr	r0, .L62+8
ARM GAS  C:\Users\HENRYA~1\AppData\Local\Temp\ccgOQJJb.s 			page 25


 1031 0024 FFF7FEFF 		bl	Timer_StartEx
 1032              	.LVL96:
 229:main.c        ****     LED_1_Write(0);
 1033              		.loc 1 229 0
 1034 0028 0020     		movs	r0, #0
 1035 002a FFF7FEFF 		bl	LED_1_Write
 1036              	.LVL97:
 230:main.c        ****     CyGlobalIntEnable;
 1037              		.loc 1 230 0
 1038              		.syntax divided
 1039              	@ 230 "main.c" 1
 1040 002e 62B6     		CPSIE   i
 1041              	@ 0 "" 2
 1042              		.thumb
 1043              		.syntax unified
 1044              	.L61:
 1045 0030 FEE7     		b	.L61
 1046              	.L63:
 1047 0032 C046     		.align	2
 1048              	.L62:
 1049 0034 00000000 		.word	interrutcan
 1050 0038 00000000 		.word	Serial_Interrupt
 1051 003c 00000000 		.word	Temporizador
 1052              		.cfi_endproc
 1053              	.LFE48:
 1054              		.size	main, .-main
 1055              		.global	move_s
 1056              		.global	punto_b
 1057              		.global	punto_a
 1058              		.global	conta_H
 1059              		.global	L_anterior
 1060              		.global	L_actual
 1061              		.global	flag
 1062              		.global	peso_Off_V
 1063              		.global	peso_Fase_V
 1064              		.global	peso_Amp_V
 1065              		.global	peso_Off_H
 1066              		.global	peso_Fase_H
 1067              		.global	peso_Amp_H
 1068              		.global	Fase
 1069              		.global	Offset
 1070              		.global	Amplitud_V
 1071              		.global	Amplitud_H
 1072              		.global	Max_Conta
 1073              		.global	cantidadM
 1074              		.global	conta
 1075              		.global	dist
 1076              		.comm	dato_enviado_1,8,4
 1077              		.comm	dato_enviado,8,4
 1078              		.comm	mailbox2,8,4
 1079              		.comm	mailbox1,8,4
 1080              		.comm	mailbox0,8,4
 1081              		.data
 1082              		.align	2
 1083              		.set	.LANCHOR1,. + 0
 1084              		.type	Max_Conta, %object
 1085              		.size	Max_Conta, 2
ARM GAS  C:\Users\HENRYA~1\AppData\Local\Temp\ccgOQJJb.s 			page 26


 1086              	Max_Conta:
 1087 0000 6400     		.short	100
 1088 0002 0000     		.space	2
 1089              		.type	Offset, %object
 1090              		.size	Offset, 4
 1091              	Offset:
 1092 0004 7D3F553F 		.word	1062551421
 1093              		.bss
 1094              		.align	2
 1095              		.set	.LANCHOR0,. + 0
 1096              		.type	dist, %object
 1097              		.size	dist, 1
 1098              	dist:
 1099 0000 00       		.space	1
 1100 0001 00       		.space	1
 1101              		.type	conta, %object
 1102              		.size	conta, 2
 1103              	conta:
 1104 0002 0000     		.space	2
 1105              		.type	flag, %object
 1106              		.size	flag, 4
 1107              	flag:
 1108 0004 00000000 		.space	4
 1109              		.type	Fase, %object
 1110              		.size	Fase, 4
 1111              	Fase:
 1112 0008 00000000 		.space	4
 1113              		.type	peso_Off_H, %object
 1114              		.size	peso_Off_H, 4
 1115              	peso_Off_H:
 1116 000c 00000000 		.space	4
 1117              		.type	peso_Fase_H, %object
 1118              		.size	peso_Fase_H, 4
 1119              	peso_Fase_H:
 1120 0010 00000000 		.space	4
 1121              		.type	Amplitud_H, %object
 1122              		.size	Amplitud_H, 4
 1123              	Amplitud_H:
 1124 0014 00000000 		.space	4
 1125              		.type	peso_Amp_H, %object
 1126              		.size	peso_Amp_H, 4
 1127              	peso_Amp_H:
 1128 0018 00000000 		.space	4
 1129              		.type	peso_Off_V, %object
 1130              		.size	peso_Off_V, 4
 1131              	peso_Off_V:
 1132 001c 00000000 		.space	4
 1133              		.type	peso_Fase_V, %object
 1134              		.size	peso_Fase_V, 4
 1135              	peso_Fase_V:
 1136 0020 00000000 		.space	4
 1137              		.type	Amplitud_V, %object
 1138              		.size	Amplitud_V, 4
 1139              	Amplitud_V:
 1140 0024 00000000 		.space	4
 1141              		.type	peso_Amp_V, %object
 1142              		.size	peso_Amp_V, 4
ARM GAS  C:\Users\HENRYA~1\AppData\Local\Temp\ccgOQJJb.s 			page 27


 1143              	peso_Amp_V:
 1144 0028 00000000 		.space	4
 1145              		.type	cantidadM, %object
 1146              		.size	cantidadM, 4
 1147              	cantidadM:
 1148 002c 00000000 		.space	4
 1149              		.type	move_s, %object
 1150              		.size	move_s, 4
 1151              	move_s:
 1152 0030 00000000 		.space	4
 1153              		.type	punto_b, %object
 1154              		.size	punto_b, 4
 1155              	punto_b:
 1156 0034 00000000 		.space	4
 1157              		.type	punto_a, %object
 1158              		.size	punto_a, 4
 1159              	punto_a:
 1160 0038 00000000 		.space	4
 1161              		.type	conta_H, %object
 1162              		.size	conta_H, 4
 1163              	conta_H:
 1164 003c 00000000 		.space	4
 1165              		.type	L_anterior, %object
 1166              		.size	L_anterior, 4
 1167              	L_anterior:
 1168 0040 00000000 		.space	4
 1169              		.type	L_actual, %object
 1170              		.size	L_actual, 4
 1171              	L_actual:
 1172 0044 00000000 		.space	4
 1173              		.text
 1174              	.Letext0:
 1175              		.file 2 "Generated_Source\\PSoC4/cytypes.h"
 1176              		.file 3 "Generated_Source\\PSoC4/SENSOR_U.h"
 1177              		.file 4 "c:\\program files (x86)\\cypress\\psoc creator\\4.1\\psoc creator\\import\\gnu\\arm\\5.4.
 1178              		.file 5 "Generated_Source\\PSoC4/CAN.h"
 1179              		.file 6 "Generated_Source\\PSoC4/CyLib.h"
 1180              		.file 7 "Generated_Source\\PSoC4/LED_1.h"
 1181              		.file 8 "Generated_Source\\PSoC4/Timer_1.h"
 1182              		.file 9 "Generated_Source\\PSoC4/Timer.h"
 1183              		.file 10 "Generated_Source\\PSoC4/CAN_isr.h"
 1184              		.file 11 "Generated_Source\\PSoC4/Int_Serial.h"