ARM GAS  C:\Users\HENRYA~1\AppData\Local\Temp\ccFFMLvl.s 			page 1


   1              		.syntax unified
   2              		.cpu cortex-m3
   3              		.fpu softvfp
   4              		.eabi_attribute 20, 1
   5              		.eabi_attribute 21, 1
   6              		.eabi_attribute 23, 3
   7              		.eabi_attribute 24, 1
   8              		.eabi_attribute 25, 1
   9              		.eabi_attribute 26, 1
  10              		.eabi_attribute 30, 1
  11              		.eabi_attribute 34, 1
  12              		.eabi_attribute 18, 4
  13              		.thumb
  14              		.file	"EMITE.c"
  15              		.text
  16              	.Ltext0:
  17              		.cfi_sections	.debug_frame
  18              		.section	.text.EMITE_Init,"ax",%progbits
  19              		.align	2
  20              		.global	EMITE_Init
  21              		.thumb
  22              		.thumb_func
  23              		.type	EMITE_Init, %function
  24              	EMITE_Init:
  25              	.LFB1:
  26              		.file 1 ".\\Generated_Source\\PSoC5\\EMITE.c"
   1:.\Generated_Source\PSoC5/EMITE.c **** /*******************************************************************************
   2:.\Generated_Source\PSoC5/EMITE.c **** * File Name: EMITE.c
   3:.\Generated_Source\PSoC5/EMITE.c **** * Version 2.50
   4:.\Generated_Source\PSoC5/EMITE.c **** *
   5:.\Generated_Source\PSoC5/EMITE.c **** * Description:
   6:.\Generated_Source\PSoC5/EMITE.c **** *  This file provides all API functionality of the UART component
   7:.\Generated_Source\PSoC5/EMITE.c **** *
   8:.\Generated_Source\PSoC5/EMITE.c **** * Note:
   9:.\Generated_Source\PSoC5/EMITE.c **** *
  10:.\Generated_Source\PSoC5/EMITE.c **** ********************************************************************************
  11:.\Generated_Source\PSoC5/EMITE.c **** * Copyright 2008-2015, Cypress Semiconductor Corporation.  All rights reserved.
  12:.\Generated_Source\PSoC5/EMITE.c **** * You may use this file only in accordance with the license, terms, conditions,
  13:.\Generated_Source\PSoC5/EMITE.c **** * disclaimers, and limitations in the end user license agreement accompanying
  14:.\Generated_Source\PSoC5/EMITE.c **** * the software package with which this file was provided.
  15:.\Generated_Source\PSoC5/EMITE.c **** *******************************************************************************/
  16:.\Generated_Source\PSoC5/EMITE.c **** 
  17:.\Generated_Source\PSoC5/EMITE.c **** #include "EMITE.h"
  18:.\Generated_Source\PSoC5/EMITE.c **** #if (EMITE_INTERNAL_CLOCK_USED)
  19:.\Generated_Source\PSoC5/EMITE.c ****     #include "EMITE_IntClock.h"
  20:.\Generated_Source\PSoC5/EMITE.c **** #endif /* End EMITE_INTERNAL_CLOCK_USED */
  21:.\Generated_Source\PSoC5/EMITE.c **** 
  22:.\Generated_Source\PSoC5/EMITE.c **** 
  23:.\Generated_Source\PSoC5/EMITE.c **** /***************************************
  24:.\Generated_Source\PSoC5/EMITE.c **** * Global data allocation
  25:.\Generated_Source\PSoC5/EMITE.c **** ***************************************/
  26:.\Generated_Source\PSoC5/EMITE.c **** 
  27:.\Generated_Source\PSoC5/EMITE.c **** uint8 EMITE_initVar = 0u;
  28:.\Generated_Source\PSoC5/EMITE.c **** 
  29:.\Generated_Source\PSoC5/EMITE.c **** #if (EMITE_TX_INTERRUPT_ENABLED && EMITE_TX_ENABLED)
  30:.\Generated_Source\PSoC5/EMITE.c ****     volatile uint8 EMITE_txBuffer[EMITE_TX_BUFFER_SIZE];
  31:.\Generated_Source\PSoC5/EMITE.c ****     volatile uint8 EMITE_txBufferRead = 0u;
ARM GAS  C:\Users\HENRYA~1\AppData\Local\Temp\ccFFMLvl.s 			page 2


  32:.\Generated_Source\PSoC5/EMITE.c ****     uint8 EMITE_txBufferWrite = 0u;
  33:.\Generated_Source\PSoC5/EMITE.c **** #endif /* (EMITE_TX_INTERRUPT_ENABLED && EMITE_TX_ENABLED) */
  34:.\Generated_Source\PSoC5/EMITE.c **** 
  35:.\Generated_Source\PSoC5/EMITE.c **** #if (EMITE_RX_INTERRUPT_ENABLED && (EMITE_RX_ENABLED || EMITE_HD_ENABLED))
  36:.\Generated_Source\PSoC5/EMITE.c ****     uint8 EMITE_errorStatus = 0u;
  37:.\Generated_Source\PSoC5/EMITE.c ****     volatile uint8 EMITE_rxBuffer[EMITE_RX_BUFFER_SIZE];
  38:.\Generated_Source\PSoC5/EMITE.c ****     volatile uint8 EMITE_rxBufferRead  = 0u;
  39:.\Generated_Source\PSoC5/EMITE.c ****     volatile uint8 EMITE_rxBufferWrite = 0u;
  40:.\Generated_Source\PSoC5/EMITE.c ****     volatile uint8 EMITE_rxBufferLoopDetect = 0u;
  41:.\Generated_Source\PSoC5/EMITE.c ****     volatile uint8 EMITE_rxBufferOverflow   = 0u;
  42:.\Generated_Source\PSoC5/EMITE.c ****     #if (EMITE_RXHW_ADDRESS_ENABLED)
  43:.\Generated_Source\PSoC5/EMITE.c ****         volatile uint8 EMITE_rxAddressMode = EMITE_RX_ADDRESS_MODE;
  44:.\Generated_Source\PSoC5/EMITE.c ****         volatile uint8 EMITE_rxAddressDetected = 0u;
  45:.\Generated_Source\PSoC5/EMITE.c ****     #endif /* (EMITE_RXHW_ADDRESS_ENABLED) */
  46:.\Generated_Source\PSoC5/EMITE.c **** #endif /* (EMITE_RX_INTERRUPT_ENABLED && (EMITE_RX_ENABLED || EMITE_HD_ENABLED)) */
  47:.\Generated_Source\PSoC5/EMITE.c **** 
  48:.\Generated_Source\PSoC5/EMITE.c **** 
  49:.\Generated_Source\PSoC5/EMITE.c **** /*******************************************************************************
  50:.\Generated_Source\PSoC5/EMITE.c **** * Function Name: EMITE_Start
  51:.\Generated_Source\PSoC5/EMITE.c **** ********************************************************************************
  52:.\Generated_Source\PSoC5/EMITE.c **** *
  53:.\Generated_Source\PSoC5/EMITE.c **** * Summary:
  54:.\Generated_Source\PSoC5/EMITE.c **** *  This is the preferred method to begin component operation.
  55:.\Generated_Source\PSoC5/EMITE.c **** *  EMITE_Start() sets the initVar variable, calls the
  56:.\Generated_Source\PSoC5/EMITE.c **** *  EMITE_Init() function, and then calls the
  57:.\Generated_Source\PSoC5/EMITE.c **** *  EMITE_Enable() function.
  58:.\Generated_Source\PSoC5/EMITE.c **** *
  59:.\Generated_Source\PSoC5/EMITE.c **** * Parameters:
  60:.\Generated_Source\PSoC5/EMITE.c **** *  None.
  61:.\Generated_Source\PSoC5/EMITE.c **** *
  62:.\Generated_Source\PSoC5/EMITE.c **** * Return:
  63:.\Generated_Source\PSoC5/EMITE.c **** *  None.
  64:.\Generated_Source\PSoC5/EMITE.c **** *
  65:.\Generated_Source\PSoC5/EMITE.c **** * Global variables:
  66:.\Generated_Source\PSoC5/EMITE.c **** *  The EMITE_intiVar variable is used to indicate initial
  67:.\Generated_Source\PSoC5/EMITE.c **** *  configuration of this component. The variable is initialized to zero (0u)
  68:.\Generated_Source\PSoC5/EMITE.c **** *  and set to one (1u) the first time EMITE_Start() is called. This
  69:.\Generated_Source\PSoC5/EMITE.c **** *  allows for component initialization without re-initialization in all
  70:.\Generated_Source\PSoC5/EMITE.c **** *  subsequent calls to the EMITE_Start() routine.
  71:.\Generated_Source\PSoC5/EMITE.c **** *
  72:.\Generated_Source\PSoC5/EMITE.c **** * Reentrant:
  73:.\Generated_Source\PSoC5/EMITE.c **** *  No.
  74:.\Generated_Source\PSoC5/EMITE.c **** *
  75:.\Generated_Source\PSoC5/EMITE.c **** *******************************************************************************/
  76:.\Generated_Source\PSoC5/EMITE.c **** void EMITE_Start(void) 
  77:.\Generated_Source\PSoC5/EMITE.c **** {
  78:.\Generated_Source\PSoC5/EMITE.c ****     /* If not initialized then initialize all required hardware and software */
  79:.\Generated_Source\PSoC5/EMITE.c ****     if(EMITE_initVar == 0u)
  80:.\Generated_Source\PSoC5/EMITE.c ****     {
  81:.\Generated_Source\PSoC5/EMITE.c ****         EMITE_Init();
  82:.\Generated_Source\PSoC5/EMITE.c ****         EMITE_initVar = 1u;
  83:.\Generated_Source\PSoC5/EMITE.c ****     }
  84:.\Generated_Source\PSoC5/EMITE.c **** 
  85:.\Generated_Source\PSoC5/EMITE.c ****     EMITE_Enable();
  86:.\Generated_Source\PSoC5/EMITE.c **** }
  87:.\Generated_Source\PSoC5/EMITE.c **** 
  88:.\Generated_Source\PSoC5/EMITE.c **** 
ARM GAS  C:\Users\HENRYA~1\AppData\Local\Temp\ccFFMLvl.s 			page 3


  89:.\Generated_Source\PSoC5/EMITE.c **** /*******************************************************************************
  90:.\Generated_Source\PSoC5/EMITE.c **** * Function Name: EMITE_Init
  91:.\Generated_Source\PSoC5/EMITE.c **** ********************************************************************************
  92:.\Generated_Source\PSoC5/EMITE.c **** *
  93:.\Generated_Source\PSoC5/EMITE.c **** * Summary:
  94:.\Generated_Source\PSoC5/EMITE.c **** *  Initializes or restores the component according to the customizer Configure
  95:.\Generated_Source\PSoC5/EMITE.c **** *  dialog settings. It is not necessary to call EMITE_Init() because
  96:.\Generated_Source\PSoC5/EMITE.c **** *  the EMITE_Start() API calls this function and is the preferred
  97:.\Generated_Source\PSoC5/EMITE.c **** *  method to begin component operation.
  98:.\Generated_Source\PSoC5/EMITE.c **** *
  99:.\Generated_Source\PSoC5/EMITE.c **** * Parameters:
 100:.\Generated_Source\PSoC5/EMITE.c **** *  None.
 101:.\Generated_Source\PSoC5/EMITE.c **** *
 102:.\Generated_Source\PSoC5/EMITE.c **** * Return:
 103:.\Generated_Source\PSoC5/EMITE.c **** *  None.
 104:.\Generated_Source\PSoC5/EMITE.c **** *
 105:.\Generated_Source\PSoC5/EMITE.c **** *******************************************************************************/
 106:.\Generated_Source\PSoC5/EMITE.c **** void EMITE_Init(void) 
 107:.\Generated_Source\PSoC5/EMITE.c **** {
  27              		.loc 1 107 0
  28              		.cfi_startproc
  29              		@ args = 0, pretend = 0, frame = 0
  30              		@ frame_needed = 0, uses_anonymous_args = 0
  31              		@ link register save eliminated.
 108:.\Generated_Source\PSoC5/EMITE.c ****     #if(EMITE_RX_ENABLED || EMITE_HD_ENABLED)
 109:.\Generated_Source\PSoC5/EMITE.c **** 
 110:.\Generated_Source\PSoC5/EMITE.c ****         #if (EMITE_RX_INTERRUPT_ENABLED)
 111:.\Generated_Source\PSoC5/EMITE.c ****             /* Set RX interrupt vector and priority */
 112:.\Generated_Source\PSoC5/EMITE.c ****             (void) CyIntSetVector(EMITE_RX_VECT_NUM, &EMITE_RXISR);
 113:.\Generated_Source\PSoC5/EMITE.c ****             CyIntSetPriority(EMITE_RX_VECT_NUM, EMITE_RX_PRIOR_NUM);
 114:.\Generated_Source\PSoC5/EMITE.c ****             EMITE_errorStatus = 0u;
 115:.\Generated_Source\PSoC5/EMITE.c ****         #endif /* (EMITE_RX_INTERRUPT_ENABLED) */
 116:.\Generated_Source\PSoC5/EMITE.c **** 
 117:.\Generated_Source\PSoC5/EMITE.c ****         #if (EMITE_RXHW_ADDRESS_ENABLED)
 118:.\Generated_Source\PSoC5/EMITE.c ****             EMITE_SetRxAddressMode(EMITE_RX_ADDRESS_MODE);
 119:.\Generated_Source\PSoC5/EMITE.c ****             EMITE_SetRxAddress1(EMITE_RX_HW_ADDRESS1);
 120:.\Generated_Source\PSoC5/EMITE.c ****             EMITE_SetRxAddress2(EMITE_RX_HW_ADDRESS2);
 121:.\Generated_Source\PSoC5/EMITE.c ****         #endif /* End EMITE_RXHW_ADDRESS_ENABLED */
 122:.\Generated_Source\PSoC5/EMITE.c **** 
 123:.\Generated_Source\PSoC5/EMITE.c ****         /* Init Count7 period */
 124:.\Generated_Source\PSoC5/EMITE.c ****         EMITE_RXBITCTR_PERIOD_REG = EMITE_RXBITCTR_INIT;
  32              		.loc 1 124 0
  33 0000 7222     		movs	r2, #114
  34 0002 034B     		ldr	r3, .L2
  35 0004 1A70     		strb	r2, [r3]
 125:.\Generated_Source\PSoC5/EMITE.c ****         /* Configure the Initial RX interrupt mask */
 126:.\Generated_Source\PSoC5/EMITE.c ****         EMITE_RXSTATUS_MASK_REG  = EMITE_INIT_RX_INTERRUPTS_MASK;
  36              		.loc 1 126 0
  37 0006 2022     		movs	r2, #32
  38 0008 FE33     		adds	r3, r3, #254
  39 000a 1A70     		strb	r2, [r3]
  40 000c 7047     		bx	lr
  41              	.L3:
  42 000e 00BF     		.align	2
  43              	.L2:
  44 0010 87640040 		.word	1073767559
  45              		.cfi_endproc
ARM GAS  C:\Users\HENRYA~1\AppData\Local\Temp\ccFFMLvl.s 			page 4


  46              	.LFE1:
  47              		.size	EMITE_Init, .-EMITE_Init
  48              		.section	.text.EMITE_Enable,"ax",%progbits
  49              		.align	2
  50              		.global	EMITE_Enable
  51              		.thumb
  52              		.thumb_func
  53              		.type	EMITE_Enable, %function
  54              	EMITE_Enable:
  55              	.LFB2:
 127:.\Generated_Source\PSoC5/EMITE.c ****     #endif /* End EMITE_RX_ENABLED || EMITE_HD_ENABLED*/
 128:.\Generated_Source\PSoC5/EMITE.c **** 
 129:.\Generated_Source\PSoC5/EMITE.c ****     #if(EMITE_TX_ENABLED)
 130:.\Generated_Source\PSoC5/EMITE.c ****         #if (EMITE_TX_INTERRUPT_ENABLED)
 131:.\Generated_Source\PSoC5/EMITE.c ****             /* Set TX interrupt vector and priority */
 132:.\Generated_Source\PSoC5/EMITE.c ****             (void) CyIntSetVector(EMITE_TX_VECT_NUM, &EMITE_TXISR);
 133:.\Generated_Source\PSoC5/EMITE.c ****             CyIntSetPriority(EMITE_TX_VECT_NUM, EMITE_TX_PRIOR_NUM);
 134:.\Generated_Source\PSoC5/EMITE.c ****         #endif /* (EMITE_TX_INTERRUPT_ENABLED) */
 135:.\Generated_Source\PSoC5/EMITE.c **** 
 136:.\Generated_Source\PSoC5/EMITE.c ****         /* Write Counter Value for TX Bit Clk Generator*/
 137:.\Generated_Source\PSoC5/EMITE.c ****         #if (EMITE_TXCLKGEN_DP)
 138:.\Generated_Source\PSoC5/EMITE.c ****             EMITE_TXBITCLKGEN_CTR_REG = EMITE_BIT_CENTER;
 139:.\Generated_Source\PSoC5/EMITE.c ****             EMITE_TXBITCLKTX_COMPLETE_REG = ((EMITE_NUMBER_OF_DATA_BITS +
 140:.\Generated_Source\PSoC5/EMITE.c ****                         EMITE_NUMBER_OF_START_BIT) * EMITE_OVER_SAMPLE_COUNT) - 1u;
 141:.\Generated_Source\PSoC5/EMITE.c ****         #else
 142:.\Generated_Source\PSoC5/EMITE.c ****             EMITE_TXBITCTR_PERIOD_REG = ((EMITE_NUMBER_OF_DATA_BITS +
 143:.\Generated_Source\PSoC5/EMITE.c ****                         EMITE_NUMBER_OF_START_BIT) * EMITE_OVER_SAMPLE_8) - 1u;
 144:.\Generated_Source\PSoC5/EMITE.c ****         #endif /* End EMITE_TXCLKGEN_DP */
 145:.\Generated_Source\PSoC5/EMITE.c **** 
 146:.\Generated_Source\PSoC5/EMITE.c ****         /* Configure the Initial TX interrupt mask */
 147:.\Generated_Source\PSoC5/EMITE.c ****         #if (EMITE_TX_INTERRUPT_ENABLED)
 148:.\Generated_Source\PSoC5/EMITE.c ****             EMITE_TXSTATUS_MASK_REG = EMITE_TX_STS_FIFO_EMPTY;
 149:.\Generated_Source\PSoC5/EMITE.c ****         #else
 150:.\Generated_Source\PSoC5/EMITE.c ****             EMITE_TXSTATUS_MASK_REG = EMITE_INIT_TX_INTERRUPTS_MASK;
 151:.\Generated_Source\PSoC5/EMITE.c ****         #endif /*End EMITE_TX_INTERRUPT_ENABLED*/
 152:.\Generated_Source\PSoC5/EMITE.c **** 
 153:.\Generated_Source\PSoC5/EMITE.c ****     #endif /* End EMITE_TX_ENABLED */
 154:.\Generated_Source\PSoC5/EMITE.c **** 
 155:.\Generated_Source\PSoC5/EMITE.c ****     #if(EMITE_PARITY_TYPE_SW)  /* Write Parity to Control Register */
 156:.\Generated_Source\PSoC5/EMITE.c ****         EMITE_WriteControlRegister( \
 157:.\Generated_Source\PSoC5/EMITE.c ****             (EMITE_ReadControlRegister() & (uint8)~EMITE_CTRL_PARITY_TYPE_MASK) | \
 158:.\Generated_Source\PSoC5/EMITE.c ****             (uint8)(EMITE_PARITY_TYPE << EMITE_CTRL_PARITY_TYPE0_SHIFT) );
 159:.\Generated_Source\PSoC5/EMITE.c ****     #endif /* End EMITE_PARITY_TYPE_SW */
 160:.\Generated_Source\PSoC5/EMITE.c **** }
 161:.\Generated_Source\PSoC5/EMITE.c **** 
 162:.\Generated_Source\PSoC5/EMITE.c **** 
 163:.\Generated_Source\PSoC5/EMITE.c **** /*******************************************************************************
 164:.\Generated_Source\PSoC5/EMITE.c **** * Function Name: EMITE_Enable
 165:.\Generated_Source\PSoC5/EMITE.c **** ********************************************************************************
 166:.\Generated_Source\PSoC5/EMITE.c **** *
 167:.\Generated_Source\PSoC5/EMITE.c **** * Summary:
 168:.\Generated_Source\PSoC5/EMITE.c **** *  Activates the hardware and begins component operation. It is not necessary
 169:.\Generated_Source\PSoC5/EMITE.c **** *  to call EMITE_Enable() because the EMITE_Start() API
 170:.\Generated_Source\PSoC5/EMITE.c **** *  calls this function, which is the preferred method to begin component
 171:.\Generated_Source\PSoC5/EMITE.c **** *  operation.
 172:.\Generated_Source\PSoC5/EMITE.c **** 
 173:.\Generated_Source\PSoC5/EMITE.c **** * Parameters:
ARM GAS  C:\Users\HENRYA~1\AppData\Local\Temp\ccFFMLvl.s 			page 5


 174:.\Generated_Source\PSoC5/EMITE.c **** *  None.
 175:.\Generated_Source\PSoC5/EMITE.c **** *
 176:.\Generated_Source\PSoC5/EMITE.c **** * Return:
 177:.\Generated_Source\PSoC5/EMITE.c **** *  None.
 178:.\Generated_Source\PSoC5/EMITE.c **** *
 179:.\Generated_Source\PSoC5/EMITE.c **** * Global Variables:
 180:.\Generated_Source\PSoC5/EMITE.c **** *  EMITE_rxAddressDetected - set to initial state (0).
 181:.\Generated_Source\PSoC5/EMITE.c **** *
 182:.\Generated_Source\PSoC5/EMITE.c **** *******************************************************************************/
 183:.\Generated_Source\PSoC5/EMITE.c **** void EMITE_Enable(void) 
 184:.\Generated_Source\PSoC5/EMITE.c **** {
  56              		.loc 1 184 0
  57              		.cfi_startproc
  58              		@ args = 0, pretend = 0, frame = 0
  59              		@ frame_needed = 0, uses_anonymous_args = 0
  60 0000 10B5     		push	{r4, lr}
  61              		.cfi_def_cfa_offset 8
  62              		.cfi_offset 4, -8
  63              		.cfi_offset 14, -4
 185:.\Generated_Source\PSoC5/EMITE.c ****     uint8 enableInterrupts;
 186:.\Generated_Source\PSoC5/EMITE.c ****     enableInterrupts = CyEnterCriticalSection();
  64              		.loc 1 186 0
  65 0002 FFF7FEFF 		bl	CyEnterCriticalSection
  66              	.LVL0:
  67 0006 0446     		mov	r4, r0
  68              	.LVL1:
 187:.\Generated_Source\PSoC5/EMITE.c **** 
 188:.\Generated_Source\PSoC5/EMITE.c ****     #if (EMITE_RX_ENABLED || EMITE_HD_ENABLED)
 189:.\Generated_Source\PSoC5/EMITE.c ****         /* RX Counter (Count7) Enable */
 190:.\Generated_Source\PSoC5/EMITE.c ****         EMITE_RXBITCTR_CONTROL_REG |= EMITE_CNTR_ENABLE;
  69              		.loc 1 190 0
  70 0008 074A     		ldr	r2, .L6
  71 000a 1378     		ldrb	r3, [r2]	@ zero_extendqisi2
  72 000c 43F02003 		orr	r3, r3, #32
  73 0010 1370     		strb	r3, [r2]
 191:.\Generated_Source\PSoC5/EMITE.c **** 
 192:.\Generated_Source\PSoC5/EMITE.c ****         /* Enable the RX Interrupt */
 193:.\Generated_Source\PSoC5/EMITE.c ****         EMITE_RXSTATUS_ACTL_REG  |= EMITE_INT_ENABLE;
  74              		.loc 1 193 0
  75 0012 FE32     		adds	r2, r2, #254
  76 0014 1378     		ldrb	r3, [r2]	@ zero_extendqisi2
  77 0016 43F01003 		orr	r3, r3, #16
  78 001a 1370     		strb	r3, [r2]
 194:.\Generated_Source\PSoC5/EMITE.c **** 
 195:.\Generated_Source\PSoC5/EMITE.c ****         #if (EMITE_RX_INTERRUPT_ENABLED)
 196:.\Generated_Source\PSoC5/EMITE.c ****             EMITE_EnableRxInt();
 197:.\Generated_Source\PSoC5/EMITE.c **** 
 198:.\Generated_Source\PSoC5/EMITE.c ****             #if (EMITE_RXHW_ADDRESS_ENABLED)
 199:.\Generated_Source\PSoC5/EMITE.c ****                 EMITE_rxAddressDetected = 0u;
 200:.\Generated_Source\PSoC5/EMITE.c ****             #endif /* (EMITE_RXHW_ADDRESS_ENABLED) */
 201:.\Generated_Source\PSoC5/EMITE.c ****         #endif /* (EMITE_RX_INTERRUPT_ENABLED) */
 202:.\Generated_Source\PSoC5/EMITE.c ****     #endif /* (EMITE_RX_ENABLED || EMITE_HD_ENABLED) */
 203:.\Generated_Source\PSoC5/EMITE.c **** 
 204:.\Generated_Source\PSoC5/EMITE.c ****     #if(EMITE_TX_ENABLED)
 205:.\Generated_Source\PSoC5/EMITE.c ****         /* TX Counter (DP/Count7) Enable */
 206:.\Generated_Source\PSoC5/EMITE.c ****         #if(!EMITE_TXCLKGEN_DP)
 207:.\Generated_Source\PSoC5/EMITE.c ****             EMITE_TXBITCTR_CONTROL_REG |= EMITE_CNTR_ENABLE;
ARM GAS  C:\Users\HENRYA~1\AppData\Local\Temp\ccFFMLvl.s 			page 6


 208:.\Generated_Source\PSoC5/EMITE.c ****         #endif /* End EMITE_TXCLKGEN_DP */
 209:.\Generated_Source\PSoC5/EMITE.c **** 
 210:.\Generated_Source\PSoC5/EMITE.c ****         /* Enable the TX Interrupt */
 211:.\Generated_Source\PSoC5/EMITE.c ****         EMITE_TXSTATUS_ACTL_REG |= EMITE_INT_ENABLE;
 212:.\Generated_Source\PSoC5/EMITE.c ****         #if (EMITE_TX_INTERRUPT_ENABLED)
 213:.\Generated_Source\PSoC5/EMITE.c ****             EMITE_ClearPendingTxInt(); /* Clear history of TX_NOT_EMPTY */
 214:.\Generated_Source\PSoC5/EMITE.c ****             EMITE_EnableTxInt();
 215:.\Generated_Source\PSoC5/EMITE.c ****         #endif /* (EMITE_TX_INTERRUPT_ENABLED) */
 216:.\Generated_Source\PSoC5/EMITE.c ****      #endif /* (EMITE_TX_INTERRUPT_ENABLED) */
 217:.\Generated_Source\PSoC5/EMITE.c **** 
 218:.\Generated_Source\PSoC5/EMITE.c ****     #if (EMITE_INTERNAL_CLOCK_USED)
 219:.\Generated_Source\PSoC5/EMITE.c ****         EMITE_IntClock_Start();  /* Enable the clock */
  79              		.loc 1 219 0
  80 001c FFF7FEFF 		bl	EMITE_IntClock_Start
  81              	.LVL2:
 220:.\Generated_Source\PSoC5/EMITE.c ****     #endif /* (EMITE_INTERNAL_CLOCK_USED) */
 221:.\Generated_Source\PSoC5/EMITE.c **** 
 222:.\Generated_Source\PSoC5/EMITE.c ****     CyExitCriticalSection(enableInterrupts);
  82              		.loc 1 222 0
  83 0020 2046     		mov	r0, r4
  84 0022 FFF7FEFF 		bl	CyExitCriticalSection
  85              	.LVL3:
  86 0026 10BD     		pop	{r4, pc}
  87              	.LVL4:
  88              	.L7:
  89              		.align	2
  90              	.L6:
  91 0028 97640040 		.word	1073767575
  92              		.cfi_endproc
  93              	.LFE2:
  94              		.size	EMITE_Enable, .-EMITE_Enable
  95              		.section	.text.EMITE_Start,"ax",%progbits
  96              		.align	2
  97              		.global	EMITE_Start
  98              		.thumb
  99              		.thumb_func
 100              		.type	EMITE_Start, %function
 101              	EMITE_Start:
 102              	.LFB0:
  77:.\Generated_Source\PSoC5/EMITE.c ****     /* If not initialized then initialize all required hardware and software */
 103              		.loc 1 77 0
 104              		.cfi_startproc
 105              		@ args = 0, pretend = 0, frame = 0
 106              		@ frame_needed = 0, uses_anonymous_args = 0
 107 0000 08B5     		push	{r3, lr}
 108              		.cfi_def_cfa_offset 8
 109              		.cfi_offset 3, -8
 110              		.cfi_offset 14, -4
  79:.\Generated_Source\PSoC5/EMITE.c ****     {
 111              		.loc 1 79 0
 112 0002 054B     		ldr	r3, .L11
 113 0004 1B78     		ldrb	r3, [r3]	@ zero_extendqisi2
 114 0006 23B9     		cbnz	r3, .L9
  81:.\Generated_Source\PSoC5/EMITE.c ****         EMITE_initVar = 1u;
 115              		.loc 1 81 0
 116 0008 FFF7FEFF 		bl	EMITE_Init
 117              	.LVL5:
ARM GAS  C:\Users\HENRYA~1\AppData\Local\Temp\ccFFMLvl.s 			page 7


  82:.\Generated_Source\PSoC5/EMITE.c ****     }
 118              		.loc 1 82 0
 119 000c 0122     		movs	r2, #1
 120 000e 024B     		ldr	r3, .L11
 121 0010 1A70     		strb	r2, [r3]
 122              	.L9:
  85:.\Generated_Source\PSoC5/EMITE.c **** }
 123              		.loc 1 85 0
 124 0012 FFF7FEFF 		bl	EMITE_Enable
 125              	.LVL6:
 126 0016 08BD     		pop	{r3, pc}
 127              	.L12:
 128              		.align	2
 129              	.L11:
 130 0018 00000000 		.word	.LANCHOR0
 131              		.cfi_endproc
 132              	.LFE0:
 133              		.size	EMITE_Start, .-EMITE_Start
 134              		.section	.text.EMITE_Stop,"ax",%progbits
 135              		.align	2
 136              		.global	EMITE_Stop
 137              		.thumb
 138              		.thumb_func
 139              		.type	EMITE_Stop, %function
 140              	EMITE_Stop:
 141              	.LFB3:
 223:.\Generated_Source\PSoC5/EMITE.c **** }
 224:.\Generated_Source\PSoC5/EMITE.c **** 
 225:.\Generated_Source\PSoC5/EMITE.c **** 
 226:.\Generated_Source\PSoC5/EMITE.c **** /*******************************************************************************
 227:.\Generated_Source\PSoC5/EMITE.c **** * Function Name: EMITE_Stop
 228:.\Generated_Source\PSoC5/EMITE.c **** ********************************************************************************
 229:.\Generated_Source\PSoC5/EMITE.c **** *
 230:.\Generated_Source\PSoC5/EMITE.c **** * Summary:
 231:.\Generated_Source\PSoC5/EMITE.c **** *  Disables the UART operation.
 232:.\Generated_Source\PSoC5/EMITE.c **** *
 233:.\Generated_Source\PSoC5/EMITE.c **** * Parameters:
 234:.\Generated_Source\PSoC5/EMITE.c **** *  None.
 235:.\Generated_Source\PSoC5/EMITE.c **** *
 236:.\Generated_Source\PSoC5/EMITE.c **** * Return:
 237:.\Generated_Source\PSoC5/EMITE.c **** *  None.
 238:.\Generated_Source\PSoC5/EMITE.c **** *
 239:.\Generated_Source\PSoC5/EMITE.c **** *******************************************************************************/
 240:.\Generated_Source\PSoC5/EMITE.c **** void EMITE_Stop(void) 
 241:.\Generated_Source\PSoC5/EMITE.c **** {
 142              		.loc 1 241 0
 143              		.cfi_startproc
 144              		@ args = 0, pretend = 0, frame = 0
 145              		@ frame_needed = 0, uses_anonymous_args = 0
 146 0000 10B5     		push	{r4, lr}
 147              		.cfi_def_cfa_offset 8
 148              		.cfi_offset 4, -8
 149              		.cfi_offset 14, -4
 242:.\Generated_Source\PSoC5/EMITE.c ****     uint8 enableInterrupts;
 243:.\Generated_Source\PSoC5/EMITE.c ****     enableInterrupts = CyEnterCriticalSection();
 150              		.loc 1 243 0
 151 0002 FFF7FEFF 		bl	CyEnterCriticalSection
ARM GAS  C:\Users\HENRYA~1\AppData\Local\Temp\ccFFMLvl.s 			page 8


 152              	.LVL7:
 153 0006 0446     		mov	r4, r0
 154              	.LVL8:
 244:.\Generated_Source\PSoC5/EMITE.c **** 
 245:.\Generated_Source\PSoC5/EMITE.c ****     /* Write Bit Counter Disable */
 246:.\Generated_Source\PSoC5/EMITE.c ****     #if (EMITE_RX_ENABLED || EMITE_HD_ENABLED)
 247:.\Generated_Source\PSoC5/EMITE.c ****         EMITE_RXBITCTR_CONTROL_REG &= (uint8) ~EMITE_CNTR_ENABLE;
 155              		.loc 1 247 0
 156 0008 074A     		ldr	r2, .L15
 157 000a 1378     		ldrb	r3, [r2]	@ zero_extendqisi2
 158 000c 03F0DF03 		and	r3, r3, #223
 159 0010 1370     		strb	r3, [r2]
 248:.\Generated_Source\PSoC5/EMITE.c ****     #endif /* (EMITE_RX_ENABLED || EMITE_HD_ENABLED) */
 249:.\Generated_Source\PSoC5/EMITE.c **** 
 250:.\Generated_Source\PSoC5/EMITE.c ****     #if (EMITE_TX_ENABLED)
 251:.\Generated_Source\PSoC5/EMITE.c ****         #if(!EMITE_TXCLKGEN_DP)
 252:.\Generated_Source\PSoC5/EMITE.c ****             EMITE_TXBITCTR_CONTROL_REG &= (uint8) ~EMITE_CNTR_ENABLE;
 253:.\Generated_Source\PSoC5/EMITE.c ****         #endif /* (!EMITE_TXCLKGEN_DP) */
 254:.\Generated_Source\PSoC5/EMITE.c ****     #endif /* (EMITE_TX_ENABLED) */
 255:.\Generated_Source\PSoC5/EMITE.c **** 
 256:.\Generated_Source\PSoC5/EMITE.c ****     #if (EMITE_INTERNAL_CLOCK_USED)
 257:.\Generated_Source\PSoC5/EMITE.c ****         EMITE_IntClock_Stop();   /* Disable the clock */
 160              		.loc 1 257 0
 161 0012 FFF7FEFF 		bl	EMITE_IntClock_Stop
 162              	.LVL9:
 258:.\Generated_Source\PSoC5/EMITE.c ****     #endif /* (EMITE_INTERNAL_CLOCK_USED) */
 259:.\Generated_Source\PSoC5/EMITE.c **** 
 260:.\Generated_Source\PSoC5/EMITE.c ****     /* Disable internal interrupt component */
 261:.\Generated_Source\PSoC5/EMITE.c ****     #if (EMITE_RX_ENABLED || EMITE_HD_ENABLED)
 262:.\Generated_Source\PSoC5/EMITE.c ****         EMITE_RXSTATUS_ACTL_REG  &= (uint8) ~EMITE_INT_ENABLE;
 163              		.loc 1 262 0
 164 0016 054A     		ldr	r2, .L15+4
 165 0018 1378     		ldrb	r3, [r2]	@ zero_extendqisi2
 166 001a 03F0EF03 		and	r3, r3, #239
 167 001e 1370     		strb	r3, [r2]
 263:.\Generated_Source\PSoC5/EMITE.c **** 
 264:.\Generated_Source\PSoC5/EMITE.c ****         #if (EMITE_RX_INTERRUPT_ENABLED)
 265:.\Generated_Source\PSoC5/EMITE.c ****             EMITE_DisableRxInt();
 266:.\Generated_Source\PSoC5/EMITE.c ****         #endif /* (EMITE_RX_INTERRUPT_ENABLED) */
 267:.\Generated_Source\PSoC5/EMITE.c ****     #endif /* (EMITE_RX_ENABLED || EMITE_HD_ENABLED) */
 268:.\Generated_Source\PSoC5/EMITE.c **** 
 269:.\Generated_Source\PSoC5/EMITE.c ****     #if (EMITE_TX_ENABLED)
 270:.\Generated_Source\PSoC5/EMITE.c ****         EMITE_TXSTATUS_ACTL_REG &= (uint8) ~EMITE_INT_ENABLE;
 271:.\Generated_Source\PSoC5/EMITE.c **** 
 272:.\Generated_Source\PSoC5/EMITE.c ****         #if (EMITE_TX_INTERRUPT_ENABLED)
 273:.\Generated_Source\PSoC5/EMITE.c ****             EMITE_DisableTxInt();
 274:.\Generated_Source\PSoC5/EMITE.c ****         #endif /* (EMITE_TX_INTERRUPT_ENABLED) */
 275:.\Generated_Source\PSoC5/EMITE.c ****     #endif /* (EMITE_TX_ENABLED) */
 276:.\Generated_Source\PSoC5/EMITE.c **** 
 277:.\Generated_Source\PSoC5/EMITE.c ****     CyExitCriticalSection(enableInterrupts);
 168              		.loc 1 277 0
 169 0020 2046     		mov	r0, r4
 170 0022 FFF7FEFF 		bl	CyExitCriticalSection
 171              	.LVL10:
 172 0026 10BD     		pop	{r4, pc}
 173              	.LVL11:
 174              	.L16:
ARM GAS  C:\Users\HENRYA~1\AppData\Local\Temp\ccFFMLvl.s 			page 9


 175              		.align	2
 176              	.L15:
 177 0028 97640040 		.word	1073767575
 178 002c 95650040 		.word	1073767829
 179              		.cfi_endproc
 180              	.LFE3:
 181              		.size	EMITE_Stop, .-EMITE_Stop
 182              		.section	.text.EMITE_ReadControlRegister,"ax",%progbits
 183              		.align	2
 184              		.global	EMITE_ReadControlRegister
 185              		.thumb
 186              		.thumb_func
 187              		.type	EMITE_ReadControlRegister, %function
 188              	EMITE_ReadControlRegister:
 189              	.LFB4:
 278:.\Generated_Source\PSoC5/EMITE.c **** }
 279:.\Generated_Source\PSoC5/EMITE.c **** 
 280:.\Generated_Source\PSoC5/EMITE.c **** 
 281:.\Generated_Source\PSoC5/EMITE.c **** /*******************************************************************************
 282:.\Generated_Source\PSoC5/EMITE.c **** * Function Name: EMITE_ReadControlRegister
 283:.\Generated_Source\PSoC5/EMITE.c **** ********************************************************************************
 284:.\Generated_Source\PSoC5/EMITE.c **** *
 285:.\Generated_Source\PSoC5/EMITE.c **** * Summary:
 286:.\Generated_Source\PSoC5/EMITE.c **** *  Returns the current value of the control register.
 287:.\Generated_Source\PSoC5/EMITE.c **** *
 288:.\Generated_Source\PSoC5/EMITE.c **** * Parameters:
 289:.\Generated_Source\PSoC5/EMITE.c **** *  None.
 290:.\Generated_Source\PSoC5/EMITE.c **** *
 291:.\Generated_Source\PSoC5/EMITE.c **** * Return:
 292:.\Generated_Source\PSoC5/EMITE.c **** *  Contents of the control register.
 293:.\Generated_Source\PSoC5/EMITE.c **** *
 294:.\Generated_Source\PSoC5/EMITE.c **** *******************************************************************************/
 295:.\Generated_Source\PSoC5/EMITE.c **** uint8 EMITE_ReadControlRegister(void) 
 296:.\Generated_Source\PSoC5/EMITE.c **** {
 190              		.loc 1 296 0
 191              		.cfi_startproc
 192              		@ args = 0, pretend = 0, frame = 0
 193              		@ frame_needed = 0, uses_anonymous_args = 0
 194              		@ link register save eliminated.
 297:.\Generated_Source\PSoC5/EMITE.c ****     #if (EMITE_CONTROL_REG_REMOVED)
 298:.\Generated_Source\PSoC5/EMITE.c ****         return(0u);
 299:.\Generated_Source\PSoC5/EMITE.c ****     #else
 300:.\Generated_Source\PSoC5/EMITE.c ****         return(EMITE_CONTROL_REG);
 195              		.loc 1 300 0
 196 0000 014B     		ldr	r3, .L18
 197 0002 1878     		ldrb	r0, [r3]	@ zero_extendqisi2
 301:.\Generated_Source\PSoC5/EMITE.c ****     #endif /* (EMITE_CONTROL_REG_REMOVED) */
 302:.\Generated_Source\PSoC5/EMITE.c **** }
 198              		.loc 1 302 0
 199 0004 7047     		bx	lr
 200              	.L19:
 201 0006 00BF     		.align	2
 202              	.L18:
 203 0008 76640040 		.word	1073767542
 204              		.cfi_endproc
 205              	.LFE4:
 206              		.size	EMITE_ReadControlRegister, .-EMITE_ReadControlRegister
ARM GAS  C:\Users\HENRYA~1\AppData\Local\Temp\ccFFMLvl.s 			page 10


 207              		.section	.text.EMITE_WriteControlRegister,"ax",%progbits
 208              		.align	2
 209              		.global	EMITE_WriteControlRegister
 210              		.thumb
 211              		.thumb_func
 212              		.type	EMITE_WriteControlRegister, %function
 213              	EMITE_WriteControlRegister:
 214              	.LFB5:
 303:.\Generated_Source\PSoC5/EMITE.c **** 
 304:.\Generated_Source\PSoC5/EMITE.c **** 
 305:.\Generated_Source\PSoC5/EMITE.c **** /*******************************************************************************
 306:.\Generated_Source\PSoC5/EMITE.c **** * Function Name: EMITE_WriteControlRegister
 307:.\Generated_Source\PSoC5/EMITE.c **** ********************************************************************************
 308:.\Generated_Source\PSoC5/EMITE.c **** *
 309:.\Generated_Source\PSoC5/EMITE.c **** * Summary:
 310:.\Generated_Source\PSoC5/EMITE.c **** *  Writes an 8-bit value into the control register
 311:.\Generated_Source\PSoC5/EMITE.c **** *
 312:.\Generated_Source\PSoC5/EMITE.c **** * Parameters:
 313:.\Generated_Source\PSoC5/EMITE.c **** *  control:  control register value
 314:.\Generated_Source\PSoC5/EMITE.c **** *
 315:.\Generated_Source\PSoC5/EMITE.c **** * Return:
 316:.\Generated_Source\PSoC5/EMITE.c **** *  None.
 317:.\Generated_Source\PSoC5/EMITE.c **** *
 318:.\Generated_Source\PSoC5/EMITE.c **** *******************************************************************************/
 319:.\Generated_Source\PSoC5/EMITE.c **** void  EMITE_WriteControlRegister(uint8 control) 
 320:.\Generated_Source\PSoC5/EMITE.c **** {
 215              		.loc 1 320 0
 216              		.cfi_startproc
 217              		@ args = 0, pretend = 0, frame = 0
 218              		@ frame_needed = 0, uses_anonymous_args = 0
 219              		@ link register save eliminated.
 220              	.LVL12:
 321:.\Generated_Source\PSoC5/EMITE.c ****     #if (EMITE_CONTROL_REG_REMOVED)
 322:.\Generated_Source\PSoC5/EMITE.c ****         if(0u != control)
 323:.\Generated_Source\PSoC5/EMITE.c ****         {
 324:.\Generated_Source\PSoC5/EMITE.c ****             /* Suppress compiler warning */
 325:.\Generated_Source\PSoC5/EMITE.c ****         }
 326:.\Generated_Source\PSoC5/EMITE.c ****     #else
 327:.\Generated_Source\PSoC5/EMITE.c ****        EMITE_CONTROL_REG = control;
 221              		.loc 1 327 0
 222 0000 014B     		ldr	r3, .L21
 223 0002 1870     		strb	r0, [r3]
 224 0004 7047     		bx	lr
 225              	.L22:
 226 0006 00BF     		.align	2
 227              	.L21:
 228 0008 76640040 		.word	1073767542
 229              		.cfi_endproc
 230              	.LFE5:
 231              		.size	EMITE_WriteControlRegister, .-EMITE_WriteControlRegister
 232              		.section	.text.EMITE_SetRxInterruptMode,"ax",%progbits
 233              		.align	2
 234              		.global	EMITE_SetRxInterruptMode
 235              		.thumb
 236              		.thumb_func
 237              		.type	EMITE_SetRxInterruptMode, %function
 238              	EMITE_SetRxInterruptMode:
ARM GAS  C:\Users\HENRYA~1\AppData\Local\Temp\ccFFMLvl.s 			page 11


 239              	.LFB6:
 328:.\Generated_Source\PSoC5/EMITE.c ****     #endif /* (EMITE_CONTROL_REG_REMOVED) */
 329:.\Generated_Source\PSoC5/EMITE.c **** }
 330:.\Generated_Source\PSoC5/EMITE.c **** 
 331:.\Generated_Source\PSoC5/EMITE.c **** 
 332:.\Generated_Source\PSoC5/EMITE.c **** #if(EMITE_RX_ENABLED || EMITE_HD_ENABLED)
 333:.\Generated_Source\PSoC5/EMITE.c ****     /*******************************************************************************
 334:.\Generated_Source\PSoC5/EMITE.c ****     * Function Name: EMITE_SetRxInterruptMode
 335:.\Generated_Source\PSoC5/EMITE.c ****     ********************************************************************************
 336:.\Generated_Source\PSoC5/EMITE.c ****     *
 337:.\Generated_Source\PSoC5/EMITE.c ****     * Summary:
 338:.\Generated_Source\PSoC5/EMITE.c ****     *  Configures the RX interrupt sources enabled.
 339:.\Generated_Source\PSoC5/EMITE.c ****     *
 340:.\Generated_Source\PSoC5/EMITE.c ****     * Parameters:
 341:.\Generated_Source\PSoC5/EMITE.c ****     *  IntSrc:  Bit field containing the RX interrupts to enable. Based on the 
 342:.\Generated_Source\PSoC5/EMITE.c ****     *  bit-field arrangement of the status register. This value must be a 
 343:.\Generated_Source\PSoC5/EMITE.c ****     *  combination of status register bit-masks shown below:
 344:.\Generated_Source\PSoC5/EMITE.c ****     *      EMITE_RX_STS_FIFO_NOTEMPTY    Interrupt on byte received.
 345:.\Generated_Source\PSoC5/EMITE.c ****     *      EMITE_RX_STS_PAR_ERROR        Interrupt on parity error.
 346:.\Generated_Source\PSoC5/EMITE.c ****     *      EMITE_RX_STS_STOP_ERROR       Interrupt on stop error.
 347:.\Generated_Source\PSoC5/EMITE.c ****     *      EMITE_RX_STS_BREAK            Interrupt on break.
 348:.\Generated_Source\PSoC5/EMITE.c ****     *      EMITE_RX_STS_OVERRUN          Interrupt on overrun error.
 349:.\Generated_Source\PSoC5/EMITE.c ****     *      EMITE_RX_STS_ADDR_MATCH       Interrupt on address match.
 350:.\Generated_Source\PSoC5/EMITE.c ****     *      EMITE_RX_STS_MRKSPC           Interrupt on address detect.
 351:.\Generated_Source\PSoC5/EMITE.c ****     *
 352:.\Generated_Source\PSoC5/EMITE.c ****     * Return:
 353:.\Generated_Source\PSoC5/EMITE.c ****     *  None.
 354:.\Generated_Source\PSoC5/EMITE.c ****     *
 355:.\Generated_Source\PSoC5/EMITE.c ****     * Theory:
 356:.\Generated_Source\PSoC5/EMITE.c ****     *  Enables the output of specific status bits to the interrupt controller
 357:.\Generated_Source\PSoC5/EMITE.c ****     *
 358:.\Generated_Source\PSoC5/EMITE.c ****     *******************************************************************************/
 359:.\Generated_Source\PSoC5/EMITE.c ****     void EMITE_SetRxInterruptMode(uint8 intSrc) 
 360:.\Generated_Source\PSoC5/EMITE.c ****     {
 240              		.loc 1 360 0
 241              		.cfi_startproc
 242              		@ args = 0, pretend = 0, frame = 0
 243              		@ frame_needed = 0, uses_anonymous_args = 0
 244              		@ link register save eliminated.
 245              	.LVL13:
 361:.\Generated_Source\PSoC5/EMITE.c ****         EMITE_RXSTATUS_MASK_REG  = intSrc;
 246              		.loc 1 361 0
 247 0000 014B     		ldr	r3, .L24
 248 0002 1870     		strb	r0, [r3]
 249 0004 7047     		bx	lr
 250              	.L25:
 251 0006 00BF     		.align	2
 252              	.L24:
 253 0008 85650040 		.word	1073767813
 254              		.cfi_endproc
 255              	.LFE6:
 256              		.size	EMITE_SetRxInterruptMode, .-EMITE_SetRxInterruptMode
 257              		.section	.text.EMITE_ReadRxData,"ax",%progbits
 258              		.align	2
 259              		.global	EMITE_ReadRxData
 260              		.thumb
 261              		.thumb_func
ARM GAS  C:\Users\HENRYA~1\AppData\Local\Temp\ccFFMLvl.s 			page 12


 262              		.type	EMITE_ReadRxData, %function
 263              	EMITE_ReadRxData:
 264              	.LFB7:
 362:.\Generated_Source\PSoC5/EMITE.c ****     }
 363:.\Generated_Source\PSoC5/EMITE.c **** 
 364:.\Generated_Source\PSoC5/EMITE.c **** 
 365:.\Generated_Source\PSoC5/EMITE.c ****     /*******************************************************************************
 366:.\Generated_Source\PSoC5/EMITE.c ****     * Function Name: EMITE_ReadRxData
 367:.\Generated_Source\PSoC5/EMITE.c ****     ********************************************************************************
 368:.\Generated_Source\PSoC5/EMITE.c ****     *
 369:.\Generated_Source\PSoC5/EMITE.c ****     * Summary:
 370:.\Generated_Source\PSoC5/EMITE.c ****     *  Returns the next byte of received data. This function returns data without
 371:.\Generated_Source\PSoC5/EMITE.c ****     *  checking the status. You must check the status separately.
 372:.\Generated_Source\PSoC5/EMITE.c ****     *
 373:.\Generated_Source\PSoC5/EMITE.c ****     * Parameters:
 374:.\Generated_Source\PSoC5/EMITE.c ****     *  None.
 375:.\Generated_Source\PSoC5/EMITE.c ****     *
 376:.\Generated_Source\PSoC5/EMITE.c ****     * Return:
 377:.\Generated_Source\PSoC5/EMITE.c ****     *  Received data from RX register
 378:.\Generated_Source\PSoC5/EMITE.c ****     *
 379:.\Generated_Source\PSoC5/EMITE.c ****     * Global Variables:
 380:.\Generated_Source\PSoC5/EMITE.c ****     *  EMITE_rxBuffer - RAM buffer pointer for save received data.
 381:.\Generated_Source\PSoC5/EMITE.c ****     *  EMITE_rxBufferWrite - cyclic index for write to rxBuffer,
 382:.\Generated_Source\PSoC5/EMITE.c ****     *     checked to identify new data.
 383:.\Generated_Source\PSoC5/EMITE.c ****     *  EMITE_rxBufferRead - cyclic index for read from rxBuffer,
 384:.\Generated_Source\PSoC5/EMITE.c ****     *     incremented after each byte has been read from buffer.
 385:.\Generated_Source\PSoC5/EMITE.c ****     *  EMITE_rxBufferLoopDetect - cleared if loop condition was detected
 386:.\Generated_Source\PSoC5/EMITE.c ****     *     in RX ISR.
 387:.\Generated_Source\PSoC5/EMITE.c ****     *
 388:.\Generated_Source\PSoC5/EMITE.c ****     * Reentrant:
 389:.\Generated_Source\PSoC5/EMITE.c ****     *  No.
 390:.\Generated_Source\PSoC5/EMITE.c ****     *
 391:.\Generated_Source\PSoC5/EMITE.c ****     *******************************************************************************/
 392:.\Generated_Source\PSoC5/EMITE.c ****     uint8 EMITE_ReadRxData(void) 
 393:.\Generated_Source\PSoC5/EMITE.c ****     {
 265              		.loc 1 393 0
 266              		.cfi_startproc
 267              		@ args = 0, pretend = 0, frame = 0
 268              		@ frame_needed = 0, uses_anonymous_args = 0
 269              		@ link register save eliminated.
 394:.\Generated_Source\PSoC5/EMITE.c ****         uint8 rxData;
 395:.\Generated_Source\PSoC5/EMITE.c **** 
 396:.\Generated_Source\PSoC5/EMITE.c ****     #if (EMITE_RX_INTERRUPT_ENABLED)
 397:.\Generated_Source\PSoC5/EMITE.c **** 
 398:.\Generated_Source\PSoC5/EMITE.c ****         uint8 locRxBufferRead;
 399:.\Generated_Source\PSoC5/EMITE.c ****         uint8 locRxBufferWrite;
 400:.\Generated_Source\PSoC5/EMITE.c **** 
 401:.\Generated_Source\PSoC5/EMITE.c ****         /* Protect variables that could change on interrupt */
 402:.\Generated_Source\PSoC5/EMITE.c ****         EMITE_DisableRxInt();
 403:.\Generated_Source\PSoC5/EMITE.c **** 
 404:.\Generated_Source\PSoC5/EMITE.c ****         locRxBufferRead  = EMITE_rxBufferRead;
 405:.\Generated_Source\PSoC5/EMITE.c ****         locRxBufferWrite = EMITE_rxBufferWrite;
 406:.\Generated_Source\PSoC5/EMITE.c **** 
 407:.\Generated_Source\PSoC5/EMITE.c ****         if( (EMITE_rxBufferLoopDetect != 0u) || (locRxBufferRead != locRxBufferWrite) )
 408:.\Generated_Source\PSoC5/EMITE.c ****         {
 409:.\Generated_Source\PSoC5/EMITE.c ****             rxData = EMITE_rxBuffer[locRxBufferRead];
 410:.\Generated_Source\PSoC5/EMITE.c ****             locRxBufferRead++;
ARM GAS  C:\Users\HENRYA~1\AppData\Local\Temp\ccFFMLvl.s 			page 13


 411:.\Generated_Source\PSoC5/EMITE.c **** 
 412:.\Generated_Source\PSoC5/EMITE.c ****             if(locRxBufferRead >= EMITE_RX_BUFFER_SIZE)
 413:.\Generated_Source\PSoC5/EMITE.c ****             {
 414:.\Generated_Source\PSoC5/EMITE.c ****                 locRxBufferRead = 0u;
 415:.\Generated_Source\PSoC5/EMITE.c ****             }
 416:.\Generated_Source\PSoC5/EMITE.c ****             /* Update the real pointer */
 417:.\Generated_Source\PSoC5/EMITE.c ****             EMITE_rxBufferRead = locRxBufferRead;
 418:.\Generated_Source\PSoC5/EMITE.c **** 
 419:.\Generated_Source\PSoC5/EMITE.c ****             if(EMITE_rxBufferLoopDetect != 0u)
 420:.\Generated_Source\PSoC5/EMITE.c ****             {
 421:.\Generated_Source\PSoC5/EMITE.c ****                 EMITE_rxBufferLoopDetect = 0u;
 422:.\Generated_Source\PSoC5/EMITE.c ****                 #if ((EMITE_RX_INTERRUPT_ENABLED) && (EMITE_FLOW_CONTROL != 0u))
 423:.\Generated_Source\PSoC5/EMITE.c ****                     /* When Hardware Flow Control selected - return RX mask */
 424:.\Generated_Source\PSoC5/EMITE.c ****                     #if( EMITE_HD_ENABLED )
 425:.\Generated_Source\PSoC5/EMITE.c ****                         if((EMITE_CONTROL_REG & EMITE_CTRL_HD_SEND) == 0u)
 426:.\Generated_Source\PSoC5/EMITE.c ****                         {   /* In Half duplex mode return RX mask only in RX
 427:.\Generated_Source\PSoC5/EMITE.c ****                             *  configuration set, otherwise
 428:.\Generated_Source\PSoC5/EMITE.c ****                             *  mask will be returned in LoadRxConfig() API.
 429:.\Generated_Source\PSoC5/EMITE.c ****                             */
 430:.\Generated_Source\PSoC5/EMITE.c ****                             EMITE_RXSTATUS_MASK_REG  |= EMITE_RX_STS_FIFO_NOTEMPTY;
 431:.\Generated_Source\PSoC5/EMITE.c ****                         }
 432:.\Generated_Source\PSoC5/EMITE.c ****                     #else
 433:.\Generated_Source\PSoC5/EMITE.c ****                         EMITE_RXSTATUS_MASK_REG  |= EMITE_RX_STS_FIFO_NOTEMPTY;
 434:.\Generated_Source\PSoC5/EMITE.c ****                     #endif /* end EMITE_HD_ENABLED */
 435:.\Generated_Source\PSoC5/EMITE.c ****                 #endif /* ((EMITE_RX_INTERRUPT_ENABLED) && (EMITE_FLOW_CONTROL != 0u)) */
 436:.\Generated_Source\PSoC5/EMITE.c ****             }
 437:.\Generated_Source\PSoC5/EMITE.c ****         }
 438:.\Generated_Source\PSoC5/EMITE.c ****         else
 439:.\Generated_Source\PSoC5/EMITE.c ****         {   /* Needs to check status for RX_STS_FIFO_NOTEMPTY bit */
 440:.\Generated_Source\PSoC5/EMITE.c ****             rxData = EMITE_RXDATA_REG;
 441:.\Generated_Source\PSoC5/EMITE.c ****         }
 442:.\Generated_Source\PSoC5/EMITE.c **** 
 443:.\Generated_Source\PSoC5/EMITE.c ****         EMITE_EnableRxInt();
 444:.\Generated_Source\PSoC5/EMITE.c **** 
 445:.\Generated_Source\PSoC5/EMITE.c ****     #else
 446:.\Generated_Source\PSoC5/EMITE.c **** 
 447:.\Generated_Source\PSoC5/EMITE.c ****         /* Needs to check status for RX_STS_FIFO_NOTEMPTY bit */
 448:.\Generated_Source\PSoC5/EMITE.c ****         rxData = EMITE_RXDATA_REG;
 270              		.loc 1 448 0
 271 0000 014B     		ldr	r3, .L27
 272 0002 1878     		ldrb	r0, [r3]	@ zero_extendqisi2
 273              	.LVL14:
 449:.\Generated_Source\PSoC5/EMITE.c **** 
 450:.\Generated_Source\PSoC5/EMITE.c ****     #endif /* (EMITE_RX_INTERRUPT_ENABLED) */
 451:.\Generated_Source\PSoC5/EMITE.c **** 
 452:.\Generated_Source\PSoC5/EMITE.c ****         return(rxData);
 453:.\Generated_Source\PSoC5/EMITE.c ****     }
 274              		.loc 1 453 0
 275 0004 7047     		bx	lr
 276              	.L28:
 277 0006 00BF     		.align	2
 278              	.L27:
 279 0008 47640040 		.word	1073767495
 280              		.cfi_endproc
 281              	.LFE7:
 282              		.size	EMITE_ReadRxData, .-EMITE_ReadRxData
 283              		.section	.text.EMITE_ReadRxStatus,"ax",%progbits
ARM GAS  C:\Users\HENRYA~1\AppData\Local\Temp\ccFFMLvl.s 			page 14


 284              		.align	2
 285              		.global	EMITE_ReadRxStatus
 286              		.thumb
 287              		.thumb_func
 288              		.type	EMITE_ReadRxStatus, %function
 289              	EMITE_ReadRxStatus:
 290              	.LFB8:
 454:.\Generated_Source\PSoC5/EMITE.c **** 
 455:.\Generated_Source\PSoC5/EMITE.c **** 
 456:.\Generated_Source\PSoC5/EMITE.c ****     /*******************************************************************************
 457:.\Generated_Source\PSoC5/EMITE.c ****     * Function Name: EMITE_ReadRxStatus
 458:.\Generated_Source\PSoC5/EMITE.c ****     ********************************************************************************
 459:.\Generated_Source\PSoC5/EMITE.c ****     *
 460:.\Generated_Source\PSoC5/EMITE.c ****     * Summary:
 461:.\Generated_Source\PSoC5/EMITE.c ****     *  Returns the current state of the receiver status register and the software
 462:.\Generated_Source\PSoC5/EMITE.c ****     *  buffer overflow status.
 463:.\Generated_Source\PSoC5/EMITE.c ****     *
 464:.\Generated_Source\PSoC5/EMITE.c ****     * Parameters:
 465:.\Generated_Source\PSoC5/EMITE.c ****     *  None.
 466:.\Generated_Source\PSoC5/EMITE.c ****     *
 467:.\Generated_Source\PSoC5/EMITE.c ****     * Return:
 468:.\Generated_Source\PSoC5/EMITE.c ****     *  Current state of the status register.
 469:.\Generated_Source\PSoC5/EMITE.c ****     *
 470:.\Generated_Source\PSoC5/EMITE.c ****     * Side Effect:
 471:.\Generated_Source\PSoC5/EMITE.c ****     *  All status register bits are clear-on-read except
 472:.\Generated_Source\PSoC5/EMITE.c ****     *  EMITE_RX_STS_FIFO_NOTEMPTY.
 473:.\Generated_Source\PSoC5/EMITE.c ****     *  EMITE_RX_STS_FIFO_NOTEMPTY clears immediately after RX data
 474:.\Generated_Source\PSoC5/EMITE.c ****     *  register read.
 475:.\Generated_Source\PSoC5/EMITE.c ****     *
 476:.\Generated_Source\PSoC5/EMITE.c ****     * Global Variables:
 477:.\Generated_Source\PSoC5/EMITE.c ****     *  EMITE_rxBufferOverflow - used to indicate overload condition.
 478:.\Generated_Source\PSoC5/EMITE.c ****     *   It set to one in RX interrupt when there isn't free space in
 479:.\Generated_Source\PSoC5/EMITE.c ****     *   EMITE_rxBufferRead to write new data. This condition returned
 480:.\Generated_Source\PSoC5/EMITE.c ****     *   and cleared to zero by this API as an
 481:.\Generated_Source\PSoC5/EMITE.c ****     *   EMITE_RX_STS_SOFT_BUFF_OVER bit along with RX Status register
 482:.\Generated_Source\PSoC5/EMITE.c ****     *   bits.
 483:.\Generated_Source\PSoC5/EMITE.c ****     *
 484:.\Generated_Source\PSoC5/EMITE.c ****     *******************************************************************************/
 485:.\Generated_Source\PSoC5/EMITE.c ****     uint8 EMITE_ReadRxStatus(void) 
 486:.\Generated_Source\PSoC5/EMITE.c ****     {
 291              		.loc 1 486 0
 292              		.cfi_startproc
 293              		@ args = 0, pretend = 0, frame = 0
 294              		@ frame_needed = 0, uses_anonymous_args = 0
 295              		@ link register save eliminated.
 487:.\Generated_Source\PSoC5/EMITE.c ****         uint8 status;
 488:.\Generated_Source\PSoC5/EMITE.c **** 
 489:.\Generated_Source\PSoC5/EMITE.c ****         status = EMITE_RXSTATUS_REG & EMITE_RX_HW_MASK;
 296              		.loc 1 489 0
 297 0000 024B     		ldr	r3, .L30
 298 0002 1878     		ldrb	r0, [r3]	@ zero_extendqisi2
 299              	.LVL15:
 490:.\Generated_Source\PSoC5/EMITE.c **** 
 491:.\Generated_Source\PSoC5/EMITE.c ****     #if (EMITE_RX_INTERRUPT_ENABLED)
 492:.\Generated_Source\PSoC5/EMITE.c ****         if(EMITE_rxBufferOverflow != 0u)
 493:.\Generated_Source\PSoC5/EMITE.c ****         {
 494:.\Generated_Source\PSoC5/EMITE.c ****             status |= EMITE_RX_STS_SOFT_BUFF_OVER;
ARM GAS  C:\Users\HENRYA~1\AppData\Local\Temp\ccFFMLvl.s 			page 15


 495:.\Generated_Source\PSoC5/EMITE.c ****             EMITE_rxBufferOverflow = 0u;
 496:.\Generated_Source\PSoC5/EMITE.c ****         }
 497:.\Generated_Source\PSoC5/EMITE.c ****     #endif /* (EMITE_RX_INTERRUPT_ENABLED) */
 498:.\Generated_Source\PSoC5/EMITE.c **** 
 499:.\Generated_Source\PSoC5/EMITE.c ****         return(status);
 500:.\Generated_Source\PSoC5/EMITE.c ****     }
 300              		.loc 1 500 0
 301 0004 00F07F00 		and	r0, r0, #127
 302              	.LVL16:
 303 0008 7047     		bx	lr
 304              	.L31:
 305 000a 00BF     		.align	2
 306              	.L30:
 307 000c 65650040 		.word	1073767781
 308              		.cfi_endproc
 309              	.LFE8:
 310              		.size	EMITE_ReadRxStatus, .-EMITE_ReadRxStatus
 311              		.section	.text.EMITE_GetChar,"ax",%progbits
 312              		.align	2
 313              		.global	EMITE_GetChar
 314              		.thumb
 315              		.thumb_func
 316              		.type	EMITE_GetChar, %function
 317              	EMITE_GetChar:
 318              	.LFB9:
 501:.\Generated_Source\PSoC5/EMITE.c **** 
 502:.\Generated_Source\PSoC5/EMITE.c **** 
 503:.\Generated_Source\PSoC5/EMITE.c ****     /*******************************************************************************
 504:.\Generated_Source\PSoC5/EMITE.c ****     * Function Name: EMITE_GetChar
 505:.\Generated_Source\PSoC5/EMITE.c ****     ********************************************************************************
 506:.\Generated_Source\PSoC5/EMITE.c ****     *
 507:.\Generated_Source\PSoC5/EMITE.c ****     * Summary:
 508:.\Generated_Source\PSoC5/EMITE.c ****     *  Returns the last received byte of data. EMITE_GetChar() is
 509:.\Generated_Source\PSoC5/EMITE.c ****     *  designed for ASCII characters and returns a uint8 where 1 to 255 are values
 510:.\Generated_Source\PSoC5/EMITE.c ****     *  for valid characters and 0 indicates an error occurred or no data is present.
 511:.\Generated_Source\PSoC5/EMITE.c ****     *
 512:.\Generated_Source\PSoC5/EMITE.c ****     * Parameters:
 513:.\Generated_Source\PSoC5/EMITE.c ****     *  None.
 514:.\Generated_Source\PSoC5/EMITE.c ****     *
 515:.\Generated_Source\PSoC5/EMITE.c ****     * Return:
 516:.\Generated_Source\PSoC5/EMITE.c ****     *  Character read from UART RX buffer. ASCII characters from 1 to 255 are valid.
 517:.\Generated_Source\PSoC5/EMITE.c ****     *  A returned zero signifies an error condition or no data available.
 518:.\Generated_Source\PSoC5/EMITE.c ****     *
 519:.\Generated_Source\PSoC5/EMITE.c ****     * Global Variables:
 520:.\Generated_Source\PSoC5/EMITE.c ****     *  EMITE_rxBuffer - RAM buffer pointer for save received data.
 521:.\Generated_Source\PSoC5/EMITE.c ****     *  EMITE_rxBufferWrite - cyclic index for write to rxBuffer,
 522:.\Generated_Source\PSoC5/EMITE.c ****     *     checked to identify new data.
 523:.\Generated_Source\PSoC5/EMITE.c ****     *  EMITE_rxBufferRead - cyclic index for read from rxBuffer,
 524:.\Generated_Source\PSoC5/EMITE.c ****     *     incremented after each byte has been read from buffer.
 525:.\Generated_Source\PSoC5/EMITE.c ****     *  EMITE_rxBufferLoopDetect - cleared if loop condition was detected
 526:.\Generated_Source\PSoC5/EMITE.c ****     *     in RX ISR.
 527:.\Generated_Source\PSoC5/EMITE.c ****     *
 528:.\Generated_Source\PSoC5/EMITE.c ****     * Reentrant:
 529:.\Generated_Source\PSoC5/EMITE.c ****     *  No.
 530:.\Generated_Source\PSoC5/EMITE.c ****     *
 531:.\Generated_Source\PSoC5/EMITE.c ****     *******************************************************************************/
 532:.\Generated_Source\PSoC5/EMITE.c ****     uint8 EMITE_GetChar(void) 
ARM GAS  C:\Users\HENRYA~1\AppData\Local\Temp\ccFFMLvl.s 			page 16


 533:.\Generated_Source\PSoC5/EMITE.c ****     {
 319              		.loc 1 533 0
 320              		.cfi_startproc
 321              		@ args = 0, pretend = 0, frame = 0
 322              		@ frame_needed = 0, uses_anonymous_args = 0
 323              		@ link register save eliminated.
 324              	.LVL17:
 534:.\Generated_Source\PSoC5/EMITE.c ****         uint8 rxData = 0u;
 535:.\Generated_Source\PSoC5/EMITE.c ****         uint8 rxStatus;
 536:.\Generated_Source\PSoC5/EMITE.c **** 
 537:.\Generated_Source\PSoC5/EMITE.c ****     #if (EMITE_RX_INTERRUPT_ENABLED)
 538:.\Generated_Source\PSoC5/EMITE.c ****         uint8 locRxBufferRead;
 539:.\Generated_Source\PSoC5/EMITE.c ****         uint8 locRxBufferWrite;
 540:.\Generated_Source\PSoC5/EMITE.c **** 
 541:.\Generated_Source\PSoC5/EMITE.c ****         /* Protect variables that could change on interrupt */
 542:.\Generated_Source\PSoC5/EMITE.c ****         EMITE_DisableRxInt();
 543:.\Generated_Source\PSoC5/EMITE.c **** 
 544:.\Generated_Source\PSoC5/EMITE.c ****         locRxBufferRead  = EMITE_rxBufferRead;
 545:.\Generated_Source\PSoC5/EMITE.c ****         locRxBufferWrite = EMITE_rxBufferWrite;
 546:.\Generated_Source\PSoC5/EMITE.c **** 
 547:.\Generated_Source\PSoC5/EMITE.c ****         if( (EMITE_rxBufferLoopDetect != 0u) || (locRxBufferRead != locRxBufferWrite) )
 548:.\Generated_Source\PSoC5/EMITE.c ****         {
 549:.\Generated_Source\PSoC5/EMITE.c ****             rxData = EMITE_rxBuffer[locRxBufferRead];
 550:.\Generated_Source\PSoC5/EMITE.c ****             locRxBufferRead++;
 551:.\Generated_Source\PSoC5/EMITE.c ****             if(locRxBufferRead >= EMITE_RX_BUFFER_SIZE)
 552:.\Generated_Source\PSoC5/EMITE.c ****             {
 553:.\Generated_Source\PSoC5/EMITE.c ****                 locRxBufferRead = 0u;
 554:.\Generated_Source\PSoC5/EMITE.c ****             }
 555:.\Generated_Source\PSoC5/EMITE.c ****             /* Update the real pointer */
 556:.\Generated_Source\PSoC5/EMITE.c ****             EMITE_rxBufferRead = locRxBufferRead;
 557:.\Generated_Source\PSoC5/EMITE.c **** 
 558:.\Generated_Source\PSoC5/EMITE.c ****             if(EMITE_rxBufferLoopDetect != 0u)
 559:.\Generated_Source\PSoC5/EMITE.c ****             {
 560:.\Generated_Source\PSoC5/EMITE.c ****                 EMITE_rxBufferLoopDetect = 0u;
 561:.\Generated_Source\PSoC5/EMITE.c ****                 #if( (EMITE_RX_INTERRUPT_ENABLED) && (EMITE_FLOW_CONTROL != 0u) )
 562:.\Generated_Source\PSoC5/EMITE.c ****                     /* When Hardware Flow Control selected - return RX mask */
 563:.\Generated_Source\PSoC5/EMITE.c ****                     #if( EMITE_HD_ENABLED )
 564:.\Generated_Source\PSoC5/EMITE.c ****                         if((EMITE_CONTROL_REG & EMITE_CTRL_HD_SEND) == 0u)
 565:.\Generated_Source\PSoC5/EMITE.c ****                         {   /* In Half duplex mode return RX mask only if
 566:.\Generated_Source\PSoC5/EMITE.c ****                             *  RX configuration set, otherwise
 567:.\Generated_Source\PSoC5/EMITE.c ****                             *  mask will be returned in LoadRxConfig() API.
 568:.\Generated_Source\PSoC5/EMITE.c ****                             */
 569:.\Generated_Source\PSoC5/EMITE.c ****                             EMITE_RXSTATUS_MASK_REG |= EMITE_RX_STS_FIFO_NOTEMPTY;
 570:.\Generated_Source\PSoC5/EMITE.c ****                         }
 571:.\Generated_Source\PSoC5/EMITE.c ****                     #else
 572:.\Generated_Source\PSoC5/EMITE.c ****                         EMITE_RXSTATUS_MASK_REG |= EMITE_RX_STS_FIFO_NOTEMPTY;
 573:.\Generated_Source\PSoC5/EMITE.c ****                     #endif /* end EMITE_HD_ENABLED */
 574:.\Generated_Source\PSoC5/EMITE.c ****                 #endif /* EMITE_RX_INTERRUPT_ENABLED and Hardware flow control*/
 575:.\Generated_Source\PSoC5/EMITE.c ****             }
 576:.\Generated_Source\PSoC5/EMITE.c **** 
 577:.\Generated_Source\PSoC5/EMITE.c ****         }
 578:.\Generated_Source\PSoC5/EMITE.c ****         else
 579:.\Generated_Source\PSoC5/EMITE.c ****         {   rxStatus = EMITE_RXSTATUS_REG;
 580:.\Generated_Source\PSoC5/EMITE.c ****             if((rxStatus & EMITE_RX_STS_FIFO_NOTEMPTY) != 0u)
 581:.\Generated_Source\PSoC5/EMITE.c ****             {   /* Read received data from FIFO */
 582:.\Generated_Source\PSoC5/EMITE.c ****                 rxData = EMITE_RXDATA_REG;
 583:.\Generated_Source\PSoC5/EMITE.c ****                 /*Check status on error*/
ARM GAS  C:\Users\HENRYA~1\AppData\Local\Temp\ccFFMLvl.s 			page 17


 584:.\Generated_Source\PSoC5/EMITE.c ****                 if((rxStatus & (EMITE_RX_STS_BREAK | EMITE_RX_STS_PAR_ERROR |
 585:.\Generated_Source\PSoC5/EMITE.c ****                                 EMITE_RX_STS_STOP_ERROR | EMITE_RX_STS_OVERRUN)) != 0u)
 586:.\Generated_Source\PSoC5/EMITE.c ****                 {
 587:.\Generated_Source\PSoC5/EMITE.c ****                     rxData = 0u;
 588:.\Generated_Source\PSoC5/EMITE.c ****                 }
 589:.\Generated_Source\PSoC5/EMITE.c ****             }
 590:.\Generated_Source\PSoC5/EMITE.c ****         }
 591:.\Generated_Source\PSoC5/EMITE.c **** 
 592:.\Generated_Source\PSoC5/EMITE.c ****         EMITE_EnableRxInt();
 593:.\Generated_Source\PSoC5/EMITE.c **** 
 594:.\Generated_Source\PSoC5/EMITE.c ****     #else
 595:.\Generated_Source\PSoC5/EMITE.c **** 
 596:.\Generated_Source\PSoC5/EMITE.c ****         rxStatus =EMITE_RXSTATUS_REG;
 325              		.loc 1 596 0
 326 0000 084B     		ldr	r3, .L36
 327 0002 1B78     		ldrb	r3, [r3]	@ zero_extendqisi2
 328 0004 DBB2     		uxtb	r3, r3
 329              	.LVL18:
 597:.\Generated_Source\PSoC5/EMITE.c ****         if((rxStatus & EMITE_RX_STS_FIFO_NOTEMPTY) != 0u)
 330              		.loc 1 597 0
 331 0006 13F0200F 		tst	r3, #32
 332 000a 06D0     		beq	.L34
 598:.\Generated_Source\PSoC5/EMITE.c ****         {
 599:.\Generated_Source\PSoC5/EMITE.c ****             /* Read received data from FIFO */
 600:.\Generated_Source\PSoC5/EMITE.c ****             rxData = EMITE_RXDATA_REG;
 333              		.loc 1 600 0
 334 000c 064A     		ldr	r2, .L36+4
 335 000e 1078     		ldrb	r0, [r2]	@ zero_extendqisi2
 336 0010 C0B2     		uxtb	r0, r0
 337              	.LVL19:
 601:.\Generated_Source\PSoC5/EMITE.c **** 
 602:.\Generated_Source\PSoC5/EMITE.c ****             /*Check status on error*/
 603:.\Generated_Source\PSoC5/EMITE.c ****             if((rxStatus & (EMITE_RX_STS_BREAK | EMITE_RX_STS_PAR_ERROR |
 338              		.loc 1 603 0
 339 0012 13F01E0F 		tst	r3, #30
 340 0016 02D1     		bne	.L35
 341 0018 7047     		bx	lr
 342              	.LVL20:
 343              	.L34:
 534:.\Generated_Source\PSoC5/EMITE.c ****         uint8 rxStatus;
 344              		.loc 1 534 0
 345 001a 0020     		movs	r0, #0
 346 001c 7047     		bx	lr
 347              	.LVL21:
 348              	.L35:
 604:.\Generated_Source\PSoC5/EMITE.c ****                             EMITE_RX_STS_STOP_ERROR | EMITE_RX_STS_OVERRUN)) != 0u)
 605:.\Generated_Source\PSoC5/EMITE.c ****             {
 606:.\Generated_Source\PSoC5/EMITE.c ****                 rxData = 0u;
 349              		.loc 1 606 0
 350 001e 0020     		movs	r0, #0
 351              	.LVL22:
 607:.\Generated_Source\PSoC5/EMITE.c ****             }
 608:.\Generated_Source\PSoC5/EMITE.c ****         }
 609:.\Generated_Source\PSoC5/EMITE.c ****     #endif /* (EMITE_RX_INTERRUPT_ENABLED) */
 610:.\Generated_Source\PSoC5/EMITE.c **** 
 611:.\Generated_Source\PSoC5/EMITE.c ****         return(rxData);
 612:.\Generated_Source\PSoC5/EMITE.c ****     }
ARM GAS  C:\Users\HENRYA~1\AppData\Local\Temp\ccFFMLvl.s 			page 18


 352              		.loc 1 612 0
 353 0020 7047     		bx	lr
 354              	.L37:
 355 0022 00BF     		.align	2
 356              	.L36:
 357 0024 65650040 		.word	1073767781
 358 0028 47640040 		.word	1073767495
 359              		.cfi_endproc
 360              	.LFE9:
 361              		.size	EMITE_GetChar, .-EMITE_GetChar
 362              		.section	.text.EMITE_GetByte,"ax",%progbits
 363              		.align	2
 364              		.global	EMITE_GetByte
 365              		.thumb
 366              		.thumb_func
 367              		.type	EMITE_GetByte, %function
 368              	EMITE_GetByte:
 369              	.LFB10:
 613:.\Generated_Source\PSoC5/EMITE.c **** 
 614:.\Generated_Source\PSoC5/EMITE.c **** 
 615:.\Generated_Source\PSoC5/EMITE.c ****     /*******************************************************************************
 616:.\Generated_Source\PSoC5/EMITE.c ****     * Function Name: EMITE_GetByte
 617:.\Generated_Source\PSoC5/EMITE.c ****     ********************************************************************************
 618:.\Generated_Source\PSoC5/EMITE.c ****     *
 619:.\Generated_Source\PSoC5/EMITE.c ****     * Summary:
 620:.\Generated_Source\PSoC5/EMITE.c ****     *  Reads UART RX buffer immediately, returns received character and error
 621:.\Generated_Source\PSoC5/EMITE.c ****     *  condition.
 622:.\Generated_Source\PSoC5/EMITE.c ****     *
 623:.\Generated_Source\PSoC5/EMITE.c ****     * Parameters:
 624:.\Generated_Source\PSoC5/EMITE.c ****     *  None.
 625:.\Generated_Source\PSoC5/EMITE.c ****     *
 626:.\Generated_Source\PSoC5/EMITE.c ****     * Return:
 627:.\Generated_Source\PSoC5/EMITE.c ****     *  MSB contains status and LSB contains UART RX data. If the MSB is nonzero,
 628:.\Generated_Source\PSoC5/EMITE.c ****     *  an error has occurred.
 629:.\Generated_Source\PSoC5/EMITE.c ****     *
 630:.\Generated_Source\PSoC5/EMITE.c ****     * Reentrant:
 631:.\Generated_Source\PSoC5/EMITE.c ****     *  No.
 632:.\Generated_Source\PSoC5/EMITE.c ****     *
 633:.\Generated_Source\PSoC5/EMITE.c ****     *******************************************************************************/
 634:.\Generated_Source\PSoC5/EMITE.c ****     uint16 EMITE_GetByte(void) 
 635:.\Generated_Source\PSoC5/EMITE.c ****     {
 370              		.loc 1 635 0
 371              		.cfi_startproc
 372              		@ args = 0, pretend = 0, frame = 0
 373              		@ frame_needed = 0, uses_anonymous_args = 0
 374 0000 10B5     		push	{r4, lr}
 375              		.cfi_def_cfa_offset 8
 376              		.cfi_offset 4, -8
 377              		.cfi_offset 14, -4
 636:.\Generated_Source\PSoC5/EMITE.c ****         
 637:.\Generated_Source\PSoC5/EMITE.c ****     #if (EMITE_RX_INTERRUPT_ENABLED)
 638:.\Generated_Source\PSoC5/EMITE.c ****         uint16 locErrorStatus;
 639:.\Generated_Source\PSoC5/EMITE.c ****         /* Protect variables that could change on interrupt */
 640:.\Generated_Source\PSoC5/EMITE.c ****         EMITE_DisableRxInt();
 641:.\Generated_Source\PSoC5/EMITE.c ****         locErrorStatus = (uint16)EMITE_errorStatus;
 642:.\Generated_Source\PSoC5/EMITE.c ****         EMITE_errorStatus = 0u;
 643:.\Generated_Source\PSoC5/EMITE.c ****         EMITE_EnableRxInt();
ARM GAS  C:\Users\HENRYA~1\AppData\Local\Temp\ccFFMLvl.s 			page 19


 644:.\Generated_Source\PSoC5/EMITE.c ****         return ( (uint16)(locErrorStatus << 8u) | EMITE_ReadRxData() );
 645:.\Generated_Source\PSoC5/EMITE.c ****     #else
 646:.\Generated_Source\PSoC5/EMITE.c ****         return ( ((uint16)EMITE_ReadRxStatus() << 8u) | EMITE_ReadRxData() );
 378              		.loc 1 646 0
 379 0002 FFF7FEFF 		bl	EMITE_ReadRxStatus
 380              	.LVL23:
 381 0006 0402     		lsls	r4, r0, #8
 382 0008 FFF7FEFF 		bl	EMITE_ReadRxData
 383              	.LVL24:
 384 000c 2043     		orrs	r0, r0, r4
 647:.\Generated_Source\PSoC5/EMITE.c ****     #endif /* EMITE_RX_INTERRUPT_ENABLED */
 648:.\Generated_Source\PSoC5/EMITE.c ****         
 649:.\Generated_Source\PSoC5/EMITE.c ****     }
 385              		.loc 1 649 0
 386 000e 80B2     		uxth	r0, r0
 387 0010 10BD     		pop	{r4, pc}
 388              		.cfi_endproc
 389              	.LFE10:
 390              		.size	EMITE_GetByte, .-EMITE_GetByte
 391 0012 00BF     		.section	.text.EMITE_GetRxBufferSize,"ax",%progbits
 392              		.align	2
 393              		.global	EMITE_GetRxBufferSize
 394              		.thumb
 395              		.thumb_func
 396              		.type	EMITE_GetRxBufferSize, %function
 397              	EMITE_GetRxBufferSize:
 398              	.LFB11:
 650:.\Generated_Source\PSoC5/EMITE.c **** 
 651:.\Generated_Source\PSoC5/EMITE.c **** 
 652:.\Generated_Source\PSoC5/EMITE.c ****     /*******************************************************************************
 653:.\Generated_Source\PSoC5/EMITE.c ****     * Function Name: EMITE_GetRxBufferSize
 654:.\Generated_Source\PSoC5/EMITE.c ****     ********************************************************************************
 655:.\Generated_Source\PSoC5/EMITE.c ****     *
 656:.\Generated_Source\PSoC5/EMITE.c ****     * Summary:
 657:.\Generated_Source\PSoC5/EMITE.c ****     *  Returns the number of received bytes available in the RX buffer.
 658:.\Generated_Source\PSoC5/EMITE.c ****     *  * RX software buffer is disabled (RX Buffer Size parameter is equal to 4): 
 659:.\Generated_Source\PSoC5/EMITE.c ****     *    returns 0 for empty RX FIFO or 1 for not empty RX FIFO.
 660:.\Generated_Source\PSoC5/EMITE.c ****     *  * RX software buffer is enabled: returns the number of bytes available in 
 661:.\Generated_Source\PSoC5/EMITE.c ****     *    the RX software buffer. Bytes available in the RX FIFO do not take to 
 662:.\Generated_Source\PSoC5/EMITE.c ****     *    account.
 663:.\Generated_Source\PSoC5/EMITE.c ****     *
 664:.\Generated_Source\PSoC5/EMITE.c ****     * Parameters:
 665:.\Generated_Source\PSoC5/EMITE.c ****     *  None.
 666:.\Generated_Source\PSoC5/EMITE.c ****     *
 667:.\Generated_Source\PSoC5/EMITE.c ****     * Return:
 668:.\Generated_Source\PSoC5/EMITE.c ****     *  uint8: Number of bytes in the RX buffer. 
 669:.\Generated_Source\PSoC5/EMITE.c ****     *    Return value type depends on RX Buffer Size parameter.
 670:.\Generated_Source\PSoC5/EMITE.c ****     *
 671:.\Generated_Source\PSoC5/EMITE.c ****     * Global Variables:
 672:.\Generated_Source\PSoC5/EMITE.c ****     *  EMITE_rxBufferWrite - used to calculate left bytes.
 673:.\Generated_Source\PSoC5/EMITE.c ****     *  EMITE_rxBufferRead - used to calculate left bytes.
 674:.\Generated_Source\PSoC5/EMITE.c ****     *  EMITE_rxBufferLoopDetect - checked to decide left bytes amount.
 675:.\Generated_Source\PSoC5/EMITE.c ****     *
 676:.\Generated_Source\PSoC5/EMITE.c ****     * Reentrant:
 677:.\Generated_Source\PSoC5/EMITE.c ****     *  No.
 678:.\Generated_Source\PSoC5/EMITE.c ****     *
 679:.\Generated_Source\PSoC5/EMITE.c ****     * Theory:
ARM GAS  C:\Users\HENRYA~1\AppData\Local\Temp\ccFFMLvl.s 			page 20


 680:.\Generated_Source\PSoC5/EMITE.c ****     *  Allows the user to find out how full the RX Buffer is.
 681:.\Generated_Source\PSoC5/EMITE.c ****     *
 682:.\Generated_Source\PSoC5/EMITE.c ****     *******************************************************************************/
 683:.\Generated_Source\PSoC5/EMITE.c ****     uint8 EMITE_GetRxBufferSize(void)
 684:.\Generated_Source\PSoC5/EMITE.c ****                                                             
 685:.\Generated_Source\PSoC5/EMITE.c ****     {
 399              		.loc 1 685 0
 400              		.cfi_startproc
 401              		@ args = 0, pretend = 0, frame = 0
 402              		@ frame_needed = 0, uses_anonymous_args = 0
 403              		@ link register save eliminated.
 686:.\Generated_Source\PSoC5/EMITE.c ****         uint8 size;
 687:.\Generated_Source\PSoC5/EMITE.c **** 
 688:.\Generated_Source\PSoC5/EMITE.c ****     #if (EMITE_RX_INTERRUPT_ENABLED)
 689:.\Generated_Source\PSoC5/EMITE.c **** 
 690:.\Generated_Source\PSoC5/EMITE.c ****         /* Protect variables that could change on interrupt */
 691:.\Generated_Source\PSoC5/EMITE.c ****         EMITE_DisableRxInt();
 692:.\Generated_Source\PSoC5/EMITE.c **** 
 693:.\Generated_Source\PSoC5/EMITE.c ****         if(EMITE_rxBufferRead == EMITE_rxBufferWrite)
 694:.\Generated_Source\PSoC5/EMITE.c ****         {
 695:.\Generated_Source\PSoC5/EMITE.c ****             if(EMITE_rxBufferLoopDetect != 0u)
 696:.\Generated_Source\PSoC5/EMITE.c ****             {
 697:.\Generated_Source\PSoC5/EMITE.c ****                 size = EMITE_RX_BUFFER_SIZE;
 698:.\Generated_Source\PSoC5/EMITE.c ****             }
 699:.\Generated_Source\PSoC5/EMITE.c ****             else
 700:.\Generated_Source\PSoC5/EMITE.c ****             {
 701:.\Generated_Source\PSoC5/EMITE.c ****                 size = 0u;
 702:.\Generated_Source\PSoC5/EMITE.c ****             }
 703:.\Generated_Source\PSoC5/EMITE.c ****         }
 704:.\Generated_Source\PSoC5/EMITE.c ****         else if(EMITE_rxBufferRead < EMITE_rxBufferWrite)
 705:.\Generated_Source\PSoC5/EMITE.c ****         {
 706:.\Generated_Source\PSoC5/EMITE.c ****             size = (EMITE_rxBufferWrite - EMITE_rxBufferRead);
 707:.\Generated_Source\PSoC5/EMITE.c ****         }
 708:.\Generated_Source\PSoC5/EMITE.c ****         else
 709:.\Generated_Source\PSoC5/EMITE.c ****         {
 710:.\Generated_Source\PSoC5/EMITE.c ****             size = (EMITE_RX_BUFFER_SIZE - EMITE_rxBufferRead) + EMITE_rxBufferWrite;
 711:.\Generated_Source\PSoC5/EMITE.c ****         }
 712:.\Generated_Source\PSoC5/EMITE.c **** 
 713:.\Generated_Source\PSoC5/EMITE.c ****         EMITE_EnableRxInt();
 714:.\Generated_Source\PSoC5/EMITE.c **** 
 715:.\Generated_Source\PSoC5/EMITE.c ****     #else
 716:.\Generated_Source\PSoC5/EMITE.c **** 
 717:.\Generated_Source\PSoC5/EMITE.c ****         /* We can only know if there is data in the fifo. */
 718:.\Generated_Source\PSoC5/EMITE.c ****         size = ((EMITE_RXSTATUS_REG & EMITE_RX_STS_FIFO_NOTEMPTY) != 0u) ? 1u : 0u;
 404              		.loc 1 718 0
 405 0000 044B     		ldr	r3, .L43
 406 0002 1B78     		ldrb	r3, [r3]	@ zero_extendqisi2
 407 0004 13F0200F 		tst	r3, #32
 408 0008 01D0     		beq	.L42
 409 000a 0120     		movs	r0, #1
 410 000c 7047     		bx	lr
 411              	.L42:
 412 000e 0020     		movs	r0, #0
 413              	.LVL25:
 719:.\Generated_Source\PSoC5/EMITE.c **** 
 720:.\Generated_Source\PSoC5/EMITE.c ****     #endif /* (EMITE_RX_INTERRUPT_ENABLED) */
 721:.\Generated_Source\PSoC5/EMITE.c **** 
ARM GAS  C:\Users\HENRYA~1\AppData\Local\Temp\ccFFMLvl.s 			page 21


 722:.\Generated_Source\PSoC5/EMITE.c ****         return(size);
 723:.\Generated_Source\PSoC5/EMITE.c ****     }
 414              		.loc 1 723 0
 415 0010 7047     		bx	lr
 416              	.L44:
 417 0012 00BF     		.align	2
 418              	.L43:
 419 0014 65650040 		.word	1073767781
 420              		.cfi_endproc
 421              	.LFE11:
 422              		.size	EMITE_GetRxBufferSize, .-EMITE_GetRxBufferSize
 423              		.section	.text.EMITE_ClearRxBuffer,"ax",%progbits
 424              		.align	2
 425              		.global	EMITE_ClearRxBuffer
 426              		.thumb
 427              		.thumb_func
 428              		.type	EMITE_ClearRxBuffer, %function
 429              	EMITE_ClearRxBuffer:
 430              	.LFB12:
 724:.\Generated_Source\PSoC5/EMITE.c **** 
 725:.\Generated_Source\PSoC5/EMITE.c **** 
 726:.\Generated_Source\PSoC5/EMITE.c ****     /*******************************************************************************
 727:.\Generated_Source\PSoC5/EMITE.c ****     * Function Name: EMITE_ClearRxBuffer
 728:.\Generated_Source\PSoC5/EMITE.c ****     ********************************************************************************
 729:.\Generated_Source\PSoC5/EMITE.c ****     *
 730:.\Generated_Source\PSoC5/EMITE.c ****     * Summary:
 731:.\Generated_Source\PSoC5/EMITE.c ****     *  Clears the receiver memory buffer and hardware RX FIFO of all received data.
 732:.\Generated_Source\PSoC5/EMITE.c ****     *
 733:.\Generated_Source\PSoC5/EMITE.c ****     * Parameters:
 734:.\Generated_Source\PSoC5/EMITE.c ****     *  None.
 735:.\Generated_Source\PSoC5/EMITE.c ****     *
 736:.\Generated_Source\PSoC5/EMITE.c ****     * Return:
 737:.\Generated_Source\PSoC5/EMITE.c ****     *  None.
 738:.\Generated_Source\PSoC5/EMITE.c ****     *
 739:.\Generated_Source\PSoC5/EMITE.c ****     * Global Variables:
 740:.\Generated_Source\PSoC5/EMITE.c ****     *  EMITE_rxBufferWrite - cleared to zero.
 741:.\Generated_Source\PSoC5/EMITE.c ****     *  EMITE_rxBufferRead - cleared to zero.
 742:.\Generated_Source\PSoC5/EMITE.c ****     *  EMITE_rxBufferLoopDetect - cleared to zero.
 743:.\Generated_Source\PSoC5/EMITE.c ****     *  EMITE_rxBufferOverflow - cleared to zero.
 744:.\Generated_Source\PSoC5/EMITE.c ****     *
 745:.\Generated_Source\PSoC5/EMITE.c ****     * Reentrant:
 746:.\Generated_Source\PSoC5/EMITE.c ****     *  No.
 747:.\Generated_Source\PSoC5/EMITE.c ****     *
 748:.\Generated_Source\PSoC5/EMITE.c ****     * Theory:
 749:.\Generated_Source\PSoC5/EMITE.c ****     *  Setting the pointers to zero makes the system believe there is no data to
 750:.\Generated_Source\PSoC5/EMITE.c ****     *  read and writing will resume at address 0 overwriting any data that may
 751:.\Generated_Source\PSoC5/EMITE.c ****     *  have remained in the RAM.
 752:.\Generated_Source\PSoC5/EMITE.c ****     *
 753:.\Generated_Source\PSoC5/EMITE.c ****     * Side Effects:
 754:.\Generated_Source\PSoC5/EMITE.c ****     *  Any received data not read from the RAM or FIFO buffer will be lost.
 755:.\Generated_Source\PSoC5/EMITE.c ****     *
 756:.\Generated_Source\PSoC5/EMITE.c ****     *******************************************************************************/
 757:.\Generated_Source\PSoC5/EMITE.c ****     void EMITE_ClearRxBuffer(void) 
 758:.\Generated_Source\PSoC5/EMITE.c ****     {
 431              		.loc 1 758 0
 432              		.cfi_startproc
 433              		@ args = 0, pretend = 0, frame = 0
ARM GAS  C:\Users\HENRYA~1\AppData\Local\Temp\ccFFMLvl.s 			page 22


 434              		@ frame_needed = 0, uses_anonymous_args = 0
 435 0000 08B5     		push	{r3, lr}
 436              		.cfi_def_cfa_offset 8
 437              		.cfi_offset 3, -8
 438              		.cfi_offset 14, -4
 759:.\Generated_Source\PSoC5/EMITE.c ****         uint8 enableInterrupts;
 760:.\Generated_Source\PSoC5/EMITE.c **** 
 761:.\Generated_Source\PSoC5/EMITE.c ****         /* Clear the HW FIFO */
 762:.\Generated_Source\PSoC5/EMITE.c ****         enableInterrupts = CyEnterCriticalSection();
 439              		.loc 1 762 0
 440 0002 FFF7FEFF 		bl	CyEnterCriticalSection
 441              	.LVL26:
 763:.\Generated_Source\PSoC5/EMITE.c ****         EMITE_RXDATA_AUX_CTL_REG |= (uint8)  EMITE_RX_FIFO_CLR;
 442              		.loc 1 763 0
 443 0006 064B     		ldr	r3, .L47
 444 0008 1A78     		ldrb	r2, [r3]	@ zero_extendqisi2
 445 000a 42F00102 		orr	r2, r2, #1
 446 000e 1A70     		strb	r2, [r3]
 764:.\Generated_Source\PSoC5/EMITE.c ****         EMITE_RXDATA_AUX_CTL_REG &= (uint8) ~EMITE_RX_FIFO_CLR;
 447              		.loc 1 764 0
 448 0010 1A78     		ldrb	r2, [r3]	@ zero_extendqisi2
 449 0012 02F0FE02 		and	r2, r2, #254
 450 0016 1A70     		strb	r2, [r3]
 765:.\Generated_Source\PSoC5/EMITE.c ****         CyExitCriticalSection(enableInterrupts);
 451              		.loc 1 765 0
 452 0018 FFF7FEFF 		bl	CyExitCriticalSection
 453              	.LVL27:
 454 001c 08BD     		pop	{r3, pc}
 455              	.L48:
 456 001e 00BF     		.align	2
 457              	.L47:
 458 0020 97640040 		.word	1073767575
 459              		.cfi_endproc
 460              	.LFE12:
 461              		.size	EMITE_ClearRxBuffer, .-EMITE_ClearRxBuffer
 462              		.section	.text.EMITE_SetRxAddressMode,"ax",%progbits
 463              		.align	2
 464              		.global	EMITE_SetRxAddressMode
 465              		.thumb
 466              		.thumb_func
 467              		.type	EMITE_SetRxAddressMode, %function
 468              	EMITE_SetRxAddressMode:
 469              	.LFB13:
 766:.\Generated_Source\PSoC5/EMITE.c **** 
 767:.\Generated_Source\PSoC5/EMITE.c ****     #if (EMITE_RX_INTERRUPT_ENABLED)
 768:.\Generated_Source\PSoC5/EMITE.c **** 
 769:.\Generated_Source\PSoC5/EMITE.c ****         /* Protect variables that could change on interrupt. */
 770:.\Generated_Source\PSoC5/EMITE.c ****         EMITE_DisableRxInt();
 771:.\Generated_Source\PSoC5/EMITE.c **** 
 772:.\Generated_Source\PSoC5/EMITE.c ****         EMITE_rxBufferRead = 0u;
 773:.\Generated_Source\PSoC5/EMITE.c ****         EMITE_rxBufferWrite = 0u;
 774:.\Generated_Source\PSoC5/EMITE.c ****         EMITE_rxBufferLoopDetect = 0u;
 775:.\Generated_Source\PSoC5/EMITE.c ****         EMITE_rxBufferOverflow = 0u;
 776:.\Generated_Source\PSoC5/EMITE.c **** 
 777:.\Generated_Source\PSoC5/EMITE.c ****         EMITE_EnableRxInt();
 778:.\Generated_Source\PSoC5/EMITE.c **** 
 779:.\Generated_Source\PSoC5/EMITE.c ****     #endif /* (EMITE_RX_INTERRUPT_ENABLED) */
ARM GAS  C:\Users\HENRYA~1\AppData\Local\Temp\ccFFMLvl.s 			page 23


 780:.\Generated_Source\PSoC5/EMITE.c **** 
 781:.\Generated_Source\PSoC5/EMITE.c ****     }
 782:.\Generated_Source\PSoC5/EMITE.c **** 
 783:.\Generated_Source\PSoC5/EMITE.c **** 
 784:.\Generated_Source\PSoC5/EMITE.c ****     /*******************************************************************************
 785:.\Generated_Source\PSoC5/EMITE.c ****     * Function Name: EMITE_SetRxAddressMode
 786:.\Generated_Source\PSoC5/EMITE.c ****     ********************************************************************************
 787:.\Generated_Source\PSoC5/EMITE.c ****     *
 788:.\Generated_Source\PSoC5/EMITE.c ****     * Summary:
 789:.\Generated_Source\PSoC5/EMITE.c ****     *  Sets the software controlled Addressing mode used by the RX portion of the
 790:.\Generated_Source\PSoC5/EMITE.c ****     *  UART.
 791:.\Generated_Source\PSoC5/EMITE.c ****     *
 792:.\Generated_Source\PSoC5/EMITE.c ****     * Parameters:
 793:.\Generated_Source\PSoC5/EMITE.c ****     *  addressMode: Enumerated value indicating the mode of RX addressing
 794:.\Generated_Source\PSoC5/EMITE.c ****     *  EMITE__B_UART__AM_SW_BYTE_BYTE -  Software Byte-by-Byte address
 795:.\Generated_Source\PSoC5/EMITE.c ****     *                                               detection
 796:.\Generated_Source\PSoC5/EMITE.c ****     *  EMITE__B_UART__AM_SW_DETECT_TO_BUFFER - Software Detect to Buffer
 797:.\Generated_Source\PSoC5/EMITE.c ****     *                                               address detection
 798:.\Generated_Source\PSoC5/EMITE.c ****     *  EMITE__B_UART__AM_HW_BYTE_BY_BYTE - Hardware Byte-by-Byte address
 799:.\Generated_Source\PSoC5/EMITE.c ****     *                                               detection
 800:.\Generated_Source\PSoC5/EMITE.c ****     *  EMITE__B_UART__AM_HW_DETECT_TO_BUFFER - Hardware Detect to Buffer
 801:.\Generated_Source\PSoC5/EMITE.c ****     *                                               address detection
 802:.\Generated_Source\PSoC5/EMITE.c ****     *  EMITE__B_UART__AM_NONE - No address detection
 803:.\Generated_Source\PSoC5/EMITE.c ****     *
 804:.\Generated_Source\PSoC5/EMITE.c ****     * Return:
 805:.\Generated_Source\PSoC5/EMITE.c ****     *  None.
 806:.\Generated_Source\PSoC5/EMITE.c ****     *
 807:.\Generated_Source\PSoC5/EMITE.c ****     * Global Variables:
 808:.\Generated_Source\PSoC5/EMITE.c ****     *  EMITE_rxAddressMode - the parameter stored in this variable for
 809:.\Generated_Source\PSoC5/EMITE.c ****     *   the farther usage in RX ISR.
 810:.\Generated_Source\PSoC5/EMITE.c ****     *  EMITE_rxAddressDetected - set to initial state (0).
 811:.\Generated_Source\PSoC5/EMITE.c ****     *
 812:.\Generated_Source\PSoC5/EMITE.c ****     *******************************************************************************/
 813:.\Generated_Source\PSoC5/EMITE.c ****     void EMITE_SetRxAddressMode(uint8 addressMode)
 814:.\Generated_Source\PSoC5/EMITE.c ****                                                         
 815:.\Generated_Source\PSoC5/EMITE.c ****     {
 470              		.loc 1 815 0
 471              		.cfi_startproc
 472              		@ args = 0, pretend = 0, frame = 0
 473              		@ frame_needed = 0, uses_anonymous_args = 0
 474              		@ link register save eliminated.
 475              	.LVL28:
 476 0000 7047     		bx	lr
 477              		.cfi_endproc
 478              	.LFE13:
 479              		.size	EMITE_SetRxAddressMode, .-EMITE_SetRxAddressMode
 480 0002 00BF     		.section	.text.EMITE_SetRxAddress1,"ax",%progbits
 481              		.align	2
 482              		.global	EMITE_SetRxAddress1
 483              		.thumb
 484              		.thumb_func
 485              		.type	EMITE_SetRxAddress1, %function
 486              	EMITE_SetRxAddress1:
 487              	.LFB14:
 816:.\Generated_Source\PSoC5/EMITE.c ****         #if(EMITE_RXHW_ADDRESS_ENABLED)
 817:.\Generated_Source\PSoC5/EMITE.c ****             #if(EMITE_CONTROL_REG_REMOVED)
 818:.\Generated_Source\PSoC5/EMITE.c ****                 if(0u != addressMode)
ARM GAS  C:\Users\HENRYA~1\AppData\Local\Temp\ccFFMLvl.s 			page 24


 819:.\Generated_Source\PSoC5/EMITE.c ****                 {
 820:.\Generated_Source\PSoC5/EMITE.c ****                     /* Suppress compiler warning */
 821:.\Generated_Source\PSoC5/EMITE.c ****                 }
 822:.\Generated_Source\PSoC5/EMITE.c ****             #else /* EMITE_CONTROL_REG_REMOVED */
 823:.\Generated_Source\PSoC5/EMITE.c ****                 uint8 tmpCtrl;
 824:.\Generated_Source\PSoC5/EMITE.c ****                 tmpCtrl = EMITE_CONTROL_REG & (uint8)~EMITE_CTRL_RXADDR_MODE_MASK;
 825:.\Generated_Source\PSoC5/EMITE.c ****                 tmpCtrl |= (uint8)(addressMode << EMITE_CTRL_RXADDR_MODE0_SHIFT);
 826:.\Generated_Source\PSoC5/EMITE.c ****                 EMITE_CONTROL_REG = tmpCtrl;
 827:.\Generated_Source\PSoC5/EMITE.c **** 
 828:.\Generated_Source\PSoC5/EMITE.c ****                 #if(EMITE_RX_INTERRUPT_ENABLED && \
 829:.\Generated_Source\PSoC5/EMITE.c ****                    (EMITE_RXBUFFERSIZE > EMITE_FIFO_LENGTH) )
 830:.\Generated_Source\PSoC5/EMITE.c ****                     EMITE_rxAddressMode = addressMode;
 831:.\Generated_Source\PSoC5/EMITE.c ****                     EMITE_rxAddressDetected = 0u;
 832:.\Generated_Source\PSoC5/EMITE.c ****                 #endif /* End EMITE_RXBUFFERSIZE > EMITE_FIFO_LENGTH*/
 833:.\Generated_Source\PSoC5/EMITE.c ****             #endif /* End EMITE_CONTROL_REG_REMOVED */
 834:.\Generated_Source\PSoC5/EMITE.c ****         #else /* EMITE_RXHW_ADDRESS_ENABLED */
 835:.\Generated_Source\PSoC5/EMITE.c ****             if(0u != addressMode)
 836:.\Generated_Source\PSoC5/EMITE.c ****             {
 837:.\Generated_Source\PSoC5/EMITE.c ****                 /* Suppress compiler warning */
 838:.\Generated_Source\PSoC5/EMITE.c ****             }
 839:.\Generated_Source\PSoC5/EMITE.c ****         #endif /* End EMITE_RXHW_ADDRESS_ENABLED */
 840:.\Generated_Source\PSoC5/EMITE.c ****     }
 841:.\Generated_Source\PSoC5/EMITE.c **** 
 842:.\Generated_Source\PSoC5/EMITE.c **** 
 843:.\Generated_Source\PSoC5/EMITE.c ****     /*******************************************************************************
 844:.\Generated_Source\PSoC5/EMITE.c ****     * Function Name: EMITE_SetRxAddress1
 845:.\Generated_Source\PSoC5/EMITE.c ****     ********************************************************************************
 846:.\Generated_Source\PSoC5/EMITE.c ****     *
 847:.\Generated_Source\PSoC5/EMITE.c ****     * Summary:
 848:.\Generated_Source\PSoC5/EMITE.c ****     *  Sets the first of two hardware-detectable receiver addresses.
 849:.\Generated_Source\PSoC5/EMITE.c ****     *
 850:.\Generated_Source\PSoC5/EMITE.c ****     * Parameters:
 851:.\Generated_Source\PSoC5/EMITE.c ****     *  address: Address #1 for hardware address detection.
 852:.\Generated_Source\PSoC5/EMITE.c ****     *
 853:.\Generated_Source\PSoC5/EMITE.c ****     * Return:
 854:.\Generated_Source\PSoC5/EMITE.c ****     *  None.
 855:.\Generated_Source\PSoC5/EMITE.c ****     *
 856:.\Generated_Source\PSoC5/EMITE.c ****     *******************************************************************************/
 857:.\Generated_Source\PSoC5/EMITE.c ****     void EMITE_SetRxAddress1(uint8 address) 
 858:.\Generated_Source\PSoC5/EMITE.c ****     {
 488              		.loc 1 858 0
 489              		.cfi_startproc
 490              		@ args = 0, pretend = 0, frame = 0
 491              		@ frame_needed = 0, uses_anonymous_args = 0
 492              		@ link register save eliminated.
 493              	.LVL29:
 859:.\Generated_Source\PSoC5/EMITE.c ****         EMITE_RXADDRESS1_REG = address;
 494              		.loc 1 859 0
 495 0000 014B     		ldr	r3, .L51
 496 0002 1870     		strb	r0, [r3]
 497 0004 7047     		bx	lr
 498              	.L52:
 499 0006 00BF     		.align	2
 500              	.L51:
 501 0008 27640040 		.word	1073767463
 502              		.cfi_endproc
 503              	.LFE14:
ARM GAS  C:\Users\HENRYA~1\AppData\Local\Temp\ccFFMLvl.s 			page 25


 504              		.size	EMITE_SetRxAddress1, .-EMITE_SetRxAddress1
 505              		.section	.text.EMITE_SetRxAddress2,"ax",%progbits
 506              		.align	2
 507              		.global	EMITE_SetRxAddress2
 508              		.thumb
 509              		.thumb_func
 510              		.type	EMITE_SetRxAddress2, %function
 511              	EMITE_SetRxAddress2:
 512              	.LFB15:
 860:.\Generated_Source\PSoC5/EMITE.c ****     }
 861:.\Generated_Source\PSoC5/EMITE.c **** 
 862:.\Generated_Source\PSoC5/EMITE.c **** 
 863:.\Generated_Source\PSoC5/EMITE.c ****     /*******************************************************************************
 864:.\Generated_Source\PSoC5/EMITE.c ****     * Function Name: EMITE_SetRxAddress2
 865:.\Generated_Source\PSoC5/EMITE.c ****     ********************************************************************************
 866:.\Generated_Source\PSoC5/EMITE.c ****     *
 867:.\Generated_Source\PSoC5/EMITE.c ****     * Summary:
 868:.\Generated_Source\PSoC5/EMITE.c ****     *  Sets the second of two hardware-detectable receiver addresses.
 869:.\Generated_Source\PSoC5/EMITE.c ****     *
 870:.\Generated_Source\PSoC5/EMITE.c ****     * Parameters:
 871:.\Generated_Source\PSoC5/EMITE.c ****     *  address: Address #2 for hardware address detection.
 872:.\Generated_Source\PSoC5/EMITE.c ****     *
 873:.\Generated_Source\PSoC5/EMITE.c ****     * Return:
 874:.\Generated_Source\PSoC5/EMITE.c ****     *  None.
 875:.\Generated_Source\PSoC5/EMITE.c ****     *
 876:.\Generated_Source\PSoC5/EMITE.c ****     *******************************************************************************/
 877:.\Generated_Source\PSoC5/EMITE.c ****     void EMITE_SetRxAddress2(uint8 address) 
 878:.\Generated_Source\PSoC5/EMITE.c ****     {
 513              		.loc 1 878 0
 514              		.cfi_startproc
 515              		@ args = 0, pretend = 0, frame = 0
 516              		@ frame_needed = 0, uses_anonymous_args = 0
 517              		@ link register save eliminated.
 518              	.LVL30:
 879:.\Generated_Source\PSoC5/EMITE.c ****         EMITE_RXADDRESS2_REG = address;
 519              		.loc 1 879 0
 520 0000 014B     		ldr	r3, .L54
 521 0002 1870     		strb	r0, [r3]
 522 0004 7047     		bx	lr
 523              	.L55:
 524 0006 00BF     		.align	2
 525              	.L54:
 526 0008 37640040 		.word	1073767479
 527              		.cfi_endproc
 528              	.LFE15:
 529              		.size	EMITE_SetRxAddress2, .-EMITE_SetRxAddress2
 530              		.section	.text.EMITE_SetTxInterruptMode,"ax",%progbits
 531              		.align	2
 532              		.global	EMITE_SetTxInterruptMode
 533              		.thumb
 534              		.thumb_func
 535              		.type	EMITE_SetTxInterruptMode, %function
 536              	EMITE_SetTxInterruptMode:
 537              	.LFB16:
 880:.\Generated_Source\PSoC5/EMITE.c ****     }
 881:.\Generated_Source\PSoC5/EMITE.c **** 
 882:.\Generated_Source\PSoC5/EMITE.c **** #endif  /* EMITE_RX_ENABLED || EMITE_HD_ENABLED*/
ARM GAS  C:\Users\HENRYA~1\AppData\Local\Temp\ccFFMLvl.s 			page 26


 883:.\Generated_Source\PSoC5/EMITE.c **** 
 884:.\Generated_Source\PSoC5/EMITE.c **** 
 885:.\Generated_Source\PSoC5/EMITE.c **** #if( (EMITE_TX_ENABLED) || (EMITE_HD_ENABLED) )
 886:.\Generated_Source\PSoC5/EMITE.c ****     /*******************************************************************************
 887:.\Generated_Source\PSoC5/EMITE.c ****     * Function Name: EMITE_SetTxInterruptMode
 888:.\Generated_Source\PSoC5/EMITE.c ****     ********************************************************************************
 889:.\Generated_Source\PSoC5/EMITE.c ****     *
 890:.\Generated_Source\PSoC5/EMITE.c ****     * Summary:
 891:.\Generated_Source\PSoC5/EMITE.c ****     *  Configures the TX interrupt sources to be enabled, but does not enable the
 892:.\Generated_Source\PSoC5/EMITE.c ****     *  interrupt.
 893:.\Generated_Source\PSoC5/EMITE.c ****     *
 894:.\Generated_Source\PSoC5/EMITE.c ****     * Parameters:
 895:.\Generated_Source\PSoC5/EMITE.c ****     *  intSrc: Bit field containing the TX interrupt sources to enable
 896:.\Generated_Source\PSoC5/EMITE.c ****     *   EMITE_TX_STS_COMPLETE        Interrupt on TX byte complete
 897:.\Generated_Source\PSoC5/EMITE.c ****     *   EMITE_TX_STS_FIFO_EMPTY      Interrupt when TX FIFO is empty
 898:.\Generated_Source\PSoC5/EMITE.c ****     *   EMITE_TX_STS_FIFO_FULL       Interrupt when TX FIFO is full
 899:.\Generated_Source\PSoC5/EMITE.c ****     *   EMITE_TX_STS_FIFO_NOT_FULL   Interrupt when TX FIFO is not full
 900:.\Generated_Source\PSoC5/EMITE.c ****     *
 901:.\Generated_Source\PSoC5/EMITE.c ****     * Return:
 902:.\Generated_Source\PSoC5/EMITE.c ****     *  None.
 903:.\Generated_Source\PSoC5/EMITE.c ****     *
 904:.\Generated_Source\PSoC5/EMITE.c ****     * Theory:
 905:.\Generated_Source\PSoC5/EMITE.c ****     *  Enables the output of specific status bits to the interrupt controller
 906:.\Generated_Source\PSoC5/EMITE.c ****     *
 907:.\Generated_Source\PSoC5/EMITE.c ****     *******************************************************************************/
 908:.\Generated_Source\PSoC5/EMITE.c ****     void EMITE_SetTxInterruptMode(uint8 intSrc) 
 909:.\Generated_Source\PSoC5/EMITE.c ****     {
 538              		.loc 1 909 0
 539              		.cfi_startproc
 540              		@ args = 0, pretend = 0, frame = 0
 541              		@ frame_needed = 0, uses_anonymous_args = 0
 542              		@ link register save eliminated.
 543              	.LVL31:
 910:.\Generated_Source\PSoC5/EMITE.c ****         EMITE_TXSTATUS_MASK_REG = intSrc;
 544              		.loc 1 910 0
 545 0000 014B     		ldr	r3, .L57
 546 0002 1870     		strb	r0, [r3]
 547 0004 7047     		bx	lr
 548              	.L58:
 549 0006 00BF     		.align	2
 550              	.L57:
 551 0008 85650040 		.word	1073767813
 552              		.cfi_endproc
 553              	.LFE16:
 554              		.size	EMITE_SetTxInterruptMode, .-EMITE_SetTxInterruptMode
 555              		.section	.text.EMITE_WriteTxData,"ax",%progbits
 556              		.align	2
 557              		.global	EMITE_WriteTxData
 558              		.thumb
 559              		.thumb_func
 560              		.type	EMITE_WriteTxData, %function
 561              	EMITE_WriteTxData:
 562              	.LFB17:
 911:.\Generated_Source\PSoC5/EMITE.c ****     }
 912:.\Generated_Source\PSoC5/EMITE.c **** 
 913:.\Generated_Source\PSoC5/EMITE.c **** 
 914:.\Generated_Source\PSoC5/EMITE.c ****     /*******************************************************************************
ARM GAS  C:\Users\HENRYA~1\AppData\Local\Temp\ccFFMLvl.s 			page 27


 915:.\Generated_Source\PSoC5/EMITE.c ****     * Function Name: EMITE_WriteTxData
 916:.\Generated_Source\PSoC5/EMITE.c ****     ********************************************************************************
 917:.\Generated_Source\PSoC5/EMITE.c ****     *
 918:.\Generated_Source\PSoC5/EMITE.c ****     * Summary:
 919:.\Generated_Source\PSoC5/EMITE.c ****     *  Places a byte of data into the transmit buffer to be sent when the bus is
 920:.\Generated_Source\PSoC5/EMITE.c ****     *  available without checking the TX status register. You must check status
 921:.\Generated_Source\PSoC5/EMITE.c ****     *  separately.
 922:.\Generated_Source\PSoC5/EMITE.c ****     *
 923:.\Generated_Source\PSoC5/EMITE.c ****     * Parameters:
 924:.\Generated_Source\PSoC5/EMITE.c ****     *  txDataByte: data byte
 925:.\Generated_Source\PSoC5/EMITE.c ****     *
 926:.\Generated_Source\PSoC5/EMITE.c ****     * Return:
 927:.\Generated_Source\PSoC5/EMITE.c ****     * None.
 928:.\Generated_Source\PSoC5/EMITE.c ****     *
 929:.\Generated_Source\PSoC5/EMITE.c ****     * Global Variables:
 930:.\Generated_Source\PSoC5/EMITE.c ****     *  EMITE_txBuffer - RAM buffer pointer for save data for transmission
 931:.\Generated_Source\PSoC5/EMITE.c ****     *  EMITE_txBufferWrite - cyclic index for write to txBuffer,
 932:.\Generated_Source\PSoC5/EMITE.c ****     *    incremented after each byte saved to buffer.
 933:.\Generated_Source\PSoC5/EMITE.c ****     *  EMITE_txBufferRead - cyclic index for read from txBuffer,
 934:.\Generated_Source\PSoC5/EMITE.c ****     *    checked to identify the condition to write to FIFO directly or to TX buffer
 935:.\Generated_Source\PSoC5/EMITE.c ****     *  EMITE_initVar - checked to identify that the component has been
 936:.\Generated_Source\PSoC5/EMITE.c ****     *    initialized.
 937:.\Generated_Source\PSoC5/EMITE.c ****     *
 938:.\Generated_Source\PSoC5/EMITE.c ****     * Reentrant:
 939:.\Generated_Source\PSoC5/EMITE.c ****     *  No.
 940:.\Generated_Source\PSoC5/EMITE.c ****     *
 941:.\Generated_Source\PSoC5/EMITE.c ****     *******************************************************************************/
 942:.\Generated_Source\PSoC5/EMITE.c ****     void EMITE_WriteTxData(uint8 txDataByte) 
 943:.\Generated_Source\PSoC5/EMITE.c ****     {
 563              		.loc 1 943 0
 564              		.cfi_startproc
 565              		@ args = 0, pretend = 0, frame = 0
 566              		@ frame_needed = 0, uses_anonymous_args = 0
 567              		@ link register save eliminated.
 568              	.LVL32:
 944:.\Generated_Source\PSoC5/EMITE.c ****         /* If not Initialized then skip this function*/
 945:.\Generated_Source\PSoC5/EMITE.c ****         if(EMITE_initVar != 0u)
 569              		.loc 1 945 0
 570 0000 024B     		ldr	r3, .L61
 571 0002 1B78     		ldrb	r3, [r3]	@ zero_extendqisi2
 572 0004 0BB1     		cbz	r3, .L59
 946:.\Generated_Source\PSoC5/EMITE.c ****         {
 947:.\Generated_Source\PSoC5/EMITE.c ****         #if (EMITE_TX_INTERRUPT_ENABLED)
 948:.\Generated_Source\PSoC5/EMITE.c **** 
 949:.\Generated_Source\PSoC5/EMITE.c ****             /* Protect variables that could change on interrupt. */
 950:.\Generated_Source\PSoC5/EMITE.c ****             EMITE_DisableTxInt();
 951:.\Generated_Source\PSoC5/EMITE.c **** 
 952:.\Generated_Source\PSoC5/EMITE.c ****             if( (EMITE_txBufferRead == EMITE_txBufferWrite) &&
 953:.\Generated_Source\PSoC5/EMITE.c ****                 ((EMITE_TXSTATUS_REG & EMITE_TX_STS_FIFO_FULL) == 0u) )
 954:.\Generated_Source\PSoC5/EMITE.c ****             {
 955:.\Generated_Source\PSoC5/EMITE.c ****                 /* Add directly to the FIFO. */
 956:.\Generated_Source\PSoC5/EMITE.c ****                 EMITE_TXDATA_REG = txDataByte;
 957:.\Generated_Source\PSoC5/EMITE.c ****             }
 958:.\Generated_Source\PSoC5/EMITE.c ****             else
 959:.\Generated_Source\PSoC5/EMITE.c ****             {
 960:.\Generated_Source\PSoC5/EMITE.c ****                 if(EMITE_txBufferWrite >= EMITE_TX_BUFFER_SIZE)
 961:.\Generated_Source\PSoC5/EMITE.c ****                 {
ARM GAS  C:\Users\HENRYA~1\AppData\Local\Temp\ccFFMLvl.s 			page 28


 962:.\Generated_Source\PSoC5/EMITE.c ****                     EMITE_txBufferWrite = 0u;
 963:.\Generated_Source\PSoC5/EMITE.c ****                 }
 964:.\Generated_Source\PSoC5/EMITE.c **** 
 965:.\Generated_Source\PSoC5/EMITE.c ****                 EMITE_txBuffer[EMITE_txBufferWrite] = txDataByte;
 966:.\Generated_Source\PSoC5/EMITE.c **** 
 967:.\Generated_Source\PSoC5/EMITE.c ****                 /* Add to the software buffer. */
 968:.\Generated_Source\PSoC5/EMITE.c ****                 EMITE_txBufferWrite++;
 969:.\Generated_Source\PSoC5/EMITE.c ****             }
 970:.\Generated_Source\PSoC5/EMITE.c **** 
 971:.\Generated_Source\PSoC5/EMITE.c ****             EMITE_EnableTxInt();
 972:.\Generated_Source\PSoC5/EMITE.c **** 
 973:.\Generated_Source\PSoC5/EMITE.c ****         #else
 974:.\Generated_Source\PSoC5/EMITE.c **** 
 975:.\Generated_Source\PSoC5/EMITE.c ****             /* Add directly to the FIFO. */
 976:.\Generated_Source\PSoC5/EMITE.c ****             EMITE_TXDATA_REG = txDataByte;
 573              		.loc 1 976 0
 574 0006 024B     		ldr	r3, .L61+4
 575 0008 1870     		strb	r0, [r3]
 576              	.L59:
 577 000a 7047     		bx	lr
 578              	.L62:
 579              		.align	2
 580              	.L61:
 581 000c 00000000 		.word	.LANCHOR0
 582 0010 57640040 		.word	1073767511
 583              		.cfi_endproc
 584              	.LFE17:
 585              		.size	EMITE_WriteTxData, .-EMITE_WriteTxData
 586              		.section	.text.EMITE_ReadTxStatus,"ax",%progbits
 587              		.align	2
 588              		.global	EMITE_ReadTxStatus
 589              		.thumb
 590              		.thumb_func
 591              		.type	EMITE_ReadTxStatus, %function
 592              	EMITE_ReadTxStatus:
 593              	.LFB18:
 977:.\Generated_Source\PSoC5/EMITE.c **** 
 978:.\Generated_Source\PSoC5/EMITE.c ****         #endif /*(EMITE_TX_INTERRUPT_ENABLED) */
 979:.\Generated_Source\PSoC5/EMITE.c ****         }
 980:.\Generated_Source\PSoC5/EMITE.c ****     }
 981:.\Generated_Source\PSoC5/EMITE.c **** 
 982:.\Generated_Source\PSoC5/EMITE.c **** 
 983:.\Generated_Source\PSoC5/EMITE.c ****     /*******************************************************************************
 984:.\Generated_Source\PSoC5/EMITE.c ****     * Function Name: EMITE_ReadTxStatus
 985:.\Generated_Source\PSoC5/EMITE.c ****     ********************************************************************************
 986:.\Generated_Source\PSoC5/EMITE.c ****     *
 987:.\Generated_Source\PSoC5/EMITE.c ****     * Summary:
 988:.\Generated_Source\PSoC5/EMITE.c ****     *  Reads the status register for the TX portion of the UART.
 989:.\Generated_Source\PSoC5/EMITE.c ****     *
 990:.\Generated_Source\PSoC5/EMITE.c ****     * Parameters:
 991:.\Generated_Source\PSoC5/EMITE.c ****     *  None.
 992:.\Generated_Source\PSoC5/EMITE.c ****     *
 993:.\Generated_Source\PSoC5/EMITE.c ****     * Return:
 994:.\Generated_Source\PSoC5/EMITE.c ****     *  Contents of the status register
 995:.\Generated_Source\PSoC5/EMITE.c ****     *
 996:.\Generated_Source\PSoC5/EMITE.c ****     * Theory:
 997:.\Generated_Source\PSoC5/EMITE.c ****     *  This function reads the TX status register, which is cleared on read.
ARM GAS  C:\Users\HENRYA~1\AppData\Local\Temp\ccFFMLvl.s 			page 29


 998:.\Generated_Source\PSoC5/EMITE.c ****     *  It is up to the user to handle all bits in this return value accordingly,
 999:.\Generated_Source\PSoC5/EMITE.c ****     *  even if the bit was not enabled as an interrupt source the event happened
1000:.\Generated_Source\PSoC5/EMITE.c ****     *  and must be handled accordingly.
1001:.\Generated_Source\PSoC5/EMITE.c ****     *
1002:.\Generated_Source\PSoC5/EMITE.c ****     *******************************************************************************/
1003:.\Generated_Source\PSoC5/EMITE.c ****     uint8 EMITE_ReadTxStatus(void) 
1004:.\Generated_Source\PSoC5/EMITE.c ****     {
 594              		.loc 1 1004 0
 595              		.cfi_startproc
 596              		@ args = 0, pretend = 0, frame = 0
 597              		@ frame_needed = 0, uses_anonymous_args = 0
 598              		@ link register save eliminated.
1005:.\Generated_Source\PSoC5/EMITE.c ****         return(EMITE_TXSTATUS_REG);
 599              		.loc 1 1005 0
 600 0000 014B     		ldr	r3, .L64
 601 0002 1878     		ldrb	r0, [r3]	@ zero_extendqisi2
1006:.\Generated_Source\PSoC5/EMITE.c ****     }
 602              		.loc 1 1006 0
 603 0004 7047     		bx	lr
 604              	.L65:
 605 0006 00BF     		.align	2
 606              	.L64:
 607 0008 65650040 		.word	1073767781
 608              		.cfi_endproc
 609              	.LFE18:
 610              		.size	EMITE_ReadTxStatus, .-EMITE_ReadTxStatus
 611              		.section	.text.EMITE_PutChar,"ax",%progbits
 612              		.align	2
 613              		.global	EMITE_PutChar
 614              		.thumb
 615              		.thumb_func
 616              		.type	EMITE_PutChar, %function
 617              	EMITE_PutChar:
 618              	.LFB19:
1007:.\Generated_Source\PSoC5/EMITE.c **** 
1008:.\Generated_Source\PSoC5/EMITE.c **** 
1009:.\Generated_Source\PSoC5/EMITE.c ****     /*******************************************************************************
1010:.\Generated_Source\PSoC5/EMITE.c ****     * Function Name: EMITE_PutChar
1011:.\Generated_Source\PSoC5/EMITE.c ****     ********************************************************************************
1012:.\Generated_Source\PSoC5/EMITE.c ****     *
1013:.\Generated_Source\PSoC5/EMITE.c ****     * Summary:
1014:.\Generated_Source\PSoC5/EMITE.c ****     *  Puts a byte of data into the transmit buffer to be sent when the bus is
1015:.\Generated_Source\PSoC5/EMITE.c ****     *  available. This is a blocking API that waits until the TX buffer has room to
1016:.\Generated_Source\PSoC5/EMITE.c ****     *  hold the data.
1017:.\Generated_Source\PSoC5/EMITE.c ****     *
1018:.\Generated_Source\PSoC5/EMITE.c ****     * Parameters:
1019:.\Generated_Source\PSoC5/EMITE.c ****     *  txDataByte: Byte containing the data to transmit
1020:.\Generated_Source\PSoC5/EMITE.c ****     *
1021:.\Generated_Source\PSoC5/EMITE.c ****     * Return:
1022:.\Generated_Source\PSoC5/EMITE.c ****     *  None.
1023:.\Generated_Source\PSoC5/EMITE.c ****     *
1024:.\Generated_Source\PSoC5/EMITE.c ****     * Global Variables:
1025:.\Generated_Source\PSoC5/EMITE.c ****     *  EMITE_txBuffer - RAM buffer pointer for save data for transmission
1026:.\Generated_Source\PSoC5/EMITE.c ****     *  EMITE_txBufferWrite - cyclic index for write to txBuffer,
1027:.\Generated_Source\PSoC5/EMITE.c ****     *     checked to identify free space in txBuffer and incremented after each byte
1028:.\Generated_Source\PSoC5/EMITE.c ****     *     saved to buffer.
1029:.\Generated_Source\PSoC5/EMITE.c ****     *  EMITE_txBufferRead - cyclic index for read from txBuffer,
ARM GAS  C:\Users\HENRYA~1\AppData\Local\Temp\ccFFMLvl.s 			page 30


1030:.\Generated_Source\PSoC5/EMITE.c ****     *     checked to identify free space in txBuffer.
1031:.\Generated_Source\PSoC5/EMITE.c ****     *  EMITE_initVar - checked to identify that the component has been
1032:.\Generated_Source\PSoC5/EMITE.c ****     *     initialized.
1033:.\Generated_Source\PSoC5/EMITE.c ****     *
1034:.\Generated_Source\PSoC5/EMITE.c ****     * Reentrant:
1035:.\Generated_Source\PSoC5/EMITE.c ****     *  No.
1036:.\Generated_Source\PSoC5/EMITE.c ****     *
1037:.\Generated_Source\PSoC5/EMITE.c ****     * Theory:
1038:.\Generated_Source\PSoC5/EMITE.c ****     *  Allows the user to transmit any byte of data in a single transfer
1039:.\Generated_Source\PSoC5/EMITE.c ****     *
1040:.\Generated_Source\PSoC5/EMITE.c ****     *******************************************************************************/
1041:.\Generated_Source\PSoC5/EMITE.c ****     void EMITE_PutChar(uint8 txDataByte) 
1042:.\Generated_Source\PSoC5/EMITE.c ****     {
 619              		.loc 1 1042 0
 620              		.cfi_startproc
 621              		@ args = 0, pretend = 0, frame = 0
 622              		@ frame_needed = 0, uses_anonymous_args = 0
 623              		@ link register save eliminated.
 624              	.LVL33:
 625              	.L67:
1043:.\Generated_Source\PSoC5/EMITE.c ****     #if (EMITE_TX_INTERRUPT_ENABLED)
1044:.\Generated_Source\PSoC5/EMITE.c ****         /* The temporary output pointer is used since it takes two instructions
1045:.\Generated_Source\PSoC5/EMITE.c ****         *  to increment with a wrap, and we can't risk doing that with the real
1046:.\Generated_Source\PSoC5/EMITE.c ****         *  pointer and getting an interrupt in between instructions.
1047:.\Generated_Source\PSoC5/EMITE.c ****         */
1048:.\Generated_Source\PSoC5/EMITE.c ****         uint8 locTxBufferWrite;
1049:.\Generated_Source\PSoC5/EMITE.c ****         uint8 locTxBufferRead;
1050:.\Generated_Source\PSoC5/EMITE.c **** 
1051:.\Generated_Source\PSoC5/EMITE.c ****         do
1052:.\Generated_Source\PSoC5/EMITE.c ****         { /* Block if software buffer is full, so we don't overwrite. */
1053:.\Generated_Source\PSoC5/EMITE.c **** 
1054:.\Generated_Source\PSoC5/EMITE.c ****         #if ((EMITE_TX_BUFFER_SIZE > EMITE_MAX_BYTE_VALUE) && (CY_PSOC3))
1055:.\Generated_Source\PSoC5/EMITE.c ****             /* Disable TX interrupt to protect variables from modification */
1056:.\Generated_Source\PSoC5/EMITE.c ****             EMITE_DisableTxInt();
1057:.\Generated_Source\PSoC5/EMITE.c ****         #endif /* (EMITE_TX_BUFFER_SIZE > EMITE_MAX_BYTE_VALUE) && (CY_PSOC3) */
1058:.\Generated_Source\PSoC5/EMITE.c **** 
1059:.\Generated_Source\PSoC5/EMITE.c ****             locTxBufferWrite = EMITE_txBufferWrite;
1060:.\Generated_Source\PSoC5/EMITE.c ****             locTxBufferRead  = EMITE_txBufferRead;
1061:.\Generated_Source\PSoC5/EMITE.c **** 
1062:.\Generated_Source\PSoC5/EMITE.c ****         #if ((EMITE_TX_BUFFER_SIZE > EMITE_MAX_BYTE_VALUE) && (CY_PSOC3))
1063:.\Generated_Source\PSoC5/EMITE.c ****             /* Enable interrupt to continue transmission */
1064:.\Generated_Source\PSoC5/EMITE.c ****             EMITE_EnableTxInt();
1065:.\Generated_Source\PSoC5/EMITE.c ****         #endif /* (EMITE_TX_BUFFER_SIZE > EMITE_MAX_BYTE_VALUE) && (CY_PSOC3) */
1066:.\Generated_Source\PSoC5/EMITE.c ****         }
1067:.\Generated_Source\PSoC5/EMITE.c ****         while( (locTxBufferWrite < locTxBufferRead) ? (locTxBufferWrite == (locTxBufferRead - 1u)) 
1068:.\Generated_Source\PSoC5/EMITE.c ****                                 ((locTxBufferWrite - locTxBufferRead) ==
1069:.\Generated_Source\PSoC5/EMITE.c ****                                 (uint8)(EMITE_TX_BUFFER_SIZE - 1u)) );
1070:.\Generated_Source\PSoC5/EMITE.c **** 
1071:.\Generated_Source\PSoC5/EMITE.c ****         if( (locTxBufferRead == locTxBufferWrite) &&
1072:.\Generated_Source\PSoC5/EMITE.c ****             ((EMITE_TXSTATUS_REG & EMITE_TX_STS_FIFO_FULL) == 0u) )
1073:.\Generated_Source\PSoC5/EMITE.c ****         {
1074:.\Generated_Source\PSoC5/EMITE.c ****             /* Add directly to the FIFO */
1075:.\Generated_Source\PSoC5/EMITE.c ****             EMITE_TXDATA_REG = txDataByte;
1076:.\Generated_Source\PSoC5/EMITE.c ****         }
1077:.\Generated_Source\PSoC5/EMITE.c ****         else
1078:.\Generated_Source\PSoC5/EMITE.c ****         {
1079:.\Generated_Source\PSoC5/EMITE.c ****             if(locTxBufferWrite >= EMITE_TX_BUFFER_SIZE)
ARM GAS  C:\Users\HENRYA~1\AppData\Local\Temp\ccFFMLvl.s 			page 31


1080:.\Generated_Source\PSoC5/EMITE.c ****             {
1081:.\Generated_Source\PSoC5/EMITE.c ****                 locTxBufferWrite = 0u;
1082:.\Generated_Source\PSoC5/EMITE.c ****             }
1083:.\Generated_Source\PSoC5/EMITE.c ****             /* Add to the software buffer. */
1084:.\Generated_Source\PSoC5/EMITE.c ****             EMITE_txBuffer[locTxBufferWrite] = txDataByte;
1085:.\Generated_Source\PSoC5/EMITE.c ****             locTxBufferWrite++;
1086:.\Generated_Source\PSoC5/EMITE.c **** 
1087:.\Generated_Source\PSoC5/EMITE.c ****             /* Finally, update the real output pointer */
1088:.\Generated_Source\PSoC5/EMITE.c ****         #if ((EMITE_TX_BUFFER_SIZE > EMITE_MAX_BYTE_VALUE) && (CY_PSOC3))
1089:.\Generated_Source\PSoC5/EMITE.c ****             EMITE_DisableTxInt();
1090:.\Generated_Source\PSoC5/EMITE.c ****         #endif /* (EMITE_TX_BUFFER_SIZE > EMITE_MAX_BYTE_VALUE) && (CY_PSOC3) */
1091:.\Generated_Source\PSoC5/EMITE.c **** 
1092:.\Generated_Source\PSoC5/EMITE.c ****             EMITE_txBufferWrite = locTxBufferWrite;
1093:.\Generated_Source\PSoC5/EMITE.c **** 
1094:.\Generated_Source\PSoC5/EMITE.c ****         #if ((EMITE_TX_BUFFER_SIZE > EMITE_MAX_BYTE_VALUE) && (CY_PSOC3))
1095:.\Generated_Source\PSoC5/EMITE.c ****             EMITE_EnableTxInt();
1096:.\Generated_Source\PSoC5/EMITE.c ****         #endif /* (EMITE_TX_BUFFER_SIZE > EMITE_MAX_BYTE_VALUE) && (CY_PSOC3) */
1097:.\Generated_Source\PSoC5/EMITE.c **** 
1098:.\Generated_Source\PSoC5/EMITE.c ****             if(0u != (EMITE_TXSTATUS_REG & EMITE_TX_STS_FIFO_EMPTY))
1099:.\Generated_Source\PSoC5/EMITE.c ****             {
1100:.\Generated_Source\PSoC5/EMITE.c ****                 /* Trigger TX interrupt to send software buffer */
1101:.\Generated_Source\PSoC5/EMITE.c ****                 EMITE_SetPendingTxInt();
1102:.\Generated_Source\PSoC5/EMITE.c ****             }
1103:.\Generated_Source\PSoC5/EMITE.c ****         }
1104:.\Generated_Source\PSoC5/EMITE.c **** 
1105:.\Generated_Source\PSoC5/EMITE.c ****     #else
1106:.\Generated_Source\PSoC5/EMITE.c **** 
1107:.\Generated_Source\PSoC5/EMITE.c ****         while((EMITE_TXSTATUS_REG & EMITE_TX_STS_FIFO_FULL) != 0u)
 626              		.loc 1 1107 0 discriminator 1
 627 0000 034B     		ldr	r3, .L68
 628 0002 1B78     		ldrb	r3, [r3]	@ zero_extendqisi2
 629 0004 13F0200F 		tst	r3, #32
 630 0008 FAD1     		bne	.L67
1108:.\Generated_Source\PSoC5/EMITE.c ****         {
1109:.\Generated_Source\PSoC5/EMITE.c ****             /* Wait for room in the FIFO */
1110:.\Generated_Source\PSoC5/EMITE.c ****         }
1111:.\Generated_Source\PSoC5/EMITE.c **** 
1112:.\Generated_Source\PSoC5/EMITE.c ****         /* Add directly to the FIFO */
1113:.\Generated_Source\PSoC5/EMITE.c ****         EMITE_TXDATA_REG = txDataByte;
 631              		.loc 1 1113 0
 632 000a 024B     		ldr	r3, .L68+4
 633 000c 1870     		strb	r0, [r3]
 634 000e 7047     		bx	lr
 635              	.L69:
 636              		.align	2
 637              	.L68:
 638 0010 65650040 		.word	1073767781
 639 0014 57640040 		.word	1073767511
 640              		.cfi_endproc
 641              	.LFE19:
 642              		.size	EMITE_PutChar, .-EMITE_PutChar
 643              		.section	.text.EMITE_PutString,"ax",%progbits
 644              		.align	2
 645              		.global	EMITE_PutString
 646              		.thumb
 647              		.thumb_func
 648              		.type	EMITE_PutString, %function
ARM GAS  C:\Users\HENRYA~1\AppData\Local\Temp\ccFFMLvl.s 			page 32


 649              	EMITE_PutString:
 650              	.LFB20:
1114:.\Generated_Source\PSoC5/EMITE.c **** 
1115:.\Generated_Source\PSoC5/EMITE.c ****     #endif /* EMITE_TX_INTERRUPT_ENABLED */
1116:.\Generated_Source\PSoC5/EMITE.c ****     }
1117:.\Generated_Source\PSoC5/EMITE.c **** 
1118:.\Generated_Source\PSoC5/EMITE.c **** 
1119:.\Generated_Source\PSoC5/EMITE.c ****     /*******************************************************************************
1120:.\Generated_Source\PSoC5/EMITE.c ****     * Function Name: EMITE_PutString
1121:.\Generated_Source\PSoC5/EMITE.c ****     ********************************************************************************
1122:.\Generated_Source\PSoC5/EMITE.c ****     *
1123:.\Generated_Source\PSoC5/EMITE.c ****     * Summary:
1124:.\Generated_Source\PSoC5/EMITE.c ****     *  Sends a NULL terminated string to the TX buffer for transmission.
1125:.\Generated_Source\PSoC5/EMITE.c ****     *
1126:.\Generated_Source\PSoC5/EMITE.c ****     * Parameters:
1127:.\Generated_Source\PSoC5/EMITE.c ****     *  string[]: Pointer to the null terminated string array residing in RAM or ROM
1128:.\Generated_Source\PSoC5/EMITE.c ****     *
1129:.\Generated_Source\PSoC5/EMITE.c ****     * Return:
1130:.\Generated_Source\PSoC5/EMITE.c ****     *  None.
1131:.\Generated_Source\PSoC5/EMITE.c ****     *
1132:.\Generated_Source\PSoC5/EMITE.c ****     * Global Variables:
1133:.\Generated_Source\PSoC5/EMITE.c ****     *  EMITE_initVar - checked to identify that the component has been
1134:.\Generated_Source\PSoC5/EMITE.c ****     *     initialized.
1135:.\Generated_Source\PSoC5/EMITE.c ****     *
1136:.\Generated_Source\PSoC5/EMITE.c ****     * Reentrant:
1137:.\Generated_Source\PSoC5/EMITE.c ****     *  No.
1138:.\Generated_Source\PSoC5/EMITE.c ****     *
1139:.\Generated_Source\PSoC5/EMITE.c ****     * Theory:
1140:.\Generated_Source\PSoC5/EMITE.c ****     *  If there is not enough memory in the TX buffer for the entire string, this
1141:.\Generated_Source\PSoC5/EMITE.c ****     *  function blocks until the last character of the string is loaded into the
1142:.\Generated_Source\PSoC5/EMITE.c ****     *  TX buffer.
1143:.\Generated_Source\PSoC5/EMITE.c ****     *
1144:.\Generated_Source\PSoC5/EMITE.c ****     *******************************************************************************/
1145:.\Generated_Source\PSoC5/EMITE.c ****     void EMITE_PutString(const char8 string[]) 
1146:.\Generated_Source\PSoC5/EMITE.c ****     {
 651              		.loc 1 1146 0
 652              		.cfi_startproc
 653              		@ args = 0, pretend = 0, frame = 0
 654              		@ frame_needed = 0, uses_anonymous_args = 0
 655              	.LVL34:
 656 0000 38B5     		push	{r3, r4, r5, lr}
 657              		.cfi_def_cfa_offset 16
 658              		.cfi_offset 3, -16
 659              		.cfi_offset 4, -12
 660              		.cfi_offset 5, -8
 661              		.cfi_offset 14, -4
 662              	.LVL35:
1147:.\Generated_Source\PSoC5/EMITE.c ****         uint16 bufIndex = 0u;
1148:.\Generated_Source\PSoC5/EMITE.c **** 
1149:.\Generated_Source\PSoC5/EMITE.c ****         /* If not Initialized then skip this function */
1150:.\Generated_Source\PSoC5/EMITE.c ****         if(EMITE_initVar != 0u)
 663              		.loc 1 1150 0
 664 0002 074B     		ldr	r3, .L76
 665 0004 1B78     		ldrb	r3, [r3]	@ zero_extendqisi2
 666 0006 2BB9     		cbnz	r3, .L74
 667 0008 38BD     		pop	{r3, r4, r5, pc}
 668              	.LVL36:
ARM GAS  C:\Users\HENRYA~1\AppData\Local\Temp\ccFFMLvl.s 			page 33


 669              	.L73:
1151:.\Generated_Source\PSoC5/EMITE.c ****         {
1152:.\Generated_Source\PSoC5/EMITE.c ****             /* This is a blocking function, it will not exit until all data is sent */
1153:.\Generated_Source\PSoC5/EMITE.c ****             while(string[bufIndex] != (char8) 0)
1154:.\Generated_Source\PSoC5/EMITE.c ****             {
1155:.\Generated_Source\PSoC5/EMITE.c ****                 EMITE_PutChar((uint8)string[bufIndex]);
 670              		.loc 1 1155 0
 671 000a FFF7FEFF 		bl	EMITE_PutChar
 672              	.LVL37:
1156:.\Generated_Source\PSoC5/EMITE.c ****                 bufIndex++;
 673              		.loc 1 1156 0
 674 000e 0134     		adds	r4, r4, #1
 675              	.LVL38:
 676 0010 A4B2     		uxth	r4, r4
 677              	.LVL39:
 678 0012 01E0     		b	.L71
 679              	.LVL40:
 680              	.L74:
 681 0014 0546     		mov	r5, r0
 682 0016 0024     		movs	r4, #0
 683              	.LVL41:
 684              	.L71:
1153:.\Generated_Source\PSoC5/EMITE.c ****             {
 685              		.loc 1 1153 0
 686 0018 285D     		ldrb	r0, [r5, r4]	@ zero_extendqisi2
 687 001a 0028     		cmp	r0, #0
 688 001c F5D1     		bne	.L73
 689 001e 38BD     		pop	{r3, r4, r5, pc}
 690              	.LVL42:
 691              	.L77:
 692              		.align	2
 693              	.L76:
 694 0020 00000000 		.word	.LANCHOR0
 695              		.cfi_endproc
 696              	.LFE20:
 697              		.size	EMITE_PutString, .-EMITE_PutString
 698              		.section	.text.EMITE_PutArray,"ax",%progbits
 699              		.align	2
 700              		.global	EMITE_PutArray
 701              		.thumb
 702              		.thumb_func
 703              		.type	EMITE_PutArray, %function
 704              	EMITE_PutArray:
 705              	.LFB21:
1157:.\Generated_Source\PSoC5/EMITE.c ****             }
1158:.\Generated_Source\PSoC5/EMITE.c ****         }
1159:.\Generated_Source\PSoC5/EMITE.c ****     }
1160:.\Generated_Source\PSoC5/EMITE.c **** 
1161:.\Generated_Source\PSoC5/EMITE.c **** 
1162:.\Generated_Source\PSoC5/EMITE.c ****     /*******************************************************************************
1163:.\Generated_Source\PSoC5/EMITE.c ****     * Function Name: EMITE_PutArray
1164:.\Generated_Source\PSoC5/EMITE.c ****     ********************************************************************************
1165:.\Generated_Source\PSoC5/EMITE.c ****     *
1166:.\Generated_Source\PSoC5/EMITE.c ****     * Summary:
1167:.\Generated_Source\PSoC5/EMITE.c ****     *  Places N bytes of data from a memory array into the TX buffer for
1168:.\Generated_Source\PSoC5/EMITE.c ****     *  transmission.
1169:.\Generated_Source\PSoC5/EMITE.c ****     *
ARM GAS  C:\Users\HENRYA~1\AppData\Local\Temp\ccFFMLvl.s 			page 34


1170:.\Generated_Source\PSoC5/EMITE.c ****     * Parameters:
1171:.\Generated_Source\PSoC5/EMITE.c ****     *  string[]: Address of the memory array residing in RAM or ROM.
1172:.\Generated_Source\PSoC5/EMITE.c ****     *  byteCount: Number of bytes to be transmitted. The type depends on TX Buffer
1173:.\Generated_Source\PSoC5/EMITE.c ****     *             Size parameter.
1174:.\Generated_Source\PSoC5/EMITE.c ****     *
1175:.\Generated_Source\PSoC5/EMITE.c ****     * Return:
1176:.\Generated_Source\PSoC5/EMITE.c ****     *  None.
1177:.\Generated_Source\PSoC5/EMITE.c ****     *
1178:.\Generated_Source\PSoC5/EMITE.c ****     * Global Variables:
1179:.\Generated_Source\PSoC5/EMITE.c ****     *  EMITE_initVar - checked to identify that the component has been
1180:.\Generated_Source\PSoC5/EMITE.c ****     *     initialized.
1181:.\Generated_Source\PSoC5/EMITE.c ****     *
1182:.\Generated_Source\PSoC5/EMITE.c ****     * Reentrant:
1183:.\Generated_Source\PSoC5/EMITE.c ****     *  No.
1184:.\Generated_Source\PSoC5/EMITE.c ****     *
1185:.\Generated_Source\PSoC5/EMITE.c ****     * Theory:
1186:.\Generated_Source\PSoC5/EMITE.c ****     *  If there is not enough memory in the TX buffer for the entire string, this
1187:.\Generated_Source\PSoC5/EMITE.c ****     *  function blocks until the last character of the string is loaded into the
1188:.\Generated_Source\PSoC5/EMITE.c ****     *  TX buffer.
1189:.\Generated_Source\PSoC5/EMITE.c ****     *
1190:.\Generated_Source\PSoC5/EMITE.c ****     *******************************************************************************/
1191:.\Generated_Source\PSoC5/EMITE.c ****     void EMITE_PutArray(const uint8 string[], uint8 byteCount)
1192:.\Generated_Source\PSoC5/EMITE.c ****                                                                     
1193:.\Generated_Source\PSoC5/EMITE.c ****     {
 706              		.loc 1 1193 0
 707              		.cfi_startproc
 708              		@ args = 0, pretend = 0, frame = 0
 709              		@ frame_needed = 0, uses_anonymous_args = 0
 710              	.LVL43:
1194:.\Generated_Source\PSoC5/EMITE.c ****         uint8 bufIndex = 0u;
1195:.\Generated_Source\PSoC5/EMITE.c **** 
1196:.\Generated_Source\PSoC5/EMITE.c ****         /* If not Initialized then skip this function */
1197:.\Generated_Source\PSoC5/EMITE.c ****         if(EMITE_initVar != 0u)
 711              		.loc 1 1197 0
 712 0000 084B     		ldr	r3, .L84
 713 0002 1B78     		ldrb	r3, [r3]	@ zero_extendqisi2
 714 0004 33B9     		cbnz	r3, .L82
 715 0006 7047     		bx	lr
 716              	.LVL44:
 717              	.L81:
 718              		.cfi_def_cfa_offset 16
 719              		.cfi_offset 4, -16
 720              		.cfi_offset 5, -12
 721              		.cfi_offset 6, -8
 722              		.cfi_offset 14, -4
1198:.\Generated_Source\PSoC5/EMITE.c ****         {
1199:.\Generated_Source\PSoC5/EMITE.c ****             while(bufIndex < byteCount)
1200:.\Generated_Source\PSoC5/EMITE.c ****             {
1201:.\Generated_Source\PSoC5/EMITE.c ****                 EMITE_PutChar(string[bufIndex]);
 723              		.loc 1 1201 0
 724 0008 305D     		ldrb	r0, [r6, r4]	@ zero_extendqisi2
 725 000a FFF7FEFF 		bl	EMITE_PutChar
 726              	.LVL45:
1202:.\Generated_Source\PSoC5/EMITE.c ****                 bufIndex++;
 727              		.loc 1 1202 0
 728 000e 0134     		adds	r4, r4, #1
 729              	.LVL46:
ARM GAS  C:\Users\HENRYA~1\AppData\Local\Temp\ccFFMLvl.s 			page 35


 730 0010 E4B2     		uxtb	r4, r4
 731              	.LVL47:
 732 0012 03E0     		b	.L79
 733              	.LVL48:
 734              	.L82:
 735              		.cfi_def_cfa_offset 0
 736              		.cfi_restore 4
 737              		.cfi_restore 5
 738              		.cfi_restore 6
 739              		.cfi_restore 14
1193:.\Generated_Source\PSoC5/EMITE.c ****         uint8 bufIndex = 0u;
 740              		.loc 1 1193 0
 741 0014 70B5     		push	{r4, r5, r6, lr}
 742              		.cfi_def_cfa_offset 16
 743              		.cfi_offset 4, -16
 744              		.cfi_offset 5, -12
 745              		.cfi_offset 6, -8
 746              		.cfi_offset 14, -4
 747 0016 0D46     		mov	r5, r1
 748 0018 0646     		mov	r6, r0
 749 001a 0024     		movs	r4, #0
 750              	.LVL49:
 751              	.L79:
1199:.\Generated_Source\PSoC5/EMITE.c ****             {
 752              		.loc 1 1199 0
 753 001c AC42     		cmp	r4, r5
 754 001e F3D3     		bcc	.L81
 755 0020 70BD     		pop	{r4, r5, r6, pc}
 756              	.LVL50:
 757              	.L85:
 758 0022 00BF     		.align	2
 759              	.L84:
 760 0024 00000000 		.word	.LANCHOR0
 761              		.cfi_endproc
 762              	.LFE21:
 763              		.size	EMITE_PutArray, .-EMITE_PutArray
 764              		.section	.text.EMITE_PutCRLF,"ax",%progbits
 765              		.align	2
 766              		.global	EMITE_PutCRLF
 767              		.thumb
 768              		.thumb_func
 769              		.type	EMITE_PutCRLF, %function
 770              	EMITE_PutCRLF:
 771              	.LFB22:
1203:.\Generated_Source\PSoC5/EMITE.c ****             }
1204:.\Generated_Source\PSoC5/EMITE.c ****         }
1205:.\Generated_Source\PSoC5/EMITE.c ****     }
1206:.\Generated_Source\PSoC5/EMITE.c **** 
1207:.\Generated_Source\PSoC5/EMITE.c **** 
1208:.\Generated_Source\PSoC5/EMITE.c ****     /*******************************************************************************
1209:.\Generated_Source\PSoC5/EMITE.c ****     * Function Name: EMITE_PutCRLF
1210:.\Generated_Source\PSoC5/EMITE.c ****     ********************************************************************************
1211:.\Generated_Source\PSoC5/EMITE.c ****     *
1212:.\Generated_Source\PSoC5/EMITE.c ****     * Summary:
1213:.\Generated_Source\PSoC5/EMITE.c ****     *  Writes a byte of data followed by a carriage return (0x0D) and line feed
1214:.\Generated_Source\PSoC5/EMITE.c ****     *  (0x0A) to the transmit buffer.
1215:.\Generated_Source\PSoC5/EMITE.c ****     *
ARM GAS  C:\Users\HENRYA~1\AppData\Local\Temp\ccFFMLvl.s 			page 36


1216:.\Generated_Source\PSoC5/EMITE.c ****     * Parameters:
1217:.\Generated_Source\PSoC5/EMITE.c ****     *  txDataByte: Data byte to transmit before the carriage return and line feed.
1218:.\Generated_Source\PSoC5/EMITE.c ****     *
1219:.\Generated_Source\PSoC5/EMITE.c ****     * Return:
1220:.\Generated_Source\PSoC5/EMITE.c ****     *  None.
1221:.\Generated_Source\PSoC5/EMITE.c ****     *
1222:.\Generated_Source\PSoC5/EMITE.c ****     * Global Variables:
1223:.\Generated_Source\PSoC5/EMITE.c ****     *  EMITE_initVar - checked to identify that the component has been
1224:.\Generated_Source\PSoC5/EMITE.c ****     *     initialized.
1225:.\Generated_Source\PSoC5/EMITE.c ****     *
1226:.\Generated_Source\PSoC5/EMITE.c ****     * Reentrant:
1227:.\Generated_Source\PSoC5/EMITE.c ****     *  No.
1228:.\Generated_Source\PSoC5/EMITE.c ****     *
1229:.\Generated_Source\PSoC5/EMITE.c ****     *******************************************************************************/
1230:.\Generated_Source\PSoC5/EMITE.c ****     void EMITE_PutCRLF(uint8 txDataByte) 
1231:.\Generated_Source\PSoC5/EMITE.c ****     {
 772              		.loc 1 1231 0
 773              		.cfi_startproc
 774              		@ args = 0, pretend = 0, frame = 0
 775              		@ frame_needed = 0, uses_anonymous_args = 0
 776              	.LVL51:
 777 0000 08B5     		push	{r3, lr}
 778              		.cfi_def_cfa_offset 8
 779              		.cfi_offset 3, -8
 780              		.cfi_offset 14, -4
1232:.\Generated_Source\PSoC5/EMITE.c ****         /* If not Initialized then skip this function */
1233:.\Generated_Source\PSoC5/EMITE.c ****         if(EMITE_initVar != 0u)
 781              		.loc 1 1233 0
 782 0002 064B     		ldr	r3, .L89
 783 0004 1B78     		ldrb	r3, [r3]	@ zero_extendqisi2
 784 0006 3BB1     		cbz	r3, .L86
1234:.\Generated_Source\PSoC5/EMITE.c ****         {
1235:.\Generated_Source\PSoC5/EMITE.c ****             EMITE_PutChar(txDataByte);
 785              		.loc 1 1235 0
 786 0008 FFF7FEFF 		bl	EMITE_PutChar
 787              	.LVL52:
1236:.\Generated_Source\PSoC5/EMITE.c ****             EMITE_PutChar(0x0Du);
 788              		.loc 1 1236 0
 789 000c 0D20     		movs	r0, #13
 790 000e FFF7FEFF 		bl	EMITE_PutChar
 791              	.LVL53:
1237:.\Generated_Source\PSoC5/EMITE.c ****             EMITE_PutChar(0x0Au);
 792              		.loc 1 1237 0
 793 0012 0A20     		movs	r0, #10
 794 0014 FFF7FEFF 		bl	EMITE_PutChar
 795              	.LVL54:
 796              	.L86:
 797 0018 08BD     		pop	{r3, pc}
 798              	.L90:
 799 001a 00BF     		.align	2
 800              	.L89:
 801 001c 00000000 		.word	.LANCHOR0
 802              		.cfi_endproc
 803              	.LFE22:
 804              		.size	EMITE_PutCRLF, .-EMITE_PutCRLF
 805              		.section	.text.EMITE_GetTxBufferSize,"ax",%progbits
 806              		.align	2
ARM GAS  C:\Users\HENRYA~1\AppData\Local\Temp\ccFFMLvl.s 			page 37


 807              		.global	EMITE_GetTxBufferSize
 808              		.thumb
 809              		.thumb_func
 810              		.type	EMITE_GetTxBufferSize, %function
 811              	EMITE_GetTxBufferSize:
 812              	.LFB23:
1238:.\Generated_Source\PSoC5/EMITE.c ****         }
1239:.\Generated_Source\PSoC5/EMITE.c ****     }
1240:.\Generated_Source\PSoC5/EMITE.c **** 
1241:.\Generated_Source\PSoC5/EMITE.c **** 
1242:.\Generated_Source\PSoC5/EMITE.c ****     /*******************************************************************************
1243:.\Generated_Source\PSoC5/EMITE.c ****     * Function Name: EMITE_GetTxBufferSize
1244:.\Generated_Source\PSoC5/EMITE.c ****     ********************************************************************************
1245:.\Generated_Source\PSoC5/EMITE.c ****     *
1246:.\Generated_Source\PSoC5/EMITE.c ****     * Summary:
1247:.\Generated_Source\PSoC5/EMITE.c ****     *  Returns the number of bytes in the TX buffer which are waiting to be 
1248:.\Generated_Source\PSoC5/EMITE.c ****     *  transmitted.
1249:.\Generated_Source\PSoC5/EMITE.c ****     *  * TX software buffer is disabled (TX Buffer Size parameter is equal to 4): 
1250:.\Generated_Source\PSoC5/EMITE.c ****     *    returns 0 for empty TX FIFO, 1 for not full TX FIFO or 4 for full TX FIFO.
1251:.\Generated_Source\PSoC5/EMITE.c ****     *  * TX software buffer is enabled: returns the number of bytes in the TX 
1252:.\Generated_Source\PSoC5/EMITE.c ****     *    software buffer which are waiting to be transmitted. Bytes available in the
1253:.\Generated_Source\PSoC5/EMITE.c ****     *    TX FIFO do not count.
1254:.\Generated_Source\PSoC5/EMITE.c ****     *
1255:.\Generated_Source\PSoC5/EMITE.c ****     * Parameters:
1256:.\Generated_Source\PSoC5/EMITE.c ****     *  None.
1257:.\Generated_Source\PSoC5/EMITE.c ****     *
1258:.\Generated_Source\PSoC5/EMITE.c ****     * Return:
1259:.\Generated_Source\PSoC5/EMITE.c ****     *  Number of bytes used in the TX buffer. Return value type depends on the TX 
1260:.\Generated_Source\PSoC5/EMITE.c ****     *  Buffer Size parameter.
1261:.\Generated_Source\PSoC5/EMITE.c ****     *
1262:.\Generated_Source\PSoC5/EMITE.c ****     * Global Variables:
1263:.\Generated_Source\PSoC5/EMITE.c ****     *  EMITE_txBufferWrite - used to calculate left space.
1264:.\Generated_Source\PSoC5/EMITE.c ****     *  EMITE_txBufferRead - used to calculate left space.
1265:.\Generated_Source\PSoC5/EMITE.c ****     *
1266:.\Generated_Source\PSoC5/EMITE.c ****     * Reentrant:
1267:.\Generated_Source\PSoC5/EMITE.c ****     *  No.
1268:.\Generated_Source\PSoC5/EMITE.c ****     *
1269:.\Generated_Source\PSoC5/EMITE.c ****     * Theory:
1270:.\Generated_Source\PSoC5/EMITE.c ****     *  Allows the user to find out how full the TX Buffer is.
1271:.\Generated_Source\PSoC5/EMITE.c ****     *
1272:.\Generated_Source\PSoC5/EMITE.c ****     *******************************************************************************/
1273:.\Generated_Source\PSoC5/EMITE.c ****     uint8 EMITE_GetTxBufferSize(void)
1274:.\Generated_Source\PSoC5/EMITE.c ****                                                             
1275:.\Generated_Source\PSoC5/EMITE.c ****     {
 813              		.loc 1 1275 0
 814              		.cfi_startproc
 815              		@ args = 0, pretend = 0, frame = 0
 816              		@ frame_needed = 0, uses_anonymous_args = 0
 817              		@ link register save eliminated.
1276:.\Generated_Source\PSoC5/EMITE.c ****         uint8 size;
1277:.\Generated_Source\PSoC5/EMITE.c **** 
1278:.\Generated_Source\PSoC5/EMITE.c ****     #if (EMITE_TX_INTERRUPT_ENABLED)
1279:.\Generated_Source\PSoC5/EMITE.c **** 
1280:.\Generated_Source\PSoC5/EMITE.c ****         /* Protect variables that could change on interrupt. */
1281:.\Generated_Source\PSoC5/EMITE.c ****         EMITE_DisableTxInt();
1282:.\Generated_Source\PSoC5/EMITE.c **** 
1283:.\Generated_Source\PSoC5/EMITE.c ****         if(EMITE_txBufferRead == EMITE_txBufferWrite)
ARM GAS  C:\Users\HENRYA~1\AppData\Local\Temp\ccFFMLvl.s 			page 38


1284:.\Generated_Source\PSoC5/EMITE.c ****         {
1285:.\Generated_Source\PSoC5/EMITE.c ****             size = 0u;
1286:.\Generated_Source\PSoC5/EMITE.c ****         }
1287:.\Generated_Source\PSoC5/EMITE.c ****         else if(EMITE_txBufferRead < EMITE_txBufferWrite)
1288:.\Generated_Source\PSoC5/EMITE.c ****         {
1289:.\Generated_Source\PSoC5/EMITE.c ****             size = (EMITE_txBufferWrite - EMITE_txBufferRead);
1290:.\Generated_Source\PSoC5/EMITE.c ****         }
1291:.\Generated_Source\PSoC5/EMITE.c ****         else
1292:.\Generated_Source\PSoC5/EMITE.c ****         {
1293:.\Generated_Source\PSoC5/EMITE.c ****             size = (EMITE_TX_BUFFER_SIZE - EMITE_txBufferRead) +
1294:.\Generated_Source\PSoC5/EMITE.c ****                     EMITE_txBufferWrite;
1295:.\Generated_Source\PSoC5/EMITE.c ****         }
1296:.\Generated_Source\PSoC5/EMITE.c **** 
1297:.\Generated_Source\PSoC5/EMITE.c ****         EMITE_EnableTxInt();
1298:.\Generated_Source\PSoC5/EMITE.c **** 
1299:.\Generated_Source\PSoC5/EMITE.c ****     #else
1300:.\Generated_Source\PSoC5/EMITE.c **** 
1301:.\Generated_Source\PSoC5/EMITE.c ****         size = EMITE_TXSTATUS_REG;
 818              		.loc 1 1301 0
 819 0000 074B     		ldr	r3, .L95
 820 0002 1B78     		ldrb	r3, [r3]	@ zero_extendqisi2
 821 0004 DBB2     		uxtb	r3, r3
 822              	.LVL55:
1302:.\Generated_Source\PSoC5/EMITE.c **** 
1303:.\Generated_Source\PSoC5/EMITE.c ****         /* Is the fifo is full. */
1304:.\Generated_Source\PSoC5/EMITE.c ****         if((size & EMITE_TX_STS_FIFO_FULL) != 0u)
 823              		.loc 1 1304 0
 824 0006 13F0200F 		tst	r3, #32
 825 000a 04D1     		bne	.L93
1305:.\Generated_Source\PSoC5/EMITE.c ****         {
1306:.\Generated_Source\PSoC5/EMITE.c ****             size = EMITE_FIFO_LENGTH;
1307:.\Generated_Source\PSoC5/EMITE.c ****         }
1308:.\Generated_Source\PSoC5/EMITE.c ****         else if((size & EMITE_TX_STS_FIFO_EMPTY) != 0u)
 826              		.loc 1 1308 0
 827 000c 13F0020F 		tst	r3, #2
 828 0010 03D0     		beq	.L94
1309:.\Generated_Source\PSoC5/EMITE.c ****         {
1310:.\Generated_Source\PSoC5/EMITE.c ****             size = 0u;
 829              		.loc 1 1310 0
 830 0012 0020     		movs	r0, #0
 831 0014 7047     		bx	lr
 832              	.L93:
1306:.\Generated_Source\PSoC5/EMITE.c ****         }
 833              		.loc 1 1306 0
 834 0016 0420     		movs	r0, #4
 835 0018 7047     		bx	lr
 836              	.L94:
1311:.\Generated_Source\PSoC5/EMITE.c ****         }
1312:.\Generated_Source\PSoC5/EMITE.c ****         else
1313:.\Generated_Source\PSoC5/EMITE.c ****         {
1314:.\Generated_Source\PSoC5/EMITE.c ****             /* We only know there is data in the fifo. */
1315:.\Generated_Source\PSoC5/EMITE.c ****             size = 1u;
 837              		.loc 1 1315 0
 838 001a 0120     		movs	r0, #1
 839              	.LVL56:
1316:.\Generated_Source\PSoC5/EMITE.c ****         }
1317:.\Generated_Source\PSoC5/EMITE.c **** 
ARM GAS  C:\Users\HENRYA~1\AppData\Local\Temp\ccFFMLvl.s 			page 39


1318:.\Generated_Source\PSoC5/EMITE.c ****     #endif /* (EMITE_TX_INTERRUPT_ENABLED) */
1319:.\Generated_Source\PSoC5/EMITE.c **** 
1320:.\Generated_Source\PSoC5/EMITE.c ****     return(size);
1321:.\Generated_Source\PSoC5/EMITE.c ****     }
 840              		.loc 1 1321 0
 841 001c 7047     		bx	lr
 842              	.L96:
 843 001e 00BF     		.align	2
 844              	.L95:
 845 0020 65650040 		.word	1073767781
 846              		.cfi_endproc
 847              	.LFE23:
 848              		.size	EMITE_GetTxBufferSize, .-EMITE_GetTxBufferSize
 849              		.section	.text.EMITE_ClearTxBuffer,"ax",%progbits
 850              		.align	2
 851              		.global	EMITE_ClearTxBuffer
 852              		.thumb
 853              		.thumb_func
 854              		.type	EMITE_ClearTxBuffer, %function
 855              	EMITE_ClearTxBuffer:
 856              	.LFB24:
1322:.\Generated_Source\PSoC5/EMITE.c **** 
1323:.\Generated_Source\PSoC5/EMITE.c **** 
1324:.\Generated_Source\PSoC5/EMITE.c ****     /*******************************************************************************
1325:.\Generated_Source\PSoC5/EMITE.c ****     * Function Name: EMITE_ClearTxBuffer
1326:.\Generated_Source\PSoC5/EMITE.c ****     ********************************************************************************
1327:.\Generated_Source\PSoC5/EMITE.c ****     *
1328:.\Generated_Source\PSoC5/EMITE.c ****     * Summary:
1329:.\Generated_Source\PSoC5/EMITE.c ****     *  Clears all data from the TX buffer and hardware TX FIFO.
1330:.\Generated_Source\PSoC5/EMITE.c ****     *
1331:.\Generated_Source\PSoC5/EMITE.c ****     * Parameters:
1332:.\Generated_Source\PSoC5/EMITE.c ****     *  None.
1333:.\Generated_Source\PSoC5/EMITE.c ****     *
1334:.\Generated_Source\PSoC5/EMITE.c ****     * Return:
1335:.\Generated_Source\PSoC5/EMITE.c ****     *  None.
1336:.\Generated_Source\PSoC5/EMITE.c ****     *
1337:.\Generated_Source\PSoC5/EMITE.c ****     * Global Variables:
1338:.\Generated_Source\PSoC5/EMITE.c ****     *  EMITE_txBufferWrite - cleared to zero.
1339:.\Generated_Source\PSoC5/EMITE.c ****     *  EMITE_txBufferRead - cleared to zero.
1340:.\Generated_Source\PSoC5/EMITE.c ****     *
1341:.\Generated_Source\PSoC5/EMITE.c ****     * Reentrant:
1342:.\Generated_Source\PSoC5/EMITE.c ****     *  No.
1343:.\Generated_Source\PSoC5/EMITE.c ****     *
1344:.\Generated_Source\PSoC5/EMITE.c ****     * Theory:
1345:.\Generated_Source\PSoC5/EMITE.c ****     *  Setting the pointers to zero makes the system believe there is no data to
1346:.\Generated_Source\PSoC5/EMITE.c ****     *  read and writing will resume at address 0 overwriting any data that may have
1347:.\Generated_Source\PSoC5/EMITE.c ****     *  remained in the RAM.
1348:.\Generated_Source\PSoC5/EMITE.c ****     *
1349:.\Generated_Source\PSoC5/EMITE.c ****     * Side Effects:
1350:.\Generated_Source\PSoC5/EMITE.c ****     *  Data waiting in the transmit buffer is not sent; a byte that is currently
1351:.\Generated_Source\PSoC5/EMITE.c ****     *  transmitting finishes transmitting.
1352:.\Generated_Source\PSoC5/EMITE.c ****     *
1353:.\Generated_Source\PSoC5/EMITE.c ****     *******************************************************************************/
1354:.\Generated_Source\PSoC5/EMITE.c ****     void EMITE_ClearTxBuffer(void) 
1355:.\Generated_Source\PSoC5/EMITE.c ****     {
 857              		.loc 1 1355 0
 858              		.cfi_startproc
ARM GAS  C:\Users\HENRYA~1\AppData\Local\Temp\ccFFMLvl.s 			page 40


 859              		@ args = 0, pretend = 0, frame = 0
 860              		@ frame_needed = 0, uses_anonymous_args = 0
 861 0000 08B5     		push	{r3, lr}
 862              		.cfi_def_cfa_offset 8
 863              		.cfi_offset 3, -8
 864              		.cfi_offset 14, -4
1356:.\Generated_Source\PSoC5/EMITE.c ****         uint8 enableInterrupts;
1357:.\Generated_Source\PSoC5/EMITE.c **** 
1358:.\Generated_Source\PSoC5/EMITE.c ****         enableInterrupts = CyEnterCriticalSection();
 865              		.loc 1 1358 0
 866 0002 FFF7FEFF 		bl	CyEnterCriticalSection
 867              	.LVL57:
1359:.\Generated_Source\PSoC5/EMITE.c ****         /* Clear the HW FIFO */
1360:.\Generated_Source\PSoC5/EMITE.c ****         EMITE_TXDATA_AUX_CTL_REG |= (uint8)  EMITE_TX_FIFO_CLR;
 868              		.loc 1 1360 0
 869 0006 064B     		ldr	r3, .L99
 870 0008 1A78     		ldrb	r2, [r3]	@ zero_extendqisi2
 871 000a 42F00202 		orr	r2, r2, #2
 872 000e 1A70     		strb	r2, [r3]
1361:.\Generated_Source\PSoC5/EMITE.c ****         EMITE_TXDATA_AUX_CTL_REG &= (uint8) ~EMITE_TX_FIFO_CLR;
 873              		.loc 1 1361 0
 874 0010 1A78     		ldrb	r2, [r3]	@ zero_extendqisi2
 875 0012 02F0FD02 		and	r2, r2, #253
 876 0016 1A70     		strb	r2, [r3]
1362:.\Generated_Source\PSoC5/EMITE.c ****         CyExitCriticalSection(enableInterrupts);
 877              		.loc 1 1362 0
 878 0018 FFF7FEFF 		bl	CyExitCriticalSection
 879              	.LVL58:
 880 001c 08BD     		pop	{r3, pc}
 881              	.L100:
 882 001e 00BF     		.align	2
 883              	.L99:
 884 0020 97640040 		.word	1073767575
 885              		.cfi_endproc
 886              	.LFE24:
 887              		.size	EMITE_ClearTxBuffer, .-EMITE_ClearTxBuffer
 888              		.section	.text.EMITE_SendBreak,"ax",%progbits
 889              		.align	2
 890              		.global	EMITE_SendBreak
 891              		.thumb
 892              		.thumb_func
 893              		.type	EMITE_SendBreak, %function
 894              	EMITE_SendBreak:
 895              	.LFB25:
1363:.\Generated_Source\PSoC5/EMITE.c **** 
1364:.\Generated_Source\PSoC5/EMITE.c ****     #if (EMITE_TX_INTERRUPT_ENABLED)
1365:.\Generated_Source\PSoC5/EMITE.c **** 
1366:.\Generated_Source\PSoC5/EMITE.c ****         /* Protect variables that could change on interrupt. */
1367:.\Generated_Source\PSoC5/EMITE.c ****         EMITE_DisableTxInt();
1368:.\Generated_Source\PSoC5/EMITE.c **** 
1369:.\Generated_Source\PSoC5/EMITE.c ****         EMITE_txBufferRead = 0u;
1370:.\Generated_Source\PSoC5/EMITE.c ****         EMITE_txBufferWrite = 0u;
1371:.\Generated_Source\PSoC5/EMITE.c **** 
1372:.\Generated_Source\PSoC5/EMITE.c ****         /* Enable Tx interrupt. */
1373:.\Generated_Source\PSoC5/EMITE.c ****         EMITE_EnableTxInt();
1374:.\Generated_Source\PSoC5/EMITE.c **** 
1375:.\Generated_Source\PSoC5/EMITE.c ****     #endif /* (EMITE_TX_INTERRUPT_ENABLED) */
ARM GAS  C:\Users\HENRYA~1\AppData\Local\Temp\ccFFMLvl.s 			page 41


1376:.\Generated_Source\PSoC5/EMITE.c ****     }
1377:.\Generated_Source\PSoC5/EMITE.c **** 
1378:.\Generated_Source\PSoC5/EMITE.c **** 
1379:.\Generated_Source\PSoC5/EMITE.c ****     /*******************************************************************************
1380:.\Generated_Source\PSoC5/EMITE.c ****     * Function Name: EMITE_SendBreak
1381:.\Generated_Source\PSoC5/EMITE.c ****     ********************************************************************************
1382:.\Generated_Source\PSoC5/EMITE.c ****     *
1383:.\Generated_Source\PSoC5/EMITE.c ****     * Summary:
1384:.\Generated_Source\PSoC5/EMITE.c ****     *  Transmits a break signal on the bus.
1385:.\Generated_Source\PSoC5/EMITE.c ****     *
1386:.\Generated_Source\PSoC5/EMITE.c ****     * Parameters:
1387:.\Generated_Source\PSoC5/EMITE.c ****     *  uint8 retMode:  Send Break return mode. See the following table for options.
1388:.\Generated_Source\PSoC5/EMITE.c ****     *   EMITE_SEND_BREAK - Initialize registers for break, send the Break
1389:.\Generated_Source\PSoC5/EMITE.c ****     *       signal and return immediately.
1390:.\Generated_Source\PSoC5/EMITE.c ****     *   EMITE_WAIT_FOR_COMPLETE_REINIT - Wait until break transmission is
1391:.\Generated_Source\PSoC5/EMITE.c ****     *       complete, reinitialize registers to normal transmission mode then return
1392:.\Generated_Source\PSoC5/EMITE.c ****     *   EMITE_REINIT - Reinitialize registers to normal transmission mode
1393:.\Generated_Source\PSoC5/EMITE.c ****     *       then return.
1394:.\Generated_Source\PSoC5/EMITE.c ****     *   EMITE_SEND_WAIT_REINIT - Performs both options: 
1395:.\Generated_Source\PSoC5/EMITE.c ****     *      EMITE_SEND_BREAK and EMITE_WAIT_FOR_COMPLETE_REINIT.
1396:.\Generated_Source\PSoC5/EMITE.c ****     *      This option is recommended for most cases.
1397:.\Generated_Source\PSoC5/EMITE.c ****     *
1398:.\Generated_Source\PSoC5/EMITE.c ****     * Return:
1399:.\Generated_Source\PSoC5/EMITE.c ****     *  None.
1400:.\Generated_Source\PSoC5/EMITE.c ****     *
1401:.\Generated_Source\PSoC5/EMITE.c ****     * Global Variables:
1402:.\Generated_Source\PSoC5/EMITE.c ****     *  EMITE_initVar - checked to identify that the component has been
1403:.\Generated_Source\PSoC5/EMITE.c ****     *     initialized.
1404:.\Generated_Source\PSoC5/EMITE.c ****     *  txPeriod - static variable, used for keeping TX period configuration.
1405:.\Generated_Source\PSoC5/EMITE.c ****     *
1406:.\Generated_Source\PSoC5/EMITE.c ****     * Reentrant:
1407:.\Generated_Source\PSoC5/EMITE.c ****     *  No.
1408:.\Generated_Source\PSoC5/EMITE.c ****     *
1409:.\Generated_Source\PSoC5/EMITE.c ****     * Theory:
1410:.\Generated_Source\PSoC5/EMITE.c ****     *  SendBreak function initializes registers to send 13-bit break signal. It is
1411:.\Generated_Source\PSoC5/EMITE.c ****     *  important to return the registers configuration to normal for continue 8-bit
1412:.\Generated_Source\PSoC5/EMITE.c ****     *  operation.
1413:.\Generated_Source\PSoC5/EMITE.c ****     *  There are 3 variants for this API usage:
1414:.\Generated_Source\PSoC5/EMITE.c ****     *  1) SendBreak(3) - function will send the Break signal and take care on the
1415:.\Generated_Source\PSoC5/EMITE.c ****     *     configuration returning. Function will block CPU until transmission
1416:.\Generated_Source\PSoC5/EMITE.c ****     *     complete.
1417:.\Generated_Source\PSoC5/EMITE.c ****     *  2) User may want to use blocking time if UART configured to the low speed
1418:.\Generated_Source\PSoC5/EMITE.c ****     *     operation
1419:.\Generated_Source\PSoC5/EMITE.c ****     *     Example for this case:
1420:.\Generated_Source\PSoC5/EMITE.c ****     *     SendBreak(0);     - initialize Break signal transmission
1421:.\Generated_Source\PSoC5/EMITE.c ****     *         Add your code here to use CPU time
1422:.\Generated_Source\PSoC5/EMITE.c ****     *     SendBreak(1);     - complete Break operation
1423:.\Generated_Source\PSoC5/EMITE.c ****     *  3) Same to 2) but user may want to initialize and use the interrupt to
1424:.\Generated_Source\PSoC5/EMITE.c ****     *     complete break operation.
1425:.\Generated_Source\PSoC5/EMITE.c ****     *     Example for this case:
1426:.\Generated_Source\PSoC5/EMITE.c ****     *     Initialize TX interrupt with "TX - On TX Complete" parameter
1427:.\Generated_Source\PSoC5/EMITE.c ****     *     SendBreak(0);     - initialize Break signal transmission
1428:.\Generated_Source\PSoC5/EMITE.c ****     *         Add your code here to use CPU time
1429:.\Generated_Source\PSoC5/EMITE.c ****     *     When interrupt appear with EMITE_TX_STS_COMPLETE status:
1430:.\Generated_Source\PSoC5/EMITE.c ****     *     SendBreak(2);     - complete Break operation
1431:.\Generated_Source\PSoC5/EMITE.c ****     *
1432:.\Generated_Source\PSoC5/EMITE.c ****     * Side Effects:
ARM GAS  C:\Users\HENRYA~1\AppData\Local\Temp\ccFFMLvl.s 			page 42


1433:.\Generated_Source\PSoC5/EMITE.c ****     *  The EMITE_SendBreak() function initializes registers to send a
1434:.\Generated_Source\PSoC5/EMITE.c ****     *  break signal.
1435:.\Generated_Source\PSoC5/EMITE.c ****     *  Break signal length depends on the break signal bits configuration.
1436:.\Generated_Source\PSoC5/EMITE.c ****     *  The register configuration should be reinitialized before normal 8-bit
1437:.\Generated_Source\PSoC5/EMITE.c ****     *  communication can continue.
1438:.\Generated_Source\PSoC5/EMITE.c ****     *
1439:.\Generated_Source\PSoC5/EMITE.c ****     *******************************************************************************/
1440:.\Generated_Source\PSoC5/EMITE.c ****     void EMITE_SendBreak(uint8 retMode) 
1441:.\Generated_Source\PSoC5/EMITE.c ****     {
 896              		.loc 1 1441 0
 897              		.cfi_startproc
 898              		@ args = 0, pretend = 0, frame = 0
 899              		@ frame_needed = 0, uses_anonymous_args = 0
 900              	.LVL59:
1442:.\Generated_Source\PSoC5/EMITE.c **** 
1443:.\Generated_Source\PSoC5/EMITE.c ****         /* If not Initialized then skip this function*/
1444:.\Generated_Source\PSoC5/EMITE.c ****         if(EMITE_initVar != 0u)
 901              		.loc 1 1444 0
 902 0000 154B     		ldr	r3, .L110
 903 0002 1B78     		ldrb	r3, [r3]	@ zero_extendqisi2
 904 0004 3BB3     		cbz	r3, .L109
1441:.\Generated_Source\PSoC5/EMITE.c **** 
 905              		.loc 1 1441 0
 906 0006 10B5     		push	{r4, lr}
 907              		.cfi_def_cfa_offset 8
 908              		.cfi_offset 4, -8
 909              		.cfi_offset 14, -4
 910 0008 0446     		mov	r4, r0
 911              	.LBB2:
1445:.\Generated_Source\PSoC5/EMITE.c ****         {
1446:.\Generated_Source\PSoC5/EMITE.c ****             /* Set the Counter to 13-bits and transmit a 00 byte */
1447:.\Generated_Source\PSoC5/EMITE.c ****             /* When that is done then reset the counter value back */
1448:.\Generated_Source\PSoC5/EMITE.c ****             uint8 tmpStat;
1449:.\Generated_Source\PSoC5/EMITE.c **** 
1450:.\Generated_Source\PSoC5/EMITE.c ****         #if(EMITE_HD_ENABLED) /* Half Duplex mode*/
1451:.\Generated_Source\PSoC5/EMITE.c **** 
1452:.\Generated_Source\PSoC5/EMITE.c ****             if( (retMode == EMITE_SEND_BREAK) ||
 912              		.loc 1 1452 0
 913 000a 08B1     		cbz	r0, .L103
 914              		.loc 1 1452 0 is_stmt 0 discriminator 1
 915 000c 0328     		cmp	r0, #3
 916 000e 0ED1     		bne	.L104
 917              	.L103:
1453:.\Generated_Source\PSoC5/EMITE.c ****                 (retMode == EMITE_SEND_WAIT_REINIT ) )
1454:.\Generated_Source\PSoC5/EMITE.c ****             {
1455:.\Generated_Source\PSoC5/EMITE.c ****                 /* CTRL_HD_SEND_BREAK - sends break bits in HD mode */
1456:.\Generated_Source\PSoC5/EMITE.c ****                 EMITE_WriteControlRegister(EMITE_ReadControlRegister() |
 918              		.loc 1 1456 0 is_stmt 1
 919 0010 FFF7FEFF 		bl	EMITE_ReadControlRegister
 920              	.LVL60:
 921 0014 40F00200 		orr	r0, r0, #2
 922 0018 C0B2     		uxtb	r0, r0
 923 001a FFF7FEFF 		bl	EMITE_WriteControlRegister
 924              	.LVL61:
1457:.\Generated_Source\PSoC5/EMITE.c ****                                                       EMITE_CTRL_HD_SEND_BREAK);
1458:.\Generated_Source\PSoC5/EMITE.c ****                 /* Send zeros */
1459:.\Generated_Source\PSoC5/EMITE.c ****                 EMITE_TXDATA_REG = 0u;
ARM GAS  C:\Users\HENRYA~1\AppData\Local\Temp\ccFFMLvl.s 			page 43


 925              		.loc 1 1459 0
 926 001e 0022     		movs	r2, #0
 927 0020 0E4B     		ldr	r3, .L110+4
 928 0022 1A70     		strb	r2, [r3]
 929              	.L105:
1460:.\Generated_Source\PSoC5/EMITE.c **** 
1461:.\Generated_Source\PSoC5/EMITE.c ****                 do /* Wait until transmit starts */
1462:.\Generated_Source\PSoC5/EMITE.c ****                 {
1463:.\Generated_Source\PSoC5/EMITE.c ****                     tmpStat = EMITE_TXSTATUS_REG;
 930              		.loc 1 1463 0 discriminator 1
 931 0024 0E4B     		ldr	r3, .L110+8
 932 0026 1B78     		ldrb	r3, [r3]	@ zero_extendqisi2
 933              	.LVL62:
1464:.\Generated_Source\PSoC5/EMITE.c ****                 }
1465:.\Generated_Source\PSoC5/EMITE.c ****                 while((tmpStat & EMITE_TX_STS_FIFO_EMPTY) != 0u);
 934              		.loc 1 1465 0 discriminator 1
 935 0028 13F0020F 		tst	r3, #2
 936 002c FAD1     		bne	.L105
 937              	.LVL63:
 938              	.L104:
1466:.\Generated_Source\PSoC5/EMITE.c ****             }
1467:.\Generated_Source\PSoC5/EMITE.c **** 
1468:.\Generated_Source\PSoC5/EMITE.c ****             if( (retMode == EMITE_WAIT_FOR_COMPLETE_REINIT) ||
 939              		.loc 1 1468 0
 940 002e 012C     		cmp	r4, #1
 941 0030 01D0     		beq	.L106
 942              		.loc 1 1468 0 is_stmt 0 discriminator 1
 943 0032 032C     		cmp	r4, #3
 944 0034 04D1     		bne	.L107
 945              	.L106:
1469:.\Generated_Source\PSoC5/EMITE.c ****                 (retMode == EMITE_SEND_WAIT_REINIT) )
1470:.\Generated_Source\PSoC5/EMITE.c ****             {
1471:.\Generated_Source\PSoC5/EMITE.c ****                 do /* Wait until transmit complete */
1472:.\Generated_Source\PSoC5/EMITE.c ****                 {
1473:.\Generated_Source\PSoC5/EMITE.c ****                     tmpStat = EMITE_TXSTATUS_REG;
 946              		.loc 1 1473 0 is_stmt 1 discriminator 1
 947 0036 0A4B     		ldr	r3, .L110+8
 948 0038 1B78     		ldrb	r3, [r3]	@ zero_extendqisi2
 949              	.LVL64:
1474:.\Generated_Source\PSoC5/EMITE.c ****                 }
1475:.\Generated_Source\PSoC5/EMITE.c ****                 while(((uint8)~tmpStat & EMITE_TX_STS_COMPLETE) != 0u);
 950              		.loc 1 1475 0 discriminator 1
 951 003a 13F0010F 		tst	r3, #1
 952 003e FAD0     		beq	.L106
 953              	.LVL65:
 954              	.L107:
1476:.\Generated_Source\PSoC5/EMITE.c ****             }
1477:.\Generated_Source\PSoC5/EMITE.c **** 
1478:.\Generated_Source\PSoC5/EMITE.c ****             if( (retMode == EMITE_WAIT_FOR_COMPLETE_REINIT) ||
1479:.\Generated_Source\PSoC5/EMITE.c ****                 (retMode == EMITE_REINIT) ||
 955              		.loc 1 1479 0
 956 0040 013C     		subs	r4, r4, #1
 957 0042 E4B2     		uxtb	r4, r4
1478:.\Generated_Source\PSoC5/EMITE.c ****                 (retMode == EMITE_REINIT) ||
 958              		.loc 1 1478 0
 959 0044 022C     		cmp	r4, #2
 960 0046 05D8     		bhi	.L101
ARM GAS  C:\Users\HENRYA~1\AppData\Local\Temp\ccFFMLvl.s 			page 44


1480:.\Generated_Source\PSoC5/EMITE.c ****                 (retMode == EMITE_SEND_WAIT_REINIT) )
1481:.\Generated_Source\PSoC5/EMITE.c ****             {
1482:.\Generated_Source\PSoC5/EMITE.c ****                 EMITE_WriteControlRegister(EMITE_ReadControlRegister() &
 961              		.loc 1 1482 0
 962 0048 FFF7FEFF 		bl	EMITE_ReadControlRegister
 963              	.LVL66:
 964 004c 00F0FD00 		and	r0, r0, #253
 965 0050 FFF7FEFF 		bl	EMITE_WriteControlRegister
 966              	.LVL67:
 967              	.L101:
 968 0054 10BD     		pop	{r4, pc}
 969              	.LVL68:
 970              	.L109:
 971              		.cfi_def_cfa_offset 0
 972              		.cfi_restore 4
 973              		.cfi_restore 14
 974 0056 7047     		bx	lr
 975              	.L111:
 976              		.align	2
 977              	.L110:
 978 0058 00000000 		.word	.LANCHOR0
 979 005c 57640040 		.word	1073767511
 980 0060 65650040 		.word	1073767781
 981              	.LBE2:
 982              		.cfi_endproc
 983              	.LFE25:
 984              		.size	EMITE_SendBreak, .-EMITE_SendBreak
 985              		.section	.text.EMITE_SetTxAddressMode,"ax",%progbits
 986              		.align	2
 987              		.global	EMITE_SetTxAddressMode
 988              		.thumb
 989              		.thumb_func
 990              		.type	EMITE_SetTxAddressMode, %function
 991              	EMITE_SetTxAddressMode:
 992              	.LFB26:
1483:.\Generated_Source\PSoC5/EMITE.c ****                                               (uint8)~EMITE_CTRL_HD_SEND_BREAK);
1484:.\Generated_Source\PSoC5/EMITE.c ****             }
1485:.\Generated_Source\PSoC5/EMITE.c **** 
1486:.\Generated_Source\PSoC5/EMITE.c ****         #else /* EMITE_HD_ENABLED Full Duplex mode */
1487:.\Generated_Source\PSoC5/EMITE.c **** 
1488:.\Generated_Source\PSoC5/EMITE.c ****             static uint8 txPeriod;
1489:.\Generated_Source\PSoC5/EMITE.c **** 
1490:.\Generated_Source\PSoC5/EMITE.c ****             if( (retMode == EMITE_SEND_BREAK) ||
1491:.\Generated_Source\PSoC5/EMITE.c ****                 (retMode == EMITE_SEND_WAIT_REINIT) )
1492:.\Generated_Source\PSoC5/EMITE.c ****             {
1493:.\Generated_Source\PSoC5/EMITE.c ****                 /* CTRL_HD_SEND_BREAK - skip to send parity bit at Break signal in Full Duplex mode
1494:.\Generated_Source\PSoC5/EMITE.c ****                 #if( (EMITE_PARITY_TYPE != EMITE__B_UART__NONE_REVB) || \
1495:.\Generated_Source\PSoC5/EMITE.c ****                                     (EMITE_PARITY_TYPE_SW != 0u) )
1496:.\Generated_Source\PSoC5/EMITE.c ****                     EMITE_WriteControlRegister(EMITE_ReadControlRegister() |
1497:.\Generated_Source\PSoC5/EMITE.c ****                                                           EMITE_CTRL_HD_SEND_BREAK);
1498:.\Generated_Source\PSoC5/EMITE.c ****                 #endif /* End EMITE_PARITY_TYPE != EMITE__B_UART__NONE_REVB  */
1499:.\Generated_Source\PSoC5/EMITE.c **** 
1500:.\Generated_Source\PSoC5/EMITE.c ****                 #if(EMITE_TXCLKGEN_DP)
1501:.\Generated_Source\PSoC5/EMITE.c ****                     txPeriod = EMITE_TXBITCLKTX_COMPLETE_REG;
1502:.\Generated_Source\PSoC5/EMITE.c ****                     EMITE_TXBITCLKTX_COMPLETE_REG = EMITE_TXBITCTR_BREAKBITS;
1503:.\Generated_Source\PSoC5/EMITE.c ****                 #else
1504:.\Generated_Source\PSoC5/EMITE.c ****                     txPeriod = EMITE_TXBITCTR_PERIOD_REG;
ARM GAS  C:\Users\HENRYA~1\AppData\Local\Temp\ccFFMLvl.s 			page 45


1505:.\Generated_Source\PSoC5/EMITE.c ****                     EMITE_TXBITCTR_PERIOD_REG = EMITE_TXBITCTR_BREAKBITS8X;
1506:.\Generated_Source\PSoC5/EMITE.c ****                 #endif /* End EMITE_TXCLKGEN_DP */
1507:.\Generated_Source\PSoC5/EMITE.c **** 
1508:.\Generated_Source\PSoC5/EMITE.c ****                 /* Send zeros */
1509:.\Generated_Source\PSoC5/EMITE.c ****                 EMITE_TXDATA_REG = 0u;
1510:.\Generated_Source\PSoC5/EMITE.c **** 
1511:.\Generated_Source\PSoC5/EMITE.c ****                 do /* Wait until transmit starts */
1512:.\Generated_Source\PSoC5/EMITE.c ****                 {
1513:.\Generated_Source\PSoC5/EMITE.c ****                     tmpStat = EMITE_TXSTATUS_REG;
1514:.\Generated_Source\PSoC5/EMITE.c ****                 }
1515:.\Generated_Source\PSoC5/EMITE.c ****                 while((tmpStat & EMITE_TX_STS_FIFO_EMPTY) != 0u);
1516:.\Generated_Source\PSoC5/EMITE.c ****             }
1517:.\Generated_Source\PSoC5/EMITE.c **** 
1518:.\Generated_Source\PSoC5/EMITE.c ****             if( (retMode == EMITE_WAIT_FOR_COMPLETE_REINIT) ||
1519:.\Generated_Source\PSoC5/EMITE.c ****                 (retMode == EMITE_SEND_WAIT_REINIT) )
1520:.\Generated_Source\PSoC5/EMITE.c ****             {
1521:.\Generated_Source\PSoC5/EMITE.c ****                 do /* Wait until transmit complete */
1522:.\Generated_Source\PSoC5/EMITE.c ****                 {
1523:.\Generated_Source\PSoC5/EMITE.c ****                     tmpStat = EMITE_TXSTATUS_REG;
1524:.\Generated_Source\PSoC5/EMITE.c ****                 }
1525:.\Generated_Source\PSoC5/EMITE.c ****                 while(((uint8)~tmpStat & EMITE_TX_STS_COMPLETE) != 0u);
1526:.\Generated_Source\PSoC5/EMITE.c ****             }
1527:.\Generated_Source\PSoC5/EMITE.c **** 
1528:.\Generated_Source\PSoC5/EMITE.c ****             if( (retMode == EMITE_WAIT_FOR_COMPLETE_REINIT) ||
1529:.\Generated_Source\PSoC5/EMITE.c ****                 (retMode == EMITE_REINIT) ||
1530:.\Generated_Source\PSoC5/EMITE.c ****                 (retMode == EMITE_SEND_WAIT_REINIT) )
1531:.\Generated_Source\PSoC5/EMITE.c ****             {
1532:.\Generated_Source\PSoC5/EMITE.c **** 
1533:.\Generated_Source\PSoC5/EMITE.c ****             #if(EMITE_TXCLKGEN_DP)
1534:.\Generated_Source\PSoC5/EMITE.c ****                 EMITE_TXBITCLKTX_COMPLETE_REG = txPeriod;
1535:.\Generated_Source\PSoC5/EMITE.c ****             #else
1536:.\Generated_Source\PSoC5/EMITE.c ****                 EMITE_TXBITCTR_PERIOD_REG = txPeriod;
1537:.\Generated_Source\PSoC5/EMITE.c ****             #endif /* End EMITE_TXCLKGEN_DP */
1538:.\Generated_Source\PSoC5/EMITE.c **** 
1539:.\Generated_Source\PSoC5/EMITE.c ****             #if( (EMITE_PARITY_TYPE != EMITE__B_UART__NONE_REVB) || \
1540:.\Generated_Source\PSoC5/EMITE.c ****                  (EMITE_PARITY_TYPE_SW != 0u) )
1541:.\Generated_Source\PSoC5/EMITE.c ****                 EMITE_WriteControlRegister(EMITE_ReadControlRegister() &
1542:.\Generated_Source\PSoC5/EMITE.c ****                                                       (uint8) ~EMITE_CTRL_HD_SEND_BREAK);
1543:.\Generated_Source\PSoC5/EMITE.c ****             #endif /* End EMITE_PARITY_TYPE != NONE */
1544:.\Generated_Source\PSoC5/EMITE.c ****             }
1545:.\Generated_Source\PSoC5/EMITE.c ****         #endif    /* End EMITE_HD_ENABLED */
1546:.\Generated_Source\PSoC5/EMITE.c ****         }
1547:.\Generated_Source\PSoC5/EMITE.c ****     }
1548:.\Generated_Source\PSoC5/EMITE.c **** 
1549:.\Generated_Source\PSoC5/EMITE.c **** 
1550:.\Generated_Source\PSoC5/EMITE.c ****     /*******************************************************************************
1551:.\Generated_Source\PSoC5/EMITE.c ****     * Function Name: EMITE_SetTxAddressMode
1552:.\Generated_Source\PSoC5/EMITE.c ****     ********************************************************************************
1553:.\Generated_Source\PSoC5/EMITE.c ****     *
1554:.\Generated_Source\PSoC5/EMITE.c ****     * Summary:
1555:.\Generated_Source\PSoC5/EMITE.c ****     *  Configures the transmitter to signal the next bytes is address or data.
1556:.\Generated_Source\PSoC5/EMITE.c ****     *
1557:.\Generated_Source\PSoC5/EMITE.c ****     * Parameters:
1558:.\Generated_Source\PSoC5/EMITE.c ****     *  addressMode: 
1559:.\Generated_Source\PSoC5/EMITE.c ****     *       EMITE_SET_SPACE - Configure the transmitter to send the next
1560:.\Generated_Source\PSoC5/EMITE.c ****     *                                    byte as a data.
1561:.\Generated_Source\PSoC5/EMITE.c ****     *       EMITE_SET_MARK  - Configure the transmitter to send the next
ARM GAS  C:\Users\HENRYA~1\AppData\Local\Temp\ccFFMLvl.s 			page 46


1562:.\Generated_Source\PSoC5/EMITE.c ****     *                                    byte as an address.
1563:.\Generated_Source\PSoC5/EMITE.c ****     *
1564:.\Generated_Source\PSoC5/EMITE.c ****     * Return:
1565:.\Generated_Source\PSoC5/EMITE.c ****     *  None.
1566:.\Generated_Source\PSoC5/EMITE.c ****     *
1567:.\Generated_Source\PSoC5/EMITE.c ****     * Side Effects:
1568:.\Generated_Source\PSoC5/EMITE.c ****     *  This function sets and clears EMITE_CTRL_MARK bit in the Control
1569:.\Generated_Source\PSoC5/EMITE.c ****     *  register.
1570:.\Generated_Source\PSoC5/EMITE.c ****     *
1571:.\Generated_Source\PSoC5/EMITE.c ****     *******************************************************************************/
1572:.\Generated_Source\PSoC5/EMITE.c ****     void EMITE_SetTxAddressMode(uint8 addressMode) 
1573:.\Generated_Source\PSoC5/EMITE.c ****     {
 993              		.loc 1 1573 0
 994              		.cfi_startproc
 995              		@ args = 0, pretend = 0, frame = 0
 996              		@ frame_needed = 0, uses_anonymous_args = 0
 997              	.LVL69:
 998 0000 08B5     		push	{r3, lr}
 999              		.cfi_def_cfa_offset 8
 1000              		.cfi_offset 3, -8
 1001              		.cfi_offset 14, -4
1574:.\Generated_Source\PSoC5/EMITE.c ****         /* Mark/Space sending enable */
1575:.\Generated_Source\PSoC5/EMITE.c ****         if(addressMode != 0u)
 1002              		.loc 1 1575 0
 1003 0002 38B1     		cbz	r0, .L113
1576:.\Generated_Source\PSoC5/EMITE.c ****         {
1577:.\Generated_Source\PSoC5/EMITE.c ****         #if( EMITE_CONTROL_REG_REMOVED == 0u )
1578:.\Generated_Source\PSoC5/EMITE.c ****             EMITE_WriteControlRegister(EMITE_ReadControlRegister() |
 1004              		.loc 1 1578 0
 1005 0004 FFF7FEFF 		bl	EMITE_ReadControlRegister
 1006              	.LVL70:
 1007 0008 40F00400 		orr	r0, r0, #4
 1008 000c C0B2     		uxtb	r0, r0
 1009 000e FFF7FEFF 		bl	EMITE_WriteControlRegister
 1010              	.LVL71:
 1011 0012 08BD     		pop	{r3, pc}
 1012              	.LVL72:
 1013              	.L113:
1579:.\Generated_Source\PSoC5/EMITE.c ****                                                   EMITE_CTRL_MARK);
1580:.\Generated_Source\PSoC5/EMITE.c ****         #endif /* End EMITE_CONTROL_REG_REMOVED == 0u */
1581:.\Generated_Source\PSoC5/EMITE.c ****         }
1582:.\Generated_Source\PSoC5/EMITE.c ****         else
1583:.\Generated_Source\PSoC5/EMITE.c ****         {
1584:.\Generated_Source\PSoC5/EMITE.c ****         #if( EMITE_CONTROL_REG_REMOVED == 0u )
1585:.\Generated_Source\PSoC5/EMITE.c ****             EMITE_WriteControlRegister(EMITE_ReadControlRegister() &
 1014              		.loc 1 1585 0
 1015 0014 FFF7FEFF 		bl	EMITE_ReadControlRegister
 1016              	.LVL73:
 1017 0018 00F0FB00 		and	r0, r0, #251
 1018 001c FFF7FEFF 		bl	EMITE_WriteControlRegister
 1019              	.LVL74:
 1020 0020 08BD     		pop	{r3, pc}
 1021              		.cfi_endproc
 1022              	.LFE26:
 1023              		.size	EMITE_SetTxAddressMode, .-EMITE_SetTxAddressMode
 1024 0022 00BF     		.section	.text.EMITE_LoadRxConfig,"ax",%progbits
 1025              		.align	2
ARM GAS  C:\Users\HENRYA~1\AppData\Local\Temp\ccFFMLvl.s 			page 47


 1026              		.global	EMITE_LoadRxConfig
 1027              		.thumb
 1028              		.thumb_func
 1029              		.type	EMITE_LoadRxConfig, %function
 1030              	EMITE_LoadRxConfig:
 1031              	.LFB27:
1586:.\Generated_Source\PSoC5/EMITE.c ****                                                   (uint8) ~EMITE_CTRL_MARK);
1587:.\Generated_Source\PSoC5/EMITE.c ****         #endif /* End EMITE_CONTROL_REG_REMOVED == 0u */
1588:.\Generated_Source\PSoC5/EMITE.c ****         }
1589:.\Generated_Source\PSoC5/EMITE.c ****     }
1590:.\Generated_Source\PSoC5/EMITE.c **** 
1591:.\Generated_Source\PSoC5/EMITE.c **** #endif  /* EndEMITE_TX_ENABLED */
1592:.\Generated_Source\PSoC5/EMITE.c **** 
1593:.\Generated_Source\PSoC5/EMITE.c **** #if(EMITE_HD_ENABLED)
1594:.\Generated_Source\PSoC5/EMITE.c **** 
1595:.\Generated_Source\PSoC5/EMITE.c **** 
1596:.\Generated_Source\PSoC5/EMITE.c ****     /*******************************************************************************
1597:.\Generated_Source\PSoC5/EMITE.c ****     * Function Name: EMITE_LoadRxConfig
1598:.\Generated_Source\PSoC5/EMITE.c ****     ********************************************************************************
1599:.\Generated_Source\PSoC5/EMITE.c ****     *
1600:.\Generated_Source\PSoC5/EMITE.c ****     * Summary:
1601:.\Generated_Source\PSoC5/EMITE.c ****     *  Loads the receiver configuration in half duplex mode. After calling this
1602:.\Generated_Source\PSoC5/EMITE.c ****     *  function, the UART is ready to receive data.
1603:.\Generated_Source\PSoC5/EMITE.c ****     *
1604:.\Generated_Source\PSoC5/EMITE.c ****     * Parameters:
1605:.\Generated_Source\PSoC5/EMITE.c ****     *  None.
1606:.\Generated_Source\PSoC5/EMITE.c ****     *
1607:.\Generated_Source\PSoC5/EMITE.c ****     * Return:
1608:.\Generated_Source\PSoC5/EMITE.c ****     *  None.
1609:.\Generated_Source\PSoC5/EMITE.c ****     *
1610:.\Generated_Source\PSoC5/EMITE.c ****     * Side Effects:
1611:.\Generated_Source\PSoC5/EMITE.c ****     *  Valid only in half duplex mode. You must make sure that the previous
1612:.\Generated_Source\PSoC5/EMITE.c ****     *  transaction is complete and it is safe to unload the transmitter
1613:.\Generated_Source\PSoC5/EMITE.c ****     *  configuration.
1614:.\Generated_Source\PSoC5/EMITE.c ****     *
1615:.\Generated_Source\PSoC5/EMITE.c ****     *******************************************************************************/
1616:.\Generated_Source\PSoC5/EMITE.c ****     void EMITE_LoadRxConfig(void) 
1617:.\Generated_Source\PSoC5/EMITE.c ****     {
 1032              		.loc 1 1617 0
 1033              		.cfi_startproc
 1034              		@ args = 0, pretend = 0, frame = 0
 1035              		@ frame_needed = 0, uses_anonymous_args = 0
 1036 0000 08B5     		push	{r3, lr}
 1037              		.cfi_def_cfa_offset 8
 1038              		.cfi_offset 3, -8
 1039              		.cfi_offset 14, -4
1618:.\Generated_Source\PSoC5/EMITE.c ****         EMITE_WriteControlRegister(EMITE_ReadControlRegister() &
 1040              		.loc 1 1618 0
 1041 0002 FFF7FEFF 		bl	EMITE_ReadControlRegister
 1042              	.LVL75:
 1043 0006 00F0FE00 		and	r0, r0, #254
 1044 000a FFF7FEFF 		bl	EMITE_WriteControlRegister
 1045              	.LVL76:
1619:.\Generated_Source\PSoC5/EMITE.c ****                                                 (uint8)~EMITE_CTRL_HD_SEND);
1620:.\Generated_Source\PSoC5/EMITE.c ****         EMITE_RXBITCTR_PERIOD_REG = EMITE_HD_RXBITCTR_INIT;
 1046              		.loc 1 1620 0
 1047 000e 7222     		movs	r2, #114
ARM GAS  C:\Users\HENRYA~1\AppData\Local\Temp\ccFFMLvl.s 			page 48


 1048 0010 014B     		ldr	r3, .L118
 1049 0012 1A70     		strb	r2, [r3]
 1050 0014 08BD     		pop	{r3, pc}
 1051              	.L119:
 1052 0016 00BF     		.align	2
 1053              	.L118:
 1054 0018 87640040 		.word	1073767559
 1055              		.cfi_endproc
 1056              	.LFE27:
 1057              		.size	EMITE_LoadRxConfig, .-EMITE_LoadRxConfig
 1058              		.section	.text.EMITE_LoadTxConfig,"ax",%progbits
 1059              		.align	2
 1060              		.global	EMITE_LoadTxConfig
 1061              		.thumb
 1062              		.thumb_func
 1063              		.type	EMITE_LoadTxConfig, %function
 1064              	EMITE_LoadTxConfig:
 1065              	.LFB28:
1621:.\Generated_Source\PSoC5/EMITE.c **** 
1622:.\Generated_Source\PSoC5/EMITE.c ****     #if (EMITE_RX_INTERRUPT_ENABLED)
1623:.\Generated_Source\PSoC5/EMITE.c ****         /* Enable RX interrupt after set RX configuration */
1624:.\Generated_Source\PSoC5/EMITE.c ****         EMITE_SetRxInterruptMode(EMITE_INIT_RX_INTERRUPTS_MASK);
1625:.\Generated_Source\PSoC5/EMITE.c ****     #endif /* (EMITE_RX_INTERRUPT_ENABLED) */
1626:.\Generated_Source\PSoC5/EMITE.c ****     }
1627:.\Generated_Source\PSoC5/EMITE.c **** 
1628:.\Generated_Source\PSoC5/EMITE.c **** 
1629:.\Generated_Source\PSoC5/EMITE.c ****     /*******************************************************************************
1630:.\Generated_Source\PSoC5/EMITE.c ****     * Function Name: EMITE_LoadTxConfig
1631:.\Generated_Source\PSoC5/EMITE.c ****     ********************************************************************************
1632:.\Generated_Source\PSoC5/EMITE.c ****     *
1633:.\Generated_Source\PSoC5/EMITE.c ****     * Summary:
1634:.\Generated_Source\PSoC5/EMITE.c ****     *  Loads the transmitter configuration in half duplex mode. After calling this
1635:.\Generated_Source\PSoC5/EMITE.c ****     *  function, the UART is ready to transmit data.
1636:.\Generated_Source\PSoC5/EMITE.c ****     *
1637:.\Generated_Source\PSoC5/EMITE.c ****     * Parameters:
1638:.\Generated_Source\PSoC5/EMITE.c ****     *  None.
1639:.\Generated_Source\PSoC5/EMITE.c ****     *
1640:.\Generated_Source\PSoC5/EMITE.c ****     * Return:
1641:.\Generated_Source\PSoC5/EMITE.c ****     *  None.
1642:.\Generated_Source\PSoC5/EMITE.c ****     *
1643:.\Generated_Source\PSoC5/EMITE.c ****     * Side Effects:
1644:.\Generated_Source\PSoC5/EMITE.c ****     *  Valid only in half duplex mode. You must make sure that the previous
1645:.\Generated_Source\PSoC5/EMITE.c ****     *  transaction is complete and it is safe to unload the receiver configuration.
1646:.\Generated_Source\PSoC5/EMITE.c ****     *
1647:.\Generated_Source\PSoC5/EMITE.c ****     *******************************************************************************/
1648:.\Generated_Source\PSoC5/EMITE.c ****     void EMITE_LoadTxConfig(void) 
1649:.\Generated_Source\PSoC5/EMITE.c ****     {
 1066              		.loc 1 1649 0
 1067              		.cfi_startproc
 1068              		@ args = 0, pretend = 0, frame = 0
 1069              		@ frame_needed = 0, uses_anonymous_args = 0
 1070 0000 08B5     		push	{r3, lr}
 1071              		.cfi_def_cfa_offset 8
 1072              		.cfi_offset 3, -8
 1073              		.cfi_offset 14, -4
1650:.\Generated_Source\PSoC5/EMITE.c ****     #if (EMITE_RX_INTERRUPT_ENABLED)
1651:.\Generated_Source\PSoC5/EMITE.c ****         /* Disable RX interrupts before set TX configuration */
ARM GAS  C:\Users\HENRYA~1\AppData\Local\Temp\ccFFMLvl.s 			page 49


1652:.\Generated_Source\PSoC5/EMITE.c ****         EMITE_SetRxInterruptMode(0u);
1653:.\Generated_Source\PSoC5/EMITE.c ****     #endif /* (EMITE_RX_INTERRUPT_ENABLED) */
1654:.\Generated_Source\PSoC5/EMITE.c **** 
1655:.\Generated_Source\PSoC5/EMITE.c ****         EMITE_WriteControlRegister(EMITE_ReadControlRegister() | EMITE_CTRL_HD_SEND);
 1074              		.loc 1 1655 0
 1075 0002 FFF7FEFF 		bl	EMITE_ReadControlRegister
 1076              	.LVL77:
 1077 0006 40F00100 		orr	r0, r0, #1
 1078 000a C0B2     		uxtb	r0, r0
 1079 000c FFF7FEFF 		bl	EMITE_WriteControlRegister
 1080              	.LVL78:
1656:.\Generated_Source\PSoC5/EMITE.c ****         EMITE_RXBITCTR_PERIOD_REG = EMITE_HD_TXBITCTR_INIT;
 1081              		.loc 1 1656 0
 1082 0010 6F22     		movs	r2, #111
 1083 0012 014B     		ldr	r3, .L122
 1084 0014 1A70     		strb	r2, [r3]
 1085 0016 08BD     		pop	{r3, pc}
 1086              	.L123:
 1087              		.align	2
 1088              	.L122:
 1089 0018 87640040 		.word	1073767559
 1090              		.cfi_endproc
 1091              	.LFE28:
 1092              		.size	EMITE_LoadTxConfig, .-EMITE_LoadTxConfig
 1093              		.global	EMITE_initVar
 1094              		.bss
 1095              		.set	.LANCHOR0,. + 0
 1096              		.type	EMITE_initVar, %object
 1097              		.size	EMITE_initVar, 1
 1098              	EMITE_initVar:
 1099 0000 00       		.space	1
 1100              		.text
 1101              	.Letext0:
 1102              		.file 2 ".\\Generated_Source\\PSoC5\\cytypes.h"
 1103              		.file 3 ".\\Generated_Source\\PSoC5\\EMITE_IntClock.h"
 1104              		.file 4 ".\\Generated_Source\\PSoC5\\CyLib.h"