ARM GAS  C:\Users\HENRYA~1\AppData\Local\Temp\cc3TD2Ln.s 			page 1


   1              		.cpu cortex-m0
   2              		.fpu softvfp
   3              		.eabi_attribute 20, 1
   4              		.eabi_attribute 21, 1
   5              		.eabi_attribute 23, 3
   6              		.eabi_attribute 24, 1
   7              		.eabi_attribute 25, 1
   8              		.eabi_attribute 26, 1
   9              		.eabi_attribute 30, 1
  10              		.eabi_attribute 34, 0
  11              		.eabi_attribute 18, 4
  12              		.code	16
  13              		.file	"CAN_TX_RX_func.c"
  14              		.text
  15              	.Ltext0:
  16              		.cfi_sections	.debug_frame
  17              		.section	.text.CAN_SendMsg,"ax",%progbits
  18              		.align	2
  19              		.global	CAN_SendMsg
  20              		.code	16
  21              		.thumb_func
  22              		.type	CAN_SendMsg, %function
  23              	CAN_SendMsg:
  24              	.LFB1:
  25              		.file 1 "Generated_Source\\PSoC4\\CAN_TX_RX_func.c"
   1:Generated_Source\PSoC4/CAN_TX_RX_func.c **** /*******************************************************************************
   2:Generated_Source\PSoC4/CAN_TX_RX_func.c **** * File Name: CAN_TX_RX_func.c
   3:Generated_Source\PSoC4/CAN_TX_RX_func.c **** * Version 3.0
   4:Generated_Source\PSoC4/CAN_TX_RX_func.c **** *
   5:Generated_Source\PSoC4/CAN_TX_RX_func.c **** * Description:
   6:Generated_Source\PSoC4/CAN_TX_RX_func.c **** *  There are functions process "Full" Receive and Transmit mailboxes:
   7:Generated_Source\PSoC4/CAN_TX_RX_func.c **** *     - CAN_SendMsg0-7();
   8:Generated_Source\PSoC4/CAN_TX_RX_func.c **** *     - CAN_ReceiveMsg0-15();
   9:Generated_Source\PSoC4/CAN_TX_RX_func.c **** *  Transmission of message, and receive routine for "Basic" mailboxes:
  10:Generated_Source\PSoC4/CAN_TX_RX_func.c **** *     - CAN_SendMsg();
  11:Generated_Source\PSoC4/CAN_TX_RX_func.c **** *     - CAN_TxCancel();
  12:Generated_Source\PSoC4/CAN_TX_RX_func.c **** *     - CAN_ReceiveMsg();
  13:Generated_Source\PSoC4/CAN_TX_RX_func.c **** *
  14:Generated_Source\PSoC4/CAN_TX_RX_func.c **** *  Note:
  15:Generated_Source\PSoC4/CAN_TX_RX_func.c **** *   None
  16:Generated_Source\PSoC4/CAN_TX_RX_func.c **** *
  17:Generated_Source\PSoC4/CAN_TX_RX_func.c **** ********************************************************************************
  18:Generated_Source\PSoC4/CAN_TX_RX_func.c **** * Copyright 2008-2015, Cypress Semiconductor Corporation.  All rights reserved.
  19:Generated_Source\PSoC4/CAN_TX_RX_func.c **** * You may use this file only in accordance with the license, terms, conditions,
  20:Generated_Source\PSoC4/CAN_TX_RX_func.c **** * disclaimers, and limitations in the end user license agreement accompanying
  21:Generated_Source\PSoC4/CAN_TX_RX_func.c **** * the software package with which this file was provided.
  22:Generated_Source\PSoC4/CAN_TX_RX_func.c **** *******************************************************************************/
  23:Generated_Source\PSoC4/CAN_TX_RX_func.c **** 
  24:Generated_Source\PSoC4/CAN_TX_RX_func.c **** #include "CAN.h"
  25:Generated_Source\PSoC4/CAN_TX_RX_func.c **** #include "cyapicallbacks.h"
  26:Generated_Source\PSoC4/CAN_TX_RX_func.c **** 
  27:Generated_Source\PSoC4/CAN_TX_RX_func.c **** /* `#START TX_RX_FUNCTION` */
  28:Generated_Source\PSoC4/CAN_TX_RX_func.c **** extern uint8 dato_enviado;
  29:Generated_Source\PSoC4/CAN_TX_RX_func.c **** extern uint8 dato_recibido;
  30:Generated_Source\PSoC4/CAN_TX_RX_func.c **** /* `#END` */
  31:Generated_Source\PSoC4/CAN_TX_RX_func.c **** 
  32:Generated_Source\PSoC4/CAN_TX_RX_func.c **** 
ARM GAS  C:\Users\HENRYA~1\AppData\Local\Temp\cc3TD2Ln.s 			page 2


  33:Generated_Source\PSoC4/CAN_TX_RX_func.c **** /*******************************************************************************
  34:Generated_Source\PSoC4/CAN_TX_RX_func.c **** * FUNCTION NAME:   CAN_SendMsg
  35:Generated_Source\PSoC4/CAN_TX_RX_func.c **** ********************************************************************************
  36:Generated_Source\PSoC4/CAN_TX_RX_func.c **** *
  37:Generated_Source\PSoC4/CAN_TX_RX_func.c **** * Summary:
  38:Generated_Source\PSoC4/CAN_TX_RX_func.c **** *  This function is Send Message from one of Basic mailboxes. The function loops
  39:Generated_Source\PSoC4/CAN_TX_RX_func.c **** *  through the transmit message buffer designed as Basic CAN mailboxes for the
  40:Generated_Source\PSoC4/CAN_TX_RX_func.c **** *  first free available and sends from it. The number of retries is limited.
  41:Generated_Source\PSoC4/CAN_TX_RX_func.c **** *
  42:Generated_Source\PSoC4/CAN_TX_RX_func.c **** * Parameters:
  43:Generated_Source\PSoC4/CAN_TX_RX_func.c **** *  message: The pointer to a structure that contains all required data to send
  44:Generated_Source\PSoC4/CAN_TX_RX_func.c **** *           messages.
  45:Generated_Source\PSoC4/CAN_TX_RX_func.c **** *
  46:Generated_Source\PSoC4/CAN_TX_RX_func.c **** * Return:
  47:Generated_Source\PSoC4/CAN_TX_RX_func.c **** *  Indication if message has been sent.
  48:Generated_Source\PSoC4/CAN_TX_RX_func.c **** *   Define                             Description
  49:Generated_Source\PSoC4/CAN_TX_RX_func.c **** *    CYRET_SUCCESS                      The function passed successfully
  50:Generated_Source\PSoC4/CAN_TX_RX_func.c **** *    CAN_FAIL              The function failed
  51:Generated_Source\PSoC4/CAN_TX_RX_func.c **** *
  52:Generated_Source\PSoC4/CAN_TX_RX_func.c **** *******************************************************************************/
  53:Generated_Source\PSoC4/CAN_TX_RX_func.c **** uint8 CAN_SendMsg(const CAN_TX_MSG *message) 
  54:Generated_Source\PSoC4/CAN_TX_RX_func.c **** {
  26              		.loc 1 54 0
  27              		.cfi_startproc
  28              	.LVL0:
  29 0000 F8B5     		push	{r3, r4, r5, r6, r7, lr}
  30              		.cfi_def_cfa_offset 24
  31              		.cfi_offset 3, -24
  32              		.cfi_offset 4, -20
  33              		.cfi_offset 5, -16
  34              		.cfi_offset 6, -12
  35              		.cfi_offset 7, -8
  36              		.cfi_offset 14, -4
  37 0002 4F46     		mov	r7, r9
  38 0004 4646     		mov	r6, r8
  39 0006 C0B4     		push	{r6, r7}
  40              		.cfi_def_cfa_offset 32
  41              		.cfi_offset 8, -32
  42              		.cfi_offset 9, -28
  43 0008 061C     		mov	r6, r0
  44              	.LVL1:
  55:Generated_Source\PSoC4/CAN_TX_RX_func.c ****     uint8 i, j, shift;
  56:Generated_Source\PSoC4/CAN_TX_RX_func.c ****     uint8 retry = 0u;
  57:Generated_Source\PSoC4/CAN_TX_RX_func.c ****     uint8 result = CAN_FAIL;
  45              		.loc 1 57 0
  46 000a 0120     		mov	r0, #1
  47              	.LVL2:
  56:Generated_Source\PSoC4/CAN_TX_RX_func.c ****     uint8 result = CAN_FAIL;
  48              		.loc 1 56 0
  49 000c 0023     		mov	r3, #0
  50 000e 9846     		mov	r8, r3
  58:Generated_Source\PSoC4/CAN_TX_RX_func.c ****     uint32 regTemp;
  59:Generated_Source\PSoC4/CAN_TX_RX_func.c **** 
  60:Generated_Source\PSoC4/CAN_TX_RX_func.c ****     while (retry < CAN_RETRY_NUMBER)
  51              		.loc 1 60 0
  52 0010 93E0     		b	.L2
  53              	.LVL3:
ARM GAS  C:\Users\HENRYA~1\AppData\Local\Temp\cc3TD2Ln.s 			page 3


  54              	.L18:
  61:Generated_Source\PSoC4/CAN_TX_RX_func.c ****     {
  62:Generated_Source\PSoC4/CAN_TX_RX_func.c ****         shift = 1u;    /* Start from first mailbox */
  63:Generated_Source\PSoC4/CAN_TX_RX_func.c ****         for (i = 0u; i < CAN_NUMBER_OF_TX_MAILBOXES; i++)
  64:Generated_Source\PSoC4/CAN_TX_RX_func.c ****         {
  65:Generated_Source\PSoC4/CAN_TX_RX_func.c ****             /* Find Basic TX mailboxes */
  66:Generated_Source\PSoC4/CAN_TX_RX_func.c ****             if ((CAN_TX_MAILBOX_TYPE & shift) == 0u)
  55              		.loc 1 66 0
  56 0012 EB07     		lsl	r3, r5, #31
  57 0014 7FD4     		bmi	.L3
  67:Generated_Source\PSoC4/CAN_TX_RX_func.c ****             {
  68:Generated_Source\PSoC4/CAN_TX_RX_func.c ****                 /* Find free mailbox */
  69:Generated_Source\PSoC4/CAN_TX_RX_func.c ****                 #if (CY_PSOC3 || CY_PSOC5)
  70:Generated_Source\PSoC4/CAN_TX_RX_func.c ****                     if ((CAN_BUF_SR_REG.byte[2] & shift) == 0u)
  71:Generated_Source\PSoC4/CAN_TX_RX_func.c ****                 #else  /* CY_PSOC4 */
  72:Generated_Source\PSoC4/CAN_TX_RX_func.c ****                     if ((CAN_BUF_SR_REG &
  58              		.loc 1 72 0
  59 0016 4C4B     		ldr	r3, .L23
  60 0018 1B68     		ldr	r3, [r3]
  73:Generated_Source\PSoC4/CAN_TX_RX_func.c ****                         (uint32) ((uint32) shift << CAN_TWO_BYTE_OFFSET)) == 0u)
  61              		.loc 1 73 0
  62 001a 2A04     		lsl	r2, r5, #16
  72:Generated_Source\PSoC4/CAN_TX_RX_func.c ****                         (uint32) ((uint32) shift << CAN_TWO_BYTE_OFFSET)) == 0u)
  63              		.loc 1 72 0
  64 001c 1A42     		tst	r2, r3
  65 001e 7AD1     		bne	.L3
  66              	.LVL4:
  74:Generated_Source\PSoC4/CAN_TX_RX_func.c ****                 #endif /* CY_PSOC3 || CY_PSOC5 */
  75:Generated_Source\PSoC4/CAN_TX_RX_func.c ****                     {
  76:Generated_Source\PSoC4/CAN_TX_RX_func.c ****                         regTemp = 0u;
  77:Generated_Source\PSoC4/CAN_TX_RX_func.c **** 
  78:Generated_Source\PSoC4/CAN_TX_RX_func.c ****                         /* Set message parameters */
  79:Generated_Source\PSoC4/CAN_TX_RX_func.c ****                         if (message->rtr != CAN_STANDARD_MESSAGE)
  67              		.loc 1 79 0
  68 0020 3379     		ldrb	r3, [r6, #4]
  69 0022 002B     		cmp	r3, #0
  70 0024 01D1     		bne	.L21
  76:Generated_Source\PSoC4/CAN_TX_RX_func.c **** 
  71              		.loc 1 76 0
  72 0026 0027     		mov	r7, #0
  73 0028 01E0     		b	.L4
  74              	.L21:
  80:Generated_Source\PSoC4/CAN_TX_RX_func.c ****                         {
  81:Generated_Source\PSoC4/CAN_TX_RX_func.c ****                             regTemp = CAN_TX_RTR_MASK;    /* RTR message Enable */
  75              		.loc 1 81 0
  76 002a 8027     		mov	r7, #128
  77 002c BF03     		lsl	r7, r7, #14
  78              	.L4:
  79              	.LVL5:
  82:Generated_Source\PSoC4/CAN_TX_RX_func.c ****                         }
  83:Generated_Source\PSoC4/CAN_TX_RX_func.c **** 
  84:Generated_Source\PSoC4/CAN_TX_RX_func.c ****                         if (message->ide == CAN_STANDARD_MESSAGE)
  80              		.loc 1 84 0
  81 002e 7379     		ldrb	r3, [r6, #5]
  82 0030 002B     		cmp	r3, #0
  83 0032 07D1     		bne	.L5
  85:Generated_Source\PSoC4/CAN_TX_RX_func.c ****                         {
ARM GAS  C:\Users\HENRYA~1\AppData\Local\Temp\cc3TD2Ln.s 			page 4


  86:Generated_Source\PSoC4/CAN_TX_RX_func.c ****                             CAN_SET_TX_ID_STANDARD_MSG(i, message->id);
  84              		.loc 1 86 0
  85 0034 2301     		lsl	r3, r4, #4
  86 0036 454A     		ldr	r2, .L23+4
  87 0038 9446     		mov	ip, r2
  88 003a 6344     		add	r3, r3, ip
  89 003c 3268     		ldr	r2, [r6]
  90 003e 5205     		lsl	r2, r2, #21
  91 0040 5A60     		str	r2, [r3, #4]
  92 0042 09E0     		b	.L6
  93              	.L5:
  87:Generated_Source\PSoC4/CAN_TX_RX_func.c ****                         }
  88:Generated_Source\PSoC4/CAN_TX_RX_func.c ****                         else
  89:Generated_Source\PSoC4/CAN_TX_RX_func.c ****                         {
  90:Generated_Source\PSoC4/CAN_TX_RX_func.c ****                             regTemp |= CAN_TX_IDE_MASK;
  94              		.loc 1 90 0
  95 0044 8023     		mov	r3, #128
  96 0046 5B03     		lsl	r3, r3, #13
  97 0048 1F43     		orr	r7, r3
  98              	.LVL6:
  91:Generated_Source\PSoC4/CAN_TX_RX_func.c ****                             CAN_SET_TX_ID_EXTENDED_MSG(i, message->id);
  99              		.loc 1 91 0
 100 004a 2301     		lsl	r3, r4, #4
 101 004c 3F4A     		ldr	r2, .L23+4
 102 004e 9446     		mov	ip, r2
 103 0050 6344     		add	r3, r3, ip
 104 0052 3268     		ldr	r2, [r6]
 105 0054 D200     		lsl	r2, r2, #3
 106 0056 5A60     		str	r2, [r3, #4]
 107              	.L6:
  92:Generated_Source\PSoC4/CAN_TX_RX_func.c ****                         }
  93:Generated_Source\PSoC4/CAN_TX_RX_func.c **** 
  94:Generated_Source\PSoC4/CAN_TX_RX_func.c ****                         if (message->dlc < CAN_TX_DLC_MAX_VALUE)
 108              		.loc 1 94 0
 109 0058 B379     		ldrb	r3, [r6, #6]
 110 005a 072B     		cmp	r3, #7
 111 005c 03D8     		bhi	.L7
  95:Generated_Source\PSoC4/CAN_TX_RX_func.c ****                         {
  96:Generated_Source\PSoC4/CAN_TX_RX_func.c ****                             regTemp |= ((uint32) message->dlc) << CAN_TWO_BYTE_OFFSET;
 112              		.loc 1 96 0
 113 005e 1B04     		lsl	r3, r3, #16
 114 0060 1F43     		orr	r7, r3
 115              	.LVL7:
 116 0062 B946     		mov	r9, r7
 117              	.LVL8:
 118 0064 03E0     		b	.L8
 119              	.L7:
  97:Generated_Source\PSoC4/CAN_TX_RX_func.c ****                         }
  98:Generated_Source\PSoC4/CAN_TX_RX_func.c ****                         else
  99:Generated_Source\PSoC4/CAN_TX_RX_func.c ****                         {
 100:Generated_Source\PSoC4/CAN_TX_RX_func.c ****                             regTemp |= CAN_TX_DLC_UPPER_VALUE;
 120              		.loc 1 100 0
 121 0066 8023     		mov	r3, #128
 122 0068 1B03     		lsl	r3, r3, #12
 123 006a 1F43     		orr	r7, r3
 124              	.LVL9:
 125 006c B946     		mov	r9, r7
ARM GAS  C:\Users\HENRYA~1\AppData\Local\Temp\cc3TD2Ln.s 			page 5


 126              	.LVL10:
 127              	.L8:
 101:Generated_Source\PSoC4/CAN_TX_RX_func.c ****                         }
 102:Generated_Source\PSoC4/CAN_TX_RX_func.c **** 
 103:Generated_Source\PSoC4/CAN_TX_RX_func.c ****                         if (message->irq != CAN_TRANSMIT_INT_DISABLE)
 128              		.loc 1 103 0
 129 006e F379     		ldrb	r3, [r6, #7]
 130 0070 002B     		cmp	r3, #0
 131 0072 03D0     		beq	.L9
 104:Generated_Source\PSoC4/CAN_TX_RX_func.c ****                         {
 105:Generated_Source\PSoC4/CAN_TX_RX_func.c ****                             regTemp |= CAN_TX_INT_ENABLE_MASK;    /* Transmit Interrupt Enable */
 132              		.loc 1 105 0
 133 0074 0423     		mov	r3, #4
 134 0076 4A46     		mov	r2, r9
 135 0078 1A43     		orr	r2, r3
 136 007a 9146     		mov	r9, r2
 137              	.LVL11:
 138              	.L9:
 106:Generated_Source\PSoC4/CAN_TX_RX_func.c ****                         }
 107:Generated_Source\PSoC4/CAN_TX_RX_func.c **** 
 108:Generated_Source\PSoC4/CAN_TX_RX_func.c ****                         for (j = 0u; (j < message->dlc) && (j < CAN_TX_DLC_MAX_VALUE); j++)
 139              		.loc 1 108 0
 140 007c 0023     		mov	r3, #0
 141 007e 2AE0     		b	.L10
 142              	.LVL12:
 143              	.L14:
 109:Generated_Source\PSoC4/CAN_TX_RX_func.c ****                         {
 110:Generated_Source\PSoC4/CAN_TX_RX_func.c ****                             #if (CY_PSOC3 || CY_PSOC5)
 111:Generated_Source\PSoC4/CAN_TX_RX_func.c ****                                 CAN_TX_DATA_BYTE(i, j) = message->msg->byte[j];
 112:Generated_Source\PSoC4/CAN_TX_RX_func.c ****                             #else /* CY_PSOC4 */
 113:Generated_Source\PSoC4/CAN_TX_RX_func.c ****                                 CAN_TX_DATA_BYTE(i, j, message->msg->byte[j]);
 144              		.loc 1 113 0
 145 0080 032B     		cmp	r3, #3
 146 0082 13D9     		bls	.L11
 147              		.loc 1 113 0 is_stmt 0 discriminator 1
 148 0084 2001     		lsl	r0, r4, #4
 149 0086 324A     		ldr	r2, .L23+8
 150 0088 9446     		mov	ip, r2
 151 008a 6044     		add	r0, r0, ip
 152 008c 0168     		ldr	r1, [r0]
 153 008e DA00     		lsl	r2, r3, #3
 154 0090 5242     		neg	r2, r2
 155 0092 3832     		add	r2, r2, #56
 156 0094 FF27     		mov	r7, #255
 157 0096 9740     		lsl	r7, r7, r2
 158 0098 B943     		bic	r1, r7
 159 009a 8C46     		mov	ip, r1
 160 009c F168     		ldr	r1, [r6, #12]
 161 009e C95C     		ldrb	r1, [r1, r3]
 162 00a0 9140     		lsl	r1, r1, r2
 163 00a2 0A1C     		mov	r2, r1
 164 00a4 6146     		mov	r1, ip
 165 00a6 0A43     		orr	r2, r1
 166 00a8 0260     		str	r2, [r0]
 167 00aa 12E0     		b	.L12
 168              	.L11:
 169              		.loc 1 113 0 discriminator 2
ARM GAS  C:\Users\HENRYA~1\AppData\Local\Temp\cc3TD2Ln.s 			page 6


 170 00ac 2001     		lsl	r0, r4, #4
 171 00ae 274A     		ldr	r2, .L23+4
 172 00b0 9446     		mov	ip, r2
 173 00b2 6044     		add	r0, r0, ip
 174 00b4 8168     		ldr	r1, [r0, #8]
 175 00b6 DA00     		lsl	r2, r3, #3
 176 00b8 5242     		neg	r2, r2
 177 00ba 1832     		add	r2, r2, #24
 178 00bc FF27     		mov	r7, #255
 179 00be 9740     		lsl	r7, r7, r2
 180 00c0 B943     		bic	r1, r7
 181 00c2 8C46     		mov	ip, r1
 182 00c4 F168     		ldr	r1, [r6, #12]
 183 00c6 C95C     		ldrb	r1, [r1, r3]
 184 00c8 9140     		lsl	r1, r1, r2
 185 00ca 0A1C     		mov	r2, r1
 186 00cc 6146     		mov	r1, ip
 187 00ce 0A43     		orr	r2, r1
 188 00d0 8260     		str	r2, [r0, #8]
 189              	.L12:
 108:Generated_Source\PSoC4/CAN_TX_RX_func.c ****                         {
 190              		.loc 1 108 0 is_stmt 1 discriminator 2
 191 00d2 0133     		add	r3, r3, #1
 192              	.LVL13:
 193 00d4 DBB2     		uxtb	r3, r3
 194              	.LVL14:
 195              	.L10:
 108:Generated_Source\PSoC4/CAN_TX_RX_func.c ****                         {
 196              		.loc 1 108 0 is_stmt 0 discriminator 1
 197 00d6 B279     		ldrb	r2, [r6, #6]
 198 00d8 9A42     		cmp	r2, r3
 199 00da 01D9     		bls	.L13
 108:Generated_Source\PSoC4/CAN_TX_RX_func.c ****                         {
 200              		.loc 1 108 0 discriminator 3
 201 00dc 072B     		cmp	r3, #7
 202 00de CFD9     		bls	.L14
 203              	.L13:
 114:Generated_Source\PSoC4/CAN_TX_RX_func.c ****                             #endif /* CY_PSOC3 || CY_PSOC5 */
 115:Generated_Source\PSoC4/CAN_TX_RX_func.c ****                         }
 116:Generated_Source\PSoC4/CAN_TX_RX_func.c **** 
 117:Generated_Source\PSoC4/CAN_TX_RX_func.c ****                         /* Disable isr */
 118:Generated_Source\PSoC4/CAN_TX_RX_func.c ****     CyIntDisable(CAN_ISR_NUMBER);
 204              		.loc 1 118 0 is_stmt 1
 205 00e0 1B20     		mov	r0, #27
 206 00e2 FFF7FEFF 		bl	CyIntDisable
 207              	.LVL15:
 119:Generated_Source\PSoC4/CAN_TX_RX_func.c **** 
 120:Generated_Source\PSoC4/CAN_TX_RX_func.c ****                         /* WPN[23] and WPN[3] set to 1 for write to CAN Control reg */
 121:Generated_Source\PSoC4/CAN_TX_RX_func.c ****                         CY_SET_REG32(CAN_TX_CMD_PTR(i), (regTemp | CAN_TX_WPN_SET));
 208              		.loc 1 121 0
 209 00e6 2301     		lsl	r3, r4, #4
 210 00e8 184A     		ldr	r2, .L23+4
 211 00ea 9446     		mov	ip, r2
 212 00ec 6344     		add	r3, r3, ip
 213 00ee 194A     		ldr	r2, .L23+12
 214 00f0 4F46     		mov	r7, r9
 215 00f2 1743     		orr	r7, r2
ARM GAS  C:\Users\HENRYA~1\AppData\Local\Temp\cc3TD2Ln.s 			page 7


 216 00f4 1F60     		str	r7, [r3]
 122:Generated_Source\PSoC4/CAN_TX_RX_func.c **** 
 123:Generated_Source\PSoC4/CAN_TX_RX_func.c ****                         #if (CY_PSOC3 || CY_PSOC5)
 124:Generated_Source\PSoC4/CAN_TX_RX_func.c ****                             CY_SET_REG32(CAN_TX_CMD_PTR(i), CAN_SEND_MESSAGE);
 125:Generated_Source\PSoC4/CAN_TX_RX_func.c ****                         #else /* CY_PSOC4 */
 126:Generated_Source\PSoC4/CAN_TX_RX_func.c ****                             if (message->sst != CAN_STANDARD_MESSAGE)
 217              		.loc 1 126 0
 218 00f6 327A     		ldrb	r2, [r6, #8]
 219 00f8 002A     		cmp	r2, #0
 220 00fa 04D0     		beq	.L15
 127:Generated_Source\PSoC4/CAN_TX_RX_func.c ****                             {
 128:Generated_Source\PSoC4/CAN_TX_RX_func.c ****                                 /* Single Shot Transmission */
 129:Generated_Source\PSoC4/CAN_TX_RX_func.c ****                                 CAN_TX_CMD_REG(i) |= CAN_SEND_MESSAGE |
 221              		.loc 1 129 0
 222 00fc 1968     		ldr	r1, [r3]
 223 00fe 0322     		mov	r2, #3
 224 0100 0A43     		orr	r2, r1
 225 0102 1A60     		str	r2, [r3]
 226 0104 03E0     		b	.L16
 227              	.L15:
 130:Generated_Source\PSoC4/CAN_TX_RX_func.c ****                                 CAN_TX_ABORT_MASK;
 131:Generated_Source\PSoC4/CAN_TX_RX_func.c ****                             }
 132:Generated_Source\PSoC4/CAN_TX_RX_func.c ****                             else
 133:Generated_Source\PSoC4/CAN_TX_RX_func.c ****                             {
 134:Generated_Source\PSoC4/CAN_TX_RX_func.c ****                                 CAN_TX_CMD_REG(i) |= CAN_SEND_MESSAGE;
 228              		.loc 1 134 0
 229 0106 1968     		ldr	r1, [r3]
 230 0108 0122     		mov	r2, #1
 231 010a 0A43     		orr	r2, r1
 232 010c 1A60     		str	r2, [r3]
 233              	.L16:
 135:Generated_Source\PSoC4/CAN_TX_RX_func.c ****                             }
 136:Generated_Source\PSoC4/CAN_TX_RX_func.c ****                         #endif /* CY_PSOC3 || CY_PSOC5 */
 137:Generated_Source\PSoC4/CAN_TX_RX_func.c **** 
 138:Generated_Source\PSoC4/CAN_TX_RX_func.c ****                         /* Enable isr */
 139:Generated_Source\PSoC4/CAN_TX_RX_func.c ****     CyIntEnable(CAN_ISR_NUMBER);
 234              		.loc 1 139 0
 235 010e 1B20     		mov	r0, #27
 236 0110 FFF7FEFF 		bl	CyIntEnable
 237              	.LVL16:
 140:Generated_Source\PSoC4/CAN_TX_RX_func.c **** 
 141:Generated_Source\PSoC4/CAN_TX_RX_func.c ****                         result = CYRET_SUCCESS;
 238              		.loc 1 141 0
 239 0114 0020     		mov	r0, #0
 240              	.LVL17:
 241              	.L3:
 142:Generated_Source\PSoC4/CAN_TX_RX_func.c ****                     }
 143:Generated_Source\PSoC4/CAN_TX_RX_func.c ****             }
 144:Generated_Source\PSoC4/CAN_TX_RX_func.c ****             shift <<= 1u;
 242              		.loc 1 144 0
 243 0116 6D00     		lsl	r5, r5, #1
 244              	.LVL18:
 245 0118 EDB2     		uxtb	r5, r5
 246              	.LVL19:
 145:Generated_Source\PSoC4/CAN_TX_RX_func.c ****             if (result == CYRET_SUCCESS)
 247              		.loc 1 145 0
 248 011a 0028     		cmp	r0, #0
ARM GAS  C:\Users\HENRYA~1\AppData\Local\Temp\cc3TD2Ln.s 			page 8


 249 011c 07D0     		beq	.L17
  63:Generated_Source\PSoC4/CAN_TX_RX_func.c ****         {
 250              		.loc 1 63 0 discriminator 2
 251 011e 0134     		add	r4, r4, #1
 252              	.LVL20:
 253 0120 E4B2     		uxtb	r4, r4
 254              	.LVL21:
 255 0122 01E0     		b	.L20
 256              	.LVL22:
 257              	.L22:
 258 0124 0125     		mov	r5, #1
 259 0126 0024     		mov	r4, #0
 260              	.L20:
 261              	.LVL23:
  63:Generated_Source\PSoC4/CAN_TX_RX_func.c ****         {
 262              		.loc 1 63 0 is_stmt 0 discriminator 1
 263 0128 072C     		cmp	r4, #7
 264 012a 00D8     		bhi	.LCB277
 265 012c 71E7     		b	.L18	@long jump
 266              	.LCB277:
 267              	.L17:
 146:Generated_Source\PSoC4/CAN_TX_RX_func.c ****             {
 147:Generated_Source\PSoC4/CAN_TX_RX_func.c ****                 break;
 148:Generated_Source\PSoC4/CAN_TX_RX_func.c ****             }
 149:Generated_Source\PSoC4/CAN_TX_RX_func.c ****         }
 150:Generated_Source\PSoC4/CAN_TX_RX_func.c ****         if (result == CYRET_SUCCESS)
 268              		.loc 1 150 0 is_stmt 1
 269 012e 0028     		cmp	r0, #0
 270 0130 06D0     		beq	.L19
 151:Generated_Source\PSoC4/CAN_TX_RX_func.c ****         {
 152:Generated_Source\PSoC4/CAN_TX_RX_func.c ****             break;
 153:Generated_Source\PSoC4/CAN_TX_RX_func.c ****         }
 154:Generated_Source\PSoC4/CAN_TX_RX_func.c ****         else
 155:Generated_Source\PSoC4/CAN_TX_RX_func.c ****         {
 156:Generated_Source\PSoC4/CAN_TX_RX_func.c ****             retry++;
 271              		.loc 1 156 0
 272 0132 4346     		mov	r3, r8
 273 0134 0133     		add	r3, r3, #1
 274 0136 DBB2     		uxtb	r3, r3
 275 0138 9846     		mov	r8, r3
 276              	.LVL24:
 277              	.L2:
  60:Generated_Source\PSoC4/CAN_TX_RX_func.c ****     {
 278              		.loc 1 60 0
 279 013a 4346     		mov	r3, r8
 280 013c 022B     		cmp	r3, #2
 281 013e F1D9     		bls	.L22
 282              	.L19:
 157:Generated_Source\PSoC4/CAN_TX_RX_func.c ****         }
 158:Generated_Source\PSoC4/CAN_TX_RX_func.c ****     }
 159:Generated_Source\PSoC4/CAN_TX_RX_func.c **** 
 160:Generated_Source\PSoC4/CAN_TX_RX_func.c ****     return (result);
 161:Generated_Source\PSoC4/CAN_TX_RX_func.c **** }
 283              		.loc 1 161 0
 284              		@ sp needed
 285              	.LVL25:
 286              	.LVL26:
ARM GAS  C:\Users\HENRYA~1\AppData\Local\Temp\cc3TD2Ln.s 			page 9


 287 0140 0CBC     		pop	{r2, r3}
 288 0142 9046     		mov	r8, r2
 289 0144 9946     		mov	r9, r3
 290 0146 F8BD     		pop	{r3, r4, r5, r6, r7, pc}
 291              	.L24:
 292              		.align	2
 293              	.L23:
 294 0148 08002E40 		.word	1076756488
 295 014c 20002E40 		.word	1076756512
 296 0150 2C002E40 		.word	1076756524
 297 0154 08008000 		.word	8388616
 298              		.cfi_endproc
 299              	.LFE1:
 300              		.size	CAN_SendMsg, .-CAN_SendMsg
 301              		.section	.text.CAN_TxCancel,"ax",%progbits
 302              		.align	2
 303              		.global	CAN_TxCancel
 304              		.code	16
 305              		.thumb_func
 306              		.type	CAN_TxCancel, %function
 307              	CAN_TxCancel:
 308              	.LFB2:
 162:Generated_Source\PSoC4/CAN_TX_RX_func.c **** 
 163:Generated_Source\PSoC4/CAN_TX_RX_func.c **** 
 164:Generated_Source\PSoC4/CAN_TX_RX_func.c **** /*******************************************************************************
 165:Generated_Source\PSoC4/CAN_TX_RX_func.c **** * FUNCTION NAME:   CAN_TxCancel
 166:Generated_Source\PSoC4/CAN_TX_RX_func.c **** ********************************************************************************
 167:Generated_Source\PSoC4/CAN_TX_RX_func.c **** *
 168:Generated_Source\PSoC4/CAN_TX_RX_func.c **** * Summary:
 169:Generated_Source\PSoC4/CAN_TX_RX_func.c **** *  This function cancels transmission of a message that has been queued to be
 170:Generated_Source\PSoC4/CAN_TX_RX_func.c **** *  transmitted. Values between 0 and 7 are valid.
 171:Generated_Source\PSoC4/CAN_TX_RX_func.c **** *
 172:Generated_Source\PSoC4/CAN_TX_RX_func.c **** * Parameters:
 173:Generated_Source\PSoC4/CAN_TX_RX_func.c **** *  bufferId: The mailbox number.
 174:Generated_Source\PSoC4/CAN_TX_RX_func.c **** *
 175:Generated_Source\PSoC4/CAN_TX_RX_func.c **** * Return:
 176:Generated_Source\PSoC4/CAN_TX_RX_func.c **** *  None.
 177:Generated_Source\PSoC4/CAN_TX_RX_func.c **** *
 178:Generated_Source\PSoC4/CAN_TX_RX_func.c **** *******************************************************************************/
 179:Generated_Source\PSoC4/CAN_TX_RX_func.c **** void CAN_TxCancel(uint8 bufferId) 
 180:Generated_Source\PSoC4/CAN_TX_RX_func.c **** {
 309              		.loc 1 180 0
 310              		.cfi_startproc
 311              	.LVL27:
 181:Generated_Source\PSoC4/CAN_TX_RX_func.c ****     if (bufferId < CAN_NUMBER_OF_TX_MAILBOXES)
 312              		.loc 1 181 0
 313 0000 0728     		cmp	r0, #7
 314 0002 09D8     		bhi	.L25
 182:Generated_Source\PSoC4/CAN_TX_RX_func.c ****     {
 183:Generated_Source\PSoC4/CAN_TX_RX_func.c ****         CAN_TX_ABORT_MESSAGE(bufferId);
 315              		.loc 1 183 0
 316 0004 0001     		lsl	r0, r0, #4
 317              	.LVL28:
 318 0006 054B     		ldr	r3, .L27
 319 0008 9C46     		mov	ip, r3
 320 000a 6044     		add	r0, r0, ip
 321 000c 0368     		ldr	r3, [r0]
ARM GAS  C:\Users\HENRYA~1\AppData\Local\Temp\cc3TD2Ln.s 			page 10


 322 000e 0322     		mov	r2, #3
 323 0010 9343     		bic	r3, r2
 324 0012 013A     		sub	r2, r2, #1
 325 0014 1343     		orr	r3, r2
 326 0016 0360     		str	r3, [r0]
 327              	.L25:
 184:Generated_Source\PSoC4/CAN_TX_RX_func.c ****     }
 185:Generated_Source\PSoC4/CAN_TX_RX_func.c **** }
 328              		.loc 1 185 0
 329              		@ sp needed
 330 0018 7047     		bx	lr
 331              	.L28:
 332 001a C046     		.align	2
 333              	.L27:
 334 001c 20002E40 		.word	1076756512
 335              		.cfi_endproc
 336              	.LFE2:
 337              		.size	CAN_TxCancel, .-CAN_TxCancel
 338              		.section	.text.CAN_SendMsg0,"ax",%progbits
 339              		.align	2
 340              		.global	CAN_SendMsg0
 341              		.code	16
 342              		.thumb_func
 343              		.type	CAN_SendMsg0, %function
 344              	CAN_SendMsg0:
 345              	.LFB3:
 186:Generated_Source\PSoC4/CAN_TX_RX_func.c **** 
 187:Generated_Source\PSoC4/CAN_TX_RX_func.c **** 
 188:Generated_Source\PSoC4/CAN_TX_RX_func.c **** #if (CAN_TX0_FUNC_ENABLE)
 189:Generated_Source\PSoC4/CAN_TX_RX_func.c ****     /*******************************************************************************
 190:Generated_Source\PSoC4/CAN_TX_RX_func.c ****     * FUNCTION NAME:   CAN_SendMsg0
 191:Generated_Source\PSoC4/CAN_TX_RX_func.c ****     ********************************************************************************
 192:Generated_Source\PSoC4/CAN_TX_RX_func.c ****     *
 193:Generated_Source\PSoC4/CAN_TX_RX_func.c ****     * Summary:
 194:Generated_Source\PSoC4/CAN_TX_RX_func.c ****     *  This function is the entry point to Transmit Message 0. The function checks
 195:Generated_Source\PSoC4/CAN_TX_RX_func.c ****     *  if mailbox 0 doesn't already have un-transmitted messages waiting for
 196:Generated_Source\PSoC4/CAN_TX_RX_func.c ****     *  arbitration. If not initiate transmission of the message.
 197:Generated_Source\PSoC4/CAN_TX_RX_func.c ****     *  Generated only for the Transmit mailbox designed as Full.
 198:Generated_Source\PSoC4/CAN_TX_RX_func.c ****     *
 199:Generated_Source\PSoC4/CAN_TX_RX_func.c ****     * Parameters:
 200:Generated_Source\PSoC4/CAN_TX_RX_func.c ****     *  None.
 201:Generated_Source\PSoC4/CAN_TX_RX_func.c ****     *
 202:Generated_Source\PSoC4/CAN_TX_RX_func.c ****     * Return:
 203:Generated_Source\PSoC4/CAN_TX_RX_func.c ****     *  Indication if Message has been sent.
 204:Generated_Source\PSoC4/CAN_TX_RX_func.c ****     *   Define                             Description
 205:Generated_Source\PSoC4/CAN_TX_RX_func.c ****     *    CYRET_SUCCESS                      The function passed successfully
 206:Generated_Source\PSoC4/CAN_TX_RX_func.c ****     *    CAN_FAIL              The function failed
 207:Generated_Source\PSoC4/CAN_TX_RX_func.c ****     *
 208:Generated_Source\PSoC4/CAN_TX_RX_func.c ****     *******************************************************************************/
 209:Generated_Source\PSoC4/CAN_TX_RX_func.c ****     uint8 CAN_SendMsg0(void) 
 210:Generated_Source\PSoC4/CAN_TX_RX_func.c ****     {
 346              		.loc 1 210 0
 347              		.cfi_startproc
 348              	.LVL29:
 211:Generated_Source\PSoC4/CAN_TX_RX_func.c ****         uint8 result = CYRET_SUCCESS;
 212:Generated_Source\PSoC4/CAN_TX_RX_func.c **** 
 213:Generated_Source\PSoC4/CAN_TX_RX_func.c ****         #if (CY_PSOC3 || CY_PSOC5)
ARM GAS  C:\Users\HENRYA~1\AppData\Local\Temp\cc3TD2Ln.s 			page 11


 214:Generated_Source\PSoC4/CAN_TX_RX_func.c ****             if ((CAN_TX[0u].txcmd.byte[0u] & CAN_TX_REQUEST_PENDING) != 0u)
 215:Generated_Source\PSoC4/CAN_TX_RX_func.c ****         #else  /* CY_PSOC4 */
 216:Generated_Source\PSoC4/CAN_TX_RX_func.c ****             if ((CAN_TX_CMD_REG(0u) & CAN_TX_REQUEST_PENDING) != 0u)
 349              		.loc 1 216 0
 350 0000 0A4B     		ldr	r3, .L32
 351 0002 1B68     		ldr	r3, [r3]
 352 0004 DB07     		lsl	r3, r3, #31
 353 0006 0FD4     		bmi	.L31
 217:Generated_Source\PSoC4/CAN_TX_RX_func.c ****         #endif /* CY_PSOC3 || CY_PSOC5 */
 218:Generated_Source\PSoC4/CAN_TX_RX_func.c ****             {
 219:Generated_Source\PSoC4/CAN_TX_RX_func.c ****                 result = CAN_FAIL;
 220:Generated_Source\PSoC4/CAN_TX_RX_func.c ****             }
 221:Generated_Source\PSoC4/CAN_TX_RX_func.c ****             else
 222:Generated_Source\PSoC4/CAN_TX_RX_func.c ****             {
 223:Generated_Source\PSoC4/CAN_TX_RX_func.c ****                 /* `#START MESSAGE_0_TRASMITTED` */
 224:Generated_Source\PSoC4/CAN_TX_RX_func.c ****                 CAN_TX_DATA_BYTE(0,0,dato_enviado);
 354              		.loc 1 224 0
 355 0008 0949     		ldr	r1, .L32+4
 356 000a 0B68     		ldr	r3, [r1]
 357 000c 1B02     		lsl	r3, r3, #8
 358 000e 1B0A     		lsr	r3, r3, #8
 359 0010 084A     		ldr	r2, .L32+8
 360 0012 1278     		ldrb	r2, [r2]
 361 0014 1206     		lsl	r2, r2, #24
 362 0016 1343     		orr	r3, r2
 363 0018 0B60     		str	r3, [r1]
 225:Generated_Source\PSoC4/CAN_TX_RX_func.c ****                 /* `#END` */
 226:Generated_Source\PSoC4/CAN_TX_RX_func.c **** 
 227:Generated_Source\PSoC4/CAN_TX_RX_func.c ****                 #ifdef CAN_SEND_MSG_0_CALLBACK
 228:Generated_Source\PSoC4/CAN_TX_RX_func.c ****                     CAN_SendMsg_0_Callback();
 229:Generated_Source\PSoC4/CAN_TX_RX_func.c ****                 #endif /* CAN_SEND_MSG_0_CALLBACK */
 230:Generated_Source\PSoC4/CAN_TX_RX_func.c **** 
 231:Generated_Source\PSoC4/CAN_TX_RX_func.c ****                 CY_SET_REG32(CAN_TX_CMD_PTR(0u),
 364              		.loc 1 231 0
 365 001a 044A     		ldr	r2, .L32
 366 001c 1168     		ldr	r1, [r2]
 367 001e 0123     		mov	r3, #1
 368 0020 0B43     		orr	r3, r1
 369 0022 1360     		str	r3, [r2]
 211:Generated_Source\PSoC4/CAN_TX_RX_func.c **** 
 370              		.loc 1 211 0
 371 0024 0020     		mov	r0, #0
 372 0026 00E0     		b	.L30
 373              	.L31:
 219:Generated_Source\PSoC4/CAN_TX_RX_func.c ****             }
 374              		.loc 1 219 0
 375 0028 0120     		mov	r0, #1
 376              	.L30:
 377              	.LVL30:
 232:Generated_Source\PSoC4/CAN_TX_RX_func.c ****                 CY_GET_REG32(CAN_TX_CMD_PTR(0u)) | CAN_SEND_MESSAGE);
 233:Generated_Source\PSoC4/CAN_TX_RX_func.c ****             }
 234:Generated_Source\PSoC4/CAN_TX_RX_func.c **** 
 235:Generated_Source\PSoC4/CAN_TX_RX_func.c ****         return (result);
 236:Generated_Source\PSoC4/CAN_TX_RX_func.c ****     }
 378              		.loc 1 236 0
 379              		@ sp needed
 380 002a 7047     		bx	lr
ARM GAS  C:\Users\HENRYA~1\AppData\Local\Temp\cc3TD2Ln.s 			page 12


 381              	.L33:
 382              		.align	2
 383              	.L32:
 384 002c 20002E40 		.word	1076756512
 385 0030 28002E40 		.word	1076756520
 386 0034 00000000 		.word	dato_enviado
 387              		.cfi_endproc
 388              	.LFE3:
 389              		.size	CAN_SendMsg0, .-CAN_SendMsg0
 390              		.section	.text.CAN_ReceiveMsg,"ax",%progbits
 391              		.align	2
 392              		.global	CAN_ReceiveMsg
 393              		.code	16
 394              		.thumb_func
 395              		.type	CAN_ReceiveMsg, %function
 396              	CAN_ReceiveMsg:
 397              	.LFB4:
 237:Generated_Source\PSoC4/CAN_TX_RX_func.c **** #endif /* CAN_TX0_FUNC_ENABLE */
 238:Generated_Source\PSoC4/CAN_TX_RX_func.c **** 
 239:Generated_Source\PSoC4/CAN_TX_RX_func.c **** 
 240:Generated_Source\PSoC4/CAN_TX_RX_func.c **** #if (CAN_TX1_FUNC_ENABLE)
 241:Generated_Source\PSoC4/CAN_TX_RX_func.c ****     /*******************************************************************************
 242:Generated_Source\PSoC4/CAN_TX_RX_func.c ****     * FUNCTION NAME:   CAN_SendMsg1
 243:Generated_Source\PSoC4/CAN_TX_RX_func.c ****     ********************************************************************************
 244:Generated_Source\PSoC4/CAN_TX_RX_func.c ****     *
 245:Generated_Source\PSoC4/CAN_TX_RX_func.c ****     * Summary:
 246:Generated_Source\PSoC4/CAN_TX_RX_func.c ****     *  This function is the entry point to Transmit Message 1. The function checks
 247:Generated_Source\PSoC4/CAN_TX_RX_func.c ****     *  if mailbox 1 doesn't already have un-transmitted messages waiting for
 248:Generated_Source\PSoC4/CAN_TX_RX_func.c ****     *  arbitration. If not initiate transmission of the message.
 249:Generated_Source\PSoC4/CAN_TX_RX_func.c ****     *  Generated only for the Transmit mailbox designed as Full.
 250:Generated_Source\PSoC4/CAN_TX_RX_func.c ****     *
 251:Generated_Source\PSoC4/CAN_TX_RX_func.c ****     * Parameters:
 252:Generated_Source\PSoC4/CAN_TX_RX_func.c ****     *  None.
 253:Generated_Source\PSoC4/CAN_TX_RX_func.c ****     *
 254:Generated_Source\PSoC4/CAN_TX_RX_func.c ****     * Return:
 255:Generated_Source\PSoC4/CAN_TX_RX_func.c ****     *  Indication if Message has been sent.
 256:Generated_Source\PSoC4/CAN_TX_RX_func.c ****     *   Define                             Description
 257:Generated_Source\PSoC4/CAN_TX_RX_func.c ****     *    CYRET_SUCCESS                      The function passed successfully
 258:Generated_Source\PSoC4/CAN_TX_RX_func.c ****     *    CAN_FAIL              The function failed
 259:Generated_Source\PSoC4/CAN_TX_RX_func.c ****     *
 260:Generated_Source\PSoC4/CAN_TX_RX_func.c ****     *******************************************************************************/
 261:Generated_Source\PSoC4/CAN_TX_RX_func.c ****     uint8 CAN_SendMsg1(void) 
 262:Generated_Source\PSoC4/CAN_TX_RX_func.c ****     {
 263:Generated_Source\PSoC4/CAN_TX_RX_func.c ****         uint8 result = CYRET_SUCCESS;
 264:Generated_Source\PSoC4/CAN_TX_RX_func.c **** 
 265:Generated_Source\PSoC4/CAN_TX_RX_func.c ****         #if (CY_PSOC3 || CY_PSOC5)
 266:Generated_Source\PSoC4/CAN_TX_RX_func.c ****             if ((CAN_TX[1u].txcmd.byte[0u] & CAN_TX_REQUEST_PENDING) != 0u)
 267:Generated_Source\PSoC4/CAN_TX_RX_func.c ****         #else  /* CY_PSOC4 */
 268:Generated_Source\PSoC4/CAN_TX_RX_func.c ****             if ((CAN_TX_CMD_REG(1u) & CAN_TX_REQUEST_PENDING) != 0u)
 269:Generated_Source\PSoC4/CAN_TX_RX_func.c ****         #endif /* CY_PSOC3 || CY_PSOC5 */
 270:Generated_Source\PSoC4/CAN_TX_RX_func.c ****             {
 271:Generated_Source\PSoC4/CAN_TX_RX_func.c ****                 result = CAN_FAIL;
 272:Generated_Source\PSoC4/CAN_TX_RX_func.c ****             }
 273:Generated_Source\PSoC4/CAN_TX_RX_func.c ****             else
 274:Generated_Source\PSoC4/CAN_TX_RX_func.c ****             {
 275:Generated_Source\PSoC4/CAN_TX_RX_func.c ****                 /* `#START MESSAGE_1_TRASMITTED` */
 276:Generated_Source\PSoC4/CAN_TX_RX_func.c **** 
ARM GAS  C:\Users\HENRYA~1\AppData\Local\Temp\cc3TD2Ln.s 			page 13


 277:Generated_Source\PSoC4/CAN_TX_RX_func.c ****                 /* `#END` */
 278:Generated_Source\PSoC4/CAN_TX_RX_func.c **** 
 279:Generated_Source\PSoC4/CAN_TX_RX_func.c ****                 #ifdef CAN_SEND_MSG_1_CALLBACK
 280:Generated_Source\PSoC4/CAN_TX_RX_func.c ****                     CAN_SendMsg_1_Callback();
 281:Generated_Source\PSoC4/CAN_TX_RX_func.c ****                 #endif /* CAN_SEND_MSG_1_CALLBACK */
 282:Generated_Source\PSoC4/CAN_TX_RX_func.c **** 
 283:Generated_Source\PSoC4/CAN_TX_RX_func.c ****                 CY_SET_REG32(CAN_TX_CMD_PTR(1u),
 284:Generated_Source\PSoC4/CAN_TX_RX_func.c ****                 CY_GET_REG32(CAN_TX_CMD_PTR(1u)) | CAN_SEND_MESSAGE);
 285:Generated_Source\PSoC4/CAN_TX_RX_func.c ****             }
 286:Generated_Source\PSoC4/CAN_TX_RX_func.c **** 
 287:Generated_Source\PSoC4/CAN_TX_RX_func.c ****         return (result);
 288:Generated_Source\PSoC4/CAN_TX_RX_func.c ****     }
 289:Generated_Source\PSoC4/CAN_TX_RX_func.c **** #endif /* CAN_TX1_FUNC_ENABLE */
 290:Generated_Source\PSoC4/CAN_TX_RX_func.c **** 
 291:Generated_Source\PSoC4/CAN_TX_RX_func.c **** 
 292:Generated_Source\PSoC4/CAN_TX_RX_func.c **** #if (CAN_TX2_FUNC_ENABLE)
 293:Generated_Source\PSoC4/CAN_TX_RX_func.c ****     /*******************************************************************************
 294:Generated_Source\PSoC4/CAN_TX_RX_func.c ****     * FUNCTION NAME:   CAN_SendMsg2
 295:Generated_Source\PSoC4/CAN_TX_RX_func.c ****     ********************************************************************************
 296:Generated_Source\PSoC4/CAN_TX_RX_func.c ****     *
 297:Generated_Source\PSoC4/CAN_TX_RX_func.c ****     * Summary:
 298:Generated_Source\PSoC4/CAN_TX_RX_func.c ****     *  This function is the entry point to Transmit Message 2. The function checks
 299:Generated_Source\PSoC4/CAN_TX_RX_func.c ****     *  if mailbox 2 doesn't already have un-transmitted messages waiting for
 300:Generated_Source\PSoC4/CAN_TX_RX_func.c ****     *  arbitration. If not initiate transmission of the message.
 301:Generated_Source\PSoC4/CAN_TX_RX_func.c ****     *  Generated only for the Transmit mailbox designed as Full.
 302:Generated_Source\PSoC4/CAN_TX_RX_func.c ****     *
 303:Generated_Source\PSoC4/CAN_TX_RX_func.c ****     * Parameters:
 304:Generated_Source\PSoC4/CAN_TX_RX_func.c ****     *  None.
 305:Generated_Source\PSoC4/CAN_TX_RX_func.c ****     *
 306:Generated_Source\PSoC4/CAN_TX_RX_func.c ****     * Return:
 307:Generated_Source\PSoC4/CAN_TX_RX_func.c ****     *  Indication if Message has been sent.
 308:Generated_Source\PSoC4/CAN_TX_RX_func.c ****     *   Define                             Description
 309:Generated_Source\PSoC4/CAN_TX_RX_func.c ****     *    CYRET_SUCCESS                      The function passed successfully
 310:Generated_Source\PSoC4/CAN_TX_RX_func.c ****     *    CAN_FAIL              The function failed
 311:Generated_Source\PSoC4/CAN_TX_RX_func.c ****     *
 312:Generated_Source\PSoC4/CAN_TX_RX_func.c ****     *******************************************************************************/
 313:Generated_Source\PSoC4/CAN_TX_RX_func.c ****     uint8 CAN_SendMsg2(void) 
 314:Generated_Source\PSoC4/CAN_TX_RX_func.c ****     {
 315:Generated_Source\PSoC4/CAN_TX_RX_func.c ****         uint8 result = CYRET_SUCCESS;
 316:Generated_Source\PSoC4/CAN_TX_RX_func.c **** 
 317:Generated_Source\PSoC4/CAN_TX_RX_func.c ****         #if (CY_PSOC3 || CY_PSOC5)
 318:Generated_Source\PSoC4/CAN_TX_RX_func.c ****             if ((CAN_TX[2u].txcmd.byte[0u] & CAN_TX_REQUEST_PENDING) != 0u)
 319:Generated_Source\PSoC4/CAN_TX_RX_func.c ****         #else  /* CY_PSOC4 */
 320:Generated_Source\PSoC4/CAN_TX_RX_func.c ****             if ((CAN_TX_CMD_REG(2u) & CAN_TX_REQUEST_PENDING) != 0u)
 321:Generated_Source\PSoC4/CAN_TX_RX_func.c ****         #endif /* CY_PSOC3 || CY_PSOC5 */
 322:Generated_Source\PSoC4/CAN_TX_RX_func.c ****             {
 323:Generated_Source\PSoC4/CAN_TX_RX_func.c ****                 result = CAN_FAIL;
 324:Generated_Source\PSoC4/CAN_TX_RX_func.c ****             }
 325:Generated_Source\PSoC4/CAN_TX_RX_func.c ****             else
 326:Generated_Source\PSoC4/CAN_TX_RX_func.c ****             {
 327:Generated_Source\PSoC4/CAN_TX_RX_func.c ****                 /* `#START MESSAGE_2_TRASMITTED` */
 328:Generated_Source\PSoC4/CAN_TX_RX_func.c **** 
 329:Generated_Source\PSoC4/CAN_TX_RX_func.c ****                 /* `#END` */
 330:Generated_Source\PSoC4/CAN_TX_RX_func.c **** 
 331:Generated_Source\PSoC4/CAN_TX_RX_func.c ****                 #ifdef CAN_SEND_MSG_2_CALLBACK
 332:Generated_Source\PSoC4/CAN_TX_RX_func.c ****                     CAN_SendMsg_2_Callback();
 333:Generated_Source\PSoC4/CAN_TX_RX_func.c ****                 #endif /* CAN_SEND_MSG_2_CALLBACK */
ARM GAS  C:\Users\HENRYA~1\AppData\Local\Temp\cc3TD2Ln.s 			page 14


 334:Generated_Source\PSoC4/CAN_TX_RX_func.c **** 
 335:Generated_Source\PSoC4/CAN_TX_RX_func.c ****                 CY_SET_REG32(CAN_TX_CMD_PTR(2u),
 336:Generated_Source\PSoC4/CAN_TX_RX_func.c ****                 CY_GET_REG32(CAN_TX_CMD_PTR(2u)) | CAN_SEND_MESSAGE);
 337:Generated_Source\PSoC4/CAN_TX_RX_func.c ****             }
 338:Generated_Source\PSoC4/CAN_TX_RX_func.c **** 
 339:Generated_Source\PSoC4/CAN_TX_RX_func.c ****         return (result);
 340:Generated_Source\PSoC4/CAN_TX_RX_func.c ****     }
 341:Generated_Source\PSoC4/CAN_TX_RX_func.c **** #endif /* CAN_TX2_FUNC_ENABLE */
 342:Generated_Source\PSoC4/CAN_TX_RX_func.c **** 
 343:Generated_Source\PSoC4/CAN_TX_RX_func.c **** 
 344:Generated_Source\PSoC4/CAN_TX_RX_func.c **** #if (CAN_TX3_FUNC_ENABLE)
 345:Generated_Source\PSoC4/CAN_TX_RX_func.c ****     /*******************************************************************************
 346:Generated_Source\PSoC4/CAN_TX_RX_func.c ****     * FUNCTION NAME:   CAN_SendMsg3
 347:Generated_Source\PSoC4/CAN_TX_RX_func.c ****     ********************************************************************************
 348:Generated_Source\PSoC4/CAN_TX_RX_func.c ****     *
 349:Generated_Source\PSoC4/CAN_TX_RX_func.c ****     * Summary:
 350:Generated_Source\PSoC4/CAN_TX_RX_func.c ****     *  This function is the entry point to Transmit Message 3. The function checks
 351:Generated_Source\PSoC4/CAN_TX_RX_func.c ****     *  if mailbox 3 doesn't already have un-transmitted messages waiting for
 352:Generated_Source\PSoC4/CAN_TX_RX_func.c ****     *  arbitration. If not initiate transmission of the message.
 353:Generated_Source\PSoC4/CAN_TX_RX_func.c ****     *  Generated only for the Transmit mailbox designed as Full.
 354:Generated_Source\PSoC4/CAN_TX_RX_func.c ****     *
 355:Generated_Source\PSoC4/CAN_TX_RX_func.c ****     * Parameters:
 356:Generated_Source\PSoC4/CAN_TX_RX_func.c ****     *  None.
 357:Generated_Source\PSoC4/CAN_TX_RX_func.c ****     *
 358:Generated_Source\PSoC4/CAN_TX_RX_func.c ****     * Return:
 359:Generated_Source\PSoC4/CAN_TX_RX_func.c ****     *  Indication if Message has been sent.
 360:Generated_Source\PSoC4/CAN_TX_RX_func.c ****     *   Define                             Description
 361:Generated_Source\PSoC4/CAN_TX_RX_func.c ****     *    CYRET_SUCCESS                      The function passed successfully
 362:Generated_Source\PSoC4/CAN_TX_RX_func.c ****     *    CAN_FAIL              The function failed
 363:Generated_Source\PSoC4/CAN_TX_RX_func.c ****     *
 364:Generated_Source\PSoC4/CAN_TX_RX_func.c ****     *******************************************************************************/
 365:Generated_Source\PSoC4/CAN_TX_RX_func.c ****     uint8 CAN_SendMsg3(void) 
 366:Generated_Source\PSoC4/CAN_TX_RX_func.c ****     {
 367:Generated_Source\PSoC4/CAN_TX_RX_func.c ****         uint8 result = CYRET_SUCCESS;
 368:Generated_Source\PSoC4/CAN_TX_RX_func.c **** 
 369:Generated_Source\PSoC4/CAN_TX_RX_func.c ****         #if (CY_PSOC3 || CY_PSOC5)
 370:Generated_Source\PSoC4/CAN_TX_RX_func.c ****             if ((CAN_TX[3u].txcmd.byte[0u] & CAN_TX_REQUEST_PENDING) != 0u)
 371:Generated_Source\PSoC4/CAN_TX_RX_func.c ****         #else  /* CY_PSOC4 */
 372:Generated_Source\PSoC4/CAN_TX_RX_func.c ****             if ((CAN_TX_CMD_REG(3u) & CAN_TX_REQUEST_PENDING) != 0u)
 373:Generated_Source\PSoC4/CAN_TX_RX_func.c ****         #endif /* CY_PSOC3 || CY_PSOC5 */
 374:Generated_Source\PSoC4/CAN_TX_RX_func.c ****             {
 375:Generated_Source\PSoC4/CAN_TX_RX_func.c ****                 result = CAN_FAIL;
 376:Generated_Source\PSoC4/CAN_TX_RX_func.c ****             }
 377:Generated_Source\PSoC4/CAN_TX_RX_func.c ****             else
 378:Generated_Source\PSoC4/CAN_TX_RX_func.c ****             {
 379:Generated_Source\PSoC4/CAN_TX_RX_func.c ****                 /* `#START MESSAGE_3_TRASMITTED` */
 380:Generated_Source\PSoC4/CAN_TX_RX_func.c **** 
 381:Generated_Source\PSoC4/CAN_TX_RX_func.c ****                 /* `#END` */
 382:Generated_Source\PSoC4/CAN_TX_RX_func.c **** 
 383:Generated_Source\PSoC4/CAN_TX_RX_func.c ****                 #ifdef CAN_SEND_MSG_3_CALLBACK
 384:Generated_Source\PSoC4/CAN_TX_RX_func.c ****                     CAN_SendMsg_3_Callback();
 385:Generated_Source\PSoC4/CAN_TX_RX_func.c ****                 #endif /* CAN_SEND_MSG_3_CALLBACK */
 386:Generated_Source\PSoC4/CAN_TX_RX_func.c **** 
 387:Generated_Source\PSoC4/CAN_TX_RX_func.c ****                 CY_SET_REG32(CAN_TX_CMD_PTR(3u),
 388:Generated_Source\PSoC4/CAN_TX_RX_func.c ****                 CY_GET_REG32(CAN_TX_CMD_PTR(3u)) | CAN_SEND_MESSAGE);
 389:Generated_Source\PSoC4/CAN_TX_RX_func.c ****             }
 390:Generated_Source\PSoC4/CAN_TX_RX_func.c **** 
ARM GAS  C:\Users\HENRYA~1\AppData\Local\Temp\cc3TD2Ln.s 			page 15


 391:Generated_Source\PSoC4/CAN_TX_RX_func.c ****         return (result);
 392:Generated_Source\PSoC4/CAN_TX_RX_func.c ****     }
 393:Generated_Source\PSoC4/CAN_TX_RX_func.c **** #endif /* CAN_TX3_FUNC_ENABLE */
 394:Generated_Source\PSoC4/CAN_TX_RX_func.c **** 
 395:Generated_Source\PSoC4/CAN_TX_RX_func.c **** 
 396:Generated_Source\PSoC4/CAN_TX_RX_func.c **** #if (CAN_TX4_FUNC_ENABLE)
 397:Generated_Source\PSoC4/CAN_TX_RX_func.c ****     /*******************************************************************************
 398:Generated_Source\PSoC4/CAN_TX_RX_func.c ****     * FUNCTION NAME:   CAN_SendMsg4
 399:Generated_Source\PSoC4/CAN_TX_RX_func.c ****     ********************************************************************************
 400:Generated_Source\PSoC4/CAN_TX_RX_func.c ****     *
 401:Generated_Source\PSoC4/CAN_TX_RX_func.c ****     * Summary:
 402:Generated_Source\PSoC4/CAN_TX_RX_func.c ****     *  This function is the entry point to Transmit Message 4. The function checks
 403:Generated_Source\PSoC4/CAN_TX_RX_func.c ****     *  if mailbox 4 doesn't already have un-transmitted messages waiting for
 404:Generated_Source\PSoC4/CAN_TX_RX_func.c ****     *  arbitration. If not initiate transmission of the message.
 405:Generated_Source\PSoC4/CAN_TX_RX_func.c ****     *  Generated only for the Transmit mailbox designed as Full.
 406:Generated_Source\PSoC4/CAN_TX_RX_func.c ****     *
 407:Generated_Source\PSoC4/CAN_TX_RX_func.c ****     * Parameters:
 408:Generated_Source\PSoC4/CAN_TX_RX_func.c ****     *  None.
 409:Generated_Source\PSoC4/CAN_TX_RX_func.c ****     *
 410:Generated_Source\PSoC4/CAN_TX_RX_func.c ****     * Return:
 411:Generated_Source\PSoC4/CAN_TX_RX_func.c ****     *  Indication if Message has been sent.
 412:Generated_Source\PSoC4/CAN_TX_RX_func.c ****     *   Define                             Description
 413:Generated_Source\PSoC4/CAN_TX_RX_func.c ****     *    CYRET_SUCCESS                      The function passed successfully
 414:Generated_Source\PSoC4/CAN_TX_RX_func.c ****     *    CAN_FAIL              The function failed
 415:Generated_Source\PSoC4/CAN_TX_RX_func.c ****     *
 416:Generated_Source\PSoC4/CAN_TX_RX_func.c ****     *******************************************************************************/
 417:Generated_Source\PSoC4/CAN_TX_RX_func.c ****     uint8 CAN_SendMsg4(void) 
 418:Generated_Source\PSoC4/CAN_TX_RX_func.c ****     {
 419:Generated_Source\PSoC4/CAN_TX_RX_func.c ****         uint8 result = CYRET_SUCCESS;
 420:Generated_Source\PSoC4/CAN_TX_RX_func.c **** 
 421:Generated_Source\PSoC4/CAN_TX_RX_func.c ****         #if (CY_PSOC3 || CY_PSOC5)
 422:Generated_Source\PSoC4/CAN_TX_RX_func.c ****             if ((CAN_TX[4u].txcmd.byte[0u] & CAN_TX_REQUEST_PENDING) != 0u)
 423:Generated_Source\PSoC4/CAN_TX_RX_func.c ****         #else  /* CY_PSOC4 */
 424:Generated_Source\PSoC4/CAN_TX_RX_func.c ****             if ((CAN_TX_CMD_REG(4u) & CAN_TX_REQUEST_PENDING) != 0u)
 425:Generated_Source\PSoC4/CAN_TX_RX_func.c ****         #endif /* CY_PSOC3 || CY_PSOC5 */
 426:Generated_Source\PSoC4/CAN_TX_RX_func.c ****             {
 427:Generated_Source\PSoC4/CAN_TX_RX_func.c ****                 result = CAN_FAIL;
 428:Generated_Source\PSoC4/CAN_TX_RX_func.c ****             }
 429:Generated_Source\PSoC4/CAN_TX_RX_func.c ****             else
 430:Generated_Source\PSoC4/CAN_TX_RX_func.c ****             {
 431:Generated_Source\PSoC4/CAN_TX_RX_func.c ****                 /* `#START MESSAGE_4_TRASMITTED` */
 432:Generated_Source\PSoC4/CAN_TX_RX_func.c **** 
 433:Generated_Source\PSoC4/CAN_TX_RX_func.c ****                 /* `#END` */
 434:Generated_Source\PSoC4/CAN_TX_RX_func.c **** 
 435:Generated_Source\PSoC4/CAN_TX_RX_func.c ****                 #ifdef CAN_SEND_MSG_4_CALLBACK
 436:Generated_Source\PSoC4/CAN_TX_RX_func.c ****                     CAN_SendMsg_4_Callback();
 437:Generated_Source\PSoC4/CAN_TX_RX_func.c ****                 #endif /* CAN_SEND_MSG_4_CALLBACK */
 438:Generated_Source\PSoC4/CAN_TX_RX_func.c **** 
 439:Generated_Source\PSoC4/CAN_TX_RX_func.c ****                 CY_SET_REG32(CAN_TX_CMD_PTR(4u),
 440:Generated_Source\PSoC4/CAN_TX_RX_func.c ****                 CY_GET_REG32(CAN_TX_CMD_PTR(4u)) | CAN_SEND_MESSAGE);
 441:Generated_Source\PSoC4/CAN_TX_RX_func.c ****             }
 442:Generated_Source\PSoC4/CAN_TX_RX_func.c **** 
 443:Generated_Source\PSoC4/CAN_TX_RX_func.c ****         return (result);
 444:Generated_Source\PSoC4/CAN_TX_RX_func.c ****     }
 445:Generated_Source\PSoC4/CAN_TX_RX_func.c **** #endif /* CAN_TX4_FUNC_ENABLE */
 446:Generated_Source\PSoC4/CAN_TX_RX_func.c **** 
 447:Generated_Source\PSoC4/CAN_TX_RX_func.c **** 
ARM GAS  C:\Users\HENRYA~1\AppData\Local\Temp\cc3TD2Ln.s 			page 16


 448:Generated_Source\PSoC4/CAN_TX_RX_func.c **** #if (CAN_TX5_FUNC_ENABLE)
 449:Generated_Source\PSoC4/CAN_TX_RX_func.c ****     /*******************************************************************************
 450:Generated_Source\PSoC4/CAN_TX_RX_func.c ****     * FUNCTION NAME:   CAN_SendMsg5
 451:Generated_Source\PSoC4/CAN_TX_RX_func.c ****     ********************************************************************************
 452:Generated_Source\PSoC4/CAN_TX_RX_func.c ****     *
 453:Generated_Source\PSoC4/CAN_TX_RX_func.c ****     * Summary:
 454:Generated_Source\PSoC4/CAN_TX_RX_func.c ****     *  This function is the entry point to Transmit Message 5. The function checks
 455:Generated_Source\PSoC4/CAN_TX_RX_func.c ****     *  if mailbox 5 doesn't already have un-transmitted messages waiting for
 456:Generated_Source\PSoC4/CAN_TX_RX_func.c ****     *  arbitration. If not initiate transmission of the message.
 457:Generated_Source\PSoC4/CAN_TX_RX_func.c ****     *  Generated only for the Transmit mailbox designed as Full.
 458:Generated_Source\PSoC4/CAN_TX_RX_func.c ****     *
 459:Generated_Source\PSoC4/CAN_TX_RX_func.c ****     * Parameters:
 460:Generated_Source\PSoC4/CAN_TX_RX_func.c ****     *  None.
 461:Generated_Source\PSoC4/CAN_TX_RX_func.c ****     *
 462:Generated_Source\PSoC4/CAN_TX_RX_func.c ****     * Return:
 463:Generated_Source\PSoC4/CAN_TX_RX_func.c ****     *  Indication if Message has been sent.
 464:Generated_Source\PSoC4/CAN_TX_RX_func.c ****     *   Define                             Description
 465:Generated_Source\PSoC4/CAN_TX_RX_func.c ****     *    CYRET_SUCCESS                      The function passed successfully
 466:Generated_Source\PSoC4/CAN_TX_RX_func.c ****     *    CAN_FAIL              The function failed
 467:Generated_Source\PSoC4/CAN_TX_RX_func.c ****     *
 468:Generated_Source\PSoC4/CAN_TX_RX_func.c ****     *******************************************************************************/
 469:Generated_Source\PSoC4/CAN_TX_RX_func.c ****     uint8 CAN_SendMsg5(void) 
 470:Generated_Source\PSoC4/CAN_TX_RX_func.c ****     {
 471:Generated_Source\PSoC4/CAN_TX_RX_func.c ****         uint8 result = CYRET_SUCCESS;
 472:Generated_Source\PSoC4/CAN_TX_RX_func.c **** 
 473:Generated_Source\PSoC4/CAN_TX_RX_func.c ****         #if (CY_PSOC3 || CY_PSOC5)
 474:Generated_Source\PSoC4/CAN_TX_RX_func.c ****             if ((CAN_TX[5u].txcmd.byte[0u] & CAN_TX_REQUEST_PENDING) != 0u)
 475:Generated_Source\PSoC4/CAN_TX_RX_func.c ****         #else  /* CY_PSOC4 */
 476:Generated_Source\PSoC4/CAN_TX_RX_func.c ****             if ((CAN_TX_CMD_REG(5u) & CAN_TX_REQUEST_PENDING) != 0u)
 477:Generated_Source\PSoC4/CAN_TX_RX_func.c ****         #endif /* CY_PSOC3 || CY_PSOC5 */
 478:Generated_Source\PSoC4/CAN_TX_RX_func.c ****             {
 479:Generated_Source\PSoC4/CAN_TX_RX_func.c ****                 result = CAN_FAIL;
 480:Generated_Source\PSoC4/CAN_TX_RX_func.c ****             }
 481:Generated_Source\PSoC4/CAN_TX_RX_func.c ****             else
 482:Generated_Source\PSoC4/CAN_TX_RX_func.c ****             {
 483:Generated_Source\PSoC4/CAN_TX_RX_func.c ****                 /* `#START MESSAGE_5_TRASMITTED` */
 484:Generated_Source\PSoC4/CAN_TX_RX_func.c **** 
 485:Generated_Source\PSoC4/CAN_TX_RX_func.c ****                 /* `#END` */
 486:Generated_Source\PSoC4/CAN_TX_RX_func.c **** 
 487:Generated_Source\PSoC4/CAN_TX_RX_func.c ****                 #ifdef CAN_SEND_MSG_5_CALLBACK
 488:Generated_Source\PSoC4/CAN_TX_RX_func.c ****                     CAN_SendMsg_5_Callback();
 489:Generated_Source\PSoC4/CAN_TX_RX_func.c ****                 #endif /* CAN_SEND_MSG_5_CALLBACK */
 490:Generated_Source\PSoC4/CAN_TX_RX_func.c **** 
 491:Generated_Source\PSoC4/CAN_TX_RX_func.c ****                 CY_SET_REG32(CAN_TX_CMD_PTR(5u),
 492:Generated_Source\PSoC4/CAN_TX_RX_func.c ****                 CY_GET_REG32(CAN_TX_CMD_PTR(5u)) | CAN_SEND_MESSAGE);
 493:Generated_Source\PSoC4/CAN_TX_RX_func.c ****             }
 494:Generated_Source\PSoC4/CAN_TX_RX_func.c **** 
 495:Generated_Source\PSoC4/CAN_TX_RX_func.c ****         return (result);
 496:Generated_Source\PSoC4/CAN_TX_RX_func.c ****     }
 497:Generated_Source\PSoC4/CAN_TX_RX_func.c **** #endif /* CAN_TX5_FUNC_ENABLE */
 498:Generated_Source\PSoC4/CAN_TX_RX_func.c **** 
 499:Generated_Source\PSoC4/CAN_TX_RX_func.c **** 
 500:Generated_Source\PSoC4/CAN_TX_RX_func.c **** #if (CAN_TX6_FUNC_ENABLE)
 501:Generated_Source\PSoC4/CAN_TX_RX_func.c ****     /*******************************************************************************
 502:Generated_Source\PSoC4/CAN_TX_RX_func.c ****     * FUNCTION NAME:   CAN_SendMsg6
 503:Generated_Source\PSoC4/CAN_TX_RX_func.c ****     ********************************************************************************
 504:Generated_Source\PSoC4/CAN_TX_RX_func.c ****     *
ARM GAS  C:\Users\HENRYA~1\AppData\Local\Temp\cc3TD2Ln.s 			page 17


 505:Generated_Source\PSoC4/CAN_TX_RX_func.c ****     * Summary:
 506:Generated_Source\PSoC4/CAN_TX_RX_func.c ****     *  This function is the entry point to Transmit Message 6. The function checks
 507:Generated_Source\PSoC4/CAN_TX_RX_func.c ****     *  if mailbox 6 doesn't already have un-transmitted messages waiting for
 508:Generated_Source\PSoC4/CAN_TX_RX_func.c ****     *  arbitration. If not initiate transmission of the message.
 509:Generated_Source\PSoC4/CAN_TX_RX_func.c ****     *  Generated only for the Transmit mailbox designed as Full.
 510:Generated_Source\PSoC4/CAN_TX_RX_func.c ****     *
 511:Generated_Source\PSoC4/CAN_TX_RX_func.c ****     * Parameters:
 512:Generated_Source\PSoC4/CAN_TX_RX_func.c ****     *  None.
 513:Generated_Source\PSoC4/CAN_TX_RX_func.c ****     *
 514:Generated_Source\PSoC4/CAN_TX_RX_func.c ****     * Return:
 515:Generated_Source\PSoC4/CAN_TX_RX_func.c ****     *  Indication if Message has been sent.
 516:Generated_Source\PSoC4/CAN_TX_RX_func.c ****     *   Define                             Description
 517:Generated_Source\PSoC4/CAN_TX_RX_func.c ****     *    CYRET_SUCCESS                      The function passed successfully
 518:Generated_Source\PSoC4/CAN_TX_RX_func.c ****     *    CAN_FAIL              The function failed
 519:Generated_Source\PSoC4/CAN_TX_RX_func.c ****     *
 520:Generated_Source\PSoC4/CAN_TX_RX_func.c ****     *******************************************************************************/
 521:Generated_Source\PSoC4/CAN_TX_RX_func.c ****     uint8 CAN_SendMsg6(void) 
 522:Generated_Source\PSoC4/CAN_TX_RX_func.c ****     {
 523:Generated_Source\PSoC4/CAN_TX_RX_func.c ****         uint8 result = CYRET_SUCCESS;
 524:Generated_Source\PSoC4/CAN_TX_RX_func.c **** 
 525:Generated_Source\PSoC4/CAN_TX_RX_func.c ****         #if (CY_PSOC3 || CY_PSOC5)
 526:Generated_Source\PSoC4/CAN_TX_RX_func.c ****             if ((CAN_TX[6u].txcmd.byte[0u] & CAN_TX_REQUEST_PENDING) != 0u)
 527:Generated_Source\PSoC4/CAN_TX_RX_func.c ****         #else  /* CY_PSOC4 */
 528:Generated_Source\PSoC4/CAN_TX_RX_func.c ****             if ((CAN_TX_CMD_REG(6u) & CAN_TX_REQUEST_PENDING) != 0u)
 529:Generated_Source\PSoC4/CAN_TX_RX_func.c ****         #endif /* CY_PSOC3 || CY_PSOC5 */
 530:Generated_Source\PSoC4/CAN_TX_RX_func.c ****             {
 531:Generated_Source\PSoC4/CAN_TX_RX_func.c ****                 result = CAN_FAIL;
 532:Generated_Source\PSoC4/CAN_TX_RX_func.c ****             }
 533:Generated_Source\PSoC4/CAN_TX_RX_func.c ****             else
 534:Generated_Source\PSoC4/CAN_TX_RX_func.c ****             {
 535:Generated_Source\PSoC4/CAN_TX_RX_func.c ****                 /* `#START MESSAGE_6_TRASMITTED` */
 536:Generated_Source\PSoC4/CAN_TX_RX_func.c **** 
 537:Generated_Source\PSoC4/CAN_TX_RX_func.c ****                 /* `#END` */
 538:Generated_Source\PSoC4/CAN_TX_RX_func.c **** 
 539:Generated_Source\PSoC4/CAN_TX_RX_func.c ****                 #ifdef CAN_SEND_MSG_6_CALLBACK
 540:Generated_Source\PSoC4/CAN_TX_RX_func.c ****                     CAN_SendMsg_6_Callback();
 541:Generated_Source\PSoC4/CAN_TX_RX_func.c ****                 #endif /* CAN_SEND_MSG_6_CALLBACK */
 542:Generated_Source\PSoC4/CAN_TX_RX_func.c **** 
 543:Generated_Source\PSoC4/CAN_TX_RX_func.c ****                 CY_SET_REG32(CAN_TX_CMD_PTR(6u),
 544:Generated_Source\PSoC4/CAN_TX_RX_func.c ****                 CY_GET_REG32(CAN_TX_CMD_PTR(6u)) | CAN_SEND_MESSAGE);
 545:Generated_Source\PSoC4/CAN_TX_RX_func.c ****             }
 546:Generated_Source\PSoC4/CAN_TX_RX_func.c **** 
 547:Generated_Source\PSoC4/CAN_TX_RX_func.c ****         return (result);
 548:Generated_Source\PSoC4/CAN_TX_RX_func.c ****     }
 549:Generated_Source\PSoC4/CAN_TX_RX_func.c **** #endif /* CAN_TX6_FUNC_ENABLE */
 550:Generated_Source\PSoC4/CAN_TX_RX_func.c **** 
 551:Generated_Source\PSoC4/CAN_TX_RX_func.c **** 
 552:Generated_Source\PSoC4/CAN_TX_RX_func.c **** #if (CAN_TX7_FUNC_ENABLE)
 553:Generated_Source\PSoC4/CAN_TX_RX_func.c ****     /*******************************************************************************
 554:Generated_Source\PSoC4/CAN_TX_RX_func.c ****     * FUNCTION NAME:   CAN_SendMsg7)
 555:Generated_Source\PSoC4/CAN_TX_RX_func.c ****     ********************************************************************************
 556:Generated_Source\PSoC4/CAN_TX_RX_func.c ****     *
 557:Generated_Source\PSoC4/CAN_TX_RX_func.c ****     * Summary:
 558:Generated_Source\PSoC4/CAN_TX_RX_func.c ****     *  This function is the entry point to Transmit Message 7. The function checks
 559:Generated_Source\PSoC4/CAN_TX_RX_func.c ****     *  if mailbox 7 doesn't already have un-transmitted messages waiting for
 560:Generated_Source\PSoC4/CAN_TX_RX_func.c ****     *  arbitration. If not initiate transmission of the message.
 561:Generated_Source\PSoC4/CAN_TX_RX_func.c ****     *  Generated only for the Transmit mailbox designed as Full.
ARM GAS  C:\Users\HENRYA~1\AppData\Local\Temp\cc3TD2Ln.s 			page 18


 562:Generated_Source\PSoC4/CAN_TX_RX_func.c ****     *
 563:Generated_Source\PSoC4/CAN_TX_RX_func.c ****     * Parameters:
 564:Generated_Source\PSoC4/CAN_TX_RX_func.c ****     *  None.
 565:Generated_Source\PSoC4/CAN_TX_RX_func.c ****     *
 566:Generated_Source\PSoC4/CAN_TX_RX_func.c ****     * Return:
 567:Generated_Source\PSoC4/CAN_TX_RX_func.c ****     *  Indication if Message has been sent.
 568:Generated_Source\PSoC4/CAN_TX_RX_func.c ****     *   Define                             Description
 569:Generated_Source\PSoC4/CAN_TX_RX_func.c ****     *    CYRET_SUCCESS                      The function passed successfully
 570:Generated_Source\PSoC4/CAN_TX_RX_func.c ****     *    CAN_FAIL              The function failed
 571:Generated_Source\PSoC4/CAN_TX_RX_func.c ****     *
 572:Generated_Source\PSoC4/CAN_TX_RX_func.c ****     *******************************************************************************/
 573:Generated_Source\PSoC4/CAN_TX_RX_func.c ****     uint8 CAN_SendMsg7(void) 
 574:Generated_Source\PSoC4/CAN_TX_RX_func.c ****     {
 575:Generated_Source\PSoC4/CAN_TX_RX_func.c ****         uint8 result = CYRET_SUCCESS;
 576:Generated_Source\PSoC4/CAN_TX_RX_func.c **** 
 577:Generated_Source\PSoC4/CAN_TX_RX_func.c ****         #if (CY_PSOC3 || CY_PSOC5)
 578:Generated_Source\PSoC4/CAN_TX_RX_func.c ****             if ((CAN_TX[7u].txcmd.byte[0u] & CAN_TX_REQUEST_PENDING) != 0u)
 579:Generated_Source\PSoC4/CAN_TX_RX_func.c ****         #else  /* CY_PSOC4 */
 580:Generated_Source\PSoC4/CAN_TX_RX_func.c ****             if ((CAN_TX_CMD_REG(7u) & CAN_TX_REQUEST_PENDING) != 0u)
 581:Generated_Source\PSoC4/CAN_TX_RX_func.c ****         #endif /* CY_PSOC3 || CY_PSOC5 */
 582:Generated_Source\PSoC4/CAN_TX_RX_func.c ****             {
 583:Generated_Source\PSoC4/CAN_TX_RX_func.c ****                 result = CAN_FAIL;
 584:Generated_Source\PSoC4/CAN_TX_RX_func.c ****             }
 585:Generated_Source\PSoC4/CAN_TX_RX_func.c ****             else
 586:Generated_Source\PSoC4/CAN_TX_RX_func.c ****             {
 587:Generated_Source\PSoC4/CAN_TX_RX_func.c ****                 /* `#START MESSAGE_7_TRASMITTED` */
 588:Generated_Source\PSoC4/CAN_TX_RX_func.c **** 
 589:Generated_Source\PSoC4/CAN_TX_RX_func.c ****                 /* `#END` */
 590:Generated_Source\PSoC4/CAN_TX_RX_func.c **** 
 591:Generated_Source\PSoC4/CAN_TX_RX_func.c ****                 #ifdef CAN_SEND_MSG_7_CALLBACK
 592:Generated_Source\PSoC4/CAN_TX_RX_func.c ****                     CAN_SendMsg_7_Callback();
 593:Generated_Source\PSoC4/CAN_TX_RX_func.c ****                 #endif /* CAN_SEND_MSG_7_CALLBACK */
 594:Generated_Source\PSoC4/CAN_TX_RX_func.c **** 
 595:Generated_Source\PSoC4/CAN_TX_RX_func.c ****                 CY_SET_REG32(CAN_TX_CMD_PTR(7u),
 596:Generated_Source\PSoC4/CAN_TX_RX_func.c ****                 CY_GET_REG32(CAN_TX_CMD_PTR(7u)) | CAN_SEND_MESSAGE);
 597:Generated_Source\PSoC4/CAN_TX_RX_func.c ****             }
 598:Generated_Source\PSoC4/CAN_TX_RX_func.c **** 
 599:Generated_Source\PSoC4/CAN_TX_RX_func.c ****         return (result);
 600:Generated_Source\PSoC4/CAN_TX_RX_func.c ****     }
 601:Generated_Source\PSoC4/CAN_TX_RX_func.c **** #endif /* CAN_TX7_FUNC_ENABLE */
 602:Generated_Source\PSoC4/CAN_TX_RX_func.c **** 
 603:Generated_Source\PSoC4/CAN_TX_RX_func.c **** 
 604:Generated_Source\PSoC4/CAN_TX_RX_func.c **** /*******************************************************************************
 605:Generated_Source\PSoC4/CAN_TX_RX_func.c **** * FUNCTION NAME:   CAN_ReceiveMsg
 606:Generated_Source\PSoC4/CAN_TX_RX_func.c **** ********************************************************************************
 607:Generated_Source\PSoC4/CAN_TX_RX_func.c **** *
 608:Generated_Source\PSoC4/CAN_TX_RX_func.c **** * Summary:
 609:Generated_Source\PSoC4/CAN_TX_RX_func.c **** *  This function is the entry point to Receive Message Interrupt for Basic
 610:Generated_Source\PSoC4/CAN_TX_RX_func.c **** *  mailboxes. Clears the Receive particular Message interrupt flag. Generated
 611:Generated_Source\PSoC4/CAN_TX_RX_func.c **** *  only if one of the Receive mailboxes is designed as Basic.
 612:Generated_Source\PSoC4/CAN_TX_RX_func.c **** *
 613:Generated_Source\PSoC4/CAN_TX_RX_func.c **** * Parameters:
 614:Generated_Source\PSoC4/CAN_TX_RX_func.c **** *  rxMailbox: The mailbox number that trig Receive Message Interrupt.
 615:Generated_Source\PSoC4/CAN_TX_RX_func.c **** *
 616:Generated_Source\PSoC4/CAN_TX_RX_func.c **** * Return:
 617:Generated_Source\PSoC4/CAN_TX_RX_func.c **** *  None.
 618:Generated_Source\PSoC4/CAN_TX_RX_func.c **** *
ARM GAS  C:\Users\HENRYA~1\AppData\Local\Temp\cc3TD2Ln.s 			page 19


 619:Generated_Source\PSoC4/CAN_TX_RX_func.c **** * Reentrant:
 620:Generated_Source\PSoC4/CAN_TX_RX_func.c **** *  Depends on the Customer code.
 621:Generated_Source\PSoC4/CAN_TX_RX_func.c **** *
 622:Generated_Source\PSoC4/CAN_TX_RX_func.c **** *******************************************************************************/
 623:Generated_Source\PSoC4/CAN_TX_RX_func.c **** void CAN_ReceiveMsg(uint8 rxMailbox) 
 624:Generated_Source\PSoC4/CAN_TX_RX_func.c **** {
 398              		.loc 1 624 0
 399              		.cfi_startproc
 400              	.LVL31:
 625:Generated_Source\PSoC4/CAN_TX_RX_func.c ****     #if (CY_PSOC3 || CY_PSOC5)
 626:Generated_Source\PSoC4/CAN_TX_RX_func.c ****         if ((CAN_RX[rxMailbox].rxcmd.byte[0u] & CAN_RX_ACK_MSG) != 0u)
 627:Generated_Source\PSoC4/CAN_TX_RX_func.c ****     #else  /* CY_PSOC4 */
 628:Generated_Source\PSoC4/CAN_TX_RX_func.c ****         if ((CAN_RX_CMD_REG(rxMailbox) & CAN_RX_ACK_MSG) != 0u)
 401              		.loc 1 628 0
 402 0000 4001     		lsl	r0, r0, #5
 403              	.LVL32:
 404 0002 054B     		ldr	r3, .L36
 405 0004 9C46     		mov	ip, r3
 406 0006 6044     		add	r0, r0, ip
 407 0008 0368     		ldr	r3, [r0]
 408 000a DB07     		lsl	r3, r3, #31
 409 000c 03D5     		bpl	.L34
 629:Generated_Source\PSoC4/CAN_TX_RX_func.c ****     #endif /* CY_PSOC3 || CY_PSOC5 */
 630:Generated_Source\PSoC4/CAN_TX_RX_func.c ****         {
 631:Generated_Source\PSoC4/CAN_TX_RX_func.c ****             /* `#START MESSAGE_BASIC_RECEIVED` */
 632:Generated_Source\PSoC4/CAN_TX_RX_func.c **** 
 633:Generated_Source\PSoC4/CAN_TX_RX_func.c ****             /* `#END` */
 634:Generated_Source\PSoC4/CAN_TX_RX_func.c **** 
 635:Generated_Source\PSoC4/CAN_TX_RX_func.c ****             #ifdef CAN_RECEIVE_MSG_CALLBACK
 636:Generated_Source\PSoC4/CAN_TX_RX_func.c ****                 CAN_ReceiveMsg_Callback();
 637:Generated_Source\PSoC4/CAN_TX_RX_func.c ****             #endif /* CAN_RECEIVE_MSG_CALLBACK */
 638:Generated_Source\PSoC4/CAN_TX_RX_func.c **** 
 639:Generated_Source\PSoC4/CAN_TX_RX_func.c ****             #if (CY_PSOC3 || CY_PSOC5)
 640:Generated_Source\PSoC4/CAN_TX_RX_func.c ****                 CAN_RX[rxMailbox].rxcmd.byte[0u] |= CAN_RX_ACK_MSG;
 641:Generated_Source\PSoC4/CAN_TX_RX_func.c ****             #else  /* CY_PSOC4 */
 642:Generated_Source\PSoC4/CAN_TX_RX_func.c ****                 CAN_RX_CMD_REG(rxMailbox) |= CAN_RX_ACK_MSG;
 410              		.loc 1 642 0
 411 000e 0268     		ldr	r2, [r0]
 412 0010 0123     		mov	r3, #1
 413 0012 1343     		orr	r3, r2
 414 0014 0360     		str	r3, [r0]
 415              	.L34:
 643:Generated_Source\PSoC4/CAN_TX_RX_func.c ****             #endif /* CY_PSOC3 || CY_PSOC5 */
 644:Generated_Source\PSoC4/CAN_TX_RX_func.c ****         }
 645:Generated_Source\PSoC4/CAN_TX_RX_func.c **** }
 416              		.loc 1 645 0
 417              		@ sp needed
 418 0016 7047     		bx	lr
 419              	.L37:
 420              		.align	2
 421              	.L36:
 422 0018 A0002E40 		.word	1076756640
 423              		.cfi_endproc
 424              	.LFE4:
 425              		.size	CAN_ReceiveMsg, .-CAN_ReceiveMsg
 426              		.section	.text.CAN_ReceiveMsg0,"ax",%progbits
 427              		.align	2
ARM GAS  C:\Users\HENRYA~1\AppData\Local\Temp\cc3TD2Ln.s 			page 20


 428              		.global	CAN_ReceiveMsg0
 429              		.code	16
 430              		.thumb_func
 431              		.type	CAN_ReceiveMsg0, %function
 432              	CAN_ReceiveMsg0:
 433              	.LFB5:
 646:Generated_Source\PSoC4/CAN_TX_RX_func.c **** 
 647:Generated_Source\PSoC4/CAN_TX_RX_func.c **** 
 648:Generated_Source\PSoC4/CAN_TX_RX_func.c **** #if (CAN_RX0_FUNC_ENABLE)
 649:Generated_Source\PSoC4/CAN_TX_RX_func.c ****     /*******************************************************************************
 650:Generated_Source\PSoC4/CAN_TX_RX_func.c ****     * FUNCTION NAME:   CAN_ReceiveMsg0
 651:Generated_Source\PSoC4/CAN_TX_RX_func.c ****     ********************************************************************************
 652:Generated_Source\PSoC4/CAN_TX_RX_func.c ****     *
 653:Generated_Source\PSoC4/CAN_TX_RX_func.c ****     * Summary:
 654:Generated_Source\PSoC4/CAN_TX_RX_func.c ****     *  This function is the entry point to Receive Message 0 Interrupt. Clears the
 655:Generated_Source\PSoC4/CAN_TX_RX_func.c ****     *  Receive Message 0 interrupt flag. Generated only for the Receive mailbox
 656:Generated_Source\PSoC4/CAN_TX_RX_func.c ****     *  designed as Full.
 657:Generated_Source\PSoC4/CAN_TX_RX_func.c ****     *
 658:Generated_Source\PSoC4/CAN_TX_RX_func.c ****     * Parameters:
 659:Generated_Source\PSoC4/CAN_TX_RX_func.c ****     *  None.
 660:Generated_Source\PSoC4/CAN_TX_RX_func.c ****     *
 661:Generated_Source\PSoC4/CAN_TX_RX_func.c ****     * Return:
 662:Generated_Source\PSoC4/CAN_TX_RX_func.c ****     *  None.
 663:Generated_Source\PSoC4/CAN_TX_RX_func.c ****     *
 664:Generated_Source\PSoC4/CAN_TX_RX_func.c ****     * Reentrant:
 665:Generated_Source\PSoC4/CAN_TX_RX_func.c ****     *  Depends on the Customer code.
 666:Generated_Source\PSoC4/CAN_TX_RX_func.c ****     *
 667:Generated_Source\PSoC4/CAN_TX_RX_func.c ****     *******************************************************************************/
 668:Generated_Source\PSoC4/CAN_TX_RX_func.c ****     void CAN_ReceiveMsg0(void) 
 669:Generated_Source\PSoC4/CAN_TX_RX_func.c ****     {
 434              		.loc 1 669 0
 435              		.cfi_startproc
 670:Generated_Source\PSoC4/CAN_TX_RX_func.c ****         /* `#START MESSAGE_0_RECEIVED` */
 671:Generated_Source\PSoC4/CAN_TX_RX_func.c ****         dato_recibido=CAN_RX_DATA_BYTE(0,0);
 436              		.loc 1 671 0
 437 0000 054B     		ldr	r3, .L39
 438 0002 1B68     		ldr	r3, [r3]
 439 0004 1B0E     		lsr	r3, r3, #24
 440 0006 054A     		ldr	r2, .L39+4
 441 0008 1370     		strb	r3, [r2]
 672:Generated_Source\PSoC4/CAN_TX_RX_func.c ****         /* `#END` */
 673:Generated_Source\PSoC4/CAN_TX_RX_func.c **** 
 674:Generated_Source\PSoC4/CAN_TX_RX_func.c ****         #ifdef CAN_RECEIVE_MSG_0_CALLBACK
 675:Generated_Source\PSoC4/CAN_TX_RX_func.c ****             CAN_ReceiveMsg_0_Callback();
 676:Generated_Source\PSoC4/CAN_TX_RX_func.c ****         #endif /* CAN_RECEIVE_MSG_0_CALLBACK */
 677:Generated_Source\PSoC4/CAN_TX_RX_func.c **** 
 678:Generated_Source\PSoC4/CAN_TX_RX_func.c ****         CAN_RX_ACK_MESSAGE(0u);
 442              		.loc 1 678 0
 443 000a 054A     		ldr	r2, .L39+8
 444 000c 1168     		ldr	r1, [r2]
 445 000e 0123     		mov	r3, #1
 446 0010 0B43     		orr	r3, r1
 447 0012 1360     		str	r3, [r2]
 679:Generated_Source\PSoC4/CAN_TX_RX_func.c ****     }
 448              		.loc 1 679 0
 449              		@ sp needed
 450 0014 7047     		bx	lr
ARM GAS  C:\Users\HENRYA~1\AppData\Local\Temp\cc3TD2Ln.s 			page 21


 451              	.L40:
 452 0016 C046     		.align	2
 453              	.L39:
 454 0018 A8002E40 		.word	1076756648
 455 001c 00000000 		.word	dato_recibido
 456 0020 A0002E40 		.word	1076756640
 457              		.cfi_endproc
 458              	.LFE5:
 459              		.size	CAN_ReceiveMsg0, .-CAN_ReceiveMsg0
 460              		.text
 461              	.Letext0:
 462              		.file 2 "Generated_Source\\PSoC4\\cytypes.h"
 463              		.file 3 "Generated_Source\\PSoC4\\CAN.h"
 464              		.file 4 "Generated_Source\\PSoC4\\CyLib.h"