ARM GAS  C:\Users\HENRYA~1\AppData\Local\Temp\cciShwZv.s 			page 1


   1              		.syntax unified
   2              		.cpu cortex-m0
   3              		.fpu softvfp
   4              		.eabi_attribute 20, 1
   5              		.eabi_attribute 21, 1
   6              		.eabi_attribute 23, 3
   7              		.eabi_attribute 24, 1
   8              		.eabi_attribute 25, 1
   9              		.eabi_attribute 26, 1
  10              		.eabi_attribute 30, 1
  11              		.eabi_attribute 34, 0
  12              		.eabi_attribute 18, 4
  13              		.thumb
  14              		.syntax unified
  15              		.file	"main.c"
  16              		.text
  17              	.Ltext0:
  18              		.cfi_sections	.debug_frame
  19              		.section	.text.Serial_Interrupt,"ax",%progbits
  20              		.align	2
  21              		.global	Serial_Interrupt
  22              		.code	16
  23              		.thumb_func
  24              		.type	Serial_Interrupt, %function
  25              	Serial_Interrupt:
  26              	.LFB50:
  27              		.file 1 "main.c"
   1:main.c        **** #include <project.h>
   2:main.c        **** #include <stdio.h>
   3:main.c        **** #include <stdlib.h>
   4:main.c        **** #include <math.h>
   5:main.c        **** #include <protocolo can.h>
   6:main.c        **** //Import Libraries
   7:main.c        **** //Global Variables
   8:main.c        **** uint8 mailbox0[8];
   9:main.c        **** uint8 mailbox1[8];
  10:main.c        **** uint8 mailbox2[8];
  11:main.c        **** uint8 dato_enviado[8];
  12:main.c        **** uint8 dato_enviado_1[8];
  13:main.c        **** char dist=0;
  14:main.c        **** int16 conta=0;
  15:main.c        **** int cantidadM=0;
  16:main.c        **** //Variables AE
  17:main.c        **** int Max_Conta=5;
  18:main.c        **** float Amplitud_H=0.0;
  19:main.c        **** float Offset_H=0.833;
  20:main.c        **** float Fase_H=0.0;
  21:main.c        **** float Amplitud_V=0.0;
  22:main.c        **** float Offset_V=0.833;
  23:main.c        **** float Fase_V=0.0;
  24:main.c        **** float ampli_aux=0.0;
  25:main.c        **** float off_aux=0.0;
  26:main.c        **** float pha_aux=0.0;
  27:main.c        **** int flag=0;
  28:main.c        **** float L_actual=0.0;
  29:main.c        **** float L_anterior=0.0;
  30:main.c        **** int Cantidad_Sensores=0;
ARM GAS  C:\Users\HENRYA~1\AppData\Local\Temp\cciShwZv.s 			page 2


  31:main.c        **** int conta_H=0;
  32:main.c        **** 
  33:main.c        **** double randd() {
  34:main.c        ****   return (double)rand()/((double)RAND_MAX + 1);
  35:main.c        **** }
  36:main.c        **** 
  37:main.c        **** double random_amplitud(){
  38:main.c        ****     return randd();
  39:main.c        **** }
  40:main.c        **** 
  41:main.c        **** double random_Fase(){
  42:main.c        ****     float r=0.0;
  43:main.c        ****     r=randd();
  44:main.c        ****     if(r>0.5){return randd();}
  45:main.c        ****     else{return randd()*-1;}
  46:main.c        **** }
  47:main.c        **** 
  48:main.c        **** double random_Offset(){
  49:main.c        ****     float r=0.0;
  50:main.c        ****     r=randd();
  51:main.c        ****     r=r*0.5;
  52:main.c        ****     r=r+0.3;
  53:main.c        ****     return r;
  54:main.c        **** }
  55:main.c        **** 
  56:main.c        **** void movimiento(unsigned int dirr,int mov){
  57:main.c        ****     char byteh,bytel;
  58:main.c        ****     byteh= mov >> 8;
  59:main.c        ****     bytel=mov;
  60:main.c        ****     dato_enviado[0]=VER ;//verificacion
  61:main.c        ****     dato_enviado[1]=dirr ;//dir
  62:main.c        ****     dato_enviado[2]=ESCRITURA ;//operacion
  63:main.c        ****     dato_enviado[3]=MOTOR;//lugar
  64:main.c        ****     dato_enviado[4]= byteh ;  //dato
  65:main.c        ****     dato_enviado[5]= bytel ;  //dato
  66:main.c        ****     CAN_SendMsg0(); 
  67:main.c        ****     CyDelay(25);    
  68:main.c        **** }
  69:main.c        **** 
  70:main.c        **** void Send_Angle(int datas,int Conta3){ 
  71:main.c        ****     int8 datoL=datas;
  72:main.c        ****     int8 datoH=datas>>8;  
  73:main.c        ****     dato_enviado[0]=VER2;//verificacion
  74:main.c        ****     dato_enviado[1]=Conta3;//dir
  75:main.c        ****     dato_enviado[2]=Conta3;//dir
  76:main.c        ****     dato_enviado[3]=ANGLE;
  77:main.c        ****     dato_enviado[4]=0;//lugar
  78:main.c        ****     dato_enviado[5]=0;  //dato... en este caso direcion para asignar
  79:main.c        ****     dato_enviado[6]=0;
  80:main.c        ****     dato_enviado[7]=Conta3;
  81:main.c        ****     CAN_SendMsg0(); 
  82:main.c        ****     CyDelay(50);
  83:main.c        **** }
  84:main.c        **** 
  85:main.c        **** void Enviar_Parametros(float Amplitud,float Phase,float Offset,int Orientacion){
  86:main.c        ****     //Convertir el Valor a entero para ser enviado
  87:main.c        ****     int Amp_env=(int)fabs(Amplitud*10000);
ARM GAS  C:\Users\HENRYA~1\AppData\Local\Temp\cciShwZv.s 			page 3


  88:main.c        ****     int Phase_env=(int)fabs(Phase*10000);
  89:main.c        ****     int Offset_env=(int)fabs(Offset*10000);
  90:main.c        ****     //Enviar datos
  91:main.c        ****     dato_enviado_1[0]=VER_M1;
  92:main.c        ****     dato_enviado_1[1]=Orientacion;
  93:main.c        ****     //Convertir Amplitud
  94:main.c        ****     uint8 datoL=Amp_env;
  95:main.c        ****     uint8 datoH=Amp_env>>8;
  96:main.c        ****     uint8 Aux=0;
  97:main.c        ****     if(Amplitud<0.0){
  98:main.c        ****         Aux=(1<<7);
  99:main.c        ****         datoH=datoH+Aux;
 100:main.c        ****     }
 101:main.c        ****     else{
 102:main.c        ****         Aux=(0<<7);
 103:main.c        ****         datoH=datoH+Aux;    
 104:main.c        ****     }
 105:main.c        ****     dato_enviado_1[2]=datoL;
 106:main.c        ****     dato_enviado_1[3]=datoH;
 107:main.c        ****     //Convertir Fase
 108:main.c        ****     datoL=Phase_env;
 109:main.c        ****     datoH=Phase_env>>8;
 110:main.c        ****     if(Phase<0.0){
 111:main.c        ****         Aux=(1<<7);
 112:main.c        ****         datoH=datoH+Aux;
 113:main.c        ****     }
 114:main.c        ****     else{
 115:main.c        ****         Aux=(0<<7);
 116:main.c        ****         datoH=datoH+Aux;    
 117:main.c        ****     }
 118:main.c        ****     dato_enviado_1[4]=datoL;
 119:main.c        ****     dato_enviado_1[5]=datoH;
 120:main.c        ****     //Convertir Offset
 121:main.c        ****     datoL=Offset_env;
 122:main.c        ****     datoH=Offset_env>>8;
 123:main.c        ****     if(Offset<0.0){
 124:main.c        ****         Aux=(1<<7);
 125:main.c        ****         datoH=datoH+Aux;
 126:main.c        ****     }
 127:main.c        ****     else{
 128:main.c        ****         Aux=(0<<7);
 129:main.c        ****         datoH=datoH+Aux;    
 130:main.c        ****     }
 131:main.c        ****     dato_enviado_1[6]=datoL;
 132:main.c        ****     dato_enviado_1[7]=datoH;    
 133:main.c        ****     CAN_SendMsg1();
 134:main.c        ****     CyDelay(25);
 135:main.c        **** }
 136:main.c        **** 
 137:main.c        **** 
 138:main.c        **** 
 139:main.c        **** double Medir_dist(){
 140:main.c        ****     int i=0;
 141:main.c        ****     float longitud=0.0;
 142:main.c        ****     for(i=1;i<10;i++){
 143:main.c        ****         longitud=dist+longitud;
 144:main.c        ****         CyDelay(50);
ARM GAS  C:\Users\HENRYA~1\AppData\Local\Temp\cciShwZv.s 			page 4


 145:main.c        ****     }
 146:main.c        ****     longitud=longitud/10;
 147:main.c        ****     return longitud;
 148:main.c        **** }
 149:main.c        **** 
 150:main.c        **** //Interrupt's
 151:main.c        **** void Recibe_mail_0(){
 152:main.c        **** if(mailbox0[0]==VER){
 153:main.c        ****             switch(mailbox0[2]){
 154:main.c        ****             ///////////////////////////////////////////////////////
 155:main.c        ****             case ESCRITURA:{ 
 156:main.c        ****                 switch(mailbox0[3]){//////////+6+++++++++++++
 157:main.c        ****                     case CANTIDAD_MOD: 
 158:main.c        ****                             cantidadM=mailbox0[4];                           
 159:main.c        ****                     break;
 160:main.c        ****                     case START:
 161:main.c        ****                         
 162:main.c        ****                     break;
 163:main.c        ****                 }
 164:main.c        ****             }                                            
 165:main.c        ****         }    
 166:main.c        **** }
 167:main.c        **** if(mailbox0[0]==VER2){
 168:main.c        ****                 switch(mailbox0[3]){
 169:main.c        ****                 ///////////////////////////////////////////////////////
 170:main.c        ****                 case ANGLE:{
 171:main.c        ****                     int Contador=mailbox0[7];
 172:main.c        ****                     if(Contador>=cantidadM){
 173:main.c        ****                         //Enviar_Parametros(amplitud,fase,offset,V);
 174:main.c        ****                     } 
 175:main.c        ****                 }
 176:main.c        ****                 break;}
 177:main.c        ****             } 
 178:main.c        **** }
 179:main.c        **** 
 180:main.c        **** void Recibe_Mail_2(){
 181:main.c        ****     if(mailbox2[0]==SENSORES){
 182:main.c        ****         //Mailbox2[1] Derecha
 183:main.c        ****         //Mailbox2[2] Frente
 184:main.c        ****         //Mailbox2[3] Izquierda
 185:main.c        ****         if(mailbox2[1]==0&&mailbox2[2]==0&&mailbox2[3]==0)      {Cantidad_Sensores=0;}   //Normal
 186:main.c        ****         else if(mailbox2[1]==0&&mailbox2[2]==0&&mailbox2[3]==1) {Cantidad_Sensores=1;}   //Izquierd
 187:main.c        ****         else if(mailbox2[1]==0&&mailbox2[2]==1&&mailbox2[3]==0) {Cantidad_Sensores=2;}   //Frontal
 188:main.c        ****         else if(mailbox2[1]==0&&mailbox2[2]==1&&mailbox2[3]==1) {Cantidad_Sensores=3;}   //Frontal 
 189:main.c        ****         else if(mailbox2[1]==1&&mailbox2[2]==0&&mailbox2[3]==0) {Cantidad_Sensores=4;}   //Derecha
 190:main.c        ****         else if(mailbox2[1]==1&&mailbox2[2]==0&&mailbox2[3]==1) {Cantidad_Sensores=5;}   //Derecha 
 191:main.c        ****         else if(mailbox2[1]==1&&mailbox2[2]==1&&mailbox2[3]==0) {Cantidad_Sensores=6;}   //Frontal 
 192:main.c        ****         else if(mailbox2[1]==1&&mailbox2[2]==1&&mailbox2[3]==1) {Cantidad_Sensores=7;}   //Todos
 193:main.c        ****         else                                                    {Cantidad_Sensores=0;}   //Normal
 194:main.c        ****     }
 195:main.c        **** }
 196:main.c        **** 
 197:main.c        **** void Left_Move(){
 198:main.c        ****     Send_Angle(0,200);
 199:main.c        ****     int  i=0;
 200:main.c        ****     int j=0;
 201:main.c        ****     for(i=0;i<cantidadM;i++){ //Alineación
ARM GAS  C:\Users\HENRYA~1\AppData\Local\Temp\cciShwZv.s 			page 5


 202:main.c        ****         movimiento(i,512);
 203:main.c        ****         }
 204:main.c        ****     CyDelay(2000);
 205:main.c        ****     movimiento(cantidadM,675);//Ancla Trasera
 206:main.c        ****     CyDelay(2000);
 207:main.c        ****     //Giro
 208:main.c        ****     for(j=0;j<1;j++){
 209:main.c        ****         for(i=2;i<cantidadM;i=i+4){ 
 210:main.c        ****             movimiento(i,650);
 211:main.c        ****             movimiento(i+1,750);
 212:main.c        ****             }
 213:main.c        ****         movimiento(cantidadM,512);//Ancla Trasera
 214:main.c        ****         CyDelay(2000);
 215:main.c        ****         movimiento(0,350);//Ancla Delantera
 216:main.c        ****         CyDelay(2000);
 217:main.c        ****         for(i=2;i<cantidadM;i=i+4){ //Alineación
 218:main.c        ****             movimiento(i,512);
 219:main.c        ****             movimiento(i+1,512);
 220:main.c        ****         }    
 221:main.c        ****         CyDelay(2000);
 222:main.c        ****     }         
 223:main.c        ****     for(i=0;i<cantidadM;i++){ //Alineación
 224:main.c        ****         movimiento(i,512);
 225:main.c        ****         }
 226:main.c        ****     CyDelay(2000); 
 227:main.c        ****     Send_Angle(0,0);
 228:main.c        **** }
 229:main.c        **** 
 230:main.c        **** void Right_Move(){
 231:main.c        ****     Send_Angle(0,200);
 232:main.c        ****     int  i=0;
 233:main.c        ****     int j=0;
 234:main.c        ****     for(i=0;i<cantidadM;i++){ //Alineación
 235:main.c        ****         movimiento(i,512);
 236:main.c        ****         }
 237:main.c        ****     CyDelay(2000);
 238:main.c        ****     movimiento(cantidadM,675);//Ancla Trasera
 239:main.c        ****     CyDelay(2000);
 240:main.c        ****     //Giro
 241:main.c        ****     for(j=0;j<1;j++){
 242:main.c        ****         for(i=2;i<cantidadM;i=i+4){ 
 243:main.c        ****             movimiento(i,374);
 244:main.c        ****             movimiento(i+1,274);
 245:main.c        ****             }
 246:main.c        ****         movimiento(cantidadM,512);//Ancla Trasera
 247:main.c        ****         CyDelay(2000);
 248:main.c        ****         movimiento(0,350);//Ancla Delantera
 249:main.c        ****         CyDelay(2000);
 250:main.c        ****         for(i=2;i<cantidadM;i=i+4){ //Alineación
 251:main.c        ****             movimiento(i,512);
 252:main.c        ****             movimiento(i+1,512);
 253:main.c        ****         }    
 254:main.c        ****         CyDelay(2000);
 255:main.c        ****     }         
 256:main.c        ****     for(i=0;i<cantidadM;i++){ //Alineación
 257:main.c        ****         movimiento(i,512);
 258:main.c        ****         }
ARM GAS  C:\Users\HENRYA~1\AppData\Local\Temp\cciShwZv.s 			page 6


 259:main.c        ****     CyDelay(2000); 
 260:main.c        ****     Send_Angle(0,0);
 261:main.c        **** }
 262:main.c        **** 
 263:main.c        **** void Select_Move(){
 264:main.c        ****     Send_Angle(0,200);
 265:main.c        ****     int  i=0;
 266:main.c        ****     for(i=0;i<cantidadM;i++){ //Alineación
 267:main.c        ****         movimiento(i,512);
 268:main.c        ****         }
 269:main.c        ****     CyDelay(2000);
 270:main.c        ****     movimiento(2,650);
 271:main.c        ****     CyDelay(4000);
 272:main.c        ****     double a=Medir_dist();
 273:main.c        ****     movimiento(2,374);
 274:main.c        ****     double b=Medir_dist();
 275:main.c        ****     CyDelay(4000);
 276:main.c        ****     if(a<b){
 277:main.c        ****         Left_Move();    
 278:main.c        ****     }
 279:main.c        ****     else{
 280:main.c        ****         Right_Move();
 281:main.c        ****     }
 282:main.c        **** }
 283:main.c        **** 
 284:main.c        **** CY_ISR(Serial_Interrupt){
  28              		.loc 1 284 0
  29              		.cfi_startproc
  30              		@ args = 0, pretend = 0, frame = 0
  31              		@ frame_needed = 0, uses_anonymous_args = 0
  32 0000 10B5     		push	{r4, lr}
  33              		.cfi_def_cfa_offset 8
  34              		.cfi_offset 4, -8
  35              		.cfi_offset 14, -4
 285:main.c        ****     dist=SENSOR_U_GetChar();
  36              		.loc 1 285 0
  37 0002 FFF7FEFF 		bl	SENSOR_U_GetChar
  38              	.LVL0:
  39 0006 014B     		ldr	r3, .L2
  40 0008 1870     		strb	r0, [r3]
 286:main.c        **** }
  41              		.loc 1 286 0
  42              		@ sp needed
  43 000a 10BD     		pop	{r4, pc}
  44              	.L3:
  45              		.align	2
  46              	.L2:
  47 000c 00000000 		.word	.LANCHOR0
  48              		.cfi_endproc
  49              	.LFE50:
  50              		.size	Serial_Interrupt, .-Serial_Interrupt
  51              		.global	__aeabi_i2d
  52              		.global	__aeabi_dmul
  53              		.section	.text.randd,"ax",%progbits
  54              		.align	2
  55              		.global	randd
  56              		.code	16
ARM GAS  C:\Users\HENRYA~1\AppData\Local\Temp\cciShwZv.s 			page 7


  57              		.thumb_func
  58              		.type	randd, %function
  59              	randd:
  60              	.LFB37:
  33:main.c        ****   return (double)rand()/((double)RAND_MAX + 1);
  61              		.loc 1 33 0
  62              		.cfi_startproc
  63              		@ args = 0, pretend = 0, frame = 0
  64              		@ frame_needed = 0, uses_anonymous_args = 0
  65 0000 10B5     		push	{r4, lr}
  66              		.cfi_def_cfa_offset 8
  67              		.cfi_offset 4, -8
  68              		.cfi_offset 14, -4
  34:main.c        **** }
  69              		.loc 1 34 0
  70 0002 FFF7FEFF 		bl	rand
  71              	.LVL1:
  72 0006 FFF7FEFF 		bl	__aeabi_i2d
  73              	.LVL2:
  74 000a 0022     		movs	r2, #0
  75 000c F823     		movs	r3, #248
  76 000e 9B05     		lsls	r3, r3, #22
  77 0010 FFF7FEFF 		bl	__aeabi_dmul
  78              	.LVL3:
  35:main.c        **** 
  79              		.loc 1 35 0
  80              		@ sp needed
  81 0014 10BD     		pop	{r4, pc}
  82              		.cfi_endproc
  83              	.LFE37:
  84              		.size	randd, .-randd
  85 0016 C046     		.section	.text.random_amplitud,"ax",%progbits
  86              		.align	2
  87              		.global	random_amplitud
  88              		.code	16
  89              		.thumb_func
  90              		.type	random_amplitud, %function
  91              	random_amplitud:
  92              	.LFB38:
  37:main.c        ****     return randd();
  93              		.loc 1 37 0
  94              		.cfi_startproc
  95              		@ args = 0, pretend = 0, frame = 0
  96              		@ frame_needed = 0, uses_anonymous_args = 0
  97 0000 10B5     		push	{r4, lr}
  98              		.cfi_def_cfa_offset 8
  99              		.cfi_offset 4, -8
 100              		.cfi_offset 14, -4
  38:main.c        **** }
 101              		.loc 1 38 0
 102 0002 FFF7FEFF 		bl	randd
 103              	.LVL4:
  39:main.c        **** 
 104              		.loc 1 39 0
 105              		@ sp needed
 106 0006 10BD     		pop	{r4, pc}
 107              		.cfi_endproc
ARM GAS  C:\Users\HENRYA~1\AppData\Local\Temp\cciShwZv.s 			page 8


 108              	.LFE38:
 109              		.size	random_amplitud, .-random_amplitud
 110              		.global	__aeabi_d2f
 111              		.global	__aeabi_fcmpgt
 112              		.section	.text.random_Fase,"ax",%progbits
 113              		.align	2
 114              		.global	random_Fase
 115              		.code	16
 116              		.thumb_func
 117              		.type	random_Fase, %function
 118              	random_Fase:
 119              	.LFB39:
  41:main.c        ****     float r=0.0;
 120              		.loc 1 41 0
 121              		.cfi_startproc
 122              		@ args = 0, pretend = 0, frame = 0
 123              		@ frame_needed = 0, uses_anonymous_args = 0
 124 0000 10B5     		push	{r4, lr}
 125              		.cfi_def_cfa_offset 8
 126              		.cfi_offset 4, -8
 127              		.cfi_offset 14, -4
 128              	.LVL5:
  43:main.c        ****     if(r>0.5){return randd();}
 129              		.loc 1 43 0
 130 0002 FFF7FEFF 		bl	randd
 131              	.LVL6:
 132 0006 FFF7FEFF 		bl	__aeabi_d2f
 133              	.LVL7:
  44:main.c        ****     else{return randd()*-1;}
 134              		.loc 1 44 0
 135 000a FC21     		movs	r1, #252
 136 000c 8905     		lsls	r1, r1, #22
 137 000e FFF7FEFF 		bl	__aeabi_fcmpgt
 138              	.LVL8:
 139 0012 0028     		cmp	r0, #0
 140 0014 02D0     		beq	.L11
  44:main.c        ****     else{return randd()*-1;}
 141              		.loc 1 44 0 is_stmt 0 discriminator 1
 142 0016 FFF7FEFF 		bl	randd
 143              	.LVL9:
 144 001a 05E0     		b	.L9
 145              	.L11:
  45:main.c        **** }
 146              		.loc 1 45 0 is_stmt 1
 147 001c FFF7FEFF 		bl	randd
 148              	.LVL10:
 149 0020 8023     		movs	r3, #128
 150 0022 1B06     		lsls	r3, r3, #24
 151 0024 9C46     		mov	ip, r3
 152 0026 6144     		add	r1, r1, ip
 153              	.L9:
  46:main.c        **** 
 154              		.loc 1 46 0
 155              		@ sp needed
 156 0028 10BD     		pop	{r4, pc}
 157              		.cfi_endproc
 158              	.LFE39:
ARM GAS  C:\Users\HENRYA~1\AppData\Local\Temp\cciShwZv.s 			page 9


 159              		.size	random_Fase, .-random_Fase
 160              		.global	__aeabi_fmul
 161              		.global	__aeabi_f2d
 162              		.global	__aeabi_dadd
 163 002a C046     		.section	.text.random_Offset,"ax",%progbits
 164              		.align	2
 165              		.global	random_Offset
 166              		.code	16
 167              		.thumb_func
 168              		.type	random_Offset, %function
 169              	random_Offset:
 170              	.LFB40:
  48:main.c        ****     float r=0.0;
 171              		.loc 1 48 0
 172              		.cfi_startproc
 173              		@ args = 0, pretend = 0, frame = 0
 174              		@ frame_needed = 0, uses_anonymous_args = 0
 175 0000 10B5     		push	{r4, lr}
 176              		.cfi_def_cfa_offset 8
 177              		.cfi_offset 4, -8
 178              		.cfi_offset 14, -4
 179              	.LVL11:
  50:main.c        ****     r=r*0.5;
 180              		.loc 1 50 0
 181 0002 FFF7FEFF 		bl	randd
 182              	.LVL12:
 183 0006 FFF7FEFF 		bl	__aeabi_d2f
 184              	.LVL13:
  51:main.c        ****     r=r+0.3;
 185              		.loc 1 51 0
 186 000a FC21     		movs	r1, #252
 187 000c 8905     		lsls	r1, r1, #22
 188 000e FFF7FEFF 		bl	__aeabi_fmul
 189              	.LVL14:
  52:main.c        ****     return r;
 190              		.loc 1 52 0
 191 0012 FFF7FEFF 		bl	__aeabi_f2d
 192              	.LVL15:
 193 0016 044A     		ldr	r2, .L13
 194 0018 044B     		ldr	r3, .L13+4
 195 001a FFF7FEFF 		bl	__aeabi_dadd
 196              	.LVL16:
 197 001e FFF7FEFF 		bl	__aeabi_d2f
 198              	.LVL17:
  53:main.c        **** }
 199              		.loc 1 53 0
 200 0022 FFF7FEFF 		bl	__aeabi_f2d
 201              	.LVL18:
  54:main.c        **** 
 202              		.loc 1 54 0
 203              		@ sp needed
 204 0026 10BD     		pop	{r4, pc}
 205              	.L14:
 206              		.align	2
 207              	.L13:
 208 0028 33333333 		.word	858993459
 209 002c 3333D33F 		.word	1070805811
ARM GAS  C:\Users\HENRYA~1\AppData\Local\Temp\cciShwZv.s 			page 10


 210              		.cfi_endproc
 211              	.LFE40:
 212              		.size	random_Offset, .-random_Offset
 213              		.section	.text.movimiento,"ax",%progbits
 214              		.align	2
 215              		.global	movimiento
 216              		.code	16
 217              		.thumb_func
 218              		.type	movimiento, %function
 219              	movimiento:
 220              	.LFB41:
  56:main.c        ****     char byteh,bytel;
 221              		.loc 1 56 0
 222              		.cfi_startproc
 223              		@ args = 0, pretend = 0, frame = 0
 224              		@ frame_needed = 0, uses_anonymous_args = 0
 225              	.LVL19:
 226 0000 10B5     		push	{r4, lr}
 227              		.cfi_def_cfa_offset 8
 228              		.cfi_offset 4, -8
 229              		.cfi_offset 14, -4
  58:main.c        ****     bytel=mov;
 230              		.loc 1 58 0
 231 0002 0A12     		asrs	r2, r1, #8
 232              	.LVL20:
  60:main.c        ****     dato_enviado[1]=dirr ;//dir
 233              		.loc 1 60 0
 234 0004 074B     		ldr	r3, .L16
 235 0006 7F24     		movs	r4, #127
 236 0008 1C70     		strb	r4, [r3]
  61:main.c        ****     dato_enviado[2]=ESCRITURA ;//operacion
 237              		.loc 1 61 0
 238 000a 5870     		strb	r0, [r3, #1]
  62:main.c        ****     dato_enviado[3]=MOTOR;//lugar
 239              		.loc 1 62 0
 240 000c 0220     		movs	r0, #2
 241              	.LVL21:
 242 000e 9870     		strb	r0, [r3, #2]
  63:main.c        ****     dato_enviado[4]= byteh ;  //dato
 243              		.loc 1 63 0
 244 0010 0130     		adds	r0, r0, #1
 245 0012 D870     		strb	r0, [r3, #3]
  64:main.c        ****     dato_enviado[5]= bytel ;  //dato
 246              		.loc 1 64 0
 247 0014 1A71     		strb	r2, [r3, #4]
  65:main.c        ****     CAN_SendMsg0(); 
 248              		.loc 1 65 0
 249 0016 5971     		strb	r1, [r3, #5]
  66:main.c        ****     CyDelay(25);    
 250              		.loc 1 66 0
 251 0018 FFF7FEFF 		bl	CAN_SendMsg0
 252              	.LVL22:
  67:main.c        **** }
 253              		.loc 1 67 0
 254 001c 1920     		movs	r0, #25
 255 001e FFF7FEFF 		bl	CyDelay
 256              	.LVL23:
ARM GAS  C:\Users\HENRYA~1\AppData\Local\Temp\cciShwZv.s 			page 11


  68:main.c        **** 
 257              		.loc 1 68 0
 258              		@ sp needed
 259 0022 10BD     		pop	{r4, pc}
 260              	.L17:
 261              		.align	2
 262              	.L16:
 263 0024 00000000 		.word	dato_enviado
 264              		.cfi_endproc
 265              	.LFE41:
 266              		.size	movimiento, .-movimiento
 267              		.section	.text.Send_Angle,"ax",%progbits
 268              		.align	2
 269              		.global	Send_Angle
 270              		.code	16
 271              		.thumb_func
 272              		.type	Send_Angle, %function
 273              	Send_Angle:
 274              	.LFB42:
  70:main.c        ****     int8 datoL=datas;
 275              		.loc 1 70 0
 276              		.cfi_startproc
 277              		@ args = 0, pretend = 0, frame = 0
 278              		@ frame_needed = 0, uses_anonymous_args = 0
 279              	.LVL24:
 280 0000 10B5     		push	{r4, lr}
 281              		.cfi_def_cfa_offset 8
 282              		.cfi_offset 4, -8
 283              		.cfi_offset 14, -4
 284              	.LVL25:
  73:main.c        ****     dato_enviado[1]=Conta3;//dir
 285              		.loc 1 73 0
 286 0002 094B     		ldr	r3, .L19
 287 0004 8022     		movs	r2, #128
 288 0006 1A70     		strb	r2, [r3]
  74:main.c        ****     dato_enviado[2]=Conta3;//dir
 289              		.loc 1 74 0
 290 0008 C9B2     		uxtb	r1, r1
 291              	.LVL26:
 292 000a 5970     		strb	r1, [r3, #1]
  75:main.c        ****     dato_enviado[3]=ANGLE;
 293              		.loc 1 75 0
 294 000c 9970     		strb	r1, [r3, #2]
  76:main.c        ****     dato_enviado[4]=0;//lugar
 295              		.loc 1 76 0
 296 000e 653A     		subs	r2, r2, #101
 297 0010 DA70     		strb	r2, [r3, #3]
  77:main.c        ****     dato_enviado[5]=0;  //dato... en este caso direcion para asignar
 298              		.loc 1 77 0
 299 0012 0022     		movs	r2, #0
 300 0014 1A71     		strb	r2, [r3, #4]
  78:main.c        ****     dato_enviado[6]=0;
 301              		.loc 1 78 0
 302 0016 5A71     		strb	r2, [r3, #5]
  79:main.c        ****     dato_enviado[7]=Conta3;
 303              		.loc 1 79 0
 304 0018 9A71     		strb	r2, [r3, #6]
ARM GAS  C:\Users\HENRYA~1\AppData\Local\Temp\cciShwZv.s 			page 12


  80:main.c        ****     CAN_SendMsg0(); 
 305              		.loc 1 80 0
 306 001a D971     		strb	r1, [r3, #7]
  81:main.c        ****     CyDelay(50);
 307              		.loc 1 81 0
 308 001c FFF7FEFF 		bl	CAN_SendMsg0
 309              	.LVL27:
  82:main.c        **** }
 310              		.loc 1 82 0
 311 0020 3220     		movs	r0, #50
 312 0022 FFF7FEFF 		bl	CyDelay
 313              	.LVL28:
  83:main.c        **** 
 314              		.loc 1 83 0
 315              		@ sp needed
 316 0026 10BD     		pop	{r4, pc}
 317              	.L20:
 318              		.align	2
 319              	.L19:
 320 0028 00000000 		.word	dato_enviado
 321              		.cfi_endproc
 322              	.LFE42:
 323              		.size	Send_Angle, .-Send_Angle
 324              		.global	__aeabi_f2iz
 325              		.global	__aeabi_fcmplt
 326              		.section	.text.Enviar_Parametros,"ax",%progbits
 327              		.align	2
 328              		.global	Enviar_Parametros
 329              		.code	16
 330              		.thumb_func
 331              		.type	Enviar_Parametros, %function
 332              	Enviar_Parametros:
 333              	.LFB43:
  85:main.c        ****     //Convertir el Valor a entero para ser enviado
 334              		.loc 1 85 0
 335              		.cfi_startproc
 336              		@ args = 0, pretend = 0, frame = 16
 337              		@ frame_needed = 0, uses_anonymous_args = 0
 338              	.LVL29:
 339 0000 F0B5     		push	{r4, r5, r6, r7, lr}
 340              		.cfi_def_cfa_offset 20
 341              		.cfi_offset 4, -20
 342              		.cfi_offset 5, -16
 343              		.cfi_offset 6, -12
 344              		.cfi_offset 7, -8
 345              		.cfi_offset 14, -4
 346 0002 85B0     		sub	sp, sp, #20
 347              		.cfi_def_cfa_offset 40
 348 0004 0190     		str	r0, [sp, #4]
 349 0006 0291     		str	r1, [sp, #8]
 350 0008 0392     		str	r2, [sp, #12]
 351 000a 1F00     		movs	r7, r3
  87:main.c        ****     int Phase_env=(int)fabs(Phase*10000);
 352              		.loc 1 87 0
 353 000c 2749     		ldr	r1, .L31
 354              	.LVL30:
 355 000e FFF7FEFF 		bl	__aeabi_fmul
ARM GAS  C:\Users\HENRYA~1\AppData\Local\Temp\cciShwZv.s 			page 13


 356              	.LVL31:
 357 0012 4000     		lsls	r0, r0, #1
 358 0014 4008     		lsrs	r0, r0, #1
 359 0016 FFF7FEFF 		bl	__aeabi_f2iz
 360              	.LVL32:
 361 001a 0600     		movs	r6, r0
 362              	.LVL33:
  88:main.c        ****     int Offset_env=(int)fabs(Offset*10000);
 363              		.loc 1 88 0
 364 001c 2349     		ldr	r1, .L31
 365 001e 0298     		ldr	r0, [sp, #8]
 366              	.LVL34:
 367 0020 FFF7FEFF 		bl	__aeabi_fmul
 368              	.LVL35:
 369 0024 4000     		lsls	r0, r0, #1
 370 0026 4008     		lsrs	r0, r0, #1
 371 0028 FFF7FEFF 		bl	__aeabi_f2iz
 372              	.LVL36:
 373 002c 0500     		movs	r5, r0
 374              	.LVL37:
  89:main.c        ****     //Enviar datos
 375              		.loc 1 89 0
 376 002e 1F49     		ldr	r1, .L31
 377 0030 0398     		ldr	r0, [sp, #12]
 378              	.LVL38:
 379 0032 FFF7FEFF 		bl	__aeabi_fmul
 380              	.LVL39:
 381 0036 4000     		lsls	r0, r0, #1
 382 0038 4008     		lsrs	r0, r0, #1
 383 003a FFF7FEFF 		bl	__aeabi_f2iz
 384              	.LVL40:
 385 003e 0400     		movs	r4, r0
 386              	.LVL41:
  91:main.c        ****     dato_enviado_1[1]=Orientacion;
 387              		.loc 1 91 0
 388 0040 1B4B     		ldr	r3, .L31+4
 389 0042 8122     		movs	r2, #129
 390 0044 1A70     		strb	r2, [r3]
  92:main.c        ****     //Convertir Amplitud
 391              		.loc 1 92 0
 392 0046 5F70     		strb	r7, [r3, #1]
  94:main.c        ****     uint8 datoH=Amp_env>>8;
 393              		.loc 1 94 0
 394 0048 F7B2     		uxtb	r7, r6
 395              	.LVL42:
  95:main.c        ****     uint8 Aux=0;
 396              		.loc 1 95 0
 397 004a 3612     		asrs	r6, r6, #8
 398              	.LVL43:
 399 004c F6B2     		uxtb	r6, r6
 400              	.LVL44:
  97:main.c        ****         Aux=(1<<7);
 401              		.loc 1 97 0
 402 004e 0021     		movs	r1, #0
 403 0050 0198     		ldr	r0, [sp, #4]
 404              	.LVL45:
 405 0052 FFF7FEFF 		bl	__aeabi_fcmplt
ARM GAS  C:\Users\HENRYA~1\AppData\Local\Temp\cciShwZv.s 			page 14


 406              	.LVL46:
 407 0056 0028     		cmp	r0, #0
 408 0058 01D0     		beq	.L22
 409              	.LVL47:
  99:main.c        ****     }
 410              		.loc 1 99 0
 411 005a 803E     		subs	r6, r6, #128
 412              	.LVL48:
 413 005c F6B2     		uxtb	r6, r6
 414              	.LVL49:
 415              	.L22:
 105:main.c        ****     dato_enviado_1[3]=datoH;
 416              		.loc 1 105 0
 417 005e 144B     		ldr	r3, .L31+4
 418 0060 9F70     		strb	r7, [r3, #2]
 106:main.c        ****     //Convertir Fase
 419              		.loc 1 106 0
 420 0062 DE70     		strb	r6, [r3, #3]
 108:main.c        ****     datoH=Phase_env>>8;
 421              		.loc 1 108 0
 422 0064 EEB2     		uxtb	r6, r5
 423              	.LVL50:
 109:main.c        ****     if(Phase<0.0){
 424              		.loc 1 109 0
 425 0066 2D12     		asrs	r5, r5, #8
 426              	.LVL51:
 427 0068 EDB2     		uxtb	r5, r5
 428              	.LVL52:
 110:main.c        ****         Aux=(1<<7);
 429              		.loc 1 110 0
 430 006a 0021     		movs	r1, #0
 431 006c 0298     		ldr	r0, [sp, #8]
 432 006e FFF7FEFF 		bl	__aeabi_fcmplt
 433              	.LVL53:
 434 0072 0028     		cmp	r0, #0
 435 0074 01D0     		beq	.L24
 436              	.LVL54:
 112:main.c        ****     }
 437              		.loc 1 112 0
 438 0076 803D     		subs	r5, r5, #128
 439              	.LVL55:
 440 0078 EDB2     		uxtb	r5, r5
 441              	.LVL56:
 442              	.L24:
 118:main.c        ****     dato_enviado_1[5]=datoH;
 443              		.loc 1 118 0
 444 007a 0D4B     		ldr	r3, .L31+4
 445 007c 1E71     		strb	r6, [r3, #4]
 119:main.c        ****     //Convertir Offset
 446              		.loc 1 119 0
 447 007e 5D71     		strb	r5, [r3, #5]
 121:main.c        ****     datoH=Offset_env>>8;
 448              		.loc 1 121 0
 449 0080 E5B2     		uxtb	r5, r4
 450              	.LVL57:
 122:main.c        ****     if(Offset<0.0){
 451              		.loc 1 122 0
ARM GAS  C:\Users\HENRYA~1\AppData\Local\Temp\cciShwZv.s 			page 15


 452 0082 2412     		asrs	r4, r4, #8
 453              	.LVL58:
 454 0084 E4B2     		uxtb	r4, r4
 455              	.LVL59:
 123:main.c        ****         Aux=(1<<7);
 456              		.loc 1 123 0
 457 0086 0021     		movs	r1, #0
 458 0088 0398     		ldr	r0, [sp, #12]
 459 008a FFF7FEFF 		bl	__aeabi_fcmplt
 460              	.LVL60:
 461 008e 0028     		cmp	r0, #0
 462 0090 01D0     		beq	.L26
 463              	.LVL61:
 125:main.c        ****     }
 464              		.loc 1 125 0
 465 0092 803C     		subs	r4, r4, #128
 466              	.LVL62:
 467 0094 E4B2     		uxtb	r4, r4
 468              	.LVL63:
 469              	.L26:
 131:main.c        ****     dato_enviado_1[7]=datoH;    
 470              		.loc 1 131 0
 471 0096 064B     		ldr	r3, .L31+4
 472 0098 9D71     		strb	r5, [r3, #6]
 132:main.c        ****     CAN_SendMsg1();
 473              		.loc 1 132 0
 474 009a DC71     		strb	r4, [r3, #7]
 133:main.c        ****     CyDelay(25);
 475              		.loc 1 133 0
 476 009c FFF7FEFF 		bl	CAN_SendMsg1
 477              	.LVL64:
 134:main.c        **** }
 478              		.loc 1 134 0
 479 00a0 1920     		movs	r0, #25
 480 00a2 FFF7FEFF 		bl	CyDelay
 481              	.LVL65:
 135:main.c        **** 
 482              		.loc 1 135 0
 483 00a6 05B0     		add	sp, sp, #20
 484              		@ sp needed
 485              	.LVL66:
 486              	.LVL67:
 487 00a8 F0BD     		pop	{r4, r5, r6, r7, pc}
 488              	.L32:
 489 00aa C046     		.align	2
 490              	.L31:
 491 00ac 00401C46 		.word	1176256512
 492 00b0 00000000 		.word	dato_enviado_1
 493              		.cfi_endproc
 494              	.LFE43:
 495              		.size	Enviar_Parametros, .-Enviar_Parametros
 496              		.global	__aeabi_i2f
 497              		.global	__aeabi_fadd
 498              		.global	__aeabi_fdiv
 499              		.section	.text.Medir_dist,"ax",%progbits
 500              		.align	2
 501              		.global	Medir_dist
ARM GAS  C:\Users\HENRYA~1\AppData\Local\Temp\cciShwZv.s 			page 16


 502              		.code	16
 503              		.thumb_func
 504              		.type	Medir_dist, %function
 505              	Medir_dist:
 506              	.LFB44:
 139:main.c        ****     int i=0;
 507              		.loc 1 139 0
 508              		.cfi_startproc
 509              		@ args = 0, pretend = 0, frame = 0
 510              		@ frame_needed = 0, uses_anonymous_args = 0
 511 0000 70B5     		push	{r4, r5, r6, lr}
 512              		.cfi_def_cfa_offset 16
 513              		.cfi_offset 4, -16
 514              		.cfi_offset 5, -12
 515              		.cfi_offset 6, -8
 516              		.cfi_offset 14, -4
 517              	.LVL68:
 141:main.c        ****     for(i=1;i<10;i++){
 518              		.loc 1 141 0
 519 0002 0025     		movs	r5, #0
 142:main.c        ****         longitud=dist+longitud;
 520              		.loc 1 142 0
 521 0004 0124     		movs	r4, #1
 522 0006 0CE0     		b	.L34
 523              	.LVL69:
 524              	.L35:
 143:main.c        ****         CyDelay(50);
 525              		.loc 1 143 0 discriminator 3
 526 0008 0A4B     		ldr	r3, .L36
 527 000a 1878     		ldrb	r0, [r3]
 528 000c FFF7FEFF 		bl	__aeabi_i2f
 529              	.LVL70:
 530 0010 011C     		adds	r1, r0, #0
 531 0012 281C     		adds	r0, r5, #0
 532 0014 FFF7FEFF 		bl	__aeabi_fadd
 533              	.LVL71:
 534 0018 051C     		adds	r5, r0, #0
 535              	.LVL72:
 144:main.c        ****     }
 536              		.loc 1 144 0 discriminator 3
 537 001a 3220     		movs	r0, #50
 538              	.LVL73:
 539 001c FFF7FEFF 		bl	CyDelay
 540              	.LVL74:
 142:main.c        ****         longitud=dist+longitud;
 541              		.loc 1 142 0 discriminator 3
 542 0020 0134     		adds	r4, r4, #1
 543              	.LVL75:
 544              	.L34:
 142:main.c        ****         longitud=dist+longitud;
 545              		.loc 1 142 0 is_stmt 0 discriminator 1
 546 0022 092C     		cmp	r4, #9
 547 0024 F0DD     		ble	.L35
 146:main.c        ****     return longitud;
 548              		.loc 1 146 0 is_stmt 1
 549 0026 0449     		ldr	r1, .L36+4
 550 0028 281C     		adds	r0, r5, #0
ARM GAS  C:\Users\HENRYA~1\AppData\Local\Temp\cciShwZv.s 			page 17


 551 002a FFF7FEFF 		bl	__aeabi_fdiv
 552              	.LVL76:
 147:main.c        **** }
 553              		.loc 1 147 0
 554 002e FFF7FEFF 		bl	__aeabi_f2d
 555              	.LVL77:
 148:main.c        **** 
 556              		.loc 1 148 0
 557              		@ sp needed
 558              	.LVL78:
 559 0032 70BD     		pop	{r4, r5, r6, pc}
 560              	.L37:
 561              		.align	2
 562              	.L36:
 563 0034 00000000 		.word	.LANCHOR0
 564 0038 00002041 		.word	1092616192
 565              		.cfi_endproc
 566              	.LFE44:
 567              		.size	Medir_dist, .-Medir_dist
 568              		.section	.text.Recibe_mail_0,"ax",%progbits
 569              		.align	2
 570              		.global	Recibe_mail_0
 571              		.code	16
 572              		.thumb_func
 573              		.type	Recibe_mail_0, %function
 574              	Recibe_mail_0:
 575              	.LFB45:
 151:main.c        **** if(mailbox0[0]==VER){
 576              		.loc 1 151 0
 577              		.cfi_startproc
 578              		@ args = 0, pretend = 0, frame = 0
 579              		@ frame_needed = 0, uses_anonymous_args = 0
 580              		@ link register save eliminated.
 152:main.c        ****             switch(mailbox0[2]){
 581              		.loc 1 152 0
 582 0000 084B     		ldr	r3, .L42
 583 0002 1B78     		ldrb	r3, [r3]
 584 0004 7F2B     		cmp	r3, #127
 585 0006 0BD1     		bne	.L38
 153:main.c        ****             ///////////////////////////////////////////////////////
 586              		.loc 1 153 0
 587 0008 064B     		ldr	r3, .L42
 588 000a 9B78     		ldrb	r3, [r3, #2]
 589 000c 022B     		cmp	r3, #2
 590 000e 07D1     		bne	.L38
 156:main.c        ****                     case CANTIDAD_MOD: 
 591              		.loc 1 156 0
 592 0010 044B     		ldr	r3, .L42
 593 0012 DB78     		ldrb	r3, [r3, #3]
 594 0014 2B2B     		cmp	r3, #43
 595 0016 03D1     		bne	.L38
 158:main.c        ****                     break;
 596              		.loc 1 158 0
 597 0018 024B     		ldr	r3, .L42
 598 001a 1A79     		ldrb	r2, [r3, #4]
 599 001c 024B     		ldr	r3, .L42+4
 600 001e 5A60     		str	r2, [r3, #4]
ARM GAS  C:\Users\HENRYA~1\AppData\Local\Temp\cciShwZv.s 			page 18


 601              	.L38:
 178:main.c        **** 
 602              		.loc 1 178 0
 603              		@ sp needed
 604 0020 7047     		bx	lr
 605              	.L43:
 606 0022 C046     		.align	2
 607              	.L42:
 608 0024 00000000 		.word	mailbox0
 609 0028 00000000 		.word	.LANCHOR0
 610              		.cfi_endproc
 611              	.LFE45:
 612              		.size	Recibe_mail_0, .-Recibe_mail_0
 613              		.section	.text.Recibe_Mail_2,"ax",%progbits
 614              		.align	2
 615              		.global	Recibe_Mail_2
 616              		.code	16
 617              		.thumb_func
 618              		.type	Recibe_Mail_2, %function
 619              	Recibe_Mail_2:
 620              	.LFB46:
 180:main.c        ****     if(mailbox2[0]==SENSORES){
 621              		.loc 1 180 0
 622              		.cfi_startproc
 623              		@ args = 0, pretend = 0, frame = 0
 624              		@ frame_needed = 0, uses_anonymous_args = 0
 625              		@ link register save eliminated.
 181:main.c        ****         //Mailbox2[1] Derecha
 626              		.loc 1 181 0
 627 0000 3B4B     		ldr	r3, .L54
 628 0002 1B78     		ldrb	r3, [r3]
 629 0004 822B     		cmp	r3, #130
 630 0006 72D1     		bne	.L44
 185:main.c        ****         else if(mailbox2[1]==0&&mailbox2[2]==0&&mailbox2[3]==1) {Cantidad_Sensores=1;}   //Izquierd
 631              		.loc 1 185 0
 632 0008 394B     		ldr	r3, .L54
 633 000a 5B78     		ldrb	r3, [r3, #1]
 634 000c 002B     		cmp	r3, #0
 635 000e 0AD1     		bne	.L46
 185:main.c        ****         else if(mailbox2[1]==0&&mailbox2[2]==0&&mailbox2[3]==1) {Cantidad_Sensores=1;}   //Izquierd
 636              		.loc 1 185 0 is_stmt 0 discriminator 1
 637 0010 374A     		ldr	r2, .L54
 638 0012 9278     		ldrb	r2, [r2, #2]
 639 0014 002A     		cmp	r2, #0
 640 0016 06D1     		bne	.L46
 185:main.c        ****         else if(mailbox2[1]==0&&mailbox2[2]==0&&mailbox2[3]==1) {Cantidad_Sensores=1;}   //Izquierd
 641              		.loc 1 185 0 discriminator 2
 642 0018 354A     		ldr	r2, .L54
 643 001a D278     		ldrb	r2, [r2, #3]
 644 001c 002A     		cmp	r2, #0
 645 001e 02D1     		bne	.L46
 185:main.c        ****         else if(mailbox2[1]==0&&mailbox2[2]==0&&mailbox2[3]==1) {Cantidad_Sensores=1;}   //Izquierd
 646              		.loc 1 185 0 discriminator 3
 647 0020 344B     		ldr	r3, .L54+4
 648 0022 9A60     		str	r2, [r3, #8]
 649 0024 63E0     		b	.L44
 650              	.L46:
ARM GAS  C:\Users\HENRYA~1\AppData\Local\Temp\cciShwZv.s 			page 19


 186:main.c        ****         else if(mailbox2[1]==0&&mailbox2[2]==1&&mailbox2[3]==0) {Cantidad_Sensores=2;}   //Frontal
 651              		.loc 1 186 0 is_stmt 1
 652 0026 002B     		cmp	r3, #0
 653 0028 0AD1     		bne	.L47
 186:main.c        ****         else if(mailbox2[1]==0&&mailbox2[2]==1&&mailbox2[3]==0) {Cantidad_Sensores=2;}   //Frontal
 654              		.loc 1 186 0 is_stmt 0 discriminator 1
 655 002a 314A     		ldr	r2, .L54
 656 002c 9278     		ldrb	r2, [r2, #2]
 657 002e 002A     		cmp	r2, #0
 658 0030 06D1     		bne	.L47
 186:main.c        ****         else if(mailbox2[1]==0&&mailbox2[2]==1&&mailbox2[3]==0) {Cantidad_Sensores=2;}   //Frontal
 659              		.loc 1 186 0 discriminator 2
 660 0032 2F4A     		ldr	r2, .L54
 661 0034 D278     		ldrb	r2, [r2, #3]
 662 0036 012A     		cmp	r2, #1
 663 0038 02D1     		bne	.L47
 186:main.c        ****         else if(mailbox2[1]==0&&mailbox2[2]==1&&mailbox2[3]==0) {Cantidad_Sensores=2;}   //Frontal
 664              		.loc 1 186 0 discriminator 3
 665 003a 2E4B     		ldr	r3, .L54+4
 666 003c 9A60     		str	r2, [r3, #8]
 667 003e 56E0     		b	.L44
 668              	.L47:
 187:main.c        ****         else if(mailbox2[1]==0&&mailbox2[2]==1&&mailbox2[3]==1) {Cantidad_Sensores=3;}   //Frontal 
 669              		.loc 1 187 0 is_stmt 1
 670 0040 002B     		cmp	r3, #0
 671 0042 0BD1     		bne	.L48
 187:main.c        ****         else if(mailbox2[1]==0&&mailbox2[2]==1&&mailbox2[3]==1) {Cantidad_Sensores=3;}   //Frontal 
 672              		.loc 1 187 0 is_stmt 0 discriminator 1
 673 0044 2A4A     		ldr	r2, .L54
 674 0046 9278     		ldrb	r2, [r2, #2]
 675 0048 012A     		cmp	r2, #1
 676 004a 07D1     		bne	.L48
 187:main.c        ****         else if(mailbox2[1]==0&&mailbox2[2]==1&&mailbox2[3]==1) {Cantidad_Sensores=3;}   //Frontal 
 677              		.loc 1 187 0 discriminator 2
 678 004c 284A     		ldr	r2, .L54
 679 004e D278     		ldrb	r2, [r2, #3]
 680 0050 002A     		cmp	r2, #0
 681 0052 03D1     		bne	.L48
 187:main.c        ****         else if(mailbox2[1]==0&&mailbox2[2]==1&&mailbox2[3]==1) {Cantidad_Sensores=3;}   //Frontal 
 682              		.loc 1 187 0 discriminator 3
 683 0054 0232     		adds	r2, r2, #2
 684 0056 274B     		ldr	r3, .L54+4
 685 0058 9A60     		str	r2, [r3, #8]
 686 005a 48E0     		b	.L44
 687              	.L48:
 188:main.c        ****         else if(mailbox2[1]==1&&mailbox2[2]==0&&mailbox2[3]==0) {Cantidad_Sensores=4;}   //Derecha
 688              		.loc 1 188 0 is_stmt 1
 689 005c 002B     		cmp	r3, #0
 690 005e 0BD1     		bne	.L49
 188:main.c        ****         else if(mailbox2[1]==1&&mailbox2[2]==0&&mailbox2[3]==0) {Cantidad_Sensores=4;}   //Derecha
 691              		.loc 1 188 0 is_stmt 0 discriminator 1
 692 0060 234A     		ldr	r2, .L54
 693 0062 9278     		ldrb	r2, [r2, #2]
 694 0064 012A     		cmp	r2, #1
 695 0066 07D1     		bne	.L49
 188:main.c        ****         else if(mailbox2[1]==1&&mailbox2[2]==0&&mailbox2[3]==0) {Cantidad_Sensores=4;}   //Derecha
 696              		.loc 1 188 0 discriminator 2
ARM GAS  C:\Users\HENRYA~1\AppData\Local\Temp\cciShwZv.s 			page 20


 697 0068 214A     		ldr	r2, .L54
 698 006a D278     		ldrb	r2, [r2, #3]
 699 006c 012A     		cmp	r2, #1
 700 006e 03D1     		bne	.L49
 188:main.c        ****         else if(mailbox2[1]==1&&mailbox2[2]==0&&mailbox2[3]==0) {Cantidad_Sensores=4;}   //Derecha
 701              		.loc 1 188 0 discriminator 3
 702 0070 0232     		adds	r2, r2, #2
 703 0072 204B     		ldr	r3, .L54+4
 704 0074 9A60     		str	r2, [r3, #8]
 705 0076 3AE0     		b	.L44
 706              	.L49:
 189:main.c        ****         else if(mailbox2[1]==1&&mailbox2[2]==0&&mailbox2[3]==1) {Cantidad_Sensores=5;}   //Derecha 
 707              		.loc 1 189 0 is_stmt 1
 708 0078 012B     		cmp	r3, #1
 709 007a 0BD1     		bne	.L50
 189:main.c        ****         else if(mailbox2[1]==1&&mailbox2[2]==0&&mailbox2[3]==1) {Cantidad_Sensores=5;}   //Derecha 
 710              		.loc 1 189 0 is_stmt 0 discriminator 1
 711 007c 1C4A     		ldr	r2, .L54
 712 007e 9278     		ldrb	r2, [r2, #2]
 713 0080 002A     		cmp	r2, #0
 714 0082 07D1     		bne	.L50
 189:main.c        ****         else if(mailbox2[1]==1&&mailbox2[2]==0&&mailbox2[3]==1) {Cantidad_Sensores=5;}   //Derecha 
 715              		.loc 1 189 0 discriminator 2
 716 0084 1A4A     		ldr	r2, .L54
 717 0086 D278     		ldrb	r2, [r2, #3]
 718 0088 002A     		cmp	r2, #0
 719 008a 03D1     		bne	.L50
 189:main.c        ****         else if(mailbox2[1]==1&&mailbox2[2]==0&&mailbox2[3]==1) {Cantidad_Sensores=5;}   //Derecha 
 720              		.loc 1 189 0 discriminator 3
 721 008c 0432     		adds	r2, r2, #4
 722 008e 194B     		ldr	r3, .L54+4
 723 0090 9A60     		str	r2, [r3, #8]
 724 0092 2CE0     		b	.L44
 725              	.L50:
 190:main.c        ****         else if(mailbox2[1]==1&&mailbox2[2]==1&&mailbox2[3]==0) {Cantidad_Sensores=6;}   //Frontal 
 726              		.loc 1 190 0 is_stmt 1
 727 0094 012B     		cmp	r3, #1
 728 0096 0BD1     		bne	.L51
 190:main.c        ****         else if(mailbox2[1]==1&&mailbox2[2]==1&&mailbox2[3]==0) {Cantidad_Sensores=6;}   //Frontal 
 729              		.loc 1 190 0 is_stmt 0 discriminator 1
 730 0098 154A     		ldr	r2, .L54
 731 009a 9278     		ldrb	r2, [r2, #2]
 732 009c 002A     		cmp	r2, #0
 733 009e 07D1     		bne	.L51
 190:main.c        ****         else if(mailbox2[1]==1&&mailbox2[2]==1&&mailbox2[3]==0) {Cantidad_Sensores=6;}   //Frontal 
 734              		.loc 1 190 0 discriminator 2
 735 00a0 134A     		ldr	r2, .L54
 736 00a2 D278     		ldrb	r2, [r2, #3]
 737 00a4 012A     		cmp	r2, #1
 738 00a6 03D1     		bne	.L51
 190:main.c        ****         else if(mailbox2[1]==1&&mailbox2[2]==1&&mailbox2[3]==0) {Cantidad_Sensores=6;}   //Frontal 
 739              		.loc 1 190 0 discriminator 3
 740 00a8 0432     		adds	r2, r2, #4
 741 00aa 124B     		ldr	r3, .L54+4
 742 00ac 9A60     		str	r2, [r3, #8]
 743 00ae 1EE0     		b	.L44
 744              	.L51:
ARM GAS  C:\Users\HENRYA~1\AppData\Local\Temp\cciShwZv.s 			page 21


 191:main.c        ****         else if(mailbox2[1]==1&&mailbox2[2]==1&&mailbox2[3]==1) {Cantidad_Sensores=7;}   //Todos
 745              		.loc 1 191 0 is_stmt 1
 746 00b0 012B     		cmp	r3, #1
 747 00b2 0BD1     		bne	.L52
 191:main.c        ****         else if(mailbox2[1]==1&&mailbox2[2]==1&&mailbox2[3]==1) {Cantidad_Sensores=7;}   //Todos
 748              		.loc 1 191 0 is_stmt 0 discriminator 1
 749 00b4 0E4A     		ldr	r2, .L54
 750 00b6 9278     		ldrb	r2, [r2, #2]
 751 00b8 012A     		cmp	r2, #1
 752 00ba 07D1     		bne	.L52
 191:main.c        ****         else if(mailbox2[1]==1&&mailbox2[2]==1&&mailbox2[3]==1) {Cantidad_Sensores=7;}   //Todos
 753              		.loc 1 191 0 discriminator 2
 754 00bc 0C4A     		ldr	r2, .L54
 755 00be D278     		ldrb	r2, [r2, #3]
 756 00c0 002A     		cmp	r2, #0
 757 00c2 03D1     		bne	.L52
 191:main.c        ****         else if(mailbox2[1]==1&&mailbox2[2]==1&&mailbox2[3]==1) {Cantidad_Sensores=7;}   //Todos
 758              		.loc 1 191 0 discriminator 3
 759 00c4 0632     		adds	r2, r2, #6
 760 00c6 0B4B     		ldr	r3, .L54+4
 761 00c8 9A60     		str	r2, [r3, #8]
 762 00ca 10E0     		b	.L44
 763              	.L52:
 192:main.c        ****         else                                                    {Cantidad_Sensores=0;}   //Normal
 764              		.loc 1 192 0 is_stmt 1
 765 00cc 012B     		cmp	r3, #1
 766 00ce 0BD1     		bne	.L53
 192:main.c        ****         else                                                    {Cantidad_Sensores=0;}   //Normal
 767              		.loc 1 192 0 is_stmt 0 discriminator 1
 768 00d0 074B     		ldr	r3, .L54
 769 00d2 9B78     		ldrb	r3, [r3, #2]
 770 00d4 012B     		cmp	r3, #1
 771 00d6 07D1     		bne	.L53
 192:main.c        ****         else                                                    {Cantidad_Sensores=0;}   //Normal
 772              		.loc 1 192 0 discriminator 2
 773 00d8 054B     		ldr	r3, .L54
 774 00da DB78     		ldrb	r3, [r3, #3]
 775 00dc 012B     		cmp	r3, #1
 776 00de 03D1     		bne	.L53
 192:main.c        ****         else                                                    {Cantidad_Sensores=0;}   //Normal
 777              		.loc 1 192 0 discriminator 3
 778 00e0 0722     		movs	r2, #7
 779 00e2 044B     		ldr	r3, .L54+4
 780 00e4 9A60     		str	r2, [r3, #8]
 781 00e6 02E0     		b	.L44
 782              	.L53:
 193:main.c        ****     }
 783              		.loc 1 193 0 is_stmt 1
 784 00e8 0022     		movs	r2, #0
 785 00ea 024B     		ldr	r3, .L54+4
 786 00ec 9A60     		str	r2, [r3, #8]
 787              	.L44:
 195:main.c        **** 
 788              		.loc 1 195 0
 789              		@ sp needed
 790 00ee 7047     		bx	lr
 791              	.L55:
ARM GAS  C:\Users\HENRYA~1\AppData\Local\Temp\cciShwZv.s 			page 22


 792              		.align	2
 793              	.L54:
 794 00f0 00000000 		.word	mailbox2
 795 00f4 00000000 		.word	.LANCHOR0
 796              		.cfi_endproc
 797              	.LFE46:
 798              		.size	Recibe_Mail_2, .-Recibe_Mail_2
 799              		.section	.text.interrutcan,"ax",%progbits
 800              		.align	2
 801              		.global	interrutcan
 802              		.code	16
 803              		.thumb_func
 804              		.type	interrutcan, %function
 805              	interrutcan:
 806              	.LFB51:
 287:main.c        **** 
 288:main.c        **** CY_ISR(interrutcan){
 807              		.loc 1 288 0
 808              		.cfi_startproc
 809              		@ args = 0, pretend = 0, frame = 0
 810              		@ frame_needed = 0, uses_anonymous_args = 0
 811 0000 10B5     		push	{r4, lr}
 812              		.cfi_def_cfa_offset 8
 813              		.cfi_offset 4, -8
 814              		.cfi_offset 14, -4
 289:main.c        ****     CAN_GlobalIntDisable();
 815              		.loc 1 289 0
 816 0002 FFF7FEFF 		bl	CAN_GlobalIntDisable
 817              	.LVL79:
 290:main.c        ****     CAN_MsgRXIsr();  
 818              		.loc 1 290 0
 819 0006 FFF7FEFF 		bl	CAN_MsgRXIsr
 820              	.LVL80:
 291:main.c        ****     Recibe_mail_0();
 821              		.loc 1 291 0
 822 000a FFF7FEFF 		bl	Recibe_mail_0
 823              	.LVL81:
 292:main.c        ****     Recibe_Mail_2();
 824              		.loc 1 292 0
 825 000e FFF7FEFF 		bl	Recibe_Mail_2
 826              	.LVL82:
 293:main.c        ****     CAN_GlobalIntEnable();
 827              		.loc 1 293 0
 828 0012 FFF7FEFF 		bl	CAN_GlobalIntEnable
 829              	.LVL83:
 294:main.c        **** }
 830              		.loc 1 294 0
 831              		@ sp needed
 832 0016 10BD     		pop	{r4, pc}
 833              		.cfi_endproc
 834              	.LFE51:
 835              		.size	interrutcan, .-interrutcan
 836              		.section	.text.Left_Move,"ax",%progbits
 837              		.align	2
 838              		.global	Left_Move
 839              		.code	16
 840              		.thumb_func
ARM GAS  C:\Users\HENRYA~1\AppData\Local\Temp\cciShwZv.s 			page 23


 841              		.type	Left_Move, %function
 842              	Left_Move:
 843              	.LFB47:
 197:main.c        ****     Send_Angle(0,200);
 844              		.loc 1 197 0
 845              		.cfi_startproc
 846              		@ args = 0, pretend = 0, frame = 0
 847              		@ frame_needed = 0, uses_anonymous_args = 0
 848 0000 70B5     		push	{r4, r5, r6, lr}
 849              		.cfi_def_cfa_offset 16
 850              		.cfi_offset 4, -16
 851              		.cfi_offset 5, -12
 852              		.cfi_offset 6, -8
 853              		.cfi_offset 14, -4
 198:main.c        ****     int  i=0;
 854              		.loc 1 198 0
 855 0002 C821     		movs	r1, #200
 856 0004 0020     		movs	r0, #0
 857 0006 FFF7FEFF 		bl	Send_Angle
 858              	.LVL84:
 201:main.c        ****         movimiento(i,512);
 859              		.loc 1 201 0
 860 000a 0024     		movs	r4, #0
 861 000c 05E0     		b	.L58
 862              	.LVL85:
 863              	.L59:
 202:main.c        ****         }
 864              		.loc 1 202 0 discriminator 3
 865 000e 8021     		movs	r1, #128
 866 0010 8900     		lsls	r1, r1, #2
 867 0012 2000     		movs	r0, r4
 868 0014 FFF7FEFF 		bl	movimiento
 869              	.LVL86:
 201:main.c        ****         movimiento(i,512);
 870              		.loc 1 201 0 discriminator 3
 871 0018 0134     		adds	r4, r4, #1
 872              	.LVL87:
 873              	.L58:
 201:main.c        ****         movimiento(i,512);
 874              		.loc 1 201 0 is_stmt 0 discriminator 1
 875 001a 304B     		ldr	r3, .L68
 876 001c 5B68     		ldr	r3, [r3, #4]
 877 001e 9C42     		cmp	r4, r3
 878 0020 F5DB     		blt	.L59
 204:main.c        ****     movimiento(cantidadM,675);//Ancla Trasera
 879              		.loc 1 204 0 is_stmt 1
 880 0022 FA24     		movs	r4, #250
 881              	.LVL88:
 882 0024 E400     		lsls	r4, r4, #3
 883 0026 2000     		movs	r0, r4
 884 0028 FFF7FEFF 		bl	CyDelay
 885              	.LVL89:
 205:main.c        ****     CyDelay(2000);
 886              		.loc 1 205 0
 887 002c 2B4B     		ldr	r3, .L68
 888 002e 5868     		ldr	r0, [r3, #4]
 889 0030 2B49     		ldr	r1, .L68+4
ARM GAS  C:\Users\HENRYA~1\AppData\Local\Temp\cciShwZv.s 			page 24


 890 0032 FFF7FEFF 		bl	movimiento
 891              	.LVL90:
 206:main.c        ****     //Giro
 892              		.loc 1 206 0
 893 0036 2000     		movs	r0, r4
 894 0038 FFF7FEFF 		bl	CyDelay
 895              	.LVL91:
 208:main.c        ****         for(i=2;i<cantidadM;i=i+4){ 
 896              		.loc 1 208 0
 897 003c 0026     		movs	r6, #0
 898 003e 35E0     		b	.L60
 899              	.LVL92:
 900              	.L61:
 210:main.c        ****             movimiento(i+1,750);
 901              		.loc 1 210 0 discriminator 3
 902 0040 2849     		ldr	r1, .L68+8
 903 0042 2000     		movs	r0, r4
 904 0044 FFF7FEFF 		bl	movimiento
 905              	.LVL93:
 211:main.c        ****             }
 906              		.loc 1 211 0 discriminator 3
 907 0048 601C     		adds	r0, r4, #1
 908 004a 2749     		ldr	r1, .L68+12
 909 004c FFF7FEFF 		bl	movimiento
 910              	.LVL94:
 209:main.c        ****             movimiento(i,650);
 911              		.loc 1 209 0 discriminator 3
 912 0050 0434     		adds	r4, r4, #4
 913              	.LVL95:
 914 0052 00E0     		b	.L64
 915              	.LVL96:
 916              	.L67:
 917 0054 0224     		movs	r4, #2
 918              	.L64:
 919              	.LVL97:
 209:main.c        ****             movimiento(i,650);
 920              		.loc 1 209 0 is_stmt 0 discriminator 1
 921 0056 214B     		ldr	r3, .L68
 922 0058 5868     		ldr	r0, [r3, #4]
 923 005a 8442     		cmp	r4, r0
 924 005c F0DB     		blt	.L61
 213:main.c        ****         CyDelay(2000);
 925              		.loc 1 213 0 is_stmt 1
 926 005e 8021     		movs	r1, #128
 927 0060 8900     		lsls	r1, r1, #2
 928 0062 FFF7FEFF 		bl	movimiento
 929              	.LVL98:
 214:main.c        ****         movimiento(0,350);//Ancla Delantera
 930              		.loc 1 214 0
 931 0066 FA24     		movs	r4, #250
 932              	.LVL99:
 933 0068 E400     		lsls	r4, r4, #3
 934 006a 2000     		movs	r0, r4
 935 006c FFF7FEFF 		bl	CyDelay
 936              	.LVL100:
 215:main.c        ****         CyDelay(2000);
 937              		.loc 1 215 0
ARM GAS  C:\Users\HENRYA~1\AppData\Local\Temp\cciShwZv.s 			page 25


 938 0070 AF21     		movs	r1, #175
 939 0072 4900     		lsls	r1, r1, #1
 940 0074 0020     		movs	r0, #0
 941 0076 FFF7FEFF 		bl	movimiento
 942              	.LVL101:
 216:main.c        ****         for(i=2;i<cantidadM;i=i+4){ //Alineación
 943              		.loc 1 216 0
 944 007a 2000     		movs	r0, r4
 945 007c FFF7FEFF 		bl	CyDelay
 946              	.LVL102:
 217:main.c        ****             movimiento(i,512);
 947              		.loc 1 217 0
 948 0080 0224     		movs	r4, #2
 949 0082 0AE0     		b	.L62
 950              	.LVL103:
 951              	.L63:
 218:main.c        ****             movimiento(i+1,512);
 952              		.loc 1 218 0 discriminator 3
 953 0084 8025     		movs	r5, #128
 954 0086 AD00     		lsls	r5, r5, #2
 955 0088 2900     		movs	r1, r5
 956 008a 2000     		movs	r0, r4
 957 008c FFF7FEFF 		bl	movimiento
 958              	.LVL104:
 219:main.c        ****         }    
 959              		.loc 1 219 0 discriminator 3
 960 0090 601C     		adds	r0, r4, #1
 961 0092 2900     		movs	r1, r5
 962 0094 FFF7FEFF 		bl	movimiento
 963              	.LVL105:
 217:main.c        ****             movimiento(i,512);
 964              		.loc 1 217 0 discriminator 3
 965 0098 0434     		adds	r4, r4, #4
 966              	.LVL106:
 967              	.L62:
 217:main.c        ****             movimiento(i,512);
 968              		.loc 1 217 0 is_stmt 0 discriminator 1
 969 009a 104B     		ldr	r3, .L68
 970 009c 5B68     		ldr	r3, [r3, #4]
 971 009e 9C42     		cmp	r4, r3
 972 00a0 F0DB     		blt	.L63
 221:main.c        ****     }         
 973              		.loc 1 221 0 is_stmt 1 discriminator 2
 974 00a2 FA20     		movs	r0, #250
 975 00a4 C000     		lsls	r0, r0, #3
 976 00a6 FFF7FEFF 		bl	CyDelay
 977              	.LVL107:
 208:main.c        ****         for(i=2;i<cantidadM;i=i+4){ 
 978              		.loc 1 208 0 discriminator 2
 979 00aa 0136     		adds	r6, r6, #1
 980              	.LVL108:
 981              	.L60:
 208:main.c        ****         for(i=2;i<cantidadM;i=i+4){ 
 982              		.loc 1 208 0 is_stmt 0 discriminator 1
 983 00ac 002E     		cmp	r6, #0
 984 00ae D1DD     		ble	.L67
 985 00b0 0024     		movs	r4, #0
ARM GAS  C:\Users\HENRYA~1\AppData\Local\Temp\cciShwZv.s 			page 26


 986 00b2 05E0     		b	.L65
 987              	.LVL109:
 988              	.L66:
 224:main.c        ****         }
 989              		.loc 1 224 0 is_stmt 1 discriminator 3
 990 00b4 8021     		movs	r1, #128
 991 00b6 8900     		lsls	r1, r1, #2
 992 00b8 2000     		movs	r0, r4
 993 00ba FFF7FEFF 		bl	movimiento
 994              	.LVL110:
 223:main.c        ****         movimiento(i,512);
 995              		.loc 1 223 0 discriminator 3
 996 00be 0134     		adds	r4, r4, #1
 997              	.LVL111:
 998              	.L65:
 223:main.c        ****         movimiento(i,512);
 999              		.loc 1 223 0 is_stmt 0 discriminator 1
 1000 00c0 064B     		ldr	r3, .L68
 1001 00c2 5B68     		ldr	r3, [r3, #4]
 1002 00c4 9C42     		cmp	r4, r3
 1003 00c6 F5DB     		blt	.L66
 226:main.c        ****     Send_Angle(0,0);
 1004              		.loc 1 226 0 is_stmt 1
 1005 00c8 FA20     		movs	r0, #250
 1006 00ca C000     		lsls	r0, r0, #3
 1007 00cc FFF7FEFF 		bl	CyDelay
 1008              	.LVL112:
 227:main.c        **** }
 1009              		.loc 1 227 0
 1010 00d0 0021     		movs	r1, #0
 1011 00d2 0020     		movs	r0, #0
 1012 00d4 FFF7FEFF 		bl	Send_Angle
 1013              	.LVL113:
 228:main.c        **** 
 1014              		.loc 1 228 0
 1015              		@ sp needed
 1016              	.LVL114:
 1017              	.LVL115:
 1018 00d8 70BD     		pop	{r4, r5, r6, pc}
 1019              	.L69:
 1020 00da C046     		.align	2
 1021              	.L68:
 1022 00dc 00000000 		.word	.LANCHOR0
 1023 00e0 A3020000 		.word	675
 1024 00e4 8A020000 		.word	650
 1025 00e8 EE020000 		.word	750
 1026              		.cfi_endproc
 1027              	.LFE47:
 1028              		.size	Left_Move, .-Left_Move
 1029              		.section	.text.Right_Move,"ax",%progbits
 1030              		.align	2
 1031              		.global	Right_Move
 1032              		.code	16
 1033              		.thumb_func
 1034              		.type	Right_Move, %function
 1035              	Right_Move:
 1036              	.LFB48:
ARM GAS  C:\Users\HENRYA~1\AppData\Local\Temp\cciShwZv.s 			page 27


 230:main.c        ****     Send_Angle(0,200);
 1037              		.loc 1 230 0
 1038              		.cfi_startproc
 1039              		@ args = 0, pretend = 0, frame = 0
 1040              		@ frame_needed = 0, uses_anonymous_args = 0
 1041 0000 70B5     		push	{r4, r5, r6, lr}
 1042              		.cfi_def_cfa_offset 16
 1043              		.cfi_offset 4, -16
 1044              		.cfi_offset 5, -12
 1045              		.cfi_offset 6, -8
 1046              		.cfi_offset 14, -4
 231:main.c        ****     int  i=0;
 1047              		.loc 1 231 0
 1048 0002 C821     		movs	r1, #200
 1049 0004 0020     		movs	r0, #0
 1050 0006 FFF7FEFF 		bl	Send_Angle
 1051              	.LVL116:
 234:main.c        ****         movimiento(i,512);
 1052              		.loc 1 234 0
 1053 000a 0024     		movs	r4, #0
 1054 000c 05E0     		b	.L71
 1055              	.LVL117:
 1056              	.L72:
 235:main.c        ****         }
 1057              		.loc 1 235 0 discriminator 3
 1058 000e 8021     		movs	r1, #128
 1059 0010 8900     		lsls	r1, r1, #2
 1060 0012 2000     		movs	r0, r4
 1061 0014 FFF7FEFF 		bl	movimiento
 1062              	.LVL118:
 234:main.c        ****         movimiento(i,512);
 1063              		.loc 1 234 0 discriminator 3
 1064 0018 0134     		adds	r4, r4, #1
 1065              	.LVL119:
 1066              	.L71:
 234:main.c        ****         movimiento(i,512);
 1067              		.loc 1 234 0 is_stmt 0 discriminator 1
 1068 001a 314B     		ldr	r3, .L81
 1069 001c 5B68     		ldr	r3, [r3, #4]
 1070 001e 9C42     		cmp	r4, r3
 1071 0020 F5DB     		blt	.L72
 237:main.c        ****     movimiento(cantidadM,675);//Ancla Trasera
 1072              		.loc 1 237 0 is_stmt 1
 1073 0022 FA24     		movs	r4, #250
 1074              	.LVL120:
 1075 0024 E400     		lsls	r4, r4, #3
 1076 0026 2000     		movs	r0, r4
 1077 0028 FFF7FEFF 		bl	CyDelay
 1078              	.LVL121:
 238:main.c        ****     CyDelay(2000);
 1079              		.loc 1 238 0
 1080 002c 2C4B     		ldr	r3, .L81
 1081 002e 5868     		ldr	r0, [r3, #4]
 1082 0030 2C49     		ldr	r1, .L81+4
 1083 0032 FFF7FEFF 		bl	movimiento
 1084              	.LVL122:
 239:main.c        ****     //Giro
ARM GAS  C:\Users\HENRYA~1\AppData\Local\Temp\cciShwZv.s 			page 28


 1085              		.loc 1 239 0
 1086 0036 2000     		movs	r0, r4
 1087 0038 FFF7FEFF 		bl	CyDelay
 1088              	.LVL123:
 241:main.c        ****         for(i=2;i<cantidadM;i=i+4){ 
 1089              		.loc 1 241 0
 1090 003c 0026     		movs	r6, #0
 1091 003e 37E0     		b	.L73
 1092              	.LVL124:
 1093              	.L74:
 243:main.c        ****             movimiento(i+1,274);
 1094              		.loc 1 243 0 discriminator 3
 1095 0040 BB21     		movs	r1, #187
 1096 0042 4900     		lsls	r1, r1, #1
 1097 0044 2000     		movs	r0, r4
 1098 0046 FFF7FEFF 		bl	movimiento
 1099              	.LVL125:
 244:main.c        ****             }
 1100              		.loc 1 244 0 discriminator 3
 1101 004a 601C     		adds	r0, r4, #1
 1102 004c 8921     		movs	r1, #137
 1103 004e 4900     		lsls	r1, r1, #1
 1104 0050 FFF7FEFF 		bl	movimiento
 1105              	.LVL126:
 242:main.c        ****             movimiento(i,374);
 1106              		.loc 1 242 0 discriminator 3
 1107 0054 0434     		adds	r4, r4, #4
 1108              	.LVL127:
 1109 0056 00E0     		b	.L77
 1110              	.LVL128:
 1111              	.L80:
 1112 0058 0224     		movs	r4, #2
 1113              	.L77:
 1114              	.LVL129:
 242:main.c        ****             movimiento(i,374);
 1115              		.loc 1 242 0 is_stmt 0 discriminator 1
 1116 005a 214B     		ldr	r3, .L81
 1117 005c 5868     		ldr	r0, [r3, #4]
 1118 005e 8442     		cmp	r4, r0
 1119 0060 EEDB     		blt	.L74
 246:main.c        ****         CyDelay(2000);
 1120              		.loc 1 246 0 is_stmt 1
 1121 0062 8021     		movs	r1, #128
 1122 0064 8900     		lsls	r1, r1, #2
 1123 0066 FFF7FEFF 		bl	movimiento
 1124              	.LVL130:
 247:main.c        ****         movimiento(0,350);//Ancla Delantera
 1125              		.loc 1 247 0
 1126 006a FA24     		movs	r4, #250
 1127              	.LVL131:
 1128 006c E400     		lsls	r4, r4, #3
 1129 006e 2000     		movs	r0, r4
 1130 0070 FFF7FEFF 		bl	CyDelay
 1131              	.LVL132:
 248:main.c        ****         CyDelay(2000);
 1132              		.loc 1 248 0
 1133 0074 AF21     		movs	r1, #175
ARM GAS  C:\Users\HENRYA~1\AppData\Local\Temp\cciShwZv.s 			page 29


 1134 0076 4900     		lsls	r1, r1, #1
 1135 0078 0020     		movs	r0, #0
 1136 007a FFF7FEFF 		bl	movimiento
 1137              	.LVL133:
 249:main.c        ****         for(i=2;i<cantidadM;i=i+4){ //Alineación
 1138              		.loc 1 249 0
 1139 007e 2000     		movs	r0, r4
 1140 0080 FFF7FEFF 		bl	CyDelay
 1141              	.LVL134:
 250:main.c        ****             movimiento(i,512);
 1142              		.loc 1 250 0
 1143 0084 0224     		movs	r4, #2
 1144 0086 0AE0     		b	.L75
 1145              	.LVL135:
 1146              	.L76:
 251:main.c        ****             movimiento(i+1,512);
 1147              		.loc 1 251 0 discriminator 3
 1148 0088 8025     		movs	r5, #128
 1149 008a AD00     		lsls	r5, r5, #2
 1150 008c 2900     		movs	r1, r5
 1151 008e 2000     		movs	r0, r4
 1152 0090 FFF7FEFF 		bl	movimiento
 1153              	.LVL136:
 252:main.c        ****         }    
 1154              		.loc 1 252 0 discriminator 3
 1155 0094 601C     		adds	r0, r4, #1
 1156 0096 2900     		movs	r1, r5
 1157 0098 FFF7FEFF 		bl	movimiento
 1158              	.LVL137:
 250:main.c        ****             movimiento(i,512);
 1159              		.loc 1 250 0 discriminator 3
 1160 009c 0434     		adds	r4, r4, #4
 1161              	.LVL138:
 1162              	.L75:
 250:main.c        ****             movimiento(i,512);
 1163              		.loc 1 250 0 is_stmt 0 discriminator 1
 1164 009e 104B     		ldr	r3, .L81
 1165 00a0 5B68     		ldr	r3, [r3, #4]
 1166 00a2 9C42     		cmp	r4, r3
 1167 00a4 F0DB     		blt	.L76
 254:main.c        ****     }         
 1168              		.loc 1 254 0 is_stmt 1 discriminator 2
 1169 00a6 FA20     		movs	r0, #250
 1170 00a8 C000     		lsls	r0, r0, #3
 1171 00aa FFF7FEFF 		bl	CyDelay
 1172              	.LVL139:
 241:main.c        ****         for(i=2;i<cantidadM;i=i+4){ 
 1173              		.loc 1 241 0 discriminator 2
 1174 00ae 0136     		adds	r6, r6, #1
 1175              	.LVL140:
 1176              	.L73:
 241:main.c        ****         for(i=2;i<cantidadM;i=i+4){ 
 1177              		.loc 1 241 0 is_stmt 0 discriminator 1
 1178 00b0 002E     		cmp	r6, #0
 1179 00b2 D1DD     		ble	.L80
 1180 00b4 0024     		movs	r4, #0
 1181 00b6 05E0     		b	.L78
ARM GAS  C:\Users\HENRYA~1\AppData\Local\Temp\cciShwZv.s 			page 30


 1182              	.LVL141:
 1183              	.L79:
 257:main.c        ****         }
 1184              		.loc 1 257 0 is_stmt 1 discriminator 3
 1185 00b8 8021     		movs	r1, #128
 1186 00ba 8900     		lsls	r1, r1, #2
 1187 00bc 2000     		movs	r0, r4
 1188 00be FFF7FEFF 		bl	movimiento
 1189              	.LVL142:
 256:main.c        ****         movimiento(i,512);
 1190              		.loc 1 256 0 discriminator 3
 1191 00c2 0134     		adds	r4, r4, #1
 1192              	.LVL143:
 1193              	.L78:
 256:main.c        ****         movimiento(i,512);
 1194              		.loc 1 256 0 is_stmt 0 discriminator 1
 1195 00c4 064B     		ldr	r3, .L81
 1196 00c6 5B68     		ldr	r3, [r3, #4]
 1197 00c8 9C42     		cmp	r4, r3
 1198 00ca F5DB     		blt	.L79
 259:main.c        ****     Send_Angle(0,0);
 1199              		.loc 1 259 0 is_stmt 1
 1200 00cc FA20     		movs	r0, #250
 1201 00ce C000     		lsls	r0, r0, #3
 1202 00d0 FFF7FEFF 		bl	CyDelay
 1203              	.LVL144:
 260:main.c        **** }
 1204              		.loc 1 260 0
 1205 00d4 0021     		movs	r1, #0
 1206 00d6 0020     		movs	r0, #0
 1207 00d8 FFF7FEFF 		bl	Send_Angle
 1208              	.LVL145:
 261:main.c        **** 
 1209              		.loc 1 261 0
 1210              		@ sp needed
 1211              	.LVL146:
 1212              	.LVL147:
 1213 00dc 70BD     		pop	{r4, r5, r6, pc}
 1214              	.L82:
 1215 00de C046     		.align	2
 1216              	.L81:
 1217 00e0 00000000 		.word	.LANCHOR0
 1218 00e4 A3020000 		.word	675
 1219              		.cfi_endproc
 1220              	.LFE48:
 1221              		.size	Right_Move, .-Right_Move
 1222              		.global	__aeabi_dcmplt
 1223              		.section	.text.Select_Move,"ax",%progbits
 1224              		.align	2
 1225              		.global	Select_Move
 1226              		.code	16
 1227              		.thumb_func
 1228              		.type	Select_Move, %function
 1229              	Select_Move:
 1230              	.LFB49:
 263:main.c        ****     Send_Angle(0,200);
 1231              		.loc 1 263 0
ARM GAS  C:\Users\HENRYA~1\AppData\Local\Temp\cciShwZv.s 			page 31


 1232              		.cfi_startproc
 1233              		@ args = 0, pretend = 0, frame = 8
 1234              		@ frame_needed = 0, uses_anonymous_args = 0
 1235 0000 D0B5     		push	{r4, r6, r7, lr}
 1236              		.cfi_def_cfa_offset 16
 1237              		.cfi_offset 4, -16
 1238              		.cfi_offset 6, -12
 1239              		.cfi_offset 7, -8
 1240              		.cfi_offset 14, -4
 1241 0002 82B0     		sub	sp, sp, #8
 1242              		.cfi_def_cfa_offset 24
 264:main.c        ****     int  i=0;
 1243              		.loc 1 264 0
 1244 0004 C821     		movs	r1, #200
 1245 0006 0020     		movs	r0, #0
 1246 0008 FFF7FEFF 		bl	Send_Angle
 1247              	.LVL148:
 266:main.c        ****         movimiento(i,512);
 1248              		.loc 1 266 0
 1249 000c 0024     		movs	r4, #0
 1250 000e 05E0     		b	.L84
 1251              	.LVL149:
 1252              	.L85:
 267:main.c        ****         }
 1253              		.loc 1 267 0 discriminator 3
 1254 0010 8021     		movs	r1, #128
 1255 0012 8900     		lsls	r1, r1, #2
 1256 0014 2000     		movs	r0, r4
 1257 0016 FFF7FEFF 		bl	movimiento
 1258              	.LVL150:
 266:main.c        ****         movimiento(i,512);
 1259              		.loc 1 266 0 discriminator 3
 1260 001a 0134     		adds	r4, r4, #1
 1261              	.LVL151:
 1262              	.L84:
 266:main.c        ****         movimiento(i,512);
 1263              		.loc 1 266 0 is_stmt 0 discriminator 1
 1264 001c 174B     		ldr	r3, .L91
 1265 001e 5B68     		ldr	r3, [r3, #4]
 1266 0020 9C42     		cmp	r4, r3
 1267 0022 F5DB     		blt	.L85
 269:main.c        ****     movimiento(2,650);
 1268              		.loc 1 269 0 is_stmt 1
 1269 0024 FA20     		movs	r0, #250
 1270 0026 C000     		lsls	r0, r0, #3
 1271 0028 FFF7FEFF 		bl	CyDelay
 1272              	.LVL152:
 270:main.c        ****     CyDelay(4000);
 1273              		.loc 1 270 0
 1274 002c 1449     		ldr	r1, .L91+4
 1275 002e 0220     		movs	r0, #2
 1276 0030 FFF7FEFF 		bl	movimiento
 1277              	.LVL153:
 271:main.c        ****     double a=Medir_dist();
 1278              		.loc 1 271 0
 1279 0034 FA24     		movs	r4, #250
 1280              	.LVL154:
ARM GAS  C:\Users\HENRYA~1\AppData\Local\Temp\cciShwZv.s 			page 32


 1281 0036 2401     		lsls	r4, r4, #4
 1282 0038 2000     		movs	r0, r4
 1283 003a FFF7FEFF 		bl	CyDelay
 1284              	.LVL155:
 272:main.c        ****     movimiento(2,374);
 1285              		.loc 1 272 0
 1286 003e FFF7FEFF 		bl	Medir_dist
 1287              	.LVL156:
 1288 0042 0600     		movs	r6, r0
 1289 0044 0F00     		movs	r7, r1
 1290              	.LVL157:
 273:main.c        ****     double b=Medir_dist();
 1291              		.loc 1 273 0
 1292 0046 BB21     		movs	r1, #187
 1293 0048 4900     		lsls	r1, r1, #1
 1294 004a 0220     		movs	r0, #2
 1295 004c FFF7FEFF 		bl	movimiento
 1296              	.LVL158:
 274:main.c        ****     CyDelay(4000);
 1297              		.loc 1 274 0
 1298 0050 FFF7FEFF 		bl	Medir_dist
 1299              	.LVL159:
 1300 0054 0090     		str	r0, [sp]
 1301 0056 0191     		str	r1, [sp, #4]
 1302              	.LVL160:
 275:main.c        ****     if(a<b){
 1303              		.loc 1 275 0
 1304 0058 2000     		movs	r0, r4
 1305              	.LVL161:
 1306 005a FFF7FEFF 		bl	CyDelay
 1307              	.LVL162:
 276:main.c        ****         Left_Move();    
 1308              		.loc 1 276 0
 1309 005e 009A     		ldr	r2, [sp]
 1310 0060 019B     		ldr	r3, [sp, #4]
 1311 0062 3000     		movs	r0, r6
 1312 0064 3900     		movs	r1, r7
 1313 0066 FFF7FEFF 		bl	__aeabi_dcmplt
 1314              	.LVL163:
 1315 006a 0028     		cmp	r0, #0
 1316 006c 02D0     		beq	.L90
 277:main.c        ****     }
 1317              		.loc 1 277 0
 1318 006e FFF7FEFF 		bl	Left_Move
 1319              	.LVL164:
 1320 0072 01E0     		b	.L83
 1321              	.L90:
 280:main.c        ****     }
 1322              		.loc 1 280 0
 1323 0074 FFF7FEFF 		bl	Right_Move
 1324              	.LVL165:
 1325              	.L83:
 282:main.c        **** 
 1326              		.loc 1 282 0
 1327 0078 02B0     		add	sp, sp, #8
 1328              	.LVL166:
 1329              		@ sp needed
ARM GAS  C:\Users\HENRYA~1\AppData\Local\Temp\cciShwZv.s 			page 33


 1330              	.LVL167:
 1331 007a D0BD     		pop	{r4, r6, r7, pc}
 1332              	.L92:
 1333              		.align	2
 1334              	.L91:
 1335 007c 00000000 		.word	.LANCHOR0
 1336 0080 8A020000 		.word	650
 1337              		.cfi_endproc
 1338              	.LFE49:
 1339              		.size	Select_Move, .-Select_Move
 1340              		.section	.text.Temporizador,"ax",%progbits
 1341              		.align	2
 1342              		.global	Temporizador
 1343              		.code	16
 1344              		.thumb_func
 1345              		.type	Temporizador, %function
 1346              	Temporizador:
 1347              	.LFB52:
 295:main.c        **** 
 296:main.c        **** CY_ISR(Temporizador){
 1348              		.loc 1 296 0
 1349              		.cfi_startproc
 1350              		@ args = 0, pretend = 0, frame = 0
 1351              		@ frame_needed = 0, uses_anonymous_args = 0
 1352 0000 70B5     		push	{r4, r5, r6, lr}
 1353              		.cfi_def_cfa_offset 16
 1354              		.cfi_offset 4, -16
 1355              		.cfi_offset 5, -12
 1356              		.cfi_offset 6, -8
 1357              		.cfi_offset 14, -4
 297:main.c        ****     conta++;
 1358              		.loc 1 297 0
 1359 0002 2D4A     		ldr	r2, .L101
 1360 0004 9389     		ldrh	r3, [r2, #12]
 1361 0006 0133     		adds	r3, r3, #1
 1362 0008 1BB2     		sxth	r3, r3
 1363 000a 9381     		strh	r3, [r2, #12]
 298:main.c        ****     if(conta==Max_Conta){     
 1364              		.loc 1 298 0
 1365 000c 2B4A     		ldr	r2, .L101+4
 1366 000e 1268     		ldr	r2, [r2]
 1367 0010 9342     		cmp	r3, r2
 1368 0012 4DD1     		bne	.L94
 299:main.c        ****         LED_1_Write(1);
 1369              		.loc 1 299 0
 1370 0014 0120     		movs	r0, #1
 1371 0016 FFF7FEFF 		bl	LED_1_Write
 1372              	.LVL168:
 300:main.c        ****         if(Cantidad_Sensores==2&&dist<20){
 1373              		.loc 1 300 0
 1374 001a 274B     		ldr	r3, .L101
 1375 001c 9B68     		ldr	r3, [r3, #8]
 1376 001e 022B     		cmp	r3, #2
 1377 0020 06D1     		bne	.L95
 1378              		.loc 1 300 0 is_stmt 0 discriminator 1
 1379 0022 254A     		ldr	r2, .L101
 1380 0024 1278     		ldrb	r2, [r2]
ARM GAS  C:\Users\HENRYA~1\AppData\Local\Temp\cciShwZv.s 			page 34


 1381 0026 132A     		cmp	r2, #19
 1382 0028 02D8     		bhi	.L95
 301:main.c        ****             Select_Move();      
 1383              		.loc 1 301 0 is_stmt 1
 1384 002a FFF7FEFF 		bl	Select_Move
 1385              	.LVL169:
 1386 002e 3BE0     		b	.L96
 1387              	.L95:
 302:main.c        ****         }
 303:main.c        ****         else if(Cantidad_Sensores==3){//Izquierda
 1388              		.loc 1 303 0
 1389 0030 032B     		cmp	r3, #3
 1390 0032 02D1     		bne	.L97
 304:main.c        ****             Left_Move();
 1391              		.loc 1 304 0
 1392 0034 FFF7FEFF 		bl	Left_Move
 1393              	.LVL170:
 1394 0038 36E0     		b	.L96
 1395              	.L97:
 305:main.c        ****         }
 306:main.c        ****         else if(Cantidad_Sensores==6){//Derecha
 1396              		.loc 1 306 0
 1397 003a 062B     		cmp	r3, #6
 1398 003c 02D1     		bne	.L98
 307:main.c        ****             Right_Move();           
 1399              		.loc 1 307 0
 1400 003e FFF7FEFF 		bl	Right_Move
 1401              	.LVL171:
 1402 0042 31E0     		b	.L96
 1403              	.L98:
 308:main.c        ****         }
 309:main.c        ****         else if(Cantidad_Sensores==7){//Reversa
 1404              		.loc 1 309 0
 1405 0044 072B     		cmp	r3, #7
 1406 0046 19D1     		bne	.L99
 310:main.c        ****             Amplitud_V=0.8;Offset_V=0.833;Fase_V=0.5;
 1407              		.loc 1 310 0
 1408 0048 1B4C     		ldr	r4, .L101
 1409 004a 1D48     		ldr	r0, .L101+8
 1410 004c 2061     		str	r0, [r4, #16]
 1411 004e 1B4D     		ldr	r5, .L101+4
 1412 0050 1C4A     		ldr	r2, .L101+12
 1413 0052 6A60     		str	r2, [r5, #4]
 1414 0054 FC21     		movs	r1, #252
 1415 0056 8905     		lsls	r1, r1, #22
 1416 0058 6161     		str	r1, [r4, #20]
 311:main.c        ****             Enviar_Parametros(Amplitud_V,Fase_V,Offset_V,V); 
 1417              		.loc 1 311 0
 1418 005a 1A33     		adds	r3, r3, #26
 1419 005c FFF7FEFF 		bl	Enviar_Parametros
 1420              	.LVL172:
 312:main.c        ****             CyDelay(1000);
 1421              		.loc 1 312 0
 1422 0060 FA20     		movs	r0, #250
 1423 0062 8000     		lsls	r0, r0, #2
 1424 0064 FFF7FEFF 		bl	CyDelay
 1425              	.LVL173:
ARM GAS  C:\Users\HENRYA~1\AppData\Local\Temp\cciShwZv.s 			page 35


 313:main.c        ****             Enviar_Parametros(0.0,Fase_V,Offset_V,H);
 1426              		.loc 1 313 0
 1427 0068 6A68     		ldr	r2, [r5, #4]
 1428 006a 6169     		ldr	r1, [r4, #20]
 1429 006c 2023     		movs	r3, #32
 1430 006e 0020     		movs	r0, #0
 1431 0070 FFF7FEFF 		bl	Enviar_Parametros
 1432              	.LVL174:
 314:main.c        ****             CyDelay(15000);
 1433              		.loc 1 314 0
 1434 0074 1448     		ldr	r0, .L101+16
 1435 0076 FFF7FEFF 		bl	CyDelay
 1436              	.LVL175:
 1437 007a 15E0     		b	.L96
 1438              	.L99:
 315:main.c        ****         }
 316:main.c        ****         else{   //Adelante
 317:main.c        ****             Amplitud_V=0.8;Offset_V=0.833;Fase_V=-0.5;
 1439              		.loc 1 317 0
 1440 007c 0E4C     		ldr	r4, .L101
 1441 007e 1048     		ldr	r0, .L101+8
 1442 0080 2061     		str	r0, [r4, #16]
 1443 0082 0E4D     		ldr	r5, .L101+4
 1444 0084 0F4A     		ldr	r2, .L101+12
 1445 0086 6A60     		str	r2, [r5, #4]
 1446 0088 BF21     		movs	r1, #191
 1447 008a 0906     		lsls	r1, r1, #24
 1448 008c 6161     		str	r1, [r4, #20]
 318:main.c        ****             Enviar_Parametros(Amplitud_V,Fase_V,Offset_V,V);    
 1449              		.loc 1 318 0
 1450 008e 2123     		movs	r3, #33
 1451 0090 FFF7FEFF 		bl	Enviar_Parametros
 1452              	.LVL176:
 319:main.c        ****             CyDelay(1000);
 1453              		.loc 1 319 0
 1454 0094 FA20     		movs	r0, #250
 1455 0096 8000     		lsls	r0, r0, #2
 1456 0098 FFF7FEFF 		bl	CyDelay
 1457              	.LVL177:
 320:main.c        ****             Enviar_Parametros(0.0,Fase_V,Offset_V,H);
 1458              		.loc 1 320 0
 1459 009c 6A68     		ldr	r2, [r5, #4]
 1460 009e 6169     		ldr	r1, [r4, #20]
 1461 00a0 2023     		movs	r3, #32
 1462 00a2 0020     		movs	r0, #0
 1463 00a4 FFF7FEFF 		bl	Enviar_Parametros
 1464              	.LVL178:
 1465              	.L96:
 321:main.c        ****         }
 322:main.c        ****         conta=0;
 1466              		.loc 1 322 0
 1467 00a8 0022     		movs	r2, #0
 1468 00aa 034B     		ldr	r3, .L101
 1469 00ac 9A81     		strh	r2, [r3, #12]
 1470 00ae 02E0     		b	.L93
 1471              	.L94:
 323:main.c        ****     }
ARM GAS  C:\Users\HENRYA~1\AppData\Local\Temp\cciShwZv.s 			page 36


 324:main.c        ****     else{
 325:main.c        ****         LED_1_Write(0);
 1472              		.loc 1 325 0
 1473 00b0 0020     		movs	r0, #0
 1474 00b2 FFF7FEFF 		bl	LED_1_Write
 1475              	.LVL179:
 1476              	.L93:
 326:main.c        ****     }  
 327:main.c        **** }
 1477              		.loc 1 327 0
 1478              		@ sp needed
 1479 00b6 70BD     		pop	{r4, r5, r6, pc}
 1480              	.L102:
 1481              		.align	2
 1482              	.L101:
 1483 00b8 00000000 		.word	.LANCHOR0
 1484 00bc 00000000 		.word	.LANCHOR1
 1485 00c0 CDCC4C3F 		.word	1061997773
 1486 00c4 7D3F553F 		.word	1062551421
 1487 00c8 983A0000 		.word	15000
 1488              		.cfi_endproc
 1489              	.LFE52:
 1490              		.size	Temporizador, .-Temporizador
 1491              		.section	.text.main,"ax",%progbits
 1492              		.align	2
 1493              		.global	main
 1494              		.code	16
 1495              		.thumb_func
 1496              		.type	main, %function
 1497              	main:
 1498              	.LFB53:
 328:main.c        **** 
 329:main.c        **** int main()
 330:main.c        **** {
 1499              		.loc 1 330 0
 1500              		.cfi_startproc
 1501              		@ Volatile: function does not return.
 1502              		@ args = 0, pretend = 0, frame = 0
 1503              		@ frame_needed = 0, uses_anonymous_args = 0
 1504 0000 10B5     		push	{r4, lr}
 1505              		.cfi_def_cfa_offset 8
 1506              		.cfi_offset 4, -8
 1507              		.cfi_offset 14, -4
 331:main.c        ****     //Init LED's
 332:main.c        ****     CAN_Start(); ///  start CAN
 1508              		.loc 1 332 0
 1509 0002 FFF7FEFF 		bl	CAN_Start
 1510              	.LVL180:
 333:main.c        ****     Timer_1_Start();
 1511              		.loc 1 333 0
 1512 0006 FFF7FEFF 		bl	Timer_1_Start
 1513              	.LVL181:
 334:main.c        ****     Timer_Start();
 1514              		.loc 1 334 0
 1515 000a FFF7FEFF 		bl	Timer_Start
 1516              	.LVL182:
 335:main.c        ****     SENSOR_U_Start();
ARM GAS  C:\Users\HENRYA~1\AppData\Local\Temp\cciShwZv.s 			page 37


 1517              		.loc 1 335 0
 1518 000e FFF7FEFF 		bl	SENSOR_U_Start
 1519              	.LVL183:
 336:main.c        ****     CAN_isr_StartEx(interrutcan);
 1520              		.loc 1 336 0
 1521 0012 0848     		ldr	r0, .L105
 1522 0014 FFF7FEFF 		bl	CAN_isr_StartEx
 1523              	.LVL184:
 337:main.c        ****     CAN_GlobalIntEnable();
 1524              		.loc 1 337 0
 1525 0018 FFF7FEFF 		bl	CAN_GlobalIntEnable
 1526              	.LVL185:
 338:main.c        ****     Int_Serial_StartEx(Serial_Interrupt);
 1527              		.loc 1 338 0
 1528 001c 0648     		ldr	r0, .L105+4
 1529 001e FFF7FEFF 		bl	Int_Serial_StartEx
 1530              	.LVL186:
 339:main.c        ****     Timer_StartEx(Temporizador);
 1531              		.loc 1 339 0
 1532 0022 0648     		ldr	r0, .L105+8
 1533 0024 FFF7FEFF 		bl	Timer_StartEx
 1534              	.LVL187:
 340:main.c        ****     LED_1_Write(0);
 1535              		.loc 1 340 0
 1536 0028 0020     		movs	r0, #0
 1537 002a FFF7FEFF 		bl	LED_1_Write
 1538              	.LVL188:
 341:main.c        ****     CyGlobalIntEnable;
 1539              		.loc 1 341 0
 1540              		.syntax divided
 1541              	@ 341 "main.c" 1
 1542 002e 62B6     		CPSIE   i
 1543              	@ 0 "" 2
 1544              		.thumb
 1545              		.syntax unified
 1546              	.L104:
 1547 0030 FEE7     		b	.L104
 1548              	.L106:
 1549 0032 C046     		.align	2
 1550              	.L105:
 1551 0034 00000000 		.word	interrutcan
 1552 0038 00000000 		.word	Serial_Interrupt
 1553 003c 00000000 		.word	Temporizador
 1554              		.cfi_endproc
 1555              	.LFE53:
 1556              		.size	main, .-main
 1557              		.global	conta_H
 1558              		.global	Cantidad_Sensores
 1559              		.global	L_anterior
 1560              		.global	L_actual
 1561              		.global	flag
 1562              		.global	pha_aux
 1563              		.global	off_aux
 1564              		.global	ampli_aux
 1565              		.global	Fase_V
 1566              		.global	Offset_V
 1567              		.global	Amplitud_V
ARM GAS  C:\Users\HENRYA~1\AppData\Local\Temp\cciShwZv.s 			page 38


 1568              		.global	Fase_H
 1569              		.global	Offset_H
 1570              		.global	Amplitud_H
 1571              		.global	Max_Conta
 1572              		.global	cantidadM
 1573              		.global	conta
 1574              		.global	dist
 1575              		.comm	dato_enviado_1,8,4
 1576              		.comm	dato_enviado,8,4
 1577              		.comm	mailbox2,8,4
 1578              		.comm	mailbox1,8,4
 1579              		.comm	mailbox0,8,4
 1580              		.data
 1581              		.align	2
 1582              		.set	.LANCHOR1,. + 0
 1583              		.type	Max_Conta, %object
 1584              		.size	Max_Conta, 4
 1585              	Max_Conta:
 1586 0000 05000000 		.word	5
 1587              		.type	Offset_V, %object
 1588              		.size	Offset_V, 4
 1589              	Offset_V:
 1590 0004 7D3F553F 		.word	1062551421
 1591              		.type	Offset_H, %object
 1592              		.size	Offset_H, 4
 1593              	Offset_H:
 1594 0008 7D3F553F 		.word	1062551421
 1595              		.bss
 1596              		.align	2
 1597              		.set	.LANCHOR0,. + 0
 1598              		.type	dist, %object
 1599              		.size	dist, 1
 1600              	dist:
 1601 0000 00       		.space	1
 1602 0001 000000   		.space	3
 1603              		.type	cantidadM, %object
 1604              		.size	cantidadM, 4
 1605              	cantidadM:
 1606 0004 00000000 		.space	4
 1607              		.type	Cantidad_Sensores, %object
 1608              		.size	Cantidad_Sensores, 4
 1609              	Cantidad_Sensores:
 1610 0008 00000000 		.space	4
 1611              		.type	conta, %object
 1612              		.size	conta, 2
 1613              	conta:
 1614 000c 0000     		.space	2
 1615 000e 0000     		.space	2
 1616              		.type	Amplitud_V, %object
 1617              		.size	Amplitud_V, 4
 1618              	Amplitud_V:
 1619 0010 00000000 		.space	4
 1620              		.type	Fase_V, %object
 1621              		.size	Fase_V, 4
 1622              	Fase_V:
 1623 0014 00000000 		.space	4
 1624              		.type	conta_H, %object
ARM GAS  C:\Users\HENRYA~1\AppData\Local\Temp\cciShwZv.s 			page 39


 1625              		.size	conta_H, 4
 1626              	conta_H:
 1627 0018 00000000 		.space	4
 1628              		.type	L_anterior, %object
 1629              		.size	L_anterior, 4
 1630              	L_anterior:
 1631 001c 00000000 		.space	4
 1632              		.type	L_actual, %object
 1633              		.size	L_actual, 4
 1634              	L_actual:
 1635 0020 00000000 		.space	4
 1636              		.type	flag, %object
 1637              		.size	flag, 4
 1638              	flag:
 1639 0024 00000000 		.space	4
 1640              		.type	pha_aux, %object
 1641              		.size	pha_aux, 4
 1642              	pha_aux:
 1643 0028 00000000 		.space	4
 1644              		.type	off_aux, %object
 1645              		.size	off_aux, 4
 1646              	off_aux:
 1647 002c 00000000 		.space	4
 1648              		.type	ampli_aux, %object
 1649              		.size	ampli_aux, 4
 1650              	ampli_aux:
 1651 0030 00000000 		.space	4
 1652              		.type	Fase_H, %object
 1653              		.size	Fase_H, 4
 1654              	Fase_H:
 1655 0034 00000000 		.space	4
 1656              		.type	Amplitud_H, %object
 1657              		.size	Amplitud_H, 4
 1658              	Amplitud_H:
 1659 0038 00000000 		.space	4
 1660              		.text
 1661              	.Letext0:
 1662              		.file 2 "Generated_Source\\PSoC4/cytypes.h"
 1663              		.file 3 "Generated_Source\\PSoC4/SENSOR_U.h"
 1664              		.file 4 "c:\\program files (x86)\\cypress\\psoc creator\\4.1\\psoc creator\\import\\gnu\\arm\\5.4.
 1665              		.file 5 "Generated_Source\\PSoC4/CAN.h"
 1666              		.file 6 "Generated_Source\\PSoC4/CyLib.h"
 1667              		.file 7 "Generated_Source\\PSoC4/LED_1.h"
 1668              		.file 8 "Generated_Source\\PSoC4/Timer_1.h"
 1669              		.file 9 "Generated_Source\\PSoC4/Timer.h"
 1670              		.file 10 "Generated_Source\\PSoC4/CAN_isr.h"
 1671              		.file 11 "Generated_Source\\PSoC4/Int_Serial.h"