ARM GAS  C:\Users\HENRYA~1\AppData\Local\Temp\ccnCD7an.s 			page 1


   1              		.syntax unified
   2              		.cpu cortex-m0
   3              		.fpu softvfp
   4              		.eabi_attribute 20, 1
   5              		.eabi_attribute 21, 1
   6              		.eabi_attribute 23, 3
   7              		.eabi_attribute 24, 1
   8              		.eabi_attribute 25, 1
   9              		.eabi_attribute 26, 1
  10              		.eabi_attribute 30, 1
  11              		.eabi_attribute 34, 0
  12              		.eabi_attribute 18, 4
  13              		.thumb
  14              		.syntax unified
  15              		.file	"CAN_TX_RX_func.c"
  16              		.text
  17              	.Ltext0:
  18              		.cfi_sections	.debug_frame
  19              		.section	.text.CAN_SendMsg,"ax",%progbits
  20              		.align	2
  21              		.global	CAN_SendMsg
  22              		.code	16
  23              		.thumb_func
  24              		.type	CAN_SendMsg, %function
  25              	CAN_SendMsg:
  26              	.LFB1:
  27              		.file 1 "CAN_TX_RX_func.c"
   1:CAN_TX_RX_func.c **** /*******************************************************************************
   2:CAN_TX_RX_func.c **** * File Name: CAN_TX_RX_func.c
   3:CAN_TX_RX_func.c **** * Version 3.0
   4:CAN_TX_RX_func.c **** *
   5:CAN_TX_RX_func.c **** * Description:
   6:CAN_TX_RX_func.c **** *  There are functions process "Full" Receive and Transmit mailboxes:
   7:CAN_TX_RX_func.c **** *     - CAN_SendMsg0-7();
   8:CAN_TX_RX_func.c **** *     - CAN_ReceiveMsg0-15();
   9:CAN_TX_RX_func.c **** *  Transmission of message, and receive routine for "Basic" mailboxes:
  10:CAN_TX_RX_func.c **** *     - CAN_SendMsg();
  11:CAN_TX_RX_func.c **** *     - CAN_TxCancel();
  12:CAN_TX_RX_func.c **** *     - CAN_ReceiveMsg();
  13:CAN_TX_RX_func.c **** *
  14:CAN_TX_RX_func.c **** *  Note:
  15:CAN_TX_RX_func.c **** *   None
  16:CAN_TX_RX_func.c **** *
  17:CAN_TX_RX_func.c **** ********************************************************************************
  18:CAN_TX_RX_func.c **** * Copyright 2008-2015, Cypress Semiconductor Corporation.  All rights reserved.
  19:CAN_TX_RX_func.c **** * You may use this file only in accordance with the license, terms, conditions,
  20:CAN_TX_RX_func.c **** * disclaimers, and limitations in the end user license agreement accompanying
  21:CAN_TX_RX_func.c **** * the software package with which this file was provided.
  22:CAN_TX_RX_func.c **** *******************************************************************************/
  23:CAN_TX_RX_func.c **** 
  24:CAN_TX_RX_func.c **** #include "CAN.h"
  25:CAN_TX_RX_func.c **** #include "cyapicallbacks.h"
  26:CAN_TX_RX_func.c **** 
  27:CAN_TX_RX_func.c **** /* `#START TX_RX_FUNCTION` */
  28:CAN_TX_RX_func.c **** extern uint8 dato_enviado[8];
  29:CAN_TX_RX_func.c **** extern uint8 dato_enviado_1[8];
  30:CAN_TX_RX_func.c **** extern uint8 mailbox0[8];
ARM GAS  C:\Users\HENRYA~1\AppData\Local\Temp\ccnCD7an.s 			page 2


  31:CAN_TX_RX_func.c **** extern uint8 mailbox1[8];
  32:CAN_TX_RX_func.c **** extern uint8 mailbox2[8];
  33:CAN_TX_RX_func.c **** extern uint8 mailbox3[8];
  34:CAN_TX_RX_func.c **** extern uint8 mailbox4[8];
  35:CAN_TX_RX_func.c **** /* `#END` */
  36:CAN_TX_RX_func.c **** 
  37:CAN_TX_RX_func.c **** 
  38:CAN_TX_RX_func.c **** /*******************************************************************************
  39:CAN_TX_RX_func.c **** * FUNCTION NAME:   CAN_SendMsg
  40:CAN_TX_RX_func.c **** ********************************************************************************
  41:CAN_TX_RX_func.c **** *
  42:CAN_TX_RX_func.c **** * Summary:
  43:CAN_TX_RX_func.c **** *  This function is Send Message from one of Basic mailboxes. The function loops
  44:CAN_TX_RX_func.c **** *  through the transmit message buffer designed as Basic CAN mailboxes for the
  45:CAN_TX_RX_func.c **** *  first free available and sends from it. The number of retries is limited.
  46:CAN_TX_RX_func.c **** *
  47:CAN_TX_RX_func.c **** * Parameters:
  48:CAN_TX_RX_func.c **** *  message: The pointer to a structure that contains all required data to send
  49:CAN_TX_RX_func.c **** *           messages.
  50:CAN_TX_RX_func.c **** *
  51:CAN_TX_RX_func.c **** * Return:
  52:CAN_TX_RX_func.c **** *  Indication if message has been sent.
  53:CAN_TX_RX_func.c **** *   Define                             Description
  54:CAN_TX_RX_func.c **** *    CYRET_SUCCESS                      The function passed successfully
  55:CAN_TX_RX_func.c **** *    CAN_FAIL              The function failed
  56:CAN_TX_RX_func.c **** *
  57:CAN_TX_RX_func.c **** *******************************************************************************/
  58:CAN_TX_RX_func.c **** uint8 CAN_SendMsg(const CAN_TX_MSG *message) 
  59:CAN_TX_RX_func.c **** {
  28              		.loc 1 59 0
  29              		.cfi_startproc
  30              		@ args = 0, pretend = 0, frame = 0
  31              		@ frame_needed = 0, uses_anonymous_args = 0
  32              	.LVL0:
  33 0000 F8B5     		push	{r3, r4, r5, r6, r7, lr}
  34              		.cfi_def_cfa_offset 24
  35              		.cfi_offset 3, -24
  36              		.cfi_offset 4, -20
  37              		.cfi_offset 5, -16
  38              		.cfi_offset 6, -12
  39              		.cfi_offset 7, -8
  40              		.cfi_offset 14, -4
  41 0002 4F46     		mov	r7, r9
  42 0004 4646     		mov	r6, r8
  43 0006 C0B4     		push	{r6, r7}
  44              		.cfi_def_cfa_offset 32
  45              		.cfi_offset 8, -32
  46              		.cfi_offset 9, -28
  47 0008 0600     		movs	r6, r0
  48              	.LVL1:
  60:CAN_TX_RX_func.c ****     uint8 i, j, shift;
  61:CAN_TX_RX_func.c ****     uint8 retry = 0u;
  62:CAN_TX_RX_func.c ****     uint8 result = CAN_FAIL;
  49              		.loc 1 62 0
  50 000a 0120     		movs	r0, #1
  51              	.LVL2:
  61:CAN_TX_RX_func.c ****     uint8 result = CAN_FAIL;
ARM GAS  C:\Users\HENRYA~1\AppData\Local\Temp\ccnCD7an.s 			page 3


  52              		.loc 1 61 0
  53 000c 0023     		movs	r3, #0
  54 000e 9846     		mov	r8, r3
  63:CAN_TX_RX_func.c ****     uint32 regTemp;
  64:CAN_TX_RX_func.c **** 
  65:CAN_TX_RX_func.c ****     while (retry < CAN_RETRY_NUMBER)
  55              		.loc 1 65 0
  56 0010 94E0     		b	.L2
  57              	.LVL3:
  58              	.L18:
  66:CAN_TX_RX_func.c ****     {
  67:CAN_TX_RX_func.c ****         shift = 1u;    /* Start from first mailbox */
  68:CAN_TX_RX_func.c ****         for (i = 0u; i < CAN_NUMBER_OF_TX_MAILBOXES; i++)
  69:CAN_TX_RX_func.c ****         {
  70:CAN_TX_RX_func.c ****             /* Find Basic TX mailboxes */
  71:CAN_TX_RX_func.c ****             if ((CAN_TX_MAILBOX_TYPE & shift) == 0u)
  59              		.loc 1 71 0
  60 0012 1323     		movs	r3, #19
  61 0014 2B42     		tst	r3, r5
  62 0016 7FD1     		bne	.L3
  72:CAN_TX_RX_func.c ****             {
  73:CAN_TX_RX_func.c ****                 /* Find free mailbox */
  74:CAN_TX_RX_func.c ****                 #if (CY_PSOC3 || CY_PSOC5)
  75:CAN_TX_RX_func.c ****                     if ((CAN_BUF_SR_REG.byte[2] & shift) == 0u)
  76:CAN_TX_RX_func.c ****                 #else  /* CY_PSOC4 */
  77:CAN_TX_RX_func.c ****                     if ((CAN_BUF_SR_REG &
  63              		.loc 1 77 0
  64 0018 4C4B     		ldr	r3, .L23
  65 001a 1B68     		ldr	r3, [r3]
  78:CAN_TX_RX_func.c ****                         (uint32) ((uint32) shift << CAN_TWO_BYTE_OFFSET)) == 0u)
  66              		.loc 1 78 0
  67 001c 2A04     		lsls	r2, r5, #16
  77:CAN_TX_RX_func.c ****                         (uint32) ((uint32) shift << CAN_TWO_BYTE_OFFSET)) == 0u)
  68              		.loc 1 77 0
  69 001e 1A42     		tst	r2, r3
  70 0020 7AD1     		bne	.L3
  71              	.LVL4:
  79:CAN_TX_RX_func.c ****                 #endif /* CY_PSOC3 || CY_PSOC5 */
  80:CAN_TX_RX_func.c ****                     {
  81:CAN_TX_RX_func.c ****                         regTemp = 0u;
  82:CAN_TX_RX_func.c **** 
  83:CAN_TX_RX_func.c ****                         /* Set message parameters */
  84:CAN_TX_RX_func.c ****                         if (message->rtr != CAN_STANDARD_MESSAGE)
  72              		.loc 1 84 0
  73 0022 3379     		ldrb	r3, [r6, #4]
  74 0024 002B     		cmp	r3, #0
  75 0026 01D1     		bne	.L21
  81:CAN_TX_RX_func.c **** 
  76              		.loc 1 81 0
  77 0028 0027     		movs	r7, #0
  78 002a 01E0     		b	.L4
  79              	.L21:
  85:CAN_TX_RX_func.c ****                         {
  86:CAN_TX_RX_func.c ****                             regTemp = CAN_TX_RTR_MASK;    /* RTR message Enable */
  80              		.loc 1 86 0
  81 002c 8027     		movs	r7, #128
  82 002e BF03     		lsls	r7, r7, #14
ARM GAS  C:\Users\HENRYA~1\AppData\Local\Temp\ccnCD7an.s 			page 4


  83              	.L4:
  84              	.LVL5:
  87:CAN_TX_RX_func.c ****                         }
  88:CAN_TX_RX_func.c **** 
  89:CAN_TX_RX_func.c ****                         if (message->ide == CAN_STANDARD_MESSAGE)
  85              		.loc 1 89 0
  86 0030 7379     		ldrb	r3, [r6, #5]
  87 0032 002B     		cmp	r3, #0
  88 0034 07D1     		bne	.L5
  90:CAN_TX_RX_func.c ****                         {
  91:CAN_TX_RX_func.c ****                             CAN_SET_TX_ID_STANDARD_MSG(i, message->id);
  89              		.loc 1 91 0
  90 0036 2301     		lsls	r3, r4, #4
  91 0038 454A     		ldr	r2, .L23+4
  92 003a 9446     		mov	ip, r2
  93 003c 6344     		add	r3, r3, ip
  94 003e 3268     		ldr	r2, [r6]
  95 0040 5205     		lsls	r2, r2, #21
  96 0042 5A60     		str	r2, [r3, #4]
  97 0044 09E0     		b	.L6
  98              	.L5:
  92:CAN_TX_RX_func.c ****                         }
  93:CAN_TX_RX_func.c ****                         else
  94:CAN_TX_RX_func.c ****                         {
  95:CAN_TX_RX_func.c ****                             regTemp |= CAN_TX_IDE_MASK;
  99              		.loc 1 95 0
 100 0046 8023     		movs	r3, #128
 101 0048 5B03     		lsls	r3, r3, #13
 102 004a 1F43     		orrs	r7, r3
 103              	.LVL6:
  96:CAN_TX_RX_func.c ****                             CAN_SET_TX_ID_EXTENDED_MSG(i, message->id);
 104              		.loc 1 96 0
 105 004c 2301     		lsls	r3, r4, #4
 106 004e 404A     		ldr	r2, .L23+4
 107 0050 9446     		mov	ip, r2
 108 0052 6344     		add	r3, r3, ip
 109 0054 3268     		ldr	r2, [r6]
 110 0056 D200     		lsls	r2, r2, #3
 111 0058 5A60     		str	r2, [r3, #4]
 112              	.L6:
  97:CAN_TX_RX_func.c ****                         }
  98:CAN_TX_RX_func.c **** 
  99:CAN_TX_RX_func.c ****                         if (message->dlc < CAN_TX_DLC_MAX_VALUE)
 113              		.loc 1 99 0
 114 005a B379     		ldrb	r3, [r6, #6]
 115 005c 072B     		cmp	r3, #7
 116 005e 03D8     		bhi	.L7
 100:CAN_TX_RX_func.c ****                         {
 101:CAN_TX_RX_func.c ****                             regTemp |= ((uint32) message->dlc) << CAN_TWO_BYTE_OFFSET;
 117              		.loc 1 101 0
 118 0060 1B04     		lsls	r3, r3, #16
 119 0062 1F43     		orrs	r7, r3
 120              	.LVL7:
 121 0064 B946     		mov	r9, r7
 122              	.LVL8:
 123 0066 03E0     		b	.L8
 124              	.L7:
ARM GAS  C:\Users\HENRYA~1\AppData\Local\Temp\ccnCD7an.s 			page 5


 102:CAN_TX_RX_func.c ****                         }
 103:CAN_TX_RX_func.c ****                         else
 104:CAN_TX_RX_func.c ****                         {
 105:CAN_TX_RX_func.c ****                             regTemp |= CAN_TX_DLC_UPPER_VALUE;
 125              		.loc 1 105 0
 126 0068 8023     		movs	r3, #128
 127 006a 1B03     		lsls	r3, r3, #12
 128 006c 1F43     		orrs	r7, r3
 129              	.LVL9:
 130 006e B946     		mov	r9, r7
 131              	.LVL10:
 132              	.L8:
 106:CAN_TX_RX_func.c ****                         }
 107:CAN_TX_RX_func.c **** 
 108:CAN_TX_RX_func.c ****                         if (message->irq != CAN_TRANSMIT_INT_DISABLE)
 133              		.loc 1 108 0
 134 0070 F379     		ldrb	r3, [r6, #7]
 135 0072 002B     		cmp	r3, #0
 136 0074 03D0     		beq	.L9
 109:CAN_TX_RX_func.c ****                         {
 110:CAN_TX_RX_func.c ****                             regTemp |= CAN_TX_INT_ENABLE_MASK;    /* Transmit Interrupt Enable */
 137              		.loc 1 110 0
 138 0076 0423     		movs	r3, #4
 139 0078 4A46     		mov	r2, r9
 140 007a 1A43     		orrs	r2, r3
 141 007c 9146     		mov	r9, r2
 142              	.LVL11:
 143              	.L9:
 111:CAN_TX_RX_func.c ****                         }
 112:CAN_TX_RX_func.c **** 
 113:CAN_TX_RX_func.c ****                         for (j = 0u; (j < message->dlc) && (j < CAN_TX_DLC_MAX_VALUE); j++)
 144              		.loc 1 113 0
 145 007e 0023     		movs	r3, #0
 146 0080 2AE0     		b	.L10
 147              	.LVL12:
 148              	.L14:
 114:CAN_TX_RX_func.c ****                         {
 115:CAN_TX_RX_func.c ****                             #if (CY_PSOC3 || CY_PSOC5)
 116:CAN_TX_RX_func.c ****                                 CAN_TX_DATA_BYTE(i, j) = message->msg->byte[j];
 117:CAN_TX_RX_func.c ****                             #else /* CY_PSOC4 */
 118:CAN_TX_RX_func.c ****                                 CAN_TX_DATA_BYTE(i, j, message->msg->byte[j]);
 149              		.loc 1 118 0
 150 0082 032B     		cmp	r3, #3
 151 0084 13D9     		bls	.L11
 152              		.loc 1 118 0 is_stmt 0 discriminator 1
 153 0086 2001     		lsls	r0, r4, #4
 154 0088 324A     		ldr	r2, .L23+8
 155 008a 9446     		mov	ip, r2
 156 008c 6044     		add	r0, r0, ip
 157 008e 0268     		ldr	r2, [r0]
 158 0090 9446     		mov	ip, r2
 159 0092 5907     		lsls	r1, r3, #29
 160 0094 CA1A     		subs	r2, r1, r3
 161 0096 D100     		lsls	r1, r2, #3
 162 0098 3831     		adds	r1, r1, #56
 163 009a FF22     		movs	r2, #255
 164 009c 8A40     		lsls	r2, r2, r1
ARM GAS  C:\Users\HENRYA~1\AppData\Local\Temp\ccnCD7an.s 			page 6


 165 009e 6746     		mov	r7, ip
 166 00a0 9743     		bics	r7, r2
 167 00a2 F268     		ldr	r2, [r6, #12]
 168 00a4 D25C     		ldrb	r2, [r2, r3]
 169 00a6 8A40     		lsls	r2, r2, r1
 170 00a8 3A43     		orrs	r2, r7
 171 00aa 0260     		str	r2, [r0]
 172 00ac 12E0     		b	.L12
 173              	.L11:
 174              		.loc 1 118 0 discriminator 2
 175 00ae 2001     		lsls	r0, r4, #4
 176 00b0 274A     		ldr	r2, .L23+4
 177 00b2 9446     		mov	ip, r2
 178 00b4 6044     		add	r0, r0, ip
 179 00b6 8268     		ldr	r2, [r0, #8]
 180 00b8 9446     		mov	ip, r2
 181 00ba 5907     		lsls	r1, r3, #29
 182 00bc CA1A     		subs	r2, r1, r3
 183 00be D100     		lsls	r1, r2, #3
 184 00c0 1831     		adds	r1, r1, #24
 185 00c2 FF22     		movs	r2, #255
 186 00c4 8A40     		lsls	r2, r2, r1
 187 00c6 6746     		mov	r7, ip
 188 00c8 9743     		bics	r7, r2
 189 00ca F268     		ldr	r2, [r6, #12]
 190 00cc D25C     		ldrb	r2, [r2, r3]
 191 00ce 8A40     		lsls	r2, r2, r1
 192 00d0 3A43     		orrs	r2, r7
 193 00d2 8260     		str	r2, [r0, #8]
 194              	.L12:
 113:CAN_TX_RX_func.c ****                         {
 195              		.loc 1 113 0 is_stmt 1 discriminator 2
 196 00d4 0133     		adds	r3, r3, #1
 197              	.LVL13:
 198 00d6 DBB2     		uxtb	r3, r3
 199              	.LVL14:
 200              	.L10:
 113:CAN_TX_RX_func.c ****                         {
 201              		.loc 1 113 0 is_stmt 0 discriminator 1
 202 00d8 B279     		ldrb	r2, [r6, #6]
 203 00da 9342     		cmp	r3, r2
 204 00dc 01D2     		bcs	.L13
 113:CAN_TX_RX_func.c ****                         {
 205              		.loc 1 113 0 discriminator 3
 206 00de 072B     		cmp	r3, #7
 207 00e0 CFD9     		bls	.L14
 208              	.L13:
 119:CAN_TX_RX_func.c ****                             #endif /* CY_PSOC3 || CY_PSOC5 */
 120:CAN_TX_RX_func.c ****                         }
 121:CAN_TX_RX_func.c **** 
 122:CAN_TX_RX_func.c ****                         /* Disable isr */
 123:CAN_TX_RX_func.c ****     CyIntDisable(CAN_ISR_NUMBER);
 209              		.loc 1 123 0 is_stmt 1
 210 00e2 1B20     		movs	r0, #27
 211 00e4 FFF7FEFF 		bl	CyIntDisable
 212              	.LVL15:
 124:CAN_TX_RX_func.c **** 
ARM GAS  C:\Users\HENRYA~1\AppData\Local\Temp\ccnCD7an.s 			page 7


 125:CAN_TX_RX_func.c ****                         /* WPN[23] and WPN[3] set to 1 for write to CAN Control reg */
 126:CAN_TX_RX_func.c ****                         CY_SET_REG32(CAN_TX_CMD_PTR(i), (regTemp | CAN_TX_WPN_SET));
 213              		.loc 1 126 0
 214 00e8 2301     		lsls	r3, r4, #4
 215 00ea 194A     		ldr	r2, .L23+4
 216 00ec 9446     		mov	ip, r2
 217 00ee 6344     		add	r3, r3, ip
 218 00f0 194A     		ldr	r2, .L23+12
 219 00f2 4F46     		mov	r7, r9
 220 00f4 1743     		orrs	r7, r2
 221 00f6 1F60     		str	r7, [r3]
 127:CAN_TX_RX_func.c **** 
 128:CAN_TX_RX_func.c ****                         #if (CY_PSOC3 || CY_PSOC5)
 129:CAN_TX_RX_func.c ****                             CY_SET_REG32(CAN_TX_CMD_PTR(i), CAN_SEND_MESSAGE);
 130:CAN_TX_RX_func.c ****                         #else /* CY_PSOC4 */
 131:CAN_TX_RX_func.c ****                             if (message->sst != CAN_STANDARD_MESSAGE)
 222              		.loc 1 131 0
 223 00f8 327A     		ldrb	r2, [r6, #8]
 224 00fa 002A     		cmp	r2, #0
 225 00fc 04D0     		beq	.L15
 132:CAN_TX_RX_func.c ****                             {
 133:CAN_TX_RX_func.c ****                                 /* Single Shot Transmission */
 134:CAN_TX_RX_func.c ****                                 CAN_TX_CMD_REG(i) |= CAN_SEND_MESSAGE |
 226              		.loc 1 134 0
 227 00fe 1968     		ldr	r1, [r3]
 228 0100 0322     		movs	r2, #3
 229 0102 0A43     		orrs	r2, r1
 230 0104 1A60     		str	r2, [r3]
 231 0106 03E0     		b	.L16
 232              	.L15:
 135:CAN_TX_RX_func.c ****                                 CAN_TX_ABORT_MASK;
 136:CAN_TX_RX_func.c ****                             }
 137:CAN_TX_RX_func.c ****                             else
 138:CAN_TX_RX_func.c ****                             {
 139:CAN_TX_RX_func.c ****                                 CAN_TX_CMD_REG(i) |= CAN_SEND_MESSAGE;
 233              		.loc 1 139 0
 234 0108 1968     		ldr	r1, [r3]
 235 010a 0122     		movs	r2, #1
 236 010c 0A43     		orrs	r2, r1
 237 010e 1A60     		str	r2, [r3]
 238              	.L16:
 140:CAN_TX_RX_func.c ****                             }
 141:CAN_TX_RX_func.c ****                         #endif /* CY_PSOC3 || CY_PSOC5 */
 142:CAN_TX_RX_func.c **** 
 143:CAN_TX_RX_func.c ****                         /* Enable isr */
 144:CAN_TX_RX_func.c ****     CyIntEnable(CAN_ISR_NUMBER);
 239              		.loc 1 144 0
 240 0110 1B20     		movs	r0, #27
 241 0112 FFF7FEFF 		bl	CyIntEnable
 242              	.LVL16:
 145:CAN_TX_RX_func.c **** 
 146:CAN_TX_RX_func.c ****                         result = CYRET_SUCCESS;
 243              		.loc 1 146 0
 244 0116 0020     		movs	r0, #0
 245              	.LVL17:
 246              	.L3:
 147:CAN_TX_RX_func.c ****                     }
ARM GAS  C:\Users\HENRYA~1\AppData\Local\Temp\ccnCD7an.s 			page 8


 148:CAN_TX_RX_func.c ****             }
 149:CAN_TX_RX_func.c ****             shift <<= 1u;
 247              		.loc 1 149 0
 248 0118 6D00     		lsls	r5, r5, #1
 249              	.LVL18:
 250 011a EDB2     		uxtb	r5, r5
 251              	.LVL19:
 150:CAN_TX_RX_func.c ****             if (result == CYRET_SUCCESS)
 252              		.loc 1 150 0
 253 011c 0028     		cmp	r0, #0
 254 011e 07D0     		beq	.L17
  68:CAN_TX_RX_func.c ****         {
 255              		.loc 1 68 0 discriminator 2
 256 0120 0134     		adds	r4, r4, #1
 257              	.LVL20:
 258 0122 E4B2     		uxtb	r4, r4
 259              	.LVL21:
 260 0124 01E0     		b	.L20
 261              	.LVL22:
 262              	.L22:
 263 0126 0125     		movs	r5, #1
 264 0128 0024     		movs	r4, #0
 265              	.L20:
 266              	.LVL23:
  68:CAN_TX_RX_func.c ****         {
 267              		.loc 1 68 0 is_stmt 0 discriminator 1
 268 012a 072C     		cmp	r4, #7
 269 012c 00D8     		bhi	.LCB273
 270 012e 70E7     		b	.L18	@long jump
 271              	.LCB273:
 272              	.L17:
 151:CAN_TX_RX_func.c ****             {
 152:CAN_TX_RX_func.c ****                 break;
 153:CAN_TX_RX_func.c ****             }
 154:CAN_TX_RX_func.c ****         }
 155:CAN_TX_RX_func.c ****         if (result == CYRET_SUCCESS)
 273              		.loc 1 155 0 is_stmt 1
 274 0130 0028     		cmp	r0, #0
 275 0132 06D0     		beq	.L19
 156:CAN_TX_RX_func.c ****         {
 157:CAN_TX_RX_func.c ****             break;
 158:CAN_TX_RX_func.c ****         }
 159:CAN_TX_RX_func.c ****         else
 160:CAN_TX_RX_func.c ****         {
 161:CAN_TX_RX_func.c ****             retry++;
 276              		.loc 1 161 0
 277 0134 4346     		mov	r3, r8
 278 0136 0133     		adds	r3, r3, #1
 279 0138 DBB2     		uxtb	r3, r3
 280 013a 9846     		mov	r8, r3
 281              	.LVL24:
 282              	.L2:
  65:CAN_TX_RX_func.c ****     {
 283              		.loc 1 65 0
 284 013c 4346     		mov	r3, r8
 285 013e 022B     		cmp	r3, #2
 286 0140 F1D9     		bls	.L22
ARM GAS  C:\Users\HENRYA~1\AppData\Local\Temp\ccnCD7an.s 			page 9


 287              	.L19:
 162:CAN_TX_RX_func.c ****         }
 163:CAN_TX_RX_func.c ****     }
 164:CAN_TX_RX_func.c **** 
 165:CAN_TX_RX_func.c ****     return (result);
 166:CAN_TX_RX_func.c **** }
 288              		.loc 1 166 0
 289              		@ sp needed
 290              	.LVL25:
 291              	.LVL26:
 292 0142 0CBC     		pop	{r2, r3}
 293 0144 9046     		mov	r8, r2
 294 0146 9946     		mov	r9, r3
 295 0148 F8BD     		pop	{r3, r4, r5, r6, r7, pc}
 296              	.L24:
 297 014a C046     		.align	2
 298              	.L23:
 299 014c 08002E40 		.word	1076756488
 300 0150 20002E40 		.word	1076756512
 301 0154 2C002E40 		.word	1076756524
 302 0158 08008000 		.word	8388616
 303              		.cfi_endproc
 304              	.LFE1:
 305              		.size	CAN_SendMsg, .-CAN_SendMsg
 306              		.section	.text.CAN_TxCancel,"ax",%progbits
 307              		.align	2
 308              		.global	CAN_TxCancel
 309              		.code	16
 310              		.thumb_func
 311              		.type	CAN_TxCancel, %function
 312              	CAN_TxCancel:
 313              	.LFB2:
 167:CAN_TX_RX_func.c **** 
 168:CAN_TX_RX_func.c **** 
 169:CAN_TX_RX_func.c **** /*******************************************************************************
 170:CAN_TX_RX_func.c **** * FUNCTION NAME:   CAN_TxCancel
 171:CAN_TX_RX_func.c **** ********************************************************************************
 172:CAN_TX_RX_func.c **** *
 173:CAN_TX_RX_func.c **** * Summary:
 174:CAN_TX_RX_func.c **** *  This function cancels transmission of a message that has been queued to be
 175:CAN_TX_RX_func.c **** *  transmitted. Values between 0 and 7 are valid.
 176:CAN_TX_RX_func.c **** *
 177:CAN_TX_RX_func.c **** * Parameters:
 178:CAN_TX_RX_func.c **** *  bufferId: The mailbox number.
 179:CAN_TX_RX_func.c **** *
 180:CAN_TX_RX_func.c **** * Return:
 181:CAN_TX_RX_func.c **** *  None.
 182:CAN_TX_RX_func.c **** *
 183:CAN_TX_RX_func.c **** *******************************************************************************/
 184:CAN_TX_RX_func.c **** void CAN_TxCancel(uint8 bufferId) 
 185:CAN_TX_RX_func.c **** {
 314              		.loc 1 185 0
 315              		.cfi_startproc
 316              		@ args = 0, pretend = 0, frame = 0
 317              		@ frame_needed = 0, uses_anonymous_args = 0
 318              		@ link register save eliminated.
 319              	.LVL27:
ARM GAS  C:\Users\HENRYA~1\AppData\Local\Temp\ccnCD7an.s 			page 10


 186:CAN_TX_RX_func.c ****     if (bufferId < CAN_NUMBER_OF_TX_MAILBOXES)
 320              		.loc 1 186 0
 321 0000 0728     		cmp	r0, #7
 322 0002 09D8     		bhi	.L25
 187:CAN_TX_RX_func.c ****     {
 188:CAN_TX_RX_func.c ****         CAN_TX_ABORT_MESSAGE(bufferId);
 323              		.loc 1 188 0
 324 0004 0001     		lsls	r0, r0, #4
 325              	.LVL28:
 326 0006 054B     		ldr	r3, .L27
 327 0008 9C46     		mov	ip, r3
 328 000a 6044     		add	r0, r0, ip
 329 000c 0368     		ldr	r3, [r0]
 330 000e 0322     		movs	r2, #3
 331 0010 9343     		bics	r3, r2
 332 0012 013A     		subs	r2, r2, #1
 333 0014 1343     		orrs	r3, r2
 334 0016 0360     		str	r3, [r0]
 335              	.L25:
 189:CAN_TX_RX_func.c ****     }
 190:CAN_TX_RX_func.c **** }
 336              		.loc 1 190 0
 337              		@ sp needed
 338 0018 7047     		bx	lr
 339              	.L28:
 340 001a C046     		.align	2
 341              	.L27:
 342 001c 20002E40 		.word	1076756512
 343              		.cfi_endproc
 344              	.LFE2:
 345              		.size	CAN_TxCancel, .-CAN_TxCancel
 346              		.section	.text.CAN_SendMsg0,"ax",%progbits
 347              		.align	2
 348              		.global	CAN_SendMsg0
 349              		.code	16
 350              		.thumb_func
 351              		.type	CAN_SendMsg0, %function
 352              	CAN_SendMsg0:
 353              	.LFB3:
 191:CAN_TX_RX_func.c **** 
 192:CAN_TX_RX_func.c **** 
 193:CAN_TX_RX_func.c **** #if (CAN_TX0_FUNC_ENABLE)
 194:CAN_TX_RX_func.c ****     /*******************************************************************************
 195:CAN_TX_RX_func.c ****     * FUNCTION NAME:   CAN_SendMsg0
 196:CAN_TX_RX_func.c ****     ********************************************************************************
 197:CAN_TX_RX_func.c ****     *
 198:CAN_TX_RX_func.c ****     * Summary:
 199:CAN_TX_RX_func.c ****     *  This function is the entry point to Transmit Message 0. The function checks
 200:CAN_TX_RX_func.c ****     *  if mailbox 0 doesn't already have un-transmitted messages waiting for
 201:CAN_TX_RX_func.c ****     *  arbitration. If not initiate transmission of the message.
 202:CAN_TX_RX_func.c ****     *  Generated only for the Transmit mailbox designed as Full.
 203:CAN_TX_RX_func.c ****     *
 204:CAN_TX_RX_func.c ****     * Parameters:
 205:CAN_TX_RX_func.c ****     *  None.
 206:CAN_TX_RX_func.c ****     *
 207:CAN_TX_RX_func.c ****     * Return:
 208:CAN_TX_RX_func.c ****     *  Indication if Message has been sent.
ARM GAS  C:\Users\HENRYA~1\AppData\Local\Temp\ccnCD7an.s 			page 11


 209:CAN_TX_RX_func.c ****     *   Define                             Description
 210:CAN_TX_RX_func.c ****     *    CYRET_SUCCESS                      The function passed successfully
 211:CAN_TX_RX_func.c ****     *    CAN_FAIL              The function failed
 212:CAN_TX_RX_func.c ****     *
 213:CAN_TX_RX_func.c ****     *******************************************************************************/
 214:CAN_TX_RX_func.c ****     uint8 CAN_SendMsg0(void) 
 215:CAN_TX_RX_func.c ****     {
 354              		.loc 1 215 0
 355              		.cfi_startproc
 356              		@ args = 0, pretend = 0, frame = 0
 357              		@ frame_needed = 0, uses_anonymous_args = 0
 358 0000 70B5     		push	{r4, r5, r6, lr}
 359              		.cfi_def_cfa_offset 16
 360              		.cfi_offset 4, -16
 361              		.cfi_offset 5, -12
 362              		.cfi_offset 6, -8
 363              		.cfi_offset 14, -4
 364              	.LVL29:
 216:CAN_TX_RX_func.c ****         uint8 result = CYRET_SUCCESS;
 217:CAN_TX_RX_func.c **** 
 218:CAN_TX_RX_func.c ****         #if (CY_PSOC3 || CY_PSOC5)
 219:CAN_TX_RX_func.c ****             if ((CAN_TX[0u].txcmd.byte[0u] & CAN_TX_REQUEST_PENDING) != 0u)
 220:CAN_TX_RX_func.c ****         #else  /* CY_PSOC4 */
 221:CAN_TX_RX_func.c ****             if ((CAN_TX_CMD_REG(0u) & CAN_TX_REQUEST_PENDING) != 0u)
 365              		.loc 1 221 0
 366 0002 234B     		ldr	r3, .L32
 367 0004 1B68     		ldr	r3, [r3]
 368 0006 DB07     		lsls	r3, r3, #31
 369 0008 3FD4     		bmi	.L31
 222:CAN_TX_RX_func.c ****         #endif /* CY_PSOC3 || CY_PSOC5 */
 223:CAN_TX_RX_func.c ****             {
 224:CAN_TX_RX_func.c ****                 result = CAN_FAIL;
 225:CAN_TX_RX_func.c ****             }
 226:CAN_TX_RX_func.c ****             else
 227:CAN_TX_RX_func.c ****             {
 228:CAN_TX_RX_func.c ****                 /* `#START MESSAGE_0_TRASMITTED` */
 229:CAN_TX_RX_func.c ****                 CAN_TX_DATA_BYTE(0,0,dato_enviado[0]);
 370              		.loc 1 229 0
 371 000a 224B     		ldr	r3, .L32+4
 372 000c 1968     		ldr	r1, [r3]
 373 000e 0902     		lsls	r1, r1, #8
 374 0010 090A     		lsrs	r1, r1, #8
 375 0012 214A     		ldr	r2, .L32+8
 376 0014 1078     		ldrb	r0, [r2]
 377 0016 0006     		lsls	r0, r0, #24
 378 0018 0143     		orrs	r1, r0
 379 001a 1960     		str	r1, [r3]
 230:CAN_TX_RX_func.c ****                 CAN_TX_DATA_BYTE(0,1,dato_enviado[1]);
 380              		.loc 1 230 0
 381 001c 1968     		ldr	r1, [r3]
 382 001e 1F48     		ldr	r0, .L32+12
 383 0020 0140     		ands	r1, r0
 384 0022 0C00     		movs	r4, r1
 385 0024 5178     		ldrb	r1, [r2, #1]
 386 0026 0904     		lsls	r1, r1, #16
 387 0028 2143     		orrs	r1, r4
 388 002a 1960     		str	r1, [r3]
ARM GAS  C:\Users\HENRYA~1\AppData\Local\Temp\ccnCD7an.s 			page 12


 231:CAN_TX_RX_func.c ****                 CAN_TX_DATA_BYTE(0,2,dato_enviado[2]);
 389              		.loc 1 231 0
 390 002c 1C68     		ldr	r4, [r3]
 391 002e 1C49     		ldr	r1, .L32+16
 392 0030 0C40     		ands	r4, r1
 393 0032 2500     		movs	r5, r4
 394 0034 9478     		ldrb	r4, [r2, #2]
 395 0036 2402     		lsls	r4, r4, #8
 396 0038 2C43     		orrs	r4, r5
 397 003a 1C60     		str	r4, [r3]
 232:CAN_TX_RX_func.c ****                 CAN_TX_DATA_BYTE(0,3,dato_enviado[3]);
 398              		.loc 1 232 0
 399 003c 1C68     		ldr	r4, [r3]
 400 003e FF26     		movs	r6, #255
 401 0040 B443     		bics	r4, r6
 402 0042 D578     		ldrb	r5, [r2, #3]
 403 0044 2C43     		orrs	r4, r5
 404 0046 1C60     		str	r4, [r3]
 233:CAN_TX_RX_func.c ****                 CAN_TX_DATA_BYTE(0,4,dato_enviado[4]);
 405              		.loc 1 233 0
 406 0048 164B     		ldr	r3, .L32+20
 407 004a 1C68     		ldr	r4, [r3]
 408 004c 2402     		lsls	r4, r4, #8
 409 004e 240A     		lsrs	r4, r4, #8
 410 0050 1579     		ldrb	r5, [r2, #4]
 411 0052 2D06     		lsls	r5, r5, #24
 412 0054 2C43     		orrs	r4, r5
 413 0056 1C60     		str	r4, [r3]
 234:CAN_TX_RX_func.c ****                 CAN_TX_DATA_BYTE(0,5,dato_enviado[5]);
 414              		.loc 1 234 0
 415 0058 1C68     		ldr	r4, [r3]
 416 005a 2040     		ands	r0, r4
 417 005c 5479     		ldrb	r4, [r2, #5]
 418 005e 2404     		lsls	r4, r4, #16
 419 0060 2043     		orrs	r0, r4
 420 0062 1860     		str	r0, [r3]
 235:CAN_TX_RX_func.c ****                 CAN_TX_DATA_BYTE(0,6,dato_enviado[6]);
 421              		.loc 1 235 0
 422 0064 1868     		ldr	r0, [r3]
 423 0066 0140     		ands	r1, r0
 424 0068 9079     		ldrb	r0, [r2, #6]
 425 006a 0002     		lsls	r0, r0, #8
 426 006c 0143     		orrs	r1, r0
 427 006e 1960     		str	r1, [r3]
 236:CAN_TX_RX_func.c ****                 CAN_TX_DATA_BYTE(0,7,dato_enviado[7]);                           
 428              		.loc 1 236 0
 429 0070 1868     		ldr	r0, [r3]
 430 0072 B043     		bics	r0, r6
 431 0074 D179     		ldrb	r1, [r2, #7]
 432 0076 0200     		movs	r2, r0
 433 0078 0A43     		orrs	r2, r1
 434 007a 1A60     		str	r2, [r3]
 237:CAN_TX_RX_func.c ****                 /* `#END` */
 238:CAN_TX_RX_func.c **** 
 239:CAN_TX_RX_func.c ****                 #ifdef CAN_SEND_MSG_0_CALLBACK
 240:CAN_TX_RX_func.c ****                     CAN_SendMsg_0_Callback();
 241:CAN_TX_RX_func.c ****                 #endif /* CAN_SEND_MSG_0_CALLBACK */
ARM GAS  C:\Users\HENRYA~1\AppData\Local\Temp\ccnCD7an.s 			page 13


 242:CAN_TX_RX_func.c **** 
 243:CAN_TX_RX_func.c ****                 CY_SET_REG32(CAN_TX_CMD_PTR(0u),
 435              		.loc 1 243 0
 436 007c 044A     		ldr	r2, .L32
 437 007e 1168     		ldr	r1, [r2]
 438 0080 0123     		movs	r3, #1
 439 0082 0B43     		orrs	r3, r1
 440 0084 1360     		str	r3, [r2]
 216:CAN_TX_RX_func.c **** 
 441              		.loc 1 216 0
 442 0086 0020     		movs	r0, #0
 443 0088 00E0     		b	.L30
 444              	.L31:
 224:CAN_TX_RX_func.c ****             }
 445              		.loc 1 224 0
 446 008a 0120     		movs	r0, #1
 447              	.L30:
 448              	.LVL30:
 244:CAN_TX_RX_func.c ****                 CY_GET_REG32(CAN_TX_CMD_PTR(0u)) | CAN_SEND_MESSAGE);
 245:CAN_TX_RX_func.c ****             }
 246:CAN_TX_RX_func.c **** 
 247:CAN_TX_RX_func.c ****         return (result);
 248:CAN_TX_RX_func.c ****     }
 449              		.loc 1 248 0
 450              		@ sp needed
 451 008c 70BD     		pop	{r4, r5, r6, pc}
 452              	.L33:
 453 008e C046     		.align	2
 454              	.L32:
 455 0090 20002E40 		.word	1076756512
 456 0094 28002E40 		.word	1076756520
 457 0098 00000000 		.word	dato_enviado
 458 009c FFFF00FF 		.word	-16711681
 459 00a0 FF00FFFF 		.word	-65281
 460 00a4 2C002E40 		.word	1076756524
 461              		.cfi_endproc
 462              	.LFE3:
 463              		.size	CAN_SendMsg0, .-CAN_SendMsg0
 464              		.section	.text.CAN_SendMsg1,"ax",%progbits
 465              		.align	2
 466              		.global	CAN_SendMsg1
 467              		.code	16
 468              		.thumb_func
 469              		.type	CAN_SendMsg1, %function
 470              	CAN_SendMsg1:
 471              	.LFB4:
 249:CAN_TX_RX_func.c **** #endif /* CAN_TX0_FUNC_ENABLE */
 250:CAN_TX_RX_func.c **** 
 251:CAN_TX_RX_func.c **** 
 252:CAN_TX_RX_func.c **** #if (CAN_TX1_FUNC_ENABLE)
 253:CAN_TX_RX_func.c ****     /*******************************************************************************
 254:CAN_TX_RX_func.c ****     * FUNCTION NAME:   CAN_SendMsg1
 255:CAN_TX_RX_func.c ****     ********************************************************************************
 256:CAN_TX_RX_func.c ****     *
 257:CAN_TX_RX_func.c ****     * Summary:
 258:CAN_TX_RX_func.c ****     *  This function is the entry point to Transmit Message 1. The function checks
 259:CAN_TX_RX_func.c ****     *  if mailbox 1 doesn't already have un-transmitted messages waiting for
ARM GAS  C:\Users\HENRYA~1\AppData\Local\Temp\ccnCD7an.s 			page 14


 260:CAN_TX_RX_func.c ****     *  arbitration. If not initiate transmission of the message.
 261:CAN_TX_RX_func.c ****     *  Generated only for the Transmit mailbox designed as Full.
 262:CAN_TX_RX_func.c ****     *
 263:CAN_TX_RX_func.c ****     * Parameters:
 264:CAN_TX_RX_func.c ****     *  None.
 265:CAN_TX_RX_func.c ****     *
 266:CAN_TX_RX_func.c ****     * Return:
 267:CAN_TX_RX_func.c ****     *  Indication if Message has been sent.
 268:CAN_TX_RX_func.c ****     *   Define                             Description
 269:CAN_TX_RX_func.c ****     *    CYRET_SUCCESS                      The function passed successfully
 270:CAN_TX_RX_func.c ****     *    CAN_FAIL              The function failed
 271:CAN_TX_RX_func.c ****     *
 272:CAN_TX_RX_func.c ****     *******************************************************************************/
 273:CAN_TX_RX_func.c ****     uint8 CAN_SendMsg1(void) 
 274:CAN_TX_RX_func.c ****     {
 472              		.loc 1 274 0
 473              		.cfi_startproc
 474              		@ args = 0, pretend = 0, frame = 0
 475              		@ frame_needed = 0, uses_anonymous_args = 0
 476 0000 70B5     		push	{r4, r5, r6, lr}
 477              		.cfi_def_cfa_offset 16
 478              		.cfi_offset 4, -16
 479              		.cfi_offset 5, -12
 480              		.cfi_offset 6, -8
 481              		.cfi_offset 14, -4
 482              	.LVL31:
 275:CAN_TX_RX_func.c ****         uint8 result = CYRET_SUCCESS;
 276:CAN_TX_RX_func.c **** 
 277:CAN_TX_RX_func.c ****         #if (CY_PSOC3 || CY_PSOC5)
 278:CAN_TX_RX_func.c ****             if ((CAN_TX[1u].txcmd.byte[0u] & CAN_TX_REQUEST_PENDING) != 0u)
 279:CAN_TX_RX_func.c ****         #else  /* CY_PSOC4 */
 280:CAN_TX_RX_func.c ****             if ((CAN_TX_CMD_REG(1u) & CAN_TX_REQUEST_PENDING) != 0u)
 483              		.loc 1 280 0
 484 0002 234B     		ldr	r3, .L37
 485 0004 1B68     		ldr	r3, [r3]
 486 0006 DB07     		lsls	r3, r3, #31
 487 0008 3FD4     		bmi	.L36
 281:CAN_TX_RX_func.c ****         #endif /* CY_PSOC3 || CY_PSOC5 */
 282:CAN_TX_RX_func.c ****             {
 283:CAN_TX_RX_func.c ****                 result = CAN_FAIL;
 284:CAN_TX_RX_func.c ****             }
 285:CAN_TX_RX_func.c ****             else
 286:CAN_TX_RX_func.c ****             {
 287:CAN_TX_RX_func.c ****                 /* `#START MESSAGE_1_TRASMITTED` */
 288:CAN_TX_RX_func.c ****                 CAN_TX_DATA_BYTE(1,0,dato_enviado_1[0]);
 488              		.loc 1 288 0
 489 000a 224B     		ldr	r3, .L37+4
 490 000c 1968     		ldr	r1, [r3]
 491 000e 0902     		lsls	r1, r1, #8
 492 0010 090A     		lsrs	r1, r1, #8
 493 0012 214A     		ldr	r2, .L37+8
 494 0014 1078     		ldrb	r0, [r2]
 495 0016 0006     		lsls	r0, r0, #24
 496 0018 0143     		orrs	r1, r0
 497 001a 1960     		str	r1, [r3]
 289:CAN_TX_RX_func.c ****                 CAN_TX_DATA_BYTE(1,1,dato_enviado_1[1]);
 498              		.loc 1 289 0
ARM GAS  C:\Users\HENRYA~1\AppData\Local\Temp\ccnCD7an.s 			page 15


 499 001c 1968     		ldr	r1, [r3]
 500 001e 1F48     		ldr	r0, .L37+12
 501 0020 0140     		ands	r1, r0
 502 0022 0C00     		movs	r4, r1
 503 0024 5178     		ldrb	r1, [r2, #1]
 504 0026 0904     		lsls	r1, r1, #16
 505 0028 2143     		orrs	r1, r4
 506 002a 1960     		str	r1, [r3]
 290:CAN_TX_RX_func.c ****                 CAN_TX_DATA_BYTE(1,2,dato_enviado_1[2]);
 507              		.loc 1 290 0
 508 002c 1C68     		ldr	r4, [r3]
 509 002e 1C49     		ldr	r1, .L37+16
 510 0030 0C40     		ands	r4, r1
 511 0032 2500     		movs	r5, r4
 512 0034 9478     		ldrb	r4, [r2, #2]
 513 0036 2402     		lsls	r4, r4, #8
 514 0038 2C43     		orrs	r4, r5
 515 003a 1C60     		str	r4, [r3]
 291:CAN_TX_RX_func.c ****                 CAN_TX_DATA_BYTE(1,3,dato_enviado_1[3]);
 516              		.loc 1 291 0
 517 003c 1C68     		ldr	r4, [r3]
 518 003e FF26     		movs	r6, #255
 519 0040 B443     		bics	r4, r6
 520 0042 D578     		ldrb	r5, [r2, #3]
 521 0044 2C43     		orrs	r4, r5
 522 0046 1C60     		str	r4, [r3]
 292:CAN_TX_RX_func.c ****                 CAN_TX_DATA_BYTE(1,4,dato_enviado_1[4]);
 523              		.loc 1 292 0
 524 0048 164B     		ldr	r3, .L37+20
 525 004a 1C68     		ldr	r4, [r3]
 526 004c 2402     		lsls	r4, r4, #8
 527 004e 240A     		lsrs	r4, r4, #8
 528 0050 1579     		ldrb	r5, [r2, #4]
 529 0052 2D06     		lsls	r5, r5, #24
 530 0054 2C43     		orrs	r4, r5
 531 0056 1C60     		str	r4, [r3]
 293:CAN_TX_RX_func.c ****                 CAN_TX_DATA_BYTE(1,5,dato_enviado_1[5]);
 532              		.loc 1 293 0
 533 0058 1C68     		ldr	r4, [r3]
 534 005a 2040     		ands	r0, r4
 535 005c 5479     		ldrb	r4, [r2, #5]
 536 005e 2404     		lsls	r4, r4, #16
 537 0060 2043     		orrs	r0, r4
 538 0062 1860     		str	r0, [r3]
 294:CAN_TX_RX_func.c ****                 CAN_TX_DATA_BYTE(1,6,dato_enviado_1[6]);
 539              		.loc 1 294 0
 540 0064 1868     		ldr	r0, [r3]
 541 0066 0140     		ands	r1, r0
 542 0068 9079     		ldrb	r0, [r2, #6]
 543 006a 0002     		lsls	r0, r0, #8
 544 006c 0143     		orrs	r1, r0
 545 006e 1960     		str	r1, [r3]
 295:CAN_TX_RX_func.c ****                 CAN_TX_DATA_BYTE(1,7,dato_enviado_1[7]);
 546              		.loc 1 295 0
 547 0070 1868     		ldr	r0, [r3]
 548 0072 B043     		bics	r0, r6
 549 0074 D179     		ldrb	r1, [r2, #7]
ARM GAS  C:\Users\HENRYA~1\AppData\Local\Temp\ccnCD7an.s 			page 16


 550 0076 0200     		movs	r2, r0
 551 0078 0A43     		orrs	r2, r1
 552 007a 1A60     		str	r2, [r3]
 296:CAN_TX_RX_func.c ****                 /* `#END` */
 297:CAN_TX_RX_func.c **** 
 298:CAN_TX_RX_func.c ****                 #ifdef CAN_SEND_MSG_1_CALLBACK
 299:CAN_TX_RX_func.c ****                     CAN_SendMsg_1_Callback();
 300:CAN_TX_RX_func.c ****                 #endif /* CAN_SEND_MSG_1_CALLBACK */
 301:CAN_TX_RX_func.c **** 
 302:CAN_TX_RX_func.c ****                 CY_SET_REG32(CAN_TX_CMD_PTR(1u),
 553              		.loc 1 302 0
 554 007c 044A     		ldr	r2, .L37
 555 007e 1168     		ldr	r1, [r2]
 556 0080 0123     		movs	r3, #1
 557 0082 0B43     		orrs	r3, r1
 558 0084 1360     		str	r3, [r2]
 275:CAN_TX_RX_func.c **** 
 559              		.loc 1 275 0
 560 0086 0020     		movs	r0, #0
 561 0088 00E0     		b	.L35
 562              	.L36:
 283:CAN_TX_RX_func.c ****             }
 563              		.loc 1 283 0
 564 008a 0120     		movs	r0, #1
 565              	.L35:
 566              	.LVL32:
 303:CAN_TX_RX_func.c ****                 CY_GET_REG32(CAN_TX_CMD_PTR(1u)) | CAN_SEND_MESSAGE);
 304:CAN_TX_RX_func.c ****             }
 305:CAN_TX_RX_func.c **** 
 306:CAN_TX_RX_func.c ****         return (result);
 307:CAN_TX_RX_func.c ****     }
 567              		.loc 1 307 0
 568              		@ sp needed
 569 008c 70BD     		pop	{r4, r5, r6, pc}
 570              	.L38:
 571 008e C046     		.align	2
 572              	.L37:
 573 0090 30002E40 		.word	1076756528
 574 0094 38002E40 		.word	1076756536
 575 0098 00000000 		.word	dato_enviado_1
 576 009c FFFF00FF 		.word	-16711681
 577 00a0 FF00FFFF 		.word	-65281
 578 00a4 3C002E40 		.word	1076756540
 579              		.cfi_endproc
 580              	.LFE4:
 581              		.size	CAN_SendMsg1, .-CAN_SendMsg1
 582              		.section	.text.CAN_SendMsg4,"ax",%progbits
 583              		.align	2
 584              		.global	CAN_SendMsg4
 585              		.code	16
 586              		.thumb_func
 587              		.type	CAN_SendMsg4, %function
 588              	CAN_SendMsg4:
 589              	.LFB5:
 308:CAN_TX_RX_func.c **** #endif /* CAN_TX1_FUNC_ENABLE */
 309:CAN_TX_RX_func.c **** 
 310:CAN_TX_RX_func.c **** 
ARM GAS  C:\Users\HENRYA~1\AppData\Local\Temp\ccnCD7an.s 			page 17


 311:CAN_TX_RX_func.c **** #if (CAN_TX2_FUNC_ENABLE)
 312:CAN_TX_RX_func.c ****     /*******************************************************************************
 313:CAN_TX_RX_func.c ****     * FUNCTION NAME:   CAN_SendMsg2
 314:CAN_TX_RX_func.c ****     ********************************************************************************
 315:CAN_TX_RX_func.c ****     *
 316:CAN_TX_RX_func.c ****     * Summary:
 317:CAN_TX_RX_func.c ****     *  This function is the entry point to Transmit Message 2. The function checks
 318:CAN_TX_RX_func.c ****     *  if mailbox 2 doesn't already have un-transmitted messages waiting for
 319:CAN_TX_RX_func.c ****     *  arbitration. If not initiate transmission of the message.
 320:CAN_TX_RX_func.c ****     *  Generated only for the Transmit mailbox designed as Full.
 321:CAN_TX_RX_func.c ****     *
 322:CAN_TX_RX_func.c ****     * Parameters:
 323:CAN_TX_RX_func.c ****     *  None.
 324:CAN_TX_RX_func.c ****     *
 325:CAN_TX_RX_func.c ****     * Return:
 326:CAN_TX_RX_func.c ****     *  Indication if Message has been sent.
 327:CAN_TX_RX_func.c ****     *   Define                             Description
 328:CAN_TX_RX_func.c ****     *    CYRET_SUCCESS                      The function passed successfully
 329:CAN_TX_RX_func.c ****     *    CAN_FAIL              The function failed
 330:CAN_TX_RX_func.c ****     *
 331:CAN_TX_RX_func.c ****     *******************************************************************************/
 332:CAN_TX_RX_func.c ****     uint8 CAN_SendMsg2(void) 
 333:CAN_TX_RX_func.c ****     {
 334:CAN_TX_RX_func.c ****         uint8 result = CYRET_SUCCESS;
 335:CAN_TX_RX_func.c **** 
 336:CAN_TX_RX_func.c ****         #if (CY_PSOC3 || CY_PSOC5)
 337:CAN_TX_RX_func.c ****             if ((CAN_TX[2u].txcmd.byte[0u] & CAN_TX_REQUEST_PENDING) != 0u)
 338:CAN_TX_RX_func.c ****         #else  /* CY_PSOC4 */
 339:CAN_TX_RX_func.c ****             if ((CAN_TX_CMD_REG(2u) & CAN_TX_REQUEST_PENDING) != 0u)
 340:CAN_TX_RX_func.c ****         #endif /* CY_PSOC3 || CY_PSOC5 */
 341:CAN_TX_RX_func.c ****             {
 342:CAN_TX_RX_func.c ****                 result = CAN_FAIL;
 343:CAN_TX_RX_func.c ****             }
 344:CAN_TX_RX_func.c ****             else
 345:CAN_TX_RX_func.c ****             {
 346:CAN_TX_RX_func.c ****                 /* `#START MESSAGE_2_TRASMITTED` */
 347:CAN_TX_RX_func.c **** 
 348:CAN_TX_RX_func.c ****                 /* `#END` */
 349:CAN_TX_RX_func.c **** 
 350:CAN_TX_RX_func.c ****                 #ifdef CAN_SEND_MSG_2_CALLBACK
 351:CAN_TX_RX_func.c ****                     CAN_SendMsg_2_Callback();
 352:CAN_TX_RX_func.c ****                 #endif /* CAN_SEND_MSG_2_CALLBACK */
 353:CAN_TX_RX_func.c **** 
 354:CAN_TX_RX_func.c ****                 CY_SET_REG32(CAN_TX_CMD_PTR(2u),
 355:CAN_TX_RX_func.c ****                 CY_GET_REG32(CAN_TX_CMD_PTR(2u)) | CAN_SEND_MESSAGE);
 356:CAN_TX_RX_func.c ****             }
 357:CAN_TX_RX_func.c **** 
 358:CAN_TX_RX_func.c ****         return (result);
 359:CAN_TX_RX_func.c ****     }
 360:CAN_TX_RX_func.c **** #endif /* CAN_TX2_FUNC_ENABLE */
 361:CAN_TX_RX_func.c **** 
 362:CAN_TX_RX_func.c **** 
 363:CAN_TX_RX_func.c **** #if (CAN_TX3_FUNC_ENABLE)
 364:CAN_TX_RX_func.c ****     /*******************************************************************************
 365:CAN_TX_RX_func.c ****     * FUNCTION NAME:   CAN_SendMsg3
 366:CAN_TX_RX_func.c ****     ********************************************************************************
 367:CAN_TX_RX_func.c ****     *
ARM GAS  C:\Users\HENRYA~1\AppData\Local\Temp\ccnCD7an.s 			page 18


 368:CAN_TX_RX_func.c ****     * Summary:
 369:CAN_TX_RX_func.c ****     *  This function is the entry point to Transmit Message 3. The function checks
 370:CAN_TX_RX_func.c ****     *  if mailbox 3 doesn't already have un-transmitted messages waiting for
 371:CAN_TX_RX_func.c ****     *  arbitration. If not initiate transmission of the message.
 372:CAN_TX_RX_func.c ****     *  Generated only for the Transmit mailbox designed as Full.
 373:CAN_TX_RX_func.c ****     *
 374:CAN_TX_RX_func.c ****     * Parameters:
 375:CAN_TX_RX_func.c ****     *  None.
 376:CAN_TX_RX_func.c ****     *
 377:CAN_TX_RX_func.c ****     * Return:
 378:CAN_TX_RX_func.c ****     *  Indication if Message has been sent.
 379:CAN_TX_RX_func.c ****     *   Define                             Description
 380:CAN_TX_RX_func.c ****     *    CYRET_SUCCESS                      The function passed successfully
 381:CAN_TX_RX_func.c ****     *    CAN_FAIL              The function failed
 382:CAN_TX_RX_func.c ****     *
 383:CAN_TX_RX_func.c ****     *******************************************************************************/
 384:CAN_TX_RX_func.c ****     uint8 CAN_SendMsg3(void) 
 385:CAN_TX_RX_func.c ****     {
 386:CAN_TX_RX_func.c ****         uint8 result = CYRET_SUCCESS;
 387:CAN_TX_RX_func.c **** 
 388:CAN_TX_RX_func.c ****         #if (CY_PSOC3 || CY_PSOC5)
 389:CAN_TX_RX_func.c ****             if ((CAN_TX[3u].txcmd.byte[0u] & CAN_TX_REQUEST_PENDING) != 0u)
 390:CAN_TX_RX_func.c ****         #else  /* CY_PSOC4 */
 391:CAN_TX_RX_func.c ****             if ((CAN_TX_CMD_REG(3u) & CAN_TX_REQUEST_PENDING) != 0u)
 392:CAN_TX_RX_func.c ****         #endif /* CY_PSOC3 || CY_PSOC5 */
 393:CAN_TX_RX_func.c ****             {
 394:CAN_TX_RX_func.c ****                 result = CAN_FAIL;
 395:CAN_TX_RX_func.c ****             }
 396:CAN_TX_RX_func.c ****             else
 397:CAN_TX_RX_func.c ****             {
 398:CAN_TX_RX_func.c ****                 /* `#START MESSAGE_3_TRASMITTED` */
 399:CAN_TX_RX_func.c **** 
 400:CAN_TX_RX_func.c ****                 /* `#END` */
 401:CAN_TX_RX_func.c **** 
 402:CAN_TX_RX_func.c ****                 #ifdef CAN_SEND_MSG_3_CALLBACK
 403:CAN_TX_RX_func.c ****                     CAN_SendMsg_3_Callback();
 404:CAN_TX_RX_func.c ****                 #endif /* CAN_SEND_MSG_3_CALLBACK */
 405:CAN_TX_RX_func.c **** 
 406:CAN_TX_RX_func.c ****                 CY_SET_REG32(CAN_TX_CMD_PTR(3u),
 407:CAN_TX_RX_func.c ****                 CY_GET_REG32(CAN_TX_CMD_PTR(3u)) | CAN_SEND_MESSAGE);
 408:CAN_TX_RX_func.c ****             }
 409:CAN_TX_RX_func.c **** 
 410:CAN_TX_RX_func.c ****         return (result);
 411:CAN_TX_RX_func.c ****     }
 412:CAN_TX_RX_func.c **** #endif /* CAN_TX3_FUNC_ENABLE */
 413:CAN_TX_RX_func.c **** 
 414:CAN_TX_RX_func.c **** 
 415:CAN_TX_RX_func.c **** #if (CAN_TX4_FUNC_ENABLE)
 416:CAN_TX_RX_func.c ****     /*******************************************************************************
 417:CAN_TX_RX_func.c ****     * FUNCTION NAME:   CAN_SendMsg4
 418:CAN_TX_RX_func.c ****     ********************************************************************************
 419:CAN_TX_RX_func.c ****     *
 420:CAN_TX_RX_func.c ****     * Summary:
 421:CAN_TX_RX_func.c ****     *  This function is the entry point to Transmit Message 4. The function checks
 422:CAN_TX_RX_func.c ****     *  if mailbox 4 doesn't already have un-transmitted messages waiting for
 423:CAN_TX_RX_func.c ****     *  arbitration. If not initiate transmission of the message.
 424:CAN_TX_RX_func.c ****     *  Generated only for the Transmit mailbox designed as Full.
ARM GAS  C:\Users\HENRYA~1\AppData\Local\Temp\ccnCD7an.s 			page 19


 425:CAN_TX_RX_func.c ****     *
 426:CAN_TX_RX_func.c ****     * Parameters:
 427:CAN_TX_RX_func.c ****     *  None.
 428:CAN_TX_RX_func.c ****     *
 429:CAN_TX_RX_func.c ****     * Return:
 430:CAN_TX_RX_func.c ****     *  Indication if Message has been sent.
 431:CAN_TX_RX_func.c ****     *   Define                             Description
 432:CAN_TX_RX_func.c ****     *    CYRET_SUCCESS                      The function passed successfully
 433:CAN_TX_RX_func.c ****     *    CAN_FAIL              The function failed
 434:CAN_TX_RX_func.c ****     *
 435:CAN_TX_RX_func.c ****     *******************************************************************************/
 436:CAN_TX_RX_func.c ****     uint8 CAN_SendMsg4(void) 
 437:CAN_TX_RX_func.c ****     {
 590              		.loc 1 437 0
 591              		.cfi_startproc
 592              		@ args = 0, pretend = 0, frame = 0
 593              		@ frame_needed = 0, uses_anonymous_args = 0
 594 0000 70B5     		push	{r4, r5, r6, lr}
 595              		.cfi_def_cfa_offset 16
 596              		.cfi_offset 4, -16
 597              		.cfi_offset 5, -12
 598              		.cfi_offset 6, -8
 599              		.cfi_offset 14, -4
 600              	.LVL33:
 438:CAN_TX_RX_func.c ****         uint8 result = CYRET_SUCCESS;
 439:CAN_TX_RX_func.c **** 
 440:CAN_TX_RX_func.c ****         #if (CY_PSOC3 || CY_PSOC5)
 441:CAN_TX_RX_func.c ****             if ((CAN_TX[4u].txcmd.byte[0u] & CAN_TX_REQUEST_PENDING) != 0u)
 442:CAN_TX_RX_func.c ****         #else  /* CY_PSOC4 */
 443:CAN_TX_RX_func.c ****             if ((CAN_TX_CMD_REG(4u) & CAN_TX_REQUEST_PENDING) != 0u)
 601              		.loc 1 443 0
 602 0002 234B     		ldr	r3, .L42
 603 0004 1B68     		ldr	r3, [r3]
 604 0006 DB07     		lsls	r3, r3, #31
 605 0008 3FD4     		bmi	.L41
 444:CAN_TX_RX_func.c ****         #endif /* CY_PSOC3 || CY_PSOC5 */
 445:CAN_TX_RX_func.c ****             {
 446:CAN_TX_RX_func.c ****                 result = CAN_FAIL;
 447:CAN_TX_RX_func.c ****             }
 448:CAN_TX_RX_func.c ****             else
 449:CAN_TX_RX_func.c ****             {
 450:CAN_TX_RX_func.c ****                 /* `#START MESSAGE_4_TRASMITTED` */
 451:CAN_TX_RX_func.c ****                 CAN_TX_DATA_BYTE(4,0,dato_enviado_1[0]);
 606              		.loc 1 451 0
 607 000a 224B     		ldr	r3, .L42+4
 608 000c 1968     		ldr	r1, [r3]
 609 000e 0902     		lsls	r1, r1, #8
 610 0010 090A     		lsrs	r1, r1, #8
 611 0012 214A     		ldr	r2, .L42+8
 612 0014 1078     		ldrb	r0, [r2]
 613 0016 0006     		lsls	r0, r0, #24
 614 0018 0143     		orrs	r1, r0
 615 001a 1960     		str	r1, [r3]
 452:CAN_TX_RX_func.c ****                 CAN_TX_DATA_BYTE(4,1,dato_enviado_1[1]);
 616              		.loc 1 452 0
 617 001c 1968     		ldr	r1, [r3]
 618 001e 1F48     		ldr	r0, .L42+12
ARM GAS  C:\Users\HENRYA~1\AppData\Local\Temp\ccnCD7an.s 			page 20


 619 0020 0140     		ands	r1, r0
 620 0022 0C00     		movs	r4, r1
 621 0024 5178     		ldrb	r1, [r2, #1]
 622 0026 0904     		lsls	r1, r1, #16
 623 0028 2143     		orrs	r1, r4
 624 002a 1960     		str	r1, [r3]
 453:CAN_TX_RX_func.c ****                 CAN_TX_DATA_BYTE(4,2,dato_enviado_1[2]);
 625              		.loc 1 453 0
 626 002c 1C68     		ldr	r4, [r3]
 627 002e 1C49     		ldr	r1, .L42+16
 628 0030 0C40     		ands	r4, r1
 629 0032 2500     		movs	r5, r4
 630 0034 9478     		ldrb	r4, [r2, #2]
 631 0036 2402     		lsls	r4, r4, #8
 632 0038 2C43     		orrs	r4, r5
 633 003a 1C60     		str	r4, [r3]
 454:CAN_TX_RX_func.c ****                 CAN_TX_DATA_BYTE(4,3,dato_enviado_1[3]);
 634              		.loc 1 454 0
 635 003c 1C68     		ldr	r4, [r3]
 636 003e FF26     		movs	r6, #255
 637 0040 B443     		bics	r4, r6
 638 0042 D578     		ldrb	r5, [r2, #3]
 639 0044 2C43     		orrs	r4, r5
 640 0046 1C60     		str	r4, [r3]
 455:CAN_TX_RX_func.c ****                 CAN_TX_DATA_BYTE(4,4,dato_enviado_1[4]);
 641              		.loc 1 455 0
 642 0048 164B     		ldr	r3, .L42+20
 643 004a 1C68     		ldr	r4, [r3]
 644 004c 2402     		lsls	r4, r4, #8
 645 004e 240A     		lsrs	r4, r4, #8
 646 0050 1579     		ldrb	r5, [r2, #4]
 647 0052 2D06     		lsls	r5, r5, #24
 648 0054 2C43     		orrs	r4, r5
 649 0056 1C60     		str	r4, [r3]
 456:CAN_TX_RX_func.c ****                 CAN_TX_DATA_BYTE(4,5,dato_enviado_1[5]);
 650              		.loc 1 456 0
 651 0058 1C68     		ldr	r4, [r3]
 652 005a 2040     		ands	r0, r4
 653 005c 5479     		ldrb	r4, [r2, #5]
 654 005e 2404     		lsls	r4, r4, #16
 655 0060 2043     		orrs	r0, r4
 656 0062 1860     		str	r0, [r3]
 457:CAN_TX_RX_func.c ****                 CAN_TX_DATA_BYTE(4,6,dato_enviado_1[6]);
 657              		.loc 1 457 0
 658 0064 1868     		ldr	r0, [r3]
 659 0066 0140     		ands	r1, r0
 660 0068 9079     		ldrb	r0, [r2, #6]
 661 006a 0002     		lsls	r0, r0, #8
 662 006c 0143     		orrs	r1, r0
 663 006e 1960     		str	r1, [r3]
 458:CAN_TX_RX_func.c ****                 CAN_TX_DATA_BYTE(4,7,dato_enviado_1[7]);
 664              		.loc 1 458 0
 665 0070 1868     		ldr	r0, [r3]
 666 0072 B043     		bics	r0, r6
 667 0074 D179     		ldrb	r1, [r2, #7]
 668 0076 0200     		movs	r2, r0
 669 0078 0A43     		orrs	r2, r1
ARM GAS  C:\Users\HENRYA~1\AppData\Local\Temp\ccnCD7an.s 			page 21


 670 007a 1A60     		str	r2, [r3]
 459:CAN_TX_RX_func.c ****                 /* `#END` */
 460:CAN_TX_RX_func.c **** 
 461:CAN_TX_RX_func.c ****                 #ifdef CAN_SEND_MSG_4_CALLBACK
 462:CAN_TX_RX_func.c ****                     CAN_SendMsg_4_Callback();
 463:CAN_TX_RX_func.c ****                 #endif /* CAN_SEND_MSG_4_CALLBACK */
 464:CAN_TX_RX_func.c **** 
 465:CAN_TX_RX_func.c ****                 CY_SET_REG32(CAN_TX_CMD_PTR(4u),
 671              		.loc 1 465 0
 672 007c 044A     		ldr	r2, .L42
 673 007e 1168     		ldr	r1, [r2]
 674 0080 0123     		movs	r3, #1
 675 0082 0B43     		orrs	r3, r1
 676 0084 1360     		str	r3, [r2]
 438:CAN_TX_RX_func.c **** 
 677              		.loc 1 438 0
 678 0086 0020     		movs	r0, #0
 679 0088 00E0     		b	.L40
 680              	.L41:
 446:CAN_TX_RX_func.c ****             }
 681              		.loc 1 446 0
 682 008a 0120     		movs	r0, #1
 683              	.L40:
 684              	.LVL34:
 466:CAN_TX_RX_func.c ****                 CY_GET_REG32(CAN_TX_CMD_PTR(4u)) | CAN_SEND_MESSAGE);
 467:CAN_TX_RX_func.c ****             }
 468:CAN_TX_RX_func.c **** 
 469:CAN_TX_RX_func.c ****         return (result);
 470:CAN_TX_RX_func.c ****     }
 685              		.loc 1 470 0
 686              		@ sp needed
 687 008c 70BD     		pop	{r4, r5, r6, pc}
 688              	.L43:
 689 008e C046     		.align	2
 690              	.L42:
 691 0090 60002E40 		.word	1076756576
 692 0094 68002E40 		.word	1076756584
 693 0098 00000000 		.word	dato_enviado_1
 694 009c FFFF00FF 		.word	-16711681
 695 00a0 FF00FFFF 		.word	-65281
 696 00a4 6C002E40 		.word	1076756588
 697              		.cfi_endproc
 698              	.LFE5:
 699              		.size	CAN_SendMsg4, .-CAN_SendMsg4
 700              		.section	.text.CAN_ReceiveMsg,"ax",%progbits
 701              		.align	2
 702              		.global	CAN_ReceiveMsg
 703              		.code	16
 704              		.thumb_func
 705              		.type	CAN_ReceiveMsg, %function
 706              	CAN_ReceiveMsg:
 707              	.LFB6:
 471:CAN_TX_RX_func.c **** #endif /* CAN_TX4_FUNC_ENABLE */
 472:CAN_TX_RX_func.c **** 
 473:CAN_TX_RX_func.c **** 
 474:CAN_TX_RX_func.c **** #if (CAN_TX5_FUNC_ENABLE)
 475:CAN_TX_RX_func.c ****     /*******************************************************************************
ARM GAS  C:\Users\HENRYA~1\AppData\Local\Temp\ccnCD7an.s 			page 22


 476:CAN_TX_RX_func.c ****     * FUNCTION NAME:   CAN_SendMsg5
 477:CAN_TX_RX_func.c ****     ********************************************************************************
 478:CAN_TX_RX_func.c ****     *
 479:CAN_TX_RX_func.c ****     * Summary:
 480:CAN_TX_RX_func.c ****     *  This function is the entry point to Transmit Message 5. The function checks
 481:CAN_TX_RX_func.c ****     *  if mailbox 5 doesn't already have un-transmitted messages waiting for
 482:CAN_TX_RX_func.c ****     *  arbitration. If not initiate transmission of the message.
 483:CAN_TX_RX_func.c ****     *  Generated only for the Transmit mailbox designed as Full.
 484:CAN_TX_RX_func.c ****     *
 485:CAN_TX_RX_func.c ****     * Parameters:
 486:CAN_TX_RX_func.c ****     *  None.
 487:CAN_TX_RX_func.c ****     *
 488:CAN_TX_RX_func.c ****     * Return:
 489:CAN_TX_RX_func.c ****     *  Indication if Message has been sent.
 490:CAN_TX_RX_func.c ****     *   Define                             Description
 491:CAN_TX_RX_func.c ****     *    CYRET_SUCCESS                      The function passed successfully
 492:CAN_TX_RX_func.c ****     *    CAN_FAIL              The function failed
 493:CAN_TX_RX_func.c ****     *
 494:CAN_TX_RX_func.c ****     *******************************************************************************/
 495:CAN_TX_RX_func.c ****     uint8 CAN_SendMsg5(void) 
 496:CAN_TX_RX_func.c ****     {
 497:CAN_TX_RX_func.c ****         uint8 result = CYRET_SUCCESS;
 498:CAN_TX_RX_func.c **** 
 499:CAN_TX_RX_func.c ****         #if (CY_PSOC3 || CY_PSOC5)
 500:CAN_TX_RX_func.c ****             if ((CAN_TX[5u].txcmd.byte[0u] & CAN_TX_REQUEST_PENDING) != 0u)
 501:CAN_TX_RX_func.c ****         #else  /* CY_PSOC4 */
 502:CAN_TX_RX_func.c ****             if ((CAN_TX_CMD_REG(5u) & CAN_TX_REQUEST_PENDING) != 0u)
 503:CAN_TX_RX_func.c ****         #endif /* CY_PSOC3 || CY_PSOC5 */
 504:CAN_TX_RX_func.c ****             {
 505:CAN_TX_RX_func.c ****                 result = CAN_FAIL;
 506:CAN_TX_RX_func.c ****             }
 507:CAN_TX_RX_func.c ****             else
 508:CAN_TX_RX_func.c ****             {
 509:CAN_TX_RX_func.c ****                 /* `#START MESSAGE_5_TRASMITTED` */
 510:CAN_TX_RX_func.c **** 
 511:CAN_TX_RX_func.c ****                 /* `#END` */
 512:CAN_TX_RX_func.c **** 
 513:CAN_TX_RX_func.c ****                 #ifdef CAN_SEND_MSG_5_CALLBACK
 514:CAN_TX_RX_func.c ****                     CAN_SendMsg_5_Callback();
 515:CAN_TX_RX_func.c ****                 #endif /* CAN_SEND_MSG_5_CALLBACK */
 516:CAN_TX_RX_func.c **** 
 517:CAN_TX_RX_func.c ****                 CY_SET_REG32(CAN_TX_CMD_PTR(5u),
 518:CAN_TX_RX_func.c ****                 CY_GET_REG32(CAN_TX_CMD_PTR(5u)) | CAN_SEND_MESSAGE);
 519:CAN_TX_RX_func.c ****             }
 520:CAN_TX_RX_func.c **** 
 521:CAN_TX_RX_func.c ****         return (result);
 522:CAN_TX_RX_func.c ****     }
 523:CAN_TX_RX_func.c **** #endif /* CAN_TX5_FUNC_ENABLE */
 524:CAN_TX_RX_func.c **** 
 525:CAN_TX_RX_func.c **** 
 526:CAN_TX_RX_func.c **** #if (CAN_TX6_FUNC_ENABLE)
 527:CAN_TX_RX_func.c ****     /*******************************************************************************
 528:CAN_TX_RX_func.c ****     * FUNCTION NAME:   CAN_SendMsg6
 529:CAN_TX_RX_func.c ****     ********************************************************************************
 530:CAN_TX_RX_func.c ****     *
 531:CAN_TX_RX_func.c ****     * Summary:
 532:CAN_TX_RX_func.c ****     *  This function is the entry point to Transmit Message 6. The function checks
ARM GAS  C:\Users\HENRYA~1\AppData\Local\Temp\ccnCD7an.s 			page 23


 533:CAN_TX_RX_func.c ****     *  if mailbox 6 doesn't already have un-transmitted messages waiting for
 534:CAN_TX_RX_func.c ****     *  arbitration. If not initiate transmission of the message.
 535:CAN_TX_RX_func.c ****     *  Generated only for the Transmit mailbox designed as Full.
 536:CAN_TX_RX_func.c ****     *
 537:CAN_TX_RX_func.c ****     * Parameters:
 538:CAN_TX_RX_func.c ****     *  None.
 539:CAN_TX_RX_func.c ****     *
 540:CAN_TX_RX_func.c ****     * Return:
 541:CAN_TX_RX_func.c ****     *  Indication if Message has been sent.
 542:CAN_TX_RX_func.c ****     *   Define                             Description
 543:CAN_TX_RX_func.c ****     *    CYRET_SUCCESS                      The function passed successfully
 544:CAN_TX_RX_func.c ****     *    CAN_FAIL              The function failed
 545:CAN_TX_RX_func.c ****     *
 546:CAN_TX_RX_func.c ****     *******************************************************************************/
 547:CAN_TX_RX_func.c ****     uint8 CAN_SendMsg6(void) 
 548:CAN_TX_RX_func.c ****     {
 549:CAN_TX_RX_func.c ****         uint8 result = CYRET_SUCCESS;
 550:CAN_TX_RX_func.c **** 
 551:CAN_TX_RX_func.c ****         #if (CY_PSOC3 || CY_PSOC5)
 552:CAN_TX_RX_func.c ****             if ((CAN_TX[6u].txcmd.byte[0u] & CAN_TX_REQUEST_PENDING) != 0u)
 553:CAN_TX_RX_func.c ****         #else  /* CY_PSOC4 */
 554:CAN_TX_RX_func.c ****             if ((CAN_TX_CMD_REG(6u) & CAN_TX_REQUEST_PENDING) != 0u)
 555:CAN_TX_RX_func.c ****         #endif /* CY_PSOC3 || CY_PSOC5 */
 556:CAN_TX_RX_func.c ****             {
 557:CAN_TX_RX_func.c ****                 result = CAN_FAIL;
 558:CAN_TX_RX_func.c ****             }
 559:CAN_TX_RX_func.c ****             else
 560:CAN_TX_RX_func.c ****             {
 561:CAN_TX_RX_func.c ****                 /* `#START MESSAGE_6_TRASMITTED` */
 562:CAN_TX_RX_func.c **** 
 563:CAN_TX_RX_func.c ****                 /* `#END` */
 564:CAN_TX_RX_func.c **** 
 565:CAN_TX_RX_func.c ****                 #ifdef CAN_SEND_MSG_6_CALLBACK
 566:CAN_TX_RX_func.c ****                     CAN_SendMsg_6_Callback();
 567:CAN_TX_RX_func.c ****                 #endif /* CAN_SEND_MSG_6_CALLBACK */
 568:CAN_TX_RX_func.c **** 
 569:CAN_TX_RX_func.c ****                 CY_SET_REG32(CAN_TX_CMD_PTR(6u),
 570:CAN_TX_RX_func.c ****                 CY_GET_REG32(CAN_TX_CMD_PTR(6u)) | CAN_SEND_MESSAGE);
 571:CAN_TX_RX_func.c ****             }
 572:CAN_TX_RX_func.c **** 
 573:CAN_TX_RX_func.c ****         return (result);
 574:CAN_TX_RX_func.c ****     }
 575:CAN_TX_RX_func.c **** #endif /* CAN_TX6_FUNC_ENABLE */
 576:CAN_TX_RX_func.c **** 
 577:CAN_TX_RX_func.c **** 
 578:CAN_TX_RX_func.c **** #if (CAN_TX7_FUNC_ENABLE)
 579:CAN_TX_RX_func.c ****     /*******************************************************************************
 580:CAN_TX_RX_func.c ****     * FUNCTION NAME:   CAN_SendMsg7)
 581:CAN_TX_RX_func.c ****     ********************************************************************************
 582:CAN_TX_RX_func.c ****     *
 583:CAN_TX_RX_func.c ****     * Summary:
 584:CAN_TX_RX_func.c ****     *  This function is the entry point to Transmit Message 7. The function checks
 585:CAN_TX_RX_func.c ****     *  if mailbox 7 doesn't already have un-transmitted messages waiting for
 586:CAN_TX_RX_func.c ****     *  arbitration. If not initiate transmission of the message.
 587:CAN_TX_RX_func.c ****     *  Generated only for the Transmit mailbox designed as Full.
 588:CAN_TX_RX_func.c ****     *
 589:CAN_TX_RX_func.c ****     * Parameters:
ARM GAS  C:\Users\HENRYA~1\AppData\Local\Temp\ccnCD7an.s 			page 24


 590:CAN_TX_RX_func.c ****     *  None.
 591:CAN_TX_RX_func.c ****     *
 592:CAN_TX_RX_func.c ****     * Return:
 593:CAN_TX_RX_func.c ****     *  Indication if Message has been sent.
 594:CAN_TX_RX_func.c ****     *   Define                             Description
 595:CAN_TX_RX_func.c ****     *    CYRET_SUCCESS                      The function passed successfully
 596:CAN_TX_RX_func.c ****     *    CAN_FAIL              The function failed
 597:CAN_TX_RX_func.c ****     *
 598:CAN_TX_RX_func.c ****     *******************************************************************************/
 599:CAN_TX_RX_func.c ****     uint8 CAN_SendMsg7(void) 
 600:CAN_TX_RX_func.c ****     {
 601:CAN_TX_RX_func.c ****         uint8 result = CYRET_SUCCESS;
 602:CAN_TX_RX_func.c **** 
 603:CAN_TX_RX_func.c ****         #if (CY_PSOC3 || CY_PSOC5)
 604:CAN_TX_RX_func.c ****             if ((CAN_TX[7u].txcmd.byte[0u] & CAN_TX_REQUEST_PENDING) != 0u)
 605:CAN_TX_RX_func.c ****         #else  /* CY_PSOC4 */
 606:CAN_TX_RX_func.c ****             if ((CAN_TX_CMD_REG(7u) & CAN_TX_REQUEST_PENDING) != 0u)
 607:CAN_TX_RX_func.c ****         #endif /* CY_PSOC3 || CY_PSOC5 */
 608:CAN_TX_RX_func.c ****             {
 609:CAN_TX_RX_func.c ****                 result = CAN_FAIL;
 610:CAN_TX_RX_func.c ****             }
 611:CAN_TX_RX_func.c ****             else
 612:CAN_TX_RX_func.c ****             {
 613:CAN_TX_RX_func.c ****                 /* `#START MESSAGE_7_TRASMITTED` */
 614:CAN_TX_RX_func.c **** 
 615:CAN_TX_RX_func.c ****                 /* `#END` */
 616:CAN_TX_RX_func.c **** 
 617:CAN_TX_RX_func.c ****                 #ifdef CAN_SEND_MSG_7_CALLBACK
 618:CAN_TX_RX_func.c ****                     CAN_SendMsg_7_Callback();
 619:CAN_TX_RX_func.c ****                 #endif /* CAN_SEND_MSG_7_CALLBACK */
 620:CAN_TX_RX_func.c **** 
 621:CAN_TX_RX_func.c ****                 CY_SET_REG32(CAN_TX_CMD_PTR(7u),
 622:CAN_TX_RX_func.c ****                 CY_GET_REG32(CAN_TX_CMD_PTR(7u)) | CAN_SEND_MESSAGE);
 623:CAN_TX_RX_func.c ****             }
 624:CAN_TX_RX_func.c **** 
 625:CAN_TX_RX_func.c ****         return (result);
 626:CAN_TX_RX_func.c ****     }
 627:CAN_TX_RX_func.c **** #endif /* CAN_TX7_FUNC_ENABLE */
 628:CAN_TX_RX_func.c **** 
 629:CAN_TX_RX_func.c **** 
 630:CAN_TX_RX_func.c **** /*******************************************************************************
 631:CAN_TX_RX_func.c **** * FUNCTION NAME:   CAN_ReceiveMsg
 632:CAN_TX_RX_func.c **** ********************************************************************************
 633:CAN_TX_RX_func.c **** *
 634:CAN_TX_RX_func.c **** * Summary:
 635:CAN_TX_RX_func.c **** *  This function is the entry point to Receive Message Interrupt for Basic
 636:CAN_TX_RX_func.c **** *  mailboxes. Clears the Receive particular Message interrupt flag. Generated
 637:CAN_TX_RX_func.c **** *  only if one of the Receive mailboxes is designed as Basic.
 638:CAN_TX_RX_func.c **** *
 639:CAN_TX_RX_func.c **** * Parameters:
 640:CAN_TX_RX_func.c **** *  rxMailbox: The mailbox number that trig Receive Message Interrupt.
 641:CAN_TX_RX_func.c **** *
 642:CAN_TX_RX_func.c **** * Return:
 643:CAN_TX_RX_func.c **** *  None.
 644:CAN_TX_RX_func.c **** *
 645:CAN_TX_RX_func.c **** * Reentrant:
 646:CAN_TX_RX_func.c **** *  Depends on the Customer code.
ARM GAS  C:\Users\HENRYA~1\AppData\Local\Temp\ccnCD7an.s 			page 25


 647:CAN_TX_RX_func.c **** *
 648:CAN_TX_RX_func.c **** *******************************************************************************/
 649:CAN_TX_RX_func.c **** void CAN_ReceiveMsg(uint8 rxMailbox) 
 650:CAN_TX_RX_func.c **** {
 708              		.loc 1 650 0
 709              		.cfi_startproc
 710              		@ args = 0, pretend = 0, frame = 0
 711              		@ frame_needed = 0, uses_anonymous_args = 0
 712              		@ link register save eliminated.
 713              	.LVL35:
 651:CAN_TX_RX_func.c ****     #if (CY_PSOC3 || CY_PSOC5)
 652:CAN_TX_RX_func.c ****         if ((CAN_RX[rxMailbox].rxcmd.byte[0u] & CAN_RX_ACK_MSG) != 0u)
 653:CAN_TX_RX_func.c ****     #else  /* CY_PSOC4 */
 654:CAN_TX_RX_func.c ****         if ((CAN_RX_CMD_REG(rxMailbox) & CAN_RX_ACK_MSG) != 0u)
 714              		.loc 1 654 0
 715 0000 4001     		lsls	r0, r0, #5
 716              	.LVL36:
 717 0002 054B     		ldr	r3, .L46
 718 0004 9C46     		mov	ip, r3
 719 0006 6044     		add	r0, r0, ip
 720 0008 0368     		ldr	r3, [r0]
 721 000a DB07     		lsls	r3, r3, #31
 722 000c 03D5     		bpl	.L44
 655:CAN_TX_RX_func.c ****     #endif /* CY_PSOC3 || CY_PSOC5 */
 656:CAN_TX_RX_func.c ****         {
 657:CAN_TX_RX_func.c ****             /* `#START MESSAGE_BASIC_RECEIVED` */
 658:CAN_TX_RX_func.c **** 
 659:CAN_TX_RX_func.c ****             /* `#END` */
 660:CAN_TX_RX_func.c **** 
 661:CAN_TX_RX_func.c ****             #ifdef CAN_RECEIVE_MSG_CALLBACK
 662:CAN_TX_RX_func.c ****                 CAN_ReceiveMsg_Callback();
 663:CAN_TX_RX_func.c ****             #endif /* CAN_RECEIVE_MSG_CALLBACK */
 664:CAN_TX_RX_func.c **** 
 665:CAN_TX_RX_func.c ****             #if (CY_PSOC3 || CY_PSOC5)
 666:CAN_TX_RX_func.c ****                 CAN_RX[rxMailbox].rxcmd.byte[0u] |= CAN_RX_ACK_MSG;
 667:CAN_TX_RX_func.c ****             #else  /* CY_PSOC4 */
 668:CAN_TX_RX_func.c ****                 CAN_RX_CMD_REG(rxMailbox) |= CAN_RX_ACK_MSG;
 723              		.loc 1 668 0
 724 000e 0268     		ldr	r2, [r0]
 725 0010 0123     		movs	r3, #1
 726 0012 1343     		orrs	r3, r2
 727 0014 0360     		str	r3, [r0]
 728              	.L44:
 669:CAN_TX_RX_func.c ****             #endif /* CY_PSOC3 || CY_PSOC5 */
 670:CAN_TX_RX_func.c ****         }
 671:CAN_TX_RX_func.c **** }
 729              		.loc 1 671 0
 730              		@ sp needed
 731 0016 7047     		bx	lr
 732              	.L47:
 733              		.align	2
 734              	.L46:
 735 0018 A0002E40 		.word	1076756640
 736              		.cfi_endproc
 737              	.LFE6:
 738              		.size	CAN_ReceiveMsg, .-CAN_ReceiveMsg
 739              		.section	.text.CAN_ReceiveMsg0,"ax",%progbits
ARM GAS  C:\Users\HENRYA~1\AppData\Local\Temp\ccnCD7an.s 			page 26


 740              		.align	2
 741              		.global	CAN_ReceiveMsg0
 742              		.code	16
 743              		.thumb_func
 744              		.type	CAN_ReceiveMsg0, %function
 745              	CAN_ReceiveMsg0:
 746              	.LFB7:
 672:CAN_TX_RX_func.c **** 
 673:CAN_TX_RX_func.c **** 
 674:CAN_TX_RX_func.c **** #if (CAN_RX0_FUNC_ENABLE)
 675:CAN_TX_RX_func.c ****     /*******************************************************************************
 676:CAN_TX_RX_func.c ****     * FUNCTION NAME:   CAN_ReceiveMsg0
 677:CAN_TX_RX_func.c ****     ********************************************************************************
 678:CAN_TX_RX_func.c ****     *
 679:CAN_TX_RX_func.c ****     * Summary:
 680:CAN_TX_RX_func.c ****     *  This function is the entry point to Receive Message 0 Interrupt. Clears the
 681:CAN_TX_RX_func.c ****     *  Receive Message 0 interrupt flag. Generated only for the Receive mailbox
 682:CAN_TX_RX_func.c ****     *  designed as Full.
 683:CAN_TX_RX_func.c ****     *
 684:CAN_TX_RX_func.c ****     * Parameters:
 685:CAN_TX_RX_func.c ****     *  None.
 686:CAN_TX_RX_func.c ****     *
 687:CAN_TX_RX_func.c ****     * Return:
 688:CAN_TX_RX_func.c ****     *  None.
 689:CAN_TX_RX_func.c ****     *
 690:CAN_TX_RX_func.c ****     * Reentrant:
 691:CAN_TX_RX_func.c ****     *  Depends on the Customer code.
 692:CAN_TX_RX_func.c ****     *
 693:CAN_TX_RX_func.c ****     *******************************************************************************/
 694:CAN_TX_RX_func.c ****     void CAN_ReceiveMsg0(void) 
 695:CAN_TX_RX_func.c ****     {
 747              		.loc 1 695 0
 748              		.cfi_startproc
 749              		@ args = 0, pretend = 0, frame = 0
 750              		@ frame_needed = 0, uses_anonymous_args = 0
 751              		@ link register save eliminated.
 696:CAN_TX_RX_func.c ****         /* `#START MESSAGE_0_RECEIVED` */
 697:CAN_TX_RX_func.c ****   
 698:CAN_TX_RX_func.c ****         mailbox0[0]=CAN_RX_DATA_BYTE1(0);
 752              		.loc 1 698 0
 753 0000 0F4A     		ldr	r2, .L49
 754 0002 1168     		ldr	r1, [r2]
 755 0004 090E     		lsrs	r1, r1, #24
 756 0006 0F4B     		ldr	r3, .L49+4
 757 0008 1970     		strb	r1, [r3]
 699:CAN_TX_RX_func.c ****         mailbox0[1]=CAN_RX_DATA_BYTE2(0);
 758              		.loc 1 699 0
 759 000a 1168     		ldr	r1, [r2]
 760 000c 090C     		lsrs	r1, r1, #16
 761 000e 5970     		strb	r1, [r3, #1]
 700:CAN_TX_RX_func.c ****         mailbox0[2]=CAN_RX_DATA_BYTE3(0);
 762              		.loc 1 700 0
 763 0010 1168     		ldr	r1, [r2]
 764 0012 090A     		lsrs	r1, r1, #8
 765 0014 9970     		strb	r1, [r3, #2]
 701:CAN_TX_RX_func.c ****         mailbox0[3]=CAN_RX_DATA_BYTE4(0);
 766              		.loc 1 701 0
ARM GAS  C:\Users\HENRYA~1\AppData\Local\Temp\ccnCD7an.s 			page 27


 767 0016 1268     		ldr	r2, [r2]
 768 0018 DA70     		strb	r2, [r3, #3]
 702:CAN_TX_RX_func.c ****         mailbox0[4]=CAN_RX_DATA_BYTE5(0);
 769              		.loc 1 702 0
 770 001a 0B4A     		ldr	r2, .L49+8
 771 001c 1168     		ldr	r1, [r2]
 772 001e 090E     		lsrs	r1, r1, #24
 773 0020 1971     		strb	r1, [r3, #4]
 703:CAN_TX_RX_func.c ****         mailbox0[5]=CAN_RX_DATA_BYTE6(0);
 774              		.loc 1 703 0
 775 0022 1168     		ldr	r1, [r2]
 776 0024 090C     		lsrs	r1, r1, #16
 777 0026 5971     		strb	r1, [r3, #5]
 704:CAN_TX_RX_func.c ****         mailbox0[6]=CAN_RX_DATA_BYTE7(0);
 778              		.loc 1 704 0
 779 0028 1168     		ldr	r1, [r2]
 780 002a 090A     		lsrs	r1, r1, #8
 781 002c 9971     		strb	r1, [r3, #6]
 705:CAN_TX_RX_func.c ****         mailbox0[7]=CAN_RX_DATA_BYTE8(0);
 782              		.loc 1 705 0
 783 002e 1268     		ldr	r2, [r2]
 784 0030 DA71     		strb	r2, [r3, #7]
 706:CAN_TX_RX_func.c ****       
 707:CAN_TX_RX_func.c ****         
 708:CAN_TX_RX_func.c ****         
 709:CAN_TX_RX_func.c ****         /* `#END` */
 710:CAN_TX_RX_func.c **** 
 711:CAN_TX_RX_func.c ****         #ifdef CAN_RECEIVE_MSG_0_CALLBACK
 712:CAN_TX_RX_func.c ****             CAN_ReceiveMsg_0_Callback();
 713:CAN_TX_RX_func.c ****         #endif /* CAN_RECEIVE_MSG_0_CALLBACK */
 714:CAN_TX_RX_func.c **** 
 715:CAN_TX_RX_func.c ****         CAN_RX_ACK_MESSAGE(0u);
 785              		.loc 1 715 0
 786 0032 064A     		ldr	r2, .L49+12
 787 0034 1168     		ldr	r1, [r2]
 788 0036 0123     		movs	r3, #1
 789 0038 0B43     		orrs	r3, r1
 790 003a 1360     		str	r3, [r2]
 716:CAN_TX_RX_func.c ****     }
 791              		.loc 1 716 0
 792              		@ sp needed
 793 003c 7047     		bx	lr
 794              	.L50:
 795 003e C046     		.align	2
 796              	.L49:
 797 0040 A8002E40 		.word	1076756648
 798 0044 00000000 		.word	mailbox0
 799 0048 AC002E40 		.word	1076756652
 800 004c A0002E40 		.word	1076756640
 801              		.cfi_endproc
 802              	.LFE7:
 803              		.size	CAN_ReceiveMsg0, .-CAN_ReceiveMsg0
 804              		.section	.text.CAN_ReceiveMsg1,"ax",%progbits
 805              		.align	2
 806              		.global	CAN_ReceiveMsg1
 807              		.code	16
 808              		.thumb_func
ARM GAS  C:\Users\HENRYA~1\AppData\Local\Temp\ccnCD7an.s 			page 28


 809              		.type	CAN_ReceiveMsg1, %function
 810              	CAN_ReceiveMsg1:
 811              	.LFB8:
 717:CAN_TX_RX_func.c **** #endif /* CAN_RX0_FUNC_ENABLE */
 718:CAN_TX_RX_func.c **** 
 719:CAN_TX_RX_func.c **** 
 720:CAN_TX_RX_func.c **** #if (CAN_RX1_FUNC_ENABLE)
 721:CAN_TX_RX_func.c ****     /*******************************************************************************
 722:CAN_TX_RX_func.c ****     * FUNCTION NAME:    CAN_ReceiveMsg1
 723:CAN_TX_RX_func.c ****     ********************************************************************************
 724:CAN_TX_RX_func.c ****     *
 725:CAN_TX_RX_func.c ****     * Summary:
 726:CAN_TX_RX_func.c ****     *  This function is the entry point to Receive Message 1 Interrupt. Clears the
 727:CAN_TX_RX_func.c ****     *  Receive Message 1 interrupt flag. Generated only for the Receive mailbox
 728:CAN_TX_RX_func.c ****     *  designed as Full.
 729:CAN_TX_RX_func.c ****     *
 730:CAN_TX_RX_func.c ****     * Parameters:
 731:CAN_TX_RX_func.c ****     *  None.
 732:CAN_TX_RX_func.c ****     *
 733:CAN_TX_RX_func.c ****     * Return:
 734:CAN_TX_RX_func.c ****     *  None.
 735:CAN_TX_RX_func.c ****     *
 736:CAN_TX_RX_func.c ****     * Reentrant:
 737:CAN_TX_RX_func.c ****     *  Depends on the Customer code.
 738:CAN_TX_RX_func.c ****     *
 739:CAN_TX_RX_func.c ****     *******************************************************************************/
 740:CAN_TX_RX_func.c ****     void CAN_ReceiveMsg1(void) 
 741:CAN_TX_RX_func.c ****     {
 812              		.loc 1 741 0
 813              		.cfi_startproc
 814              		@ args = 0, pretend = 0, frame = 0
 815              		@ frame_needed = 0, uses_anonymous_args = 0
 816              		@ link register save eliminated.
 742:CAN_TX_RX_func.c ****         /* `#START MESSAGE_1_RECEIVED` */
 743:CAN_TX_RX_func.c ****             mailbox1[0]=CAN_RX_DATA_BYTE1(1);
 817              		.loc 1 743 0
 818 0000 0F4A     		ldr	r2, .L52
 819 0002 1168     		ldr	r1, [r2]
 820 0004 090E     		lsrs	r1, r1, #24
 821 0006 0F4B     		ldr	r3, .L52+4
 822 0008 1970     		strb	r1, [r3]
 744:CAN_TX_RX_func.c ****             mailbox1[1]=CAN_RX_DATA_BYTE2(1);
 823              		.loc 1 744 0
 824 000a 1168     		ldr	r1, [r2]
 825 000c 090C     		lsrs	r1, r1, #16
 826 000e 5970     		strb	r1, [r3, #1]
 745:CAN_TX_RX_func.c ****             mailbox1[2]=CAN_RX_DATA_BYTE3(1);
 827              		.loc 1 745 0
 828 0010 1168     		ldr	r1, [r2]
 829 0012 090A     		lsrs	r1, r1, #8
 830 0014 9970     		strb	r1, [r3, #2]
 746:CAN_TX_RX_func.c ****             mailbox1[3]=CAN_RX_DATA_BYTE4(1);
 831              		.loc 1 746 0
 832 0016 1268     		ldr	r2, [r2]
 833 0018 DA70     		strb	r2, [r3, #3]
 747:CAN_TX_RX_func.c ****             mailbox1[4]=CAN_RX_DATA_BYTE5(1);
 834              		.loc 1 747 0
ARM GAS  C:\Users\HENRYA~1\AppData\Local\Temp\ccnCD7an.s 			page 29


 835 001a 0B4A     		ldr	r2, .L52+8
 836 001c 1168     		ldr	r1, [r2]
 837 001e 090E     		lsrs	r1, r1, #24
 838 0020 1971     		strb	r1, [r3, #4]
 748:CAN_TX_RX_func.c ****             mailbox1[5]=CAN_RX_DATA_BYTE6(1);
 839              		.loc 1 748 0
 840 0022 1168     		ldr	r1, [r2]
 841 0024 090C     		lsrs	r1, r1, #16
 842 0026 5971     		strb	r1, [r3, #5]
 749:CAN_TX_RX_func.c ****             mailbox1[6]=CAN_RX_DATA_BYTE7(1);
 843              		.loc 1 749 0
 844 0028 1168     		ldr	r1, [r2]
 845 002a 090A     		lsrs	r1, r1, #8
 846 002c 9971     		strb	r1, [r3, #6]
 750:CAN_TX_RX_func.c ****             mailbox1[7]=CAN_RX_DATA_BYTE8(1);
 847              		.loc 1 750 0
 848 002e 1268     		ldr	r2, [r2]
 849 0030 DA71     		strb	r2, [r3, #7]
 751:CAN_TX_RX_func.c ****         /* `#END` */
 752:CAN_TX_RX_func.c **** 
 753:CAN_TX_RX_func.c ****         #ifdef CAN_RECEIVE_MSG_1_CALLBACK
 754:CAN_TX_RX_func.c ****             CAN_ReceiveMsg_1_Callback();
 755:CAN_TX_RX_func.c ****         #endif /* CAN_RECEIVE_MSG_1_CALLBACK */
 756:CAN_TX_RX_func.c **** 
 757:CAN_TX_RX_func.c ****         CAN_RX_ACK_MESSAGE(1u);
 850              		.loc 1 757 0
 851 0032 064A     		ldr	r2, .L52+12
 852 0034 1168     		ldr	r1, [r2]
 853 0036 0123     		movs	r3, #1
 854 0038 0B43     		orrs	r3, r1
 855 003a 1360     		str	r3, [r2]
 758:CAN_TX_RX_func.c ****     }
 856              		.loc 1 758 0
 857              		@ sp needed
 858 003c 7047     		bx	lr
 859              	.L53:
 860 003e C046     		.align	2
 861              	.L52:
 862 0040 C8002E40 		.word	1076756680
 863 0044 00000000 		.word	mailbox1
 864 0048 CC002E40 		.word	1076756684
 865 004c C0002E40 		.word	1076756672
 866              		.cfi_endproc
 867              	.LFE8:
 868              		.size	CAN_ReceiveMsg1, .-CAN_ReceiveMsg1
 869              		.section	.text.CAN_ReceiveMsg2,"ax",%progbits
 870              		.align	2
 871              		.global	CAN_ReceiveMsg2
 872              		.code	16
 873              		.thumb_func
 874              		.type	CAN_ReceiveMsg2, %function
 875              	CAN_ReceiveMsg2:
 876              	.LFB9:
 759:CAN_TX_RX_func.c **** #endif /* CAN_RX1_FUNC_ENABLE */
 760:CAN_TX_RX_func.c **** 
 761:CAN_TX_RX_func.c **** 
 762:CAN_TX_RX_func.c **** #if (CAN_RX2_FUNC_ENABLE)
ARM GAS  C:\Users\HENRYA~1\AppData\Local\Temp\ccnCD7an.s 			page 30


 763:CAN_TX_RX_func.c ****     /*******************************************************************************
 764:CAN_TX_RX_func.c ****     * FUNCTION NAME:   CAN_ReceiveMsg2
 765:CAN_TX_RX_func.c ****     ********************************************************************************
 766:CAN_TX_RX_func.c ****     *
 767:CAN_TX_RX_func.c ****     * Summary:
 768:CAN_TX_RX_func.c ****     *  This function is the entry point to Receive Message 2 Interrupt. Clears the
 769:CAN_TX_RX_func.c ****     *  Receive Message 2 interrupt flag. Generated only for the Receive mailbox
 770:CAN_TX_RX_func.c ****     *  designed as Full.
 771:CAN_TX_RX_func.c ****     *
 772:CAN_TX_RX_func.c ****     * Parameters:
 773:CAN_TX_RX_func.c ****     *  None.
 774:CAN_TX_RX_func.c ****     *
 775:CAN_TX_RX_func.c ****     * Return:
 776:CAN_TX_RX_func.c ****     *  None.
 777:CAN_TX_RX_func.c ****     *
 778:CAN_TX_RX_func.c ****     * Reentrant:
 779:CAN_TX_RX_func.c ****     *  Depends on the Customer code.
 780:CAN_TX_RX_func.c ****     *
 781:CAN_TX_RX_func.c ****     *******************************************************************************/
 782:CAN_TX_RX_func.c ****     void CAN_ReceiveMsg2(void) 
 783:CAN_TX_RX_func.c ****     {
 877              		.loc 1 783 0
 878              		.cfi_startproc
 879              		@ args = 0, pretend = 0, frame = 0
 880              		@ frame_needed = 0, uses_anonymous_args = 0
 881              		@ link register save eliminated.
 784:CAN_TX_RX_func.c ****         /* `#START MESSAGE_2_RECEIVED` */
 785:CAN_TX_RX_func.c ****             mailbox2[0]=CAN_RX_DATA_BYTE1(2);
 882              		.loc 1 785 0
 883 0000 0F4A     		ldr	r2, .L55
 884 0002 1168     		ldr	r1, [r2]
 885 0004 090E     		lsrs	r1, r1, #24
 886 0006 0F4B     		ldr	r3, .L55+4
 887 0008 1970     		strb	r1, [r3]
 786:CAN_TX_RX_func.c ****             mailbox2[1]=CAN_RX_DATA_BYTE2(2);
 888              		.loc 1 786 0
 889 000a 1168     		ldr	r1, [r2]
 890 000c 090C     		lsrs	r1, r1, #16
 891 000e 5970     		strb	r1, [r3, #1]
 787:CAN_TX_RX_func.c ****             mailbox2[2]=CAN_RX_DATA_BYTE3(2);
 892              		.loc 1 787 0
 893 0010 1168     		ldr	r1, [r2]
 894 0012 090A     		lsrs	r1, r1, #8
 895 0014 9970     		strb	r1, [r3, #2]
 788:CAN_TX_RX_func.c ****             mailbox2[3]=CAN_RX_DATA_BYTE4(2);
 896              		.loc 1 788 0
 897 0016 1268     		ldr	r2, [r2]
 898 0018 DA70     		strb	r2, [r3, #3]
 789:CAN_TX_RX_func.c ****             mailbox2[4]=CAN_RX_DATA_BYTE5(2);
 899              		.loc 1 789 0
 900 001a 0B4A     		ldr	r2, .L55+8
 901 001c 1168     		ldr	r1, [r2]
 902 001e 090E     		lsrs	r1, r1, #24
 903 0020 1971     		strb	r1, [r3, #4]
 790:CAN_TX_RX_func.c ****             mailbox2[5]=CAN_RX_DATA_BYTE6(2);
 904              		.loc 1 790 0
 905 0022 1168     		ldr	r1, [r2]
ARM GAS  C:\Users\HENRYA~1\AppData\Local\Temp\ccnCD7an.s 			page 31


 906 0024 090C     		lsrs	r1, r1, #16
 907 0026 5971     		strb	r1, [r3, #5]
 791:CAN_TX_RX_func.c ****             mailbox2[6]=CAN_RX_DATA_BYTE7(2);
 908              		.loc 1 791 0
 909 0028 1168     		ldr	r1, [r2]
 910 002a 090A     		lsrs	r1, r1, #8
 911 002c 9971     		strb	r1, [r3, #6]
 792:CAN_TX_RX_func.c ****             mailbox2[7]=CAN_RX_DATA_BYTE8(2);    
 912              		.loc 1 792 0
 913 002e 1268     		ldr	r2, [r2]
 914 0030 DA71     		strb	r2, [r3, #7]
 793:CAN_TX_RX_func.c ****         /* `#END` */
 794:CAN_TX_RX_func.c **** 
 795:CAN_TX_RX_func.c ****         #ifdef CAN_RECEIVE_MSG_2_CALLBACK
 796:CAN_TX_RX_func.c ****             CAN_ReceiveMsg_2_Callback();
 797:CAN_TX_RX_func.c ****         #endif /* CAN_RECEIVE_MSG_2_CALLBACK */
 798:CAN_TX_RX_func.c **** 
 799:CAN_TX_RX_func.c ****         CAN_RX_ACK_MESSAGE(2u);
 915              		.loc 1 799 0
 916 0032 064A     		ldr	r2, .L55+12
 917 0034 1168     		ldr	r1, [r2]
 918 0036 0123     		movs	r3, #1
 919 0038 0B43     		orrs	r3, r1
 920 003a 1360     		str	r3, [r2]
 800:CAN_TX_RX_func.c ****     }
 921              		.loc 1 800 0
 922              		@ sp needed
 923 003c 7047     		bx	lr
 924              	.L56:
 925 003e C046     		.align	2
 926              	.L55:
 927 0040 E8002E40 		.word	1076756712
 928 0044 00000000 		.word	mailbox2
 929 0048 EC002E40 		.word	1076756716
 930 004c E0002E40 		.word	1076756704
 931              		.cfi_endproc
 932              	.LFE9:
 933              		.size	CAN_ReceiveMsg2, .-CAN_ReceiveMsg2
 934              		.section	.text.CAN_ReceiveMsg3,"ax",%progbits
 935              		.align	2
 936              		.global	CAN_ReceiveMsg3
 937              		.code	16
 938              		.thumb_func
 939              		.type	CAN_ReceiveMsg3, %function
 940              	CAN_ReceiveMsg3:
 941              	.LFB10:
 801:CAN_TX_RX_func.c **** #endif /* CAN_RX2_FUNC_ENABLE */
 802:CAN_TX_RX_func.c **** 
 803:CAN_TX_RX_func.c **** 
 804:CAN_TX_RX_func.c **** #if (CAN_RX3_FUNC_ENABLE)
 805:CAN_TX_RX_func.c ****     /*******************************************************************************
 806:CAN_TX_RX_func.c ****     * FUNCTION NAME:   CAN_ReceiveMsg3
 807:CAN_TX_RX_func.c ****     ********************************************************************************
 808:CAN_TX_RX_func.c ****     *
 809:CAN_TX_RX_func.c ****     * Summary:
 810:CAN_TX_RX_func.c ****     *  This function is the entry point to Receive Message 3 Interrupt. Clears the
 811:CAN_TX_RX_func.c ****     *  Receive Message 3 interrupt flag. Generated only for the Receive mailbox
ARM GAS  C:\Users\HENRYA~1\AppData\Local\Temp\ccnCD7an.s 			page 32


 812:CAN_TX_RX_func.c ****     *  designed as Full.
 813:CAN_TX_RX_func.c ****     *
 814:CAN_TX_RX_func.c ****     * Parameters:
 815:CAN_TX_RX_func.c ****     *  None.
 816:CAN_TX_RX_func.c ****     *
 817:CAN_TX_RX_func.c ****     * Return:
 818:CAN_TX_RX_func.c ****     *  None.
 819:CAN_TX_RX_func.c ****     *
 820:CAN_TX_RX_func.c ****     * Reentrant:
 821:CAN_TX_RX_func.c ****     *  Depends on the Customer code.
 822:CAN_TX_RX_func.c ****     *
 823:CAN_TX_RX_func.c ****     *******************************************************************************/
 824:CAN_TX_RX_func.c ****     void CAN_ReceiveMsg3(void) 
 825:CAN_TX_RX_func.c ****     {
 942              		.loc 1 825 0
 943              		.cfi_startproc
 944              		@ args = 0, pretend = 0, frame = 0
 945              		@ frame_needed = 0, uses_anonymous_args = 0
 946              		@ link register save eliminated.
 826:CAN_TX_RX_func.c ****         /* `#START MESSAGE_3_RECEIVED` */
 827:CAN_TX_RX_func.c ****             mailbox3[0]=CAN_RX_DATA_BYTE1(3);
 947              		.loc 1 827 0
 948 0000 0F4A     		ldr	r2, .L58
 949 0002 1168     		ldr	r1, [r2]
 950 0004 090E     		lsrs	r1, r1, #24
 951 0006 0F4B     		ldr	r3, .L58+4
 952 0008 1970     		strb	r1, [r3]
 828:CAN_TX_RX_func.c ****             mailbox3[1]=CAN_RX_DATA_BYTE2(3);
 953              		.loc 1 828 0
 954 000a 1168     		ldr	r1, [r2]
 955 000c 090C     		lsrs	r1, r1, #16
 956 000e 5970     		strb	r1, [r3, #1]
 829:CAN_TX_RX_func.c ****             mailbox3[2]=CAN_RX_DATA_BYTE3(3);
 957              		.loc 1 829 0
 958 0010 1168     		ldr	r1, [r2]
 959 0012 090A     		lsrs	r1, r1, #8
 960 0014 9970     		strb	r1, [r3, #2]
 830:CAN_TX_RX_func.c ****             mailbox3[3]=CAN_RX_DATA_BYTE4(3);
 961              		.loc 1 830 0
 962 0016 1268     		ldr	r2, [r2]
 963 0018 DA70     		strb	r2, [r3, #3]
 831:CAN_TX_RX_func.c ****             mailbox3[4]=CAN_RX_DATA_BYTE5(3);
 964              		.loc 1 831 0
 965 001a 0B4A     		ldr	r2, .L58+8
 966 001c 1168     		ldr	r1, [r2]
 967 001e 090E     		lsrs	r1, r1, #24
 968 0020 1971     		strb	r1, [r3, #4]
 832:CAN_TX_RX_func.c ****             mailbox3[5]=CAN_RX_DATA_BYTE6(3);
 969              		.loc 1 832 0
 970 0022 1168     		ldr	r1, [r2]
 971 0024 090C     		lsrs	r1, r1, #16
 972 0026 5971     		strb	r1, [r3, #5]
 833:CAN_TX_RX_func.c ****             mailbox3[6]=CAN_RX_DATA_BYTE7(3);
 973              		.loc 1 833 0
 974 0028 1168     		ldr	r1, [r2]
 975 002a 090A     		lsrs	r1, r1, #8
 976 002c 9971     		strb	r1, [r3, #6]
ARM GAS  C:\Users\HENRYA~1\AppData\Local\Temp\ccnCD7an.s 			page 33


 834:CAN_TX_RX_func.c ****             mailbox3[7]=CAN_RX_DATA_BYTE8(3);   
 977              		.loc 1 834 0
 978 002e 1268     		ldr	r2, [r2]
 979 0030 DA71     		strb	r2, [r3, #7]
 835:CAN_TX_RX_func.c ****         /* `#END` */
 836:CAN_TX_RX_func.c **** 
 837:CAN_TX_RX_func.c ****         #ifdef CAN_RECEIVE_MSG_3_CALLBACK
 838:CAN_TX_RX_func.c ****             CAN_ReceiveMsg_3_Callback();
 839:CAN_TX_RX_func.c ****         #endif /* CAN_RECEIVE_MSG_3_CALLBACK */
 840:CAN_TX_RX_func.c **** 
 841:CAN_TX_RX_func.c ****         CAN_RX_ACK_MESSAGE(3u);
 980              		.loc 1 841 0
 981 0032 064A     		ldr	r2, .L58+12
 982 0034 1168     		ldr	r1, [r2]
 983 0036 0123     		movs	r3, #1
 984 0038 0B43     		orrs	r3, r1
 985 003a 1360     		str	r3, [r2]
 842:CAN_TX_RX_func.c ****     }
 986              		.loc 1 842 0
 987              		@ sp needed
 988 003c 7047     		bx	lr
 989              	.L59:
 990 003e C046     		.align	2
 991              	.L58:
 992 0040 08012E40 		.word	1076756744
 993 0044 00000000 		.word	mailbox3
 994 0048 0C012E40 		.word	1076756748
 995 004c 00012E40 		.word	1076756736
 996              		.cfi_endproc
 997              	.LFE10:
 998              		.size	CAN_ReceiveMsg3, .-CAN_ReceiveMsg3
 999              		.text
 1000              	.Letext0:
 1001              		.file 2 "Generated_Source\\PSoC4/cytypes.h"
 1002              		.file 3 "Generated_Source\\PSoC4/CAN.h"
 1003              		.file 4 "Generated_Source\\PSoC4/CyLib.h"