ARM GAS  C:\Users\HENRYA~1\AppData\Local\Temp\cc9Q4k6t.s 			page 1


   1              		.syntax unified
   2              		.cpu cortex-m0
   3              		.fpu softvfp
   4              		.eabi_attribute 20, 1
   5              		.eabi_attribute 21, 1
   6              		.eabi_attribute 23, 3
   7              		.eabi_attribute 24, 1
   8              		.eabi_attribute 25, 1
   9              		.eabi_attribute 26, 1
  10              		.eabi_attribute 30, 1
  11              		.eabi_attribute 34, 0
  12              		.eabi_attribute 18, 4
  13              		.thumb
  14              		.syntax unified
  15              		.file	"cyfitter_cfg.c"
  16              		.text
  17              	.Ltext0:
  18              		.cfi_sections	.debug_frame
  19              		.section	.text.cfg_write_bytes32,"ax",%progbits
  20              		.align	2
  21              		.code	16
  22              		.thumb_func
  23              		.type	cfg_write_bytes32, %function
  24              	cfg_write_bytes32:
  25              	.LFB4:
  26              		.file 1 "Generated_Source\\PSoC4\\cyfitter_cfg.c"
   1:Generated_Source\PSoC4/cyfitter_cfg.c **** 
   2:Generated_Source\PSoC4/cyfitter_cfg.c **** /*******************************************************************************
   3:Generated_Source\PSoC4/cyfitter_cfg.c **** * File Name: cyfitter_cfg.c
   4:Generated_Source\PSoC4/cyfitter_cfg.c **** * 
   5:Generated_Source\PSoC4/cyfitter_cfg.c **** * PSoC Creator  4.1 Update 1
   6:Generated_Source\PSoC4/cyfitter_cfg.c **** *
   7:Generated_Source\PSoC4/cyfitter_cfg.c **** * Description:
   8:Generated_Source\PSoC4/cyfitter_cfg.c **** * This file contains device initialization code.
   9:Generated_Source\PSoC4/cyfitter_cfg.c **** * Except for the user defined sections in CyClockStartupError(), this file should not be modified.
  10:Generated_Source\PSoC4/cyfitter_cfg.c **** * This file is automatically generated by PSoC Creator.
  11:Generated_Source\PSoC4/cyfitter_cfg.c **** *
  12:Generated_Source\PSoC4/cyfitter_cfg.c **** ********************************************************************************
  13:Generated_Source\PSoC4/cyfitter_cfg.c **** * Copyright (c) 2007-2017 Cypress Semiconductor.  All rights reserved.
  14:Generated_Source\PSoC4/cyfitter_cfg.c **** * You may use this file only in accordance with the license, terms, conditions, 
  15:Generated_Source\PSoC4/cyfitter_cfg.c **** * disclaimers, and limitations in the end user license agreement accompanying 
  16:Generated_Source\PSoC4/cyfitter_cfg.c **** * the software package with which this file was provided.
  17:Generated_Source\PSoC4/cyfitter_cfg.c **** ********************************************************************************/
  18:Generated_Source\PSoC4/cyfitter_cfg.c **** 
  19:Generated_Source\PSoC4/cyfitter_cfg.c **** #include <string.h>
  20:Generated_Source\PSoC4/cyfitter_cfg.c **** #include "cytypes.h"
  21:Generated_Source\PSoC4/cyfitter_cfg.c **** #include "cydevice_trm.h"
  22:Generated_Source\PSoC4/cyfitter_cfg.c **** #include "cyfitter.h"
  23:Generated_Source\PSoC4/cyfitter_cfg.c **** #include "CyLib.h"
  24:Generated_Source\PSoC4/cyfitter_cfg.c **** #include "CyLFClk.h"
  25:Generated_Source\PSoC4/cyfitter_cfg.c **** #include "cyfitter_cfg.h"
  26:Generated_Source\PSoC4/cyfitter_cfg.c **** #include "cyapicallbacks.h"
  27:Generated_Source\PSoC4/cyfitter_cfg.c **** 
  28:Generated_Source\PSoC4/cyfitter_cfg.c **** 
  29:Generated_Source\PSoC4/cyfitter_cfg.c **** #if defined(__GNUC__) || defined(__ARMCC_VERSION)
  30:Generated_Source\PSoC4/cyfitter_cfg.c ****     #define CYPACKED 
  31:Generated_Source\PSoC4/cyfitter_cfg.c ****     #define CYPACKED_ATTR __attribute__ ((packed))
ARM GAS  C:\Users\HENRYA~1\AppData\Local\Temp\cc9Q4k6t.s 			page 2


  32:Generated_Source\PSoC4/cyfitter_cfg.c ****     #define CYALIGNED __attribute__ ((aligned))
  33:Generated_Source\PSoC4/cyfitter_cfg.c ****     #define CY_CFG_UNUSED __attribute__ ((unused))
  34:Generated_Source\PSoC4/cyfitter_cfg.c ****     #ifndef CY_CFG_SECTION
  35:Generated_Source\PSoC4/cyfitter_cfg.c ****         #define CY_CFG_SECTION __attribute__ ((section(".psocinit")))
  36:Generated_Source\PSoC4/cyfitter_cfg.c ****     #endif
  37:Generated_Source\PSoC4/cyfitter_cfg.c ****     
  38:Generated_Source\PSoC4/cyfitter_cfg.c ****     #if defined(__ARMCC_VERSION)
  39:Generated_Source\PSoC4/cyfitter_cfg.c ****         #define CY_CFG_MEMORY_BARRIER() __memory_changed()
  40:Generated_Source\PSoC4/cyfitter_cfg.c ****     #else
  41:Generated_Source\PSoC4/cyfitter_cfg.c ****         #define CY_CFG_MEMORY_BARRIER() __sync_synchronize()
  42:Generated_Source\PSoC4/cyfitter_cfg.c ****     #endif
  43:Generated_Source\PSoC4/cyfitter_cfg.c ****     
  44:Generated_Source\PSoC4/cyfitter_cfg.c **** #elif defined(__ICCARM__)
  45:Generated_Source\PSoC4/cyfitter_cfg.c ****     #include <intrinsics.h>
  46:Generated_Source\PSoC4/cyfitter_cfg.c **** 
  47:Generated_Source\PSoC4/cyfitter_cfg.c ****     #define CYPACKED __packed
  48:Generated_Source\PSoC4/cyfitter_cfg.c ****     #define CYPACKED_ATTR 
  49:Generated_Source\PSoC4/cyfitter_cfg.c ****     #define CYALIGNED _Pragma("data_alignment=4")
  50:Generated_Source\PSoC4/cyfitter_cfg.c ****     #define CY_CFG_UNUSED _Pragma("diag_suppress=Pe177")
  51:Generated_Source\PSoC4/cyfitter_cfg.c ****     #define CY_CFG_SECTION _Pragma("location=\".psocinit\"")
  52:Generated_Source\PSoC4/cyfitter_cfg.c ****     
  53:Generated_Source\PSoC4/cyfitter_cfg.c ****     #define CY_CFG_MEMORY_BARRIER() __DMB()
  54:Generated_Source\PSoC4/cyfitter_cfg.c ****     
  55:Generated_Source\PSoC4/cyfitter_cfg.c **** #else
  56:Generated_Source\PSoC4/cyfitter_cfg.c ****     #error Unsupported toolchain
  57:Generated_Source\PSoC4/cyfitter_cfg.c **** #endif
  58:Generated_Source\PSoC4/cyfitter_cfg.c **** 
  59:Generated_Source\PSoC4/cyfitter_cfg.c **** #ifndef CYCODE
  60:Generated_Source\PSoC4/cyfitter_cfg.c ****     #define CYCODE
  61:Generated_Source\PSoC4/cyfitter_cfg.c **** #endif
  62:Generated_Source\PSoC4/cyfitter_cfg.c **** #ifndef CYDATA
  63:Generated_Source\PSoC4/cyfitter_cfg.c ****     #define CYDATA
  64:Generated_Source\PSoC4/cyfitter_cfg.c **** #endif
  65:Generated_Source\PSoC4/cyfitter_cfg.c **** #ifndef CYFAR
  66:Generated_Source\PSoC4/cyfitter_cfg.c ****     #define CYFAR
  67:Generated_Source\PSoC4/cyfitter_cfg.c **** #endif
  68:Generated_Source\PSoC4/cyfitter_cfg.c **** #ifndef CYXDATA
  69:Generated_Source\PSoC4/cyfitter_cfg.c ****     #define CYXDATA
  70:Generated_Source\PSoC4/cyfitter_cfg.c **** #endif
  71:Generated_Source\PSoC4/cyfitter_cfg.c **** 
  72:Generated_Source\PSoC4/cyfitter_cfg.c **** 
  73:Generated_Source\PSoC4/cyfitter_cfg.c **** CY_CFG_UNUSED
  74:Generated_Source\PSoC4/cyfitter_cfg.c **** static void CYMEMZERO(void *s, size_t n);
  75:Generated_Source\PSoC4/cyfitter_cfg.c **** CY_CFG_UNUSED
  76:Generated_Source\PSoC4/cyfitter_cfg.c **** static void CYMEMZERO(void *s, size_t n)
  77:Generated_Source\PSoC4/cyfitter_cfg.c **** {
  78:Generated_Source\PSoC4/cyfitter_cfg.c **** 	(void)memset(s, 0, n);
  79:Generated_Source\PSoC4/cyfitter_cfg.c **** }
  80:Generated_Source\PSoC4/cyfitter_cfg.c **** CY_CFG_UNUSED
  81:Generated_Source\PSoC4/cyfitter_cfg.c **** static void CYCONFIGCPY(void *dest, const void *src, size_t n);
  82:Generated_Source\PSoC4/cyfitter_cfg.c **** CY_CFG_UNUSED
  83:Generated_Source\PSoC4/cyfitter_cfg.c **** static void CYCONFIGCPY(void *dest, const void *src, size_t n)
  84:Generated_Source\PSoC4/cyfitter_cfg.c **** {
  85:Generated_Source\PSoC4/cyfitter_cfg.c **** 	(void)memcpy(dest, src, n);
  86:Generated_Source\PSoC4/cyfitter_cfg.c **** }
  87:Generated_Source\PSoC4/cyfitter_cfg.c **** CY_CFG_UNUSED
  88:Generated_Source\PSoC4/cyfitter_cfg.c **** static void CYCONFIGCPYCODE(void *dest, const void *src, size_t n);
ARM GAS  C:\Users\HENRYA~1\AppData\Local\Temp\cc9Q4k6t.s 			page 3


  89:Generated_Source\PSoC4/cyfitter_cfg.c **** CY_CFG_UNUSED
  90:Generated_Source\PSoC4/cyfitter_cfg.c **** static void CYCONFIGCPYCODE(void *dest, const void *src, size_t n)
  91:Generated_Source\PSoC4/cyfitter_cfg.c **** {
  92:Generated_Source\PSoC4/cyfitter_cfg.c **** 	(void)memcpy(dest, src, n);
  93:Generated_Source\PSoC4/cyfitter_cfg.c **** }
  94:Generated_Source\PSoC4/cyfitter_cfg.c **** 
  95:Generated_Source\PSoC4/cyfitter_cfg.c **** 
  96:Generated_Source\PSoC4/cyfitter_cfg.c **** 
  97:Generated_Source\PSoC4/cyfitter_cfg.c **** 
  98:Generated_Source\PSoC4/cyfitter_cfg.c **** /* Clock startup error codes                                                   */
  99:Generated_Source\PSoC4/cyfitter_cfg.c **** #define CYCLOCKSTART_NO_ERROR    0u
 100:Generated_Source\PSoC4/cyfitter_cfg.c **** #define CYCLOCKSTART_XTAL_ERROR  1u
 101:Generated_Source\PSoC4/cyfitter_cfg.c **** #define CYCLOCKSTART_32KHZ_ERROR 2u
 102:Generated_Source\PSoC4/cyfitter_cfg.c **** #define CYCLOCKSTART_PLL_ERROR   3u
 103:Generated_Source\PSoC4/cyfitter_cfg.c **** #define CYCLOCKSTART_FLL_ERROR   4u
 104:Generated_Source\PSoC4/cyfitter_cfg.c **** 
 105:Generated_Source\PSoC4/cyfitter_cfg.c **** 
 106:Generated_Source\PSoC4/cyfitter_cfg.c **** #ifdef CY_NEED_CYCLOCKSTARTUPERROR
 107:Generated_Source\PSoC4/cyfitter_cfg.c **** /*******************************************************************************
 108:Generated_Source\PSoC4/cyfitter_cfg.c **** * Function Name: CyClockStartupError
 109:Generated_Source\PSoC4/cyfitter_cfg.c **** ********************************************************************************
 110:Generated_Source\PSoC4/cyfitter_cfg.c **** * Summary:
 111:Generated_Source\PSoC4/cyfitter_cfg.c **** *  If an error is encountered during clock configuration (crystal startup error,
 112:Generated_Source\PSoC4/cyfitter_cfg.c **** *  PLL lock error, etc.), the system will end up here.  Unless reimplemented by
 113:Generated_Source\PSoC4/cyfitter_cfg.c **** *  the customer, this function will stop in an infinite loop.
 114:Generated_Source\PSoC4/cyfitter_cfg.c **** *
 115:Generated_Source\PSoC4/cyfitter_cfg.c **** * Parameters:
 116:Generated_Source\PSoC4/cyfitter_cfg.c **** *   void
 117:Generated_Source\PSoC4/cyfitter_cfg.c **** *
 118:Generated_Source\PSoC4/cyfitter_cfg.c **** * Return:
 119:Generated_Source\PSoC4/cyfitter_cfg.c **** *   void
 120:Generated_Source\PSoC4/cyfitter_cfg.c **** *
 121:Generated_Source\PSoC4/cyfitter_cfg.c **** *******************************************************************************/
 122:Generated_Source\PSoC4/cyfitter_cfg.c **** CY_CFG_UNUSED
 123:Generated_Source\PSoC4/cyfitter_cfg.c **** static void CyClockStartupError(uint8 errorCode);
 124:Generated_Source\PSoC4/cyfitter_cfg.c **** CY_CFG_UNUSED
 125:Generated_Source\PSoC4/cyfitter_cfg.c **** static void CyClockStartupError(uint8 errorCode)
 126:Generated_Source\PSoC4/cyfitter_cfg.c **** {
 127:Generated_Source\PSoC4/cyfitter_cfg.c ****     /* To remove the compiler warning if errorCode not used. */
 128:Generated_Source\PSoC4/cyfitter_cfg.c **** #if defined(CY_PSOC3) && (CY_PSOC3)
 129:Generated_Source\PSoC4/cyfitter_cfg.c ****     errorCode = errorCode;
 130:Generated_Source\PSoC4/cyfitter_cfg.c **** #else
 131:Generated_Source\PSoC4/cyfitter_cfg.c ****     (void)errorCode;
 132:Generated_Source\PSoC4/cyfitter_cfg.c **** #endif /* CY_PSOC3 */
 133:Generated_Source\PSoC4/cyfitter_cfg.c **** 
 134:Generated_Source\PSoC4/cyfitter_cfg.c ****     /* If we have a clock startup error (bad MHz crystal, PLL lock, etc.),  */
 135:Generated_Source\PSoC4/cyfitter_cfg.c ****     /* we will end up here to allow the customer to implement something to  */
 136:Generated_Source\PSoC4/cyfitter_cfg.c ****     /* deal with the clock condition.                                       */
 137:Generated_Source\PSoC4/cyfitter_cfg.c **** 
 138:Generated_Source\PSoC4/cyfitter_cfg.c **** #ifdef CY_CFG_CLOCK_STARTUP_ERROR_CALLBACK
 139:Generated_Source\PSoC4/cyfitter_cfg.c ****     CY_CFG_Clock_Startup_ErrorCallback();
 140:Generated_Source\PSoC4/cyfitter_cfg.c **** #else
 141:Generated_Source\PSoC4/cyfitter_cfg.c ****     /*  If not using CY_CFG_CLOCK_STARTUP_ERROR_CALLBACK, place your clock startup code here. */
 142:Generated_Source\PSoC4/cyfitter_cfg.c ****     /* `#START CyClockStartupError` */
 143:Generated_Source\PSoC4/cyfitter_cfg.c **** 
 144:Generated_Source\PSoC4/cyfitter_cfg.c ****     /* If we have a clock startup error (bad MHz crystal, PLL lock, etc.),  */
 145:Generated_Source\PSoC4/cyfitter_cfg.c ****     /* we will end up here to allow the customer to implement something to  */
ARM GAS  C:\Users\HENRYA~1\AppData\Local\Temp\cc9Q4k6t.s 			page 4


 146:Generated_Source\PSoC4/cyfitter_cfg.c ****     /* deal with the clock condition.                                       */
 147:Generated_Source\PSoC4/cyfitter_cfg.c **** 
 148:Generated_Source\PSoC4/cyfitter_cfg.c ****     /* `#END` */
 149:Generated_Source\PSoC4/cyfitter_cfg.c **** 
 150:Generated_Source\PSoC4/cyfitter_cfg.c ****     while(1) {}
 151:Generated_Source\PSoC4/cyfitter_cfg.c **** #endif /* CY_CFG_CLOCK_STARTUP_ERROR_CALLBACK */
 152:Generated_Source\PSoC4/cyfitter_cfg.c **** }
 153:Generated_Source\PSoC4/cyfitter_cfg.c **** #endif
 154:Generated_Source\PSoC4/cyfitter_cfg.c **** 
 155:Generated_Source\PSoC4/cyfitter_cfg.c **** #define CY_CFG_BASE_ADDR_COUNT 5u
 156:Generated_Source\PSoC4/cyfitter_cfg.c **** CYPACKED typedef struct
 157:Generated_Source\PSoC4/cyfitter_cfg.c **** {
 158:Generated_Source\PSoC4/cyfitter_cfg.c **** 	uint8 offset;
 159:Generated_Source\PSoC4/cyfitter_cfg.c **** 	uint8 value;
 160:Generated_Source\PSoC4/cyfitter_cfg.c **** } CYPACKED_ATTR cy_cfg_addrvalue_t;
 161:Generated_Source\PSoC4/cyfitter_cfg.c **** 
 162:Generated_Source\PSoC4/cyfitter_cfg.c **** 
 163:Generated_Source\PSoC4/cyfitter_cfg.c **** 
 164:Generated_Source\PSoC4/cyfitter_cfg.c **** /*******************************************************************************
 165:Generated_Source\PSoC4/cyfitter_cfg.c **** * Function Name: cfg_write_bytes32
 166:Generated_Source\PSoC4/cyfitter_cfg.c **** ********************************************************************************
 167:Generated_Source\PSoC4/cyfitter_cfg.c **** * Summary:
 168:Generated_Source\PSoC4/cyfitter_cfg.c **** *  This function is used for setting up the chip configuration areas that
 169:Generated_Source\PSoC4/cyfitter_cfg.c **** *  contain relatively sparse data.
 170:Generated_Source\PSoC4/cyfitter_cfg.c **** *
 171:Generated_Source\PSoC4/cyfitter_cfg.c **** * Parameters:
 172:Generated_Source\PSoC4/cyfitter_cfg.c **** *   void
 173:Generated_Source\PSoC4/cyfitter_cfg.c **** *
 174:Generated_Source\PSoC4/cyfitter_cfg.c **** * Return:
 175:Generated_Source\PSoC4/cyfitter_cfg.c **** *   void
 176:Generated_Source\PSoC4/cyfitter_cfg.c **** *
 177:Generated_Source\PSoC4/cyfitter_cfg.c **** *******************************************************************************/
 178:Generated_Source\PSoC4/cyfitter_cfg.c **** static void cfg_write_bytes32(const uint32 addr_table[], const cy_cfg_addrvalue_t data_table[]);
 179:Generated_Source\PSoC4/cyfitter_cfg.c **** static void cfg_write_bytes32(const uint32 addr_table[], const cy_cfg_addrvalue_t data_table[])
 180:Generated_Source\PSoC4/cyfitter_cfg.c **** {
  27              		.loc 1 180 0
  28              		.cfi_startproc
  29              		@ args = 0, pretend = 0, frame = 0
  30              		@ frame_needed = 0, uses_anonymous_args = 0
  31              	.LVL0:
  32 0000 F0B5     		push	{r4, r5, r6, r7, lr}
  33              		.cfi_def_cfa_offset 20
  34              		.cfi_offset 4, -20
  35              		.cfi_offset 5, -16
  36              		.cfi_offset 6, -12
  37              		.cfi_offset 7, -8
  38              		.cfi_offset 14, -4
  39              	.LVL1:
 181:Generated_Source\PSoC4/cyfitter_cfg.c **** 	/* For 32-bit little-endian architectures */
 182:Generated_Source\PSoC4/cyfitter_cfg.c **** 	uint32 i, j = 0u;
  40              		.loc 1 182 0
  41 0002 0025     		movs	r5, #0
 183:Generated_Source\PSoC4/cyfitter_cfg.c **** 	for (i = 0u; i < CY_CFG_BASE_ADDR_COUNT; i++)
  42              		.loc 1 183 0
  43 0004 0027     		movs	r7, #0
  44 0006 11E0     		b	.L2
  45              	.LVL2:
ARM GAS  C:\Users\HENRYA~1\AppData\Local\Temp\cc9Q4k6t.s 			page 5


  46              	.L5:
  47              	.LBB2:
 184:Generated_Source\PSoC4/cyfitter_cfg.c **** 	{
 185:Generated_Source\PSoC4/cyfitter_cfg.c **** 		uint32 baseAddr = addr_table[i];
  48              		.loc 1 185 0
  49 0008 BB00     		lsls	r3, r7, #2
  50 000a C658     		ldr	r6, [r0, r3]
  51              	.LVL3:
 186:Generated_Source\PSoC4/cyfitter_cfg.c **** 		uint8 count = (uint8)baseAddr;
  52              		.loc 1 186 0
  53 000c F3B2     		uxtb	r3, r6
  54              	.LVL4:
 187:Generated_Source\PSoC4/cyfitter_cfg.c **** 		baseAddr &= 0xFFFFFF00u;
  55              		.loc 1 187 0
  56 000e FF22     		movs	r2, #255
  57 0010 9643     		bics	r6, r2
  58              	.LVL5:
 188:Generated_Source\PSoC4/cyfitter_cfg.c **** 		while (count != 0u)
  59              		.loc 1 188 0
  60 0012 08E0     		b	.L3
  61              	.L4:
 189:Generated_Source\PSoC4/cyfitter_cfg.c **** 		{
 190:Generated_Source\PSoC4/cyfitter_cfg.c **** 			CY_SET_REG8((void *)(baseAddr + data_table[j].offset), data_table[j].value);
  62              		.loc 1 190 0
  63 0014 6A00     		lsls	r2, r5, #1
  64 0016 8A18     		adds	r2, r1, r2
  65 0018 1478     		ldrb	r4, [r2]
  66 001a A419     		adds	r4, r4, r6
  67 001c 5278     		ldrb	r2, [r2, #1]
  68 001e 2270     		strb	r2, [r4]
 191:Generated_Source\PSoC4/cyfitter_cfg.c **** 			j++;
  69              		.loc 1 191 0
  70 0020 0135     		adds	r5, r5, #1
  71              	.LVL6:
 192:Generated_Source\PSoC4/cyfitter_cfg.c **** 			count--;
  72              		.loc 1 192 0
  73 0022 013B     		subs	r3, r3, #1
  74              	.LVL7:
  75 0024 DBB2     		uxtb	r3, r3
  76              	.LVL8:
  77              	.L3:
 188:Generated_Source\PSoC4/cyfitter_cfg.c **** 		{
  78              		.loc 1 188 0
  79 0026 002B     		cmp	r3, #0
  80 0028 F4D1     		bne	.L4
  81              	.LBE2:
 183:Generated_Source\PSoC4/cyfitter_cfg.c **** 	{
  82              		.loc 1 183 0 discriminator 2
  83 002a 0137     		adds	r7, r7, #1
  84              	.LVL9:
  85              	.L2:
 183:Generated_Source\PSoC4/cyfitter_cfg.c **** 	{
  86              		.loc 1 183 0 is_stmt 0 discriminator 1
  87 002c 042F     		cmp	r7, #4
  88 002e EBD9     		bls	.L5
 193:Generated_Source\PSoC4/cyfitter_cfg.c **** 		}
 194:Generated_Source\PSoC4/cyfitter_cfg.c **** 	}
ARM GAS  C:\Users\HENRYA~1\AppData\Local\Temp\cc9Q4k6t.s 			page 6


 195:Generated_Source\PSoC4/cyfitter_cfg.c **** }
  89              		.loc 1 195 0 is_stmt 1
  90              		@ sp needed
  91              	.LVL10:
  92              	.LVL11:
  93 0030 F0BD     		pop	{r4, r5, r6, r7, pc}
  94              		.cfi_endproc
  95              	.LFE4:
  96              		.size	cfg_write_bytes32, .-cfg_write_bytes32
  97 0032 C046     		.section	.text.CYMEMZERO,"ax",%progbits
  98              		.align	2
  99              		.code	16
 100              		.thumb_func
 101              		.type	CYMEMZERO, %function
 102              	CYMEMZERO:
 103              	.LFB1:
  77:Generated_Source\PSoC4/cyfitter_cfg.c **** 	(void)memset(s, 0, n);
 104              		.loc 1 77 0
 105              		.cfi_startproc
 106              		@ args = 0, pretend = 0, frame = 0
 107              		@ frame_needed = 0, uses_anonymous_args = 0
 108              	.LVL12:
 109 0000 10B5     		push	{r4, lr}
 110              		.cfi_def_cfa_offset 8
 111              		.cfi_offset 4, -8
 112              		.cfi_offset 14, -4
 113 0002 0A00     		movs	r2, r1
  78:Generated_Source\PSoC4/cyfitter_cfg.c **** }
 114              		.loc 1 78 0
 115 0004 0021     		movs	r1, #0
 116              	.LVL13:
 117 0006 FFF7FEFF 		bl	memset
 118              	.LVL14:
  79:Generated_Source\PSoC4/cyfitter_cfg.c **** CY_CFG_UNUSED
 119              		.loc 1 79 0
 120              		@ sp needed
 121 000a 10BD     		pop	{r4, pc}
 122              		.cfi_endproc
 123              	.LFE1:
 124              		.size	CYMEMZERO, .-CYMEMZERO
 125              		.section	.psocinit,"ax",%progbits
 126              		.align	2
 127              		.code	16
 128              		.thumb_func
 129              		.type	ClockSetup, %function
 130              	ClockSetup:
 131              	.LFB5:
 196:Generated_Source\PSoC4/cyfitter_cfg.c **** 
 197:Generated_Source\PSoC4/cyfitter_cfg.c **** 
 198:Generated_Source\PSoC4/cyfitter_cfg.c **** /*******************************************************************************
 199:Generated_Source\PSoC4/cyfitter_cfg.c **** * Function Name: ClockSetup
 200:Generated_Source\PSoC4/cyfitter_cfg.c **** ********************************************************************************
 201:Generated_Source\PSoC4/cyfitter_cfg.c **** *
 202:Generated_Source\PSoC4/cyfitter_cfg.c **** * Summary:
 203:Generated_Source\PSoC4/cyfitter_cfg.c **** *   Performs the initialization of all of the clocks in the device based on the
 204:Generated_Source\PSoC4/cyfitter_cfg.c **** *   settings in the Clock tab of the DWR.  This includes enabling the requested
 205:Generated_Source\PSoC4/cyfitter_cfg.c **** *   clocks and setting the necessary dividers to produce the desired frequency. 
ARM GAS  C:\Users\HENRYA~1\AppData\Local\Temp\cc9Q4k6t.s 			page 7


 206:Generated_Source\PSoC4/cyfitter_cfg.c **** *
 207:Generated_Source\PSoC4/cyfitter_cfg.c **** * Parameters:
 208:Generated_Source\PSoC4/cyfitter_cfg.c **** *   void
 209:Generated_Source\PSoC4/cyfitter_cfg.c **** *
 210:Generated_Source\PSoC4/cyfitter_cfg.c **** * Return:
 211:Generated_Source\PSoC4/cyfitter_cfg.c **** *   void
 212:Generated_Source\PSoC4/cyfitter_cfg.c **** *
 213:Generated_Source\PSoC4/cyfitter_cfg.c **** *******************************************************************************/
 214:Generated_Source\PSoC4/cyfitter_cfg.c **** static void ClockSetup(void);
 215:Generated_Source\PSoC4/cyfitter_cfg.c **** CY_CFG_SECTION
 216:Generated_Source\PSoC4/cyfitter_cfg.c **** static void ClockSetup(void)
 217:Generated_Source\PSoC4/cyfitter_cfg.c **** {
 132              		.loc 1 217 0
 133              		.cfi_startproc
 134              		@ args = 0, pretend = 0, frame = 0
 135              		@ frame_needed = 0, uses_anonymous_args = 0
 136 0000 70B5     		push	{r4, r5, r6, lr}
 137              		.cfi_def_cfa_offset 16
 138              		.cfi_offset 4, -16
 139              		.cfi_offset 5, -12
 140              		.cfi_offset 6, -8
 141              		.cfi_offset 14, -4
 218:Generated_Source\PSoC4/cyfitter_cfg.c **** 
 219:Generated_Source\PSoC4/cyfitter_cfg.c **** 	/* Set Flash Cycles based on max possible frequency in case a glitch occurs during ClockSetup(). *
 220:Generated_Source\PSoC4/cyfitter_cfg.c **** 	CY_SET_REG32((void CYXDATA *)(CYREG_CPUSS_FLASH_CTL), (0x0012u));
 142              		.loc 1 220 0
 143 0002 1E4C     		ldr	r4, .L8
 144 0004 1223     		movs	r3, #18
 145 0006 2360     		str	r3, [r4]
 221:Generated_Source\PSoC4/cyfitter_cfg.c **** 
 222:Generated_Source\PSoC4/cyfitter_cfg.c **** 	/* Start the WCO */
 223:Generated_Source\PSoC4/cyfitter_cfg.c **** 	CySysClkWcoStart();
 146              		.loc 1 223 0
 147 0008 FFF7FEFF 		bl	CySysClkWcoStart
 148              	.LVL15:
 224:Generated_Source\PSoC4/cyfitter_cfg.c **** 	CyDelayCycles(12000000u); /* WCO may take up to 500ms to start */
 149              		.loc 1 224 0
 150 000c 1C48     		ldr	r0, .L8+4
 151 000e FFF7FEFF 		bl	CyDelayCycles
 152              	.LVL16:
 225:Generated_Source\PSoC4/cyfitter_cfg.c **** 
 226:Generated_Source\PSoC4/cyfitter_cfg.c **** 	/* Setup and trim IMO based on desired frequency. */
 227:Generated_Source\PSoC4/cyfitter_cfg.c **** 	CySysClkWriteImoFreq(24u);
 153              		.loc 1 227 0
 154 0012 1820     		movs	r0, #24
 155 0014 FFF7FEFF 		bl	CySysClkWriteImoFreq
 156              	.LVL17:
 228:Generated_Source\PSoC4/cyfitter_cfg.c **** 	CySysClkImoEnableWcoLock();
 157              		.loc 1 228 0
 158 0018 FFF7FEFF 		bl	CySysClkImoEnableWcoLock
 159              	.LVL18:
 229:Generated_Source\PSoC4/cyfitter_cfg.c **** 	/* CYDEV_CLK_ILO_CONFIG Starting address: CYDEV_CLK_ILO_CONFIG */
 230:Generated_Source\PSoC4/cyfitter_cfg.c **** 	CY_SET_REG32((void *)(CYREG_CLK_ILO_CONFIG), 0x80000006u);
 160              		.loc 1 230 0
 161 001c 194A     		ldr	r2, .L8+8
 162 001e 1A4B     		ldr	r3, .L8+12
 163 0020 1A60     		str	r2, [r3]
ARM GAS  C:\Users\HENRYA~1\AppData\Local\Temp\cc9Q4k6t.s 			page 8


 231:Generated_Source\PSoC4/cyfitter_cfg.c **** 
 232:Generated_Source\PSoC4/cyfitter_cfg.c **** 	/* CYDEV_WDT_CONFIG Starting address: CYDEV_WDT_CONFIG */
 233:Generated_Source\PSoC4/cyfitter_cfg.c **** 	CY_SET_REG32((void *)(CYREG_WDT_CONFIG), 0x40000000u);
 164              		.loc 1 233 0
 165 0022 1A4D     		ldr	r5, .L8+16
 166 0024 8026     		movs	r6, #128
 167 0026 F605     		lsls	r6, r6, #23
 168 0028 2E60     		str	r6, [r5]
 234:Generated_Source\PSoC4/cyfitter_cfg.c **** 
 235:Generated_Source\PSoC4/cyfitter_cfg.c **** 
 236:Generated_Source\PSoC4/cyfitter_cfg.c **** 	/* Setup phase aligned clocks */
 237:Generated_Source\PSoC4/cyfitter_cfg.c **** 	CY_SET_REG32((void *)CYREG_PERI_DIV_16_CTL0, 0x00000000u);
 169              		.loc 1 237 0
 170 002a 0022     		movs	r2, #0
 171 002c 184B     		ldr	r3, .L8+20
 172 002e 1A60     		str	r2, [r3]
 238:Generated_Source\PSoC4/cyfitter_cfg.c **** 	CY_SET_REG32((void *)CYREG_PERI_DIV_CMD, 0x8000FF40u);
 173              		.loc 1 238 0
 174 0030 184B     		ldr	r3, .L8+24
 175 0032 1949     		ldr	r1, .L8+28
 176 0034 1960     		str	r1, [r3]
 239:Generated_Source\PSoC4/cyfitter_cfg.c **** 	CY_SET_REG32((void *)CYREG_PERI_DIV_16_CTL2, 0x005DBF00u);
 177              		.loc 1 239 0
 178 0036 1948     		ldr	r0, .L8+32
 179 0038 1949     		ldr	r1, .L8+36
 180 003a 0860     		str	r0, [r1]
 240:Generated_Source\PSoC4/cyfitter_cfg.c **** 	CY_SET_REG32((void *)CYREG_PERI_DIV_CMD, 0x8000FF42u);
 181              		.loc 1 240 0
 182 003c 1949     		ldr	r1, .L8+40
 183 003e 1960     		str	r1, [r3]
 241:Generated_Source\PSoC4/cyfitter_cfg.c **** 	CY_SET_REG32((void *)CYREG_PERI_DIV_16_CTL1, 0x00000200u);
 184              		.loc 1 241 0
 185 0040 8020     		movs	r0, #128
 186 0042 8000     		lsls	r0, r0, #2
 187 0044 1849     		ldr	r1, .L8+44
 188 0046 0860     		str	r0, [r1]
 242:Generated_Source\PSoC4/cyfitter_cfg.c **** 	CY_SET_REG32((void *)CYREG_PERI_DIV_CMD, 0x8000FF41u);
 189              		.loc 1 242 0
 190 0048 1849     		ldr	r1, .L8+48
 191 004a 1960     		str	r1, [r3]
 243:Generated_Source\PSoC4/cyfitter_cfg.c **** 
 244:Generated_Source\PSoC4/cyfitter_cfg.c **** 	/* CYDEV_CLK_IMO_CONFIG Starting address: CYDEV_CLK_IMO_CONFIG */
 245:Generated_Source\PSoC4/cyfitter_cfg.c **** 	CY_SET_REG32((void *)(CYREG_CLK_IMO_CONFIG), 0x82000000u);
 192              		.loc 1 245 0
 193 004c 8221     		movs	r1, #130
 194 004e 0906     		lsls	r1, r1, #24
 195 0050 174B     		ldr	r3, .L8+52
 196 0052 1960     		str	r1, [r3]
 246:Generated_Source\PSoC4/cyfitter_cfg.c **** 
 247:Generated_Source\PSoC4/cyfitter_cfg.c **** 	/* CYDEV_CLK_SELECT Starting address: CYDEV_CLK_SELECT */
 248:Generated_Source\PSoC4/cyfitter_cfg.c **** 	CY_SET_REG32((void *)(CYREG_CLK_SELECT), 0x00000000u);
 197              		.loc 1 248 0
 198 0054 174B     		ldr	r3, .L8+56
 199 0056 1A60     		str	r2, [r3]
 249:Generated_Source\PSoC4/cyfitter_cfg.c **** 
 250:Generated_Source\PSoC4/cyfitter_cfg.c **** 	/* CYDEV_PERI_PCLK_CTL19 Starting address: CYDEV_PERI_PCLK_CTL19 */
 251:Generated_Source\PSoC4/cyfitter_cfg.c **** 	CY_SET_REG32((void *)(CYREG_PERI_PCLK_CTL19), 0x00000042u);
ARM GAS  C:\Users\HENRYA~1\AppData\Local\Temp\cc9Q4k6t.s 			page 9


 200              		.loc 1 251 0
 201 0058 4232     		adds	r2, r2, #66
 202 005a 174B     		ldr	r3, .L8+60
 203 005c 1A60     		str	r2, [r3]
 252:Generated_Source\PSoC4/cyfitter_cfg.c **** 
 253:Generated_Source\PSoC4/cyfitter_cfg.c **** 	/* CYDEV_PERI_PCLK_CTL10 Starting address: CYDEV_PERI_PCLK_CTL10 */
 254:Generated_Source\PSoC4/cyfitter_cfg.c **** 	CY_SET_REG32((void *)(CYREG_PERI_PCLK_CTL10), 0x00000041u);
 204              		.loc 1 254 0
 205 005e 013A     		subs	r2, r2, #1
 206 0060 164B     		ldr	r3, .L8+64
 207 0062 1A60     		str	r2, [r3]
 255:Generated_Source\PSoC4/cyfitter_cfg.c **** 
 256:Generated_Source\PSoC4/cyfitter_cfg.c **** 	(void)CyIntSetVector(7u, &CySysWdtIsr);
 208              		.loc 1 256 0
 209 0064 1649     		ldr	r1, .L8+68
 210 0066 FA38     		subs	r0, r0, #250
 211 0068 FF38     		subs	r0, r0, #255
 212 006a FFF7FEFF 		bl	CyIntSetVector
 213              	.LVL19:
 257:Generated_Source\PSoC4/cyfitter_cfg.c **** 	CyIntEnable(7u);
 214              		.loc 1 257 0
 215 006e 0720     		movs	r0, #7
 216 0070 FFF7FEFF 		bl	CyIntEnable
 217              	.LVL20:
 258:Generated_Source\PSoC4/cyfitter_cfg.c **** 	CY_SET_REG32((void *)(CYREG_WDT_CONFIG), 0x40000000u);
 218              		.loc 1 258 0
 219 0074 2E60     		str	r6, [r5]
 259:Generated_Source\PSoC4/cyfitter_cfg.c **** 	/* Set Flash Cycles based on newly configured 24.00MHz HFCLK. */
 260:Generated_Source\PSoC4/cyfitter_cfg.c **** 	CY_SET_REG32((void CYXDATA *)(CYREG_CPUSS_FLASH_CTL), (0x0011u));
 220              		.loc 1 260 0
 221 0076 1123     		movs	r3, #17
 222 0078 2360     		str	r3, [r4]
 261:Generated_Source\PSoC4/cyfitter_cfg.c **** }
 223              		.loc 1 261 0
 224              		@ sp needed
 225 007a 70BD     		pop	{r4, r5, r6, pc}
 226              	.L9:
 227              		.align	2
 228              	.L8:
 229 007c 30001040 		.word	1074790448
 230 0080 001BB700 		.word	12000000
 231 0084 06000080 		.word	-2147483642
 232 0088 04010B40 		.word	1074462980
 233 008c 0C020B40 		.word	1074463244
 234 0090 00030140 		.word	1073808128
 235 0094 00000140 		.word	1073807360
 236 0098 40FF0080 		.word	-2147418304
 237 009c 00BF5D00 		.word	6143744
 238 00a0 08030140 		.word	1073808136
 239 00a4 42FF0080 		.word	-2147418302
 240 00a8 04030140 		.word	1073808132
 241 00ac 41FF0080 		.word	-2147418303
 242 00b0 08010B40 		.word	1074462984
 243 00b4 00010B40 		.word	1074462976
 244 00b8 4C010140 		.word	1073807692
 245 00bc 28010140 		.word	1073807656
 246 00c0 00000000 		.word	CySysWdtIsr
ARM GAS  C:\Users\HENRYA~1\AppData\Local\Temp\cc9Q4k6t.s 			page 10


 247              		.cfi_endproc
 248              	.LFE5:
 249              		.size	ClockSetup, .-ClockSetup
 250              		.section	.text.SetAnalogRoutingPumps,"ax",%progbits
 251              		.align	2
 252              		.global	SetAnalogRoutingPumps
 253              		.code	16
 254              		.thumb_func
 255              		.type	SetAnalogRoutingPumps, %function
 256              	SetAnalogRoutingPumps:
 257              	.LFB7:
 262:Generated_Source\PSoC4/cyfitter_cfg.c **** 
 263:Generated_Source\PSoC4/cyfitter_cfg.c **** 
 264:Generated_Source\PSoC4/cyfitter_cfg.c **** /* Analog API Functions */
 265:Generated_Source\PSoC4/cyfitter_cfg.c **** 
 266:Generated_Source\PSoC4/cyfitter_cfg.c **** 
 267:Generated_Source\PSoC4/cyfitter_cfg.c **** /*******************************************************************************
 268:Generated_Source\PSoC4/cyfitter_cfg.c **** * Function Name: AnalogSetDefault
 269:Generated_Source\PSoC4/cyfitter_cfg.c **** ********************************************************************************
 270:Generated_Source\PSoC4/cyfitter_cfg.c **** *
 271:Generated_Source\PSoC4/cyfitter_cfg.c **** * Summary:
 272:Generated_Source\PSoC4/cyfitter_cfg.c **** *  Sets up the analog portions of the chip to default values based on chip
 273:Generated_Source\PSoC4/cyfitter_cfg.c **** *  configuration options from the project.
 274:Generated_Source\PSoC4/cyfitter_cfg.c **** *
 275:Generated_Source\PSoC4/cyfitter_cfg.c **** * Parameters:
 276:Generated_Source\PSoC4/cyfitter_cfg.c **** *  void
 277:Generated_Source\PSoC4/cyfitter_cfg.c **** *
 278:Generated_Source\PSoC4/cyfitter_cfg.c **** * Return:
 279:Generated_Source\PSoC4/cyfitter_cfg.c **** *  void
 280:Generated_Source\PSoC4/cyfitter_cfg.c **** *
 281:Generated_Source\PSoC4/cyfitter_cfg.c **** *******************************************************************************/
 282:Generated_Source\PSoC4/cyfitter_cfg.c **** static void AnalogSetDefault(void);
 283:Generated_Source\PSoC4/cyfitter_cfg.c **** static void AnalogSetDefault(void)
 284:Generated_Source\PSoC4/cyfitter_cfg.c **** {
 285:Generated_Source\PSoC4/cyfitter_cfg.c **** 	CY_SET_XTND_REG32((void CYFAR *)CYREG_CTBM0_DFT_CTRL, 0x00000003u);
 286:Generated_Source\PSoC4/cyfitter_cfg.c **** 	CY_SET_XTND_REG32((void CYFAR *)CYREG_CTBM1_DFT_CTRL, 0x00000003u);
 287:Generated_Source\PSoC4/cyfitter_cfg.c **** 	CY_SET_XTND_REG32((void CYFAR *)CYREG_SAR_CTRL, 0x80000000u);
 288:Generated_Source\PSoC4/cyfitter_cfg.c **** 	CY_SET_XTND_REG32((void CYFAR *)CYREG_SAR_MUX_SWITCH0, 0x00000043u);
 289:Generated_Source\PSoC4/cyfitter_cfg.c **** 	CY_SET_XTND_REG32((void CYFAR *)CYREG_SAR_MUX_SWITCH_HW_CTRL, 0x00000043u);
 290:Generated_Source\PSoC4/cyfitter_cfg.c **** 	CY_SET_XTND_REG32((void CYFAR *)CYREG_PASS_DSAB_DSAB_CTRL, 0x00000000u);
 291:Generated_Source\PSoC4/cyfitter_cfg.c **** 	SetAnalogRoutingPumps(1);
 292:Generated_Source\PSoC4/cyfitter_cfg.c **** }
 293:Generated_Source\PSoC4/cyfitter_cfg.c **** 
 294:Generated_Source\PSoC4/cyfitter_cfg.c **** 
 295:Generated_Source\PSoC4/cyfitter_cfg.c **** /*******************************************************************************
 296:Generated_Source\PSoC4/cyfitter_cfg.c **** * Function Name: SetAnalogRoutingPumps
 297:Generated_Source\PSoC4/cyfitter_cfg.c **** ********************************************************************************
 298:Generated_Source\PSoC4/cyfitter_cfg.c **** *
 299:Generated_Source\PSoC4/cyfitter_cfg.c **** * Summary:
 300:Generated_Source\PSoC4/cyfitter_cfg.c **** * Enables or disables the analog pumps feeding analog routing switches.
 301:Generated_Source\PSoC4/cyfitter_cfg.c **** * Intended to be called at startup, based on the Vdda system configuration;
 302:Generated_Source\PSoC4/cyfitter_cfg.c **** * may be called during operation when the user informs us that the Vdda voltage crossed the pump th
 303:Generated_Source\PSoC4/cyfitter_cfg.c **** *
 304:Generated_Source\PSoC4/cyfitter_cfg.c **** * Parameters:
 305:Generated_Source\PSoC4/cyfitter_cfg.c **** *  enabled - 1 to enable the pumps, 0 to disable the pumps
 306:Generated_Source\PSoC4/cyfitter_cfg.c **** *
 307:Generated_Source\PSoC4/cyfitter_cfg.c **** * Return:
ARM GAS  C:\Users\HENRYA~1\AppData\Local\Temp\cc9Q4k6t.s 			page 11


 308:Generated_Source\PSoC4/cyfitter_cfg.c **** *  void
 309:Generated_Source\PSoC4/cyfitter_cfg.c **** *
 310:Generated_Source\PSoC4/cyfitter_cfg.c **** *******************************************************************************/
 311:Generated_Source\PSoC4/cyfitter_cfg.c **** void SetAnalogRoutingPumps(uint8 enabled)
 312:Generated_Source\PSoC4/cyfitter_cfg.c **** {
 258              		.loc 1 312 0
 259              		.cfi_startproc
 260              		@ args = 0, pretend = 0, frame = 0
 261              		@ frame_needed = 0, uses_anonymous_args = 0
 262              		@ link register save eliminated.
 263              	.LVL21:
 313:Generated_Source\PSoC4/cyfitter_cfg.c **** 	uint32 regValue = CY_GET_XTND_REG32((void *)(CYREG_SAR_PUMP_CTRL));
 264              		.loc 1 313 0
 265 0000 064B     		ldr	r3, .L13
 266 0002 1B68     		ldr	r3, [r3]
 267              	.LVL22:
 314:Generated_Source\PSoC4/cyfitter_cfg.c **** 	if (enabled != 0u)
 268              		.loc 1 314 0
 269 0004 0028     		cmp	r0, #0
 270 0006 03D0     		beq	.L11
 315:Generated_Source\PSoC4/cyfitter_cfg.c **** 	{
 316:Generated_Source\PSoC4/cyfitter_cfg.c **** 		regValue |= 0x80000000u;
 271              		.loc 1 316 0
 272 0008 8022     		movs	r2, #128
 273 000a 1206     		lsls	r2, r2, #24
 274 000c 1343     		orrs	r3, r2
 275              	.LVL23:
 276 000e 01E0     		b	.L12
 277              	.L11:
 317:Generated_Source\PSoC4/cyfitter_cfg.c **** 	}
 318:Generated_Source\PSoC4/cyfitter_cfg.c **** 	else
 319:Generated_Source\PSoC4/cyfitter_cfg.c **** 	{
 320:Generated_Source\PSoC4/cyfitter_cfg.c **** 		regValue &= ~0x80000000u;
 278              		.loc 1 320 0
 279 0010 5B00     		lsls	r3, r3, #1
 280              	.LVL24:
 281 0012 5B08     		lsrs	r3, r3, #1
 282              	.LVL25:
 283              	.L12:
 321:Generated_Source\PSoC4/cyfitter_cfg.c **** 	}
 322:Generated_Source\PSoC4/cyfitter_cfg.c **** 	CY_SET_XTND_REG32((void *)(CYREG_SAR_PUMP_CTRL), regValue);
 284              		.loc 1 322 0
 285 0014 014A     		ldr	r2, .L13
 286 0016 1360     		str	r3, [r2]
 323:Generated_Source\PSoC4/cyfitter_cfg.c **** }
 287              		.loc 1 323 0
 288              		@ sp needed
 289 0018 7047     		bx	lr
 290              	.L14:
 291 001a C046     		.align	2
 292              	.L13:
 293 001c 80033A40 		.word	1077543808
 294              		.cfi_endproc
 295              	.LFE7:
 296              		.size	SetAnalogRoutingPumps, .-SetAnalogRoutingPumps
 297              		.section	.text.AnalogSetDefault,"ax",%progbits
 298              		.align	2
ARM GAS  C:\Users\HENRYA~1\AppData\Local\Temp\cc9Q4k6t.s 			page 12


 299              		.code	16
 300              		.thumb_func
 301              		.type	AnalogSetDefault, %function
 302              	AnalogSetDefault:
 303              	.LFB6:
 284:Generated_Source\PSoC4/cyfitter_cfg.c **** 	CY_SET_XTND_REG32((void CYFAR *)CYREG_CTBM0_DFT_CTRL, 0x00000003u);
 304              		.loc 1 284 0
 305              		.cfi_startproc
 306              		@ args = 0, pretend = 0, frame = 0
 307              		@ frame_needed = 0, uses_anonymous_args = 0
 308 0000 10B5     		push	{r4, lr}
 309              		.cfi_def_cfa_offset 8
 310              		.cfi_offset 4, -8
 311              		.cfi_offset 14, -4
 285:Generated_Source\PSoC4/cyfitter_cfg.c **** 	CY_SET_XTND_REG32((void CYFAR *)CYREG_CTBM1_DFT_CTRL, 0x00000003u);
 312              		.loc 1 285 0
 313 0002 0323     		movs	r3, #3
 314 0004 094A     		ldr	r2, .L16
 315 0006 1360     		str	r3, [r2]
 286:Generated_Source\PSoC4/cyfitter_cfg.c **** 	CY_SET_XTND_REG32((void CYFAR *)CYREG_SAR_CTRL, 0x80000000u);
 316              		.loc 1 286 0
 317 0008 094A     		ldr	r2, .L16+4
 318 000a 1360     		str	r3, [r2]
 287:Generated_Source\PSoC4/cyfitter_cfg.c **** 	CY_SET_XTND_REG32((void CYFAR *)CYREG_SAR_MUX_SWITCH0, 0x00000043u);
 319              		.loc 1 287 0
 320 000c 8022     		movs	r2, #128
 321 000e 1206     		lsls	r2, r2, #24
 322 0010 084B     		ldr	r3, .L16+8
 323 0012 1A60     		str	r2, [r3]
 288:Generated_Source\PSoC4/cyfitter_cfg.c **** 	CY_SET_XTND_REG32((void CYFAR *)CYREG_SAR_MUX_SWITCH_HW_CTRL, 0x00000043u);
 324              		.loc 1 288 0
 325 0014 4323     		movs	r3, #67
 326 0016 084A     		ldr	r2, .L16+12
 327 0018 1360     		str	r3, [r2]
 289:Generated_Source\PSoC4/cyfitter_cfg.c **** 	CY_SET_XTND_REG32((void CYFAR *)CYREG_PASS_DSAB_DSAB_CTRL, 0x00000000u);
 328              		.loc 1 289 0
 329 001a 084A     		ldr	r2, .L16+16
 330 001c 1360     		str	r3, [r2]
 290:Generated_Source\PSoC4/cyfitter_cfg.c **** 	SetAnalogRoutingPumps(1);
 331              		.loc 1 290 0
 332 001e 0022     		movs	r2, #0
 333 0020 074B     		ldr	r3, .L16+20
 334 0022 1A60     		str	r2, [r3]
 291:Generated_Source\PSoC4/cyfitter_cfg.c **** }
 335              		.loc 1 291 0
 336 0024 0120     		movs	r0, #1
 337 0026 FFF7FEFF 		bl	SetAnalogRoutingPumps
 338              	.LVL26:
 292:Generated_Source\PSoC4/cyfitter_cfg.c **** 
 339              		.loc 1 292 0
 340              		@ sp needed
 341 002a 10BD     		pop	{r4, pc}
 342              	.L17:
 343              		.align	2
 344              	.L16:
 345 002c 30003040 		.word	1076887600
 346 0030 30003140 		.word	1076953136
ARM GAS  C:\Users\HENRYA~1\AppData\Local\Temp\cc9Q4k6t.s 			page 13


 347 0034 00003A40 		.word	1077542912
 348 0038 00033A40 		.word	1077543680
 349 003c 40033A40 		.word	1077543744
 350 0040 000E3F40 		.word	1077874176
 351              		.cfi_endproc
 352              	.LFE6:
 353              		.size	AnalogSetDefault, .-AnalogSetDefault
 354              		.section	.psocinit
 355              		.align	2
 356              		.global	cyfitter_cfg
 357              		.code	16
 358              		.thumb_func
 359              		.type	cyfitter_cfg, %function
 360              	cyfitter_cfg:
 361              	.LFB8:
 324:Generated_Source\PSoC4/cyfitter_cfg.c **** 
 325:Generated_Source\PSoC4/cyfitter_cfg.c **** 
 326:Generated_Source\PSoC4/cyfitter_cfg.c **** 
 327:Generated_Source\PSoC4/cyfitter_cfg.c **** 
 328:Generated_Source\PSoC4/cyfitter_cfg.c **** /*******************************************************************************
 329:Generated_Source\PSoC4/cyfitter_cfg.c **** * Function Name: cyfitter_cfg
 330:Generated_Source\PSoC4/cyfitter_cfg.c **** ********************************************************************************
 331:Generated_Source\PSoC4/cyfitter_cfg.c **** * Summary:
 332:Generated_Source\PSoC4/cyfitter_cfg.c **** *  This function is called by the start-up code for the selected device. It
 333:Generated_Source\PSoC4/cyfitter_cfg.c **** *  performs all of the necessary device configuration based on the design
 334:Generated_Source\PSoC4/cyfitter_cfg.c **** *  settings.  This includes settings from the Design Wide Resources (DWR) such
 335:Generated_Source\PSoC4/cyfitter_cfg.c **** *  as Clocks and Pins as well as any component configuration that is necessary.
 336:Generated_Source\PSoC4/cyfitter_cfg.c **** *
 337:Generated_Source\PSoC4/cyfitter_cfg.c **** * Parameters:
 338:Generated_Source\PSoC4/cyfitter_cfg.c **** *   void
 339:Generated_Source\PSoC4/cyfitter_cfg.c **** *
 340:Generated_Source\PSoC4/cyfitter_cfg.c **** * Return:
 341:Generated_Source\PSoC4/cyfitter_cfg.c **** *   void
 342:Generated_Source\PSoC4/cyfitter_cfg.c **** *
 343:Generated_Source\PSoC4/cyfitter_cfg.c **** *******************************************************************************/
 344:Generated_Source\PSoC4/cyfitter_cfg.c **** CY_CFG_SECTION
 345:Generated_Source\PSoC4/cyfitter_cfg.c **** void cyfitter_cfg(void)
 346:Generated_Source\PSoC4/cyfitter_cfg.c **** {
 362              		.loc 1 346 0
 363              		.cfi_startproc
 364              		@ args = 0, pretend = 0, frame = 0
 365              		@ frame_needed = 0, uses_anonymous_args = 0
 366 00c4 10B5     		push	{r4, lr}
 367              		.cfi_def_cfa_offset 8
 368              		.cfi_offset 4, -8
 369              		.cfi_offset 14, -4
 347:Generated_Source\PSoC4/cyfitter_cfg.c **** 	/* Disable interrupts by default. Let user enable if/when they want. */
 348:Generated_Source\PSoC4/cyfitter_cfg.c **** 	CyGlobalIntDisable;
 370              		.loc 1 348 0
 371              		.syntax divided
 372              	@ 348 "Generated_Source\PSoC4\cyfitter_cfg.c" 1
 373 00c6 72B6     		CPSID   i
 374              	@ 0 "" 2
 349:Generated_Source\PSoC4/cyfitter_cfg.c **** 
 350:Generated_Source\PSoC4/cyfitter_cfg.c **** 	/* Enable the clock in the interrupt controller for the routed interrupts */
 351:Generated_Source\PSoC4/cyfitter_cfg.c **** 	CY_SET_REG8((void *)CYREG_UDB_UDBIF_INT_CLK_CTL, 0x01u);
 375              		.loc 1 351 0
ARM GAS  C:\Users\HENRYA~1\AppData\Local\Temp\cc9Q4k6t.s 			page 14


 376              		.thumb
 377              		.syntax unified
 378 00c8 0122     		movs	r2, #1
 379 00ca 2A4B     		ldr	r3, .L21
 380 00cc 1A70     		strb	r2, [r3]
 381              	.LVL27:
 382              	.LBB3:
 352:Generated_Source\PSoC4/cyfitter_cfg.c **** 	{
 353:Generated_Source\PSoC4/cyfitter_cfg.c **** 		static const uint32 CYCODE cy_cfg_addr_table[] = {
 354:Generated_Source\PSoC4/cyfitter_cfg.c **** 			0x400F0001u, /* Base address: 0x400F0000 Count: 1 */
 355:Generated_Source\PSoC4/cyfitter_cfg.c **** 			0x400F301Du, /* Base address: 0x400F3000 Count: 29 */
 356:Generated_Source\PSoC4/cyfitter_cfg.c **** 			0x400F3112u, /* Base address: 0x400F3100 Count: 18 */
 357:Generated_Source\PSoC4/cyfitter_cfg.c **** 			0x400F4004u, /* Base address: 0x400F4000 Count: 4 */
 358:Generated_Source\PSoC4/cyfitter_cfg.c **** 			0x400F6002u, /* Base address: 0x400F6000 Count: 2 */
 359:Generated_Source\PSoC4/cyfitter_cfg.c **** 		};
 360:Generated_Source\PSoC4/cyfitter_cfg.c **** 
 361:Generated_Source\PSoC4/cyfitter_cfg.c **** 		static const cy_cfg_addrvalue_t CYCODE cy_cfg_data_table[] = {
 362:Generated_Source\PSoC4/cyfitter_cfg.c **** 			{0x80u, 0x0Du},
 363:Generated_Source\PSoC4/cyfitter_cfg.c **** 			{0x12u, 0x01u},
 364:Generated_Source\PSoC4/cyfitter_cfg.c **** 			{0x2Eu, 0x01u},
 365:Generated_Source\PSoC4/cyfitter_cfg.c **** 			{0x32u, 0x01u},
 366:Generated_Source\PSoC4/cyfitter_cfg.c **** 			{0x36u, 0x01u},
 367:Generated_Source\PSoC4/cyfitter_cfg.c **** 			{0x3Eu, 0x40u},
 368:Generated_Source\PSoC4/cyfitter_cfg.c **** 			{0x40u, 0x45u},
 369:Generated_Source\PSoC4/cyfitter_cfg.c **** 			{0x45u, 0xECu},
 370:Generated_Source\PSoC4/cyfitter_cfg.c **** 			{0x47u, 0x20u},
 371:Generated_Source\PSoC4/cyfitter_cfg.c **** 			{0x48u, 0x23u},
 372:Generated_Source\PSoC4/cyfitter_cfg.c **** 			{0x49u, 0xFFu},
 373:Generated_Source\PSoC4/cyfitter_cfg.c **** 			{0x4Au, 0xFFu},
 374:Generated_Source\PSoC4/cyfitter_cfg.c **** 			{0x4Bu, 0xFFu},
 375:Generated_Source\PSoC4/cyfitter_cfg.c **** 			{0x4Fu, 0x01u},
 376:Generated_Source\PSoC4/cyfitter_cfg.c **** 			{0x50u, 0x18u},
 377:Generated_Source\PSoC4/cyfitter_cfg.c **** 			{0x52u, 0x80u},
 378:Generated_Source\PSoC4/cyfitter_cfg.c **** 			{0x54u, 0x01u},
 379:Generated_Source\PSoC4/cyfitter_cfg.c **** 			{0x58u, 0x04u},
 380:Generated_Source\PSoC4/cyfitter_cfg.c **** 			{0x5Au, 0x04u},
 381:Generated_Source\PSoC4/cyfitter_cfg.c **** 			{0x5Bu, 0x04u},
 382:Generated_Source\PSoC4/cyfitter_cfg.c **** 			{0x5Fu, 0x01u},
 383:Generated_Source\PSoC4/cyfitter_cfg.c **** 			{0x60u, 0x40u},
 384:Generated_Source\PSoC4/cyfitter_cfg.c **** 			{0x62u, 0x40u},
 385:Generated_Source\PSoC4/cyfitter_cfg.c **** 			{0x64u, 0x40u},
 386:Generated_Source\PSoC4/cyfitter_cfg.c **** 			{0x65u, 0x40u},
 387:Generated_Source\PSoC4/cyfitter_cfg.c **** 			{0x66u, 0x80u},
 388:Generated_Source\PSoC4/cyfitter_cfg.c **** 			{0x68u, 0x80u},
 389:Generated_Source\PSoC4/cyfitter_cfg.c **** 			{0x6Au, 0x80u},
 390:Generated_Source\PSoC4/cyfitter_cfg.c **** 			{0x6Cu, 0x80u},
 391:Generated_Source\PSoC4/cyfitter_cfg.c **** 			{0x6Eu, 0x80u},
 392:Generated_Source\PSoC4/cyfitter_cfg.c **** 			{0x09u, 0x02u},
 393:Generated_Source\PSoC4/cyfitter_cfg.c **** 			{0x13u, 0x40u},
 394:Generated_Source\PSoC4/cyfitter_cfg.c **** 			{0x19u, 0x40u},
 395:Generated_Source\PSoC4/cyfitter_cfg.c **** 			{0x1Au, 0x10u},
 396:Generated_Source\PSoC4/cyfitter_cfg.c **** 			{0x42u, 0x40u},
 397:Generated_Source\PSoC4/cyfitter_cfg.c **** 			{0x48u, 0x02u},
 398:Generated_Source\PSoC4/cyfitter_cfg.c **** 			{0x49u, 0x05u},
 399:Generated_Source\PSoC4/cyfitter_cfg.c **** 			{0x50u, 0x02u},
 400:Generated_Source\PSoC4/cyfitter_cfg.c **** 			{0x51u, 0x02u},
 401:Generated_Source\PSoC4/cyfitter_cfg.c **** 			{0x59u, 0x45u},
ARM GAS  C:\Users\HENRYA~1\AppData\Local\Temp\cc9Q4k6t.s 			page 15


 402:Generated_Source\PSoC4/cyfitter_cfg.c **** 			{0x72u, 0x40u},
 403:Generated_Source\PSoC4/cyfitter_cfg.c **** 			{0x73u, 0x40u},
 404:Generated_Source\PSoC4/cyfitter_cfg.c **** 			{0x82u, 0x10u},
 405:Generated_Source\PSoC4/cyfitter_cfg.c **** 			{0xC2u, 0x08u},
 406:Generated_Source\PSoC4/cyfitter_cfg.c **** 			{0xC4u, 0x01u},
 407:Generated_Source\PSoC4/cyfitter_cfg.c **** 			{0xD0u, 0x01u},
 408:Generated_Source\PSoC4/cyfitter_cfg.c **** 			{0xD2u, 0x08u},
 409:Generated_Source\PSoC4/cyfitter_cfg.c **** 			{0xD6u, 0x0Bu},
 410:Generated_Source\PSoC4/cyfitter_cfg.c **** 			{0x6Bu, 0x20u},
 411:Generated_Source\PSoC4/cyfitter_cfg.c **** 			{0x83u, 0x20u},
 412:Generated_Source\PSoC4/cyfitter_cfg.c **** 			{0xDAu, 0x40u},
 413:Generated_Source\PSoC4/cyfitter_cfg.c **** 			{0xE2u, 0x80u},
 414:Generated_Source\PSoC4/cyfitter_cfg.c **** 			{0x01u, 0x01u},
 415:Generated_Source\PSoC4/cyfitter_cfg.c **** 			{0x10u, 0x01u},
 416:Generated_Source\PSoC4/cyfitter_cfg.c **** 		};
 417:Generated_Source\PSoC4/cyfitter_cfg.c **** 
 418:Generated_Source\PSoC4/cyfitter_cfg.c **** 
 419:Generated_Source\PSoC4/cyfitter_cfg.c **** 
 420:Generated_Source\PSoC4/cyfitter_cfg.c **** 		CYPACKED typedef struct {
 421:Generated_Source\PSoC4/cyfitter_cfg.c **** 			void CYFAR *address;
 422:Generated_Source\PSoC4/cyfitter_cfg.c **** 			uint16 size;
 423:Generated_Source\PSoC4/cyfitter_cfg.c **** 		} CYPACKED_ATTR cfg_memset_t;
 424:Generated_Source\PSoC4/cyfitter_cfg.c **** 
 425:Generated_Source\PSoC4/cyfitter_cfg.c **** 		static const cfg_memset_t CYCODE cfg_memset_list[] = {
 426:Generated_Source\PSoC4/cyfitter_cfg.c **** 			/* address, size */
 427:Generated_Source\PSoC4/cyfitter_cfg.c **** 			{(void CYFAR *)(CYDEV_UDB_P0_U0_BASE), 1024u},
 428:Generated_Source\PSoC4/cyfitter_cfg.c **** 			{(void CYFAR *)(CYDEV_UDB_DSI0_BASE), 1024u},
 429:Generated_Source\PSoC4/cyfitter_cfg.c **** 		};
 430:Generated_Source\PSoC4/cyfitter_cfg.c **** 
 431:Generated_Source\PSoC4/cyfitter_cfg.c **** 		uint8 CYDATA i;
 432:Generated_Source\PSoC4/cyfitter_cfg.c **** 
 433:Generated_Source\PSoC4/cyfitter_cfg.c **** 		/* Zero out critical memory blocks before beginning configuration */
 434:Generated_Source\PSoC4/cyfitter_cfg.c **** 		for (i = 0u; i < (sizeof(cfg_memset_list)/sizeof(cfg_memset_list[0])); i++)
 383              		.loc 1 434 0
 384 00ce 0024     		movs	r4, #0
 385 00d0 0FE0     		b	.L19
 386              	.LVL28:
 387              	.L20:
 388              	.LBB4:
 435:Generated_Source\PSoC4/cyfitter_cfg.c **** 		{
 436:Generated_Source\PSoC4/cyfitter_cfg.c **** 			const cfg_memset_t CYCODE * CYDATA ms = &cfg_memset_list[i];
 437:Generated_Source\PSoC4/cyfitter_cfg.c **** 			CYMEMZERO(ms->address, (size_t)(uint32)(ms->size));
 389              		.loc 1 437 0 discriminator 3
 390 00d2 2948     		ldr	r0, .L21+4
 391 00d4 6200     		lsls	r2, r4, #1
 392 00d6 1319     		adds	r3, r2, r4
 393 00d8 5900     		lsls	r1, r3, #1
 394 00da 0B00     		movs	r3, r1
 395 00dc 4118     		adds	r1, r0, r1
 396 00de 8988     		ldrh	r1, [r1, #4]
 397 00e0 1A5A     		ldrh	r2, [r3, r0]
 398 00e2 C318     		adds	r3, r0, r3
 399 00e4 5888     		ldrh	r0, [r3, #2]
 400 00e6 0004     		lsls	r0, r0, #16
 401 00e8 1043     		orrs	r0, r2
 402 00ea FFF7FEFF 		bl	CYMEMZERO
 403              	.LVL29:
ARM GAS  C:\Users\HENRYA~1\AppData\Local\Temp\cc9Q4k6t.s 			page 16


 404              	.LBE4:
 434:Generated_Source\PSoC4/cyfitter_cfg.c **** 		{
 405              		.loc 1 434 0 discriminator 3
 406 00ee 0134     		adds	r4, r4, #1
 407              	.LVL30:
 408 00f0 E4B2     		uxtb	r4, r4
 409              	.LVL31:
 410              	.L19:
 434:Generated_Source\PSoC4/cyfitter_cfg.c **** 		{
 411              		.loc 1 434 0 is_stmt 0 discriminator 1
 412 00f2 012C     		cmp	r4, #1
 413 00f4 EDD9     		bls	.L20
 438:Generated_Source\PSoC4/cyfitter_cfg.c **** 		}
 439:Generated_Source\PSoC4/cyfitter_cfg.c **** 
 440:Generated_Source\PSoC4/cyfitter_cfg.c **** 		cfg_write_bytes32(cy_cfg_addr_table, cy_cfg_data_table);
 414              		.loc 1 440 0 is_stmt 1
 415 00f6 2048     		ldr	r0, .L21+4
 416 00f8 0100     		movs	r1, r0
 417 00fa 0C31     		adds	r1, r1, #12
 418 00fc 7830     		adds	r0, r0, #120
 419 00fe FFF7FEFF 		bl	cfg_write_bytes32
 420              	.LVL32:
 441:Generated_Source\PSoC4/cyfitter_cfg.c **** 
 442:Generated_Source\PSoC4/cyfitter_cfg.c **** 		/* HSIOM Starting address: CYDEV_HSIOM_BASE */
 443:Generated_Source\PSoC4/cyfitter_cfg.c **** 		CY_SET_REG32((void *)(CYREG_HSIOM_PORT_SEL3), 0x0000EE00u);
 421              		.loc 1 443 0
 422 0102 EE22     		movs	r2, #238
 423 0104 1202     		lsls	r2, r2, #8
 424 0106 1D4B     		ldr	r3, .L21+8
 425 0108 1A60     		str	r2, [r3]
 444:Generated_Source\PSoC4/cyfitter_cfg.c **** 		CY_SET_REG32((void *)(CYREG_HSIOM_PORT_SEL4), 0x000000AAu);
 426              		.loc 1 444 0
 427 010a AA22     		movs	r2, #170
 428 010c 1C4B     		ldr	r3, .L21+12
 429 010e 1A60     		str	r2, [r3]
 445:Generated_Source\PSoC4/cyfitter_cfg.c **** 
 446:Generated_Source\PSoC4/cyfitter_cfg.c **** 		/* UDB_PA_2 Starting address: CYDEV_UDB_PA2_BASE */
 447:Generated_Source\PSoC4/cyfitter_cfg.c **** 		CY_SET_REG32((void *)(CYDEV_UDB_PA2_BASE), 0x00990000u);
 430              		.loc 1 447 0
 431 0110 9923     		movs	r3, #153
 432 0112 1B04     		lsls	r3, r3, #16
 433 0114 1B4A     		ldr	r2, .L21+16
 434 0116 1360     		str	r3, [r2]
 448:Generated_Source\PSoC4/cyfitter_cfg.c **** 
 449:Generated_Source\PSoC4/cyfitter_cfg.c **** 		/* UDB_PA_3 Starting address: CYDEV_UDB_PA3_BASE */
 450:Generated_Source\PSoC4/cyfitter_cfg.c **** 		CY_SET_REG32((void *)(CYDEV_UDB_PA3_BASE), 0x00990000u);
 435              		.loc 1 450 0
 436 0118 1B4A     		ldr	r2, .L21+20
 437 011a 1360     		str	r3, [r2]
 451:Generated_Source\PSoC4/cyfitter_cfg.c **** 
 452:Generated_Source\PSoC4/cyfitter_cfg.c **** 		/* INT_SELECT Starting address: CYDEV_CPUSS_INT_SEL */
 453:Generated_Source\PSoC4/cyfitter_cfg.c **** 		CY_SET_REG32((void *)(CYREG_CPUSS_INT_SEL), 0x00000001u);
 438              		.loc 1 453 0
 439 011c 0123     		movs	r3, #1
 440 011e 1B4A     		ldr	r2, .L21+24
 441 0120 1360     		str	r3, [r2]
 454:Generated_Source\PSoC4/cyfitter_cfg.c **** 
ARM GAS  C:\Users\HENRYA~1\AppData\Local\Temp\cc9Q4k6t.s 			page 17


 455:Generated_Source\PSoC4/cyfitter_cfg.c **** 		/* INT_CONFIG Starting address: CYDEV_UDB_INT_CFG */
 456:Generated_Source\PSoC4/cyfitter_cfg.c **** 		CY_SET_REG32((void *)(CYREG_UDB_INT_CFG), 0x00000001u);
 442              		.loc 1 456 0
 443 0122 1B4A     		ldr	r2, .L21+28
 444 0124 1360     		str	r3, [r2]
 457:Generated_Source\PSoC4/cyfitter_cfg.c **** 
 458:Generated_Source\PSoC4/cyfitter_cfg.c **** 		/* Enable UDB array and digital routing */
 459:Generated_Source\PSoC4/cyfitter_cfg.c **** 		CY_SET_XTND_REG8((void *)CYREG_UDB_UDBIF_WAIT_CFG, (uint8)((CY_GET_XTND_REG8((void *)CYREG_UDB_UD
 445              		.loc 1 459 0
 446 0126 1B49     		ldr	r1, .L21+32
 447 0128 0B78     		ldrb	r3, [r1]
 448 012a 3C22     		movs	r2, #60
 449 012c 9343     		bics	r3, r2
 450 012e 1422     		movs	r2, #20
 451 0130 1343     		orrs	r3, r2
 452 0132 DBB2     		uxtb	r3, r3
 453 0134 0B70     		strb	r3, [r1]
 460:Generated_Source\PSoC4/cyfitter_cfg.c **** 		CY_SET_XTND_REG8((void *)CYREG_UDB_UDBIF_BANK_CTL, (uint8)(CY_GET_XTND_REG8((void *)CYREG_UDB_UDB
 454              		.loc 1 460 0
 455 0136 184A     		ldr	r2, .L21+36
 456 0138 1178     		ldrb	r1, [r2]
 457 013a 1623     		movs	r3, #22
 458 013c 0B43     		orrs	r3, r1
 459 013e DBB2     		uxtb	r3, r3
 460 0140 1370     		strb	r3, [r2]
 461              	.LBE3:
 461:Generated_Source\PSoC4/cyfitter_cfg.c **** 	}
 462:Generated_Source\PSoC4/cyfitter_cfg.c **** 
 463:Generated_Source\PSoC4/cyfitter_cfg.c **** 	/* Perform second pass device configuration. These items must be configured in specific order afte
 464:Generated_Source\PSoC4/cyfitter_cfg.c **** 	/* IOPINS0_2 Starting address: CYDEV_GPIO_PRT2_BASE */
 465:Generated_Source\PSoC4/cyfitter_cfg.c **** 	CY_SET_REG32((void *)(CYDEV_GPIO_PRT2_BASE), 0x00000043u);
 462              		.loc 1 465 0
 463 0142 4323     		movs	r3, #67
 464 0144 154A     		ldr	r2, .L21+40
 465 0146 1360     		str	r3, [r2]
 466:Generated_Source\PSoC4/cyfitter_cfg.c **** 	CY_SET_REG32((void *)(CYREG_GPIO_PRT2_PC2), 0x00000043u);
 466              		.loc 1 466 0
 467 0148 154A     		ldr	r2, .L21+44
 468 014a 1360     		str	r3, [r2]
 467:Generated_Source\PSoC4/cyfitter_cfg.c **** 
 468:Generated_Source\PSoC4/cyfitter_cfg.c **** 	/* IOPINS0_3 Starting address: CYDEV_GPIO_PRT3_BASE */
 469:Generated_Source\PSoC4/cyfitter_cfg.c **** 	CY_SET_REG32((void *)(CYREG_GPIO_PRT3_PC), 0x00000D80u);
 469              		.loc 1 469 0
 470 014c D822     		movs	r2, #216
 471 014e 1201     		lsls	r2, r2, #4
 472 0150 144B     		ldr	r3, .L21+48
 473 0152 1A60     		str	r2, [r3]
 470:Generated_Source\PSoC4/cyfitter_cfg.c **** 
 471:Generated_Source\PSoC4/cyfitter_cfg.c **** 	/* IOPINS0_4 Starting address: CYDEV_GPIO_PRT4_BASE */
 472:Generated_Source\PSoC4/cyfitter_cfg.c **** 	CY_SET_REG32((void *)(CYDEV_GPIO_PRT4_BASE), 0x00000002u);
 474              		.loc 1 472 0
 475 0154 0222     		movs	r2, #2
 476 0156 144B     		ldr	r3, .L21+52
 477 0158 1A60     		str	r2, [r3]
 473:Generated_Source\PSoC4/cyfitter_cfg.c **** 	CY_SET_REG32((void *)(CYREG_GPIO_PRT4_PC), 0x00000031u);
 478              		.loc 1 473 0
 479 015a 2F32     		adds	r2, r2, #47
ARM GAS  C:\Users\HENRYA~1\AppData\Local\Temp\cc9Q4k6t.s 			page 18


 480 015c 134B     		ldr	r3, .L21+56
 481 015e 1A60     		str	r2, [r3]
 474:Generated_Source\PSoC4/cyfitter_cfg.c **** 
 475:Generated_Source\PSoC4/cyfitter_cfg.c **** 	/* IOPINS0_6 Starting address: CYDEV_GPIO_PRT6_BASE */
 476:Generated_Source\PSoC4/cyfitter_cfg.c **** 	CY_SET_REG32((void *)(CYREG_GPIO_PRT6_PC), 0x00030000u);
 482              		.loc 1 476 0
 483 0160 C022     		movs	r2, #192
 484 0162 9202     		lsls	r2, r2, #10
 485 0164 124B     		ldr	r3, .L21+60
 486 0166 1A60     		str	r2, [r3]
 477:Generated_Source\PSoC4/cyfitter_cfg.c **** 
 478:Generated_Source\PSoC4/cyfitter_cfg.c **** 
 479:Generated_Source\PSoC4/cyfitter_cfg.c **** 	/* Setup clocks based on selections from Clock DWR */
 480:Generated_Source\PSoC4/cyfitter_cfg.c **** 	ClockSetup();
 487              		.loc 1 480 0
 488 0168 FFF74AFF 		bl	ClockSetup
 489              	.LVL33:
 481:Generated_Source\PSoC4/cyfitter_cfg.c **** 
 482:Generated_Source\PSoC4/cyfitter_cfg.c **** 	/* Perform basic analog initialization to defaults */
 483:Generated_Source\PSoC4/cyfitter_cfg.c **** 	AnalogSetDefault();
 490              		.loc 1 483 0
 491 016c FFF7FEFF 		bl	AnalogSetDefault
 492              	.LVL34:
 484:Generated_Source\PSoC4/cyfitter_cfg.c **** 
 485:Generated_Source\PSoC4/cyfitter_cfg.c **** }
 493              		.loc 1 485 0
 494              		@ sp needed
 495              	.LVL35:
 496 0170 10BD     		pop	{r4, pc}
 497              	.L22:
 498 0172 C046     		.align	2
 499              	.L21:
 500 0174 1C700F40 		.word	1074753564
 501 0178 00000000 		.word	.LANCHOR0
 502 017c 00030240 		.word	1073873664
 503 0180 00040240 		.word	1073873920
 504 0184 20500F40 		.word	1074745376
 505 0188 30500F40 		.word	1074745392
 506 018c 20001040 		.word	1074790432
 507 0190 00800F40 		.word	1074757632
 508 0194 01700F40 		.word	1074753537
 509 0198 00700F40 		.word	1074753536
 510 019c 00020440 		.word	1074004480
 511 01a0 18020440 		.word	1074004504
 512 01a4 08030440 		.word	1074004744
 513 01a8 00040440 		.word	1074004992
 514 01ac 08040440 		.word	1074005000
 515 01b0 08060440 		.word	1074005512
 516              		.cfi_endproc
 517              	.LFE8:
 518              		.size	cyfitter_cfg, .-cyfitter_cfg
 519              		.section	.rodata
 520              		.align	2
 521              		.set	.LANCHOR0,. + 0
 522              		.type	cfg_memset_list.4913, %object
 523              		.size	cfg_memset_list.4913, 12
 524              	cfg_memset_list.4913:
ARM GAS  C:\Users\HENRYA~1\AppData\Local\Temp\cc9Q4k6t.s 			page 19


 525 0000 00300F40 		.word	1074737152
 526 0004 0004     		.short	1024
 527 0006 00400F40 		.4byte	1074741248
 528 000a 0004     		.short	1024
 529              		.type	cy_cfg_data_table.4908, %object
 530              		.size	cy_cfg_data_table.4908, 108
 531              	cy_cfg_data_table.4908:
 532 000c 80       		.byte	-128
 533 000d 0D       		.byte	13
 534 000e 12       		.byte	18
 535 000f 01       		.byte	1
 536 0010 2E       		.byte	46
 537 0011 01       		.byte	1
 538 0012 32       		.byte	50
 539 0013 01       		.byte	1
 540 0014 36       		.byte	54
 541 0015 01       		.byte	1
 542 0016 3E       		.byte	62
 543 0017 40       		.byte	64
 544 0018 40       		.byte	64
 545 0019 45       		.byte	69
 546 001a 45       		.byte	69
 547 001b EC       		.byte	-20
 548 001c 47       		.byte	71
 549 001d 20       		.byte	32
 550 001e 48       		.byte	72
 551 001f 23       		.byte	35
 552 0020 49       		.byte	73
 553 0021 FF       		.byte	-1
 554 0022 4A       		.byte	74
 555 0023 FF       		.byte	-1
 556 0024 4B       		.byte	75
 557 0025 FF       		.byte	-1
 558 0026 4F       		.byte	79
 559 0027 01       		.byte	1
 560 0028 50       		.byte	80
 561 0029 18       		.byte	24
 562 002a 52       		.byte	82
 563 002b 80       		.byte	-128
 564 002c 54       		.byte	84
 565 002d 01       		.byte	1
 566 002e 58       		.byte	88
 567 002f 04       		.byte	4
 568 0030 5A       		.byte	90
 569 0031 04       		.byte	4
 570 0032 5B       		.byte	91
 571 0033 04       		.byte	4
 572 0034 5F       		.byte	95
 573 0035 01       		.byte	1
 574 0036 60       		.byte	96
 575 0037 40       		.byte	64
 576 0038 62       		.byte	98
 577 0039 40       		.byte	64
 578 003a 64       		.byte	100
 579 003b 40       		.byte	64
 580 003c 65       		.byte	101
 581 003d 40       		.byte	64
ARM GAS  C:\Users\HENRYA~1\AppData\Local\Temp\cc9Q4k6t.s 			page 20


 582 003e 66       		.byte	102
 583 003f 80       		.byte	-128
 584 0040 68       		.byte	104
 585 0041 80       		.byte	-128
 586 0042 6A       		.byte	106
 587 0043 80       		.byte	-128
 588 0044 6C       		.byte	108
 589 0045 80       		.byte	-128
 590 0046 6E       		.byte	110
 591 0047 80       		.byte	-128
 592 0048 09       		.byte	9
 593 0049 02       		.byte	2
 594 004a 13       		.byte	19
 595 004b 40       		.byte	64
 596 004c 19       		.byte	25
 597 004d 40       		.byte	64
 598 004e 1A       		.byte	26
 599 004f 10       		.byte	16
 600 0050 42       		.byte	66
 601 0051 40       		.byte	64
 602 0052 48       		.byte	72
 603 0053 02       		.byte	2
 604 0054 49       		.byte	73
 605 0055 05       		.byte	5
 606 0056 50       		.byte	80
 607 0057 02       		.byte	2
 608 0058 51       		.byte	81
 609 0059 02       		.byte	2
 610 005a 59       		.byte	89
 611 005b 45       		.byte	69
 612 005c 72       		.byte	114
 613 005d 40       		.byte	64
 614 005e 73       		.byte	115
 615 005f 40       		.byte	64
 616 0060 82       		.byte	-126
 617 0061 10       		.byte	16
 618 0062 C2       		.byte	-62
 619 0063 08       		.byte	8
 620 0064 C4       		.byte	-60
 621 0065 01       		.byte	1
 622 0066 D0       		.byte	-48
 623 0067 01       		.byte	1
 624 0068 D2       		.byte	-46
 625 0069 08       		.byte	8
 626 006a D6       		.byte	-42
 627 006b 0B       		.byte	11
 628 006c 6B       		.byte	107
 629 006d 20       		.byte	32
 630 006e 83       		.byte	-125
 631 006f 20       		.byte	32
 632 0070 DA       		.byte	-38
 633 0071 40       		.byte	64
 634 0072 E2       		.byte	-30
 635 0073 80       		.byte	-128
 636 0074 01       		.byte	1
 637 0075 01       		.byte	1
 638 0076 10       		.byte	16
ARM GAS  C:\Users\HENRYA~1\AppData\Local\Temp\cc9Q4k6t.s 			page 21


 639 0077 01       		.byte	1
 640              		.type	cy_cfg_addr_table.4907, %object
 641              		.size	cy_cfg_addr_table.4907, 20
 642              	cy_cfg_addr_table.4907:
 643 0078 01000F40 		.word	1074724865
 644 007c 1D300F40 		.word	1074737181
 645 0080 12310F40 		.word	1074737426
 646 0084 04400F40 		.word	1074741252
 647 0088 02600F40 		.word	1074749442
 648              		.text
 649              	.Letext0:
 650              		.file 2 "c:\\program files (x86)\\cypress\\psoc creator\\4.1\\psoc creator\\import\\gnu\\arm\\5.4.
 651              		.file 3 "Generated_Source\\PSoC4\\cytypes.h"
 652              		.file 4 "Generated_Source\\PSoC4\\CyLFClk.h"
 653              		.file 5 "Generated_Source\\PSoC4\\CyLib.h"