ARM GAS  C:\Users\HENRYA~1\AppData\Local\Temp\cc6eMR7f.s 			page 1


   1              		.syntax unified
   2              		.cpu cortex-m0
   3              		.fpu softvfp
   4              		.eabi_attribute 20, 1
   5              		.eabi_attribute 21, 1
   6              		.eabi_attribute 23, 3
   7              		.eabi_attribute 24, 1
   8              		.eabi_attribute 25, 1
   9              		.eabi_attribute 26, 1
  10              		.eabi_attribute 30, 1
  11              		.eabi_attribute 34, 0
  12              		.eabi_attribute 18, 4
  13              		.thumb
  14              		.syntax unified
  15              		.file	"main.c"
  16              		.text
  17              	.Ltext0:
  18              		.cfi_sections	.debug_frame
  19              		.section	.text.interrutcan,"ax",%progbits
  20              		.align	2
  21              		.global	interrutcan
  22              		.code	16
  23              		.thumb_func
  24              		.type	interrutcan, %function
  25              	interrutcan:
  26              	.LFB37:
  27              		.file 1 "main.c"
   1:main.c        **** //Import Libraries
   2:main.c        **** #include <project.h>
   3:main.c        **** #include <stdio.h>
   4:main.c        **** #include <math.h>
   5:main.c        **** #include <protocolo can.h>
   6:main.c        **** 
   7:main.c        **** //Global Variables
   8:main.c        **** uint8 dato_recibido;
   9:main.c        **** char publicar[6];
  10:main.c        **** char* formato=" %i";
  11:main.c        **** uint8 mailbox0[8];
  12:main.c        **** uint8 mailbox1[8];
  13:main.c        **** uint8 mailbox2[8];
  14:main.c        **** uint8 mailbox3[8];
  15:main.c        **** uint8 dato_enviado[8];
  16:main.c        **** uint8 dato_enviado_1[8];
  17:main.c        **** int memoria=1;
  18:main.c        **** float x1=0.0;
  19:main.c        **** 
  20:main.c        **** 
  21:main.c        **** CY_ISR(interrutcan){
  28              		.loc 1 21 0
  29              		.cfi_startproc
  30              		@ args = 0, pretend = 0, frame = 0
  31              		@ frame_needed = 0, uses_anonymous_args = 0
  32 0000 10B5     		push	{r4, lr}
  33              		.cfi_def_cfa_offset 8
  34              		.cfi_offset 4, -8
  35              		.cfi_offset 14, -4
  22:main.c        ****     LED_1_Write(1);
ARM GAS  C:\Users\HENRYA~1\AppData\Local\Temp\cc6eMR7f.s 			page 2


  36              		.loc 1 22 0
  37 0002 0120     		movs	r0, #1
  38 0004 FFF7FEFF 		bl	LED_1_Write
  39              	.LVL0:
  23:main.c        ****     CAN_GlobalIntDisable();
  40              		.loc 1 23 0
  41 0008 FFF7FEFF 		bl	CAN_GlobalIntDisable
  42              	.LVL1:
  24:main.c        ****     CAN_MsgRXIsr();   
  43              		.loc 1 24 0
  44 000c FFF7FEFF 		bl	CAN_MsgRXIsr
  45              	.LVL2:
  25:main.c        ****     CAN_GlobalIntEnable();
  46              		.loc 1 25 0
  47 0010 FFF7FEFF 		bl	CAN_GlobalIntEnable
  48              	.LVL3:
  26:main.c        ****     LED_1_Write(0);
  49              		.loc 1 26 0
  50 0014 0020     		movs	r0, #0
  51 0016 FFF7FEFF 		bl	LED_1_Write
  52              	.LVL4:
  27:main.c        **** }
  53              		.loc 1 27 0
  54              		@ sp needed
  55 001a 10BD     		pop	{r4, pc}
  56              		.cfi_endproc
  57              	.LFE37:
  58              		.size	interrutcan, .-interrutcan
  59              		.section	.text.main,"ax",%progbits
  60              		.align	2
  61              		.global	main
  62              		.code	16
  63              		.thumb_func
  64              		.type	main, %function
  65              	main:
  66              	.LFB38:
  28:main.c        **** 
  29:main.c        **** 
  30:main.c        **** int main()
  31:main.c        **** {
  67              		.loc 1 31 0
  68              		.cfi_startproc
  69              		@ Volatile: function does not return.
  70              		@ args = 0, pretend = 0, frame = 0
  71              		@ frame_needed = 0, uses_anonymous_args = 0
  72 0000 10B5     		push	{r4, lr}
  73              		.cfi_def_cfa_offset 8
  74              		.cfi_offset 4, -8
  75              		.cfi_offset 14, -4
  32:main.c        ****     //Init LED's
  33:main.c        ****     LED_1_Write(0);
  76              		.loc 1 33 0
  77 0002 0020     		movs	r0, #0
  78 0004 FFF7FEFF 		bl	LED_1_Write
  79              	.LVL5:
  34:main.c        ****     ADC_Start();
  80              		.loc 1 34 0
ARM GAS  C:\Users\HENRYA~1\AppData\Local\Temp\cc6eMR7f.s 			page 3


  81 0008 FFF7FEFF 		bl	ADC_Start
  82              	.LVL6:
  35:main.c        ****     ADC_StartConvert();
  83              		.loc 1 35 0
  84 000c FFF7FEFF 		bl	ADC_StartConvert
  85              	.LVL7:
  36:main.c        ****     CAN_Start();                    //Start CAN
  86              		.loc 1 36 0
  87 0010 FFF7FEFF 		bl	CAN_Start
  88              	.LVL8:
  37:main.c        ****     //CAN_isr_StartEx(interrutcan);   //Interrupcion CAN 
  38:main.c        ****     CAN_GlobalIntEnable();
  89              		.loc 1 38 0
  90 0014 FFF7FEFF 		bl	CAN_GlobalIntEnable
  91              	.LVL9:
  39:main.c        ****     CyGlobalIntEnable;
  92              		.loc 1 39 0
  93              		.syntax divided
  94              	@ 39 "main.c" 1
  95 0018 62B6     		CPSIE   i
  96              	@ 0 "" 2
  97              		.thumb
  98              		.syntax unified
  99              	.L3:
  40:main.c        ****     for(;;){  
  41:main.c        ****         LED_1_Write(0);
 100              		.loc 1 41 0 discriminator 1
 101 001a 0020     		movs	r0, #0
 102 001c FFF7FEFF 		bl	LED_1_Write
 103              	.LVL10:
  42:main.c        ****         dato_enviado_1[0]=ADC_GetResult16(0);
 104              		.loc 1 42 0 discriminator 1
 105 0020 0020     		movs	r0, #0
 106 0022 FFF7FEFF 		bl	ADC_GetResult16
 107              	.LVL11:
 108 0026 0B4C     		ldr	r4, .L4
 109 0028 2070     		strb	r0, [r4]
  43:main.c        ****         dato_enviado_1[1]=ADC_GetResult16(1);
 110              		.loc 1 43 0 discriminator 1
 111 002a 0120     		movs	r0, #1
 112 002c FFF7FEFF 		bl	ADC_GetResult16
 113              	.LVL12:
 114 0030 6070     		strb	r0, [r4, #1]
  44:main.c        ****         dato_enviado_1[2]=ADC_GetResult16(2);
 115              		.loc 1 44 0 discriminator 1
 116 0032 0220     		movs	r0, #2
 117 0034 FFF7FEFF 		bl	ADC_GetResult16
 118              	.LVL13:
 119 0038 A070     		strb	r0, [r4, #2]
  45:main.c        ****         CAN_SendMsg4();
 120              		.loc 1 45 0 discriminator 1
 121 003a FFF7FEFF 		bl	CAN_SendMsg4
 122              	.LVL14:
  46:main.c        ****         CyDelay(1500);
 123              		.loc 1 46 0 discriminator 1
 124 003e 064C     		ldr	r4, .L4+4
 125 0040 2000     		movs	r0, r4
ARM GAS  C:\Users\HENRYA~1\AppData\Local\Temp\cc6eMR7f.s 			page 4


 126 0042 FFF7FEFF 		bl	CyDelay
 127              	.LVL15:
  47:main.c        ****         LED_1_Write(1);
 128              		.loc 1 47 0 discriminator 1
 129 0046 0120     		movs	r0, #1
 130 0048 FFF7FEFF 		bl	LED_1_Write
 131              	.LVL16:
  48:main.c        ****         CyDelay(1500);
 132              		.loc 1 48 0 discriminator 1
 133 004c 2000     		movs	r0, r4
 134 004e FFF7FEFF 		bl	CyDelay
 135              	.LVL17:
 136 0052 E2E7     		b	.L3
 137              	.L5:
 138              		.align	2
 139              	.L4:
 140 0054 00000000 		.word	dato_enviado_1
 141 0058 DC050000 		.word	1500
 142              		.cfi_endproc
 143              	.LFE38:
 144              		.size	main, .-main
 145              		.global	x1
 146              		.global	memoria
 147              		.comm	dato_enviado_1,8,4
 148              		.comm	dato_enviado,8,4
 149              		.comm	mailbox3,8,4
 150              		.comm	mailbox2,8,4
 151              		.comm	mailbox1,8,4
 152              		.comm	mailbox0,8,4
 153              		.global	formato
 154              		.comm	publicar,6,4
 155              		.comm	dato_recibido,1,1
 156              		.data
 157              		.align	2
 158              		.type	memoria, %object
 159              		.size	memoria, 4
 160              	memoria:
 161 0000 01000000 		.word	1
 162              		.type	formato, %object
 163              		.size	formato, 4
 164              	formato:
 165 0004 00000000 		.word	.LC1
 166              		.section	.rodata.str1.4,"aMS",%progbits,1
 167              		.align	2
 168              	.LC1:
 169 0000 20256900 		.ascii	" %i\000"
 170              		.bss
 171              		.align	2
 172              		.type	x1, %object
 173              		.size	x1, 4
 174              	x1:
 175 0000 00000000 		.space	4
 176              		.text
 177              	.Letext0:
 178              		.file 2 "Generated_Source\\PSoC4/LED_1.h"
 179              		.file 3 "Generated_Source\\PSoC4/CAN.h"
 180              		.file 4 "Generated_Source\\PSoC4/ADC.h"
ARM GAS  C:\Users\HENRYA~1\AppData\Local\Temp\cc6eMR7f.s 			page 5


 181              		.file 5 "Generated_Source\\PSoC4/CyLib.h"
 182              		.file 6 "Generated_Source\\PSoC4/cytypes.h"