ARM GAS  C:\Users\HENRYA~1\AppData\Local\Temp\ccPSLakD.s 			page 1


   1              		.syntax unified
   2              		.cpu cortex-m0
   3              		.fpu softvfp
   4              		.eabi_attribute 20, 1
   5              		.eabi_attribute 21, 1
   6              		.eabi_attribute 23, 3
   7              		.eabi_attribute 24, 1
   8              		.eabi_attribute 25, 1
   9              		.eabi_attribute 26, 1
  10              		.eabi_attribute 30, 1
  11              		.eabi_attribute 34, 0
  12              		.eabi_attribute 18, 4
  13              		.thumb
  14              		.syntax unified
  15              		.file	"main.c"
  16              		.text
  17              	.Ltext0:
  18              		.cfi_sections	.debug_frame
  19              		.global	__aeabi_i2d
  20              		.global	__aeabi_dmul
  21              		.section	.text.randd,"ax",%progbits
  22              		.align	2
  23              		.global	randd
  24              		.code	16
  25              		.thumb_func
  26              		.type	randd, %function
  27              	randd:
  28              	.LFB37:
  29              		.file 1 "main.c"
   1:main.c        **** #include <project.h>
   2:main.c        **** #include <stdio.h>
   3:main.c        **** #include <stdlib.h>
   4:main.c        **** #include <math.h>
   5:main.c        **** #include <protocolo can.h>
   6:main.c        **** //Import Libraries
   7:main.c        **** //Global Variables
   8:main.c        **** uint8 mailbox0[8];
   9:main.c        **** uint8 mailbox1[8];
  10:main.c        **** uint8 mailbox2[8];
  11:main.c        **** uint8 dato_enviado[8];
  12:main.c        **** uint8 dato_enviado_1[8];
  13:main.c        **** char dist=0;
  14:main.c        **** int16 conta=0;
  15:main.c        **** int cantidadM=0;
  16:main.c        **** int Cantidad_Sensores=0;
  17:main.c        **** //Variables AE
  18:main.c        **** int Max_Conta=100;
  19:main.c        **** float amplitud=0.5;
  20:main.c        **** float offset=0.833;
  21:main.c        **** float fase=0.3;
  22:main.c        **** float ampli_aux=0.0;
  23:main.c        **** float off_aux=0.0;
  24:main.c        **** float pha_aux=0.0;
  25:main.c        **** int flag=0;
  26:main.c        **** float L_actual=0.0;
  27:main.c        **** float L_anterior=0.0;
  28:main.c        **** //Crear Array con tamaño de la población 
ARM GAS  C:\Users\HENRYA~1\AppData\Local\Temp\ccPSLakD.s 			page 2


  29:main.c        **** int Individuos=10;
  30:main.c        **** float Poblacion[3][10];
  31:main.c        **** float Poblacion_1[3][10];
  32:main.c        **** float Fitness[10];
  33:main.c        **** float Fitness_1[10];
  34:main.c        **** float Fitness_Normalizado[10];
  35:main.c        **** int Fila=0;
  36:main.c        **** int Columna=0;
  37:main.c        **** float Umbral_Cruce=0.5;
  38:main.c        **** float Umbral_Mutacion=0.4;
  39:main.c        **** 
  40:main.c        **** double randd() {
  30              		.loc 1 40 0
  31              		.cfi_startproc
  32              		@ args = 0, pretend = 0, frame = 0
  33              		@ frame_needed = 0, uses_anonymous_args = 0
  34 0000 10B5     		push	{r4, lr}
  35              		.cfi_def_cfa_offset 8
  36              		.cfi_offset 4, -8
  37              		.cfi_offset 14, -4
  41:main.c        ****   return (double)rand()/((double)RAND_MAX + 1);
  38              		.loc 1 41 0
  39 0002 FFF7FEFF 		bl	rand
  40              	.LVL0:
  41 0006 FFF7FEFF 		bl	__aeabi_i2d
  42              	.LVL1:
  43 000a 0022     		movs	r2, #0
  44 000c F823     		movs	r3, #248
  45 000e 9B05     		lsls	r3, r3, #22
  46 0010 FFF7FEFF 		bl	__aeabi_dmul
  47              	.LVL2:
  42:main.c        **** }
  48              		.loc 1 42 0
  49              		@ sp needed
  50 0014 10BD     		pop	{r4, pc}
  51              		.cfi_endproc
  52              	.LFE37:
  53              		.size	randd, .-randd
  54 0016 C046     		.section	.text.random_amplitud,"ax",%progbits
  55              		.align	2
  56              		.global	random_amplitud
  57              		.code	16
  58              		.thumb_func
  59              		.type	random_amplitud, %function
  60              	random_amplitud:
  61              	.LFB38:
  43:main.c        **** 
  44:main.c        **** double random_amplitud(){
  62              		.loc 1 44 0
  63              		.cfi_startproc
  64              		@ args = 0, pretend = 0, frame = 0
  65              		@ frame_needed = 0, uses_anonymous_args = 0
  66 0000 10B5     		push	{r4, lr}
  67              		.cfi_def_cfa_offset 8
  68              		.cfi_offset 4, -8
  69              		.cfi_offset 14, -4
  45:main.c        ****     return randd();
ARM GAS  C:\Users\HENRYA~1\AppData\Local\Temp\ccPSLakD.s 			page 3


  70              		.loc 1 45 0
  71 0002 FFF7FEFF 		bl	randd
  72              	.LVL3:
  46:main.c        **** }
  73              		.loc 1 46 0
  74              		@ sp needed
  75 0006 10BD     		pop	{r4, pc}
  76              		.cfi_endproc
  77              	.LFE38:
  78              		.size	random_amplitud, .-random_amplitud
  79              		.global	__aeabi_d2f
  80              		.global	__aeabi_fcmpgt
  81              		.section	.text.random_Fase,"ax",%progbits
  82              		.align	2
  83              		.global	random_Fase
  84              		.code	16
  85              		.thumb_func
  86              		.type	random_Fase, %function
  87              	random_Fase:
  88              	.LFB39:
  47:main.c        **** 
  48:main.c        **** double random_Fase(){
  89              		.loc 1 48 0
  90              		.cfi_startproc
  91              		@ args = 0, pretend = 0, frame = 0
  92              		@ frame_needed = 0, uses_anonymous_args = 0
  93 0000 10B5     		push	{r4, lr}
  94              		.cfi_def_cfa_offset 8
  95              		.cfi_offset 4, -8
  96              		.cfi_offset 14, -4
  97              	.LVL4:
  49:main.c        ****     float r=0.0;
  50:main.c        ****     r=randd();
  98              		.loc 1 50 0
  99 0002 FFF7FEFF 		bl	randd
 100              	.LVL5:
 101 0006 FFF7FEFF 		bl	__aeabi_d2f
 102              	.LVL6:
  51:main.c        ****     if(r>0.5){return randd();}
 103              		.loc 1 51 0
 104 000a FC21     		movs	r1, #252
 105 000c 8905     		lsls	r1, r1, #22
 106 000e FFF7FEFF 		bl	__aeabi_fcmpgt
 107              	.LVL7:
 108 0012 0028     		cmp	r0, #0
 109 0014 02D0     		beq	.L8
 110              		.loc 1 51 0 is_stmt 0 discriminator 1
 111 0016 FFF7FEFF 		bl	randd
 112              	.LVL8:
 113 001a 05E0     		b	.L6
 114              	.L8:
  52:main.c        ****     else{return randd()*-1;}
 115              		.loc 1 52 0 is_stmt 1
 116 001c FFF7FEFF 		bl	randd
 117              	.LVL9:
 118 0020 8023     		movs	r3, #128
 119 0022 1B06     		lsls	r3, r3, #24
ARM GAS  C:\Users\HENRYA~1\AppData\Local\Temp\ccPSLakD.s 			page 4


 120 0024 9C46     		mov	ip, r3
 121 0026 6144     		add	r1, r1, ip
 122              	.L6:
  53:main.c        **** }
 123              		.loc 1 53 0
 124              		@ sp needed
 125 0028 10BD     		pop	{r4, pc}
 126              		.cfi_endproc
 127              	.LFE39:
 128              		.size	random_Fase, .-random_Fase
 129              		.global	__aeabi_f2d
 130              		.global	__aeabi_fadd
 131 002a C046     		.section	.text.random_Offset,"ax",%progbits
 132              		.align	2
 133              		.global	random_Offset
 134              		.code	16
 135              		.thumb_func
 136              		.type	random_Offset, %function
 137              	random_Offset:
 138              	.LFB40:
  54:main.c        **** 
  55:main.c        **** double random_Offset(){
 139              		.loc 1 55 0
 140              		.cfi_startproc
 141              		@ args = 0, pretend = 0, frame = 0
 142              		@ frame_needed = 0, uses_anonymous_args = 0
 143 0000 10B5     		push	{r4, lr}
 144              		.cfi_def_cfa_offset 8
 145              		.cfi_offset 4, -8
 146              		.cfi_offset 14, -4
 147              	.LVL10:
  56:main.c        ****     float r=0.0;
  57:main.c        ****     r=randd();
 148              		.loc 1 57 0
 149 0002 FFF7FEFF 		bl	randd
 150              	.LVL11:
 151 0006 FFF7FEFF 		bl	__aeabi_d2f
 152              	.LVL12:
  58:main.c        ****     r=r*0.7;
 153              		.loc 1 58 0
 154 000a FFF7FEFF 		bl	__aeabi_f2d
 155              	.LVL13:
 156 000e 064A     		ldr	r2, .L10
 157 0010 064B     		ldr	r3, .L10+4
 158 0012 FFF7FEFF 		bl	__aeabi_dmul
 159              	.LVL14:
 160 0016 FFF7FEFF 		bl	__aeabi_d2f
 161              	.LVL15:
  59:main.c        ****     r=r+0.5;
 162              		.loc 1 59 0
 163 001a FC21     		movs	r1, #252
 164 001c 8905     		lsls	r1, r1, #22
 165 001e FFF7FEFF 		bl	__aeabi_fadd
 166              	.LVL16:
  60:main.c        ****     return r;
 167              		.loc 1 60 0
 168 0022 FFF7FEFF 		bl	__aeabi_f2d
ARM GAS  C:\Users\HENRYA~1\AppData\Local\Temp\ccPSLakD.s 			page 5


 169              	.LVL17:
  61:main.c        **** }
 170              		.loc 1 61 0
 171              		@ sp needed
 172 0026 10BD     		pop	{r4, pc}
 173              	.L11:
 174              		.align	2
 175              	.L10:
 176 0028 66666666 		.word	1717986918
 177 002c 6666E63F 		.word	1072064102
 178              		.cfi_endproc
 179              	.LFE40:
 180              		.size	random_Offset, .-random_Offset
 181              		.section	.text.movimiento,"ax",%progbits
 182              		.align	2
 183              		.global	movimiento
 184              		.code	16
 185              		.thumb_func
 186              		.type	movimiento, %function
 187              	movimiento:
 188              	.LFB41:
  62:main.c        **** 
  63:main.c        **** void movimiento(unsigned int dirr,int mov){
 189              		.loc 1 63 0
 190              		.cfi_startproc
 191              		@ args = 0, pretend = 0, frame = 0
 192              		@ frame_needed = 0, uses_anonymous_args = 0
 193              	.LVL18:
 194 0000 10B5     		push	{r4, lr}
 195              		.cfi_def_cfa_offset 8
 196              		.cfi_offset 4, -8
 197              		.cfi_offset 14, -4
  64:main.c        ****     char byteh,bytel;
  65:main.c        ****     byteh= mov >> 8;
 198              		.loc 1 65 0
 199 0002 0A12     		asrs	r2, r1, #8
 200              	.LVL19:
  66:main.c        ****     bytel=mov;
  67:main.c        ****     dato_enviado[0]=VER ;//verificacion
 201              		.loc 1 67 0
 202 0004 074B     		ldr	r3, .L13
 203 0006 7F24     		movs	r4, #127
 204 0008 1C70     		strb	r4, [r3]
  68:main.c        ****     dato_enviado[1]=dirr ;//dir
 205              		.loc 1 68 0
 206 000a 5870     		strb	r0, [r3, #1]
  69:main.c        ****     dato_enviado[2]=ESCRITURA ;//operacion
 207              		.loc 1 69 0
 208 000c 0220     		movs	r0, #2
 209              	.LVL20:
 210 000e 9870     		strb	r0, [r3, #2]
  70:main.c        ****     dato_enviado[3]=MOTOR;//lugar
 211              		.loc 1 70 0
 212 0010 0130     		adds	r0, r0, #1
 213 0012 D870     		strb	r0, [r3, #3]
  71:main.c        ****     dato_enviado[4]= byteh ;  //dato
 214              		.loc 1 71 0
ARM GAS  C:\Users\HENRYA~1\AppData\Local\Temp\ccPSLakD.s 			page 6


 215 0014 1A71     		strb	r2, [r3, #4]
  72:main.c        ****     dato_enviado[5]= bytel ;  //dato
 216              		.loc 1 72 0
 217 0016 5971     		strb	r1, [r3, #5]
  73:main.c        ****     CAN_SendMsg0(); 
 218              		.loc 1 73 0
 219 0018 FFF7FEFF 		bl	CAN_SendMsg0
 220              	.LVL21:
  74:main.c        ****     CyDelay(25);    
 221              		.loc 1 74 0
 222 001c 1920     		movs	r0, #25
 223 001e FFF7FEFF 		bl	CyDelay
 224              	.LVL22:
  75:main.c        **** }
 225              		.loc 1 75 0
 226              		@ sp needed
 227 0022 10BD     		pop	{r4, pc}
 228              	.L14:
 229              		.align	2
 230              	.L13:
 231 0024 00000000 		.word	dato_enviado
 232              		.cfi_endproc
 233              	.LFE41:
 234              		.size	movimiento, .-movimiento
 235              		.section	.text.Send_Angle,"ax",%progbits
 236              		.align	2
 237              		.global	Send_Angle
 238              		.code	16
 239              		.thumb_func
 240              		.type	Send_Angle, %function
 241              	Send_Angle:
 242              	.LFB42:
  76:main.c        **** 
  77:main.c        **** void Send_Angle(int datas,int Conta3){ 
 243              		.loc 1 77 0
 244              		.cfi_startproc
 245              		@ args = 0, pretend = 0, frame = 0
 246              		@ frame_needed = 0, uses_anonymous_args = 0
 247              	.LVL23:
 248 0000 10B5     		push	{r4, lr}
 249              		.cfi_def_cfa_offset 8
 250              		.cfi_offset 4, -8
 251              		.cfi_offset 14, -4
 252              	.LVL24:
  78:main.c        ****     int8 datoL=datas;
  79:main.c        ****     int8 datoH=datas>>8;  
  80:main.c        ****     dato_enviado[0]=VER2;//verificacion
 253              		.loc 1 80 0
 254 0002 094B     		ldr	r3, .L16
 255 0004 8022     		movs	r2, #128
 256 0006 1A70     		strb	r2, [r3]
  81:main.c        ****     dato_enviado[1]=Conta3;//dir
 257              		.loc 1 81 0
 258 0008 C9B2     		uxtb	r1, r1
 259              	.LVL25:
 260 000a 5970     		strb	r1, [r3, #1]
  82:main.c        ****     dato_enviado[2]=Conta3;//dir
ARM GAS  C:\Users\HENRYA~1\AppData\Local\Temp\ccPSLakD.s 			page 7


 261              		.loc 1 82 0
 262 000c 9970     		strb	r1, [r3, #2]
  83:main.c        ****     dato_enviado[3]=ANGLE;
 263              		.loc 1 83 0
 264 000e 653A     		subs	r2, r2, #101
 265 0010 DA70     		strb	r2, [r3, #3]
  84:main.c        ****     dato_enviado[4]=0;//lugar
 266              		.loc 1 84 0
 267 0012 0022     		movs	r2, #0
 268 0014 1A71     		strb	r2, [r3, #4]
  85:main.c        ****     dato_enviado[5]=0;  //dato... en este caso direcion para asignar
 269              		.loc 1 85 0
 270 0016 5A71     		strb	r2, [r3, #5]
  86:main.c        ****     dato_enviado[6]=0;
 271              		.loc 1 86 0
 272 0018 9A71     		strb	r2, [r3, #6]
  87:main.c        ****     dato_enviado[7]=Conta3;
 273              		.loc 1 87 0
 274 001a D971     		strb	r1, [r3, #7]
  88:main.c        ****     CAN_SendMsg0(); 
 275              		.loc 1 88 0
 276 001c FFF7FEFF 		bl	CAN_SendMsg0
 277              	.LVL26:
  89:main.c        ****     CyDelay(50);
 278              		.loc 1 89 0
 279 0020 3220     		movs	r0, #50
 280 0022 FFF7FEFF 		bl	CyDelay
 281              	.LVL27:
  90:main.c        **** }
 282              		.loc 1 90 0
 283              		@ sp needed
 284 0026 10BD     		pop	{r4, pc}
 285              	.L17:
 286              		.align	2
 287              	.L16:
 288 0028 00000000 		.word	dato_enviado
 289              		.cfi_endproc
 290              	.LFE42:
 291              		.size	Send_Angle, .-Send_Angle
 292              		.global	__aeabi_fmul
 293              		.global	__aeabi_f2iz
 294              		.global	__aeabi_fcmplt
 295              		.section	.text.Enviar_Parametros,"ax",%progbits
 296              		.align	2
 297              		.global	Enviar_Parametros
 298              		.code	16
 299              		.thumb_func
 300              		.type	Enviar_Parametros, %function
 301              	Enviar_Parametros:
 302              	.LFB43:
  91:main.c        **** 
  92:main.c        **** void Enviar_Parametros(float Amplitud,float Phase,float Offset,int Orientacion){
 303              		.loc 1 92 0
 304              		.cfi_startproc
 305              		@ args = 0, pretend = 0, frame = 16
 306              		@ frame_needed = 0, uses_anonymous_args = 0
 307              	.LVL28:
ARM GAS  C:\Users\HENRYA~1\AppData\Local\Temp\ccPSLakD.s 			page 8


 308 0000 F0B5     		push	{r4, r5, r6, r7, lr}
 309              		.cfi_def_cfa_offset 20
 310              		.cfi_offset 4, -20
 311              		.cfi_offset 5, -16
 312              		.cfi_offset 6, -12
 313              		.cfi_offset 7, -8
 314              		.cfi_offset 14, -4
 315 0002 85B0     		sub	sp, sp, #20
 316              		.cfi_def_cfa_offset 40
 317 0004 0190     		str	r0, [sp, #4]
 318 0006 0291     		str	r1, [sp, #8]
 319 0008 0392     		str	r2, [sp, #12]
 320 000a 1F00     		movs	r7, r3
  93:main.c        ****     //Convertir el Valor a entero para ser enviado
  94:main.c        ****     int Amp_env=(int)fabs(Amplitud*10000);
 321              		.loc 1 94 0
 322 000c 2749     		ldr	r1, .L28
 323              	.LVL29:
 324 000e FFF7FEFF 		bl	__aeabi_fmul
 325              	.LVL30:
 326 0012 4000     		lsls	r0, r0, #1
 327 0014 4008     		lsrs	r0, r0, #1
 328 0016 FFF7FEFF 		bl	__aeabi_f2iz
 329              	.LVL31:
 330 001a 0600     		movs	r6, r0
 331              	.LVL32:
  95:main.c        ****     int Phase_env=(int)fabs(Phase*10000);
 332              		.loc 1 95 0
 333 001c 2349     		ldr	r1, .L28
 334 001e 0298     		ldr	r0, [sp, #8]
 335              	.LVL33:
 336 0020 FFF7FEFF 		bl	__aeabi_fmul
 337              	.LVL34:
 338 0024 4000     		lsls	r0, r0, #1
 339 0026 4008     		lsrs	r0, r0, #1
 340 0028 FFF7FEFF 		bl	__aeabi_f2iz
 341              	.LVL35:
 342 002c 0500     		movs	r5, r0
 343              	.LVL36:
  96:main.c        ****     int Offset_env=(int)fabs(Offset*10000);
 344              		.loc 1 96 0
 345 002e 1F49     		ldr	r1, .L28
 346 0030 0398     		ldr	r0, [sp, #12]
 347              	.LVL37:
 348 0032 FFF7FEFF 		bl	__aeabi_fmul
 349              	.LVL38:
 350 0036 4000     		lsls	r0, r0, #1
 351 0038 4008     		lsrs	r0, r0, #1
 352 003a FFF7FEFF 		bl	__aeabi_f2iz
 353              	.LVL39:
 354 003e 0400     		movs	r4, r0
 355              	.LVL40:
  97:main.c        ****     //Enviar datos
  98:main.c        ****     dato_enviado_1[0]=VER_M1;
 356              		.loc 1 98 0
 357 0040 1B4B     		ldr	r3, .L28+4
 358 0042 8122     		movs	r2, #129
ARM GAS  C:\Users\HENRYA~1\AppData\Local\Temp\ccPSLakD.s 			page 9


 359 0044 1A70     		strb	r2, [r3]
  99:main.c        ****     dato_enviado_1[1]=Orientacion;
 360              		.loc 1 99 0
 361 0046 5F70     		strb	r7, [r3, #1]
 100:main.c        ****     //Convertir Amplitud
 101:main.c        ****     uint8 datoL=Amp_env;
 362              		.loc 1 101 0
 363 0048 F7B2     		uxtb	r7, r6
 364              	.LVL41:
 102:main.c        ****     uint8 datoH=Amp_env>>8;
 365              		.loc 1 102 0
 366 004a 3612     		asrs	r6, r6, #8
 367              	.LVL42:
 368 004c F6B2     		uxtb	r6, r6
 369              	.LVL43:
 103:main.c        ****     uint8 Aux=0;
 104:main.c        ****     if(Amplitud<0.0){
 370              		.loc 1 104 0
 371 004e 0021     		movs	r1, #0
 372 0050 0198     		ldr	r0, [sp, #4]
 373              	.LVL44:
 374 0052 FFF7FEFF 		bl	__aeabi_fcmplt
 375              	.LVL45:
 376 0056 0028     		cmp	r0, #0
 377 0058 01D0     		beq	.L19
 378              	.LVL46:
 105:main.c        ****         Aux=(1<<7);
 106:main.c        ****         datoH=datoH+Aux;
 379              		.loc 1 106 0
 380 005a 803E     		subs	r6, r6, #128
 381              	.LVL47:
 382 005c F6B2     		uxtb	r6, r6
 383              	.LVL48:
 384              	.L19:
 107:main.c        ****     }
 108:main.c        ****     else{
 109:main.c        ****         Aux=(0<<7);
 110:main.c        ****         datoH=datoH+Aux;    
 111:main.c        ****     }
 112:main.c        ****     dato_enviado_1[2]=datoL;
 385              		.loc 1 112 0
 386 005e 144B     		ldr	r3, .L28+4
 387 0060 9F70     		strb	r7, [r3, #2]
 113:main.c        ****     dato_enviado_1[3]=datoH;
 388              		.loc 1 113 0
 389 0062 DE70     		strb	r6, [r3, #3]
 114:main.c        ****     //Convertir Fase
 115:main.c        ****     datoL=Phase_env;
 390              		.loc 1 115 0
 391 0064 EEB2     		uxtb	r6, r5
 392              	.LVL49:
 116:main.c        ****     datoH=Phase_env>>8;
 393              		.loc 1 116 0
 394 0066 2D12     		asrs	r5, r5, #8
 395              	.LVL50:
 396 0068 EDB2     		uxtb	r5, r5
 397              	.LVL51:
ARM GAS  C:\Users\HENRYA~1\AppData\Local\Temp\ccPSLakD.s 			page 10


 117:main.c        ****     if(Phase<0.0){
 398              		.loc 1 117 0
 399 006a 0021     		movs	r1, #0
 400 006c 0298     		ldr	r0, [sp, #8]
 401 006e FFF7FEFF 		bl	__aeabi_fcmplt
 402              	.LVL52:
 403 0072 0028     		cmp	r0, #0
 404 0074 01D0     		beq	.L21
 405              	.LVL53:
 118:main.c        ****         Aux=(1<<7);
 119:main.c        ****         datoH=datoH+Aux;
 406              		.loc 1 119 0
 407 0076 803D     		subs	r5, r5, #128
 408              	.LVL54:
 409 0078 EDB2     		uxtb	r5, r5
 410              	.LVL55:
 411              	.L21:
 120:main.c        ****     }
 121:main.c        ****     else{
 122:main.c        ****         Aux=(0<<7);
 123:main.c        ****         datoH=datoH+Aux;    
 124:main.c        ****     }
 125:main.c        ****     dato_enviado_1[4]=datoL;
 412              		.loc 1 125 0
 413 007a 0D4B     		ldr	r3, .L28+4
 414 007c 1E71     		strb	r6, [r3, #4]
 126:main.c        ****     dato_enviado_1[5]=datoH;
 415              		.loc 1 126 0
 416 007e 5D71     		strb	r5, [r3, #5]
 127:main.c        ****     //Convertir Offset
 128:main.c        ****     datoL=Offset_env;
 417              		.loc 1 128 0
 418 0080 E5B2     		uxtb	r5, r4
 419              	.LVL56:
 129:main.c        ****     datoH=Offset_env>>8;
 420              		.loc 1 129 0
 421 0082 2412     		asrs	r4, r4, #8
 422              	.LVL57:
 423 0084 E4B2     		uxtb	r4, r4
 424              	.LVL58:
 130:main.c        ****     if(Offset<0.0){
 425              		.loc 1 130 0
 426 0086 0021     		movs	r1, #0
 427 0088 0398     		ldr	r0, [sp, #12]
 428 008a FFF7FEFF 		bl	__aeabi_fcmplt
 429              	.LVL59:
 430 008e 0028     		cmp	r0, #0
 431 0090 01D0     		beq	.L23
 432              	.LVL60:
 131:main.c        ****         Aux=(1<<7);
 132:main.c        ****         datoH=datoH+Aux;
 433              		.loc 1 132 0
 434 0092 803C     		subs	r4, r4, #128
 435              	.LVL61:
 436 0094 E4B2     		uxtb	r4, r4
 437              	.LVL62:
 438              	.L23:
ARM GAS  C:\Users\HENRYA~1\AppData\Local\Temp\ccPSLakD.s 			page 11


 133:main.c        ****     }
 134:main.c        ****     else{
 135:main.c        ****         Aux=(0<<7);
 136:main.c        ****         datoH=datoH+Aux;    
 137:main.c        ****     }
 138:main.c        ****     dato_enviado_1[6]=datoL;
 439              		.loc 1 138 0
 440 0096 064B     		ldr	r3, .L28+4
 441 0098 9D71     		strb	r5, [r3, #6]
 139:main.c        ****     dato_enviado_1[7]=datoH;    
 442              		.loc 1 139 0
 443 009a DC71     		strb	r4, [r3, #7]
 140:main.c        ****     CAN_SendMsg1();
 444              		.loc 1 140 0
 445 009c FFF7FEFF 		bl	CAN_SendMsg1
 446              	.LVL63:
 141:main.c        ****     CyDelay(25);
 447              		.loc 1 141 0
 448 00a0 1920     		movs	r0, #25
 449 00a2 FFF7FEFF 		bl	CyDelay
 450              	.LVL64:
 142:main.c        **** }
 451              		.loc 1 142 0
 452 00a6 05B0     		add	sp, sp, #20
 453              		@ sp needed
 454              	.LVL65:
 455              	.LVL66:
 456 00a8 F0BD     		pop	{r4, r5, r6, r7, pc}
 457              	.L29:
 458 00aa C046     		.align	2
 459              	.L28:
 460 00ac 00401C46 		.word	1176256512
 461 00b0 00000000 		.word	dato_enviado_1
 462              		.cfi_endproc
 463              	.LFE43:
 464              		.size	Enviar_Parametros, .-Enviar_Parametros
 465              		.section	.text.Recibe_mail_0,"ax",%progbits
 466              		.align	2
 467              		.global	Recibe_mail_0
 468              		.code	16
 469              		.thumb_func
 470              		.type	Recibe_mail_0, %function
 471              	Recibe_mail_0:
 472              	.LFB44:
 143:main.c        **** 
 144:main.c        **** void Recibe_mail_0(){
 473              		.loc 1 144 0
 474              		.cfi_startproc
 475              		@ args = 0, pretend = 0, frame = 0
 476              		@ frame_needed = 0, uses_anonymous_args = 0
 477 0000 10B5     		push	{r4, lr}
 478              		.cfi_def_cfa_offset 8
 479              		.cfi_offset 4, -8
 480              		.cfi_offset 14, -4
 145:main.c        **** if(mailbox0[0]==VER){
 481              		.loc 1 145 0
 482 0002 124B     		ldr	r3, .L36
ARM GAS  C:\Users\HENRYA~1\AppData\Local\Temp\ccPSLakD.s 			page 12


 483 0004 1B78     		ldrb	r3, [r3]
 484 0006 7F2B     		cmp	r3, #127
 485 0008 0BD1     		bne	.L31
 146:main.c        ****             switch(mailbox0[2]){
 486              		.loc 1 146 0
 487 000a 104A     		ldr	r2, .L36
 488 000c 9278     		ldrb	r2, [r2, #2]
 489 000e 022A     		cmp	r2, #2
 490 0010 07D1     		bne	.L31
 147:main.c        ****             ///////////////////////////////////////////////////////
 148:main.c        ****             case ESCRITURA:{ 
 149:main.c        ****                 switch(mailbox0[3]){//////////+6+++++++++++++
 491              		.loc 1 149 0
 492 0012 0E4A     		ldr	r2, .L36
 493 0014 D278     		ldrb	r2, [r2, #3]
 494 0016 2B2A     		cmp	r2, #43
 495 0018 03D1     		bne	.L31
 150:main.c        ****                     case CANTIDAD_MOD: 
 151:main.c        ****                             cantidadM=mailbox0[4];
 496              		.loc 1 151 0
 497 001a 0C4A     		ldr	r2, .L36
 498 001c 1179     		ldrb	r1, [r2, #4]
 499 001e 0C4A     		ldr	r2, .L36+4
 500 0020 1160     		str	r1, [r2]
 501              	.L31:
 152:main.c        ****                     break;
 153:main.c        ****                     case START:
 154:main.c        ****                         
 155:main.c        ****                     break;
 156:main.c        ****                 }
 157:main.c        ****             }                                            
 158:main.c        ****         }    
 159:main.c        **** }
 160:main.c        **** if(mailbox0[0]==VER2){
 502              		.loc 1 160 0
 503 0022 802B     		cmp	r3, #128
 504 0024 10D1     		bne	.L30
 161:main.c        ****                 switch(mailbox0[3]){
 505              		.loc 1 161 0
 506 0026 094B     		ldr	r3, .L36
 507 0028 DB78     		ldrb	r3, [r3, #3]
 508 002a 1B2B     		cmp	r3, #27
 509 002c 0CD1     		bne	.L30
 510              	.LBB2:
 162:main.c        ****                 ///////////////////////////////////////////////////////
 163:main.c        ****                 case ANGLE:{
 164:main.c        ****                     int Contador=mailbox0[7];
 511              		.loc 1 164 0
 512 002e 074B     		ldr	r3, .L36
 513 0030 DA79     		ldrb	r2, [r3, #7]
 514              	.LVL67:
 165:main.c        ****                     if(Contador>=cantidadM){
 515              		.loc 1 165 0
 516 0032 074B     		ldr	r3, .L36+4
 517 0034 1B68     		ldr	r3, [r3]
 518 0036 9A42     		cmp	r2, r3
 519 0038 06DB     		blt	.L30
ARM GAS  C:\Users\HENRYA~1\AppData\Local\Temp\ccPSLakD.s 			page 13


 166:main.c        ****                         Enviar_Parametros(amplitud,fase,offset,V);
 520              		.loc 1 166 0
 521 003a 064B     		ldr	r3, .L36+8
 522 003c 1A68     		ldr	r2, [r3]
 523              	.LVL68:
 524 003e 5968     		ldr	r1, [r3, #4]
 525 0040 9868     		ldr	r0, [r3, #8]
 526 0042 2123     		movs	r3, #33
 527 0044 FFF7FEFF 		bl	Enviar_Parametros
 528              	.LVL69:
 529              	.L30:
 530              	.LBE2:
 167:main.c        ****                     } 
 168:main.c        ****                 }
 169:main.c        ****                 break;}
 170:main.c        ****             } 
 171:main.c        **** }
 531              		.loc 1 171 0
 532              		@ sp needed
 533 0048 10BD     		pop	{r4, pc}
 534              	.L37:
 535 004a C046     		.align	2
 536              	.L36:
 537 004c 00000000 		.word	mailbox0
 538 0050 00000000 		.word	.LANCHOR0
 539 0054 00000000 		.word	.LANCHOR1
 540              		.cfi_endproc
 541              	.LFE44:
 542              		.size	Recibe_mail_0, .-Recibe_mail_0
 543              		.section	.text.Recibe_Mail_2,"ax",%progbits
 544              		.align	2
 545              		.global	Recibe_Mail_2
 546              		.code	16
 547              		.thumb_func
 548              		.type	Recibe_Mail_2, %function
 549              	Recibe_Mail_2:
 550              	.LFB45:
 172:main.c        **** 
 173:main.c        **** void Recibe_Mail_2(){
 551              		.loc 1 173 0
 552              		.cfi_startproc
 553              		@ args = 0, pretend = 0, frame = 0
 554              		@ frame_needed = 0, uses_anonymous_args = 0
 555              		@ link register save eliminated.
 174:main.c        ****     if(mailbox2[0]==SENSORES){
 556              		.loc 1 174 0
 557 0000 3B4B     		ldr	r3, .L48
 558 0002 1B78     		ldrb	r3, [r3]
 559 0004 822B     		cmp	r3, #130
 560 0006 72D1     		bne	.L38
 175:main.c        ****         //Mailbox2[1] Derecha
 176:main.c        ****         //Mailbox2[2] Frente
 177:main.c        ****         //Mailbox2[3] Izquierda
 178:main.c        ****         if(mailbox2[1]==0&&mailbox2[2]==0&&mailbox2[3]==0)      {Cantidad_Sensores=0;}   //Normal
 561              		.loc 1 178 0
 562 0008 394B     		ldr	r3, .L48
 563 000a 5B78     		ldrb	r3, [r3, #1]
ARM GAS  C:\Users\HENRYA~1\AppData\Local\Temp\ccPSLakD.s 			page 14


 564 000c 002B     		cmp	r3, #0
 565 000e 0AD1     		bne	.L40
 566              		.loc 1 178 0 is_stmt 0 discriminator 1
 567 0010 374A     		ldr	r2, .L48
 568 0012 9278     		ldrb	r2, [r2, #2]
 569 0014 002A     		cmp	r2, #0
 570 0016 06D1     		bne	.L40
 571              		.loc 1 178 0 discriminator 2
 572 0018 354A     		ldr	r2, .L48
 573 001a D278     		ldrb	r2, [r2, #3]
 574 001c 002A     		cmp	r2, #0
 575 001e 02D1     		bne	.L40
 576              		.loc 1 178 0 discriminator 3
 577 0020 344B     		ldr	r3, .L48+4
 578 0022 5A60     		str	r2, [r3, #4]
 579 0024 63E0     		b	.L38
 580              	.L40:
 179:main.c        ****         else if(mailbox2[1]==0&&mailbox2[2]==0&&mailbox2[3]==1) {Cantidad_Sensores=1;}   //Izquierd
 581              		.loc 1 179 0 is_stmt 1
 582 0026 002B     		cmp	r3, #0
 583 0028 0AD1     		bne	.L41
 584              		.loc 1 179 0 is_stmt 0 discriminator 1
 585 002a 314A     		ldr	r2, .L48
 586 002c 9278     		ldrb	r2, [r2, #2]
 587 002e 002A     		cmp	r2, #0
 588 0030 06D1     		bne	.L41
 589              		.loc 1 179 0 discriminator 2
 590 0032 2F4A     		ldr	r2, .L48
 591 0034 D278     		ldrb	r2, [r2, #3]
 592 0036 012A     		cmp	r2, #1
 593 0038 02D1     		bne	.L41
 594              		.loc 1 179 0 discriminator 3
 595 003a 2E4B     		ldr	r3, .L48+4
 596 003c 5A60     		str	r2, [r3, #4]
 597 003e 56E0     		b	.L38
 598              	.L41:
 180:main.c        ****         else if(mailbox2[1]==0&&mailbox2[2]==1&&mailbox2[3]==0) {Cantidad_Sensores=2;}   //Frontal
 599              		.loc 1 180 0 is_stmt 1
 600 0040 002B     		cmp	r3, #0
 601 0042 0BD1     		bne	.L42
 602              		.loc 1 180 0 is_stmt 0 discriminator 1
 603 0044 2A4A     		ldr	r2, .L48
 604 0046 9278     		ldrb	r2, [r2, #2]
 605 0048 012A     		cmp	r2, #1
 606 004a 07D1     		bne	.L42
 607              		.loc 1 180 0 discriminator 2
 608 004c 284A     		ldr	r2, .L48
 609 004e D278     		ldrb	r2, [r2, #3]
 610 0050 002A     		cmp	r2, #0
 611 0052 03D1     		bne	.L42
 612              		.loc 1 180 0 discriminator 3
 613 0054 0232     		adds	r2, r2, #2
 614 0056 274B     		ldr	r3, .L48+4
 615 0058 5A60     		str	r2, [r3, #4]
 616 005a 48E0     		b	.L38
 617              	.L42:
 181:main.c        ****         else if(mailbox2[1]==0&&mailbox2[2]==1&&mailbox2[3]==1) {Cantidad_Sensores=3;}   //Frontal 
ARM GAS  C:\Users\HENRYA~1\AppData\Local\Temp\ccPSLakD.s 			page 15


 618              		.loc 1 181 0 is_stmt 1
 619 005c 002B     		cmp	r3, #0
 620 005e 0BD1     		bne	.L43
 621              		.loc 1 181 0 is_stmt 0 discriminator 1
 622 0060 234A     		ldr	r2, .L48
 623 0062 9278     		ldrb	r2, [r2, #2]
 624 0064 012A     		cmp	r2, #1
 625 0066 07D1     		bne	.L43
 626              		.loc 1 181 0 discriminator 2
 627 0068 214A     		ldr	r2, .L48
 628 006a D278     		ldrb	r2, [r2, #3]
 629 006c 012A     		cmp	r2, #1
 630 006e 03D1     		bne	.L43
 631              		.loc 1 181 0 discriminator 3
 632 0070 0232     		adds	r2, r2, #2
 633 0072 204B     		ldr	r3, .L48+4
 634 0074 5A60     		str	r2, [r3, #4]
 635 0076 3AE0     		b	.L38
 636              	.L43:
 182:main.c        ****         else if(mailbox2[1]==1&&mailbox2[2]==0&&mailbox2[3]==0) {Cantidad_Sensores=4;}   //Derecha
 637              		.loc 1 182 0 is_stmt 1
 638 0078 012B     		cmp	r3, #1
 639 007a 0BD1     		bne	.L44
 640              		.loc 1 182 0 is_stmt 0 discriminator 1
 641 007c 1C4A     		ldr	r2, .L48
 642 007e 9278     		ldrb	r2, [r2, #2]
 643 0080 002A     		cmp	r2, #0
 644 0082 07D1     		bne	.L44
 645              		.loc 1 182 0 discriminator 2
 646 0084 1A4A     		ldr	r2, .L48
 647 0086 D278     		ldrb	r2, [r2, #3]
 648 0088 002A     		cmp	r2, #0
 649 008a 03D1     		bne	.L44
 650              		.loc 1 182 0 discriminator 3
 651 008c 0432     		adds	r2, r2, #4
 652 008e 194B     		ldr	r3, .L48+4
 653 0090 5A60     		str	r2, [r3, #4]
 654 0092 2CE0     		b	.L38
 655              	.L44:
 183:main.c        ****         else if(mailbox2[1]==1&&mailbox2[2]==0&&mailbox2[3]==1) {Cantidad_Sensores=5;}   //Derecha 
 656              		.loc 1 183 0 is_stmt 1
 657 0094 012B     		cmp	r3, #1
 658 0096 0BD1     		bne	.L45
 659              		.loc 1 183 0 is_stmt 0 discriminator 1
 660 0098 154A     		ldr	r2, .L48
 661 009a 9278     		ldrb	r2, [r2, #2]
 662 009c 002A     		cmp	r2, #0
 663 009e 07D1     		bne	.L45
 664              		.loc 1 183 0 discriminator 2
 665 00a0 134A     		ldr	r2, .L48
 666 00a2 D278     		ldrb	r2, [r2, #3]
 667 00a4 012A     		cmp	r2, #1
 668 00a6 03D1     		bne	.L45
 669              		.loc 1 183 0 discriminator 3
 670 00a8 0432     		adds	r2, r2, #4
 671 00aa 124B     		ldr	r3, .L48+4
 672 00ac 5A60     		str	r2, [r3, #4]
ARM GAS  C:\Users\HENRYA~1\AppData\Local\Temp\ccPSLakD.s 			page 16


 673 00ae 1EE0     		b	.L38
 674              	.L45:
 184:main.c        ****         else if(mailbox2[1]==1&&mailbox2[2]==1&&mailbox2[3]==0) {Cantidad_Sensores=6;}   //Frontal 
 675              		.loc 1 184 0 is_stmt 1
 676 00b0 012B     		cmp	r3, #1
 677 00b2 0BD1     		bne	.L46
 678              		.loc 1 184 0 is_stmt 0 discriminator 1
 679 00b4 0E4A     		ldr	r2, .L48
 680 00b6 9278     		ldrb	r2, [r2, #2]
 681 00b8 012A     		cmp	r2, #1
 682 00ba 07D1     		bne	.L46
 683              		.loc 1 184 0 discriminator 2
 684 00bc 0C4A     		ldr	r2, .L48
 685 00be D278     		ldrb	r2, [r2, #3]
 686 00c0 002A     		cmp	r2, #0
 687 00c2 03D1     		bne	.L46
 688              		.loc 1 184 0 discriminator 3
 689 00c4 0632     		adds	r2, r2, #6
 690 00c6 0B4B     		ldr	r3, .L48+4
 691 00c8 5A60     		str	r2, [r3, #4]
 692 00ca 10E0     		b	.L38
 693              	.L46:
 185:main.c        ****         else if(mailbox2[1]==1&&mailbox2[2]==1&&mailbox2[3]==1) {Cantidad_Sensores=7;}   //Todos
 694              		.loc 1 185 0 is_stmt 1
 695 00cc 012B     		cmp	r3, #1
 696 00ce 0BD1     		bne	.L47
 697              		.loc 1 185 0 is_stmt 0 discriminator 1
 698 00d0 074B     		ldr	r3, .L48
 699 00d2 9B78     		ldrb	r3, [r3, #2]
 700 00d4 012B     		cmp	r3, #1
 701 00d6 07D1     		bne	.L47
 702              		.loc 1 185 0 discriminator 2
 703 00d8 054B     		ldr	r3, .L48
 704 00da DB78     		ldrb	r3, [r3, #3]
 705 00dc 012B     		cmp	r3, #1
 706 00de 03D1     		bne	.L47
 707              		.loc 1 185 0 discriminator 3
 708 00e0 0722     		movs	r2, #7
 709 00e2 044B     		ldr	r3, .L48+4
 710 00e4 5A60     		str	r2, [r3, #4]
 711 00e6 02E0     		b	.L38
 712              	.L47:
 186:main.c        ****         else                                                    {Cantidad_Sensores=0;}   //Normal
 713              		.loc 1 186 0 is_stmt 1
 714 00e8 0022     		movs	r2, #0
 715 00ea 024B     		ldr	r3, .L48+4
 716 00ec 5A60     		str	r2, [r3, #4]
 717              	.L38:
 187:main.c        ****     }
 188:main.c        **** }
 718              		.loc 1 188 0
 719              		@ sp needed
 720 00ee 7047     		bx	lr
 721              	.L49:
 722              		.align	2
 723              	.L48:
 724 00f0 00000000 		.word	mailbox2
ARM GAS  C:\Users\HENRYA~1\AppData\Local\Temp\ccPSLakD.s 			page 17


 725 00f4 00000000 		.word	.LANCHOR0
 726              		.cfi_endproc
 727              	.LFE45:
 728              		.size	Recibe_Mail_2, .-Recibe_Mail_2
 729              		.section	.text.interrutcan,"ax",%progbits
 730              		.align	2
 731              		.global	interrutcan
 732              		.code	16
 733              		.thumb_func
 734              		.type	interrutcan, %function
 735              	interrutcan:
 736              	.LFB46:
 189:main.c        **** 
 190:main.c        **** CY_ISR(interrutcan){
 737              		.loc 1 190 0
 738              		.cfi_startproc
 739              		@ args = 0, pretend = 0, frame = 0
 740              		@ frame_needed = 0, uses_anonymous_args = 0
 741 0000 10B5     		push	{r4, lr}
 742              		.cfi_def_cfa_offset 8
 743              		.cfi_offset 4, -8
 744              		.cfi_offset 14, -4
 191:main.c        ****     CAN_GlobalIntDisable();
 745              		.loc 1 191 0
 746 0002 FFF7FEFF 		bl	CAN_GlobalIntDisable
 747              	.LVL70:
 192:main.c        ****     CAN_MsgRXIsr();  
 748              		.loc 1 192 0
 749 0006 FFF7FEFF 		bl	CAN_MsgRXIsr
 750              	.LVL71:
 193:main.c        ****     Recibe_mail_0();
 751              		.loc 1 193 0
 752 000a FFF7FEFF 		bl	Recibe_mail_0
 753              	.LVL72:
 194:main.c        ****     Recibe_Mail_2();
 754              		.loc 1 194 0
 755 000e FFF7FEFF 		bl	Recibe_Mail_2
 756              	.LVL73:
 195:main.c        ****     CAN_GlobalIntEnable();
 757              		.loc 1 195 0
 758 0012 FFF7FEFF 		bl	CAN_GlobalIntEnable
 759              	.LVL74:
 196:main.c        **** }
 760              		.loc 1 196 0
 761              		@ sp needed
 762 0016 10BD     		pop	{r4, pc}
 763              		.cfi_endproc
 764              	.LFE46:
 765              		.size	interrutcan, .-interrutcan
 766              		.global	__aeabi_dcmplt
 767              		.section	.text.maximo,"ax",%progbits
 768              		.align	2
 769              		.global	maximo
 770              		.code	16
 771              		.thumb_func
 772              		.type	maximo, %function
 773              	maximo:
ARM GAS  C:\Users\HENRYA~1\AppData\Local\Temp\ccPSLakD.s 			page 18


 774              	.LFB47:
 197:main.c        **** 
 198:main.c        **** double maximo(double *valores, int num){ 
 775              		.loc 1 198 0
 776              		.cfi_startproc
 777              		@ args = 0, pretend = 0, frame = 8
 778              		@ frame_needed = 0, uses_anonymous_args = 0
 779              	.LVL75:
 780 0000 F0B5     		push	{r4, r5, r6, r7, lr}
 781              		.cfi_def_cfa_offset 20
 782              		.cfi_offset 4, -20
 783              		.cfi_offset 5, -16
 784              		.cfi_offset 6, -12
 785              		.cfi_offset 7, -8
 786              		.cfi_offset 14, -4
 787 0002 5746     		mov	r7, r10
 788 0004 80B4     		push	{r7}
 789              		.cfi_def_cfa_offset 24
 790              		.cfi_offset 10, -24
 791 0006 82B0     		sub	sp, sp, #8
 792              		.cfi_def_cfa_offset 32
 793 0008 0700     		movs	r7, r0
 794 000a 8A46     		mov	r10, r1
 199:main.c        ****   int i; 
 200:main.c        ****   double max; 
 201:main.c        ****   max = valores[0]; 
 795              		.loc 1 201 0
 796 000c 0368     		ldr	r3, [r0]
 797 000e 4468     		ldr	r4, [r0, #4]
 798 0010 0093     		str	r3, [sp]
 799 0012 0194     		str	r4, [sp, #4]
 800              	.LVL76:
 202:main.c        ****   for (i = 1; i < num; i++) 
 801              		.loc 1 202 0
 802 0014 0126     		movs	r6, #1
 803 0016 0EE0     		b	.L52
 804              	.LVL77:
 805              	.L54:
 203:main.c        ****     if (valores[i] > max) 
 806              		.loc 1 203 0
 807 0018 F300     		lsls	r3, r6, #3
 808 001a FB18     		adds	r3, r7, r3
 809 001c 1C68     		ldr	r4, [r3]
 810 001e 5D68     		ldr	r5, [r3, #4]
 811 0020 2200     		movs	r2, r4
 812 0022 2B00     		movs	r3, r5
 813 0024 0098     		ldr	r0, [sp]
 814 0026 0199     		ldr	r1, [sp, #4]
 815 0028 FFF7FEFF 		bl	__aeabi_dcmplt
 816              	.LVL78:
 817 002c 0028     		cmp	r0, #0
 818 002e 01D0     		beq	.L53
 204:main.c        **** 	  max = valores[i]; 
 819              		.loc 1 204 0
 820 0030 0094     		str	r4, [sp]
 821 0032 0195     		str	r5, [sp, #4]
 822              	.LVL79:
ARM GAS  C:\Users\HENRYA~1\AppData\Local\Temp\ccPSLakD.s 			page 19


 823              	.L53:
 202:main.c        ****   for (i = 1; i < num; i++) 
 824              		.loc 1 202 0 discriminator 2
 825 0034 0136     		adds	r6, r6, #1
 826              	.LVL80:
 827              	.L52:
 202:main.c        ****   for (i = 1; i < num; i++) 
 828              		.loc 1 202 0 is_stmt 0 discriminator 1
 829 0036 5645     		cmp	r6, r10
 830 0038 EEDB     		blt	.L54
 205:main.c        ****   return (max); 
 206:main.c        **** } 
 831              		.loc 1 206 0 is_stmt 1
 832 003a 0098     		ldr	r0, [sp]
 833 003c 0199     		ldr	r1, [sp, #4]
 834 003e 02B0     		add	sp, sp, #8
 835              	.LVL81:
 836              		@ sp needed
 837              	.LVL82:
 838              	.LVL83:
 839              	.LVL84:
 840 0040 04BC     		pop	{r2}
 841 0042 9246     		mov	r10, r2
 842 0044 F0BD     		pop	{r4, r5, r6, r7, pc}
 843              		.cfi_endproc
 844              	.LFE47:
 845              		.size	maximo, .-maximo
 846              		.global	__aeabi_ddiv
 847 0046 C046     		.section	.text.Normalizar,"ax",%progbits
 848              		.align	2
 849              		.global	Normalizar
 850              		.code	16
 851              		.thumb_func
 852              		.type	Normalizar, %function
 853              	Normalizar:
 854              	.LFB48:
 207:main.c        **** 
 208:main.c        **** double *Normalizar(double *Vector, int Individuos){
 855              		.loc 1 208 0
 856              		.cfi_startproc
 857              		@ args = 0, pretend = 0, frame = 8
 858              		@ frame_needed = 0, uses_anonymous_args = 0
 859              	.LVL85:
 860 0000 F0B5     		push	{r4, r5, r6, r7, lr}
 861              		.cfi_def_cfa_offset 20
 862              		.cfi_offset 4, -20
 863              		.cfi_offset 5, -16
 864              		.cfi_offset 6, -12
 865              		.cfi_offset 7, -8
 866              		.cfi_offset 14, -4
 867 0002 5746     		mov	r7, r10
 868 0004 4646     		mov	r6, r8
 869 0006 C0B4     		push	{r6, r7}
 870              		.cfi_def_cfa_offset 28
 871              		.cfi_offset 8, -28
 872              		.cfi_offset 10, -24
 873 0008 83B0     		sub	sp, sp, #12
ARM GAS  C:\Users\HENRYA~1\AppData\Local\Temp\ccPSLakD.s 			page 20


 874              		.cfi_def_cfa_offset 40
 875 000a 8046     		mov	r8, r0
 876 000c 8A46     		mov	r10, r1
 209:main.c        ****     float Valor_Maximo=maximo(Vector,Individuos);
 877              		.loc 1 209 0
 878 000e FFF7FEFF 		bl	maximo
 879              	.LVL86:
 880 0012 FFF7FEFF 		bl	__aeabi_d2f
 881              	.LVL87:
 882 0016 0190     		str	r0, [sp, #4]
 883              	.LVL88:
 210:main.c        ****     int i=0;
 211:main.c        ****     for (i=0;i<Individuos;i++){
 884              		.loc 1 211 0
 885 0018 0025     		movs	r5, #0
 886 001a 0FE0     		b	.L57
 887              	.LVL89:
 888              	.L58:
 212:main.c        ****         Vector[i]=Vector[i]/Valor_Maximo;
 889              		.loc 1 212 0 discriminator 3
 890 001c EC00     		lsls	r4, r5, #3
 891 001e 4444     		add	r4, r4, r8
 892 0020 2668     		ldr	r6, [r4]
 893 0022 6768     		ldr	r7, [r4, #4]
 894 0024 0198     		ldr	r0, [sp, #4]
 895 0026 FFF7FEFF 		bl	__aeabi_f2d
 896              	.LVL90:
 897 002a 0200     		movs	r2, r0
 898 002c 0B00     		movs	r3, r1
 899 002e 3000     		movs	r0, r6
 900 0030 3900     		movs	r1, r7
 901 0032 FFF7FEFF 		bl	__aeabi_ddiv
 902              	.LVL91:
 903 0036 2060     		str	r0, [r4]
 904 0038 6160     		str	r1, [r4, #4]
 211:main.c        ****         Vector[i]=Vector[i]/Valor_Maximo;
 905              		.loc 1 211 0 discriminator 3
 906 003a 0135     		adds	r5, r5, #1
 907              	.LVL92:
 908              	.L57:
 211:main.c        ****         Vector[i]=Vector[i]/Valor_Maximo;
 909              		.loc 1 211 0 is_stmt 0 discriminator 1
 910 003c 5545     		cmp	r5, r10
 911 003e EDDB     		blt	.L58
 213:main.c        ****     }
 214:main.c        ****     return Vector;
 215:main.c        **** }
 912              		.loc 1 215 0 is_stmt 1
 913 0040 4046     		mov	r0, r8
 914 0042 03B0     		add	sp, sp, #12
 915              		@ sp needed
 916              	.LVL93:
 917              	.LVL94:
 918              	.LVL95:
 919 0044 0CBC     		pop	{r2, r3}
 920 0046 9046     		mov	r8, r2
 921 0048 9A46     		mov	r10, r3
ARM GAS  C:\Users\HENRYA~1\AppData\Local\Temp\ccPSLakD.s 			page 21


 922 004a F0BD     		pop	{r4, r5, r6, r7, pc}
 923              		.cfi_endproc
 924              	.LFE48:
 925              		.size	Normalizar, .-Normalizar
 926              		.global	__aeabi_i2f
 927              		.global	__aeabi_fdiv
 928              		.section	.text.Medir_dist,"ax",%progbits
 929              		.align	2
 930              		.global	Medir_dist
 931              		.code	16
 932              		.thumb_func
 933              		.type	Medir_dist, %function
 934              	Medir_dist:
 935              	.LFB49:
 216:main.c        **** 
 217:main.c        **** double Medir_dist(){
 936              		.loc 1 217 0
 937              		.cfi_startproc
 938              		@ args = 0, pretend = 0, frame = 0
 939              		@ frame_needed = 0, uses_anonymous_args = 0
 940 0000 70B5     		push	{r4, r5, r6, lr}
 941              		.cfi_def_cfa_offset 16
 942              		.cfi_offset 4, -16
 943              		.cfi_offset 5, -12
 944              		.cfi_offset 6, -8
 945              		.cfi_offset 14, -4
 946              	.LVL96:
 218:main.c        ****     int i=0;
 219:main.c        ****     float longitud=0.0;
 220:main.c        ****     Enviar_Parametros(0.0,0.0,0.833,V);
 947              		.loc 1 220 0
 948 0002 154C     		ldr	r4, .L62
 949 0004 0025     		movs	r5, #0
 950 0006 2123     		movs	r3, #33
 951 0008 221C     		adds	r2, r4, #0
 952 000a 291C     		adds	r1, r5, #0
 953 000c 281C     		adds	r0, r5, #0
 954 000e FFF7FEFF 		bl	Enviar_Parametros
 955              	.LVL97:
 221:main.c        ****     CyDelay(50);
 956              		.loc 1 221 0
 957 0012 3220     		movs	r0, #50
 958 0014 FFF7FEFF 		bl	CyDelay
 959              	.LVL98:
 222:main.c        ****     Enviar_Parametros(0.0,0.0,0.833,V);
 960              		.loc 1 222 0
 961 0018 2123     		movs	r3, #33
 962 001a 221C     		adds	r2, r4, #0
 963 001c 291C     		adds	r1, r5, #0
 964 001e 281C     		adds	r0, r5, #0
 965 0020 FFF7FEFF 		bl	Enviar_Parametros
 966              	.LVL99:
 223:main.c        ****     for(i=1;i<10;i++){
 967              		.loc 1 223 0
 968 0024 0124     		movs	r4, #1
 969 0026 0DE0     		b	.L60
 970              	.LVL100:
ARM GAS  C:\Users\HENRYA~1\AppData\Local\Temp\ccPSLakD.s 			page 22


 971              	.L61:
 224:main.c        ****         longitud=dist+longitud;
 972              		.loc 1 224 0 discriminator 3
 973 0028 0C4B     		ldr	r3, .L62+4
 974 002a 187A     		ldrb	r0, [r3, #8]
 975 002c FFF7FEFF 		bl	__aeabi_i2f
 976              	.LVL101:
 977 0030 011C     		adds	r1, r0, #0
 978 0032 281C     		adds	r0, r5, #0
 979 0034 FFF7FEFF 		bl	__aeabi_fadd
 980              	.LVL102:
 981 0038 051C     		adds	r5, r0, #0
 982              	.LVL103:
 225:main.c        ****         CyDelay(1000);
 983              		.loc 1 225 0 discriminator 3
 984 003a FA20     		movs	r0, #250
 985              	.LVL104:
 986 003c 8000     		lsls	r0, r0, #2
 987 003e FFF7FEFF 		bl	CyDelay
 988              	.LVL105:
 223:main.c        ****     for(i=1;i<10;i++){
 989              		.loc 1 223 0 discriminator 3
 990 0042 0134     		adds	r4, r4, #1
 991              	.LVL106:
 992              	.L60:
 223:main.c        ****     for(i=1;i<10;i++){
 993              		.loc 1 223 0 is_stmt 0 discriminator 1
 994 0044 092C     		cmp	r4, #9
 995 0046 EFDD     		ble	.L61
 226:main.c        ****     } 
 227:main.c        ****     longitud=longitud/10;
 996              		.loc 1 227 0 is_stmt 1
 997 0048 0549     		ldr	r1, .L62+8
 998 004a 281C     		adds	r0, r5, #0
 999 004c FFF7FEFF 		bl	__aeabi_fdiv
 1000              	.LVL107:
 228:main.c        ****     return longitud;
 1001              		.loc 1 228 0
 1002 0050 FFF7FEFF 		bl	__aeabi_f2d
 1003              	.LVL108:
 229:main.c        **** }
 1004              		.loc 1 229 0
 1005              		@ sp needed
 1006              	.LVL109:
 1007 0054 70BD     		pop	{r4, r5, r6, pc}
 1008              	.L63:
 1009 0056 C046     		.align	2
 1010              	.L62:
 1011 0058 7D3F553F 		.word	1062551421
 1012 005c 00000000 		.word	.LANCHOR0
 1013 0060 00002041 		.word	1092616192
 1014              		.cfi_endproc
 1015              	.LFE49:
 1016              		.size	Medir_dist, .-Medir_dist
 1017              		.section	.text.Evaluar_Fitness,"ax",%progbits
 1018              		.align	2
 1019              		.global	Evaluar_Fitness
ARM GAS  C:\Users\HENRYA~1\AppData\Local\Temp\ccPSLakD.s 			page 23


 1020              		.code	16
 1021              		.thumb_func
 1022              		.type	Evaluar_Fitness, %function
 1023              	Evaluar_Fitness:
 1024              	.LFB50:
 230:main.c        **** 
 231:main.c        **** void Evaluar_Fitness(){
 1025              		.loc 1 231 0
 1026              		.cfi_startproc
 1027              		@ args = 0, pretend = 0, frame = 0
 1028              		@ frame_needed = 0, uses_anonymous_args = 0
 1029 0000 F0B5     		push	{r4, r5, r6, r7, lr}
 1030              		.cfi_def_cfa_offset 20
 1031              		.cfi_offset 4, -20
 1032              		.cfi_offset 5, -16
 1033              		.cfi_offset 6, -12
 1034              		.cfi_offset 7, -8
 1035              		.cfi_offset 14, -4
 1036 0002 4746     		mov	r7, r8
 1037 0004 80B4     		push	{r7}
 1038              		.cfi_def_cfa_offset 24
 1039              		.cfi_offset 8, -24
 232:main.c        ****     CAN_isr_Stop();
 1040              		.loc 1 232 0
 1041 0006 FFF7FEFF 		bl	CAN_isr_Stop
 1042              	.LVL110:
 233:main.c        ****     int i=0;
 234:main.c        ****     for(i=0;i<Individuos;i++){
 1043              		.loc 1 234 0
 1044 000a 0025     		movs	r5, #0
 1045 000c 24E0     		b	.L65
 1046              	.LVL111:
 1047              	.L66:
 235:main.c        ****         Enviar_Parametros(Poblacion[0][i],Poblacion[1][i],Poblacion[2][i],V);
 1048              		.loc 1 235 0 discriminator 3
 1049 000e 174C     		ldr	r4, .L67
 1050 0010 2F00     		movs	r7, r5
 1051 0012 1437     		adds	r7, r7, #20
 1052 0014 BF00     		lsls	r7, r7, #2
 1053 0016 2E00     		movs	r6, r5
 1054 0018 0A36     		adds	r6, r6, #10
 1055 001a B600     		lsls	r6, r6, #2
 1056 001c AB00     		lsls	r3, r5, #2
 1057 001e 9846     		mov	r8, r3
 1058 0020 2123     		movs	r3, #33
 1059 0022 3A59     		ldr	r2, [r7, r4]
 1060 0024 3159     		ldr	r1, [r6, r4]
 1061 0026 4046     		mov	r0, r8
 1062 0028 0059     		ldr	r0, [r0, r4]
 1063 002a FFF7FEFF 		bl	Enviar_Parametros
 1064              	.LVL112:
 236:main.c        ****         CyDelay(50);
 1065              		.loc 1 236 0 discriminator 3
 1066 002e 3220     		movs	r0, #50
 1067 0030 FFF7FEFF 		bl	CyDelay
 1068              	.LVL113:
 237:main.c        ****         Enviar_Parametros(Poblacion[0][i],Poblacion[1][i],Poblacion[2][i],V);
ARM GAS  C:\Users\HENRYA~1\AppData\Local\Temp\ccPSLakD.s 			page 24


 1069              		.loc 1 237 0 discriminator 3
 1070 0034 3A59     		ldr	r2, [r7, r4]
 1071 0036 3159     		ldr	r1, [r6, r4]
 1072 0038 4346     		mov	r3, r8
 1073 003a 1859     		ldr	r0, [r3, r4]
 1074 003c 2123     		movs	r3, #33
 1075 003e FFF7FEFF 		bl	Enviar_Parametros
 1076              	.LVL114:
 238:main.c        ****         CyDelay(30000);
 1077              		.loc 1 238 0 discriminator 3
 1078 0042 0B48     		ldr	r0, .L67+4
 1079 0044 FFF7FEFF 		bl	CyDelay
 1080              	.LVL115:
 239:main.c        ****         Fitness[i]=Medir_dist();
 1081              		.loc 1 239 0 discriminator 3
 1082 0048 FFF7FEFF 		bl	Medir_dist
 1083              	.LVL116:
 1084 004c FFF7FEFF 		bl	__aeabi_d2f
 1085              	.LVL117:
 1086 0050 084B     		ldr	r3, .L67+8
 1087 0052 4246     		mov	r2, r8
 1088 0054 D050     		str	r0, [r2, r3]
 234:main.c        ****         Enviar_Parametros(Poblacion[0][i],Poblacion[1][i],Poblacion[2][i],V);
 1089              		.loc 1 234 0 discriminator 3
 1090 0056 0135     		adds	r5, r5, #1
 1091              	.LVL118:
 1092              	.L65:
 234:main.c        ****         Enviar_Parametros(Poblacion[0][i],Poblacion[1][i],Poblacion[2][i],V);
 1093              		.loc 1 234 0 is_stmt 0 discriminator 1
 1094 0058 074B     		ldr	r3, .L67+12
 1095 005a DB68     		ldr	r3, [r3, #12]
 1096 005c 9D42     		cmp	r5, r3
 1097 005e D6DB     		blt	.L66
 240:main.c        ****     }
 241:main.c        ****     CAN_isr_StartEx(interrutcan);
 1098              		.loc 1 241 0 is_stmt 1
 1099 0060 0648     		ldr	r0, .L67+16
 1100 0062 FFF7FEFF 		bl	CAN_isr_StartEx
 1101              	.LVL119:
 242:main.c        **** }
 1102              		.loc 1 242 0
 1103              		@ sp needed
 1104              	.LVL120:
 1105 0066 04BC     		pop	{r2}
 1106 0068 9046     		mov	r8, r2
 1107 006a F0BD     		pop	{r4, r5, r6, r7, pc}
 1108              	.L68:
 1109              		.align	2
 1110              	.L67:
 1111 006c 00000000 		.word	Poblacion
 1112 0070 30750000 		.word	30000
 1113 0074 00000000 		.word	Fitness
 1114 0078 00000000 		.word	.LANCHOR1
 1115 007c 00000000 		.word	interrutcan
 1116              		.cfi_endproc
 1117              	.LFE50:
 1118              		.size	Evaluar_Fitness, .-Evaluar_Fitness
ARM GAS  C:\Users\HENRYA~1\AppData\Local\Temp\ccPSLakD.s 			page 25


 1119              		.section	.text.Seleccion,"ax",%progbits
 1120              		.align	2
 1121              		.global	Seleccion
 1122              		.code	16
 1123              		.thumb_func
 1124              		.type	Seleccion, %function
 1125              	Seleccion:
 1126              	.LFB51:
 243:main.c        **** 
 244:main.c        **** void Seleccion(){
 1127              		.loc 1 244 0
 1128              		.cfi_startproc
 1129              		@ args = 0, pretend = 0, frame = 0
 1130              		@ frame_needed = 0, uses_anonymous_args = 0
 1131              		@ link register save eliminated.
 245:main.c        ****     
 246:main.c        **** }
 1132              		.loc 1 246 0
 1133              		@ sp needed
 1134 0000 7047     		bx	lr
 1135              		.cfi_endproc
 1136              	.LFE51:
 1137              		.size	Seleccion, .-Seleccion
 1138              		.global	__aeabi_d2iz
 1139 0002 C046     		.section	.text.Cruce,"ax",%progbits
 1140              		.align	2
 1141              		.global	Cruce
 1142              		.code	16
 1143              		.thumb_func
 1144              		.type	Cruce, %function
 1145              	Cruce:
 1146              	.LFB52:
 247:main.c        **** 
 248:main.c        **** void Cruce(){
 1147              		.loc 1 248 0
 1148              		.cfi_startproc
 1149              		@ args = 0, pretend = 0, frame = 0
 1150              		@ frame_needed = 0, uses_anonymous_args = 0
 1151 0000 F8B5     		push	{r3, r4, r5, r6, r7, lr}
 1152              		.cfi_def_cfa_offset 24
 1153              		.cfi_offset 3, -24
 1154              		.cfi_offset 4, -20
 1155              		.cfi_offset 5, -16
 1156              		.cfi_offset 6, -12
 1157              		.cfi_offset 7, -8
 1158              		.cfi_offset 14, -4
 249:main.c        ****     int papa=(int)Individuos*randd();
 1159              		.loc 1 249 0
 1160 0002 1B4C     		ldr	r4, .L71
 1161 0004 E068     		ldr	r0, [r4, #12]
 1162 0006 FFF7FEFF 		bl	__aeabi_i2d
 1163              	.LVL121:
 1164 000a 0600     		movs	r6, r0
 1165 000c 0F00     		movs	r7, r1
 1166 000e FFF7FEFF 		bl	randd
 1167              	.LVL122:
 1168 0012 0200     		movs	r2, r0
ARM GAS  C:\Users\HENRYA~1\AppData\Local\Temp\ccPSLakD.s 			page 26


 1169 0014 0B00     		movs	r3, r1
 1170 0016 3000     		movs	r0, r6
 1171 0018 3900     		movs	r1, r7
 1172 001a FFF7FEFF 		bl	__aeabi_dmul
 1173              	.LVL123:
 1174 001e FFF7FEFF 		bl	__aeabi_d2iz
 1175              	.LVL124:
 1176 0022 0500     		movs	r5, r0
 1177              	.LVL125:
 250:main.c        ****     int mama=(int)Individuos*randd();
 1178              		.loc 1 250 0
 1179 0024 E068     		ldr	r0, [r4, #12]
 1180              	.LVL126:
 1181 0026 FFF7FEFF 		bl	__aeabi_i2d
 1182              	.LVL127:
 1183 002a 0600     		movs	r6, r0
 1184 002c 0F00     		movs	r7, r1
 1185 002e FFF7FEFF 		bl	randd
 1186              	.LVL128:
 1187 0032 0200     		movs	r2, r0
 1188 0034 0B00     		movs	r3, r1
 1189 0036 3000     		movs	r0, r6
 1190 0038 3900     		movs	r1, r7
 1191 003a FFF7FEFF 		bl	__aeabi_dmul
 1192              	.LVL129:
 1193 003e FFF7FEFF 		bl	__aeabi_d2iz
 1194              	.LVL130:
 1195 0042 0400     		movs	r4, r0
 1196              	.LVL131:
 251:main.c        ****     int componente=(int)randd()*2;
 1197              		.loc 1 251 0
 1198 0044 FFF7FEFF 		bl	randd
 1199              	.LVL132:
 1200 0048 FFF7FEFF 		bl	__aeabi_d2iz
 1201              	.LVL133:
 1202 004c 4300     		lsls	r3, r0, #1
 1203              	.LVL134:
 252:main.c        ****     float New_Componente;
 253:main.c        ****     New_Componente=Poblacion[componente][papa];
 1204              		.loc 1 253 0
 1205 004e 094E     		ldr	r6, .L71+4
 1206 0050 C000     		lsls	r0, r0, #3
 1207 0052 C118     		adds	r1, r0, r3
 1208 0054 4A00     		lsls	r2, r1, #1
 1209 0056 1100     		movs	r1, r2
 1210 0058 5219     		adds	r2, r2, r5
 1211 005a 9200     		lsls	r2, r2, #2
 1212 005c 9559     		ldr	r5, [r2, r6]
 1213              	.LVL135:
 254:main.c        ****     Poblacion[componente][papa]=Poblacion[componente][mama];
 1214              		.loc 1 254 0
 1215 005e 0F00     		movs	r7, r1
 1216 0060 0919     		adds	r1, r1, r4
 1217 0062 8900     		lsls	r1, r1, #2
 1218 0064 8959     		ldr	r1, [r1, r6]
 1219 0066 9151     		str	r1, [r2, r6]
 255:main.c        ****     Poblacion[componente][mama]=New_Componente;
ARM GAS  C:\Users\HENRYA~1\AppData\Local\Temp\ccPSLakD.s 			page 27


 1220              		.loc 1 255 0
 1221 0068 3C19     		adds	r4, r7, r4
 1222              	.LVL136:
 1223 006a A400     		lsls	r4, r4, #2
 1224 006c A551     		str	r5, [r4, r6]
 256:main.c        **** }
 1225              		.loc 1 256 0
 1226              		@ sp needed
 1227              	.LVL137:
 1228 006e F8BD     		pop	{r3, r4, r5, r6, r7, pc}
 1229              	.L72:
 1230              		.align	2
 1231              	.L71:
 1232 0070 00000000 		.word	.LANCHOR1
 1233 0074 00000000 		.word	Poblacion
 1234              		.cfi_endproc
 1235              	.LFE52:
 1236              		.size	Cruce, .-Cruce
 1237              		.section	.text.Mutacion,"ax",%progbits
 1238              		.align	2
 1239              		.global	Mutacion
 1240              		.code	16
 1241              		.thumb_func
 1242              		.type	Mutacion, %function
 1243              	Mutacion:
 1244              	.LFB53:
 257:main.c        **** 
 258:main.c        **** void Mutacion(){
 1245              		.loc 1 258 0
 1246              		.cfi_startproc
 1247              		@ args = 0, pretend = 0, frame = 0
 1248              		@ frame_needed = 0, uses_anonymous_args = 0
 1249 0000 70B5     		push	{r4, r5, r6, lr}
 1250              		.cfi_def_cfa_offset 16
 1251              		.cfi_offset 4, -16
 1252              		.cfi_offset 5, -12
 1253              		.cfi_offset 6, -8
 1254              		.cfi_offset 14, -4
 259:main.c        ****     int Selector=(int)Individuos*randd();
 1255              		.loc 1 259 0
 1256 0002 1F4B     		ldr	r3, .L77
 1257 0004 D868     		ldr	r0, [r3, #12]
 1258 0006 FFF7FEFF 		bl	__aeabi_i2d
 1259              	.LVL138:
 1260 000a 0400     		movs	r4, r0
 1261 000c 0D00     		movs	r5, r1
 1262 000e FFF7FEFF 		bl	randd
 1263              	.LVL139:
 1264 0012 0200     		movs	r2, r0
 1265 0014 0B00     		movs	r3, r1
 1266 0016 2000     		movs	r0, r4
 1267 0018 2900     		movs	r1, r5
 1268 001a FFF7FEFF 		bl	__aeabi_dmul
 1269              	.LVL140:
 1270 001e FFF7FEFF 		bl	__aeabi_d2iz
 1271              	.LVL141:
 1272 0022 0500     		movs	r5, r0
ARM GAS  C:\Users\HENRYA~1\AppData\Local\Temp\ccPSLakD.s 			page 28


 1273              	.LVL142:
 260:main.c        ****     int componente=(int)randd()*2;
 1274              		.loc 1 260 0
 1275 0024 FFF7FEFF 		bl	randd
 1276              	.LVL143:
 1277 0028 FFF7FEFF 		bl	__aeabi_d2iz
 1278              	.LVL144:
 1279 002c 4400     		lsls	r4, r0, #1
 1280              	.LVL145:
 261:main.c        ****     if(componente==0){Poblacion[componente][Selector]=random_amplitud();}
 1281              		.loc 1 261 0
 1282 002e 0BD1     		bne	.L74
 1283              		.loc 1 261 0 is_stmt 0 discriminator 1
 1284 0030 FFF7FEFF 		bl	random_amplitud
 1285              	.LVL146:
 1286 0034 A300     		lsls	r3, r4, #2
 1287 0036 1C19     		adds	r4, r3, r4
 1288              	.LVL147:
 1289 0038 6300     		lsls	r3, r4, #1
 1290 003a 5D19     		adds	r5, r3, r5
 1291              	.LVL148:
 1292 003c AD00     		lsls	r5, r5, #2
 1293 003e FFF7FEFF 		bl	__aeabi_d2f
 1294              	.LVL149:
 1295 0042 104B     		ldr	r3, .L77+4
 1296 0044 E850     		str	r0, [r5, r3]
 1297 0046 1AE0     		b	.L73
 1298              	.LVL150:
 1299              	.L74:
 262:main.c        ****     else if(componente==1){Poblacion[componente][Selector]=random_Fase();}
 1300              		.loc 1 262 0 is_stmt 1
 1301 0048 012C     		cmp	r4, #1
 1302 004a 0BD1     		bne	.L76
 1303              		.loc 1 262 0 is_stmt 0 discriminator 1
 1304 004c FFF7FEFF 		bl	random_Fase
 1305              	.LVL151:
 1306 0050 A300     		lsls	r3, r4, #2
 1307 0052 1C19     		adds	r4, r3, r4
 1308              	.LVL152:
 1309 0054 6300     		lsls	r3, r4, #1
 1310 0056 5D19     		adds	r5, r3, r5
 1311              	.LVL153:
 1312 0058 AD00     		lsls	r5, r5, #2
 1313 005a FFF7FEFF 		bl	__aeabi_d2f
 1314              	.LVL154:
 1315 005e 094B     		ldr	r3, .L77+4
 1316 0060 E850     		str	r0, [r5, r3]
 1317 0062 0CE0     		b	.L73
 1318              	.LVL155:
 1319              	.L76:
 263:main.c        ****     else if(componente==2){Poblacion[componente][Selector]=random_Offset();}
 1320              		.loc 1 263 0 is_stmt 1
 1321 0064 022C     		cmp	r4, #2
 1322 0066 0AD1     		bne	.L73
 1323              		.loc 1 263 0 is_stmt 0 discriminator 1
 1324 0068 FFF7FEFF 		bl	random_Offset
 1325              	.LVL156:
ARM GAS  C:\Users\HENRYA~1\AppData\Local\Temp\ccPSLakD.s 			page 29


 1326 006c A300     		lsls	r3, r4, #2
 1327 006e 1C19     		adds	r4, r3, r4
 1328              	.LVL157:
 1329 0070 6300     		lsls	r3, r4, #1
 1330 0072 5D19     		adds	r5, r3, r5
 1331              	.LVL158:
 1332 0074 AD00     		lsls	r5, r5, #2
 1333 0076 FFF7FEFF 		bl	__aeabi_d2f
 1334              	.LVL159:
 1335 007a 024B     		ldr	r3, .L77+4
 1336 007c E850     		str	r0, [r5, r3]
 1337              	.L73:
 264:main.c        **** }
 1338              		.loc 1 264 0 is_stmt 1
 1339              		@ sp needed
 1340 007e 70BD     		pop	{r4, r5, r6, pc}
 1341              	.L78:
 1342              		.align	2
 1343              	.L77:
 1344 0080 00000000 		.word	.LANCHOR1
 1345 0084 00000000 		.word	Poblacion
 1346              		.cfi_endproc
 1347              	.LFE53:
 1348              		.size	Mutacion, .-Mutacion
 1349              		.section	.text.A_G,"ax",%progbits
 1350              		.align	2
 1351              		.global	A_G
 1352              		.code	16
 1353              		.thumb_func
 1354              		.type	A_G, %function
 1355              	A_G:
 1356              	.LFB54:
 265:main.c        **** 
 266:main.c        **** void A_G(){
 1357              		.loc 1 266 0
 1358              		.cfi_startproc
 1359              		@ args = 0, pretend = 0, frame = 0
 1360              		@ frame_needed = 0, uses_anonymous_args = 0
 1361 0000 10B5     		push	{r4, lr}
 1362              		.cfi_def_cfa_offset 8
 1363              		.cfi_offset 4, -8
 1364              		.cfi_offset 14, -4
 1365              	.LVL160:
 267:main.c        ****     float Prob_c=0.0;
 268:main.c        ****     float Prob_m=0.0;
 269:main.c        ****     if(flag==1){L_actual=Medir_dist();Max_Conta=50;}
 1366              		.loc 1 269 0
 1367 0002 1B4B     		ldr	r3, .L89
 1368 0004 DB68     		ldr	r3, [r3, #12]
 1369 0006 012B     		cmp	r3, #1
 1370 0008 09D1     		bne	.L80
 1371              		.loc 1 269 0 is_stmt 0 discriminator 1
 1372 000a FFF7FEFF 		bl	Medir_dist
 1373              	.LVL161:
 1374 000e FFF7FEFF 		bl	__aeabi_d2f
 1375              	.LVL162:
 1376 0012 174B     		ldr	r3, .L89
ARM GAS  C:\Users\HENRYA~1\AppData\Local\Temp\ccPSLakD.s 			page 30


 1377 0014 1861     		str	r0, [r3, #16]
 1378 0016 3222     		movs	r2, #50
 1379 0018 164B     		ldr	r3, .L89+4
 1380 001a 1A61     		str	r2, [r3, #16]
 1381 001c 27E0     		b	.L79
 1382              	.L80:
 270:main.c        ****     else if(flag==3){
 1383              		.loc 1 270 0 is_stmt 1
 1384 001e 032B     		cmp	r3, #3
 1385 0020 20D1     		bne	.L82
 271:main.c        ****         //Ingrese su Algoritmo Aqui
 272:main.c        ****         Evaluar_Fitness();
 1386              		.loc 1 272 0
 1387 0022 FFF7FEFF 		bl	Evaluar_Fitness
 1388              	.LVL163:
 273:main.c        ****         Prob_c=randd();
 1389              		.loc 1 273 0
 1390 0026 FFF7FEFF 		bl	randd
 1391              	.LVL164:
 1392 002a FFF7FEFF 		bl	__aeabi_d2f
 1393              	.LVL165:
 1394 002e 041C     		adds	r4, r0, #0
 1395              	.LVL166:
 274:main.c        ****         if(Prob_c<Umbral_Cruce){Cruce();}
 1396              		.loc 1 274 0
 1397 0030 104B     		ldr	r3, .L89+4
 1398 0032 5969     		ldr	r1, [r3, #20]
 1399 0034 FFF7FEFF 		bl	__aeabi_fcmplt
 1400              	.LVL167:
 1401 0038 0028     		cmp	r0, #0
 1402 003a 01D0     		beq	.L83
 1403              		.loc 1 274 0 is_stmt 0 discriminator 1
 1404 003c FFF7FEFF 		bl	Cruce
 1405              	.LVL168:
 1406              	.L83:
 275:main.c        ****         Prob_m=randd();
 1407              		.loc 1 275 0 is_stmt 1
 1408 0040 FFF7FEFF 		bl	randd
 1409              	.LVL169:
 276:main.c        ****         if(Prob_c<Umbral_Mutacion){Mutacion();}
 1410              		.loc 1 276 0
 1411 0044 0B4B     		ldr	r3, .L89+4
 1412 0046 9969     		ldr	r1, [r3, #24]
 1413 0048 201C     		adds	r0, r4, #0
 1414 004a FFF7FEFF 		bl	__aeabi_fcmplt
 1415              	.LVL170:
 1416 004e 0028     		cmp	r0, #0
 1417 0050 01D0     		beq	.L85
 1418              		.loc 1 276 0 is_stmt 0 discriminator 1
 1419 0052 FFF7FEFF 		bl	Mutacion
 1420              	.LVL171:
 1421              	.L85:
 277:main.c        ****         Max_Conta=150;
 1422              		.loc 1 277 0 is_stmt 1
 1423 0056 9622     		movs	r2, #150
 1424 0058 064B     		ldr	r3, .L89+4
 1425 005a 1A61     		str	r2, [r3, #16]
ARM GAS  C:\Users\HENRYA~1\AppData\Local\Temp\ccPSLakD.s 			page 31


 278:main.c        ****         flag=0;
 1426              		.loc 1 278 0
 1427 005c 0022     		movs	r2, #0
 1428 005e 044B     		ldr	r3, .L89
 1429 0060 DA60     		str	r2, [r3, #12]
 1430 0062 04E0     		b	.L79
 1431              	.LVL172:
 1432              	.L82:
 279:main.c        ****     }
 280:main.c        ****     else if(flag>3){
 1433              		.loc 1 280 0
 1434 0064 032B     		cmp	r3, #3
 1435 0066 02DD     		ble	.L79
 281:main.c        ****         flag=0;
 1436              		.loc 1 281 0
 1437 0068 0022     		movs	r2, #0
 1438 006a 014B     		ldr	r3, .L89
 1439 006c DA60     		str	r2, [r3, #12]
 1440              	.LVL173:
 1441              	.L79:
 282:main.c        ****     }  
 283:main.c        **** }
 1442              		.loc 1 283 0
 1443              		@ sp needed
 1444 006e 10BD     		pop	{r4, pc}
 1445              	.L90:
 1446              		.align	2
 1447              	.L89:
 1448 0070 00000000 		.word	.LANCHOR0
 1449 0074 00000000 		.word	.LANCHOR1
 1450              		.cfi_endproc
 1451              	.LFE54:
 1452              		.size	A_G, .-A_G
 1453              		.section	.text.Left_Move,"ax",%progbits
 1454              		.align	2
 1455              		.global	Left_Move
 1456              		.code	16
 1457              		.thumb_func
 1458              		.type	Left_Move, %function
 1459              	Left_Move:
 1460              	.LFB55:
 284:main.c        **** 
 285:main.c        **** void Left_Move(){
 1461              		.loc 1 285 0
 1462              		.cfi_startproc
 1463              		@ args = 0, pretend = 0, frame = 0
 1464              		@ frame_needed = 0, uses_anonymous_args = 0
 1465 0000 70B5     		push	{r4, r5, r6, lr}
 1466              		.cfi_def_cfa_offset 16
 1467              		.cfi_offset 4, -16
 1468              		.cfi_offset 5, -12
 1469              		.cfi_offset 6, -8
 1470              		.cfi_offset 14, -4
 286:main.c        ****     Send_Angle(0,200);
 1471              		.loc 1 286 0
 1472 0002 C821     		movs	r1, #200
 1473 0004 0020     		movs	r0, #0
ARM GAS  C:\Users\HENRYA~1\AppData\Local\Temp\ccPSLakD.s 			page 32


 1474 0006 FFF7FEFF 		bl	Send_Angle
 1475              	.LVL174:
 287:main.c        ****     int  i=0;
 288:main.c        ****     int j=0;
 289:main.c        ****     for(i=0;i<cantidadM;i++){ //Alineación
 1476              		.loc 1 289 0
 1477 000a 0024     		movs	r4, #0
 1478 000c 05E0     		b	.L92
 1479              	.LVL175:
 1480              	.L93:
 290:main.c        ****         movimiento(i,512);
 1481              		.loc 1 290 0 discriminator 3
 1482 000e 8021     		movs	r1, #128
 1483 0010 8900     		lsls	r1, r1, #2
 1484 0012 2000     		movs	r0, r4
 1485 0014 FFF7FEFF 		bl	movimiento
 1486              	.LVL176:
 289:main.c        ****         movimiento(i,512);
 1487              		.loc 1 289 0 discriminator 3
 1488 0018 0134     		adds	r4, r4, #1
 1489              	.LVL177:
 1490              	.L92:
 289:main.c        ****         movimiento(i,512);
 1491              		.loc 1 289 0 is_stmt 0 discriminator 1
 1492 001a 304B     		ldr	r3, .L102
 1493 001c 1B68     		ldr	r3, [r3]
 1494 001e 9C42     		cmp	r4, r3
 1495 0020 F5DB     		blt	.L93
 291:main.c        ****         }
 292:main.c        ****     CyDelay(2000);
 1496              		.loc 1 292 0 is_stmt 1
 1497 0022 FA24     		movs	r4, #250
 1498              	.LVL178:
 1499 0024 E400     		lsls	r4, r4, #3
 1500 0026 2000     		movs	r0, r4
 1501 0028 FFF7FEFF 		bl	CyDelay
 1502              	.LVL179:
 293:main.c        ****     movimiento(cantidadM,675);//Ancla Trasera
 1503              		.loc 1 293 0
 1504 002c 2B4B     		ldr	r3, .L102
 1505 002e 1868     		ldr	r0, [r3]
 1506 0030 2B49     		ldr	r1, .L102+4
 1507 0032 FFF7FEFF 		bl	movimiento
 1508              	.LVL180:
 294:main.c        ****     CyDelay(2000);
 1509              		.loc 1 294 0
 1510 0036 2000     		movs	r0, r4
 1511 0038 FFF7FEFF 		bl	CyDelay
 1512              	.LVL181:
 295:main.c        ****     //Giro
 296:main.c        ****     for(j=0;j<1;j++){
 1513              		.loc 1 296 0
 1514 003c 0026     		movs	r6, #0
 1515 003e 35E0     		b	.L94
 1516              	.LVL182:
 1517              	.L95:
 297:main.c        ****         for(i=2;i<cantidadM;i=i+4){ 
ARM GAS  C:\Users\HENRYA~1\AppData\Local\Temp\ccPSLakD.s 			page 33


 298:main.c        ****             movimiento(i,650);
 1518              		.loc 1 298 0 discriminator 3
 1519 0040 2849     		ldr	r1, .L102+8
 1520 0042 2000     		movs	r0, r4
 1521 0044 FFF7FEFF 		bl	movimiento
 1522              	.LVL183:
 299:main.c        ****             movimiento(i+1,750);
 1523              		.loc 1 299 0 discriminator 3
 1524 0048 601C     		adds	r0, r4, #1
 1525 004a 2749     		ldr	r1, .L102+12
 1526 004c FFF7FEFF 		bl	movimiento
 1527              	.LVL184:
 297:main.c        ****         for(i=2;i<cantidadM;i=i+4){ 
 1528              		.loc 1 297 0 discriminator 3
 1529 0050 0434     		adds	r4, r4, #4
 1530              	.LVL185:
 1531 0052 00E0     		b	.L98
 1532              	.LVL186:
 1533              	.L101:
 1534 0054 0224     		movs	r4, #2
 1535              	.L98:
 1536              	.LVL187:
 297:main.c        ****         for(i=2;i<cantidadM;i=i+4){ 
 1537              		.loc 1 297 0 is_stmt 0 discriminator 1
 1538 0056 214B     		ldr	r3, .L102
 1539 0058 1868     		ldr	r0, [r3]
 1540 005a 8442     		cmp	r4, r0
 1541 005c F0DB     		blt	.L95
 300:main.c        ****             }
 301:main.c        ****         movimiento(cantidadM,512);//Ancla Trasera
 1542              		.loc 1 301 0 is_stmt 1
 1543 005e 8021     		movs	r1, #128
 1544 0060 8900     		lsls	r1, r1, #2
 1545 0062 FFF7FEFF 		bl	movimiento
 1546              	.LVL188:
 302:main.c        ****         CyDelay(2000);
 1547              		.loc 1 302 0
 1548 0066 FA24     		movs	r4, #250
 1549              	.LVL189:
 1550 0068 E400     		lsls	r4, r4, #3
 1551 006a 2000     		movs	r0, r4
 1552 006c FFF7FEFF 		bl	CyDelay
 1553              	.LVL190:
 303:main.c        ****         movimiento(0,350);//Ancla Delantera
 1554              		.loc 1 303 0
 1555 0070 AF21     		movs	r1, #175
 1556 0072 4900     		lsls	r1, r1, #1
 1557 0074 0020     		movs	r0, #0
 1558 0076 FFF7FEFF 		bl	movimiento
 1559              	.LVL191:
 304:main.c        ****         CyDelay(2000);
 1560              		.loc 1 304 0
 1561 007a 2000     		movs	r0, r4
 1562 007c FFF7FEFF 		bl	CyDelay
 1563              	.LVL192:
 305:main.c        ****         for(i=2;i<cantidadM;i=i+4){ //Alineación
 1564              		.loc 1 305 0
ARM GAS  C:\Users\HENRYA~1\AppData\Local\Temp\ccPSLakD.s 			page 34


 1565 0080 0224     		movs	r4, #2
 1566 0082 0AE0     		b	.L96
 1567              	.LVL193:
 1568              	.L97:
 306:main.c        ****             movimiento(i,512);
 1569              		.loc 1 306 0 discriminator 3
 1570 0084 8025     		movs	r5, #128
 1571 0086 AD00     		lsls	r5, r5, #2
 1572 0088 2900     		movs	r1, r5
 1573 008a 2000     		movs	r0, r4
 1574 008c FFF7FEFF 		bl	movimiento
 1575              	.LVL194:
 307:main.c        ****             movimiento(i+1,512);
 1576              		.loc 1 307 0 discriminator 3
 1577 0090 601C     		adds	r0, r4, #1
 1578 0092 2900     		movs	r1, r5
 1579 0094 FFF7FEFF 		bl	movimiento
 1580              	.LVL195:
 305:main.c        ****         for(i=2;i<cantidadM;i=i+4){ //Alineación
 1581              		.loc 1 305 0 discriminator 3
 1582 0098 0434     		adds	r4, r4, #4
 1583              	.LVL196:
 1584              	.L96:
 305:main.c        ****         for(i=2;i<cantidadM;i=i+4){ //Alineación
 1585              		.loc 1 305 0 is_stmt 0 discriminator 1
 1586 009a 104B     		ldr	r3, .L102
 1587 009c 1B68     		ldr	r3, [r3]
 1588 009e 9C42     		cmp	r4, r3
 1589 00a0 F0DB     		blt	.L97
 308:main.c        ****         }    
 309:main.c        ****         CyDelay(2000);
 1590              		.loc 1 309 0 is_stmt 1 discriminator 2
 1591 00a2 FA20     		movs	r0, #250
 1592 00a4 C000     		lsls	r0, r0, #3
 1593 00a6 FFF7FEFF 		bl	CyDelay
 1594              	.LVL197:
 296:main.c        ****         for(i=2;i<cantidadM;i=i+4){ 
 1595              		.loc 1 296 0 discriminator 2
 1596 00aa 0136     		adds	r6, r6, #1
 1597              	.LVL198:
 1598              	.L94:
 296:main.c        ****         for(i=2;i<cantidadM;i=i+4){ 
 1599              		.loc 1 296 0 is_stmt 0 discriminator 1
 1600 00ac 002E     		cmp	r6, #0
 1601 00ae D1DD     		ble	.L101
 1602 00b0 0024     		movs	r4, #0
 1603 00b2 05E0     		b	.L99
 1604              	.LVL199:
 1605              	.L100:
 310:main.c        ****     }         
 311:main.c        ****     for(i=0;i<cantidadM;i++){ //Alineación
 312:main.c        ****         movimiento(i,512);
 1606              		.loc 1 312 0 is_stmt 1 discriminator 3
 1607 00b4 8021     		movs	r1, #128
 1608 00b6 8900     		lsls	r1, r1, #2
 1609 00b8 2000     		movs	r0, r4
 1610 00ba FFF7FEFF 		bl	movimiento
ARM GAS  C:\Users\HENRYA~1\AppData\Local\Temp\ccPSLakD.s 			page 35


 1611              	.LVL200:
 311:main.c        ****         movimiento(i,512);
 1612              		.loc 1 311 0 discriminator 3
 1613 00be 0134     		adds	r4, r4, #1
 1614              	.LVL201:
 1615              	.L99:
 311:main.c        ****         movimiento(i,512);
 1616              		.loc 1 311 0 is_stmt 0 discriminator 1
 1617 00c0 064B     		ldr	r3, .L102
 1618 00c2 1B68     		ldr	r3, [r3]
 1619 00c4 9C42     		cmp	r4, r3
 1620 00c6 F5DB     		blt	.L100
 313:main.c        ****         }
 314:main.c        ****     CyDelay(2000); 
 1621              		.loc 1 314 0 is_stmt 1
 1622 00c8 FA20     		movs	r0, #250
 1623 00ca C000     		lsls	r0, r0, #3
 1624 00cc FFF7FEFF 		bl	CyDelay
 1625              	.LVL202:
 315:main.c        ****     Send_Angle(0,0);
 1626              		.loc 1 315 0
 1627 00d0 0021     		movs	r1, #0
 1628 00d2 0020     		movs	r0, #0
 1629 00d4 FFF7FEFF 		bl	Send_Angle
 1630              	.LVL203:
 316:main.c        **** }
 1631              		.loc 1 316 0
 1632              		@ sp needed
 1633              	.LVL204:
 1634              	.LVL205:
 1635 00d8 70BD     		pop	{r4, r5, r6, pc}
 1636              	.L103:
 1637 00da C046     		.align	2
 1638              	.L102:
 1639 00dc 00000000 		.word	.LANCHOR0
 1640 00e0 A3020000 		.word	675
 1641 00e4 8A020000 		.word	650
 1642 00e8 EE020000 		.word	750
 1643              		.cfi_endproc
 1644              	.LFE55:
 1645              		.size	Left_Move, .-Left_Move
 1646              		.section	.text.Right_Move,"ax",%progbits
 1647              		.align	2
 1648              		.global	Right_Move
 1649              		.code	16
 1650              		.thumb_func
 1651              		.type	Right_Move, %function
 1652              	Right_Move:
 1653              	.LFB56:
 317:main.c        **** 
 318:main.c        **** void Right_Move(){
 1654              		.loc 1 318 0
 1655              		.cfi_startproc
 1656              		@ args = 0, pretend = 0, frame = 0
 1657              		@ frame_needed = 0, uses_anonymous_args = 0
 1658 0000 70B5     		push	{r4, r5, r6, lr}
 1659              		.cfi_def_cfa_offset 16
ARM GAS  C:\Users\HENRYA~1\AppData\Local\Temp\ccPSLakD.s 			page 36


 1660              		.cfi_offset 4, -16
 1661              		.cfi_offset 5, -12
 1662              		.cfi_offset 6, -8
 1663              		.cfi_offset 14, -4
 319:main.c        ****     Send_Angle(0,200);
 1664              		.loc 1 319 0
 1665 0002 C821     		movs	r1, #200
 1666 0004 0020     		movs	r0, #0
 1667 0006 FFF7FEFF 		bl	Send_Angle
 1668              	.LVL206:
 320:main.c        ****     int  i=0;
 321:main.c        ****     int j=0;
 322:main.c        ****     for(i=0;i<cantidadM;i++){ //Alineación
 1669              		.loc 1 322 0
 1670 000a 0024     		movs	r4, #0
 1671 000c 05E0     		b	.L105
 1672              	.LVL207:
 1673              	.L106:
 323:main.c        ****         movimiento(i,512);
 1674              		.loc 1 323 0 discriminator 3
 1675 000e 8021     		movs	r1, #128
 1676 0010 8900     		lsls	r1, r1, #2
 1677 0012 2000     		movs	r0, r4
 1678 0014 FFF7FEFF 		bl	movimiento
 1679              	.LVL208:
 322:main.c        ****         movimiento(i,512);
 1680              		.loc 1 322 0 discriminator 3
 1681 0018 0134     		adds	r4, r4, #1
 1682              	.LVL209:
 1683              	.L105:
 322:main.c        ****         movimiento(i,512);
 1684              		.loc 1 322 0 is_stmt 0 discriminator 1
 1685 001a 314B     		ldr	r3, .L115
 1686 001c 1B68     		ldr	r3, [r3]
 1687 001e 9C42     		cmp	r4, r3
 1688 0020 F5DB     		blt	.L106
 324:main.c        ****         }
 325:main.c        ****     CyDelay(2000);
 1689              		.loc 1 325 0 is_stmt 1
 1690 0022 FA24     		movs	r4, #250
 1691              	.LVL210:
 1692 0024 E400     		lsls	r4, r4, #3
 1693 0026 2000     		movs	r0, r4
 1694 0028 FFF7FEFF 		bl	CyDelay
 1695              	.LVL211:
 326:main.c        ****     movimiento(cantidadM,675);//Ancla Trasera
 1696              		.loc 1 326 0
 1697 002c 2C4B     		ldr	r3, .L115
 1698 002e 1868     		ldr	r0, [r3]
 1699 0030 2C49     		ldr	r1, .L115+4
 1700 0032 FFF7FEFF 		bl	movimiento
 1701              	.LVL212:
 327:main.c        ****     CyDelay(2000);
 1702              		.loc 1 327 0
 1703 0036 2000     		movs	r0, r4
 1704 0038 FFF7FEFF 		bl	CyDelay
 1705              	.LVL213:
ARM GAS  C:\Users\HENRYA~1\AppData\Local\Temp\ccPSLakD.s 			page 37


 328:main.c        ****     //Giro
 329:main.c        ****     for(j=0;j<1;j++){
 1706              		.loc 1 329 0
 1707 003c 0026     		movs	r6, #0
 1708 003e 37E0     		b	.L107
 1709              	.LVL214:
 1710              	.L108:
 330:main.c        ****         for(i=2;i<cantidadM;i=i+4){ 
 331:main.c        ****             movimiento(i,374);
 1711              		.loc 1 331 0 discriminator 3
 1712 0040 BB21     		movs	r1, #187
 1713 0042 4900     		lsls	r1, r1, #1
 1714 0044 2000     		movs	r0, r4
 1715 0046 FFF7FEFF 		bl	movimiento
 1716              	.LVL215:
 332:main.c        ****             movimiento(i+1,274);
 1717              		.loc 1 332 0 discriminator 3
 1718 004a 601C     		adds	r0, r4, #1
 1719 004c 8921     		movs	r1, #137
 1720 004e 4900     		lsls	r1, r1, #1
 1721 0050 FFF7FEFF 		bl	movimiento
 1722              	.LVL216:
 330:main.c        ****         for(i=2;i<cantidadM;i=i+4){ 
 1723              		.loc 1 330 0 discriminator 3
 1724 0054 0434     		adds	r4, r4, #4
 1725              	.LVL217:
 1726 0056 00E0     		b	.L111
 1727              	.LVL218:
 1728              	.L114:
 1729 0058 0224     		movs	r4, #2
 1730              	.L111:
 1731              	.LVL219:
 330:main.c        ****         for(i=2;i<cantidadM;i=i+4){ 
 1732              		.loc 1 330 0 is_stmt 0 discriminator 1
 1733 005a 214B     		ldr	r3, .L115
 1734 005c 1868     		ldr	r0, [r3]
 1735 005e 8442     		cmp	r4, r0
 1736 0060 EEDB     		blt	.L108
 333:main.c        ****             }
 334:main.c        ****         movimiento(cantidadM,512);//Ancla Trasera
 1737              		.loc 1 334 0 is_stmt 1
 1738 0062 8021     		movs	r1, #128
 1739 0064 8900     		lsls	r1, r1, #2
 1740 0066 FFF7FEFF 		bl	movimiento
 1741              	.LVL220:
 335:main.c        ****         CyDelay(2000);
 1742              		.loc 1 335 0
 1743 006a FA24     		movs	r4, #250
 1744              	.LVL221:
 1745 006c E400     		lsls	r4, r4, #3
 1746 006e 2000     		movs	r0, r4
 1747 0070 FFF7FEFF 		bl	CyDelay
 1748              	.LVL222:
 336:main.c        ****         movimiento(0,350);//Ancla Delantera
 1749              		.loc 1 336 0
 1750 0074 AF21     		movs	r1, #175
 1751 0076 4900     		lsls	r1, r1, #1
ARM GAS  C:\Users\HENRYA~1\AppData\Local\Temp\ccPSLakD.s 			page 38


 1752 0078 0020     		movs	r0, #0
 1753 007a FFF7FEFF 		bl	movimiento
 1754              	.LVL223:
 337:main.c        ****         CyDelay(2000);
 1755              		.loc 1 337 0
 1756 007e 2000     		movs	r0, r4
 1757 0080 FFF7FEFF 		bl	CyDelay
 1758              	.LVL224:
 338:main.c        ****         for(i=2;i<cantidadM;i=i+4){ //Alineación
 1759              		.loc 1 338 0
 1760 0084 0224     		movs	r4, #2
 1761 0086 0AE0     		b	.L109
 1762              	.LVL225:
 1763              	.L110:
 339:main.c        ****             movimiento(i,512);
 1764              		.loc 1 339 0 discriminator 3
 1765 0088 8025     		movs	r5, #128
 1766 008a AD00     		lsls	r5, r5, #2
 1767 008c 2900     		movs	r1, r5
 1768 008e 2000     		movs	r0, r4
 1769 0090 FFF7FEFF 		bl	movimiento
 1770              	.LVL226:
 340:main.c        ****             movimiento(i+1,512);
 1771              		.loc 1 340 0 discriminator 3
 1772 0094 601C     		adds	r0, r4, #1
 1773 0096 2900     		movs	r1, r5
 1774 0098 FFF7FEFF 		bl	movimiento
 1775              	.LVL227:
 338:main.c        ****         for(i=2;i<cantidadM;i=i+4){ //Alineación
 1776              		.loc 1 338 0 discriminator 3
 1777 009c 0434     		adds	r4, r4, #4
 1778              	.LVL228:
 1779              	.L109:
 338:main.c        ****         for(i=2;i<cantidadM;i=i+4){ //Alineación
 1780              		.loc 1 338 0 is_stmt 0 discriminator 1
 1781 009e 104B     		ldr	r3, .L115
 1782 00a0 1B68     		ldr	r3, [r3]
 1783 00a2 9C42     		cmp	r4, r3
 1784 00a4 F0DB     		blt	.L110
 341:main.c        ****         }    
 342:main.c        ****         CyDelay(2000);
 1785              		.loc 1 342 0 is_stmt 1 discriminator 2
 1786 00a6 FA20     		movs	r0, #250
 1787 00a8 C000     		lsls	r0, r0, #3
 1788 00aa FFF7FEFF 		bl	CyDelay
 1789              	.LVL229:
 329:main.c        ****         for(i=2;i<cantidadM;i=i+4){ 
 1790              		.loc 1 329 0 discriminator 2
 1791 00ae 0136     		adds	r6, r6, #1
 1792              	.LVL230:
 1793              	.L107:
 329:main.c        ****         for(i=2;i<cantidadM;i=i+4){ 
 1794              		.loc 1 329 0 is_stmt 0 discriminator 1
 1795 00b0 002E     		cmp	r6, #0
 1796 00b2 D1DD     		ble	.L114
 1797 00b4 0024     		movs	r4, #0
 1798 00b6 05E0     		b	.L112
ARM GAS  C:\Users\HENRYA~1\AppData\Local\Temp\ccPSLakD.s 			page 39


 1799              	.LVL231:
 1800              	.L113:
 343:main.c        ****     }         
 344:main.c        ****     for(i=0;i<cantidadM;i++){ //Alineación
 345:main.c        ****         movimiento(i,512);
 1801              		.loc 1 345 0 is_stmt 1 discriminator 3
 1802 00b8 8021     		movs	r1, #128
 1803 00ba 8900     		lsls	r1, r1, #2
 1804 00bc 2000     		movs	r0, r4
 1805 00be FFF7FEFF 		bl	movimiento
 1806              	.LVL232:
 344:main.c        ****         movimiento(i,512);
 1807              		.loc 1 344 0 discriminator 3
 1808 00c2 0134     		adds	r4, r4, #1
 1809              	.LVL233:
 1810              	.L112:
 344:main.c        ****         movimiento(i,512);
 1811              		.loc 1 344 0 is_stmt 0 discriminator 1
 1812 00c4 064B     		ldr	r3, .L115
 1813 00c6 1B68     		ldr	r3, [r3]
 1814 00c8 9C42     		cmp	r4, r3
 1815 00ca F5DB     		blt	.L113
 346:main.c        ****         }
 347:main.c        ****     CyDelay(2000); 
 1816              		.loc 1 347 0 is_stmt 1
 1817 00cc FA20     		movs	r0, #250
 1818 00ce C000     		lsls	r0, r0, #3
 1819 00d0 FFF7FEFF 		bl	CyDelay
 1820              	.LVL234:
 348:main.c        ****     Send_Angle(0,0);
 1821              		.loc 1 348 0
 1822 00d4 0021     		movs	r1, #0
 1823 00d6 0020     		movs	r0, #0
 1824 00d8 FFF7FEFF 		bl	Send_Angle
 1825              	.LVL235:
 349:main.c        **** }
 1826              		.loc 1 349 0
 1827              		@ sp needed
 1828              	.LVL236:
 1829              	.LVL237:
 1830 00dc 70BD     		pop	{r4, r5, r6, pc}
 1831              	.L116:
 1832 00de C046     		.align	2
 1833              	.L115:
 1834 00e0 00000000 		.word	.LANCHOR0
 1835 00e4 A3020000 		.word	675
 1836              		.cfi_endproc
 1837              	.LFE56:
 1838              		.size	Right_Move, .-Right_Move
 1839              		.section	.text.Select_Move,"ax",%progbits
 1840              		.align	2
 1841              		.global	Select_Move
 1842              		.code	16
 1843              		.thumb_func
 1844              		.type	Select_Move, %function
 1845              	Select_Move:
 1846              	.LFB57:
ARM GAS  C:\Users\HENRYA~1\AppData\Local\Temp\ccPSLakD.s 			page 40


 350:main.c        **** 
 351:main.c        **** void Select_Move(){
 1847              		.loc 1 351 0
 1848              		.cfi_startproc
 1849              		@ args = 0, pretend = 0, frame = 8
 1850              		@ frame_needed = 0, uses_anonymous_args = 0
 1851 0000 D0B5     		push	{r4, r6, r7, lr}
 1852              		.cfi_def_cfa_offset 16
 1853              		.cfi_offset 4, -16
 1854              		.cfi_offset 6, -12
 1855              		.cfi_offset 7, -8
 1856              		.cfi_offset 14, -4
 1857 0002 82B0     		sub	sp, sp, #8
 1858              		.cfi_def_cfa_offset 24
 352:main.c        ****     Send_Angle(0,200);
 1859              		.loc 1 352 0
 1860 0004 C821     		movs	r1, #200
 1861 0006 0020     		movs	r0, #0
 1862 0008 FFF7FEFF 		bl	Send_Angle
 1863              	.LVL238:
 353:main.c        ****     int  i=0;
 354:main.c        ****     for(i=0;i<cantidadM;i++){ //Alineación
 1864              		.loc 1 354 0
 1865 000c 0024     		movs	r4, #0
 1866 000e 05E0     		b	.L118
 1867              	.LVL239:
 1868              	.L119:
 355:main.c        ****         movimiento(i,512);
 1869              		.loc 1 355 0 discriminator 3
 1870 0010 8021     		movs	r1, #128
 1871 0012 8900     		lsls	r1, r1, #2
 1872 0014 2000     		movs	r0, r4
 1873 0016 FFF7FEFF 		bl	movimiento
 1874              	.LVL240:
 354:main.c        ****         movimiento(i,512);
 1875              		.loc 1 354 0 discriminator 3
 1876 001a 0134     		adds	r4, r4, #1
 1877              	.LVL241:
 1878              	.L118:
 354:main.c        ****         movimiento(i,512);
 1879              		.loc 1 354 0 is_stmt 0 discriminator 1
 1880 001c 174B     		ldr	r3, .L125
 1881 001e 1B68     		ldr	r3, [r3]
 1882 0020 9C42     		cmp	r4, r3
 1883 0022 F5DB     		blt	.L119
 356:main.c        ****         }
 357:main.c        ****     CyDelay(2000);
 1884              		.loc 1 357 0 is_stmt 1
 1885 0024 FA20     		movs	r0, #250
 1886 0026 C000     		lsls	r0, r0, #3
 1887 0028 FFF7FEFF 		bl	CyDelay
 1888              	.LVL242:
 358:main.c        ****     movimiento(2,650);
 1889              		.loc 1 358 0
 1890 002c 1449     		ldr	r1, .L125+4
 1891 002e 0220     		movs	r0, #2
 1892 0030 FFF7FEFF 		bl	movimiento
ARM GAS  C:\Users\HENRYA~1\AppData\Local\Temp\ccPSLakD.s 			page 41


 1893              	.LVL243:
 359:main.c        ****     CyDelay(4000);
 1894              		.loc 1 359 0
 1895 0034 FA24     		movs	r4, #250
 1896              	.LVL244:
 1897 0036 2401     		lsls	r4, r4, #4
 1898 0038 2000     		movs	r0, r4
 1899 003a FFF7FEFF 		bl	CyDelay
 1900              	.LVL245:
 360:main.c        ****     double a=Medir_dist();
 1901              		.loc 1 360 0
 1902 003e FFF7FEFF 		bl	Medir_dist
 1903              	.LVL246:
 1904 0042 0600     		movs	r6, r0
 1905 0044 0F00     		movs	r7, r1
 1906              	.LVL247:
 361:main.c        ****     movimiento(2,374);
 1907              		.loc 1 361 0
 1908 0046 BB21     		movs	r1, #187
 1909 0048 4900     		lsls	r1, r1, #1
 1910 004a 0220     		movs	r0, #2
 1911 004c FFF7FEFF 		bl	movimiento
 1912              	.LVL248:
 362:main.c        ****     double b=Medir_dist();
 1913              		.loc 1 362 0
 1914 0050 FFF7FEFF 		bl	Medir_dist
 1915              	.LVL249:
 1916 0054 0090     		str	r0, [sp]
 1917 0056 0191     		str	r1, [sp, #4]
 1918              	.LVL250:
 363:main.c        ****     CyDelay(4000);
 1919              		.loc 1 363 0
 1920 0058 2000     		movs	r0, r4
 1921              	.LVL251:
 1922 005a FFF7FEFF 		bl	CyDelay
 1923              	.LVL252:
 364:main.c        ****     if(a<b){
 1924              		.loc 1 364 0
 1925 005e 009A     		ldr	r2, [sp]
 1926 0060 019B     		ldr	r3, [sp, #4]
 1927 0062 3000     		movs	r0, r6
 1928 0064 3900     		movs	r1, r7
 1929 0066 FFF7FEFF 		bl	__aeabi_dcmplt
 1930              	.LVL253:
 1931 006a 0028     		cmp	r0, #0
 1932 006c 02D0     		beq	.L124
 365:main.c        ****         Left_Move();    
 1933              		.loc 1 365 0
 1934 006e FFF7FEFF 		bl	Left_Move
 1935              	.LVL254:
 1936 0072 01E0     		b	.L117
 1937              	.L124:
 366:main.c        ****     }
 367:main.c        ****     else{
 368:main.c        ****         Right_Move();
 1938              		.loc 1 368 0
 1939 0074 FFF7FEFF 		bl	Right_Move
ARM GAS  C:\Users\HENRYA~1\AppData\Local\Temp\ccPSLakD.s 			page 42


 1940              	.LVL255:
 1941              	.L117:
 369:main.c        ****     }
 370:main.c        **** }
 1942              		.loc 1 370 0
 1943 0078 02B0     		add	sp, sp, #8
 1944              	.LVL256:
 1945              		@ sp needed
 1946              	.LVL257:
 1947 007a D0BD     		pop	{r4, r6, r7, pc}
 1948              	.L126:
 1949              		.align	2
 1950              	.L125:
 1951 007c 00000000 		.word	.LANCHOR0
 1952 0080 8A020000 		.word	650
 1953              		.cfi_endproc
 1954              	.LFE57:
 1955              		.size	Select_Move, .-Select_Move
 1956              		.section	.text.Temporizador,"ax",%progbits
 1957              		.align	2
 1958              		.global	Temporizador
 1959              		.code	16
 1960              		.thumb_func
 1961              		.type	Temporizador, %function
 1962              	Temporizador:
 1963              	.LFB58:
 371:main.c        **** 
 372:main.c        **** //Interrupt's
 373:main.c        **** CY_ISR(Temporizador){
 1964              		.loc 1 373 0
 1965              		.cfi_startproc
 1966              		@ args = 0, pretend = 0, frame = 0
 1967              		@ frame_needed = 0, uses_anonymous_args = 0
 1968 0000 70B5     		push	{r4, r5, r6, lr}
 1969              		.cfi_def_cfa_offset 16
 1970              		.cfi_offset 4, -16
 1971              		.cfi_offset 5, -12
 1972              		.cfi_offset 6, -8
 1973              		.cfi_offset 14, -4
 374:main.c        ****     conta++;
 1974              		.loc 1 374 0
 1975 0002 2C4A     		ldr	r2, .L135
 1976 0004 938A     		ldrh	r3, [r2, #20]
 1977 0006 0133     		adds	r3, r3, #1
 1978 0008 1BB2     		sxth	r3, r3
 1979 000a 9382     		strh	r3, [r2, #20]
 375:main.c        ****     if(conta==Max_Conta){     
 1980              		.loc 1 375 0
 1981 000c 2A4A     		ldr	r2, .L135+4
 1982 000e 1269     		ldr	r2, [r2, #16]
 1983 0010 9342     		cmp	r3, r2
 1984 0012 4BD1     		bne	.L128
 376:main.c        ****         LED_1_Write(1);
 1985              		.loc 1 376 0
 1986 0014 0120     		movs	r0, #1
 1987 0016 FFF7FEFF 		bl	LED_1_Write
 1988              	.LVL258:
ARM GAS  C:\Users\HENRYA~1\AppData\Local\Temp\ccPSLakD.s 			page 43


 377:main.c        ****         if(Cantidad_Sensores==2&&dist<20){
 1989              		.loc 1 377 0
 1990 001a 264B     		ldr	r3, .L135
 1991 001c 5B68     		ldr	r3, [r3, #4]
 1992 001e 022B     		cmp	r3, #2
 1993 0020 06D1     		bne	.L129
 1994              		.loc 1 377 0 is_stmt 0 discriminator 1
 1995 0022 244A     		ldr	r2, .L135
 1996 0024 127A     		ldrb	r2, [r2, #8]
 1997 0026 132A     		cmp	r2, #19
 1998 0028 02D8     		bhi	.L129
 378:main.c        ****             Select_Move();      
 1999              		.loc 1 378 0 is_stmt 1
 2000 002a FFF7FEFF 		bl	Select_Move
 2001              	.LVL259:
 2002 002e 39E0     		b	.L130
 2003              	.L129:
 379:main.c        ****         }
 380:main.c        ****         else if(Cantidad_Sensores==3){//Izquierda
 2004              		.loc 1 380 0
 2005 0030 032B     		cmp	r3, #3
 2006 0032 02D1     		bne	.L131
 381:main.c        ****             Left_Move();
 2007              		.loc 1 381 0
 2008 0034 FFF7FEFF 		bl	Left_Move
 2009              	.LVL260:
 2010 0038 34E0     		b	.L130
 2011              	.L131:
 382:main.c        ****         }
 383:main.c        ****         else if(Cantidad_Sensores==6){//Derecha
 2012              		.loc 1 383 0
 2013 003a 062B     		cmp	r3, #6
 2014 003c 02D1     		bne	.L132
 384:main.c        ****             Right_Move();           
 2015              		.loc 1 384 0
 2016 003e FFF7FEFF 		bl	Right_Move
 2017              	.LVL261:
 2018 0042 2FE0     		b	.L130
 2019              	.L132:
 385:main.c        ****         }
 386:main.c        ****         else if(Cantidad_Sensores==7){//Reversa
 2020              		.loc 1 386 0
 2021 0044 072B     		cmp	r3, #7
 2022 0046 16D1     		bne	.L133
 387:main.c        ****             Enviar_Parametros(0.8,0.833,0.5,V); 
 2023              		.loc 1 387 0
 2024 0048 FC25     		movs	r5, #252
 2025 004a AD05     		lsls	r5, r5, #22
 2026 004c 1B4C     		ldr	r4, .L135+8
 2027 004e 1A33     		adds	r3, r3, #26
 2028 0050 2A1C     		adds	r2, r5, #0
 2029 0052 211C     		adds	r1, r4, #0
 2030 0054 1A48     		ldr	r0, .L135+12
 2031 0056 FFF7FEFF 		bl	Enviar_Parametros
 2032              	.LVL262:
 388:main.c        ****             CyDelay(1000);
 2033              		.loc 1 388 0
ARM GAS  C:\Users\HENRYA~1\AppData\Local\Temp\ccPSLakD.s 			page 44


 2034 005a FA20     		movs	r0, #250
 2035 005c 8000     		lsls	r0, r0, #2
 2036 005e FFF7FEFF 		bl	CyDelay
 2037              	.LVL263:
 389:main.c        ****             Enviar_Parametros(0.0,0.833,0.5,H);
 2038              		.loc 1 389 0
 2039 0062 2023     		movs	r3, #32
 2040 0064 2A1C     		adds	r2, r5, #0
 2041 0066 211C     		adds	r1, r4, #0
 2042 0068 0020     		movs	r0, #0
 2043 006a FFF7FEFF 		bl	Enviar_Parametros
 2044              	.LVL264:
 390:main.c        ****             CyDelay(15000);
 2045              		.loc 1 390 0
 2046 006e 1548     		ldr	r0, .L135+16
 2047 0070 FFF7FEFF 		bl	CyDelay
 2048              	.LVL265:
 2049 0074 16E0     		b	.L130
 2050              	.L133:
 391:main.c        ****         }
 392:main.c        ****         else{   //Adelante
 393:main.c        ****             flag++;      
 2051              		.loc 1 393 0
 2052 0076 0F4A     		ldr	r2, .L135
 2053 0078 D368     		ldr	r3, [r2, #12]
 2054 007a 0133     		adds	r3, r3, #1
 2055 007c D360     		str	r3, [r2, #12]
 394:main.c        ****             A_G();
 2056              		.loc 1 394 0
 2057 007e FFF7FEFF 		bl	A_G
 2058              	.LVL266:
 395:main.c        ****             Enviar_Parametros(0.0,fase,offset,H);
 2059              		.loc 1 395 0
 2060 0082 0D4C     		ldr	r4, .L135+4
 2061 0084 2023     		movs	r3, #32
 2062 0086 2268     		ldr	r2, [r4]
 2063 0088 6168     		ldr	r1, [r4, #4]
 2064 008a 0020     		movs	r0, #0
 2065 008c FFF7FEFF 		bl	Enviar_Parametros
 2066              	.LVL267:
 396:main.c        ****             CyDelay(1000);
 2067              		.loc 1 396 0
 2068 0090 FA20     		movs	r0, #250
 2069 0092 8000     		lsls	r0, r0, #2
 2070 0094 FFF7FEFF 		bl	CyDelay
 2071              	.LVL268:
 397:main.c        ****             Enviar_Parametros(amplitud,fase,offset,V);   
 2072              		.loc 1 397 0
 2073 0098 2268     		ldr	r2, [r4]
 2074 009a 6168     		ldr	r1, [r4, #4]
 2075 009c A068     		ldr	r0, [r4, #8]
 2076 009e 2123     		movs	r3, #33
 2077 00a0 FFF7FEFF 		bl	Enviar_Parametros
 2078              	.LVL269:
 2079              	.L130:
 398:main.c        ****         }
 399:main.c        ****         conta=0;
ARM GAS  C:\Users\HENRYA~1\AppData\Local\Temp\ccPSLakD.s 			page 45


 2080              		.loc 1 399 0
 2081 00a4 0022     		movs	r2, #0
 2082 00a6 034B     		ldr	r3, .L135
 2083 00a8 9A82     		strh	r2, [r3, #20]
 2084 00aa 02E0     		b	.L127
 2085              	.L128:
 400:main.c        ****     }
 401:main.c        ****     else{
 402:main.c        ****         LED_1_Write(0);
 2086              		.loc 1 402 0
 2087 00ac 0020     		movs	r0, #0
 2088 00ae FFF7FEFF 		bl	LED_1_Write
 2089              	.LVL270:
 2090              	.L127:
 403:main.c        ****     }  
 404:main.c        **** }
 2091              		.loc 1 404 0
 2092              		@ sp needed
 2093 00b2 70BD     		pop	{r4, r5, r6, pc}
 2094              	.L136:
 2095              		.align	2
 2096              	.L135:
 2097 00b4 00000000 		.word	.LANCHOR0
 2098 00b8 00000000 		.word	.LANCHOR1
 2099 00bc 7D3F553F 		.word	1062551421
 2100 00c0 CDCC4C3F 		.word	1061997773
 2101 00c4 983A0000 		.word	15000
 2102              		.cfi_endproc
 2103              	.LFE58:
 2104              		.size	Temporizador, .-Temporizador
 2105              		.section	.text.Serial_Interrupt,"ax",%progbits
 2106              		.align	2
 2107              		.global	Serial_Interrupt
 2108              		.code	16
 2109              		.thumb_func
 2110              		.type	Serial_Interrupt, %function
 2111              	Serial_Interrupt:
 2112              	.LFB59:
 405:main.c        **** 
 406:main.c        **** CY_ISR(Serial_Interrupt){
 2113              		.loc 1 406 0
 2114              		.cfi_startproc
 2115              		@ args = 0, pretend = 0, frame = 0
 2116              		@ frame_needed = 0, uses_anonymous_args = 0
 2117 0000 10B5     		push	{r4, lr}
 2118              		.cfi_def_cfa_offset 8
 2119              		.cfi_offset 4, -8
 2120              		.cfi_offset 14, -4
 407:main.c        ****     dist=SENSOR_U_GetChar();
 2121              		.loc 1 407 0
 2122 0002 FFF7FEFF 		bl	SENSOR_U_GetChar
 2123              	.LVL271:
 2124 0006 014B     		ldr	r3, .L138
 2125 0008 1872     		strb	r0, [r3, #8]
 408:main.c        **** }
 2126              		.loc 1 408 0
 2127              		@ sp needed
ARM GAS  C:\Users\HENRYA~1\AppData\Local\Temp\ccPSLakD.s 			page 46


 2128 000a 10BD     		pop	{r4, pc}
 2129              	.L139:
 2130              		.align	2
 2131              	.L138:
 2132 000c 00000000 		.word	.LANCHOR0
 2133              		.cfi_endproc
 2134              	.LFE59:
 2135              		.size	Serial_Interrupt, .-Serial_Interrupt
 2136              		.section	.text.main,"ax",%progbits
 2137              		.align	2
 2138              		.global	main
 2139              		.code	16
 2140              		.thumb_func
 2141              		.type	main, %function
 2142              	main:
 2143              	.LFB60:
 409:main.c        **** 
 410:main.c        **** int main()
 411:main.c        **** {
 2144              		.loc 1 411 0
 2145              		.cfi_startproc
 2146              		@ args = 0, pretend = 0, frame = 0
 2147              		@ frame_needed = 0, uses_anonymous_args = 0
 2148 0000 70B5     		push	{r4, r5, r6, lr}
 2149              		.cfi_def_cfa_offset 16
 2150              		.cfi_offset 4, -16
 2151              		.cfi_offset 5, -12
 2152              		.cfi_offset 6, -8
 2153              		.cfi_offset 14, -4
 2154              	.LVL272:
 412:main.c        ****     double vectors[3]={2.1,5.2,4.3};
 413:main.c        ****     //Crear Población Inicial
 414:main.c        ****     int i=0,j=0;
 415:main.c        ****     for(i=0;i<10;i++){
 2155              		.loc 1 415 0
 2156 0002 0025     		movs	r5, #0
 2157 0004 2EE0     		b	.L141
 2158              	.LVL273:
 2159              	.L145:
 416:main.c        ****         for(j=0;j<3;j++){
 417:main.c        ****             if(j==0){Poblacion[j][i]=random_amplitud();}
 2160              		.loc 1 417 0
 2161 0006 002C     		cmp	r4, #0
 2162 0008 0BD1     		bne	.L142
 2163              		.loc 1 417 0 is_stmt 0 discriminator 1
 2164 000a FFF7FEFF 		bl	random_amplitud
 2165              	.LVL274:
 2166 000e A200     		lsls	r2, r4, #2
 2167 0010 1219     		adds	r2, r2, r4
 2168 0012 5300     		lsls	r3, r2, #1
 2169 0014 5B19     		adds	r3, r3, r5
 2170 0016 9E00     		lsls	r6, r3, #2
 2171 0018 FFF7FEFF 		bl	__aeabi_d2f
 2172              	.LVL275:
 2173 001c 1B4B     		ldr	r3, .L149
 2174 001e F050     		str	r0, [r6, r3]
 2175 0020 1AE0     		b	.L143
ARM GAS  C:\Users\HENRYA~1\AppData\Local\Temp\ccPSLakD.s 			page 47


 2176              	.L142:
 418:main.c        ****             else if(j==1){Poblacion[j][i]=random_Fase();}
 2177              		.loc 1 418 0 is_stmt 1
 2178 0022 012C     		cmp	r4, #1
 2179 0024 0BD1     		bne	.L144
 2180              		.loc 1 418 0 is_stmt 0 discriminator 1
 2181 0026 FFF7FEFF 		bl	random_Fase
 2182              	.LVL276:
 2183 002a A200     		lsls	r2, r4, #2
 2184 002c 1219     		adds	r2, r2, r4
 2185 002e 5300     		lsls	r3, r2, #1
 2186 0030 5B19     		adds	r3, r3, r5
 2187 0032 9E00     		lsls	r6, r3, #2
 2188 0034 FFF7FEFF 		bl	__aeabi_d2f
 2189              	.LVL277:
 2190 0038 144B     		ldr	r3, .L149
 2191 003a F050     		str	r0, [r6, r3]
 2192 003c 0CE0     		b	.L143
 2193              	.L144:
 419:main.c        ****             else if(j==2){Poblacion[j][i]=random_Offset();}
 2194              		.loc 1 419 0 is_stmt 1
 2195 003e 022C     		cmp	r4, #2
 2196 0040 0AD1     		bne	.L143
 2197              		.loc 1 419 0 is_stmt 0 discriminator 1
 2198 0042 FFF7FEFF 		bl	random_Offset
 2199              	.LVL278:
 2200 0046 A200     		lsls	r2, r4, #2
 2201 0048 1219     		adds	r2, r2, r4
 2202 004a 5300     		lsls	r3, r2, #1
 2203 004c 5B19     		adds	r3, r3, r5
 2204 004e 9E00     		lsls	r6, r3, #2
 2205 0050 FFF7FEFF 		bl	__aeabi_d2f
 2206              	.LVL279:
 2207 0054 0D4B     		ldr	r3, .L149
 2208 0056 F050     		str	r0, [r6, r3]
 2209              	.L143:
 416:main.c        ****         for(j=0;j<3;j++){
 2210              		.loc 1 416 0 is_stmt 1 discriminator 2
 2211 0058 0134     		adds	r4, r4, #1
 2212              	.LVL280:
 2213 005a 00E0     		b	.L146
 2214              	.LVL281:
 2215              	.L148:
 2216 005c 0024     		movs	r4, #0
 2217              	.L146:
 2218              	.LVL282:
 416:main.c        ****         for(j=0;j<3;j++){
 2219              		.loc 1 416 0 is_stmt 0 discriminator 1
 2220 005e 022C     		cmp	r4, #2
 2221 0060 D1DD     		ble	.L145
 415:main.c        ****         for(j=0;j<3;j++){
 2222              		.loc 1 415 0 is_stmt 1 discriminator 2
 2223 0062 0135     		adds	r5, r5, #1
 2224              	.LVL283:
 2225              	.L141:
 415:main.c        ****         for(j=0;j<3;j++){
 2226              		.loc 1 415 0 is_stmt 0 discriminator 1
ARM GAS  C:\Users\HENRYA~1\AppData\Local\Temp\ccPSLakD.s 			page 48


 2227 0064 092D     		cmp	r5, #9
 2228 0066 F9DD     		ble	.L148
 420:main.c        ****         }
 421:main.c        ****     }
 422:main.c        ****     //Init LED's
 423:main.c        ****     CAN_Start(); ///  start CAN
 2229              		.loc 1 423 0 is_stmt 1
 2230 0068 FFF7FEFF 		bl	CAN_Start
 2231              	.LVL284:
 424:main.c        ****     Timer_1_Start();
 2232              		.loc 1 424 0
 2233 006c FFF7FEFF 		bl	Timer_1_Start
 2234              	.LVL285:
 425:main.c        ****     Timer_Start();
 2235              		.loc 1 425 0
 2236 0070 FFF7FEFF 		bl	Timer_Start
 2237              	.LVL286:
 426:main.c        ****     SENSOR_U_Start();
 2238              		.loc 1 426 0
 2239 0074 FFF7FEFF 		bl	SENSOR_U_Start
 2240              	.LVL287:
 427:main.c        ****     CAN_isr_StartEx(interrutcan);
 2241              		.loc 1 427 0
 2242 0078 0548     		ldr	r0, .L149+4
 2243 007a FFF7FEFF 		bl	CAN_isr_StartEx
 2244              	.LVL288:
 428:main.c        ****     CAN_GlobalIntEnable();
 2245              		.loc 1 428 0
 2246 007e FFF7FEFF 		bl	CAN_GlobalIntEnable
 2247              	.LVL289:
 429:main.c        ****     //Int_Serial_StartEx(Serial_Interrupt);
 430:main.c        ****     //Timer_StartEx(Temporizador);
 431:main.c        ****     LED_1_Write(0);
 2248              		.loc 1 431 0
 2249 0082 0020     		movs	r0, #0
 2250 0084 FFF7FEFF 		bl	LED_1_Write
 2251              	.LVL290:
 432:main.c        ****     CyGlobalIntEnable;
 2252              		.loc 1 432 0
 2253              		.syntax divided
 2254              	@ 432 "main.c" 1
 2255 0088 62B6     		CPSIE   i
 2256              	@ 0 "" 2
 2257              		.thumb
 2258              		.syntax unified
 2259              	.L147:
 2260 008a FEE7     		b	.L147
 2261              	.L150:
 2262              		.align	2
 2263              	.L149:
 2264 008c 00000000 		.word	Poblacion
 2265 0090 00000000 		.word	interrutcan
 2266              		.cfi_endproc
 2267              	.LFE60:
 2268              		.size	main, .-main
 2269              		.global	Umbral_Mutacion
 2270              		.global	Umbral_Cruce
ARM GAS  C:\Users\HENRYA~1\AppData\Local\Temp\ccPSLakD.s 			page 49


 2271              		.global	Columna
 2272              		.global	Fila
 2273              		.comm	Fitness_Normalizado,40,4
 2274              		.comm	Fitness_1,40,4
 2275              		.comm	Fitness,40,4
 2276              		.comm	Poblacion_1,120,4
 2277              		.comm	Poblacion,120,4
 2278              		.global	Individuos
 2279              		.global	L_anterior
 2280              		.global	L_actual
 2281              		.global	flag
 2282              		.global	pha_aux
 2283              		.global	off_aux
 2284              		.global	ampli_aux
 2285              		.global	fase
 2286              		.global	offset
 2287              		.global	amplitud
 2288              		.global	Max_Conta
 2289              		.global	Cantidad_Sensores
 2290              		.global	cantidadM
 2291              		.global	conta
 2292              		.global	dist
 2293              		.comm	dato_enviado_1,8,4
 2294              		.comm	dato_enviado,8,4
 2295              		.comm	mailbox2,8,4
 2296              		.comm	mailbox1,8,4
 2297              		.comm	mailbox0,8,4
 2298              		.data
 2299              		.align	2
 2300              		.set	.LANCHOR1,. + 0
 2301              		.type	offset, %object
 2302              		.size	offset, 4
 2303              	offset:
 2304 0000 7D3F553F 		.word	1062551421
 2305              		.type	fase, %object
 2306              		.size	fase, 4
 2307              	fase:
 2308 0004 9A99993E 		.word	1050253722
 2309              		.type	amplitud, %object
 2310              		.size	amplitud, 4
 2311              	amplitud:
 2312 0008 0000003F 		.word	1056964608
 2313              		.type	Individuos, %object
 2314              		.size	Individuos, 4
 2315              	Individuos:
 2316 000c 0A000000 		.word	10
 2317              		.type	Max_Conta, %object
 2318              		.size	Max_Conta, 4
 2319              	Max_Conta:
 2320 0010 64000000 		.word	100
 2321              		.type	Umbral_Cruce, %object
 2322              		.size	Umbral_Cruce, 4
 2323              	Umbral_Cruce:
 2324 0014 0000003F 		.word	1056964608
 2325              		.type	Umbral_Mutacion, %object
 2326              		.size	Umbral_Mutacion, 4
 2327              	Umbral_Mutacion:
ARM GAS  C:\Users\HENRYA~1\AppData\Local\Temp\ccPSLakD.s 			page 50


 2328 0018 CDCCCC3E 		.word	1053609165
 2329              		.bss
 2330              		.align	2
 2331              		.set	.LANCHOR0,. + 0
 2332              		.type	cantidadM, %object
 2333              		.size	cantidadM, 4
 2334              	cantidadM:
 2335 0000 00000000 		.space	4
 2336              		.type	Cantidad_Sensores, %object
 2337              		.size	Cantidad_Sensores, 4
 2338              	Cantidad_Sensores:
 2339 0004 00000000 		.space	4
 2340              		.type	dist, %object
 2341              		.size	dist, 1
 2342              	dist:
 2343 0008 00       		.space	1
 2344 0009 000000   		.space	3
 2345              		.type	flag, %object
 2346              		.size	flag, 4
 2347              	flag:
 2348 000c 00000000 		.space	4
 2349              		.type	L_actual, %object
 2350              		.size	L_actual, 4
 2351              	L_actual:
 2352 0010 00000000 		.space	4
 2353              		.type	conta, %object
 2354              		.size	conta, 2
 2355              	conta:
 2356 0014 0000     		.space	2
 2357 0016 0000     		.space	2
 2358              		.type	Columna, %object
 2359              		.size	Columna, 4
 2360              	Columna:
 2361 0018 00000000 		.space	4
 2362              		.type	Fila, %object
 2363              		.size	Fila, 4
 2364              	Fila:
 2365 001c 00000000 		.space	4
 2366              		.type	L_anterior, %object
 2367              		.size	L_anterior, 4
 2368              	L_anterior:
 2369 0020 00000000 		.space	4
 2370              		.type	pha_aux, %object
 2371              		.size	pha_aux, 4
 2372              	pha_aux:
 2373 0024 00000000 		.space	4
 2374              		.type	off_aux, %object
 2375              		.size	off_aux, 4
 2376              	off_aux:
 2377 0028 00000000 		.space	4
 2378              		.type	ampli_aux, %object
 2379              		.size	ampli_aux, 4
 2380              	ampli_aux:
 2381 002c 00000000 		.space	4
 2382              		.text
 2383              	.Letext0:
 2384              		.file 2 "Generated_Source\\PSoC4/cytypes.h"
ARM GAS  C:\Users\HENRYA~1\AppData\Local\Temp\ccPSLakD.s 			page 51


 2385              		.file 3 "c:\\program files (x86)\\cypress\\psoc creator\\4.1\\psoc creator\\import\\gnu\\arm\\5.4.
 2386              		.file 4 "Generated_Source\\PSoC4/CAN.h"
 2387              		.file 5 "Generated_Source\\PSoC4/CyLib.h"
 2388              		.file 6 "Generated_Source\\PSoC4/CAN_isr.h"
 2389              		.file 7 "Generated_Source\\PSoC4/LED_1.h"
 2390              		.file 8 "Generated_Source\\PSoC4/SENSOR_U.h"
 2391              		.file 9 "Generated_Source\\PSoC4/Timer_1.h"
 2392              		.file 10 "Generated_Source\\PSoC4/Timer.h"