ARM GAS  C:\Users\HENRYA~1\AppData\Local\Temp\ccDw0Q62.s 			page 1


   1              		.syntax unified
   2              		.cpu cortex-m3
   3              		.fpu softvfp
   4              		.eabi_attribute 20, 1
   5              		.eabi_attribute 21, 1
   6              		.eabi_attribute 23, 3
   7              		.eabi_attribute 24, 1
   8              		.eabi_attribute 25, 1
   9              		.eabi_attribute 26, 1
  10              		.eabi_attribute 30, 1
  11              		.eabi_attribute 34, 1
  12              		.eabi_attribute 18, 4
  13              		.thumb
  14              		.file	"main.c"
  15              		.text
  16              	.Ltext0:
  17              		.cfi_sections	.debug_frame
  18              		.section	.text.LED,"ax",%progbits
  19              		.align	2
  20              		.global	LED
  21              		.thumb
  22              		.thumb_func
  23              		.type	LED, %function
  24              	LED:
  25              	.LFB63:
  26              		.file 1 ".\\main.c"
   1:.\main.c      **** #include <project.h>
   2:.\main.c      **** #include <DynamixelSerial1.h>
   3:.\main.c      **** int8 dato_enviado;
   4:.\main.c      **** int8 dato_recibido;
   5:.\main.c      **** int8 Checksum;
   6:.\main.c      **** 
   7:.\main.c      **** int LED(unsigned char ID, int Status){    
  27              		.loc 1 7 0
  28              		.cfi_startproc
  29              		@ args = 0, pretend = 0, frame = 0
  30              		@ frame_needed = 0, uses_anonymous_args = 0
  31              	.LVL0:
  32 0000 70B5     		push	{r4, r5, r6, lr}
  33              		.cfi_def_cfa_offset 16
  34              		.cfi_offset 4, -16
  35              		.cfi_offset 5, -12
  36              		.cfi_offset 6, -8
  37              		.cfi_offset 14, -4
  38 0002 0646     		mov	r6, r0
   8:.\main.c      ****     Checksum = (~(ID + AX_LED_LENGTH + AX_WRITE_DATA + AX_LED + Status))&0xFF;
  39              		.loc 1 8 0
  40 0004 CDB2     		uxtb	r5, r1
  41 0006 114C     		ldr	r4, .L3
  42 0008 2B18     		adds	r3, r5, r0
  43 000a 2033     		adds	r3, r3, #32
  44 000c DB43     		mvns	r3, r3
  45 000e 2370     		strb	r3, [r4]
   9:.\main.c      **** 	//switchCom(Direction_Pin,Tx_MODE);
  10:.\main.c      ****     EMITE_PutChar(AX_START);              // Send Instructions over Serial
  46              		.loc 1 10 0
  47 0010 FF20     		movs	r0, #255
ARM GAS  C:\Users\HENRYA~1\AppData\Local\Temp\ccDw0Q62.s 			page 2


  48              	.LVL1:
  49 0012 FFF7FEFF 		bl	EMITE_PutChar
  50              	.LVL2:
  11:.\main.c      ****     EMITE_PutChar(AX_START);
  51              		.loc 1 11 0
  52 0016 FF20     		movs	r0, #255
  53 0018 FFF7FEFF 		bl	EMITE_PutChar
  54              	.LVL3:
  12:.\main.c      ****     EMITE_PutChar(ID);
  55              		.loc 1 12 0
  56 001c 3046     		mov	r0, r6
  57 001e FFF7FEFF 		bl	EMITE_PutChar
  58              	.LVL4:
  13:.\main.c      ****     EMITE_PutChar(AX_LED_LENGTH);
  59              		.loc 1 13 0
  60 0022 0420     		movs	r0, #4
  61 0024 FFF7FEFF 		bl	EMITE_PutChar
  62              	.LVL5:
  14:.\main.c      ****     EMITE_PutChar(AX_WRITE_DATA);
  63              		.loc 1 14 0
  64 0028 0320     		movs	r0, #3
  65 002a FFF7FEFF 		bl	EMITE_PutChar
  66              	.LVL6:
  15:.\main.c      ****     EMITE_PutChar(AX_LED);
  67              		.loc 1 15 0
  68 002e 1920     		movs	r0, #25
  69 0030 FFF7FEFF 		bl	EMITE_PutChar
  70              	.LVL7:
  16:.\main.c      ****     EMITE_PutChar(Status);
  71              		.loc 1 16 0
  72 0034 2846     		mov	r0, r5
  73 0036 FFF7FEFF 		bl	EMITE_PutChar
  74              	.LVL8:
  17:.\main.c      ****     EMITE_PutChar(Checksum);
  75              		.loc 1 17 0
  76 003a 2078     		ldrb	r0, [r4]	@ zero_extendqisi2
  77 003c FFF7FEFF 		bl	EMITE_PutChar
  78              	.LVL9:
  18:.\main.c      ****     CyDelayUs(TX_DELAY_TIME);
  79              		.loc 1 18 0
  80 0040 4FF4C870 		mov	r0, #400
  81 0044 FFF7FEFF 		bl	CyDelayUs
  82              	.LVL10:
  19:.\main.c      **** 	//switchCom(Direction_Pin,Rx_MODE);
  20:.\main.c      ****     return 1;//(read_error());              // Return the read error
  21:.\main.c      **** }
  83              		.loc 1 21 0
  84 0048 0120     		movs	r0, #1
  85 004a 70BD     		pop	{r4, r5, r6, pc}
  86              	.L4:
  87              		.align	2
  88              	.L3:
  89 004c 00000000 		.word	Checksum
  90              		.cfi_endproc
  91              	.LFE63:
  92              		.size	LED, .-LED
  93              		.section	.text.mover,"ax",%progbits
ARM GAS  C:\Users\HENRYA~1\AppData\Local\Temp\ccDw0Q62.s 			page 3


  94              		.align	2
  95              		.global	mover
  96              		.thumb
  97              		.thumb_func
  98              		.type	mover, %function
  99              	mover:
 100              	.LFB64:
  22:.\main.c      **** 
  23:.\main.c      **** 
  24:.\main.c      **** int mover(unsigned char ID, int Position)
  25:.\main.c      **** {
 101              		.loc 1 25 0
 102              		.cfi_startproc
 103              		@ args = 0, pretend = 0, frame = 0
 104              		@ frame_needed = 0, uses_anonymous_args = 0
 105              	.LVL11:
 106 0000 F8B5     		push	{r3, r4, r5, r6, r7, lr}
 107              		.cfi_def_cfa_offset 24
 108              		.cfi_offset 3, -24
 109              		.cfi_offset 4, -20
 110              		.cfi_offset 5, -16
 111              		.cfi_offset 6, -12
 112              		.cfi_offset 7, -8
 113              		.cfi_offset 14, -4
 114 0002 0646     		mov	r6, r0
  26:.\main.c      ****     char Position_H,Position_L;
  27:.\main.c      ****     Position_H = Position >> 8;           // 16 bits - 2 x 8 bits variables
 115              		.loc 1 27 0
 116 0004 C1F30725 		ubfx	r5, r1, #8, #8
 117              	.LVL12:
  28:.\main.c      ****     Position_L = Position;
 118              		.loc 1 28 0
 119 0008 CCB2     		uxtb	r4, r1
 120              	.LVL13:
  29:.\main.c      **** 	Checksum = (~(ID + AX_GOAL_LENGTH + AX_WRITE_DATA + AX_GOAL_POSITION_L + Position_L + Position_H))
 121              		.loc 1 29 0
 122 000a 144F     		ldr	r7, .L7
 123 000c 0319     		adds	r3, r0, r4
 124 000e 2B44     		add	r3, r3, r5
 125 0010 2633     		adds	r3, r3, #38
 126 0012 DB43     		mvns	r3, r3
 127 0014 3B70     		strb	r3, [r7]
  30:.\main.c      ****     //EMITE_LoadTxConfig();
  31:.\main.c      ****     //	switchCom(Direction_Pin,Tx_MODE);
  32:.\main.c      ****     EMITE_PutChar(AX_START);                 // Send Instructions over Serial
 128              		.loc 1 32 0
 129 0016 FF20     		movs	r0, #255
 130              	.LVL14:
 131 0018 FFF7FEFF 		bl	EMITE_PutChar
 132              	.LVL15:
  33:.\main.c      ****     EMITE_PutChar(AX_START);
 133              		.loc 1 33 0
 134 001c FF20     		movs	r0, #255
 135 001e FFF7FEFF 		bl	EMITE_PutChar
 136              	.LVL16:
  34:.\main.c      ****     EMITE_PutChar(ID);
 137              		.loc 1 34 0
ARM GAS  C:\Users\HENRYA~1\AppData\Local\Temp\ccDw0Q62.s 			page 4


 138 0022 3046     		mov	r0, r6
 139 0024 FFF7FEFF 		bl	EMITE_PutChar
 140              	.LVL17:
  35:.\main.c      ****     EMITE_PutChar(AX_GOAL_LENGTH);
 141              		.loc 1 35 0
 142 0028 0520     		movs	r0, #5
 143 002a FFF7FEFF 		bl	EMITE_PutChar
 144              	.LVL18:
  36:.\main.c      ****     EMITE_PutChar(AX_WRITE_DATA);
 145              		.loc 1 36 0
 146 002e 0320     		movs	r0, #3
 147 0030 FFF7FEFF 		bl	EMITE_PutChar
 148              	.LVL19:
  37:.\main.c      ****     EMITE_PutChar(AX_GOAL_POSITION_L);
 149              		.loc 1 37 0
 150 0034 1E20     		movs	r0, #30
 151 0036 FFF7FEFF 		bl	EMITE_PutChar
 152              	.LVL20:
  38:.\main.c      ****     EMITE_PutChar(Position_L);
 153              		.loc 1 38 0
 154 003a 2046     		mov	r0, r4
 155 003c FFF7FEFF 		bl	EMITE_PutChar
 156              	.LVL21:
  39:.\main.c      ****     EMITE_PutChar(Position_H);
 157              		.loc 1 39 0
 158 0040 2846     		mov	r0, r5
 159 0042 FFF7FEFF 		bl	EMITE_PutChar
 160              	.LVL22:
  40:.\main.c      ****     EMITE_PutChar(Checksum);
 161              		.loc 1 40 0
 162 0046 3878     		ldrb	r0, [r7]	@ zero_extendqisi2
 163 0048 FFF7FEFF 		bl	EMITE_PutChar
 164              	.LVL23:
  41:.\main.c      **** 	CyDelayUs(TX_DELAY_TIME);
 165              		.loc 1 41 0
 166 004c 4FF4C870 		mov	r0, #400
 167 0050 FFF7FEFF 		bl	CyDelayUs
 168              	.LVL24:
  42:.\main.c      **** //	switchCom(Direction_Pin,Rx_MODE);
  43:.\main.c      ****     //EMITE_LoadRxConfig();
  44:.\main.c      ****     return EMITE_ReadRxData();                 // Return the read error
 169              		.loc 1 44 0
 170 0054 FFF7FEFF 		bl	EMITE_ReadRxData
 171              	.LVL25:
  45:.\main.c      **** }
 172              		.loc 1 45 0
 173 0058 F8BD     		pop	{r3, r4, r5, r6, r7, pc}
 174              	.LVL26:
 175              	.L8:
 176 005a 00BF     		.align	2
 177              	.L7:
 178 005c 00000000 		.word	Checksum
 179              		.cfi_endproc
 180              	.LFE64:
 181              		.size	mover, .-mover
 182              		.section	.text.setEndless,"ax",%progbits
 183              		.align	2
ARM GAS  C:\Users\HENRYA~1\AppData\Local\Temp\ccDw0Q62.s 			page 5


 184              		.global	setEndless
 185              		.thumb
 186              		.thumb_func
 187              		.type	setEndless, %function
 188              	setEndless:
 189              	.LFB65:
  46:.\main.c      **** 
  47:.\main.c      **** int setEndless(unsigned char ID, int Status)
  48:.\main.c      **** {
 190              		.loc 1 48 0
 191              		.cfi_startproc
 192              		@ args = 0, pretend = 0, frame = 0
 193              		@ frame_needed = 0, uses_anonymous_args = 0
 194              	.LVL27:
 195 0000 38B5     		push	{r3, r4, r5, lr}
 196              		.cfi_def_cfa_offset 16
 197              		.cfi_offset 3, -16
 198              		.cfi_offset 4, -12
 199              		.cfi_offset 5, -8
 200              		.cfi_offset 14, -4
 201 0002 0446     		mov	r4, r0
  49:.\main.c      ****  if ( Status ) {	
 202              		.loc 1 49 0
 203 0004 31B3     		cbz	r1, .L10
 204              	.LVL28:
 205              	.LBB2:
  50:.\main.c      **** 	  char AX_CCW_AL_LT = 0;     // Changing the CCW Angle Limits for Full Rotation.
  51:.\main.c      **** 	  Checksum = (~(ID + AX_GOAL_LENGTH + AX_WRITE_DATA + AX_CCW_ANGLE_LIMIT_L))&0xFF;
 206              		.loc 1 51 0
 207 0006 274D     		ldr	r5, .L13
 208 0008 00F11003 		add	r3, r0, #16
 209 000c DB43     		mvns	r3, r3
 210 000e 2B70     		strb	r3, [r5]
  52:.\main.c      **** 	  //EMITE_LoadTxConfig();
  53:.\main.c      **** 	  //switchCom(Direction_Pin,Tx_MODE);
  54:.\main.c      ****       EMITE_PutChar(AX_START);                // Send Instructions over Serial
 211              		.loc 1 54 0
 212 0010 FF20     		movs	r0, #255
 213              	.LVL29:
 214 0012 FFF7FEFF 		bl	EMITE_PutChar
 215              	.LVL30:
  55:.\main.c      ****       EMITE_PutChar(AX_START);
 216              		.loc 1 55 0
 217 0016 FF20     		movs	r0, #255
 218 0018 FFF7FEFF 		bl	EMITE_PutChar
 219              	.LVL31:
  56:.\main.c      ****       EMITE_PutChar(ID);
 220              		.loc 1 56 0
 221 001c 2046     		mov	r0, r4
 222 001e FFF7FEFF 		bl	EMITE_PutChar
 223              	.LVL32:
  57:.\main.c      ****       EMITE_PutChar(AX_GOAL_LENGTH);
 224              		.loc 1 57 0
 225 0022 0520     		movs	r0, #5
 226 0024 FFF7FEFF 		bl	EMITE_PutChar
 227              	.LVL33:
  58:.\main.c      ****       EMITE_PutChar(AX_WRITE_DATA);
ARM GAS  C:\Users\HENRYA~1\AppData\Local\Temp\ccDw0Q62.s 			page 6


 228              		.loc 1 58 0
 229 0028 0320     		movs	r0, #3
 230 002a FFF7FEFF 		bl	EMITE_PutChar
 231              	.LVL34:
  59:.\main.c      ****       EMITE_PutChar(AX_CCW_ANGLE_LIMIT_L );
 232              		.loc 1 59 0
 233 002e 0820     		movs	r0, #8
 234 0030 FFF7FEFF 		bl	EMITE_PutChar
 235              	.LVL35:
  60:.\main.c      ****       EMITE_PutChar(AX_CCW_AL_LT);
 236              		.loc 1 60 0
 237 0034 0020     		movs	r0, #0
 238 0036 FFF7FEFF 		bl	EMITE_PutChar
 239              	.LVL36:
  61:.\main.c      ****       EMITE_PutChar(AX_CCW_AL_LT);
 240              		.loc 1 61 0
 241 003a 0020     		movs	r0, #0
 242 003c FFF7FEFF 		bl	EMITE_PutChar
 243              	.LVL37:
  62:.\main.c      ****       EMITE_PutChar(Checksum);
 244              		.loc 1 62 0
 245 0040 2878     		ldrb	r0, [r5]	@ zero_extendqisi2
 246 0042 FFF7FEFF 		bl	EMITE_PutChar
 247              	.LVL38:
  63:.\main.c      ****       CyDelayUs(TX_DELAY_TIME);
 248              		.loc 1 63 0
 249 0046 4FF4C870 		mov	r0, #400
 250 004a FFF7FEFF 		bl	CyDelayUs
 251              	.LVL39:
  64:.\main.c      **** 	  //switchCom(Direction_Pin,Rx_MODE);
  65:.\main.c      ****       //EMITE_LoadRxConfig();
  66:.\main.c      **** 	  return EMITE_ReadRxData(); 
 252              		.loc 1 66 0
 253 004e FFF7FEFF 		bl	EMITE_ReadRxData
 254              	.LVL40:
 255 0052 38BD     		pop	{r3, r4, r5, pc}
 256              	.LVL41:
 257              	.L10:
 258              	.LBE2:
  67:.\main.c      ****  }
  68:.\main.c      ****  else
  69:.\main.c      ****  {
  70:.\main.c      **** 	 //turn(ID,0,0);
  71:.\main.c      **** 	 Checksum = (~(ID + AX_GOAL_LENGTH + AX_WRITE_DATA + AX_CCW_ANGLE_LIMIT_L + AX_CCW_AL_L + AX_CCW_A
 259              		.loc 1 71 0
 260 0054 134D     		ldr	r5, .L13
 261 0056 00F11203 		add	r3, r0, #18
 262 005a DB43     		mvns	r3, r3
 263 005c 2B70     		strb	r3, [r5]
  72:.\main.c      **** 	 //EMITE_LoadTxConfig();
  73:.\main.c      **** 	 //switchCom(Direction_Pin,Tx_MODE);
  74:.\main.c      **** 	 EMITE_PutChar(AX_START);                 // Send Instructions over Serial
 264              		.loc 1 74 0
 265 005e FF20     		movs	r0, #255
 266              	.LVL42:
 267 0060 FFF7FEFF 		bl	EMITE_PutChar
 268              	.LVL43:
ARM GAS  C:\Users\HENRYA~1\AppData\Local\Temp\ccDw0Q62.s 			page 7


  75:.\main.c      **** 	 EMITE_PutChar(AX_START);
 269              		.loc 1 75 0
 270 0064 FF20     		movs	r0, #255
 271 0066 FFF7FEFF 		bl	EMITE_PutChar
 272              	.LVL44:
  76:.\main.c      **** 	 EMITE_PutChar(ID);
 273              		.loc 1 76 0
 274 006a 2046     		mov	r0, r4
 275 006c FFF7FEFF 		bl	EMITE_PutChar
 276              	.LVL45:
  77:.\main.c      **** 	 EMITE_PutChar(AX_GOAL_LENGTH);
 277              		.loc 1 77 0
 278 0070 0520     		movs	r0, #5
 279 0072 FFF7FEFF 		bl	EMITE_PutChar
 280              	.LVL46:
  78:.\main.c      **** 	 EMITE_PutChar(AX_WRITE_DATA);
 281              		.loc 1 78 0
 282 0076 0320     		movs	r0, #3
 283 0078 FFF7FEFF 		bl	EMITE_PutChar
 284              	.LVL47:
  79:.\main.c      **** 	 EMITE_PutChar(AX_CCW_ANGLE_LIMIT_L);
 285              		.loc 1 79 0
 286 007c 0820     		movs	r0, #8
 287 007e FFF7FEFF 		bl	EMITE_PutChar
 288              	.LVL48:
  80:.\main.c      **** 	 EMITE_PutChar(AX_CCW_AL_L);
 289              		.loc 1 80 0
 290 0082 FF20     		movs	r0, #255
 291 0084 FFF7FEFF 		bl	EMITE_PutChar
 292              	.LVL49:
  81:.\main.c      **** 	 EMITE_PutChar(AX_CCW_AL_H);
 293              		.loc 1 81 0
 294 0088 0320     		movs	r0, #3
 295 008a FFF7FEFF 		bl	EMITE_PutChar
 296              	.LVL50:
  82:.\main.c      **** 	 EMITE_PutChar(Checksum);
 297              		.loc 1 82 0
 298 008e 2878     		ldrb	r0, [r5]	@ zero_extendqisi2
 299 0090 FFF7FEFF 		bl	EMITE_PutChar
 300              	.LVL51:
  83:.\main.c      **** 	 CyDelayUs(TX_DELAY_TIME);
 301              		.loc 1 83 0
 302 0094 4FF4C870 		mov	r0, #400
 303 0098 FFF7FEFF 		bl	CyDelayUs
 304              	.LVL52:
  84:.\main.c      ****      //EMITE_LoadRxConfig();
  85:.\main.c      **** 	 //switchCom(Direction_Pin,Rx_MODE);
  86:.\main.c      **** 	 
  87:.\main.c      **** 	 return EMITE_ReadRxData();                 // Return the read error
 305              		.loc 1 87 0
 306 009c FFF7FEFF 		bl	EMITE_ReadRxData
 307              	.LVL53:
  88:.\main.c      ****   }
  89:.\main.c      ****  } 
 308              		.loc 1 89 0
 309 00a0 38BD     		pop	{r3, r4, r5, pc}
 310              	.L14:
ARM GAS  C:\Users\HENRYA~1\AppData\Local\Temp\ccDw0Q62.s 			page 8


 311 00a2 00BF     		.align	2
 312              	.L13:
 313 00a4 00000000 		.word	Checksum
 314              		.cfi_endproc
 315              	.LFE65:
 316              		.size	setEndless, .-setEndless
 317              		.section	.text.torqueStatus,"ax",%progbits
 318              		.align	2
 319              		.global	torqueStatus
 320              		.thumb
 321              		.thumb_func
 322              		.type	torqueStatus, %function
 323              	torqueStatus:
 324              	.LFB66:
  90:.\main.c      **** 
  91:.\main.c      **** int torqueStatus( unsigned char ID, int Status)
  92:.\main.c      **** {
 325              		.loc 1 92 0
 326              		.cfi_startproc
 327              		@ args = 0, pretend = 0, frame = 0
 328              		@ frame_needed = 0, uses_anonymous_args = 0
 329              	.LVL54:
 330 0000 70B5     		push	{r4, r5, r6, lr}
 331              		.cfi_def_cfa_offset 16
 332              		.cfi_offset 4, -16
 333              		.cfi_offset 5, -12
 334              		.cfi_offset 6, -8
 335              		.cfi_offset 14, -4
 336 0002 0646     		mov	r6, r0
  93:.\main.c      ****     Checksum = (~(ID + AX_TORQUE_LENGTH + AX_WRITE_DATA + AX_TORQUE_ENABLE + Status))&0xFF;
 337              		.loc 1 93 0
 338 0004 CDB2     		uxtb	r5, r1
 339 0006 124C     		ldr	r4, .L17
 340 0008 2B18     		adds	r3, r5, r0
 341 000a 1F33     		adds	r3, r3, #31
 342 000c DB43     		mvns	r3, r3
 343 000e 2370     		strb	r3, [r4]
  94:.\main.c      **** 	//switchCom(Direction_Pin,Tx_MODE);
  95:.\main.c      ****     //EMITE_LoadTxConfig();
  96:.\main.c      ****     EMITE_PutChar(AX_START);              // Send Instructions over Serial
 344              		.loc 1 96 0
 345 0010 FF20     		movs	r0, #255
 346              	.LVL55:
 347 0012 FFF7FEFF 		bl	EMITE_PutChar
 348              	.LVL56:
  97:.\main.c      ****     EMITE_PutChar(AX_START);
 349              		.loc 1 97 0
 350 0016 FF20     		movs	r0, #255
 351 0018 FFF7FEFF 		bl	EMITE_PutChar
 352              	.LVL57:
  98:.\main.c      ****     EMITE_PutChar(ID);
 353              		.loc 1 98 0
 354 001c 3046     		mov	r0, r6
 355 001e FFF7FEFF 		bl	EMITE_PutChar
 356              	.LVL58:
  99:.\main.c      ****     EMITE_PutChar(AX_TORQUE_LENGTH);
 357              		.loc 1 99 0
ARM GAS  C:\Users\HENRYA~1\AppData\Local\Temp\ccDw0Q62.s 			page 9


 358 0022 0420     		movs	r0, #4
 359 0024 FFF7FEFF 		bl	EMITE_PutChar
 360              	.LVL59:
 100:.\main.c      ****     EMITE_PutChar(AX_WRITE_DATA);
 361              		.loc 1 100 0
 362 0028 0320     		movs	r0, #3
 363 002a FFF7FEFF 		bl	EMITE_PutChar
 364              	.LVL60:
 101:.\main.c      ****     EMITE_PutChar(AX_TORQUE_ENABLE);
 365              		.loc 1 101 0
 366 002e 1820     		movs	r0, #24
 367 0030 FFF7FEFF 		bl	EMITE_PutChar
 368              	.LVL61:
 102:.\main.c      ****     EMITE_PutChar(Status);
 369              		.loc 1 102 0
 370 0034 2846     		mov	r0, r5
 371 0036 FFF7FEFF 		bl	EMITE_PutChar
 372              	.LVL62:
 103:.\main.c      ****     EMITE_PutChar(Checksum);
 373              		.loc 1 103 0
 374 003a 2078     		ldrb	r0, [r4]	@ zero_extendqisi2
 375 003c FFF7FEFF 		bl	EMITE_PutChar
 376              	.LVL63:
 104:.\main.c      ****     CyDelayUs(TX_DELAY_TIME);
 377              		.loc 1 104 0
 378 0040 4FF4C870 		mov	r0, #400
 379 0044 FFF7FEFF 		bl	CyDelayUs
 380              	.LVL64:
 105:.\main.c      **** 	//switchCom(Direction_Pin,Rx_MODE);
 106:.\main.c      ****     //EMITE_LoadRxConfig();
 107:.\main.c      ****     return EMITE_ReadRxData();               // Return the read error
 381              		.loc 1 107 0
 382 0048 FFF7FEFF 		bl	EMITE_ReadRxData
 383              	.LVL65:
 108:.\main.c      **** }
 384              		.loc 1 108 0
 385 004c 70BD     		pop	{r4, r5, r6, pc}
 386              	.L18:
 387 004e 00BF     		.align	2
 388              	.L17:
 389 0050 00000000 		.word	Checksum
 390              		.cfi_endproc
 391              	.LFE66:
 392              		.size	torqueStatus, .-torqueStatus
 393              		.section	.text.moveSpeed,"ax",%progbits
 394              		.align	2
 395              		.global	moveSpeed
 396              		.thumb
 397              		.thumb_func
 398              		.type	moveSpeed, %function
 399              	moveSpeed:
 400              	.LFB67:
 109:.\main.c      **** 
 110:.\main.c      **** int moveSpeed(unsigned char ID, int Position, int Speed)
 111:.\main.c      **** {
 401              		.loc 1 111 0
 402              		.cfi_startproc
ARM GAS  C:\Users\HENRYA~1\AppData\Local\Temp\ccDw0Q62.s 			page 10


 403              		@ args = 0, pretend = 0, frame = 0
 404              		@ frame_needed = 0, uses_anonymous_args = 0
 405              	.LVL66:
 406 0000 2DE9F843 		push	{r3, r4, r5, r6, r7, r8, r9, lr}
 407              		.cfi_def_cfa_offset 32
 408              		.cfi_offset 3, -32
 409              		.cfi_offset 4, -28
 410              		.cfi_offset 5, -24
 411              		.cfi_offset 6, -20
 412              		.cfi_offset 7, -16
 413              		.cfi_offset 8, -12
 414              		.cfi_offset 9, -8
 415              		.cfi_offset 14, -4
 416 0004 8146     		mov	r9, r0
 112:.\main.c      ****     char Position_H,Position_L,Speed_H,Speed_L;
 113:.\main.c      ****     Position_H = Position >> 8;    
 417              		.loc 1 113 0
 418 0006 C1F30728 		ubfx	r8, r1, #8, #8
 419              	.LVL67:
 114:.\main.c      ****     Position_L = Position;                // 16 bits - 2 x 8 bits variables
 420              		.loc 1 114 0
 421 000a CDB2     		uxtb	r5, r1
 422              	.LVL68:
 115:.\main.c      ****     Speed_H = Speed >> 8;
 423              		.loc 1 115 0
 424 000c C2F30727 		ubfx	r7, r2, #8, #8
 425              	.LVL69:
 116:.\main.c      ****     Speed_L = Speed;                      // 16 bits - 2 x 8 bits variables
 426              		.loc 1 116 0
 427 0010 D4B2     		uxtb	r4, r2
 428              	.LVL70:
 117:.\main.c      **** 	Checksum = (~(ID + AX_GOAL_SP_LENGTH + AX_WRITE_DATA + AX_GOAL_POSITION_L + Position_L + Position_
 429              		.loc 1 117 0
 430 0012 184E     		ldr	r6, .L21
 431 0014 4319     		adds	r3, r0, r5
 432 0016 4344     		add	r3, r3, r8
 433 0018 2344     		add	r3, r3, r4
 434 001a 3B44     		add	r3, r3, r7
 435 001c 2833     		adds	r3, r3, #40
 436 001e DB43     		mvns	r3, r3
 437 0020 3370     		strb	r3, [r6]
 118:.\main.c      ****     //EMITE_LoadTxConfig();
 119:.\main.c      **** 	//switchCom(Direction_Pin,Tx_MODE);
 120:.\main.c      ****     EMITE_PutChar(AX_START);                // Send Instructions over Serial
 438              		.loc 1 120 0
 439 0022 FF20     		movs	r0, #255
 440              	.LVL71:
 441 0024 FFF7FEFF 		bl	EMITE_PutChar
 442              	.LVL72:
 121:.\main.c      ****     EMITE_PutChar(AX_START);
 443              		.loc 1 121 0
 444 0028 FF20     		movs	r0, #255
 445 002a FFF7FEFF 		bl	EMITE_PutChar
 446              	.LVL73:
 122:.\main.c      ****     EMITE_PutChar(ID);
 447              		.loc 1 122 0
 448 002e 4846     		mov	r0, r9
ARM GAS  C:\Users\HENRYA~1\AppData\Local\Temp\ccDw0Q62.s 			page 11


 449 0030 FFF7FEFF 		bl	EMITE_PutChar
 450              	.LVL74:
 123:.\main.c      ****     EMITE_PutChar(AX_GOAL_SP_LENGTH);
 451              		.loc 1 123 0
 452 0034 0720     		movs	r0, #7
 453 0036 FFF7FEFF 		bl	EMITE_PutChar
 454              	.LVL75:
 124:.\main.c      ****     EMITE_PutChar(AX_WRITE_DATA);
 455              		.loc 1 124 0
 456 003a 0320     		movs	r0, #3
 457 003c FFF7FEFF 		bl	EMITE_PutChar
 458              	.LVL76:
 125:.\main.c      ****     EMITE_PutChar(AX_GOAL_POSITION_L);
 459              		.loc 1 125 0
 460 0040 1E20     		movs	r0, #30
 461 0042 FFF7FEFF 		bl	EMITE_PutChar
 462              	.LVL77:
 126:.\main.c      ****     EMITE_PutChar(Position_L);
 463              		.loc 1 126 0
 464 0046 2846     		mov	r0, r5
 465 0048 FFF7FEFF 		bl	EMITE_PutChar
 466              	.LVL78:
 127:.\main.c      ****     EMITE_PutChar(Position_H);
 467              		.loc 1 127 0
 468 004c 4046     		mov	r0, r8
 469 004e FFF7FEFF 		bl	EMITE_PutChar
 470              	.LVL79:
 128:.\main.c      ****     EMITE_PutChar(Speed_L);
 471              		.loc 1 128 0
 472 0052 2046     		mov	r0, r4
 473 0054 FFF7FEFF 		bl	EMITE_PutChar
 474              	.LVL80:
 129:.\main.c      ****     EMITE_PutChar(Speed_H);
 475              		.loc 1 129 0
 476 0058 3846     		mov	r0, r7
 477 005a FFF7FEFF 		bl	EMITE_PutChar
 478              	.LVL81:
 130:.\main.c      ****     EMITE_PutChar(Checksum);
 479              		.loc 1 130 0
 480 005e 3078     		ldrb	r0, [r6]	@ zero_extendqisi2
 481 0060 FFF7FEFF 		bl	EMITE_PutChar
 482              	.LVL82:
 131:.\main.c      ****     CyDelayUs(TX_DELAY_TIME);
 483              		.loc 1 131 0
 484 0064 4FF4C870 		mov	r0, #400
 485 0068 FFF7FEFF 		bl	CyDelayUs
 486              	.LVL83:
 132:.\main.c      ****     //EMITE_LoadRxConfig();
 133:.\main.c      **** 	//switchCom(Direction_Pin,Rx_MODE);
 134:.\main.c      ****     
 135:.\main.c      ****     return EMITE_ReadRxData();                // Return the read error
 487              		.loc 1 135 0
 488 006c FFF7FEFF 		bl	EMITE_ReadRxData
 489              	.LVL84:
 136:.\main.c      **** }
 490              		.loc 1 136 0
 491 0070 BDE8F883 		pop	{r3, r4, r5, r6, r7, r8, r9, pc}
ARM GAS  C:\Users\HENRYA~1\AppData\Local\Temp\ccDw0Q62.s 			page 12


 492              	.LVL85:
 493              	.L22:
 494              		.align	2
 495              	.L21:
 496 0074 00000000 		.word	Checksum
 497              		.cfi_endproc
 498              	.LFE67:
 499              		.size	moveSpeed, .-moveSpeed
 500              		.section	.text.moveRW,"ax",%progbits
 501              		.align	2
 502              		.global	moveRW
 503              		.thumb
 504              		.thumb_func
 505              		.type	moveRW, %function
 506              	moveRW:
 507              	.LFB68:
 137:.\main.c      **** 
 138:.\main.c      **** int moveRW(unsigned char ID, int Position)
 139:.\main.c      **** {
 508              		.loc 1 139 0
 509              		.cfi_startproc
 510              		@ args = 0, pretend = 0, frame = 0
 511              		@ frame_needed = 0, uses_anonymous_args = 0
 512              	.LVL86:
 513 0000 F8B5     		push	{r3, r4, r5, r6, r7, lr}
 514              		.cfi_def_cfa_offset 24
 515              		.cfi_offset 3, -24
 516              		.cfi_offset 4, -20
 517              		.cfi_offset 5, -16
 518              		.cfi_offset 6, -12
 519              		.cfi_offset 7, -8
 520              		.cfi_offset 14, -4
 521 0002 0646     		mov	r6, r0
 140:.\main.c      ****     char Position_H,Position_L;
 141:.\main.c      ****     Position_H = Position >> 8;           // 16 bits - 2 x 8 bits variables
 522              		.loc 1 141 0
 523 0004 C1F30725 		ubfx	r5, r1, #8, #8
 524              	.LVL87:
 142:.\main.c      ****     Position_L = Position;
 525              		.loc 1 142 0
 526 0008 CCB2     		uxtb	r4, r1
 527              	.LVL88:
 143:.\main.c      ****     Checksum = (~(ID + AX_GOAL_LENGTH + AX_REG_WRITE + AX_GOAL_POSITION_L + Position_L + Position_H
 528              		.loc 1 143 0
 529 000a 144F     		ldr	r7, .L25
 530 000c 0319     		adds	r3, r0, r4
 531 000e 2B44     		add	r3, r3, r5
 532 0010 2733     		adds	r3, r3, #39
 533 0012 DB43     		mvns	r3, r3
 534 0014 3B70     		strb	r3, [r7]
 144:.\main.c      ****     //EMITE_LoadTxConfig();
 145:.\main.c      **** 	//switchCom(Direction_Pin,Tx_MODE);
 146:.\main.c      ****     EMITE_PutChar(AX_START);                 // Send Instructions over Serial
 535              		.loc 1 146 0
 536 0016 FF20     		movs	r0, #255
 537              	.LVL89:
 538 0018 FFF7FEFF 		bl	EMITE_PutChar
ARM GAS  C:\Users\HENRYA~1\AppData\Local\Temp\ccDw0Q62.s 			page 13


 539              	.LVL90:
 147:.\main.c      ****     EMITE_PutChar(AX_START);
 540              		.loc 1 147 0
 541 001c FF20     		movs	r0, #255
 542 001e FFF7FEFF 		bl	EMITE_PutChar
 543              	.LVL91:
 148:.\main.c      ****     EMITE_PutChar(ID);
 544              		.loc 1 148 0
 545 0022 3046     		mov	r0, r6
 546 0024 FFF7FEFF 		bl	EMITE_PutChar
 547              	.LVL92:
 149:.\main.c      ****     EMITE_PutChar(AX_GOAL_LENGTH);
 548              		.loc 1 149 0
 549 0028 0520     		movs	r0, #5
 550 002a FFF7FEFF 		bl	EMITE_PutChar
 551              	.LVL93:
 150:.\main.c      ****     EMITE_PutChar(AX_REG_WRITE);
 552              		.loc 1 150 0
 553 002e 0420     		movs	r0, #4
 554 0030 FFF7FEFF 		bl	EMITE_PutChar
 555              	.LVL94:
 151:.\main.c      ****     EMITE_PutChar(AX_GOAL_POSITION_L);
 556              		.loc 1 151 0
 557 0034 1E20     		movs	r0, #30
 558 0036 FFF7FEFF 		bl	EMITE_PutChar
 559              	.LVL95:
 152:.\main.c      ****     EMITE_PutChar(Position_L);
 560              		.loc 1 152 0
 561 003a 2046     		mov	r0, r4
 562 003c FFF7FEFF 		bl	EMITE_PutChar
 563              	.LVL96:
 153:.\main.c      ****     EMITE_PutChar(Position_H);
 564              		.loc 1 153 0
 565 0040 2846     		mov	r0, r5
 566 0042 FFF7FEFF 		bl	EMITE_PutChar
 567              	.LVL97:
 154:.\main.c      ****     EMITE_PutChar(Checksum);
 568              		.loc 1 154 0
 569 0046 3878     		ldrb	r0, [r7]	@ zero_extendqisi2
 570 0048 FFF7FEFF 		bl	EMITE_PutChar
 571              	.LVL98:
 155:.\main.c      **** 	CyDelayUs(TX_DELAY_TIME);
 572              		.loc 1 155 0
 573 004c 4FF4C870 		mov	r0, #400
 574 0050 FFF7FEFF 		bl	CyDelayUs
 575              	.LVL99:
 156:.\main.c      **** 	//switchCom(Direction_Pin,Rx_MODE);
 157:.\main.c      **** 	//EMITE_LoadRxConfig();
 158:.\main.c      ****     return EMITE_ReadRxData();                  // Return the read error
 576              		.loc 1 158 0
 577 0054 FFF7FEFF 		bl	EMITE_ReadRxData
 578              	.LVL100:
 159:.\main.c      **** }
 579              		.loc 1 159 0
 580 0058 F8BD     		pop	{r3, r4, r5, r6, r7, pc}
 581              	.LVL101:
 582              	.L26:
ARM GAS  C:\Users\HENRYA~1\AppData\Local\Temp\ccDw0Q62.s 			page 14


 583 005a 00BF     		.align	2
 584              	.L25:
 585 005c 00000000 		.word	Checksum
 586              		.cfi_endproc
 587              	.LFE68:
 588              		.size	moveRW, .-moveRW
 589              		.section	.text.action,"ax",%progbits
 590              		.align	2
 591              		.global	action
 592              		.thumb
 593              		.thumb_func
 594              		.type	action, %function
 595              	action:
 596              	.LFB69:
 160:.\main.c      **** 
 161:.\main.c      **** void action()
 162:.\main.c      **** {	//EMITE_LoadTxConfig();
 597              		.loc 1 162 0
 598              		.cfi_startproc
 599              		@ args = 0, pretend = 0, frame = 0
 600              		@ frame_needed = 0, uses_anonymous_args = 0
 601 0000 08B5     		push	{r3, lr}
 602              		.cfi_def_cfa_offset 8
 603              		.cfi_offset 3, -8
 604              		.cfi_offset 14, -4
 163:.\main.c      **** 	//switchCom(Direction_Pin,Tx_MODE);
 164:.\main.c      ****     EMITE_PutChar(AX_START);                // Send Instructions over Serial
 605              		.loc 1 164 0
 606 0002 FF20     		movs	r0, #255
 607 0004 FFF7FEFF 		bl	EMITE_PutChar
 608              	.LVL102:
 165:.\main.c      ****     EMITE_PutChar(AX_START);
 609              		.loc 1 165 0
 610 0008 FF20     		movs	r0, #255
 611 000a FFF7FEFF 		bl	EMITE_PutChar
 612              	.LVL103:
 166:.\main.c      ****     EMITE_PutChar(BROADCAST_ID);
 613              		.loc 1 166 0
 614 000e FE20     		movs	r0, #254
 615 0010 FFF7FEFF 		bl	EMITE_PutChar
 616              	.LVL104:
 167:.\main.c      ****     EMITE_PutChar(AX_ACTION_LENGTH);
 617              		.loc 1 167 0
 618 0014 0220     		movs	r0, #2
 619 0016 FFF7FEFF 		bl	EMITE_PutChar
 620              	.LVL105:
 168:.\main.c      ****     EMITE_PutChar(AX_ACTION);
 621              		.loc 1 168 0
 622 001a 0520     		movs	r0, #5
 623 001c FFF7FEFF 		bl	EMITE_PutChar
 624              	.LVL106:
 169:.\main.c      ****     EMITE_PutChar(AX_ACTION_CHECKSUM);
 625              		.loc 1 169 0
 626 0020 FA20     		movs	r0, #250
 627 0022 FFF7FEFF 		bl	EMITE_PutChar
 628              	.LVL107:
 170:.\main.c      **** 	CyDelayUs(TX_DELAY_TIME);
ARM GAS  C:\Users\HENRYA~1\AppData\Local\Temp\ccDw0Q62.s 			page 15


 629              		.loc 1 170 0
 630 0026 4FF4C870 		mov	r0, #400
 631 002a FFF7FEFF 		bl	CyDelayUs
 632              	.LVL108:
 633 002e 08BD     		pop	{r3, pc}
 634              		.cfi_endproc
 635              	.LFE69:
 636              		.size	action, .-action
 637              		.section	.text.main,"ax",%progbits
 638              		.align	2
 639              		.global	main
 640              		.thumb
 641              		.thumb_func
 642              		.type	main, %function
 643              	main:
 644              	.LFB70:
 171:.\main.c      **** 	//switchCom(Direction_Pin,Rx_MODE);
 172:.\main.c      **** }
 173:.\main.c      **** 
 174:.\main.c      **** 
 175:.\main.c      **** int main()
 176:.\main.c      **** {
 645              		.loc 1 176 0
 646              		.cfi_startproc
 647              		@ args = 0, pretend = 0, frame = 0
 648              		@ frame_needed = 0, uses_anonymous_args = 0
 649 0000 10B5     		push	{r4, lr}
 650              		.cfi_def_cfa_offset 8
 651              		.cfi_offset 4, -8
 652              		.cfi_offset 14, -4
 653              	.LVL109:
 177:.\main.c      ****     int conta=0;
 178:.\main.c      ****     int dato_aux;
 179:.\main.c      ****     CyGlobalIntEnable; /* Enable global interrupts. */
 654              		.loc 1 179 0
 655              	@ 179 ".\main.c" 1
 656 0002 62B6     		CPSIE   i
 657              	@ 0 "" 2
 180:.\main.c      ****     EMITE_Start();
 658              		.loc 1 180 0
 659              		.thumb
 660 0004 FFF7FEFF 		bl	EMITE_Start
 661              	.LVL110:
 181:.\main.c      ****     //EMITE_LoadTxConfig();
 182:.\main.c      ****     LCD_Char_1_Start();
 662              		.loc 1 182 0
 663 0008 FFF7FEFF 		bl	LCD_Char_1_Start
 664              	.LVL111:
 183:.\main.c      ****     LCD_Char_1_Position(0,0);
 665              		.loc 1 183 0
 666 000c 0020     		movs	r0, #0
 667 000e 0146     		mov	r1, r0
 668 0010 FFF7FEFF 		bl	LCD_Char_1_Position
 669              	.LVL112:
 184:.\main.c      ****     LCD_Char_1_PrintString("Datos...");
 670              		.loc 1 184 0
 671 0014 2348     		ldr	r0, .L32
ARM GAS  C:\Users\HENRYA~1\AppData\Local\Temp\ccDw0Q62.s 			page 16


 672 0016 FFF7FEFF 		bl	LCD_Char_1_PrintString
 673              	.LVL113:
 674              	.L30:
 185:.\main.c      ****     
 186:.\main.c      ****     /* Place your initialization/startup code here (e.g. MyInst_Start()) */
 187:.\main.c      ****     for(;;)
 188:.\main.c      ****     {
 189:.\main.c      ****         
 190:.\main.c      ****         //mover(1,700);  // Move the Servo radomly from 200 to 800
 191:.\main.c      ****         //CyDelay(1000);
 192:.\main.c      ****         dato_recibido=moveSpeed(1,200,200);
 675              		.loc 1 192 0 discriminator 1
 676 001a 0120     		movs	r0, #1
 677 001c C821     		movs	r1, #200
 678 001e 0A46     		mov	r2, r1
 679 0020 FFF7FEFF 		bl	moveSpeed
 680              	.LVL114:
 681 0024 204C     		ldr	r4, .L32+4
 682 0026 2070     		strb	r0, [r4]
 193:.\main.c      ****         LCD_Char_1_Position(1,0);
 683              		.loc 1 193 0 discriminator 1
 684 0028 0120     		movs	r0, #1
 685 002a 0021     		movs	r1, #0
 686 002c FFF7FEFF 		bl	LCD_Char_1_Position
 687              	.LVL115:
 194:.\main.c      ****         LCD_Char_1_PrintInt8(dato_recibido);
 688              		.loc 1 194 0 discriminator 1
 689 0030 2078     		ldrb	r0, [r4]	@ zero_extendqisi2
 690 0032 FFF7FEFF 		bl	LCD_Char_1_PrintInt8
 691              	.LVL116:
 195:.\main.c      ****         CyDelay(2000);
 692              		.loc 1 195 0 discriminator 1
 693 0036 4FF4FA60 		mov	r0, #2000
 694 003a FFF7FEFF 		bl	CyDelay
 695              	.LVL117:
 196:.\main.c      ****         //setEndless(1,ON);
 197:.\main.c      ****         //turn(1,RIGTH,1000);
 198:.\main.c      ****         //CyDelay(3000);
 199:.\main.c      ****         //turn(1,LEFT,1000);
 200:.\main.c      ****         //CyDelay(3000);
 201:.\main.c      ****         //setEndless(1,OFF);
 202:.\main.c      ****         dato_recibido=LED(1,1);
 696              		.loc 1 202 0 discriminator 1
 697 003e 0120     		movs	r0, #1
 698 0040 0146     		mov	r1, r0
 699 0042 FFF7FEFF 		bl	LED
 700              	.LVL118:
 701 0046 2070     		strb	r0, [r4]
 203:.\main.c      ****         LCD_Char_1_Position(1,0);
 702              		.loc 1 203 0 discriminator 1
 703 0048 0120     		movs	r0, #1
 704 004a 0021     		movs	r1, #0
 705 004c FFF7FEFF 		bl	LCD_Char_1_Position
 706              	.LVL119:
 204:.\main.c      ****         LCD_Char_1_PrintInt8(dato_recibido);
 707              		.loc 1 204 0 discriminator 1
 708 0050 2078     		ldrb	r0, [r4]	@ zero_extendqisi2
ARM GAS  C:\Users\HENRYA~1\AppData\Local\Temp\ccDw0Q62.s 			page 17


 709 0052 FFF7FEFF 		bl	LCD_Char_1_PrintInt8
 710              	.LVL120:
 205:.\main.c      ****         //moveRW(1,512);
 206:.\main.c      ****         CyDelay(1000);
 711              		.loc 1 206 0 discriminator 1
 712 0056 4FF47A70 		mov	r0, #1000
 713 005a FFF7FEFF 		bl	CyDelay
 714              	.LVL121:
 207:.\main.c      ****         action();
 715              		.loc 1 207 0 discriminator 1
 716 005e FFF7FEFF 		bl	action
 717              	.LVL122:
 208:.\main.c      ****         dato_recibido=LED(1,0);
 718              		.loc 1 208 0 discriminator 1
 719 0062 0120     		movs	r0, #1
 720 0064 0021     		movs	r1, #0
 721 0066 FFF7FEFF 		bl	LED
 722              	.LVL123:
 723 006a 2070     		strb	r0, [r4]
 209:.\main.c      ****         LCD_Char_1_Position(1,0);
 724              		.loc 1 209 0 discriminator 1
 725 006c 0120     		movs	r0, #1
 726 006e 0021     		movs	r1, #0
 727 0070 FFF7FEFF 		bl	LCD_Char_1_Position
 728              	.LVL124:
 210:.\main.c      ****         LCD_Char_1_PrintInt8(dato_recibido);
 729              		.loc 1 210 0 discriminator 1
 730 0074 2078     		ldrb	r0, [r4]	@ zero_extendqisi2
 731 0076 FFF7FEFF 		bl	LCD_Char_1_PrintInt8
 732              	.LVL125:
 211:.\main.c      ****         CyDelay(1000);
 733              		.loc 1 211 0 discriminator 1
 734 007a 4FF47A70 		mov	r0, #1000
 735 007e FFF7FEFF 		bl	CyDelay
 736              	.LVL126:
 212:.\main.c      ****         dato_recibido=moveSpeed(1,600,500);
 737              		.loc 1 212 0 discriminator 1
 738 0082 0120     		movs	r0, #1
 739 0084 4FF41671 		mov	r1, #600
 740 0088 4FF4FA72 		mov	r2, #500
 741 008c FFF7FEFF 		bl	moveSpeed
 742              	.LVL127:
 743 0090 2070     		strb	r0, [r4]
 213:.\main.c      ****         LCD_Char_1_Position(1,0);
 744              		.loc 1 213 0 discriminator 1
 745 0092 0120     		movs	r0, #1
 746 0094 0021     		movs	r1, #0
 747 0096 FFF7FEFF 		bl	LCD_Char_1_Position
 748              	.LVL128:
 214:.\main.c      ****         LCD_Char_1_PrintInt8(dato_recibido);
 749              		.loc 1 214 0 discriminator 1
 750 009a 2078     		ldrb	r0, [r4]	@ zero_extendqisi2
 751 009c FFF7FEFF 		bl	LCD_Char_1_PrintInt8
 752              	.LVL129:
 215:.\main.c      ****         }
 753              		.loc 1 215 0 discriminator 1
 754 00a0 BBE7     		b	.L30
ARM GAS  C:\Users\HENRYA~1\AppData\Local\Temp\ccDw0Q62.s 			page 18


 755              	.L33:
 756 00a2 00BF     		.align	2
 757              	.L32:
 758 00a4 00000000 		.word	.LC0
 759 00a8 00000000 		.word	dato_recibido
 760              		.cfi_endproc
 761              	.LFE70:
 762              		.size	main, .-main
 763              		.comm	Checksum,1,1
 764              		.comm	dato_recibido,1,1
 765              		.comm	dato_enviado,1,1
 766              		.section	.rodata.str1.4,"aMS",%progbits,1
 767              		.align	2
 768              	.LC0:
 769 0000 4461746F 		.ascii	"Datos...\000"
 769      732E2E2E 
 769      00
 770 0009 000000   		.text
 771              	.Letext0:
 772              		.file 2 "c:\\program files (x86)\\cypress\\psoc creator\\3.3\\psoc creator\\import\\gnu\\arm\\4.9.
 773              		.file 3 "c:\\program files (x86)\\cypress\\psoc creator\\3.3\\psoc creator\\import\\gnu\\arm\\4.9.
 774              		.file 4 "Generated_Source\\PSoC5/cytypes.h"
 775              		.file 5 "Generated_Source\\PSoC5/core_cm3.h"
 776              		.file 6 "Generated_Source\\PSoC5/EMITE.h"
 777              		.file 7 "Generated_Source\\PSoC5/CyLib.h"
 778              		.file 8 "Generated_Source\\PSoC5/LCD_Char_1.h"