ARM GAS  C:\Users\Andres\AppData\Local\Temp\cco5dWVx.s 			page 1


   1              		.cpu cortex-m0
   2              		.fpu softvfp
   3              		.eabi_attribute 20, 1
   4              		.eabi_attribute 21, 1
   5              		.eabi_attribute 23, 3
   6              		.eabi_attribute 24, 1
   7              		.eabi_attribute 25, 1
   8              		.eabi_attribute 26, 1
   9              		.eabi_attribute 30, 1
  10              		.eabi_attribute 34, 0
  11              		.eabi_attribute 18, 4
  12              		.code	16
  13              		.file	"cyfitter_cfg.c"
  14              		.text
  15              	.Ltext0:
  16              		.cfi_sections	.debug_frame
  17              		.section	.text.cfg_write_bytes32,"ax",%progbits
  18              		.align	2
  19              		.code	16
  20              		.thumb_func
  21              		.type	cfg_write_bytes32, %function
  22              	cfg_write_bytes32:
  23              	.LFB4:
  24              		.file 1 "Generated_Source\\PSoC4\\cyfitter_cfg.c"
   1:Generated_Source\PSoC4/cyfitter_cfg.c **** /*******************************************************************************
   2:Generated_Source\PSoC4/cyfitter_cfg.c **** * File Name: cyfitter_cfg.c
   3:Generated_Source\PSoC4/cyfitter_cfg.c **** * 
   4:Generated_Source\PSoC4/cyfitter_cfg.c **** * PSoC Creator  4.0 Update 1
   5:Generated_Source\PSoC4/cyfitter_cfg.c **** *
   6:Generated_Source\PSoC4/cyfitter_cfg.c **** * Description:
   7:Generated_Source\PSoC4/cyfitter_cfg.c **** * This file contains device initialization code.
   8:Generated_Source\PSoC4/cyfitter_cfg.c **** * Except for the user defined sections in CyClockStartupError(), this file should not be modified.
   9:Generated_Source\PSoC4/cyfitter_cfg.c **** * This file is automatically generated by PSoC Creator.
  10:Generated_Source\PSoC4/cyfitter_cfg.c **** *
  11:Generated_Source\PSoC4/cyfitter_cfg.c **** ********************************************************************************
  12:Generated_Source\PSoC4/cyfitter_cfg.c **** * Copyright (c) 2007-2016 Cypress Semiconductor.  All rights reserved.
  13:Generated_Source\PSoC4/cyfitter_cfg.c **** * You may use this file only in accordance with the license, terms, conditions, 
  14:Generated_Source\PSoC4/cyfitter_cfg.c **** * disclaimers, and limitations in the end user license agreement accompanying 
  15:Generated_Source\PSoC4/cyfitter_cfg.c **** * the software package with which this file was provided.
  16:Generated_Source\PSoC4/cyfitter_cfg.c **** ********************************************************************************/
  17:Generated_Source\PSoC4/cyfitter_cfg.c **** 
  18:Generated_Source\PSoC4/cyfitter_cfg.c **** #include <string.h>
  19:Generated_Source\PSoC4/cyfitter_cfg.c **** #include "cytypes.h"
  20:Generated_Source\PSoC4/cyfitter_cfg.c **** #include "cydevice_trm.h"
  21:Generated_Source\PSoC4/cyfitter_cfg.c **** #include "cyfitter.h"
  22:Generated_Source\PSoC4/cyfitter_cfg.c **** #include "CyLib.h"
  23:Generated_Source\PSoC4/cyfitter_cfg.c **** #include "CyLFClk.h"
  24:Generated_Source\PSoC4/cyfitter_cfg.c **** #include "cyfitter_cfg.h"
  25:Generated_Source\PSoC4/cyfitter_cfg.c **** #include "cyapicallbacks.h"
  26:Generated_Source\PSoC4/cyfitter_cfg.c **** 
  27:Generated_Source\PSoC4/cyfitter_cfg.c **** 
  28:Generated_Source\PSoC4/cyfitter_cfg.c **** #if defined(__GNUC__) || defined(__ARMCC_VERSION)
  29:Generated_Source\PSoC4/cyfitter_cfg.c ****     #define CYPACKED 
  30:Generated_Source\PSoC4/cyfitter_cfg.c ****     #define CYPACKED_ATTR __attribute__ ((packed))
  31:Generated_Source\PSoC4/cyfitter_cfg.c ****     #define CYALIGNED __attribute__ ((aligned))
  32:Generated_Source\PSoC4/cyfitter_cfg.c ****     #define CY_CFG_UNUSED __attribute__ ((unused))
  33:Generated_Source\PSoC4/cyfitter_cfg.c ****     #ifndef CY_CFG_SECTION
ARM GAS  C:\Users\Andres\AppData\Local\Temp\cco5dWVx.s 			page 2


  34:Generated_Source\PSoC4/cyfitter_cfg.c ****         #define CY_CFG_SECTION __attribute__ ((section(".psocinit")))
  35:Generated_Source\PSoC4/cyfitter_cfg.c ****     #endif
  36:Generated_Source\PSoC4/cyfitter_cfg.c ****     
  37:Generated_Source\PSoC4/cyfitter_cfg.c ****     #if defined(__ARMCC_VERSION)
  38:Generated_Source\PSoC4/cyfitter_cfg.c ****         #define CY_CFG_MEMORY_BARRIER() __memory_changed()
  39:Generated_Source\PSoC4/cyfitter_cfg.c ****     #else
  40:Generated_Source\PSoC4/cyfitter_cfg.c ****         #define CY_CFG_MEMORY_BARRIER() __sync_synchronize()
  41:Generated_Source\PSoC4/cyfitter_cfg.c ****     #endif
  42:Generated_Source\PSoC4/cyfitter_cfg.c ****     
  43:Generated_Source\PSoC4/cyfitter_cfg.c **** #elif defined(__ICCARM__)
  44:Generated_Source\PSoC4/cyfitter_cfg.c ****     #include <intrinsics.h>
  45:Generated_Source\PSoC4/cyfitter_cfg.c **** 
  46:Generated_Source\PSoC4/cyfitter_cfg.c ****     #define CYPACKED __packed
  47:Generated_Source\PSoC4/cyfitter_cfg.c ****     #define CYPACKED_ATTR 
  48:Generated_Source\PSoC4/cyfitter_cfg.c ****     #define CYALIGNED _Pragma("data_alignment=4")
  49:Generated_Source\PSoC4/cyfitter_cfg.c ****     #define CY_CFG_UNUSED _Pragma("diag_suppress=Pe177")
  50:Generated_Source\PSoC4/cyfitter_cfg.c ****     #define CY_CFG_SECTION _Pragma("location=\".psocinit\"")
  51:Generated_Source\PSoC4/cyfitter_cfg.c ****     
  52:Generated_Source\PSoC4/cyfitter_cfg.c ****     #define CY_CFG_MEMORY_BARRIER() __DMB()
  53:Generated_Source\PSoC4/cyfitter_cfg.c ****     
  54:Generated_Source\PSoC4/cyfitter_cfg.c **** #else
  55:Generated_Source\PSoC4/cyfitter_cfg.c ****     #error Unsupported toolchain
  56:Generated_Source\PSoC4/cyfitter_cfg.c **** #endif
  57:Generated_Source\PSoC4/cyfitter_cfg.c **** 
  58:Generated_Source\PSoC4/cyfitter_cfg.c **** 
  59:Generated_Source\PSoC4/cyfitter_cfg.c **** CY_CFG_UNUSED
  60:Generated_Source\PSoC4/cyfitter_cfg.c **** static void CYMEMZERO(void *s, size_t n);
  61:Generated_Source\PSoC4/cyfitter_cfg.c **** CY_CFG_UNUSED
  62:Generated_Source\PSoC4/cyfitter_cfg.c **** static void CYMEMZERO(void *s, size_t n)
  63:Generated_Source\PSoC4/cyfitter_cfg.c **** {
  64:Generated_Source\PSoC4/cyfitter_cfg.c **** 	(void)memset(s, 0, n);
  65:Generated_Source\PSoC4/cyfitter_cfg.c **** }
  66:Generated_Source\PSoC4/cyfitter_cfg.c **** CY_CFG_UNUSED
  67:Generated_Source\PSoC4/cyfitter_cfg.c **** static void CYCONFIGCPY(void *dest, const void *src, size_t n);
  68:Generated_Source\PSoC4/cyfitter_cfg.c **** CY_CFG_UNUSED
  69:Generated_Source\PSoC4/cyfitter_cfg.c **** static void CYCONFIGCPY(void *dest, const void *src, size_t n)
  70:Generated_Source\PSoC4/cyfitter_cfg.c **** {
  71:Generated_Source\PSoC4/cyfitter_cfg.c **** 	(void)memcpy(dest, src, n);
  72:Generated_Source\PSoC4/cyfitter_cfg.c **** }
  73:Generated_Source\PSoC4/cyfitter_cfg.c **** CY_CFG_UNUSED
  74:Generated_Source\PSoC4/cyfitter_cfg.c **** static void CYCONFIGCPYCODE(void *dest, const void *src, size_t n);
  75:Generated_Source\PSoC4/cyfitter_cfg.c **** CY_CFG_UNUSED
  76:Generated_Source\PSoC4/cyfitter_cfg.c **** static void CYCONFIGCPYCODE(void *dest, const void *src, size_t n)
  77:Generated_Source\PSoC4/cyfitter_cfg.c **** {
  78:Generated_Source\PSoC4/cyfitter_cfg.c **** 	(void)memcpy(dest, src, n);
  79:Generated_Source\PSoC4/cyfitter_cfg.c **** }
  80:Generated_Source\PSoC4/cyfitter_cfg.c **** 
  81:Generated_Source\PSoC4/cyfitter_cfg.c **** 
  82:Generated_Source\PSoC4/cyfitter_cfg.c **** 
  83:Generated_Source\PSoC4/cyfitter_cfg.c **** 
  84:Generated_Source\PSoC4/cyfitter_cfg.c **** /* Clock startup error codes                                                   */
  85:Generated_Source\PSoC4/cyfitter_cfg.c **** #define CYCLOCKSTART_NO_ERROR    0u
  86:Generated_Source\PSoC4/cyfitter_cfg.c **** #define CYCLOCKSTART_XTAL_ERROR  1u
  87:Generated_Source\PSoC4/cyfitter_cfg.c **** #define CYCLOCKSTART_32KHZ_ERROR 2u
  88:Generated_Source\PSoC4/cyfitter_cfg.c **** #define CYCLOCKSTART_PLL_ERROR   3u
  89:Generated_Source\PSoC4/cyfitter_cfg.c **** 
  90:Generated_Source\PSoC4/cyfitter_cfg.c **** 
ARM GAS  C:\Users\Andres\AppData\Local\Temp\cco5dWVx.s 			page 3


  91:Generated_Source\PSoC4/cyfitter_cfg.c **** #ifdef CY_NEED_CYCLOCKSTARTUPERROR
  92:Generated_Source\PSoC4/cyfitter_cfg.c **** /*******************************************************************************
  93:Generated_Source\PSoC4/cyfitter_cfg.c **** * Function Name: CyClockStartupError
  94:Generated_Source\PSoC4/cyfitter_cfg.c **** ********************************************************************************
  95:Generated_Source\PSoC4/cyfitter_cfg.c **** * Summary:
  96:Generated_Source\PSoC4/cyfitter_cfg.c **** *  If an error is encountered during clock configuration (crystal startup error,
  97:Generated_Source\PSoC4/cyfitter_cfg.c **** *  PLL lock error, etc.), the system will end up here.  Unless reimplemented by
  98:Generated_Source\PSoC4/cyfitter_cfg.c **** *  the customer, this function will stop in an infinite loop.
  99:Generated_Source\PSoC4/cyfitter_cfg.c **** *
 100:Generated_Source\PSoC4/cyfitter_cfg.c **** * Parameters:
 101:Generated_Source\PSoC4/cyfitter_cfg.c **** *   void
 102:Generated_Source\PSoC4/cyfitter_cfg.c **** *
 103:Generated_Source\PSoC4/cyfitter_cfg.c **** * Return:
 104:Generated_Source\PSoC4/cyfitter_cfg.c **** *   void
 105:Generated_Source\PSoC4/cyfitter_cfg.c **** *
 106:Generated_Source\PSoC4/cyfitter_cfg.c **** *******************************************************************************/
 107:Generated_Source\PSoC4/cyfitter_cfg.c **** CY_CFG_UNUSED
 108:Generated_Source\PSoC4/cyfitter_cfg.c **** static void CyClockStartupError(uint8 errorCode);
 109:Generated_Source\PSoC4/cyfitter_cfg.c **** CY_CFG_UNUSED
 110:Generated_Source\PSoC4/cyfitter_cfg.c **** static void CyClockStartupError(uint8 errorCode)
 111:Generated_Source\PSoC4/cyfitter_cfg.c **** {
 112:Generated_Source\PSoC4/cyfitter_cfg.c ****     /* To remove the compiler warning if errorCode not used.                */
 113:Generated_Source\PSoC4/cyfitter_cfg.c ****     errorCode = errorCode;
 114:Generated_Source\PSoC4/cyfitter_cfg.c **** 
 115:Generated_Source\PSoC4/cyfitter_cfg.c ****     /* If we have a clock startup error (bad MHz crystal, PLL lock, etc.),  */
 116:Generated_Source\PSoC4/cyfitter_cfg.c ****     /* we will end up here to allow the customer to implement something to  */
 117:Generated_Source\PSoC4/cyfitter_cfg.c ****     /* deal with the clock condition.                                       */
 118:Generated_Source\PSoC4/cyfitter_cfg.c **** 
 119:Generated_Source\PSoC4/cyfitter_cfg.c **** #ifdef CY_CFG_CLOCK_STARTUP_ERROR_CALLBACK
 120:Generated_Source\PSoC4/cyfitter_cfg.c **** 	CY_CFG_Clock_Startup_ErrorCallback();
 121:Generated_Source\PSoC4/cyfitter_cfg.c **** #else
 122:Generated_Source\PSoC4/cyfitter_cfg.c **** 	/*  If not using CY_CFG_CLOCK_STARTUP_ERROR_CALLBACK, place your clock startup code here. */
 123:Generated_Source\PSoC4/cyfitter_cfg.c ****     /* `#START CyClockStartupError` */
 124:Generated_Source\PSoC4/cyfitter_cfg.c **** 
 125:Generated_Source\PSoC4/cyfitter_cfg.c ****     /* If we have a clock startup error (bad MHz crystal, PLL lock, etc.),  */
 126:Generated_Source\PSoC4/cyfitter_cfg.c ****     /* we will end up here to allow the customer to implement something to  */
 127:Generated_Source\PSoC4/cyfitter_cfg.c ****     /* deal with the clock condition.                                       */
 128:Generated_Source\PSoC4/cyfitter_cfg.c **** 
 129:Generated_Source\PSoC4/cyfitter_cfg.c ****     /* `#END` */
 130:Generated_Source\PSoC4/cyfitter_cfg.c **** 
 131:Generated_Source\PSoC4/cyfitter_cfg.c ****     /* If nothing else, stop here since the clocks have not started         */
 132:Generated_Source\PSoC4/cyfitter_cfg.c ****     /* correctly.                                                           */
 133:Generated_Source\PSoC4/cyfitter_cfg.c ****     while(1) {}
 134:Generated_Source\PSoC4/cyfitter_cfg.c **** #endif /* CY_CFG_CLOCK_STARTUP_ERROR_CALLBACK */ 
 135:Generated_Source\PSoC4/cyfitter_cfg.c **** }
 136:Generated_Source\PSoC4/cyfitter_cfg.c **** #endif
 137:Generated_Source\PSoC4/cyfitter_cfg.c **** 
 138:Generated_Source\PSoC4/cyfitter_cfg.c **** #define CY_CFG_BASE_ADDR_COUNT 10u
 139:Generated_Source\PSoC4/cyfitter_cfg.c **** CYPACKED typedef struct
 140:Generated_Source\PSoC4/cyfitter_cfg.c **** {
 141:Generated_Source\PSoC4/cyfitter_cfg.c **** 	uint8 offset;
 142:Generated_Source\PSoC4/cyfitter_cfg.c **** 	uint8 value;
 143:Generated_Source\PSoC4/cyfitter_cfg.c **** } CYPACKED_ATTR cy_cfg_addrvalue_t;
 144:Generated_Source\PSoC4/cyfitter_cfg.c **** 
 145:Generated_Source\PSoC4/cyfitter_cfg.c **** 
 146:Generated_Source\PSoC4/cyfitter_cfg.c **** 
 147:Generated_Source\PSoC4/cyfitter_cfg.c **** /*******************************************************************************
ARM GAS  C:\Users\Andres\AppData\Local\Temp\cco5dWVx.s 			page 4


 148:Generated_Source\PSoC4/cyfitter_cfg.c **** * Function Name: cfg_write_bytes32
 149:Generated_Source\PSoC4/cyfitter_cfg.c **** ********************************************************************************
 150:Generated_Source\PSoC4/cyfitter_cfg.c **** * Summary:
 151:Generated_Source\PSoC4/cyfitter_cfg.c **** *  This function is used for setting up the chip configuration areas that
 152:Generated_Source\PSoC4/cyfitter_cfg.c **** *  contain relatively sparse data.
 153:Generated_Source\PSoC4/cyfitter_cfg.c **** *
 154:Generated_Source\PSoC4/cyfitter_cfg.c **** * Parameters:
 155:Generated_Source\PSoC4/cyfitter_cfg.c **** *   void
 156:Generated_Source\PSoC4/cyfitter_cfg.c **** *
 157:Generated_Source\PSoC4/cyfitter_cfg.c **** * Return:
 158:Generated_Source\PSoC4/cyfitter_cfg.c **** *   void
 159:Generated_Source\PSoC4/cyfitter_cfg.c **** *
 160:Generated_Source\PSoC4/cyfitter_cfg.c **** *******************************************************************************/
 161:Generated_Source\PSoC4/cyfitter_cfg.c **** static void cfg_write_bytes32(const uint32 addr_table[], const cy_cfg_addrvalue_t data_table[]);
 162:Generated_Source\PSoC4/cyfitter_cfg.c **** static void cfg_write_bytes32(const uint32 addr_table[], const cy_cfg_addrvalue_t data_table[])
 163:Generated_Source\PSoC4/cyfitter_cfg.c **** {
  25              		.loc 1 163 0
  26              		.cfi_startproc
  27              	.LVL0:
  28 0000 F0B5     		push	{r4, r5, r6, r7, lr}
  29              		.cfi_def_cfa_offset 20
  30              		.cfi_offset 4, -20
  31              		.cfi_offset 5, -16
  32              		.cfi_offset 6, -12
  33              		.cfi_offset 7, -8
  34              		.cfi_offset 14, -4
  35              	.LVL1:
 164:Generated_Source\PSoC4/cyfitter_cfg.c **** 	/* For 32-bit little-endian architectures */
 165:Generated_Source\PSoC4/cyfitter_cfg.c **** 	uint32 i, j = 0u;
  36              		.loc 1 165 0
  37 0002 0025     		mov	r5, #0
 166:Generated_Source\PSoC4/cyfitter_cfg.c **** 	for (i = 0u; i < CY_CFG_BASE_ADDR_COUNT; i++)
  38              		.loc 1 166 0
  39 0004 0027     		mov	r7, #0
  40 0006 11E0     		b	.L2
  41              	.LVL2:
  42              	.L5:
  43              	.LBB2:
 167:Generated_Source\PSoC4/cyfitter_cfg.c **** 	{
 168:Generated_Source\PSoC4/cyfitter_cfg.c **** 		uint32 baseAddr = addr_table[i];
  44              		.loc 1 168 0
  45 0008 BB00     		lsl	r3, r7, #2
  46 000a C658     		ldr	r6, [r0, r3]
  47              	.LVL3:
 169:Generated_Source\PSoC4/cyfitter_cfg.c **** 		uint8 count = (uint8)baseAddr;
  48              		.loc 1 169 0
  49 000c F3B2     		uxtb	r3, r6
  50              	.LVL4:
 170:Generated_Source\PSoC4/cyfitter_cfg.c **** 		baseAddr &= 0xFFFFFF00u;
  51              		.loc 1 170 0
  52 000e FF22     		mov	r2, #255
  53 0010 9643     		bic	r6, r2
  54              	.LVL5:
 171:Generated_Source\PSoC4/cyfitter_cfg.c **** 		while (count != 0u)
  55              		.loc 1 171 0
  56 0012 08E0     		b	.L3
  57              	.L4:
ARM GAS  C:\Users\Andres\AppData\Local\Temp\cco5dWVx.s 			page 5


 172:Generated_Source\PSoC4/cyfitter_cfg.c **** 		{
 173:Generated_Source\PSoC4/cyfitter_cfg.c **** 			CY_SET_XTND_REG8((void CYFAR *)(baseAddr + data_table[j].offset), data_table[j].value);
  58              		.loc 1 173 0
  59 0014 6A00     		lsl	r2, r5, #1
  60 0016 8A18     		add	r2, r1, r2
  61 0018 1478     		ldrb	r4, [r2]
  62 001a A419     		add	r4, r4, r6
  63 001c 5278     		ldrb	r2, [r2, #1]
  64 001e 2270     		strb	r2, [r4]
 174:Generated_Source\PSoC4/cyfitter_cfg.c **** 			j++;
  65              		.loc 1 174 0
  66 0020 0135     		add	r5, r5, #1
  67              	.LVL6:
 175:Generated_Source\PSoC4/cyfitter_cfg.c **** 			count--;
  68              		.loc 1 175 0
  69 0022 013B     		sub	r3, r3, #1
  70              	.LVL7:
  71 0024 DBB2     		uxtb	r3, r3
  72              	.LVL8:
  73              	.L3:
 171:Generated_Source\PSoC4/cyfitter_cfg.c **** 		{
  74              		.loc 1 171 0
  75 0026 002B     		cmp	r3, #0
  76 0028 F4D1     		bne	.L4
  77              	.LBE2:
 166:Generated_Source\PSoC4/cyfitter_cfg.c **** 	{
  78              		.loc 1 166 0 discriminator 2
  79 002a 0137     		add	r7, r7, #1
  80              	.LVL9:
  81              	.L2:
 166:Generated_Source\PSoC4/cyfitter_cfg.c **** 	{
  82              		.loc 1 166 0 is_stmt 0 discriminator 1
  83 002c 092F     		cmp	r7, #9
  84 002e EBD9     		bls	.L5
 176:Generated_Source\PSoC4/cyfitter_cfg.c **** 		}
 177:Generated_Source\PSoC4/cyfitter_cfg.c **** 	}
 178:Generated_Source\PSoC4/cyfitter_cfg.c **** }
  85              		.loc 1 178 0 is_stmt 1
  86              		@ sp needed
  87              	.LVL10:
  88              	.LVL11:
  89 0030 F0BD     		pop	{r4, r5, r6, r7, pc}
  90              		.cfi_endproc
  91              	.LFE4:
  92              		.size	cfg_write_bytes32, .-cfg_write_bytes32
  93 0032 C046     		.section	.text.AnalogSetDefault,"ax",%progbits
  94              		.align	2
  95              		.code	16
  96              		.thumb_func
  97              		.type	AnalogSetDefault, %function
  98              	AnalogSetDefault:
  99              	.LFB6:
 179:Generated_Source\PSoC4/cyfitter_cfg.c **** 
 180:Generated_Source\PSoC4/cyfitter_cfg.c **** 
 181:Generated_Source\PSoC4/cyfitter_cfg.c **** /*******************************************************************************
 182:Generated_Source\PSoC4/cyfitter_cfg.c **** * Function Name: ClockSetup
 183:Generated_Source\PSoC4/cyfitter_cfg.c **** ********************************************************************************
ARM GAS  C:\Users\Andres\AppData\Local\Temp\cco5dWVx.s 			page 6


 184:Generated_Source\PSoC4/cyfitter_cfg.c **** *
 185:Generated_Source\PSoC4/cyfitter_cfg.c **** * Summary:
 186:Generated_Source\PSoC4/cyfitter_cfg.c **** *   Performs the initialization of all of the clocks in the device based on the
 187:Generated_Source\PSoC4/cyfitter_cfg.c **** *   settings in the Clock tab of the DWR.  This includes enabling the requested
 188:Generated_Source\PSoC4/cyfitter_cfg.c **** *   clocks and setting the necessary dividers to produce the desired frequency. 
 189:Generated_Source\PSoC4/cyfitter_cfg.c **** *
 190:Generated_Source\PSoC4/cyfitter_cfg.c **** * Parameters:
 191:Generated_Source\PSoC4/cyfitter_cfg.c **** *   void
 192:Generated_Source\PSoC4/cyfitter_cfg.c **** *
 193:Generated_Source\PSoC4/cyfitter_cfg.c **** * Return:
 194:Generated_Source\PSoC4/cyfitter_cfg.c **** *   void
 195:Generated_Source\PSoC4/cyfitter_cfg.c **** *
 196:Generated_Source\PSoC4/cyfitter_cfg.c **** *******************************************************************************/
 197:Generated_Source\PSoC4/cyfitter_cfg.c **** static void ClockSetup(void);
 198:Generated_Source\PSoC4/cyfitter_cfg.c **** CY_CFG_SECTION
 199:Generated_Source\PSoC4/cyfitter_cfg.c **** static void ClockSetup(void)
 200:Generated_Source\PSoC4/cyfitter_cfg.c **** {
 201:Generated_Source\PSoC4/cyfitter_cfg.c **** 
 202:Generated_Source\PSoC4/cyfitter_cfg.c **** 	/* Set Flash Cycles based on max possible frequency in case a glitch occurs during ClockSetup(). *
 203:Generated_Source\PSoC4/cyfitter_cfg.c **** 	CY_SET_REG32((void CYXDATA *)(CYREG_CPUSS_FLASH_CTL), (0x0012u));
 204:Generated_Source\PSoC4/cyfitter_cfg.c **** 
 205:Generated_Source\PSoC4/cyfitter_cfg.c **** 	/* Start the WCO */
 206:Generated_Source\PSoC4/cyfitter_cfg.c **** 	CySysClkWcoStart();
 207:Generated_Source\PSoC4/cyfitter_cfg.c **** 	CyDelayCycles(12000000u); /* WCO may take up to 500ms to start */
 208:Generated_Source\PSoC4/cyfitter_cfg.c **** 
 209:Generated_Source\PSoC4/cyfitter_cfg.c **** 	/* Setup and trim IMO based on desired frequency. */
 210:Generated_Source\PSoC4/cyfitter_cfg.c **** 	CySysClkWriteImoFreq(24u);
 211:Generated_Source\PSoC4/cyfitter_cfg.c **** 	CySysClkImoEnableWcoLock();
 212:Generated_Source\PSoC4/cyfitter_cfg.c **** 	/* CYDEV_CLK_ILO_CONFIG Starting address: CYDEV_CLK_ILO_CONFIG */
 213:Generated_Source\PSoC4/cyfitter_cfg.c **** 	CY_SET_XTND_REG32((void CYFAR *)(CYREG_CLK_ILO_CONFIG), 0x80000006u);
 214:Generated_Source\PSoC4/cyfitter_cfg.c **** 
 215:Generated_Source\PSoC4/cyfitter_cfg.c **** 	/* CYDEV_WDT_CONFIG Starting address: CYDEV_WDT_CONFIG */
 216:Generated_Source\PSoC4/cyfitter_cfg.c **** 	CY_SET_XTND_REG32((void CYFAR *)(CYREG_WDT_CONFIG), 0x40000000u);
 217:Generated_Source\PSoC4/cyfitter_cfg.c **** 
 218:Generated_Source\PSoC4/cyfitter_cfg.c **** 
 219:Generated_Source\PSoC4/cyfitter_cfg.c **** 	/* Setup phase aligned clocks */
 220:Generated_Source\PSoC4/cyfitter_cfg.c **** 	CY_SET_REG32((void *)CYREG_PERI_DIV_16_CTL0, 0x00000000u);
 221:Generated_Source\PSoC4/cyfitter_cfg.c **** 	CY_SET_REG32((void *)CYREG_PERI_DIV_CMD, 0x8000FF40u);
 222:Generated_Source\PSoC4/cyfitter_cfg.c **** 	CY_SET_REG32((void *)CYREG_PERI_DIV_16_CTL6, 0x00013800u);
 223:Generated_Source\PSoC4/cyfitter_cfg.c **** 	CY_SET_REG32((void *)CYREG_PERI_DIV_CMD, 0x8000FF46u);
 224:Generated_Source\PSoC4/cyfitter_cfg.c **** 	CY_SET_REG32((void *)CYREG_PERI_DIV_16_CTL5, 0x00013800u);
 225:Generated_Source\PSoC4/cyfitter_cfg.c **** 	CY_SET_REG32((void *)CYREG_PERI_DIV_CMD, 0x8000FF45u);
 226:Generated_Source\PSoC4/cyfitter_cfg.c **** 	CY_SET_REG32((void *)CYREG_PERI_DIV_16_CTL4, 0x00000E00u);
 227:Generated_Source\PSoC4/cyfitter_cfg.c **** 	CY_SET_REG32((void *)CYREG_PERI_DIV_CMD, 0x8000FF44u);
 228:Generated_Source\PSoC4/cyfitter_cfg.c **** 	CY_SET_REG32((void *)CYREG_PERI_DIV_16_CTL1, 0x00000E00u);
 229:Generated_Source\PSoC4/cyfitter_cfg.c **** 	CY_SET_REG32((void *)CYREG_PERI_DIV_CMD, 0x8000FF41u);
 230:Generated_Source\PSoC4/cyfitter_cfg.c **** 	CY_SET_REG32((void *)CYREG_PERI_DIV_16_CTL3, 0x00000E00u);
 231:Generated_Source\PSoC4/cyfitter_cfg.c **** 	CY_SET_REG32((void *)CYREG_PERI_DIV_CMD, 0x8000FF43u);
 232:Generated_Source\PSoC4/cyfitter_cfg.c **** 	CY_SET_REG32((void *)CYREG_PERI_DIV_16_CTL2, 0x00000E00u);
 233:Generated_Source\PSoC4/cyfitter_cfg.c **** 	CY_SET_REG32((void *)CYREG_PERI_DIV_CMD, 0x8000FF42u);
 234:Generated_Source\PSoC4/cyfitter_cfg.c **** 
 235:Generated_Source\PSoC4/cyfitter_cfg.c **** 	/* CYDEV_CLK_IMO_CONFIG Starting address: CYDEV_CLK_IMO_CONFIG */
 236:Generated_Source\PSoC4/cyfitter_cfg.c **** 	CY_SET_XTND_REG32((void CYFAR *)(CYREG_CLK_IMO_CONFIG), 0x80000000u);
 237:Generated_Source\PSoC4/cyfitter_cfg.c **** 
 238:Generated_Source\PSoC4/cyfitter_cfg.c **** 	/* CYDEV_CLK_SELECT Starting address: CYDEV_CLK_SELECT */
 239:Generated_Source\PSoC4/cyfitter_cfg.c **** 	CY_SET_XTND_REG32((void CYFAR *)(CYREG_CLK_SELECT), 0x00000000u);
 240:Generated_Source\PSoC4/cyfitter_cfg.c **** 
ARM GAS  C:\Users\Andres\AppData\Local\Temp\cco5dWVx.s 			page 7


 241:Generated_Source\PSoC4/cyfitter_cfg.c **** 	/* CYDEV_PERI_PCLK_CTL22 Starting address: CYDEV_PERI_PCLK_CTL22 */
 242:Generated_Source\PSoC4/cyfitter_cfg.c **** 	CY_SET_XTND_REG32((void CYFAR *)(CYREG_PERI_PCLK_CTL22), 0x00000046u);
 243:Generated_Source\PSoC4/cyfitter_cfg.c **** 
 244:Generated_Source\PSoC4/cyfitter_cfg.c **** 	/* CYDEV_PERI_PCLK_CTL20 Starting address: CYDEV_PERI_PCLK_CTL20 */
 245:Generated_Source\PSoC4/cyfitter_cfg.c **** 	CY_SET_XTND_REG32((void CYFAR *)(CYREG_PERI_PCLK_CTL20), 0x00000045u);
 246:Generated_Source\PSoC4/cyfitter_cfg.c **** 
 247:Generated_Source\PSoC4/cyfitter_cfg.c **** 	/* CYDEV_PERI_PCLK_CTL5 Starting address: CYDEV_PERI_PCLK_CTL5 */
 248:Generated_Source\PSoC4/cyfitter_cfg.c **** 	CY_SET_XTND_REG32((void CYFAR *)(CYREG_PERI_PCLK_CTL5), 0x00000044u);
 249:Generated_Source\PSoC4/cyfitter_cfg.c **** 
 250:Generated_Source\PSoC4/cyfitter_cfg.c **** 	/* CYDEV_PERI_PCLK_CTL4 Starting address: CYDEV_PERI_PCLK_CTL4 */
 251:Generated_Source\PSoC4/cyfitter_cfg.c **** 	CY_SET_XTND_REG32((void CYFAR *)(CYREG_PERI_PCLK_CTL4), 0x00000041u);
 252:Generated_Source\PSoC4/cyfitter_cfg.c **** 
 253:Generated_Source\PSoC4/cyfitter_cfg.c **** 	/* CYDEV_PERI_PCLK_CTL3 Starting address: CYDEV_PERI_PCLK_CTL3 */
 254:Generated_Source\PSoC4/cyfitter_cfg.c **** 	CY_SET_XTND_REG32((void CYFAR *)(CYREG_PERI_PCLK_CTL3), 0x00000043u);
 255:Generated_Source\PSoC4/cyfitter_cfg.c **** 
 256:Generated_Source\PSoC4/cyfitter_cfg.c **** 	/* CYDEV_PERI_PCLK_CTL2 Starting address: CYDEV_PERI_PCLK_CTL2 */
 257:Generated_Source\PSoC4/cyfitter_cfg.c **** 	CY_SET_XTND_REG32((void CYFAR *)(CYREG_PERI_PCLK_CTL2), 0x00000042u);
 258:Generated_Source\PSoC4/cyfitter_cfg.c **** 
 259:Generated_Source\PSoC4/cyfitter_cfg.c **** 	(void)CyIntSetVector(7u, &CySysWdtIsr);
 260:Generated_Source\PSoC4/cyfitter_cfg.c **** 	CyIntEnable(7u);
 261:Generated_Source\PSoC4/cyfitter_cfg.c **** 	CY_SET_XTND_REG32((void CYFAR *)(CYREG_WDT_CONFIG), 0x40000000u);
 262:Generated_Source\PSoC4/cyfitter_cfg.c **** 	/* Set Flash Cycles based on newly configured 24.00MHz HFCLK. */
 263:Generated_Source\PSoC4/cyfitter_cfg.c **** 	CY_SET_REG32((void CYXDATA *)(CYREG_CPUSS_FLASH_CTL), (0x0011u));
 264:Generated_Source\PSoC4/cyfitter_cfg.c **** }
 265:Generated_Source\PSoC4/cyfitter_cfg.c **** 
 266:Generated_Source\PSoC4/cyfitter_cfg.c **** 
 267:Generated_Source\PSoC4/cyfitter_cfg.c **** /* Analog API Functions */
 268:Generated_Source\PSoC4/cyfitter_cfg.c **** 
 269:Generated_Source\PSoC4/cyfitter_cfg.c **** 
 270:Generated_Source\PSoC4/cyfitter_cfg.c **** /*******************************************************************************
 271:Generated_Source\PSoC4/cyfitter_cfg.c **** * Function Name: AnalogSetDefault
 272:Generated_Source\PSoC4/cyfitter_cfg.c **** ********************************************************************************
 273:Generated_Source\PSoC4/cyfitter_cfg.c **** *
 274:Generated_Source\PSoC4/cyfitter_cfg.c **** * Summary:
 275:Generated_Source\PSoC4/cyfitter_cfg.c **** *  Sets up the analog portions of the chip to default values based on chip
 276:Generated_Source\PSoC4/cyfitter_cfg.c **** *  configuration options from the project.
 277:Generated_Source\PSoC4/cyfitter_cfg.c **** *
 278:Generated_Source\PSoC4/cyfitter_cfg.c **** * Parameters:
 279:Generated_Source\PSoC4/cyfitter_cfg.c **** *  void
 280:Generated_Source\PSoC4/cyfitter_cfg.c **** *
 281:Generated_Source\PSoC4/cyfitter_cfg.c **** * Return:
 282:Generated_Source\PSoC4/cyfitter_cfg.c **** *  void
 283:Generated_Source\PSoC4/cyfitter_cfg.c **** *
 284:Generated_Source\PSoC4/cyfitter_cfg.c **** *******************************************************************************/
 285:Generated_Source\PSoC4/cyfitter_cfg.c **** static void AnalogSetDefault(void);
 286:Generated_Source\PSoC4/cyfitter_cfg.c **** static void AnalogSetDefault(void)
 287:Generated_Source\PSoC4/cyfitter_cfg.c **** {
 100              		.loc 1 287 0
 101              		.cfi_startproc
 288:Generated_Source\PSoC4/cyfitter_cfg.c **** 	CY_SET_XTND_REG32((void CYFAR *)CYREG_CTBM0_DFT_CTRL, 0x00000003u);
 102              		.loc 1 288 0
 103 0000 0323     		mov	r3, #3
 104 0002 044A     		ldr	r2, .L7
 105 0004 1360     		str	r3, [r2]
 289:Generated_Source\PSoC4/cyfitter_cfg.c **** 	CY_SET_XTND_REG32((void CYFAR *)CYREG_CTBM1_DFT_CTRL, 0x00000003u);
 106              		.loc 1 289 0
 107 0006 044A     		ldr	r2, .L7+4
ARM GAS  C:\Users\Andres\AppData\Local\Temp\cco5dWVx.s 			page 8


 108 0008 1360     		str	r3, [r2]
 290:Generated_Source\PSoC4/cyfitter_cfg.c **** 	CY_SET_XTND_REG32((void CYFAR *)CYREG_PASS_DSAB_DSAB_CTRL, 0x00000000u);
 109              		.loc 1 290 0
 110 000a 0022     		mov	r2, #0
 111 000c 034B     		ldr	r3, .L7+8
 112 000e 1A60     		str	r2, [r3]
 291:Generated_Source\PSoC4/cyfitter_cfg.c **** }
 113              		.loc 1 291 0
 114              		@ sp needed
 115 0010 7047     		bx	lr
 116              	.L8:
 117 0012 C046     		.align	2
 118              	.L7:
 119 0014 30003040 		.word	1076887600
 120 0018 30003140 		.word	1076953136
 121 001c 000E3F40 		.word	1077874176
 122              		.cfi_endproc
 123              	.LFE6:
 124              		.size	AnalogSetDefault, .-AnalogSetDefault
 125              		.section	.text.CYMEMZERO,"ax",%progbits
 126              		.align	2
 127              		.code	16
 128              		.thumb_func
 129              		.type	CYMEMZERO, %function
 130              	CYMEMZERO:
 131              	.LFB1:
  63:Generated_Source\PSoC4/cyfitter_cfg.c **** 	(void)memset(s, 0, n);
 132              		.loc 1 63 0
 133              		.cfi_startproc
 134              	.LVL12:
 135 0000 08B5     		push	{r3, lr}
 136              		.cfi_def_cfa_offset 8
 137              		.cfi_offset 3, -8
 138              		.cfi_offset 14, -4
 139 0002 0A1C     		mov	r2, r1
  64:Generated_Source\PSoC4/cyfitter_cfg.c **** }
 140              		.loc 1 64 0
 141 0004 0021     		mov	r1, #0
 142              	.LVL13:
 143 0006 FFF7FEFF 		bl	memset
 144              	.LVL14:
  65:Generated_Source\PSoC4/cyfitter_cfg.c **** CY_CFG_UNUSED
 145              		.loc 1 65 0
 146              		@ sp needed
 147 000a 08BD     		pop	{r3, pc}
 148              		.cfi_endproc
 149              	.LFE1:
 150              		.size	CYMEMZERO, .-CYMEMZERO
 151              		.section	.text.CYCONFIGCPYCODE,"ax",%progbits
 152              		.align	2
 153              		.code	16
 154              		.thumb_func
 155              		.type	CYCONFIGCPYCODE, %function
 156              	CYCONFIGCPYCODE:
 157              	.LFB3:
  77:Generated_Source\PSoC4/cyfitter_cfg.c **** 	(void)memcpy(dest, src, n);
 158              		.loc 1 77 0
ARM GAS  C:\Users\Andres\AppData\Local\Temp\cco5dWVx.s 			page 9


 159              		.cfi_startproc
 160              	.LVL15:
 161 0000 08B5     		push	{r3, lr}
 162              		.cfi_def_cfa_offset 8
 163              		.cfi_offset 3, -8
 164              		.cfi_offset 14, -4
  78:Generated_Source\PSoC4/cyfitter_cfg.c **** }
 165              		.loc 1 78 0
 166 0002 FFF7FEFF 		bl	memcpy
 167              	.LVL16:
  79:Generated_Source\PSoC4/cyfitter_cfg.c **** 
 168              		.loc 1 79 0
 169              		@ sp needed
 170 0006 08BD     		pop	{r3, pc}
 171              		.cfi_endproc
 172              	.LFE3:
 173              		.size	CYCONFIGCPYCODE, .-CYCONFIGCPYCODE
 174              		.section	.psocinit,"ax",%progbits
 175              		.align	2
 176              		.code	16
 177              		.thumb_func
 178              		.type	ClockSetup, %function
 179              	ClockSetup:
 180              	.LFB5:
 200:Generated_Source\PSoC4/cyfitter_cfg.c **** 
 181              		.loc 1 200 0
 182              		.cfi_startproc
 183 0000 70B5     		push	{r4, r5, r6, lr}
 184              		.cfi_def_cfa_offset 16
 185              		.cfi_offset 4, -16
 186              		.cfi_offset 5, -12
 187              		.cfi_offset 6, -8
 188              		.cfi_offset 14, -4
 203:Generated_Source\PSoC4/cyfitter_cfg.c **** 
 189              		.loc 1 203 0
 190 0002 2C4C     		ldr	r4, .L12
 191 0004 1223     		mov	r3, #18
 192 0006 2360     		str	r3, [r4]
 206:Generated_Source\PSoC4/cyfitter_cfg.c **** 	CyDelayCycles(12000000u); /* WCO may take up to 500ms to start */
 193              		.loc 1 206 0
 194 0008 FFF7FEFF 		bl	CySysClkWcoStart
 195              	.LVL17:
 207:Generated_Source\PSoC4/cyfitter_cfg.c **** 
 196              		.loc 1 207 0
 197 000c 2A48     		ldr	r0, .L12+4
 198 000e FFF7FEFF 		bl	CyDelayCycles
 199              	.LVL18:
 210:Generated_Source\PSoC4/cyfitter_cfg.c **** 	CySysClkImoEnableWcoLock();
 200              		.loc 1 210 0
 201 0012 1820     		mov	r0, #24
 202 0014 FFF7FEFF 		bl	CySysClkWriteImoFreq
 203              	.LVL19:
 211:Generated_Source\PSoC4/cyfitter_cfg.c **** 	/* CYDEV_CLK_ILO_CONFIG Starting address: CYDEV_CLK_ILO_CONFIG */
 204              		.loc 1 211 0
 205 0018 FFF7FEFF 		bl	CySysClkImoEnableWcoLock
 206              	.LVL20:
 213:Generated_Source\PSoC4/cyfitter_cfg.c **** 
ARM GAS  C:\Users\Andres\AppData\Local\Temp\cco5dWVx.s 			page 10


 207              		.loc 1 213 0
 208 001c 274A     		ldr	r2, .L12+8
 209 001e 284B     		ldr	r3, .L12+12
 210 0020 1A60     		str	r2, [r3]
 216:Generated_Source\PSoC4/cyfitter_cfg.c **** 
 211              		.loc 1 216 0
 212 0022 284D     		ldr	r5, .L12+16
 213 0024 8026     		mov	r6, #128
 214 0026 F605     		lsl	r6, r6, #23
 215 0028 2E60     		str	r6, [r5]
 220:Generated_Source\PSoC4/cyfitter_cfg.c **** 	CY_SET_REG32((void *)CYREG_PERI_DIV_CMD, 0x8000FF40u);
 216              		.loc 1 220 0
 217 002a 0021     		mov	r1, #0
 218 002c 264B     		ldr	r3, .L12+20
 219 002e 1960     		str	r1, [r3]
 221:Generated_Source\PSoC4/cyfitter_cfg.c **** 	CY_SET_REG32((void *)CYREG_PERI_DIV_16_CTL6, 0x00013800u);
 220              		.loc 1 221 0
 221 0030 264B     		ldr	r3, .L12+24
 222 0032 274A     		ldr	r2, .L12+28
 223 0034 1A60     		str	r2, [r3]
 222:Generated_Source\PSoC4/cyfitter_cfg.c **** 	CY_SET_REG32((void *)CYREG_PERI_DIV_CMD, 0x8000FF46u);
 224              		.loc 1 222 0
 225 0036 9C22     		mov	r2, #156
 226 0038 5202     		lsl	r2, r2, #9
 227 003a 2648     		ldr	r0, .L12+32
 228 003c 0260     		str	r2, [r0]
 223:Generated_Source\PSoC4/cyfitter_cfg.c **** 	CY_SET_REG32((void *)CYREG_PERI_DIV_16_CTL5, 0x00013800u);
 229              		.loc 1 223 0
 230 003e 2648     		ldr	r0, .L12+36
 231 0040 1860     		str	r0, [r3]
 224:Generated_Source\PSoC4/cyfitter_cfg.c **** 	CY_SET_REG32((void *)CYREG_PERI_DIV_CMD, 0x8000FF45u);
 232              		.loc 1 224 0
 233 0042 2648     		ldr	r0, .L12+40
 234 0044 0260     		str	r2, [r0]
 225:Generated_Source\PSoC4/cyfitter_cfg.c **** 	CY_SET_REG32((void *)CYREG_PERI_DIV_16_CTL4, 0x00000E00u);
 235              		.loc 1 225 0
 236 0046 264A     		ldr	r2, .L12+44
 237 0048 1A60     		str	r2, [r3]
 226:Generated_Source\PSoC4/cyfitter_cfg.c **** 	CY_SET_REG32((void *)CYREG_PERI_DIV_CMD, 0x8000FF44u);
 238              		.loc 1 226 0
 239 004a E022     		mov	r2, #224
 240 004c 1201     		lsl	r2, r2, #4
 241 004e 2548     		ldr	r0, .L12+48
 242 0050 0260     		str	r2, [r0]
 227:Generated_Source\PSoC4/cyfitter_cfg.c **** 	CY_SET_REG32((void *)CYREG_PERI_DIV_16_CTL1, 0x00000E00u);
 243              		.loc 1 227 0
 244 0052 2548     		ldr	r0, .L12+52
 245 0054 1860     		str	r0, [r3]
 228:Generated_Source\PSoC4/cyfitter_cfg.c **** 	CY_SET_REG32((void *)CYREG_PERI_DIV_CMD, 0x8000FF41u);
 246              		.loc 1 228 0
 247 0056 2548     		ldr	r0, .L12+56
 248 0058 0260     		str	r2, [r0]
 229:Generated_Source\PSoC4/cyfitter_cfg.c **** 	CY_SET_REG32((void *)CYREG_PERI_DIV_16_CTL3, 0x00000E00u);
 249              		.loc 1 229 0
 250 005a 2548     		ldr	r0, .L12+60
 251 005c 1860     		str	r0, [r3]
 230:Generated_Source\PSoC4/cyfitter_cfg.c **** 	CY_SET_REG32((void *)CYREG_PERI_DIV_CMD, 0x8000FF43u);
ARM GAS  C:\Users\Andres\AppData\Local\Temp\cco5dWVx.s 			page 11


 252              		.loc 1 230 0
 253 005e 2548     		ldr	r0, .L12+64
 254 0060 0260     		str	r2, [r0]
 231:Generated_Source\PSoC4/cyfitter_cfg.c **** 	CY_SET_REG32((void *)CYREG_PERI_DIV_16_CTL2, 0x00000E00u);
 255              		.loc 1 231 0
 256 0062 2548     		ldr	r0, .L12+68
 257 0064 1860     		str	r0, [r3]
 232:Generated_Source\PSoC4/cyfitter_cfg.c **** 	CY_SET_REG32((void *)CYREG_PERI_DIV_CMD, 0x8000FF42u);
 258              		.loc 1 232 0
 259 0066 2548     		ldr	r0, .L12+72
 260 0068 0260     		str	r2, [r0]
 233:Generated_Source\PSoC4/cyfitter_cfg.c **** 
 261              		.loc 1 233 0
 262 006a 254A     		ldr	r2, .L12+76
 263 006c 1A60     		str	r2, [r3]
 236:Generated_Source\PSoC4/cyfitter_cfg.c **** 
 264              		.loc 1 236 0
 265 006e 8022     		mov	r2, #128
 266 0070 1206     		lsl	r2, r2, #24
 267 0072 244B     		ldr	r3, .L12+80
 268 0074 1A60     		str	r2, [r3]
 239:Generated_Source\PSoC4/cyfitter_cfg.c **** 
 269              		.loc 1 239 0
 270 0076 244B     		ldr	r3, .L12+84
 271 0078 1960     		str	r1, [r3]
 242:Generated_Source\PSoC4/cyfitter_cfg.c **** 
 272              		.loc 1 242 0
 273 007a 4622     		mov	r2, #70
 274 007c 234B     		ldr	r3, .L12+88
 275 007e 1A60     		str	r2, [r3]
 245:Generated_Source\PSoC4/cyfitter_cfg.c **** 
 276              		.loc 1 245 0
 277 0080 013A     		sub	r2, r2, #1
 278 0082 234B     		ldr	r3, .L12+92
 279 0084 1A60     		str	r2, [r3]
 248:Generated_Source\PSoC4/cyfitter_cfg.c **** 
 280              		.loc 1 248 0
 281 0086 013A     		sub	r2, r2, #1
 282 0088 224B     		ldr	r3, .L12+96
 283 008a 1A60     		str	r2, [r3]
 251:Generated_Source\PSoC4/cyfitter_cfg.c **** 
 284              		.loc 1 251 0
 285 008c 033A     		sub	r2, r2, #3
 286 008e 224B     		ldr	r3, .L12+100
 287 0090 1A60     		str	r2, [r3]
 254:Generated_Source\PSoC4/cyfitter_cfg.c **** 
 288              		.loc 1 254 0
 289 0092 0232     		add	r2, r2, #2
 290 0094 214B     		ldr	r3, .L12+104
 291 0096 1A60     		str	r2, [r3]
 257:Generated_Source\PSoC4/cyfitter_cfg.c **** 
 292              		.loc 1 257 0
 293 0098 013A     		sub	r2, r2, #1
 294 009a 214B     		ldr	r3, .L12+108
 295 009c 1A60     		str	r2, [r3]
 259:Generated_Source\PSoC4/cyfitter_cfg.c **** 	CyIntEnable(7u);
 296              		.loc 1 259 0
ARM GAS  C:\Users\Andres\AppData\Local\Temp\cco5dWVx.s 			page 12


 297 009e 0720     		mov	r0, #7
 298 00a0 2049     		ldr	r1, .L12+112
 299 00a2 FFF7FEFF 		bl	CyIntSetVector
 300              	.LVL21:
 260:Generated_Source\PSoC4/cyfitter_cfg.c **** 	CY_SET_XTND_REG32((void CYFAR *)(CYREG_WDT_CONFIG), 0x40000000u);
 301              		.loc 1 260 0
 302 00a6 0720     		mov	r0, #7
 303 00a8 FFF7FEFF 		bl	CyIntEnable
 304              	.LVL22:
 261:Generated_Source\PSoC4/cyfitter_cfg.c **** 	/* Set Flash Cycles based on newly configured 24.00MHz HFCLK. */
 305              		.loc 1 261 0
 306 00ac 2E60     		str	r6, [r5]
 263:Generated_Source\PSoC4/cyfitter_cfg.c **** }
 307              		.loc 1 263 0
 308 00ae 1123     		mov	r3, #17
 309 00b0 2360     		str	r3, [r4]
 264:Generated_Source\PSoC4/cyfitter_cfg.c **** 
 310              		.loc 1 264 0
 311              		@ sp needed
 312 00b2 70BD     		pop	{r4, r5, r6, pc}
 313              	.L13:
 314              		.align	2
 315              	.L12:
 316 00b4 30001040 		.word	1074790448
 317 00b8 001BB700 		.word	12000000
 318 00bc 06000080 		.word	-2147483642
 319 00c0 04010B40 		.word	1074462980
 320 00c4 0C020B40 		.word	1074463244
 321 00c8 00030140 		.word	1073808128
 322 00cc 00000140 		.word	1073807360
 323 00d0 40FF0080 		.word	-2147418304
 324 00d4 18030140 		.word	1073808152
 325 00d8 46FF0080 		.word	-2147418298
 326 00dc 14030140 		.word	1073808148
 327 00e0 45FF0080 		.word	-2147418299
 328 00e4 10030140 		.word	1073808144
 329 00e8 44FF0080 		.word	-2147418300
 330 00ec 04030140 		.word	1073808132
 331 00f0 41FF0080 		.word	-2147418303
 332 00f4 0C030140 		.word	1073808140
 333 00f8 43FF0080 		.word	-2147418301
 334 00fc 08030140 		.word	1073808136
 335 0100 42FF0080 		.word	-2147418302
 336 0104 08010B40 		.word	1074462984
 337 0108 00010B40 		.word	1074462976
 338 010c 58010140 		.word	1073807704
 339 0110 50010140 		.word	1073807696
 340 0114 14010140 		.word	1073807636
 341 0118 10010140 		.word	1073807632
 342 011c 0C010140 		.word	1073807628
 343 0120 08010140 		.word	1073807624
 344 0124 00000000 		.word	CySysWdtIsr
 345              		.cfi_endproc
 346              	.LFE5:
 347              		.size	ClockSetup, .-ClockSetup
 348              		.align	2
 349              		.global	cyfitter_cfg
ARM GAS  C:\Users\Andres\AppData\Local\Temp\cco5dWVx.s 			page 13


 350              		.code	16
 351              		.thumb_func
 352              		.type	cyfitter_cfg, %function
 353              	cyfitter_cfg:
 354              	.LFB7:
 292:Generated_Source\PSoC4/cyfitter_cfg.c **** 
 293:Generated_Source\PSoC4/cyfitter_cfg.c **** #define CY_AMUX_UNUSED CYREG_CM0_ROM_DWT
 294:Generated_Source\PSoC4/cyfitter_cfg.c **** 
 295:Generated_Source\PSoC4/cyfitter_cfg.c **** 
 296:Generated_Source\PSoC4/cyfitter_cfg.c **** /*******************************************************************************
 297:Generated_Source\PSoC4/cyfitter_cfg.c **** * Function Name: cyfitter_cfg
 298:Generated_Source\PSoC4/cyfitter_cfg.c **** ********************************************************************************
 299:Generated_Source\PSoC4/cyfitter_cfg.c **** * Summary:
 300:Generated_Source\PSoC4/cyfitter_cfg.c **** *  This function is called by the start-up code for the selected device. It
 301:Generated_Source\PSoC4/cyfitter_cfg.c **** *  performs all of the necessary device configuration based on the design
 302:Generated_Source\PSoC4/cyfitter_cfg.c **** *  settings.  This includes settings from the Design Wide Resources (DWR) such
 303:Generated_Source\PSoC4/cyfitter_cfg.c **** *  as Clocks and Pins as well as any component configuration that is necessary.
 304:Generated_Source\PSoC4/cyfitter_cfg.c **** *
 305:Generated_Source\PSoC4/cyfitter_cfg.c **** * Parameters:  
 306:Generated_Source\PSoC4/cyfitter_cfg.c **** *   void
 307:Generated_Source\PSoC4/cyfitter_cfg.c **** *
 308:Generated_Source\PSoC4/cyfitter_cfg.c **** * Return:
 309:Generated_Source\PSoC4/cyfitter_cfg.c **** *   void
 310:Generated_Source\PSoC4/cyfitter_cfg.c **** *
 311:Generated_Source\PSoC4/cyfitter_cfg.c **** *******************************************************************************/
 312:Generated_Source\PSoC4/cyfitter_cfg.c **** CY_CFG_SECTION
 313:Generated_Source\PSoC4/cyfitter_cfg.c **** void cyfitter_cfg(void)
 314:Generated_Source\PSoC4/cyfitter_cfg.c **** {
 355              		.loc 1 314 0
 356              		.cfi_startproc
 357 0128 38B5     		push	{r3, r4, r5, lr}
 358              		.cfi_def_cfa_offset 16
 359              		.cfi_offset 3, -16
 360              		.cfi_offset 4, -12
 361              		.cfi_offset 5, -8
 362              		.cfi_offset 14, -4
 315:Generated_Source\PSoC4/cyfitter_cfg.c **** 	/* Disable interrupts by default. Let user enable if/when they want. */
 316:Generated_Source\PSoC4/cyfitter_cfg.c **** 	CyGlobalIntDisable;
 363              		.loc 1 316 0
 364              	@ 316 "Generated_Source\PSoC4\cyfitter_cfg.c" 1
 365 012a 72B6     		CPSID   i
 366              	@ 0 "" 2
 317:Generated_Source\PSoC4/cyfitter_cfg.c **** 
 318:Generated_Source\PSoC4/cyfitter_cfg.c **** 	/* Enable the clock in the interrupt controller for the routed interrupts */
 319:Generated_Source\PSoC4/cyfitter_cfg.c **** 	CY_SET_REG8((void *)CYREG_UDB_UDBIF_INT_CLK_CTL, 0x01u);
 367              		.loc 1 319 0
 368              		.code	16
 369 012c 0122     		mov	r2, #1
 370 012e 4A4B     		ldr	r3, .L19
 371 0130 1A70     		strb	r2, [r3]
 372              	.LVL23:
 373              	.LBB3:
 320:Generated_Source\PSoC4/cyfitter_cfg.c **** 	{
 321:Generated_Source\PSoC4/cyfitter_cfg.c **** 		static const uint32 CYCODE cy_cfg_addr_table[] = {
 322:Generated_Source\PSoC4/cyfitter_cfg.c **** 			0x400F0003u, /* Base address: 0x400F0000 Count: 3 */
 323:Generated_Source\PSoC4/cyfitter_cfg.c **** 			0x400F3064u, /* Base address: 0x400F3000 Count: 100 */
 324:Generated_Source\PSoC4/cyfitter_cfg.c **** 			0x400F3137u, /* Base address: 0x400F3100 Count: 55 */
ARM GAS  C:\Users\Andres\AppData\Local\Temp\cco5dWVx.s 			page 14


 325:Generated_Source\PSoC4/cyfitter_cfg.c **** 			0x400F3212u, /* Base address: 0x400F3200 Count: 18 */
 326:Generated_Source\PSoC4/cyfitter_cfg.c **** 			0x400F3345u, /* Base address: 0x400F3300 Count: 69 */
 327:Generated_Source\PSoC4/cyfitter_cfg.c **** 			0x400F4002u, /* Base address: 0x400F4000 Count: 2 */
 328:Generated_Source\PSoC4/cyfitter_cfg.c **** 			0x400F4102u, /* Base address: 0x400F4100 Count: 2 */
 329:Generated_Source\PSoC4/cyfitter_cfg.c **** 			0x400F4204u, /* Base address: 0x400F4200 Count: 4 */
 330:Generated_Source\PSoC4/cyfitter_cfg.c **** 			0x400F4304u, /* Base address: 0x400F4300 Count: 4 */
 331:Generated_Source\PSoC4/cyfitter_cfg.c **** 			0x400F6002u, /* Base address: 0x400F6000 Count: 2 */
 332:Generated_Source\PSoC4/cyfitter_cfg.c **** 		};
 333:Generated_Source\PSoC4/cyfitter_cfg.c **** 
 334:Generated_Source\PSoC4/cyfitter_cfg.c **** 		static const cy_cfg_addrvalue_t CYCODE cy_cfg_data_table[] = {
 335:Generated_Source\PSoC4/cyfitter_cfg.c **** 			{0x81u, 0x0Fu},
 336:Generated_Source\PSoC4/cyfitter_cfg.c **** 			{0x82u, 0x71u},
 337:Generated_Source\PSoC4/cyfitter_cfg.c **** 			{0x83u, 0x38u},
 338:Generated_Source\PSoC4/cyfitter_cfg.c **** 			{0x02u, 0x03u},
 339:Generated_Source\PSoC4/cyfitter_cfg.c **** 			{0x03u, 0x08u},
 340:Generated_Source\PSoC4/cyfitter_cfg.c **** 			{0x05u, 0x80u},
 341:Generated_Source\PSoC4/cyfitter_cfg.c **** 			{0x07u, 0x13u},
 342:Generated_Source\PSoC4/cyfitter_cfg.c **** 			{0x0Cu, 0x0Cu},
 343:Generated_Source\PSoC4/cyfitter_cfg.c **** 			{0x0Eu, 0x71u},
 344:Generated_Source\PSoC4/cyfitter_cfg.c **** 			{0x0Fu, 0x0Cu},
 345:Generated_Source\PSoC4/cyfitter_cfg.c **** 			{0x10u, 0x09u},
 346:Generated_Source\PSoC4/cyfitter_cfg.c **** 			{0x12u, 0xD0u},
 347:Generated_Source\PSoC4/cyfitter_cfg.c **** 			{0x14u, 0x10u},
 348:Generated_Source\PSoC4/cyfitter_cfg.c **** 			{0x15u, 0x2Cu},
 349:Generated_Source\PSoC4/cyfitter_cfg.c **** 			{0x16u, 0xACu},
 350:Generated_Source\PSoC4/cyfitter_cfg.c **** 			{0x17u, 0x43u},
 351:Generated_Source\PSoC4/cyfitter_cfg.c **** 			{0x18u, 0xDCu},
 352:Generated_Source\PSoC4/cyfitter_cfg.c **** 			{0x1Au, 0x22u},
 353:Generated_Source\PSoC4/cyfitter_cfg.c **** 			{0x1Cu, 0x10u},
 354:Generated_Source\PSoC4/cyfitter_cfg.c **** 			{0x1Eu, 0x40u},
 355:Generated_Source\PSoC4/cyfitter_cfg.c **** 			{0x21u, 0x71u},
 356:Generated_Source\PSoC4/cyfitter_cfg.c **** 			{0x23u, 0x0Eu},
 357:Generated_Source\PSoC4/cyfitter_cfg.c **** 			{0x24u, 0x14u},
 358:Generated_Source\PSoC4/cyfitter_cfg.c **** 			{0x25u, 0x71u},
 359:Generated_Source\PSoC4/cyfitter_cfg.c **** 			{0x27u, 0x06u},
 360:Generated_Source\PSoC4/cyfitter_cfg.c **** 			{0x2Au, 0x20u},
 361:Generated_Source\PSoC4/cyfitter_cfg.c **** 			{0x30u, 0xE0u},
 362:Generated_Source\PSoC4/cyfitter_cfg.c **** 			{0x31u, 0xC0u},
 363:Generated_Source\PSoC4/cyfitter_cfg.c **** 			{0x33u, 0x0Fu},
 364:Generated_Source\PSoC4/cyfitter_cfg.c **** 			{0x35u, 0x30u},
 365:Generated_Source\PSoC4/cyfitter_cfg.c **** 			{0x36u, 0x1Fu},
 366:Generated_Source\PSoC4/cyfitter_cfg.c **** 			{0x39u, 0x22u},
 367:Generated_Source\PSoC4/cyfitter_cfg.c **** 			{0x3Au, 0x02u},
 368:Generated_Source\PSoC4/cyfitter_cfg.c **** 			{0x3Bu, 0x08u},
 369:Generated_Source\PSoC4/cyfitter_cfg.c **** 			{0x3Fu, 0x10u},
 370:Generated_Source\PSoC4/cyfitter_cfg.c **** 			{0x40u, 0x02u},
 371:Generated_Source\PSoC4/cyfitter_cfg.c **** 			{0x45u, 0x40u},
 372:Generated_Source\PSoC4/cyfitter_cfg.c **** 			{0x49u, 0xFFu},
 373:Generated_Source\PSoC4/cyfitter_cfg.c **** 			{0x4Au, 0x07u},
 374:Generated_Source\PSoC4/cyfitter_cfg.c **** 			{0x4Bu, 0xFFu},
 375:Generated_Source\PSoC4/cyfitter_cfg.c **** 			{0x4Cu, 0x40u},
 376:Generated_Source\PSoC4/cyfitter_cfg.c **** 			{0x4Du, 0x20u},
 377:Generated_Source\PSoC4/cyfitter_cfg.c **** 			{0x4Eu, 0xF0u},
 378:Generated_Source\PSoC4/cyfitter_cfg.c **** 			{0x4Fu, 0x05u},
 379:Generated_Source\PSoC4/cyfitter_cfg.c **** 			{0x50u, 0x08u},
 380:Generated_Source\PSoC4/cyfitter_cfg.c **** 			{0x58u, 0x04u},
 381:Generated_Source\PSoC4/cyfitter_cfg.c **** 			{0x59u, 0x04u},
ARM GAS  C:\Users\Andres\AppData\Local\Temp\cco5dWVx.s 			page 15


 382:Generated_Source\PSoC4/cyfitter_cfg.c **** 			{0x5Au, 0x04u},
 383:Generated_Source\PSoC4/cyfitter_cfg.c **** 			{0x5Cu, 0x33u},
 384:Generated_Source\PSoC4/cyfitter_cfg.c **** 			{0x5Du, 0x03u},
 385:Generated_Source\PSoC4/cyfitter_cfg.c **** 			{0x5Fu, 0x01u},
 386:Generated_Source\PSoC4/cyfitter_cfg.c **** 			{0x60u, 0x40u},
 387:Generated_Source\PSoC4/cyfitter_cfg.c **** 			{0x61u, 0xA8u},
 388:Generated_Source\PSoC4/cyfitter_cfg.c **** 			{0x62u, 0x40u},
 389:Generated_Source\PSoC4/cyfitter_cfg.c **** 			{0x63u, 0x20u},
 390:Generated_Source\PSoC4/cyfitter_cfg.c **** 			{0x80u, 0x40u},
 391:Generated_Source\PSoC4/cyfitter_cfg.c **** 			{0x86u, 0x15u},
 392:Generated_Source\PSoC4/cyfitter_cfg.c **** 			{0x88u, 0x40u},
 393:Generated_Source\PSoC4/cyfitter_cfg.c **** 			{0x8Cu, 0x13u},
 394:Generated_Source\PSoC4/cyfitter_cfg.c **** 			{0x8Eu, 0x04u},
 395:Generated_Source\PSoC4/cyfitter_cfg.c **** 			{0x94u, 0x13u},
 396:Generated_Source\PSoC4/cyfitter_cfg.c **** 			{0x96u, 0x0Cu},
 397:Generated_Source\PSoC4/cyfitter_cfg.c **** 			{0x9Au, 0x20u},
 398:Generated_Source\PSoC4/cyfitter_cfg.c **** 			{0x9Eu, 0x20u},
 399:Generated_Source\PSoC4/cyfitter_cfg.c **** 			{0xA0u, 0x03u},
 400:Generated_Source\PSoC4/cyfitter_cfg.c **** 			{0xA2u, 0x14u},
 401:Generated_Source\PSoC4/cyfitter_cfg.c **** 			{0xA5u, 0x01u},
 402:Generated_Source\PSoC4/cyfitter_cfg.c **** 			{0xA8u, 0x0Au},
 403:Generated_Source\PSoC4/cyfitter_cfg.c **** 			{0xA9u, 0x01u},
 404:Generated_Source\PSoC4/cyfitter_cfg.c **** 			{0xAAu, 0x14u},
 405:Generated_Source\PSoC4/cyfitter_cfg.c **** 			{0xADu, 0x01u},
 406:Generated_Source\PSoC4/cyfitter_cfg.c **** 			{0xAEu, 0x08u},
 407:Generated_Source\PSoC4/cyfitter_cfg.c **** 			{0xB0u, 0x10u},
 408:Generated_Source\PSoC4/cyfitter_cfg.c **** 			{0xB1u, 0x01u},
 409:Generated_Source\PSoC4/cyfitter_cfg.c **** 			{0xB2u, 0x0Fu},
 410:Generated_Source\PSoC4/cyfitter_cfg.c **** 			{0xB4u, 0x20u},
 411:Generated_Source\PSoC4/cyfitter_cfg.c **** 			{0xB6u, 0x40u},
 412:Generated_Source\PSoC4/cyfitter_cfg.c **** 			{0xB8u, 0x80u},
 413:Generated_Source\PSoC4/cyfitter_cfg.c **** 			{0xBAu, 0x08u},
 414:Generated_Source\PSoC4/cyfitter_cfg.c **** 			{0xBEu, 0x51u},
 415:Generated_Source\PSoC4/cyfitter_cfg.c **** 			{0xC0u, 0x32u},
 416:Generated_Source\PSoC4/cyfitter_cfg.c **** 			{0xC1u, 0x01u},
 417:Generated_Source\PSoC4/cyfitter_cfg.c **** 			{0xC5u, 0x0Bu},
 418:Generated_Source\PSoC4/cyfitter_cfg.c **** 			{0xC6u, 0x0Cu},
 419:Generated_Source\PSoC4/cyfitter_cfg.c **** 			{0xC7u, 0x0Eu},
 420:Generated_Source\PSoC4/cyfitter_cfg.c **** 			{0xC8u, 0x15u},
 421:Generated_Source\PSoC4/cyfitter_cfg.c **** 			{0xC9u, 0xFFu},
 422:Generated_Source\PSoC4/cyfitter_cfg.c **** 			{0xCAu, 0xFFu},
 423:Generated_Source\PSoC4/cyfitter_cfg.c **** 			{0xCBu, 0xFFu},
 424:Generated_Source\PSoC4/cyfitter_cfg.c **** 			{0xCEu, 0xF0u},
 425:Generated_Source\PSoC4/cyfitter_cfg.c **** 			{0xCFu, 0x44u},
 426:Generated_Source\PSoC4/cyfitter_cfg.c **** 			{0xD0u, 0x0Cu},
 427:Generated_Source\PSoC4/cyfitter_cfg.c **** 			{0xD4u, 0x01u},
 428:Generated_Source\PSoC4/cyfitter_cfg.c **** 			{0xD8u, 0x04u},
 429:Generated_Source\PSoC4/cyfitter_cfg.c **** 			{0xD9u, 0x04u},
 430:Generated_Source\PSoC4/cyfitter_cfg.c **** 			{0xDAu, 0x04u},
 431:Generated_Source\PSoC4/cyfitter_cfg.c **** 			{0xDBu, 0x04u},
 432:Generated_Source\PSoC4/cyfitter_cfg.c **** 			{0xDCu, 0x13u},
 433:Generated_Source\PSoC4/cyfitter_cfg.c **** 			{0xDDu, 0x33u},
 434:Generated_Source\PSoC4/cyfitter_cfg.c **** 			{0xDFu, 0x01u},
 435:Generated_Source\PSoC4/cyfitter_cfg.c **** 			{0xE6u, 0xC0u},
 436:Generated_Source\PSoC4/cyfitter_cfg.c **** 			{0xEAu, 0x40u},
 437:Generated_Source\PSoC4/cyfitter_cfg.c **** 			{0xEBu, 0x02u},
 438:Generated_Source\PSoC4/cyfitter_cfg.c **** 			{0x00u, 0x40u},
ARM GAS  C:\Users\Andres\AppData\Local\Temp\cco5dWVx.s 			page 16


 439:Generated_Source\PSoC4/cyfitter_cfg.c **** 			{0x03u, 0x80u},
 440:Generated_Source\PSoC4/cyfitter_cfg.c **** 			{0x04u, 0x48u},
 441:Generated_Source\PSoC4/cyfitter_cfg.c **** 			{0x05u, 0x02u},
 442:Generated_Source\PSoC4/cyfitter_cfg.c **** 			{0x07u, 0x04u},
 443:Generated_Source\PSoC4/cyfitter_cfg.c **** 			{0x08u, 0x01u},
 444:Generated_Source\PSoC4/cyfitter_cfg.c **** 			{0x09u, 0x08u},
 445:Generated_Source\PSoC4/cyfitter_cfg.c **** 			{0x0Au, 0x08u},
 446:Generated_Source\PSoC4/cyfitter_cfg.c **** 			{0x0Bu, 0x42u},
 447:Generated_Source\PSoC4/cyfitter_cfg.c **** 			{0x0Du, 0x08u},
 448:Generated_Source\PSoC4/cyfitter_cfg.c **** 			{0x0Eu, 0x02u},
 449:Generated_Source\PSoC4/cyfitter_cfg.c **** 			{0x0Fu, 0x08u},
 450:Generated_Source\PSoC4/cyfitter_cfg.c **** 			{0x10u, 0x20u},
 451:Generated_Source\PSoC4/cyfitter_cfg.c **** 			{0x12u, 0x04u},
 452:Generated_Source\PSoC4/cyfitter_cfg.c **** 			{0x14u, 0x01u},
 453:Generated_Source\PSoC4/cyfitter_cfg.c **** 			{0x16u, 0x40u},
 454:Generated_Source\PSoC4/cyfitter_cfg.c **** 			{0x17u, 0x20u},
 455:Generated_Source\PSoC4/cyfitter_cfg.c **** 			{0x18u, 0x40u},
 456:Generated_Source\PSoC4/cyfitter_cfg.c **** 			{0x19u, 0x01u},
 457:Generated_Source\PSoC4/cyfitter_cfg.c **** 			{0x1Bu, 0x80u},
 458:Generated_Source\PSoC4/cyfitter_cfg.c **** 			{0x1Cu, 0x04u},
 459:Generated_Source\PSoC4/cyfitter_cfg.c **** 			{0x1Du, 0x8Cu},
 460:Generated_Source\PSoC4/cyfitter_cfg.c **** 			{0x1Eu, 0x40u},
 461:Generated_Source\PSoC4/cyfitter_cfg.c **** 			{0x21u, 0x10u},
 462:Generated_Source\PSoC4/cyfitter_cfg.c **** 			{0x22u, 0x04u},
 463:Generated_Source\PSoC4/cyfitter_cfg.c **** 			{0x23u, 0x60u},
 464:Generated_Source\PSoC4/cyfitter_cfg.c **** 			{0x25u, 0x01u},
 465:Generated_Source\PSoC4/cyfitter_cfg.c **** 			{0x29u, 0x05u},
 466:Generated_Source\PSoC4/cyfitter_cfg.c **** 			{0x2Au, 0x01u},
 467:Generated_Source\PSoC4/cyfitter_cfg.c **** 			{0x2Fu, 0x2Au},
 468:Generated_Source\PSoC4/cyfitter_cfg.c **** 			{0x32u, 0x04u},
 469:Generated_Source\PSoC4/cyfitter_cfg.c **** 			{0x38u, 0x08u},
 470:Generated_Source\PSoC4/cyfitter_cfg.c **** 			{0x3Bu, 0x42u},
 471:Generated_Source\PSoC4/cyfitter_cfg.c **** 			{0x41u, 0x10u},
 472:Generated_Source\PSoC4/cyfitter_cfg.c **** 			{0x45u, 0x08u},
 473:Generated_Source\PSoC4/cyfitter_cfg.c **** 			{0x46u, 0x05u},
 474:Generated_Source\PSoC4/cyfitter_cfg.c **** 			{0x4Bu, 0x02u},
 475:Generated_Source\PSoC4/cyfitter_cfg.c **** 			{0x4Cu, 0x20u},
 476:Generated_Source\PSoC4/cyfitter_cfg.c **** 			{0x50u, 0x04u},
 477:Generated_Source\PSoC4/cyfitter_cfg.c **** 			{0x52u, 0x04u},
 478:Generated_Source\PSoC4/cyfitter_cfg.c **** 			{0x54u, 0x04u},
 479:Generated_Source\PSoC4/cyfitter_cfg.c **** 			{0x56u, 0x40u},
 480:Generated_Source\PSoC4/cyfitter_cfg.c **** 			{0x5Du, 0x08u},
 481:Generated_Source\PSoC4/cyfitter_cfg.c **** 			{0x5Eu, 0x40u},
 482:Generated_Source\PSoC4/cyfitter_cfg.c **** 			{0x5Fu, 0x12u},
 483:Generated_Source\PSoC4/cyfitter_cfg.c **** 			{0x6Du, 0x50u},
 484:Generated_Source\PSoC4/cyfitter_cfg.c **** 			{0x6Fu, 0x04u},
 485:Generated_Source\PSoC4/cyfitter_cfg.c **** 			{0xC0u, 0xF9u},
 486:Generated_Source\PSoC4/cyfitter_cfg.c **** 			{0xC2u, 0xEFu},
 487:Generated_Source\PSoC4/cyfitter_cfg.c **** 			{0xC4u, 0xD6u},
 488:Generated_Source\PSoC4/cyfitter_cfg.c **** 			{0xCAu, 0x73u},
 489:Generated_Source\PSoC4/cyfitter_cfg.c **** 			{0xCCu, 0x02u},
 490:Generated_Source\PSoC4/cyfitter_cfg.c **** 			{0xCEu, 0x0Bu},
 491:Generated_Source\PSoC4/cyfitter_cfg.c **** 			{0xD0u, 0x74u},
 492:Generated_Source\PSoC4/cyfitter_cfg.c **** 			{0xD6u, 0xF0u},
 493:Generated_Source\PSoC4/cyfitter_cfg.c **** 			{0x82u, 0x02u},
 494:Generated_Source\PSoC4/cyfitter_cfg.c **** 			{0x84u, 0x04u},
 495:Generated_Source\PSoC4/cyfitter_cfg.c **** 			{0x92u, 0x01u},
ARM GAS  C:\Users\Andres\AppData\Local\Temp\cco5dWVx.s 			page 17


 496:Generated_Source\PSoC4/cyfitter_cfg.c **** 			{0x9Eu, 0x01u},
 497:Generated_Source\PSoC4/cyfitter_cfg.c **** 			{0xACu, 0x02u},
 498:Generated_Source\PSoC4/cyfitter_cfg.c **** 			{0xB0u, 0x01u},
 499:Generated_Source\PSoC4/cyfitter_cfg.c **** 			{0xB2u, 0x04u},
 500:Generated_Source\PSoC4/cyfitter_cfg.c **** 			{0xB6u, 0x02u},
 501:Generated_Source\PSoC4/cyfitter_cfg.c **** 			{0xB8u, 0x80u},
 502:Generated_Source\PSoC4/cyfitter_cfg.c **** 			{0xBAu, 0x20u},
 503:Generated_Source\PSoC4/cyfitter_cfg.c **** 			{0xBEu, 0x45u},
 504:Generated_Source\PSoC4/cyfitter_cfg.c **** 			{0xD4u, 0x18u},
 505:Generated_Source\PSoC4/cyfitter_cfg.c **** 			{0xD6u, 0x04u},
 506:Generated_Source\PSoC4/cyfitter_cfg.c **** 			{0xD8u, 0x04u},
 507:Generated_Source\PSoC4/cyfitter_cfg.c **** 			{0xDBu, 0x04u},
 508:Generated_Source\PSoC4/cyfitter_cfg.c **** 			{0xDCu, 0x01u},
 509:Generated_Source\PSoC4/cyfitter_cfg.c **** 			{0xDDu, 0x10u},
 510:Generated_Source\PSoC4/cyfitter_cfg.c **** 			{0xDFu, 0x01u},
 511:Generated_Source\PSoC4/cyfitter_cfg.c **** 			{0x00u, 0x08u},
 512:Generated_Source\PSoC4/cyfitter_cfg.c **** 			{0x03u, 0x80u},
 513:Generated_Source\PSoC4/cyfitter_cfg.c **** 			{0x05u, 0x02u},
 514:Generated_Source\PSoC4/cyfitter_cfg.c **** 			{0x06u, 0x06u},
 515:Generated_Source\PSoC4/cyfitter_cfg.c **** 			{0x07u, 0x10u},
 516:Generated_Source\PSoC4/cyfitter_cfg.c **** 			{0x0Au, 0x83u},
 517:Generated_Source\PSoC4/cyfitter_cfg.c **** 			{0x0Cu, 0x40u},
 518:Generated_Source\PSoC4/cyfitter_cfg.c **** 			{0x0Du, 0x22u},
 519:Generated_Source\PSoC4/cyfitter_cfg.c **** 			{0x0Fu, 0x20u},
 520:Generated_Source\PSoC4/cyfitter_cfg.c **** 			{0x11u, 0x40u},
 521:Generated_Source\PSoC4/cyfitter_cfg.c **** 			{0x15u, 0x10u},
 522:Generated_Source\PSoC4/cyfitter_cfg.c **** 			{0x16u, 0x10u},
 523:Generated_Source\PSoC4/cyfitter_cfg.c **** 			{0x17u, 0x02u},
 524:Generated_Source\PSoC4/cyfitter_cfg.c **** 			{0x18u, 0x0Au},
 525:Generated_Source\PSoC4/cyfitter_cfg.c **** 			{0x19u, 0x18u},
 526:Generated_Source\PSoC4/cyfitter_cfg.c **** 			{0x1Bu, 0x11u},
 527:Generated_Source\PSoC4/cyfitter_cfg.c **** 			{0x1Du, 0x22u},
 528:Generated_Source\PSoC4/cyfitter_cfg.c **** 			{0x1Eu, 0x01u},
 529:Generated_Source\PSoC4/cyfitter_cfg.c **** 			{0x1Fu, 0x15u},
 530:Generated_Source\PSoC4/cyfitter_cfg.c **** 			{0x26u, 0x11u},
 531:Generated_Source\PSoC4/cyfitter_cfg.c **** 			{0x27u, 0x11u},
 532:Generated_Source\PSoC4/cyfitter_cfg.c **** 			{0x2Fu, 0x15u},
 533:Generated_Source\PSoC4/cyfitter_cfg.c **** 			{0x35u, 0x10u},
 534:Generated_Source\PSoC4/cyfitter_cfg.c **** 			{0x36u, 0x04u},
 535:Generated_Source\PSoC4/cyfitter_cfg.c **** 			{0x3Du, 0x12u},
 536:Generated_Source\PSoC4/cyfitter_cfg.c **** 			{0x44u, 0x40u},
 537:Generated_Source\PSoC4/cyfitter_cfg.c **** 			{0x45u, 0xA1u},
 538:Generated_Source\PSoC4/cyfitter_cfg.c **** 			{0x4Cu, 0x04u},
 539:Generated_Source\PSoC4/cyfitter_cfg.c **** 			{0x4Eu, 0x41u},
 540:Generated_Source\PSoC4/cyfitter_cfg.c **** 			{0x57u, 0x04u},
 541:Generated_Source\PSoC4/cyfitter_cfg.c **** 			{0x5Bu, 0x01u},
 542:Generated_Source\PSoC4/cyfitter_cfg.c **** 			{0x5Eu, 0x20u},
 543:Generated_Source\PSoC4/cyfitter_cfg.c **** 			{0x60u, 0x04u},
 544:Generated_Source\PSoC4/cyfitter_cfg.c **** 			{0x63u, 0x42u},
 545:Generated_Source\PSoC4/cyfitter_cfg.c **** 			{0x6Fu, 0x2Au},
 546:Generated_Source\PSoC4/cyfitter_cfg.c **** 			{0x76u, 0x14u},
 547:Generated_Source\PSoC4/cyfitter_cfg.c **** 			{0x77u, 0x02u},
 548:Generated_Source\PSoC4/cyfitter_cfg.c **** 			{0x80u, 0x01u},
 549:Generated_Source\PSoC4/cyfitter_cfg.c **** 			{0x86u, 0x02u},
 550:Generated_Source\PSoC4/cyfitter_cfg.c **** 			{0x87u, 0x04u},
 551:Generated_Source\PSoC4/cyfitter_cfg.c **** 			{0x8Bu, 0x40u},
 552:Generated_Source\PSoC4/cyfitter_cfg.c **** 			{0x90u, 0x04u},
ARM GAS  C:\Users\Andres\AppData\Local\Temp\cco5dWVx.s 			page 18


 553:Generated_Source\PSoC4/cyfitter_cfg.c **** 			{0x91u, 0x50u},
 554:Generated_Source\PSoC4/cyfitter_cfg.c **** 			{0x99u, 0x02u},
 555:Generated_Source\PSoC4/cyfitter_cfg.c **** 			{0x9Du, 0x08u},
 556:Generated_Source\PSoC4/cyfitter_cfg.c **** 			{0xA0u, 0x04u},
 557:Generated_Source\PSoC4/cyfitter_cfg.c **** 			{0xA1u, 0x81u},
 558:Generated_Source\PSoC4/cyfitter_cfg.c **** 			{0xA2u, 0x04u},
 559:Generated_Source\PSoC4/cyfitter_cfg.c **** 			{0xA3u, 0x80u},
 560:Generated_Source\PSoC4/cyfitter_cfg.c **** 			{0xA6u, 0x01u},
 561:Generated_Source\PSoC4/cyfitter_cfg.c **** 			{0xA7u, 0x2Eu},
 562:Generated_Source\PSoC4/cyfitter_cfg.c **** 			{0xACu, 0x04u},
 563:Generated_Source\PSoC4/cyfitter_cfg.c **** 			{0xAFu, 0x02u},
 564:Generated_Source\PSoC4/cyfitter_cfg.c **** 			{0xB2u, 0x40u},
 565:Generated_Source\PSoC4/cyfitter_cfg.c **** 			{0xB3u, 0x10u},
 566:Generated_Source\PSoC4/cyfitter_cfg.c **** 			{0xB5u, 0x02u},
 567:Generated_Source\PSoC4/cyfitter_cfg.c **** 			{0xB6u, 0x04u},
 568:Generated_Source\PSoC4/cyfitter_cfg.c **** 			{0xC0u, 0xFCu},
 569:Generated_Source\PSoC4/cyfitter_cfg.c **** 			{0xC2u, 0xF9u},
 570:Generated_Source\PSoC4/cyfitter_cfg.c **** 			{0xC4u, 0x71u},
 571:Generated_Source\PSoC4/cyfitter_cfg.c **** 			{0xCAu, 0x70u},
 572:Generated_Source\PSoC4/cyfitter_cfg.c **** 			{0xCCu, 0x60u},
 573:Generated_Source\PSoC4/cyfitter_cfg.c **** 			{0xCEu, 0xA0u},
 574:Generated_Source\PSoC4/cyfitter_cfg.c **** 			{0xD0u, 0xB0u},
 575:Generated_Source\PSoC4/cyfitter_cfg.c **** 			{0xD2u, 0x30u},
 576:Generated_Source\PSoC4/cyfitter_cfg.c **** 			{0xD6u, 0x21u},
 577:Generated_Source\PSoC4/cyfitter_cfg.c **** 			{0xD8u, 0x0Du},
 578:Generated_Source\PSoC4/cyfitter_cfg.c **** 			{0xE2u, 0x20u},
 579:Generated_Source\PSoC4/cyfitter_cfg.c **** 			{0xE4u, 0x04u},
 580:Generated_Source\PSoC4/cyfitter_cfg.c **** 			{0x68u, 0x04u},
 581:Generated_Source\PSoC4/cyfitter_cfg.c **** 			{0xDAu, 0x40u},
 582:Generated_Source\PSoC4/cyfitter_cfg.c **** 			{0x88u, 0x04u},
 583:Generated_Source\PSoC4/cyfitter_cfg.c **** 			{0xA4u, 0x04u},
 584:Generated_Source\PSoC4/cyfitter_cfg.c **** 			{0x08u, 0x20u},
 585:Generated_Source\PSoC4/cyfitter_cfg.c **** 			{0x67u, 0x02u},
 586:Generated_Source\PSoC4/cyfitter_cfg.c **** 			{0xC2u, 0x02u},
 587:Generated_Source\PSoC4/cyfitter_cfg.c **** 			{0xD6u, 0x01u},
 588:Generated_Source\PSoC4/cyfitter_cfg.c **** 			{0x83u, 0x01u},
 589:Generated_Source\PSoC4/cyfitter_cfg.c **** 			{0x97u, 0x02u},
 590:Generated_Source\PSoC4/cyfitter_cfg.c **** 			{0xB4u, 0x20u},
 591:Generated_Source\PSoC4/cyfitter_cfg.c **** 			{0xEAu, 0x02u},
 592:Generated_Source\PSoC4/cyfitter_cfg.c **** 			{0x10u, 0x0Au},
 593:Generated_Source\PSoC4/cyfitter_cfg.c **** 			{0x11u, 0x01u},
 594:Generated_Source\PSoC4/cyfitter_cfg.c **** 		};
 595:Generated_Source\PSoC4/cyfitter_cfg.c **** 
 596:Generated_Source\PSoC4/cyfitter_cfg.c **** 
 597:Generated_Source\PSoC4/cyfitter_cfg.c **** 
 598:Generated_Source\PSoC4/cyfitter_cfg.c **** 		CYPACKED typedef struct {
 599:Generated_Source\PSoC4/cyfitter_cfg.c **** 			void CYFAR *address;
 600:Generated_Source\PSoC4/cyfitter_cfg.c **** 			uint16 size;
 601:Generated_Source\PSoC4/cyfitter_cfg.c **** 		} CYPACKED_ATTR cfg_memset_t;
 602:Generated_Source\PSoC4/cyfitter_cfg.c **** 
 603:Generated_Source\PSoC4/cyfitter_cfg.c **** 
 604:Generated_Source\PSoC4/cyfitter_cfg.c **** 		CYPACKED typedef struct {
 605:Generated_Source\PSoC4/cyfitter_cfg.c **** 			void CYFAR *dest;
 606:Generated_Source\PSoC4/cyfitter_cfg.c **** 			const void CYCODE *src;
 607:Generated_Source\PSoC4/cyfitter_cfg.c **** 			uint16 size;
 608:Generated_Source\PSoC4/cyfitter_cfg.c **** 		} CYPACKED_ATTR cfg_memcpy_t;
 609:Generated_Source\PSoC4/cyfitter_cfg.c **** 
ARM GAS  C:\Users\Andres\AppData\Local\Temp\cco5dWVx.s 			page 19


 610:Generated_Source\PSoC4/cyfitter_cfg.c **** 		static const cfg_memset_t CYCODE cfg_memset_list [] = {
 611:Generated_Source\PSoC4/cyfitter_cfg.c **** 			/* address, size */
 612:Generated_Source\PSoC4/cyfitter_cfg.c **** 			{(void CYFAR *)(CYDEV_UDB_P0_U0_BASE), 512u},
 613:Generated_Source\PSoC4/cyfitter_cfg.c **** 			{(void CYFAR *)(CYDEV_UDB_P1_U1_BASE), 384u},
 614:Generated_Source\PSoC4/cyfitter_cfg.c **** 			{(void CYFAR *)(CYDEV_UDB_DSI0_BASE), 1024u},
 615:Generated_Source\PSoC4/cyfitter_cfg.c **** 		};
 616:Generated_Source\PSoC4/cyfitter_cfg.c **** 
 617:Generated_Source\PSoC4/cyfitter_cfg.c **** 		/* UDB_0_0_1_CONFIG Address: CYDEV_UDB_P1_U0_BASE Size (bytes): 128 */
 618:Generated_Source\PSoC4/cyfitter_cfg.c **** 		static const uint8 CYCODE BS_UDB_0_0_1_CONFIG_VAL[] = {
 619:Generated_Source\PSoC4/cyfitter_cfg.c **** 			0x21u, 0x00u, 0x00u, 0x01u, 0x00u, 0x00u, 0x01u, 0x00u, 0x08u, 0x09u, 0x00u, 0x00u, 0x99u, 0x00u
 620:Generated_Source\PSoC4/cyfitter_cfg.c **** 			0x39u, 0x00u, 0xC2u, 0x00u, 0xFFu, 0x09u, 0x00u, 0x00u, 0xE7u, 0x07u, 0x18u, 0x00u, 0x00u, 0x00u
 621:Generated_Source\PSoC4/cyfitter_cfg.c **** 			0x10u, 0x00u, 0x00u, 0x00u, 0x18u, 0x07u, 0x00u, 0x00u, 0x21u, 0x04u, 0x00u, 0x03u, 0x00u, 0x04u
 622:Generated_Source\PSoC4/cyfitter_cfg.c **** 			0x58u, 0x02u, 0x1Fu, 0x08u, 0x38u, 0x04u, 0x98u, 0x01u, 0x00u, 0x0Au, 0x2Au, 0x00u, 0x00u, 0x00u
 623:Generated_Source\PSoC4/cyfitter_cfg.c **** 			0x24u, 0x06u, 0x05u, 0x00u, 0x01u, 0xC0u, 0x00u, 0x0Eu, 0x12u, 0xFFu, 0xFFu, 0xFFu, 0x62u, 0xA0u
 624:Generated_Source\PSoC4/cyfitter_cfg.c **** 			0x0Cu, 0x00u, 0x00u, 0x00u, 0x00u, 0x00u, 0x02u, 0x11u, 0x04u, 0x04u, 0x04u, 0x04u, 0x11u, 0x11u
 625:Generated_Source\PSoC4/cyfitter_cfg.c **** 			0x00u, 0x00u, 0x00u, 0x00u, 0x00u, 0x00u, 0x40u, 0x02u, 0x00u, 0x10u, 0x30u, 0x10u, 0x00u, 0x10u
 626:Generated_Source\PSoC4/cyfitter_cfg.c **** 			0x00u, 0x00u, 0x00u, 0x00u, 0x00u, 0x00u, 0x00u, 0x00u, 0x00u, 0x00u, 0x00u, 0x00u, 0x00u, 0x00u
 627:Generated_Source\PSoC4/cyfitter_cfg.c **** 
 628:Generated_Source\PSoC4/cyfitter_cfg.c **** 		static const cfg_memcpy_t CYCODE cfg_memcpy_list [] = {
 629:Generated_Source\PSoC4/cyfitter_cfg.c **** 			/* dest, src, size */
 630:Generated_Source\PSoC4/cyfitter_cfg.c **** 			{(void CYFAR *)(CYDEV_UDB_P1_U0_BASE), BS_UDB_0_0_1_CONFIG_VAL, 128u},
 631:Generated_Source\PSoC4/cyfitter_cfg.c **** 		};
 632:Generated_Source\PSoC4/cyfitter_cfg.c **** 
 633:Generated_Source\PSoC4/cyfitter_cfg.c **** 		uint8 CYDATA i;
 634:Generated_Source\PSoC4/cyfitter_cfg.c **** 
 635:Generated_Source\PSoC4/cyfitter_cfg.c **** 		/* Zero out critical memory blocks before beginning configuration */
 636:Generated_Source\PSoC4/cyfitter_cfg.c **** 		for (i = 0u; i < (sizeof(cfg_memset_list)/sizeof(cfg_memset_list[0])); i++)
 374              		.loc 1 636 0
 375 0132 0024     		mov	r4, #0
 376 0134 10E0     		b	.L15
 377              	.LVL24:
 378              	.L16:
 379              	.LBB4:
 637:Generated_Source\PSoC4/cyfitter_cfg.c **** 		{
 638:Generated_Source\PSoC4/cyfitter_cfg.c **** 			const cfg_memset_t CYCODE * CYDATA ms = &cfg_memset_list[i];
 639:Generated_Source\PSoC4/cyfitter_cfg.c **** 			CYMEMZERO(ms->address, (size_t)(uint32)(ms->size));
 380              		.loc 1 639 0 discriminator 3
 381 0136 4948     		ldr	r0, .L19+4
 382 0138 6300     		lsl	r3, r4, #1
 383 013a 1A19     		add	r2, r3, r4
 384 013c 5200     		lsl	r2, r2, #1
 385 013e 8218     		add	r2, r0, r2
 386 0140 9188     		ldrh	r1, [r2, #4]
 387 0142 1B19     		add	r3, r3, r4
 388 0144 5B00     		lsl	r3, r3, #1
 389 0146 1A5A     		ldrh	r2, [r3, r0]
 390 0148 C318     		add	r3, r0, r3
 391 014a 5888     		ldrh	r0, [r3, #2]
 392 014c 0004     		lsl	r0, r0, #16
 393 014e 1043     		orr	r0, r2
 394 0150 FFF7FEFF 		bl	CYMEMZERO
 395              	.LVL25:
 396              	.LBE4:
 636:Generated_Source\PSoC4/cyfitter_cfg.c **** 		{
 397              		.loc 1 636 0 discriminator 3
 398 0154 0134     		add	r4, r4, #1
 399              	.LVL26:
ARM GAS  C:\Users\Andres\AppData\Local\Temp\cco5dWVx.s 			page 20


 400 0156 E4B2     		uxtb	r4, r4
 401              	.LVL27:
 402              	.L15:
 636:Generated_Source\PSoC4/cyfitter_cfg.c **** 		{
 403              		.loc 1 636 0 is_stmt 0 discriminator 1
 404 0158 022C     		cmp	r4, #2
 405 015a ECD9     		bls	.L16
 406 015c 0024     		mov	r4, #0
 407              	.LVL28:
 408 015e 12E0     		b	.L17
 409              	.LVL29:
 410              	.L18:
 411              	.LBB5:
 640:Generated_Source\PSoC4/cyfitter_cfg.c **** 		}
 641:Generated_Source\PSoC4/cyfitter_cfg.c **** 
 642:Generated_Source\PSoC4/cyfitter_cfg.c **** 		/* Copy device configuration data into registers */
 643:Generated_Source\PSoC4/cyfitter_cfg.c **** 		for (i = 0u; i < (sizeof(cfg_memcpy_list)/sizeof(cfg_memcpy_list[0])); i++)
 644:Generated_Source\PSoC4/cyfitter_cfg.c **** 		{
 645:Generated_Source\PSoC4/cyfitter_cfg.c **** 			const cfg_memcpy_t CYCODE * CYDATA mc = &cfg_memcpy_list[i];
 646:Generated_Source\PSoC4/cyfitter_cfg.c **** 			void * CYDATA destPtr = mc->dest;
 412              		.loc 1 646 0 is_stmt 1 discriminator 3
 413 0160 3E4D     		ldr	r5, .L19+4
 414 0162 A300     		lsl	r3, r4, #2
 415 0164 1A19     		add	r2, r3, r4
 416 0166 5200     		lsl	r2, r2, #1
 417 0168 AA18     		add	r2, r5, r2
 418 016a 918A     		ldrh	r1, [r2, #20]
 419 016c D08A     		ldrh	r0, [r2, #22]
 420 016e 0004     		lsl	r0, r0, #16
 421 0170 0843     		orr	r0, r1
 422              	.LVL30:
 647:Generated_Source\PSoC4/cyfitter_cfg.c **** 			const void CYCODE * CYDATA srcPtr = mc->src;
 423              		.loc 1 647 0 discriminator 3
 424 0172 131C     		mov	r3, r2
 425 0174 128B     		ldrh	r2, [r2, #24]
 426 0176 598B     		ldrh	r1, [r3, #26]
 427 0178 0904     		lsl	r1, r1, #16
 428 017a 1143     		orr	r1, r2
 429              	.LVL31:
 648:Generated_Source\PSoC4/cyfitter_cfg.c **** 			uint16 CYDATA numBytes = mc->size;
 649:Generated_Source\PSoC4/cyfitter_cfg.c **** 			CYCONFIGCPYCODE(destPtr, srcPtr, numBytes);
 430              		.loc 1 649 0 discriminator 3
 431 017c 8022     		mov	r2, #128
 432 017e FFF7FEFF 		bl	CYCONFIGCPYCODE
 433              	.LVL32:
 434              	.LBE5:
 643:Generated_Source\PSoC4/cyfitter_cfg.c **** 		{
 435              		.loc 1 643 0 discriminator 3
 436 0182 0134     		add	r4, r4, #1
 437              	.LVL33:
 438 0184 E4B2     		uxtb	r4, r4
 439              	.LVL34:
 440              	.L17:
 643:Generated_Source\PSoC4/cyfitter_cfg.c **** 		{
 441              		.loc 1 643 0 is_stmt 0 discriminator 1
 442 0186 002C     		cmp	r4, #0
 443 0188 EAD0     		beq	.L18
ARM GAS  C:\Users\Andres\AppData\Local\Temp\cco5dWVx.s 			page 21


 650:Generated_Source\PSoC4/cyfitter_cfg.c **** 		}
 651:Generated_Source\PSoC4/cyfitter_cfg.c **** 
 652:Generated_Source\PSoC4/cyfitter_cfg.c **** 		cfg_write_bytes32(cy_cfg_addr_table, cy_cfg_data_table);
 444              		.loc 1 652 0 is_stmt 1
 445 018a 3449     		ldr	r1, .L19+4
 446 018c 081C     		mov	r0, r1
 447 018e 2030     		add	r0, r0, #32
 448 0190 4831     		add	r1, r1, #72
 449 0192 FFF7FEFF 		bl	cfg_write_bytes32
 450              	.LVL35:
 653:Generated_Source\PSoC4/cyfitter_cfg.c **** 
 654:Generated_Source\PSoC4/cyfitter_cfg.c **** 		/* Perform normal device configuration. Order is not critical for these items. */
 655:Generated_Source\PSoC4/cyfitter_cfg.c **** 		CY_SET_XTND_REG16((void CYFAR *)(CYREG_UDB_BCTL0_DRV), 0x0A00u);
 451              		.loc 1 655 0
 452 0196 A022     		mov	r2, #160
 453 0198 1201     		lsl	r2, r2, #4
 454 019a 314B     		ldr	r3, .L19+8
 455 019c 1A80     		strh	r2, [r3]
 656:Generated_Source\PSoC4/cyfitter_cfg.c **** 		CY_SET_XTND_REG8((void CYFAR *)(CYREG_UDB_BCTL0_DRV + 0x2u), 0x01u);
 456              		.loc 1 656 0
 457 019e 0123     		mov	r3, #1
 458 01a0 304A     		ldr	r2, .L19+12
 459 01a2 1370     		strb	r3, [r2]
 657:Generated_Source\PSoC4/cyfitter_cfg.c **** 
 658:Generated_Source\PSoC4/cyfitter_cfg.c **** 		/* HSIOM Starting address: CYDEV_HSIOM_BASE */
 659:Generated_Source\PSoC4/cyfitter_cfg.c **** 		CY_SET_XTND_REG32((void CYFAR *)(CYREG_HSIOM_PORT_SEL1), 0x000000EEu);
 460              		.loc 1 659 0
 461 01a4 EE22     		mov	r2, #238
 462 01a6 3049     		ldr	r1, .L19+16
 463 01a8 0A60     		str	r2, [r1]
 660:Generated_Source\PSoC4/cyfitter_cfg.c **** 		CY_SET_XTND_REG32((void CYFAR *)(CYREG_HSIOM_PORT_SEL2), 0x300000EEu);
 464              		.loc 1 660 0
 465 01aa 3048     		ldr	r0, .L19+20
 466 01ac 3049     		ldr	r1, .L19+24
 467 01ae 0860     		str	r0, [r1]
 661:Generated_Source\PSoC4/cyfitter_cfg.c **** 		CY_SET_XTND_REG32((void CYFAR *)(CYREG_HSIOM_PORT_SEL3), 0x0000EE00u);
 468              		.loc 1 661 0
 469 01b0 EE20     		mov	r0, #238
 470 01b2 0002     		lsl	r0, r0, #8
 471 01b4 2F49     		ldr	r1, .L19+28
 472 01b6 0860     		str	r0, [r1]
 662:Generated_Source\PSoC4/cyfitter_cfg.c **** 		CY_SET_XTND_REG32((void CYFAR *)(CYREG_HSIOM_PORT_SEL4), 0x000000AAu);
 473              		.loc 1 662 0
 474 01b8 AA20     		mov	r0, #170
 475 01ba 2F49     		ldr	r1, .L19+32
 476 01bc 0860     		str	r0, [r1]
 663:Generated_Source\PSoC4/cyfitter_cfg.c **** 		CY_SET_XTND_REG32((void CYFAR *)(CYREG_HSIOM_PORT_SEL5), 0x000000EEu);
 477              		.loc 1 663 0
 478 01be 2F49     		ldr	r1, .L19+36
 479 01c0 0A60     		str	r2, [r1]
 664:Generated_Source\PSoC4/cyfitter_cfg.c **** 		CY_SET_XTND_REG32((void CYFAR *)(CYREG_HSIOM_PORT_SEL6), 0x000000EEu);
 480              		.loc 1 664 0
 481 01c2 2F49     		ldr	r1, .L19+40
 482 01c4 0A60     		str	r2, [r1]
 665:Generated_Source\PSoC4/cyfitter_cfg.c **** 
 666:Generated_Source\PSoC4/cyfitter_cfg.c **** 		/* UDB_PA_1 Starting address: CYDEV_UDB_PA1_BASE */
 667:Generated_Source\PSoC4/cyfitter_cfg.c **** 		CY_SET_XTND_REG32((void CYFAR *)(CYDEV_UDB_PA1_BASE), 0x00990000u);
ARM GAS  C:\Users\Andres\AppData\Local\Temp\cco5dWVx.s 			page 22


 483              		.loc 1 667 0
 484 01c6 9922     		mov	r2, #153
 485 01c8 1204     		lsl	r2, r2, #16
 486 01ca 2E49     		ldr	r1, .L19+44
 487 01cc 0A60     		str	r2, [r1]
 668:Generated_Source\PSoC4/cyfitter_cfg.c **** 
 669:Generated_Source\PSoC4/cyfitter_cfg.c **** 		/* UDB_PA_2 Starting address: CYDEV_UDB_PA2_BASE */
 670:Generated_Source\PSoC4/cyfitter_cfg.c **** 		CY_SET_XTND_REG32((void CYFAR *)(CYDEV_UDB_PA2_BASE), 0x00990004u);
 488              		.loc 1 670 0
 489 01ce 2E48     		ldr	r0, .L19+48
 490 01d0 2E49     		ldr	r1, .L19+52
 491 01d2 0860     		str	r0, [r1]
 671:Generated_Source\PSoC4/cyfitter_cfg.c **** 		CY_SET_XTND_REG32((void CYFAR *)(CYREG_UDB_PA2_CFG4), 0x20000000u);
 492              		.loc 1 671 0
 493 01d4 8020     		mov	r0, #128
 494 01d6 8005     		lsl	r0, r0, #22
 495 01d8 2D49     		ldr	r1, .L19+56
 496 01da 0860     		str	r0, [r1]
 672:Generated_Source\PSoC4/cyfitter_cfg.c **** 		CY_SET_XTND_REG32((void CYFAR *)(CYREG_UDB_PA2_CFG8), 0x40000000u);
 497              		.loc 1 672 0
 498 01dc 8020     		mov	r0, #128
 499 01de C005     		lsl	r0, r0, #23
 500 01e0 2C49     		ldr	r1, .L19+60
 501 01e2 0860     		str	r0, [r1]
 673:Generated_Source\PSoC4/cyfitter_cfg.c **** 
 674:Generated_Source\PSoC4/cyfitter_cfg.c **** 		/* UDB_PA_3 Starting address: CYDEV_UDB_PA3_BASE */
 675:Generated_Source\PSoC4/cyfitter_cfg.c **** 		CY_SET_XTND_REG32((void CYFAR *)(CYDEV_UDB_PA3_BASE), 0x00990000u);
 502              		.loc 1 675 0
 503 01e4 2C49     		ldr	r1, .L19+64
 504 01e6 0A60     		str	r2, [r1]
 676:Generated_Source\PSoC4/cyfitter_cfg.c **** 
 677:Generated_Source\PSoC4/cyfitter_cfg.c **** 		/* INT_SELECT Starting address: CYDEV_CPUSS_INT_SEL */
 678:Generated_Source\PSoC4/cyfitter_cfg.c **** 		CY_SET_XTND_REG32((void CYFAR *)(CYREG_CPUSS_INT_SEL), 0x00000001u);
 505              		.loc 1 678 0
 506 01e8 2C4A     		ldr	r2, .L19+68
 507 01ea 1360     		str	r3, [r2]
 679:Generated_Source\PSoC4/cyfitter_cfg.c **** 
 680:Generated_Source\PSoC4/cyfitter_cfg.c **** 		/* INT_CONFIG Starting address: CYDEV_UDB_INT_CFG */
 681:Generated_Source\PSoC4/cyfitter_cfg.c **** 		CY_SET_XTND_REG32((void CYFAR *)(CYREG_UDB_INT_CFG), 0x00000001u);
 508              		.loc 1 681 0
 509 01ec 2C4A     		ldr	r2, .L19+72
 510 01ee 1360     		str	r3, [r2]
 682:Generated_Source\PSoC4/cyfitter_cfg.c **** 
 683:Generated_Source\PSoC4/cyfitter_cfg.c **** 		/* Enable digital routing */
 684:Generated_Source\PSoC4/cyfitter_cfg.c **** 		CY_SET_XTND_REG8((void *)CYREG_UDB_UDBIF_BANK_CTL, CY_GET_XTND_REG8((void *)CYREG_UDB_UDBIF_BANK_
 511              		.loc 1 684 0
 512 01f0 2C4B     		ldr	r3, .L19+76
 513 01f2 1978     		ldrb	r1, [r3]
 514 01f4 0222     		mov	r2, #2
 515 01f6 0A43     		orr	r2, r1
 516 01f8 1A70     		strb	r2, [r3]
 685:Generated_Source\PSoC4/cyfitter_cfg.c **** 
 686:Generated_Source\PSoC4/cyfitter_cfg.c **** 		/* Enable UDB array */
 687:Generated_Source\PSoC4/cyfitter_cfg.c **** 		CY_SET_XTND_REG8((void *)CYREG_UDB_UDBIF_WAIT_CFG, (uint8)((CY_GET_XTND_REG8((void *)CYREG_UDB_UD
 517              		.loc 1 687 0
 518 01fa 2B48     		ldr	r0, .L19+80
 519 01fc 0278     		ldrb	r2, [r0]
ARM GAS  C:\Users\Andres\AppData\Local\Temp\cco5dWVx.s 			page 23


 520 01fe 3C21     		mov	r1, #60
 521 0200 8A43     		bic	r2, r1
 522 0202 2839     		sub	r1, r1, #40
 523 0204 0A43     		orr	r2, r1
 524 0206 0270     		strb	r2, [r0]
 688:Generated_Source\PSoC4/cyfitter_cfg.c **** 		CY_SET_XTND_REG8((void *)CYREG_UDB_UDBIF_BANK_CTL, (uint8)(CY_GET_XTND_REG8((void *)CYREG_UDB_UDB
 525              		.loc 1 688 0
 526 0208 1978     		ldrb	r1, [r3]
 527 020a 1622     		mov	r2, #22
 528 020c 0A43     		orr	r2, r1
 529 020e 1A70     		strb	r2, [r3]
 530              	.LBE3:
 689:Generated_Source\PSoC4/cyfitter_cfg.c **** 	}
 690:Generated_Source\PSoC4/cyfitter_cfg.c **** 
 691:Generated_Source\PSoC4/cyfitter_cfg.c **** 	/* Perform second pass device configuration. These items must be configured in specific order afte
 692:Generated_Source\PSoC4/cyfitter_cfg.c **** 	/* IOPINS0_1 Starting address: CYDEV_GPIO_PRT1_BASE */
 693:Generated_Source\PSoC4/cyfitter_cfg.c **** 	CY_SET_XTND_REG32((void CYFAR *)(CYDEV_GPIO_PRT1_BASE), 0x00000003u);
 531              		.loc 1 693 0
 532 0210 0322     		mov	r2, #3
 533 0212 264B     		ldr	r3, .L19+84
 534 0214 1A60     		str	r2, [r3]
 694:Generated_Source\PSoC4/cyfitter_cfg.c **** 	CY_SET_XTND_REG32((void CYFAR *)(CYREG_GPIO_PRT1_PC), 0x00000024u);
 535              		.loc 1 694 0
 536 0216 2423     		mov	r3, #36
 537 0218 2549     		ldr	r1, .L19+88
 538 021a 0B60     		str	r3, [r1]
 695:Generated_Source\PSoC4/cyfitter_cfg.c **** 
 696:Generated_Source\PSoC4/cyfitter_cfg.c **** 	/* IOPINS0_2 Starting address: CYDEV_GPIO_PRT2_BASE */
 697:Generated_Source\PSoC4/cyfitter_cfg.c **** 	CY_SET_XTND_REG32((void CYFAR *)(CYDEV_GPIO_PRT2_BASE), 0x000000C3u);
 539              		.loc 1 697 0
 540 021c C320     		mov	r0, #195
 541 021e 2549     		ldr	r1, .L19+92
 542 0220 0860     		str	r0, [r1]
 698:Generated_Source\PSoC4/cyfitter_cfg.c **** 	CY_SET_XTND_REG32((void CYFAR *)(CYREG_GPIO_PRT2_PC), 0x00476DA4u);
 543              		.loc 1 698 0
 544 0222 2548     		ldr	r0, .L19+96
 545 0224 2549     		ldr	r1, .L19+100
 546 0226 0860     		str	r0, [r1]
 699:Generated_Source\PSoC4/cyfitter_cfg.c **** 
 700:Generated_Source\PSoC4/cyfitter_cfg.c **** 	/* IOPINS0_3 Starting address: CYDEV_GPIO_PRT3_BASE */
 701:Generated_Source\PSoC4/cyfitter_cfg.c **** 	CY_SET_XTND_REG32((void CYFAR *)(CYREG_GPIO_PRT3_PC), 0x00000D80u);
 547              		.loc 1 701 0
 548 0228 D820     		mov	r0, #216
 549 022a 0001     		lsl	r0, r0, #4
 550 022c 2449     		ldr	r1, .L19+104
 551 022e 0860     		str	r0, [r1]
 702:Generated_Source\PSoC4/cyfitter_cfg.c **** 
 703:Generated_Source\PSoC4/cyfitter_cfg.c **** 	/* IOPINS0_4 Starting address: CYDEV_GPIO_PRT4_BASE */
 704:Generated_Source\PSoC4/cyfitter_cfg.c **** 	CY_SET_XTND_REG32((void CYFAR *)(CYDEV_GPIO_PRT4_BASE), 0x00000002u);
 552              		.loc 1 704 0
 553 0230 2449     		ldr	r1, .L19+108
 554 0232 0220     		mov	r0, #2
 555 0234 0860     		str	r0, [r1]
 705:Generated_Source\PSoC4/cyfitter_cfg.c **** 	CY_SET_XTND_REG32((void CYFAR *)(CYREG_GPIO_PRT4_PC), 0x00000011u);
 556              		.loc 1 705 0
 557 0236 0F30     		add	r0, r0, #15
 558 0238 2349     		ldr	r1, .L19+112
ARM GAS  C:\Users\Andres\AppData\Local\Temp\cco5dWVx.s 			page 24


 559 023a 0860     		str	r0, [r1]
 706:Generated_Source\PSoC4/cyfitter_cfg.c **** 
 707:Generated_Source\PSoC4/cyfitter_cfg.c **** 	/* IOPINS0_5 Starting address: CYDEV_GPIO_PRT5_BASE */
 708:Generated_Source\PSoC4/cyfitter_cfg.c **** 	CY_SET_XTND_REG32((void CYFAR *)(CYDEV_GPIO_PRT5_BASE), 0x00000003u);
 560              		.loc 1 708 0
 561 023c 2349     		ldr	r1, .L19+116
 562 023e 0A60     		str	r2, [r1]
 709:Generated_Source\PSoC4/cyfitter_cfg.c **** 	CY_SET_XTND_REG32((void CYFAR *)(CYREG_GPIO_PRT5_PC), 0x00000024u);
 563              		.loc 1 709 0
 564 0240 2349     		ldr	r1, .L19+120
 565 0242 0B60     		str	r3, [r1]
 710:Generated_Source\PSoC4/cyfitter_cfg.c **** 
 711:Generated_Source\PSoC4/cyfitter_cfg.c **** 	/* IOPINS0_6 Starting address: CYDEV_GPIO_PRT6_BASE */
 712:Generated_Source\PSoC4/cyfitter_cfg.c **** 	CY_SET_XTND_REG32((void CYFAR *)(CYDEV_GPIO_PRT6_BASE), 0x00000003u);
 566              		.loc 1 712 0
 567 0244 2349     		ldr	r1, .L19+124
 568 0246 0A60     		str	r2, [r1]
 713:Generated_Source\PSoC4/cyfitter_cfg.c **** 	CY_SET_XTND_REG32((void CYFAR *)(CYREG_GPIO_PRT6_PC), 0x00000024u);
 569              		.loc 1 713 0
 570 0248 234A     		ldr	r2, .L19+128
 571 024a 1360     		str	r3, [r2]
 714:Generated_Source\PSoC4/cyfitter_cfg.c **** 
 715:Generated_Source\PSoC4/cyfitter_cfg.c **** 
 716:Generated_Source\PSoC4/cyfitter_cfg.c **** 	/* Setup clocks based on selections from Clock DWR */
 717:Generated_Source\PSoC4/cyfitter_cfg.c **** 	ClockSetup();
 572              		.loc 1 717 0
 573 024c FFF7D8FE 		bl	ClockSetup
 574              	.LVL36:
 718:Generated_Source\PSoC4/cyfitter_cfg.c **** 
 719:Generated_Source\PSoC4/cyfitter_cfg.c **** 	/* Perform basic analog initialization to defaults */
 720:Generated_Source\PSoC4/cyfitter_cfg.c **** 	AnalogSetDefault();
 575              		.loc 1 720 0
 576 0250 FFF7FEFF 		bl	AnalogSetDefault
 577              	.LVL37:
 721:Generated_Source\PSoC4/cyfitter_cfg.c **** 
 722:Generated_Source\PSoC4/cyfitter_cfg.c **** }
 578              		.loc 1 722 0
 579              		@ sp needed
 580              	.LVL38:
 581 0254 38BD     		pop	{r3, r4, r5, pc}
 582              	.L20:
 583 0256 C046     		.align	2
 584              	.L19:
 585 0258 1C700F40 		.word	1074753564
 586 025c 00000000 		.word	.LANCHOR0
 587 0260 00600F40 		.word	1074749440
 588 0264 02600F40 		.word	1074749442
 589 0268 00010240 		.word	1073873152
 590 026c EE000030 		.word	805306606
 591 0270 00020240 		.word	1073873408
 592 0274 00030240 		.word	1073873664
 593 0278 00040240 		.word	1073873920
 594 027c 00050240 		.word	1073874176
 595 0280 00060240 		.word	1073874432
 596 0284 10500F40 		.word	1074745360
 597 0288 04009900 		.word	10027012
 598 028c 20500F40 		.word	1074745376
ARM GAS  C:\Users\Andres\AppData\Local\Temp\cco5dWVx.s 			page 25


 599 0290 24500F40 		.word	1074745380
 600 0294 28500F40 		.word	1074745384
 601 0298 30500F40 		.word	1074745392
 602 029c 20001040 		.word	1074790432
 603 02a0 00800F40 		.word	1074757632
 604 02a4 00700F40 		.word	1074753536
 605 02a8 01700F40 		.word	1074753537
 606 02ac 00010440 		.word	1074004224
 607 02b0 08010440 		.word	1074004232
 608 02b4 00020440 		.word	1074004480
 609 02b8 A46D4700 		.word	4681124
 610 02bc 08020440 		.word	1074004488
 611 02c0 08030440 		.word	1074004744
 612 02c4 00040440 		.word	1074004992
 613 02c8 08040440 		.word	1074005000
 614 02cc 00050440 		.word	1074005248
 615 02d0 08050440 		.word	1074005256
 616 02d4 00060440 		.word	1074005504
 617 02d8 08060440 		.word	1074005512
 618              		.cfi_endproc
 619              	.LFE7:
 620              		.size	cyfitter_cfg, .-cyfitter_cfg
 621              		.section	.rodata
 622              		.align	2
 623              		.set	.LANCHOR0,. + 0
 624              		.type	cfg_memset_list.4790, %object
 625              		.size	cfg_memset_list.4790, 18
 626              	cfg_memset_list.4790:
 627 0000 00300F40 		.word	1074737152
 628 0004 0002     		.short	512
 629 0006 80320F40 		.4byte	1074737792
 630 000a 8001     		.short	384
 631 000c 00400F40 		.word	1074741248
 632 0010 0004     		.short	1024
 633 0012 0000     		.space	2
 634              		.type	cfg_memcpy_list.4792, %object
 635              		.size	cfg_memcpy_list.4792, 10
 636              	cfg_memcpy_list.4792:
 637 0014 00320F40 		.word	1074737664
 638 0018 50020000 		.word	BS_UDB_0_0_1_CONFIG_VAL.4791
 639 001c 8000     		.short	128
 640 001e 0000     		.space	2
 641              		.type	cy_cfg_addr_table.4779, %object
 642              		.size	cy_cfg_addr_table.4779, 40
 643              	cy_cfg_addr_table.4779:
 644 0020 03000F40 		.word	1074724867
 645 0024 64300F40 		.word	1074737252
 646 0028 37310F40 		.word	1074737463
 647 002c 12320F40 		.word	1074737682
 648 0030 45330F40 		.word	1074737989
 649 0034 02400F40 		.word	1074741250
 650 0038 02410F40 		.word	1074741506
 651 003c 04420F40 		.word	1074741764
 652 0040 04430F40 		.word	1074742020
 653 0044 02600F40 		.word	1074749442
 654              		.type	cy_cfg_data_table.4780, %object
 655              		.size	cy_cfg_data_table.4780, 518
ARM GAS  C:\Users\Andres\AppData\Local\Temp\cco5dWVx.s 			page 26


 656              	cy_cfg_data_table.4780:
 657 0048 81       		.byte	-127
 658 0049 0F       		.byte	15
 659 004a 82       		.byte	-126
 660 004b 71       		.byte	113
 661 004c 83       		.byte	-125
 662 004d 38       		.byte	56
 663 004e 02       		.byte	2
 664 004f 03       		.byte	3
 665 0050 03       		.byte	3
 666 0051 08       		.byte	8
 667 0052 05       		.byte	5
 668 0053 80       		.byte	-128
 669 0054 07       		.byte	7
 670 0055 13       		.byte	19
 671 0056 0C       		.byte	12
 672 0057 0C       		.byte	12
 673 0058 0E       		.byte	14
 674 0059 71       		.byte	113
 675 005a 0F       		.byte	15
 676 005b 0C       		.byte	12
 677 005c 10       		.byte	16
 678 005d 09       		.byte	9
 679 005e 12       		.byte	18
 680 005f D0       		.byte	-48
 681 0060 14       		.byte	20
 682 0061 10       		.byte	16
 683 0062 15       		.byte	21
 684 0063 2C       		.byte	44
 685 0064 16       		.byte	22
 686 0065 AC       		.byte	-84
 687 0066 17       		.byte	23
 688 0067 43       		.byte	67
 689 0068 18       		.byte	24
 690 0069 DC       		.byte	-36
 691 006a 1A       		.byte	26
 692 006b 22       		.byte	34
 693 006c 1C       		.byte	28
 694 006d 10       		.byte	16
 695 006e 1E       		.byte	30
 696 006f 40       		.byte	64
 697 0070 21       		.byte	33
 698 0071 71       		.byte	113
 699 0072 23       		.byte	35
 700 0073 0E       		.byte	14
 701 0074 24       		.byte	36
 702 0075 14       		.byte	20
 703 0076 25       		.byte	37
 704 0077 71       		.byte	113
 705 0078 27       		.byte	39
 706 0079 06       		.byte	6
 707 007a 2A       		.byte	42
 708 007b 20       		.byte	32
 709 007c 30       		.byte	48
 710 007d E0       		.byte	-32
 711 007e 31       		.byte	49
 712 007f C0       		.byte	-64
ARM GAS  C:\Users\Andres\AppData\Local\Temp\cco5dWVx.s 			page 27


 713 0080 33       		.byte	51
 714 0081 0F       		.byte	15
 715 0082 35       		.byte	53
 716 0083 30       		.byte	48
 717 0084 36       		.byte	54
 718 0085 1F       		.byte	31
 719 0086 39       		.byte	57
 720 0087 22       		.byte	34
 721 0088 3A       		.byte	58
 722 0089 02       		.byte	2
 723 008a 3B       		.byte	59
 724 008b 08       		.byte	8
 725 008c 3F       		.byte	63
 726 008d 10       		.byte	16
 727 008e 40       		.byte	64
 728 008f 02       		.byte	2
 729 0090 45       		.byte	69
 730 0091 40       		.byte	64
 731 0092 49       		.byte	73
 732 0093 FF       		.byte	-1
 733 0094 4A       		.byte	74
 734 0095 07       		.byte	7
 735 0096 4B       		.byte	75
 736 0097 FF       		.byte	-1
 737 0098 4C       		.byte	76
 738 0099 40       		.byte	64
 739 009a 4D       		.byte	77
 740 009b 20       		.byte	32
 741 009c 4E       		.byte	78
 742 009d F0       		.byte	-16
 743 009e 4F       		.byte	79
 744 009f 05       		.byte	5
 745 00a0 50       		.byte	80
 746 00a1 08       		.byte	8
 747 00a2 58       		.byte	88
 748 00a3 04       		.byte	4
 749 00a4 59       		.byte	89
 750 00a5 04       		.byte	4
 751 00a6 5A       		.byte	90
 752 00a7 04       		.byte	4
 753 00a8 5C       		.byte	92
 754 00a9 33       		.byte	51
 755 00aa 5D       		.byte	93
 756 00ab 03       		.byte	3
 757 00ac 5F       		.byte	95
 758 00ad 01       		.byte	1
 759 00ae 60       		.byte	96
 760 00af 40       		.byte	64
 761 00b0 61       		.byte	97
 762 00b1 A8       		.byte	-88
 763 00b2 62       		.byte	98
 764 00b3 40       		.byte	64
 765 00b4 63       		.byte	99
 766 00b5 20       		.byte	32
 767 00b6 80       		.byte	-128
 768 00b7 40       		.byte	64
 769 00b8 86       		.byte	-122
ARM GAS  C:\Users\Andres\AppData\Local\Temp\cco5dWVx.s 			page 28


 770 00b9 15       		.byte	21
 771 00ba 88       		.byte	-120
 772 00bb 40       		.byte	64
 773 00bc 8C       		.byte	-116
 774 00bd 13       		.byte	19
 775 00be 8E       		.byte	-114
 776 00bf 04       		.byte	4
 777 00c0 94       		.byte	-108
 778 00c1 13       		.byte	19
 779 00c2 96       		.byte	-106
 780 00c3 0C       		.byte	12
 781 00c4 9A       		.byte	-102
 782 00c5 20       		.byte	32
 783 00c6 9E       		.byte	-98
 784 00c7 20       		.byte	32
 785 00c8 A0       		.byte	-96
 786 00c9 03       		.byte	3
 787 00ca A2       		.byte	-94
 788 00cb 14       		.byte	20
 789 00cc A5       		.byte	-91
 790 00cd 01       		.byte	1
 791 00ce A8       		.byte	-88
 792 00cf 0A       		.byte	10
 793 00d0 A9       		.byte	-87
 794 00d1 01       		.byte	1
 795 00d2 AA       		.byte	-86
 796 00d3 14       		.byte	20
 797 00d4 AD       		.byte	-83
 798 00d5 01       		.byte	1
 799 00d6 AE       		.byte	-82
 800 00d7 08       		.byte	8
 801 00d8 B0       		.byte	-80
 802 00d9 10       		.byte	16
 803 00da B1       		.byte	-79
 804 00db 01       		.byte	1
 805 00dc B2       		.byte	-78
 806 00dd 0F       		.byte	15
 807 00de B4       		.byte	-76
 808 00df 20       		.byte	32
 809 00e0 B6       		.byte	-74
 810 00e1 40       		.byte	64
 811 00e2 B8       		.byte	-72
 812 00e3 80       		.byte	-128
 813 00e4 BA       		.byte	-70
 814 00e5 08       		.byte	8
 815 00e6 BE       		.byte	-66
 816 00e7 51       		.byte	81
 817 00e8 C0       		.byte	-64
 818 00e9 32       		.byte	50
 819 00ea C1       		.byte	-63
 820 00eb 01       		.byte	1
 821 00ec C5       		.byte	-59
 822 00ed 0B       		.byte	11
 823 00ee C6       		.byte	-58
 824 00ef 0C       		.byte	12
 825 00f0 C7       		.byte	-57
 826 00f1 0E       		.byte	14
ARM GAS  C:\Users\Andres\AppData\Local\Temp\cco5dWVx.s 			page 29


 827 00f2 C8       		.byte	-56
 828 00f3 15       		.byte	21
 829 00f4 C9       		.byte	-55
 830 00f5 FF       		.byte	-1
 831 00f6 CA       		.byte	-54
 832 00f7 FF       		.byte	-1
 833 00f8 CB       		.byte	-53
 834 00f9 FF       		.byte	-1
 835 00fa CE       		.byte	-50
 836 00fb F0       		.byte	-16
 837 00fc CF       		.byte	-49
 838 00fd 44       		.byte	68
 839 00fe D0       		.byte	-48
 840 00ff 0C       		.byte	12
 841 0100 D4       		.byte	-44
 842 0101 01       		.byte	1
 843 0102 D8       		.byte	-40
 844 0103 04       		.byte	4
 845 0104 D9       		.byte	-39
 846 0105 04       		.byte	4
 847 0106 DA       		.byte	-38
 848 0107 04       		.byte	4
 849 0108 DB       		.byte	-37
 850 0109 04       		.byte	4
 851 010a DC       		.byte	-36
 852 010b 13       		.byte	19
 853 010c DD       		.byte	-35
 854 010d 33       		.byte	51
 855 010e DF       		.byte	-33
 856 010f 01       		.byte	1
 857 0110 E6       		.byte	-26
 858 0111 C0       		.byte	-64
 859 0112 EA       		.byte	-22
 860 0113 40       		.byte	64
 861 0114 EB       		.byte	-21
 862 0115 02       		.byte	2
 863 0116 00       		.byte	0
 864 0117 40       		.byte	64
 865 0118 03       		.byte	3
 866 0119 80       		.byte	-128
 867 011a 04       		.byte	4
 868 011b 48       		.byte	72
 869 011c 05       		.byte	5
 870 011d 02       		.byte	2
 871 011e 07       		.byte	7
 872 011f 04       		.byte	4
 873 0120 08       		.byte	8
 874 0121 01       		.byte	1
 875 0122 09       		.byte	9
 876 0123 08       		.byte	8
 877 0124 0A       		.byte	10
 878 0125 08       		.byte	8
 879 0126 0B       		.byte	11
 880 0127 42       		.byte	66
 881 0128 0D       		.byte	13
 882 0129 08       		.byte	8
 883 012a 0E       		.byte	14
ARM GAS  C:\Users\Andres\AppData\Local\Temp\cco5dWVx.s 			page 30


 884 012b 02       		.byte	2
 885 012c 0F       		.byte	15
 886 012d 08       		.byte	8
 887 012e 10       		.byte	16
 888 012f 20       		.byte	32
 889 0130 12       		.byte	18
 890 0131 04       		.byte	4
 891 0132 14       		.byte	20
 892 0133 01       		.byte	1
 893 0134 16       		.byte	22
 894 0135 40       		.byte	64
 895 0136 17       		.byte	23
 896 0137 20       		.byte	32
 897 0138 18       		.byte	24
 898 0139 40       		.byte	64
 899 013a 19       		.byte	25
 900 013b 01       		.byte	1
 901 013c 1B       		.byte	27
 902 013d 80       		.byte	-128
 903 013e 1C       		.byte	28
 904 013f 04       		.byte	4
 905 0140 1D       		.byte	29
 906 0141 8C       		.byte	-116
 907 0142 1E       		.byte	30
 908 0143 40       		.byte	64
 909 0144 21       		.byte	33
 910 0145 10       		.byte	16
 911 0146 22       		.byte	34
 912 0147 04       		.byte	4
 913 0148 23       		.byte	35
 914 0149 60       		.byte	96
 915 014a 25       		.byte	37
 916 014b 01       		.byte	1
 917 014c 29       		.byte	41
 918 014d 05       		.byte	5
 919 014e 2A       		.byte	42
 920 014f 01       		.byte	1
 921 0150 2F       		.byte	47
 922 0151 2A       		.byte	42
 923 0152 32       		.byte	50
 924 0153 04       		.byte	4
 925 0154 38       		.byte	56
 926 0155 08       		.byte	8
 927 0156 3B       		.byte	59
 928 0157 42       		.byte	66
 929 0158 41       		.byte	65
 930 0159 10       		.byte	16
 931 015a 45       		.byte	69
 932 015b 08       		.byte	8
 933 015c 46       		.byte	70
 934 015d 05       		.byte	5
 935 015e 4B       		.byte	75
 936 015f 02       		.byte	2
 937 0160 4C       		.byte	76
 938 0161 20       		.byte	32
 939 0162 50       		.byte	80
 940 0163 04       		.byte	4
ARM GAS  C:\Users\Andres\AppData\Local\Temp\cco5dWVx.s 			page 31


 941 0164 52       		.byte	82
 942 0165 04       		.byte	4
 943 0166 54       		.byte	84
 944 0167 04       		.byte	4
 945 0168 56       		.byte	86
 946 0169 40       		.byte	64
 947 016a 5D       		.byte	93
 948 016b 08       		.byte	8
 949 016c 5E       		.byte	94
 950 016d 40       		.byte	64
 951 016e 5F       		.byte	95
 952 016f 12       		.byte	18
 953 0170 6D       		.byte	109
 954 0171 50       		.byte	80
 955 0172 6F       		.byte	111
 956 0173 04       		.byte	4
 957 0174 C0       		.byte	-64
 958 0175 F9       		.byte	-7
 959 0176 C2       		.byte	-62
 960 0177 EF       		.byte	-17
 961 0178 C4       		.byte	-60
 962 0179 D6       		.byte	-42
 963 017a CA       		.byte	-54
 964 017b 73       		.byte	115
 965 017c CC       		.byte	-52
 966 017d 02       		.byte	2
 967 017e CE       		.byte	-50
 968 017f 0B       		.byte	11
 969 0180 D0       		.byte	-48
 970 0181 74       		.byte	116
 971 0182 D6       		.byte	-42
 972 0183 F0       		.byte	-16
 973 0184 82       		.byte	-126
 974 0185 02       		.byte	2
 975 0186 84       		.byte	-124
 976 0187 04       		.byte	4
 977 0188 92       		.byte	-110
 978 0189 01       		.byte	1
 979 018a 9E       		.byte	-98
 980 018b 01       		.byte	1
 981 018c AC       		.byte	-84
 982 018d 02       		.byte	2
 983 018e B0       		.byte	-80
 984 018f 01       		.byte	1
 985 0190 B2       		.byte	-78
 986 0191 04       		.byte	4
 987 0192 B6       		.byte	-74
 988 0193 02       		.byte	2
 989 0194 B8       		.byte	-72
 990 0195 80       		.byte	-128
 991 0196 BA       		.byte	-70
 992 0197 20       		.byte	32
 993 0198 BE       		.byte	-66
 994 0199 45       		.byte	69
 995 019a D4       		.byte	-44
 996 019b 18       		.byte	24
 997 019c D6       		.byte	-42
ARM GAS  C:\Users\Andres\AppData\Local\Temp\cco5dWVx.s 			page 32


 998 019d 04       		.byte	4
 999 019e D8       		.byte	-40
 1000 019f 04       		.byte	4
 1001 01a0 DB       		.byte	-37
 1002 01a1 04       		.byte	4
 1003 01a2 DC       		.byte	-36
 1004 01a3 01       		.byte	1
 1005 01a4 DD       		.byte	-35
 1006 01a5 10       		.byte	16
 1007 01a6 DF       		.byte	-33
 1008 01a7 01       		.byte	1
 1009 01a8 00       		.byte	0
 1010 01a9 08       		.byte	8
 1011 01aa 03       		.byte	3
 1012 01ab 80       		.byte	-128
 1013 01ac 05       		.byte	5
 1014 01ad 02       		.byte	2
 1015 01ae 06       		.byte	6
 1016 01af 06       		.byte	6
 1017 01b0 07       		.byte	7
 1018 01b1 10       		.byte	16
 1019 01b2 0A       		.byte	10
 1020 01b3 83       		.byte	-125
 1021 01b4 0C       		.byte	12
 1022 01b5 40       		.byte	64
 1023 01b6 0D       		.byte	13
 1024 01b7 22       		.byte	34
 1025 01b8 0F       		.byte	15
 1026 01b9 20       		.byte	32
 1027 01ba 11       		.byte	17
 1028 01bb 40       		.byte	64
 1029 01bc 15       		.byte	21
 1030 01bd 10       		.byte	16
 1031 01be 16       		.byte	22
 1032 01bf 10       		.byte	16
 1033 01c0 17       		.byte	23
 1034 01c1 02       		.byte	2
 1035 01c2 18       		.byte	24
 1036 01c3 0A       		.byte	10
 1037 01c4 19       		.byte	25
 1038 01c5 18       		.byte	24
 1039 01c6 1B       		.byte	27
 1040 01c7 11       		.byte	17
 1041 01c8 1D       		.byte	29
 1042 01c9 22       		.byte	34
 1043 01ca 1E       		.byte	30
 1044 01cb 01       		.byte	1
 1045 01cc 1F       		.byte	31
 1046 01cd 15       		.byte	21
 1047 01ce 26       		.byte	38
 1048 01cf 11       		.byte	17
 1049 01d0 27       		.byte	39
 1050 01d1 11       		.byte	17
 1051 01d2 2F       		.byte	47
 1052 01d3 15       		.byte	21
 1053 01d4 35       		.byte	53
 1054 01d5 10       		.byte	16
ARM GAS  C:\Users\Andres\AppData\Local\Temp\cco5dWVx.s 			page 33


 1055 01d6 36       		.byte	54
 1056 01d7 04       		.byte	4
 1057 01d8 3D       		.byte	61
 1058 01d9 12       		.byte	18
 1059 01da 44       		.byte	68
 1060 01db 40       		.byte	64
 1061 01dc 45       		.byte	69
 1062 01dd A1       		.byte	-95
 1063 01de 4C       		.byte	76
 1064 01df 04       		.byte	4
 1065 01e0 4E       		.byte	78
 1066 01e1 41       		.byte	65
 1067 01e2 57       		.byte	87
 1068 01e3 04       		.byte	4
 1069 01e4 5B       		.byte	91
 1070 01e5 01       		.byte	1
 1071 01e6 5E       		.byte	94
 1072 01e7 20       		.byte	32
 1073 01e8 60       		.byte	96
 1074 01e9 04       		.byte	4
 1075 01ea 63       		.byte	99
 1076 01eb 42       		.byte	66
 1077 01ec 6F       		.byte	111
 1078 01ed 2A       		.byte	42
 1079 01ee 76       		.byte	118
 1080 01ef 14       		.byte	20
 1081 01f0 77       		.byte	119
 1082 01f1 02       		.byte	2
 1083 01f2 80       		.byte	-128
 1084 01f3 01       		.byte	1
 1085 01f4 86       		.byte	-122
 1086 01f5 02       		.byte	2
 1087 01f6 87       		.byte	-121
 1088 01f7 04       		.byte	4
 1089 01f8 8B       		.byte	-117
 1090 01f9 40       		.byte	64
 1091 01fa 90       		.byte	-112
 1092 01fb 04       		.byte	4
 1093 01fc 91       		.byte	-111
 1094 01fd 50       		.byte	80
 1095 01fe 99       		.byte	-103
 1096 01ff 02       		.byte	2
 1097 0200 9D       		.byte	-99
 1098 0201 08       		.byte	8
 1099 0202 A0       		.byte	-96
 1100 0203 04       		.byte	4
 1101 0204 A1       		.byte	-95
 1102 0205 81       		.byte	-127
 1103 0206 A2       		.byte	-94
 1104 0207 04       		.byte	4
 1105 0208 A3       		.byte	-93
 1106 0209 80       		.byte	-128
 1107 020a A6       		.byte	-90
 1108 020b 01       		.byte	1
 1109 020c A7       		.byte	-89
 1110 020d 2E       		.byte	46
 1111 020e AC       		.byte	-84
ARM GAS  C:\Users\Andres\AppData\Local\Temp\cco5dWVx.s 			page 34


 1112 020f 04       		.byte	4
 1113 0210 AF       		.byte	-81
 1114 0211 02       		.byte	2
 1115 0212 B2       		.byte	-78
 1116 0213 40       		.byte	64
 1117 0214 B3       		.byte	-77
 1118 0215 10       		.byte	16
 1119 0216 B5       		.byte	-75
 1120 0217 02       		.byte	2
 1121 0218 B6       		.byte	-74
 1122 0219 04       		.byte	4
 1123 021a C0       		.byte	-64
 1124 021b FC       		.byte	-4
 1125 021c C2       		.byte	-62
 1126 021d F9       		.byte	-7
 1127 021e C4       		.byte	-60
 1128 021f 71       		.byte	113
 1129 0220 CA       		.byte	-54
 1130 0221 70       		.byte	112
 1131 0222 CC       		.byte	-52
 1132 0223 60       		.byte	96
 1133 0224 CE       		.byte	-50
 1134 0225 A0       		.byte	-96
 1135 0226 D0       		.byte	-48
 1136 0227 B0       		.byte	-80
 1137 0228 D2       		.byte	-46
 1138 0229 30       		.byte	48
 1139 022a D6       		.byte	-42
 1140 022b 21       		.byte	33
 1141 022c D8       		.byte	-40
 1142 022d 0D       		.byte	13
 1143 022e E2       		.byte	-30
 1144 022f 20       		.byte	32
 1145 0230 E4       		.byte	-28
 1146 0231 04       		.byte	4
 1147 0232 68       		.byte	104
 1148 0233 04       		.byte	4
 1149 0234 DA       		.byte	-38
 1150 0235 40       		.byte	64
 1151 0236 88       		.byte	-120
 1152 0237 04       		.byte	4
 1153 0238 A4       		.byte	-92
 1154 0239 04       		.byte	4
 1155 023a 08       		.byte	8
 1156 023b 20       		.byte	32
 1157 023c 67       		.byte	103
 1158 023d 02       		.byte	2
 1159 023e C2       		.byte	-62
 1160 023f 02       		.byte	2
 1161 0240 D6       		.byte	-42
 1162 0241 01       		.byte	1
 1163 0242 83       		.byte	-125
 1164 0243 01       		.byte	1
 1165 0244 97       		.byte	-105
 1166 0245 02       		.byte	2
 1167 0246 B4       		.byte	-76
 1168 0247 20       		.byte	32
ARM GAS  C:\Users\Andres\AppData\Local\Temp\cco5dWVx.s 			page 35


 1169 0248 EA       		.byte	-22
 1170 0249 02       		.byte	2
 1171 024a 10       		.byte	16
 1172 024b 0A       		.byte	10
 1173 024c 11       		.byte	17
 1174 024d 01       		.byte	1
 1175 024e 0000     		.space	2
 1176              		.type	BS_UDB_0_0_1_CONFIG_VAL.4791, %object
 1177              		.size	BS_UDB_0_0_1_CONFIG_VAL.4791, 128
 1178              	BS_UDB_0_0_1_CONFIG_VAL.4791:
 1179 0250 21       		.byte	33
 1180 0251 00       		.byte	0
 1181 0252 00       		.byte	0
 1182 0253 01       		.byte	1
 1183 0254 00       		.byte	0
 1184 0255 00       		.byte	0
 1185 0256 01       		.byte	1
 1186 0257 00       		.byte	0
 1187 0258 08       		.byte	8
 1188 0259 09       		.byte	9
 1189 025a 00       		.byte	0
 1190 025b 00       		.byte	0
 1191 025c 99       		.byte	-103
 1192 025d 00       		.byte	0
 1193 025e 64       		.byte	100
 1194 025f 00       		.byte	0
 1195 0260 39       		.byte	57
 1196 0261 00       		.byte	0
 1197 0262 C2       		.byte	-62
 1198 0263 00       		.byte	0
 1199 0264 FF       		.byte	-1
 1200 0265 09       		.byte	9
 1201 0266 00       		.byte	0
 1202 0267 00       		.byte	0
 1203 0268 E7       		.byte	-25
 1204 0269 07       		.byte	7
 1205 026a 18       		.byte	24
 1206 026b 00       		.byte	0
 1207 026c 00       		.byte	0
 1208 026d 00       		.byte	0
 1209 026e E6       		.byte	-26
 1210 026f 00       		.byte	0
 1211 0270 10       		.byte	16
 1212 0271 00       		.byte	0
 1213 0272 00       		.byte	0
 1214 0273 00       		.byte	0
 1215 0274 18       		.byte	24
 1216 0275 07       		.byte	7
 1217 0276 00       		.byte	0
 1218 0277 00       		.byte	0
 1219 0278 21       		.byte	33
 1220 0279 04       		.byte	4
 1221 027a 00       		.byte	0
 1222 027b 03       		.byte	3
 1223 027c 00       		.byte	0
 1224 027d 04       		.byte	4
 1225 027e 00       		.byte	0
ARM GAS  C:\Users\Andres\AppData\Local\Temp\cco5dWVx.s 			page 36


 1226 027f 03       		.byte	3
 1227 0280 58       		.byte	88
 1228 0281 02       		.byte	2
 1229 0282 1F       		.byte	31
 1230 0283 08       		.byte	8
 1231 0284 38       		.byte	56
 1232 0285 04       		.byte	4
 1233 0286 98       		.byte	-104
 1234 0287 01       		.byte	1
 1235 0288 00       		.byte	0
 1236 0289 0A       		.byte	10
 1237 028a 2A       		.byte	42
 1238 028b 00       		.byte	0
 1239 028c 00       		.byte	0
 1240 028d 00       		.byte	0
 1241 028e 00       		.byte	0
 1242 028f 10       		.byte	16
 1243 0290 24       		.byte	36
 1244 0291 06       		.byte	6
 1245 0292 05       		.byte	5
 1246 0293 00       		.byte	0
 1247 0294 01       		.byte	1
 1248 0295 C0       		.byte	-64
 1249 0296 00       		.byte	0
 1250 0297 0E       		.byte	14
 1251 0298 12       		.byte	18
 1252 0299 FF       		.byte	-1
 1253 029a FF       		.byte	-1
 1254 029b FF       		.byte	-1
 1255 029c 62       		.byte	98
 1256 029d A0       		.byte	-96
 1257 029e F0       		.byte	-16
 1258 029f 41       		.byte	65
 1259 02a0 0C       		.byte	12
 1260 02a1 00       		.byte	0
 1261 02a2 00       		.byte	0
 1262 02a3 00       		.byte	0
 1263 02a4 00       		.byte	0
 1264 02a5 00       		.byte	0
 1265 02a6 02       		.byte	2
 1266 02a7 11       		.byte	17
 1267 02a8 04       		.byte	4
 1268 02a9 04       		.byte	4
 1269 02aa 04       		.byte	4
 1270 02ab 04       		.byte	4
 1271 02ac 11       		.byte	17
 1272 02ad 11       		.byte	17
 1273 02ae 00       		.byte	0
 1274 02af 01       		.byte	1
 1275 02b0 00       		.byte	0
 1276 02b1 00       		.byte	0
 1277 02b2 00       		.byte	0
 1278 02b3 00       		.byte	0
 1279 02b4 00       		.byte	0
 1280 02b5 00       		.byte	0
 1281 02b6 40       		.byte	64
 1282 02b7 02       		.byte	2
ARM GAS  C:\Users\Andres\AppData\Local\Temp\cco5dWVx.s 			page 37


 1283 02b8 00       		.byte	0
 1284 02b9 10       		.byte	16
 1285 02ba 30       		.byte	48
 1286 02bb 10       		.byte	16
 1287 02bc 00       		.byte	0
 1288 02bd 10       		.byte	16
 1289 02be 10       		.byte	16
 1290 02bf 12       		.byte	18
 1291 02c0 00       		.byte	0
 1292 02c1 00       		.byte	0
 1293 02c2 00       		.byte	0
 1294 02c3 00       		.byte	0
 1295 02c4 00       		.byte	0
 1296 02c5 00       		.byte	0
 1297 02c6 00       		.byte	0
 1298 02c7 00       		.byte	0
 1299 02c8 00       		.byte	0
 1300 02c9 00       		.byte	0
 1301 02ca 00       		.byte	0
 1302 02cb 00       		.byte	0
 1303 02cc 00       		.byte	0
 1304 02cd 00       		.byte	0
 1305 02ce 00       		.byte	0
 1306 02cf 00       		.byte	0
 1307              		.text
 1308              	.Letext0:
 1309              		.file 2 "c:\\program files (x86)\\cypress\\psoc creator\\4.0\\psoc creator\\import\\gnu\\arm\\4.9.
 1310              		.file 3 "Generated_Source\\PSoC4\\cytypes.h"
 1311              		.file 4 "Generated_Source\\PSoC4\\CyLib.h"
 1312              		.file 5 "Generated_Source\\PSoC4\\CyLFClk.h"