ARM GAS  C:\Users\Andres\AppData\Local\Temp\ccSsqcxd.s 			page 1


   1              		.cpu cortex-m0
   2              		.fpu softvfp
   3              		.eabi_attribute 20, 1
   4              		.eabi_attribute 21, 1
   5              		.eabi_attribute 23, 3
   6              		.eabi_attribute 24, 1
   7              		.eabi_attribute 25, 1
   8              		.eabi_attribute 26, 1
   9              		.eabi_attribute 30, 1
  10              		.eabi_attribute 34, 0
  11              		.eabi_attribute 18, 4
  12              		.code	16
  13              		.file	"main.c"
  14              		.text
  15              	.Ltext0:
  16              		.cfi_sections	.debug_frame
  17              		.section	.text.writeVCNL_1,"ax",%progbits
  18              		.align	2
  19              		.global	writeVCNL_1
  20              		.code	16
  21              		.thumb_func
  22              		.type	writeVCNL_1, %function
  23              	writeVCNL_1:
  24              	.LFB36:
  25              		.file 1 "./VCNL4010_1.h"
   1:./VCNL4010_1.h **** #include <project.h>
   2:./VCNL4010_1.h **** #define VCNL4010_ADDRESS 0x13
   3:./VCNL4010_1.h **** 
   4:./VCNL4010_1.h **** int i=0;
   5:./VCNL4010_1.h **** //Send Data
   6:./VCNL4010_1.h **** void writeVCNL_1(int address, int data){
  26              		.loc 1 6 0
  27              		.cfi_startproc
  28              	.LVL0:
  29 0000 00B5     		push	{lr}
  30              		.cfi_def_cfa_offset 4
  31              		.cfi_offset 14, -4
  32 0002 83B0     		sub	sp, sp, #12
  33              		.cfi_def_cfa_offset 16
   7:./VCNL4010_1.h ****     uint8 Write_buf[2]={0};
  34              		.loc 1 7 0
  35 0004 01AB     		add	r3, sp, #4
   8:./VCNL4010_1.h ****     Write_buf[0]=address;
  36              		.loc 1 8 0
  37 0006 1870     		strb	r0, [r3]
   9:./VCNL4010_1.h ****     Write_buf[1]=data;
  38              		.loc 1 9 0
  39 0008 5970     		strb	r1, [r3, #1]
  10:./VCNL4010_1.h ****     SENSOR_1_I2CMasterWriteBuf(VCNL4010_ADDRESS,(uint8 *)Write_buf,2,SENSOR_1_I2C_MODE_COMPLETE_XFE
  40              		.loc 1 10 0
  41 000a 1320     		mov	r0, #19
  42              	.LVL1:
  43 000c 191C     		mov	r1, r3
  44              	.LVL2:
  45 000e 0222     		mov	r2, #2
  46 0010 0023     		mov	r3, #0
  47 0012 FFF7FEFF 		bl	SENSOR_1_I2CMasterWriteBuf
ARM GAS  C:\Users\Andres\AppData\Local\Temp\ccSsqcxd.s 			page 2


  48              	.LVL3:
  49              	.L2:
  11:./VCNL4010_1.h ****     while((SENSOR_1_I2CMasterStatus()&SENSOR_1_I2C_MSTAT_WR_CMPLT)==0){}
  50              		.loc 1 11 0 discriminator 1
  51 0016 FFF7FEFF 		bl	SENSOR_1_I2CMasterStatus
  52              	.LVL4:
  53 001a 8307     		lsl	r3, r0, #30
  54 001c FBD5     		bpl	.L2
  12:./VCNL4010_1.h ****     return;
  13:./VCNL4010_1.h **** }
  55              		.loc 1 13 0
  56 001e 03B0     		add	sp, sp, #12
  57              		@ sp needed
  58 0020 00BD     		pop	{pc}
  59              		.cfi_endproc
  60              	.LFE36:
  61              		.size	writeVCNL_1, .-writeVCNL_1
  62 0022 C046     		.section	.text.readVCNL_1,"ax",%progbits
  63              		.align	2
  64              		.global	readVCNL_1
  65              		.code	16
  66              		.thumb_func
  67              		.type	readVCNL_1, %function
  68              	readVCNL_1:
  69              	.LFB37:
  14:./VCNL4010_1.h **** //Read Data
  15:./VCNL4010_1.h **** int readVCNL_1(int address){
  70              		.loc 1 15 0
  71              		.cfi_startproc
  72              	.LVL5:
  73 0000 00B5     		push	{lr}
  74              		.cfi_def_cfa_offset 4
  75              		.cfi_offset 14, -4
  76 0002 83B0     		sub	sp, sp, #12
  77              		.cfi_def_cfa_offset 16
  16:./VCNL4010_1.h ****     uint8 Write_buf[1]={0};
  78              		.loc 1 16 0
  79 0004 01A9     		add	r1, sp, #4
  17:./VCNL4010_1.h ****     Write_buf[0]=address;
  80              		.loc 1 17 0
  81 0006 0870     		strb	r0, [r1]
  18:./VCNL4010_1.h ****     uint8 read_Buf[1]={0};
  82              		.loc 1 18 0
  83 0008 0023     		mov	r3, #0
  84 000a 6A46     		mov	r2, sp
  85 000c 1370     		strb	r3, [r2]
  19:./VCNL4010_1.h ****     SENSOR_1_I2CMasterWriteBuf(VCNL4010_ADDRESS,(uint8 *)Write_buf,1,SENSOR_1_I2C_MODE_NO_STOP);
  86              		.loc 1 19 0
  87 000e 1320     		mov	r0, #19
  88              	.LVL6:
  89 0010 0122     		mov	r2, #1
  90 0012 0233     		add	r3, r3, #2
  91 0014 FFF7FEFF 		bl	SENSOR_1_I2CMasterWriteBuf
  92              	.LVL7:
  93              	.L4:
  20:./VCNL4010_1.h ****     while((SENSOR_1_I2CMasterStatus()&SENSOR_1_I2C_MSTAT_WR_CMPLT)==0){}
  94              		.loc 1 20 0 discriminator 1
ARM GAS  C:\Users\Andres\AppData\Local\Temp\ccSsqcxd.s 			page 3


  95 0018 FFF7FEFF 		bl	SENSOR_1_I2CMasterStatus
  96              	.LVL8:
  97 001c 8307     		lsl	r3, r0, #30
  98 001e FBD5     		bpl	.L4
  21:./VCNL4010_1.h ****     SENSOR_1_I2CMasterReadBuf(VCNL4010_ADDRESS,(uint8 *)read_Buf,1,SENSOR_1_I2C_MODE_REPEAT_START);
  99              		.loc 1 21 0
 100 0020 1320     		mov	r0, #19
 101 0022 6946     		mov	r1, sp
 102 0024 0122     		mov	r2, #1
 103 0026 0123     		mov	r3, #1
 104 0028 FFF7FEFF 		bl	SENSOR_1_I2CMasterReadBuf
 105              	.LVL9:
 106              	.L5:
  22:./VCNL4010_1.h ****     while((SENSOR_1_I2CMasterStatus()&SENSOR_1_I2C_MSTAT_RD_CMPLT)==0){}
 107              		.loc 1 22 0 discriminator 1
 108 002c FFF7FEFF 		bl	SENSOR_1_I2CMasterStatus
 109              	.LVL10:
 110 0030 C307     		lsl	r3, r0, #31
 111 0032 FBD5     		bpl	.L5
  23:./VCNL4010_1.h ****     return read_Buf[0];
 112              		.loc 1 23 0
 113 0034 6B46     		mov	r3, sp
 114 0036 1878     		ldrb	r0, [r3]
  24:./VCNL4010_1.h **** }
 115              		.loc 1 24 0
 116 0038 03B0     		add	sp, sp, #12
 117              		@ sp needed
 118 003a 00BD     		pop	{pc}
 119              		.cfi_endproc
 120              	.LFE37:
 121              		.size	readVCNL_1, .-readVCNL_1
 122              		.section	.text.initVCNL_1,"ax",%progbits
 123              		.align	2
 124              		.global	initVCNL_1
 125              		.code	16
 126              		.thumb_func
 127              		.type	initVCNL_1, %function
 128              	initVCNL_1:
 129              	.LFB38:
  25:./VCNL4010_1.h **** //Init Sensor
  26:./VCNL4010_1.h **** void initVCNL_1(){
 130              		.loc 1 26 0
 131              		.cfi_startproc
 132 0000 10B5     		push	{r4, lr}
 133              		.cfi_def_cfa_offset 8
 134              		.cfi_offset 4, -8
 135              		.cfi_offset 14, -4
  27:./VCNL4010_1.h ****   int temp = readVCNL_1(0x81);
 136              		.loc 1 27 0
 137 0002 8120     		mov	r0, #129
 138 0004 FFF7FEFF 		bl	readVCNL_1
 139              	.LVL11:
  28:./VCNL4010_1.h ****   if (temp != 0x21){  
 140              		.loc 1 28 0
 141 0008 2128     		cmp	r0, #33
 142 000a 0ED0     		beq	.L7
  29:./VCNL4010_1.h ****     //Led Sequence Fail
ARM GAS  C:\Users\Andres\AppData\Local\Temp\ccSsqcxd.s 			page 4


  30:./VCNL4010_1.h ****     LED_1_Write(1);
 143              		.loc 1 30 0
 144 000c 0120     		mov	r0, #1
 145              	.LVL12:
 146 000e FFF7FEFF 		bl	LED_1_Write
 147              	.LVL13:
  31:./VCNL4010_1.h ****     CyDelay(500);
 148              		.loc 1 31 0
 149 0012 FA24     		mov	r4, #250
 150 0014 6400     		lsl	r4, r4, #1
 151 0016 201C     		mov	r0, r4
 152 0018 FFF7FEFF 		bl	CyDelay
 153              	.LVL14:
  32:./VCNL4010_1.h ****     LED_1_Write(0);
 154              		.loc 1 32 0
 155 001c 0020     		mov	r0, #0
 156 001e FFF7FEFF 		bl	LED_1_Write
 157              	.LVL15:
  33:./VCNL4010_1.h ****     CyDelay(500);    
 158              		.loc 1 33 0
 159 0022 201C     		mov	r0, r4
 160 0024 FFF7FEFF 		bl	CyDelay
 161              	.LVL16:
 162 0028 1DE0     		b	.L8
 163              	.LVL17:
 164              	.L7:
  34:./VCNL4010_1.h ****   }
  35:./VCNL4010_1.h ****    else{
  36:./VCNL4010_1.h ****     //Led Sequence Sucess
  37:./VCNL4010_1.h ****     LED_1_Write(0);
 165              		.loc 1 37 0
 166 002a 0020     		mov	r0, #0
 167              	.LVL18:
 168 002c FFF7FEFF 		bl	LED_1_Write
 169              	.LVL19:
  38:./VCNL4010_1.h ****     for(i=1;i<5;i++){
 170              		.loc 1 38 0
 171 0030 0122     		mov	r2, #1
 172 0032 154B     		ldr	r3, .L11
 173 0034 1A60     		str	r2, [r3]
 174 0036 0FE0     		b	.L9
 175              	.L10:
  39:./VCNL4010_1.h ****         LED_1_Write(1);
 176              		.loc 1 39 0 discriminator 3
 177 0038 0120     		mov	r0, #1
 178 003a FFF7FEFF 		bl	LED_1_Write
 179              	.LVL20:
  40:./VCNL4010_1.h ****         CyDelay(200);
 180              		.loc 1 40 0 discriminator 3
 181 003e C820     		mov	r0, #200
 182 0040 FFF7FEFF 		bl	CyDelay
 183              	.LVL21:
  41:./VCNL4010_1.h ****         LED_1_Write(0);
 184              		.loc 1 41 0 discriminator 3
 185 0044 0020     		mov	r0, #0
 186 0046 FFF7FEFF 		bl	LED_1_Write
 187              	.LVL22:
ARM GAS  C:\Users\Andres\AppData\Local\Temp\ccSsqcxd.s 			page 5


  42:./VCNL4010_1.h ****         CyDelay(200); 
 188              		.loc 1 42 0 discriminator 3
 189 004a C820     		mov	r0, #200
 190 004c FFF7FEFF 		bl	CyDelay
 191              	.LVL23:
  38:./VCNL4010_1.h ****         LED_1_Write(1);
 192              		.loc 1 38 0 discriminator 3
 193 0050 0D4A     		ldr	r2, .L11
 194 0052 1368     		ldr	r3, [r2]
 195 0054 0133     		add	r3, r3, #1
 196 0056 1360     		str	r3, [r2]
 197              	.L9:
  38:./VCNL4010_1.h ****         LED_1_Write(1);
 198              		.loc 1 38 0 is_stmt 0 discriminator 1
 199 0058 0B4B     		ldr	r3, .L11
 200 005a 1B68     		ldr	r3, [r3]
 201 005c 042B     		cmp	r3, #4
 202 005e EBDD     		ble	.L10
  43:./VCNL4010_1.h ****         }
  44:./VCNL4010_1.h ****     LED_1_Write(0);
 203              		.loc 1 44 0 is_stmt 1
 204 0060 0020     		mov	r0, #0
 205 0062 FFF7FEFF 		bl	LED_1_Write
 206              	.LVL24:
 207              	.L8:
  45:./VCNL4010_1.h ****   } 
  46:./VCNL4010_1.h ****   //VCNL Init Params
  47:./VCNL4010_1.h ****   writeVCNL_1(0x84, 0x0F); // Configures ambient light measures - Single conversion mode, 128 avera
 208              		.loc 1 47 0
 209 0066 8420     		mov	r0, #132
 210 0068 0F21     		mov	r1, #15
 211 006a FFF7FEFF 		bl	writeVCNL_1
 212              	.LVL25:
  48:./VCNL4010_1.h ****   writeVCNL_1(0x83, 0x32);   // sets IR current in steps of 10mA 0-200mA --> 200mA
 213              		.loc 1 48 0
 214 006e 8320     		mov	r0, #131
 215 0070 3221     		mov	r1, #50
 216 0072 FFF7FEFF 		bl	writeVCNL_1
 217              	.LVL26:
  49:./VCNL4010_1.h ****   writeVCNL_1(0x89, 0);    // Proximity IR test signal freq, 0-3 - 781.25 kHz
 218              		.loc 1 49 0
 219 0076 8920     		mov	r0, #137
 220 0078 0021     		mov	r1, #0
 221 007a FFF7FEFF 		bl	writeVCNL_1
 222              	.LVL27:
  50:./VCNL4010_1.h ****   writeVCNL_1(0x8A, 0x81); // proximity modulator timing - 129, recommended by Vishay 
 223              		.loc 1 50 0
 224 007e 8A20     		mov	r0, #138
 225 0080 8121     		mov	r1, #129
 226 0082 FFF7FEFF 		bl	writeVCNL_1
 227              	.LVL28:
  51:./VCNL4010_1.h **** }
 228              		.loc 1 51 0
 229              		@ sp needed
 230 0086 10BD     		pop	{r4, pc}
 231              	.L12:
 232              		.align	2
ARM GAS  C:\Users\Andres\AppData\Local\Temp\ccSsqcxd.s 			page 6


 233              	.L11:
 234 0088 00000000 		.word	.LANCHOR0
 235              		.cfi_endproc
 236              	.LFE38:
 237              		.size	initVCNL_1, .-initVCNL_1
 238              		.section	.text.readProximity_1,"ax",%progbits
 239              		.align	2
 240              		.global	readProximity_1
 241              		.code	16
 242              		.thumb_func
 243              		.type	readProximity_1, %function
 244              	readProximity_1:
 245              	.LFB39:
  52:./VCNL4010_1.h **** //Read Distance Signal
  53:./VCNL4010_1.h **** unsigned int readProximity_1(){
 246              		.loc 1 53 0
 247              		.cfi_startproc
 248 0000 10B5     		push	{r4, lr}
 249              		.cfi_def_cfa_offset 8
 250              		.cfi_offset 4, -8
 251              		.cfi_offset 14, -4
  54:./VCNL4010_1.h ****   int temp = readVCNL_1(0x80);
 252              		.loc 1 54 0
 253 0002 8020     		mov	r0, #128
 254 0004 FFF7FEFF 		bl	readVCNL_1
 255              	.LVL29:
  55:./VCNL4010_1.h ****   writeVCNL_1(0x80, temp | 0x08);             // command the sensor to perform a proximity measure
 256              		.loc 1 55 0
 257 0008 0823     		mov	r3, #8
 258 000a 011C     		mov	r1, r0
 259 000c 1943     		orr	r1, r3
 260 000e 8020     		mov	r0, #128
 261              	.LVL30:
 262 0010 FFF7FEFF 		bl	writeVCNL_1
 263              	.LVL31:
 264              	.L14:
  56:./VCNL4010_1.h ****   while(!(readVCNL_1(0x80)&0x20));            // Wait for the proximity data ready bit to be set
 265              		.loc 1 56 0 discriminator 1
 266 0014 8020     		mov	r0, #128
 267 0016 FFF7FEFF 		bl	readVCNL_1
 268              	.LVL32:
 269 001a 8306     		lsl	r3, r0, #26
 270 001c FAD5     		bpl	.L14
  57:./VCNL4010_1.h ****   unsigned int data = readVCNL_1(0x87) << 8;
 271              		.loc 1 57 0
 272 001e 8720     		mov	r0, #135
 273 0020 FFF7FEFF 		bl	readVCNL_1
 274              	.LVL33:
 275 0024 0402     		lsl	r4, r0, #8
 276              	.LVL34:
  58:./VCNL4010_1.h ****   data |= readVCNL_1(0x88);
 277              		.loc 1 58 0
 278 0026 8820     		mov	r0, #136
 279 0028 FFF7FEFF 		bl	readVCNL_1
 280              	.LVL35:
 281 002c 2043     		orr	r0, r4
 282              	.LVL36:
ARM GAS  C:\Users\Andres\AppData\Local\Temp\ccSsqcxd.s 			page 7


  59:./VCNL4010_1.h ****   return data;
  60:./VCNL4010_1.h **** }
 283              		.loc 1 60 0
 284              		@ sp needed
 285 002e 10BD     		pop	{r4, pc}
 286              		.cfi_endproc
 287              	.LFE39:
 288              		.size	readProximity_1, .-readProximity_1
 289              		.section	.text.readAmbient_1,"ax",%progbits
 290              		.align	2
 291              		.global	readAmbient_1
 292              		.code	16
 293              		.thumb_func
 294              		.type	readAmbient_1, %function
 295              	readAmbient_1:
 296              	.LFB40:
  61:./VCNL4010_1.h **** //Read Ambient Signal
  62:./VCNL4010_1.h **** unsigned int readAmbient_1(){
 297              		.loc 1 62 0
 298              		.cfi_startproc
 299 0000 10B5     		push	{r4, lr}
 300              		.cfi_def_cfa_offset 8
 301              		.cfi_offset 4, -8
 302              		.cfi_offset 14, -4
  63:./VCNL4010_1.h ****   int temp = readVCNL_1(0x80);
 303              		.loc 1 63 0
 304 0002 8020     		mov	r0, #128
 305 0004 FFF7FEFF 		bl	readVCNL_1
 306              	.LVL37:
  64:./VCNL4010_1.h ****   writeVCNL_1(0x80, temp | 0x10);             // command the sensor to perform ambient measure
 307              		.loc 1 64 0
 308 0008 1023     		mov	r3, #16
 309 000a 011C     		mov	r1, r0
 310 000c 1943     		orr	r1, r3
 311 000e 8020     		mov	r0, #128
 312              	.LVL38:
 313 0010 FFF7FEFF 		bl	writeVCNL_1
 314              	.LVL39:
 315              	.L16:
  65:./VCNL4010_1.h ****   while(!(readVCNL_1(0x80)&0x40));            // wait for the proximity data ready bit to be set
 316              		.loc 1 65 0 discriminator 1
 317 0014 8020     		mov	r0, #128
 318 0016 FFF7FEFF 		bl	readVCNL_1
 319              	.LVL40:
 320 001a 4306     		lsl	r3, r0, #25
 321 001c FAD5     		bpl	.L16
  66:./VCNL4010_1.h ****   unsigned int data = readVCNL_1(0x85) << 8;  
 322              		.loc 1 66 0
 323 001e 8520     		mov	r0, #133
 324 0020 FFF7FEFF 		bl	readVCNL_1
 325              	.LVL41:
 326 0024 0402     		lsl	r4, r0, #8
 327              	.LVL42:
  67:./VCNL4010_1.h ****   data |= readVCNL_1(0x86);
 328              		.loc 1 67 0
 329 0026 8620     		mov	r0, #134
 330 0028 FFF7FEFF 		bl	readVCNL_1
ARM GAS  C:\Users\Andres\AppData\Local\Temp\ccSsqcxd.s 			page 8


 331              	.LVL43:
 332 002c 2043     		orr	r0, r4
 333              	.LVL44:
  68:./VCNL4010_1.h ****   return data;
  69:./VCNL4010_1.h **** }
 334              		.loc 1 69 0
 335              		@ sp needed
 336 002e 10BD     		pop	{r4, pc}
 337              		.cfi_endproc
 338              	.LFE40:
 339              		.size	readAmbient_1, .-readAmbient_1
 340              		.section	.text.writeVCNL_2,"ax",%progbits
 341              		.align	2
 342              		.global	writeVCNL_2
 343              		.code	16
 344              		.thumb_func
 345              		.type	writeVCNL_2, %function
 346              	writeVCNL_2:
 347              	.LFB41:
 348              		.file 2 "./VCNL4010_2.h"
   1:./VCNL4010_2.h **** #include <project.h>
   2:./VCNL4010_2.h **** #define VCNL4010_ADDRESS 0x13
   3:./VCNL4010_2.h **** 
   4:./VCNL4010_2.h **** int ii=0;
   5:./VCNL4010_2.h **** //Send Data
   6:./VCNL4010_2.h **** void writeVCNL_2(int address, int data){
 349              		.loc 2 6 0
 350              		.cfi_startproc
 351              	.LVL45:
 352 0000 00B5     		push	{lr}
 353              		.cfi_def_cfa_offset 4
 354              		.cfi_offset 14, -4
 355 0002 83B0     		sub	sp, sp, #12
 356              		.cfi_def_cfa_offset 16
   7:./VCNL4010_2.h ****     uint8 Write_buf[2]={0};
 357              		.loc 2 7 0
 358 0004 01AB     		add	r3, sp, #4
   8:./VCNL4010_2.h ****     Write_buf[0]=address;
 359              		.loc 2 8 0
 360 0006 1870     		strb	r0, [r3]
   9:./VCNL4010_2.h ****     Write_buf[1]=data;
 361              		.loc 2 9 0
 362 0008 5970     		strb	r1, [r3, #1]
  10:./VCNL4010_2.h ****     SENSOR_2_I2CMasterWriteBuf(VCNL4010_ADDRESS,(uint8 *)Write_buf,2,SENSOR_2_I2C_MODE_COMPLETE_XFE
 363              		.loc 2 10 0
 364 000a 1320     		mov	r0, #19
 365              	.LVL46:
 366 000c 191C     		mov	r1, r3
 367              	.LVL47:
 368 000e 0222     		mov	r2, #2
 369 0010 0023     		mov	r3, #0
 370 0012 FFF7FEFF 		bl	SENSOR_2_I2CMasterWriteBuf
 371              	.LVL48:
 372              	.L18:
  11:./VCNL4010_2.h ****     while((SENSOR_2_I2CMasterStatus()&SENSOR_2_I2C_MSTAT_WR_CMPLT)==0){}
 373              		.loc 2 11 0 discriminator 1
 374 0016 FFF7FEFF 		bl	SENSOR_2_I2CMasterStatus
ARM GAS  C:\Users\Andres\AppData\Local\Temp\ccSsqcxd.s 			page 9


 375              	.LVL49:
 376 001a 8307     		lsl	r3, r0, #30
 377 001c FBD5     		bpl	.L18
  12:./VCNL4010_2.h ****     return;
  13:./VCNL4010_2.h **** }
 378              		.loc 2 13 0
 379 001e 03B0     		add	sp, sp, #12
 380              		@ sp needed
 381 0020 00BD     		pop	{pc}
 382              		.cfi_endproc
 383              	.LFE41:
 384              		.size	writeVCNL_2, .-writeVCNL_2
 385 0022 C046     		.section	.text.readVCNL_2,"ax",%progbits
 386              		.align	2
 387              		.global	readVCNL_2
 388              		.code	16
 389              		.thumb_func
 390              		.type	readVCNL_2, %function
 391              	readVCNL_2:
 392              	.LFB42:
  14:./VCNL4010_2.h **** //Read Data
  15:./VCNL4010_2.h **** int readVCNL_2(int address){
 393              		.loc 2 15 0
 394              		.cfi_startproc
 395              	.LVL50:
 396 0000 00B5     		push	{lr}
 397              		.cfi_def_cfa_offset 4
 398              		.cfi_offset 14, -4
 399 0002 83B0     		sub	sp, sp, #12
 400              		.cfi_def_cfa_offset 16
  16:./VCNL4010_2.h ****     uint8 Write_buf[1]={0};
 401              		.loc 2 16 0
 402 0004 01A9     		add	r1, sp, #4
  17:./VCNL4010_2.h ****     Write_buf[0]=address;
 403              		.loc 2 17 0
 404 0006 0870     		strb	r0, [r1]
  18:./VCNL4010_2.h ****     uint8 read_Buf[1]={0};
 405              		.loc 2 18 0
 406 0008 0023     		mov	r3, #0
 407 000a 6A46     		mov	r2, sp
 408 000c 1370     		strb	r3, [r2]
  19:./VCNL4010_2.h ****     SENSOR_2_I2CMasterWriteBuf(VCNL4010_ADDRESS,(uint8 *)Write_buf,1,SENSOR_2_I2C_MODE_NO_STOP);
 409              		.loc 2 19 0
 410 000e 1320     		mov	r0, #19
 411              	.LVL51:
 412 0010 0122     		mov	r2, #1
 413 0012 0233     		add	r3, r3, #2
 414 0014 FFF7FEFF 		bl	SENSOR_2_I2CMasterWriteBuf
 415              	.LVL52:
 416              	.L20:
  20:./VCNL4010_2.h ****     while((SENSOR_2_I2CMasterStatus()&SENSOR_2_I2C_MSTAT_WR_CMPLT)==0){}
 417              		.loc 2 20 0 discriminator 1
 418 0018 FFF7FEFF 		bl	SENSOR_2_I2CMasterStatus
 419              	.LVL53:
 420 001c 8307     		lsl	r3, r0, #30
 421 001e FBD5     		bpl	.L20
  21:./VCNL4010_2.h ****     SENSOR_2_I2CMasterReadBuf(VCNL4010_ADDRESS,(uint8 *)read_Buf,1,SENSOR_2_I2C_MODE_REPEAT_START);
ARM GAS  C:\Users\Andres\AppData\Local\Temp\ccSsqcxd.s 			page 10


 422              		.loc 2 21 0
 423 0020 1320     		mov	r0, #19
 424 0022 6946     		mov	r1, sp
 425 0024 0122     		mov	r2, #1
 426 0026 0123     		mov	r3, #1
 427 0028 FFF7FEFF 		bl	SENSOR_2_I2CMasterReadBuf
 428              	.LVL54:
 429              	.L21:
  22:./VCNL4010_2.h ****     while((SENSOR_2_I2CMasterStatus()&SENSOR_2_I2C_MSTAT_RD_CMPLT)==0){}
 430              		.loc 2 22 0 discriminator 1
 431 002c FFF7FEFF 		bl	SENSOR_2_I2CMasterStatus
 432              	.LVL55:
 433 0030 C307     		lsl	r3, r0, #31
 434 0032 FBD5     		bpl	.L21
  23:./VCNL4010_2.h ****     return read_Buf[0];
 435              		.loc 2 23 0
 436 0034 6B46     		mov	r3, sp
 437 0036 1878     		ldrb	r0, [r3]
  24:./VCNL4010_2.h **** }
 438              		.loc 2 24 0
 439 0038 03B0     		add	sp, sp, #12
 440              		@ sp needed
 441 003a 00BD     		pop	{pc}
 442              		.cfi_endproc
 443              	.LFE42:
 444              		.size	readVCNL_2, .-readVCNL_2
 445              		.section	.text.initVCNL_2,"ax",%progbits
 446              		.align	2
 447              		.global	initVCNL_2
 448              		.code	16
 449              		.thumb_func
 450              		.type	initVCNL_2, %function
 451              	initVCNL_2:
 452              	.LFB43:
  25:./VCNL4010_2.h **** //Init Sensor
  26:./VCNL4010_2.h **** void initVCNL_2(){
 453              		.loc 2 26 0
 454              		.cfi_startproc
 455 0000 10B5     		push	{r4, lr}
 456              		.cfi_def_cfa_offset 8
 457              		.cfi_offset 4, -8
 458              		.cfi_offset 14, -4
  27:./VCNL4010_2.h ****   int temp = readVCNL_2(0x81);
 459              		.loc 2 27 0
 460 0002 8120     		mov	r0, #129
 461 0004 FFF7FEFF 		bl	readVCNL_2
 462              	.LVL56:
  28:./VCNL4010_2.h ****   if (temp != 0x21){  
 463              		.loc 2 28 0
 464 0008 2128     		cmp	r0, #33
 465 000a 0ED0     		beq	.L23
  29:./VCNL4010_2.h ****     //Led Sequence Fail
  30:./VCNL4010_2.h ****     LED_2_Write(1);
 466              		.loc 2 30 0
 467 000c 0120     		mov	r0, #1
 468              	.LVL57:
 469 000e FFF7FEFF 		bl	LED_2_Write
ARM GAS  C:\Users\Andres\AppData\Local\Temp\ccSsqcxd.s 			page 11


 470              	.LVL58:
  31:./VCNL4010_2.h ****     CyDelay(500);
 471              		.loc 2 31 0
 472 0012 FA24     		mov	r4, #250
 473 0014 6400     		lsl	r4, r4, #1
 474 0016 201C     		mov	r0, r4
 475 0018 FFF7FEFF 		bl	CyDelay
 476              	.LVL59:
  32:./VCNL4010_2.h ****     LED_2_Write(0);
 477              		.loc 2 32 0
 478 001c 0020     		mov	r0, #0
 479 001e FFF7FEFF 		bl	LED_2_Write
 480              	.LVL60:
  33:./VCNL4010_2.h ****     CyDelay(500);    
 481              		.loc 2 33 0
 482 0022 201C     		mov	r0, r4
 483 0024 FFF7FEFF 		bl	CyDelay
 484              	.LVL61:
 485 0028 1DE0     		b	.L24
 486              	.LVL62:
 487              	.L23:
  34:./VCNL4010_2.h ****   }
  35:./VCNL4010_2.h ****    else{
  36:./VCNL4010_2.h ****     //Led Sequence Sucess
  37:./VCNL4010_2.h ****     LED_2_Write(0);
 488              		.loc 2 37 0
 489 002a 0020     		mov	r0, #0
 490              	.LVL63:
 491 002c FFF7FEFF 		bl	LED_2_Write
 492              	.LVL64:
  38:./VCNL4010_2.h ****     for(ii=1;ii<5;ii++){
 493              		.loc 2 38 0
 494 0030 0122     		mov	r2, #1
 495 0032 154B     		ldr	r3, .L27
 496 0034 5A60     		str	r2, [r3, #4]
 497 0036 0FE0     		b	.L25
 498              	.L26:
  39:./VCNL4010_2.h ****         LED_2_Write(1);
 499              		.loc 2 39 0 discriminator 3
 500 0038 0120     		mov	r0, #1
 501 003a FFF7FEFF 		bl	LED_2_Write
 502              	.LVL65:
  40:./VCNL4010_2.h ****         CyDelay(200);
 503              		.loc 2 40 0 discriminator 3
 504 003e C820     		mov	r0, #200
 505 0040 FFF7FEFF 		bl	CyDelay
 506              	.LVL66:
  41:./VCNL4010_2.h ****         LED_2_Write(0);
 507              		.loc 2 41 0 discriminator 3
 508 0044 0020     		mov	r0, #0
 509 0046 FFF7FEFF 		bl	LED_2_Write
 510              	.LVL67:
  42:./VCNL4010_2.h ****         CyDelay(200); 
 511              		.loc 2 42 0 discriminator 3
 512 004a C820     		mov	r0, #200
 513 004c FFF7FEFF 		bl	CyDelay
 514              	.LVL68:
ARM GAS  C:\Users\Andres\AppData\Local\Temp\ccSsqcxd.s 			page 12


  38:./VCNL4010_2.h ****         LED_2_Write(1);
 515              		.loc 2 38 0 discriminator 3
 516 0050 0D4A     		ldr	r2, .L27
 517 0052 5368     		ldr	r3, [r2, #4]
 518 0054 0133     		add	r3, r3, #1
 519 0056 5360     		str	r3, [r2, #4]
 520              	.L25:
  38:./VCNL4010_2.h ****         LED_2_Write(1);
 521              		.loc 2 38 0 is_stmt 0 discriminator 1
 522 0058 0B4B     		ldr	r3, .L27
 523 005a 5B68     		ldr	r3, [r3, #4]
 524 005c 042B     		cmp	r3, #4
 525 005e EBDD     		ble	.L26
  43:./VCNL4010_2.h ****         }
  44:./VCNL4010_2.h ****     LED_2_Write(0);
 526              		.loc 2 44 0 is_stmt 1
 527 0060 0020     		mov	r0, #0
 528 0062 FFF7FEFF 		bl	LED_2_Write
 529              	.LVL69:
 530              	.L24:
  45:./VCNL4010_2.h ****   } 
  46:./VCNL4010_2.h ****   //VCNL Init Params
  47:./VCNL4010_2.h ****   writeVCNL_2(0x84, 0x0F); // Configures ambient light measures - Single conversion mode, 128 avera
 531              		.loc 2 47 0
 532 0066 8420     		mov	r0, #132
 533 0068 0F21     		mov	r1, #15
 534 006a FFF7FEFF 		bl	writeVCNL_2
 535              	.LVL70:
  48:./VCNL4010_2.h ****   writeVCNL_2(0x83, 0x32);   // sets IR current in steps of 10mA 0-200mA --> 200mA
 536              		.loc 2 48 0
 537 006e 8320     		mov	r0, #131
 538 0070 3221     		mov	r1, #50
 539 0072 FFF7FEFF 		bl	writeVCNL_2
 540              	.LVL71:
  49:./VCNL4010_2.h ****   writeVCNL_2(0x89, 0);    // Proximity IR test signal freq, 0-3 - 781.25 kHz
 541              		.loc 2 49 0
 542 0076 8920     		mov	r0, #137
 543 0078 0021     		mov	r1, #0
 544 007a FFF7FEFF 		bl	writeVCNL_2
 545              	.LVL72:
  50:./VCNL4010_2.h ****   writeVCNL_2(0x8A, 0x81); // proximity modulator timing - 129, recommended by Vishay 
 546              		.loc 2 50 0
 547 007e 8A20     		mov	r0, #138
 548 0080 8121     		mov	r1, #129
 549 0082 FFF7FEFF 		bl	writeVCNL_2
 550              	.LVL73:
  51:./VCNL4010_2.h **** }
 551              		.loc 2 51 0
 552              		@ sp needed
 553 0086 10BD     		pop	{r4, pc}
 554              	.L28:
 555              		.align	2
 556              	.L27:
 557 0088 00000000 		.word	.LANCHOR0
 558              		.cfi_endproc
 559              	.LFE43:
 560              		.size	initVCNL_2, .-initVCNL_2
ARM GAS  C:\Users\Andres\AppData\Local\Temp\ccSsqcxd.s 			page 13


 561              		.section	.text.readProximity_2,"ax",%progbits
 562              		.align	2
 563              		.global	readProximity_2
 564              		.code	16
 565              		.thumb_func
 566              		.type	readProximity_2, %function
 567              	readProximity_2:
 568              	.LFB44:
  52:./VCNL4010_2.h **** //Read Distance Signal
  53:./VCNL4010_2.h **** unsigned int readProximity_2(){
 569              		.loc 2 53 0
 570              		.cfi_startproc
 571 0000 10B5     		push	{r4, lr}
 572              		.cfi_def_cfa_offset 8
 573              		.cfi_offset 4, -8
 574              		.cfi_offset 14, -4
  54:./VCNL4010_2.h ****   int temp = readVCNL_2(0x80);
 575              		.loc 2 54 0
 576 0002 8020     		mov	r0, #128
 577 0004 FFF7FEFF 		bl	readVCNL_2
 578              	.LVL74:
  55:./VCNL4010_2.h ****   writeVCNL_2(0x80, temp | 0x08);             // command the sensor to perform a proximity measure
 579              		.loc 2 55 0
 580 0008 0823     		mov	r3, #8
 581 000a 011C     		mov	r1, r0
 582 000c 1943     		orr	r1, r3
 583 000e 8020     		mov	r0, #128
 584              	.LVL75:
 585 0010 FFF7FEFF 		bl	writeVCNL_2
 586              	.LVL76:
 587              	.L30:
  56:./VCNL4010_2.h ****   while(!(readVCNL_2(0x80)&0x20));            // Wait for the proximity data ready bit to be set
 588              		.loc 2 56 0 discriminator 1
 589 0014 8020     		mov	r0, #128
 590 0016 FFF7FEFF 		bl	readVCNL_2
 591              	.LVL77:
 592 001a 8306     		lsl	r3, r0, #26
 593 001c FAD5     		bpl	.L30
  57:./VCNL4010_2.h ****   unsigned int data = readVCNL_2(0x87) << 8;
 594              		.loc 2 57 0
 595 001e 8720     		mov	r0, #135
 596 0020 FFF7FEFF 		bl	readVCNL_2
 597              	.LVL78:
 598 0024 0402     		lsl	r4, r0, #8
 599              	.LVL79:
  58:./VCNL4010_2.h ****   data |= readVCNL_2(0x88);
 600              		.loc 2 58 0
 601 0026 8820     		mov	r0, #136
 602 0028 FFF7FEFF 		bl	readVCNL_2
 603              	.LVL80:
 604 002c 2043     		orr	r0, r4
 605              	.LVL81:
  59:./VCNL4010_2.h ****   return data;
  60:./VCNL4010_2.h **** }
 606              		.loc 2 60 0
 607              		@ sp needed
 608 002e 10BD     		pop	{r4, pc}
ARM GAS  C:\Users\Andres\AppData\Local\Temp\ccSsqcxd.s 			page 14


 609              		.cfi_endproc
 610              	.LFE44:
 611              		.size	readProximity_2, .-readProximity_2
 612              		.section	.text.readAmbient_2,"ax",%progbits
 613              		.align	2
 614              		.global	readAmbient_2
 615              		.code	16
 616              		.thumb_func
 617              		.type	readAmbient_2, %function
 618              	readAmbient_2:
 619              	.LFB45:
  61:./VCNL4010_2.h **** //Read Ambient Signal
  62:./VCNL4010_2.h ****  int readAmbient_2(){
 620              		.loc 2 62 0
 621              		.cfi_startproc
 622 0000 10B5     		push	{r4, lr}
 623              		.cfi_def_cfa_offset 8
 624              		.cfi_offset 4, -8
 625              		.cfi_offset 14, -4
  63:./VCNL4010_2.h ****   int temp = readVCNL_2(0x80);
 626              		.loc 2 63 0
 627 0002 8020     		mov	r0, #128
 628 0004 FFF7FEFF 		bl	readVCNL_2
 629              	.LVL82:
  64:./VCNL4010_2.h ****   writeVCNL_2(0x80, temp | 0x10);             // command the sensor to perform ambient measure
 630              		.loc 2 64 0
 631 0008 1023     		mov	r3, #16
 632 000a 011C     		mov	r1, r0
 633 000c 1943     		orr	r1, r3
 634 000e 8020     		mov	r0, #128
 635              	.LVL83:
 636 0010 FFF7FEFF 		bl	writeVCNL_2
 637              	.LVL84:
 638              	.L32:
  65:./VCNL4010_2.h ****   while(!(readVCNL_2(0x80)&0x40));            // wait for the proximity data ready bit to be set
 639              		.loc 2 65 0 discriminator 1
 640 0014 8020     		mov	r0, #128
 641 0016 FFF7FEFF 		bl	readVCNL_2
 642              	.LVL85:
 643 001a 4306     		lsl	r3, r0, #25
 644 001c FAD5     		bpl	.L32
  66:./VCNL4010_2.h ****   unsigned int data = readVCNL_2(0x85) << 8;  
 645              		.loc 2 66 0
 646 001e 8520     		mov	r0, #133
 647 0020 FFF7FEFF 		bl	readVCNL_2
 648              	.LVL86:
 649 0024 0402     		lsl	r4, r0, #8
 650              	.LVL87:
  67:./VCNL4010_2.h ****   data |= readVCNL_2(0x86);
 651              		.loc 2 67 0
 652 0026 8620     		mov	r0, #134
 653 0028 FFF7FEFF 		bl	readVCNL_2
 654              	.LVL88:
 655 002c 2043     		orr	r0, r4
 656              	.LVL89:
  68:./VCNL4010_2.h ****   return data;
  69:./VCNL4010_2.h **** }
ARM GAS  C:\Users\Andres\AppData\Local\Temp\ccSsqcxd.s 			page 15


 657              		.loc 2 69 0
 658              		@ sp needed
 659 002e 10BD     		pop	{r4, pc}
 660              		.cfi_endproc
 661              	.LFE45:
 662              		.size	readAmbient_2, .-readAmbient_2
 663              		.section	.text.writeVCNL_3,"ax",%progbits
 664              		.align	2
 665              		.global	writeVCNL_3
 666              		.code	16
 667              		.thumb_func
 668              		.type	writeVCNL_3, %function
 669              	writeVCNL_3:
 670              	.LFB46:
 671              		.file 3 "./VCNL4010_3.h"
   1:./VCNL4010_3.h **** #include <project.h>
   2:./VCNL4010_3.h **** #define VCNL4010_ADDRESS 0x13
   3:./VCNL4010_3.h **** 
   4:./VCNL4010_3.h **** int iii=0;
   5:./VCNL4010_3.h **** //Send Data
   6:./VCNL4010_3.h **** void writeVCNL_3(int address, int data){
 672              		.loc 3 6 0
 673              		.cfi_startproc
 674              	.LVL90:
 675 0000 00B5     		push	{lr}
 676              		.cfi_def_cfa_offset 4
 677              		.cfi_offset 14, -4
 678 0002 83B0     		sub	sp, sp, #12
 679              		.cfi_def_cfa_offset 16
   7:./VCNL4010_3.h ****     uint8 Write_buf[2]={0};
 680              		.loc 3 7 0
 681 0004 01AB     		add	r3, sp, #4
   8:./VCNL4010_3.h ****     Write_buf[0]=address;
 682              		.loc 3 8 0
 683 0006 1870     		strb	r0, [r3]
   9:./VCNL4010_3.h ****     Write_buf[1]=data;
 684              		.loc 3 9 0
 685 0008 5970     		strb	r1, [r3, #1]
  10:./VCNL4010_3.h ****     SENSOR_3_I2CMasterWriteBuf(VCNL4010_ADDRESS,(uint8 *)Write_buf,2,SENSOR_3_I2C_MODE_COMPLETE_XFE
 686              		.loc 3 10 0
 687 000a 1320     		mov	r0, #19
 688              	.LVL91:
 689 000c 191C     		mov	r1, r3
 690              	.LVL92:
 691 000e 0222     		mov	r2, #2
 692 0010 0023     		mov	r3, #0
 693 0012 FFF7FEFF 		bl	SENSOR_3_I2CMasterWriteBuf
 694              	.LVL93:
 695              	.L34:
  11:./VCNL4010_3.h ****     while((SENSOR_3_I2CMasterStatus()&SENSOR_3_I2C_MSTAT_WR_CMPLT)==0){}
 696              		.loc 3 11 0 discriminator 1
 697 0016 FFF7FEFF 		bl	SENSOR_3_I2CMasterStatus
 698              	.LVL94:
 699 001a 8307     		lsl	r3, r0, #30
 700 001c FBD5     		bpl	.L34
  12:./VCNL4010_3.h ****     return;
  13:./VCNL4010_3.h **** }
ARM GAS  C:\Users\Andres\AppData\Local\Temp\ccSsqcxd.s 			page 16


 701              		.loc 3 13 0
 702 001e 03B0     		add	sp, sp, #12
 703              		@ sp needed
 704 0020 00BD     		pop	{pc}
 705              		.cfi_endproc
 706              	.LFE46:
 707              		.size	writeVCNL_3, .-writeVCNL_3
 708 0022 C046     		.section	.text.readVCNL_3,"ax",%progbits
 709              		.align	2
 710              		.global	readVCNL_3
 711              		.code	16
 712              		.thumb_func
 713              		.type	readVCNL_3, %function
 714              	readVCNL_3:
 715              	.LFB47:
  14:./VCNL4010_3.h **** //Read Data
  15:./VCNL4010_3.h **** int readVCNL_3(int address){
 716              		.loc 3 15 0
 717              		.cfi_startproc
 718              	.LVL95:
 719 0000 00B5     		push	{lr}
 720              		.cfi_def_cfa_offset 4
 721              		.cfi_offset 14, -4
 722 0002 83B0     		sub	sp, sp, #12
 723              		.cfi_def_cfa_offset 16
  16:./VCNL4010_3.h ****     uint8 Write_buf[1]={0};
 724              		.loc 3 16 0
 725 0004 01A9     		add	r1, sp, #4
  17:./VCNL4010_3.h ****     Write_buf[0]=address;
 726              		.loc 3 17 0
 727 0006 0870     		strb	r0, [r1]
  18:./VCNL4010_3.h ****     uint8 read_Buf[1]={0};
 728              		.loc 3 18 0
 729 0008 0023     		mov	r3, #0
 730 000a 6A46     		mov	r2, sp
 731 000c 1370     		strb	r3, [r2]
  19:./VCNL4010_3.h ****     SENSOR_3_I2CMasterWriteBuf(VCNL4010_ADDRESS,(uint8 *)Write_buf,1,SENSOR_3_I2C_MODE_NO_STOP);
 732              		.loc 3 19 0
 733 000e 1320     		mov	r0, #19
 734              	.LVL96:
 735 0010 0122     		mov	r2, #1
 736 0012 0233     		add	r3, r3, #2
 737 0014 FFF7FEFF 		bl	SENSOR_3_I2CMasterWriteBuf
 738              	.LVL97:
 739              	.L36:
  20:./VCNL4010_3.h ****     while((SENSOR_3_I2CMasterStatus()&SENSOR_3_I2C_MSTAT_WR_CMPLT)==0){}
 740              		.loc 3 20 0 discriminator 1
 741 0018 FFF7FEFF 		bl	SENSOR_3_I2CMasterStatus
 742              	.LVL98:
 743 001c 8307     		lsl	r3, r0, #30
 744 001e FBD5     		bpl	.L36
  21:./VCNL4010_3.h ****     SENSOR_3_I2CMasterReadBuf(VCNL4010_ADDRESS,(uint8 *)read_Buf,1,SENSOR_3_I2C_MODE_REPEAT_START);
 745              		.loc 3 21 0
 746 0020 1320     		mov	r0, #19
 747 0022 6946     		mov	r1, sp
 748 0024 0122     		mov	r2, #1
 749 0026 0123     		mov	r3, #1
ARM GAS  C:\Users\Andres\AppData\Local\Temp\ccSsqcxd.s 			page 17


 750 0028 FFF7FEFF 		bl	SENSOR_3_I2CMasterReadBuf
 751              	.LVL99:
 752              	.L37:
  22:./VCNL4010_3.h ****     while((SENSOR_3_I2CMasterStatus()&SENSOR_3_I2C_MSTAT_RD_CMPLT)==0){}
 753              		.loc 3 22 0 discriminator 1
 754 002c FFF7FEFF 		bl	SENSOR_3_I2CMasterStatus
 755              	.LVL100:
 756 0030 C307     		lsl	r3, r0, #31
 757 0032 FBD5     		bpl	.L37
  23:./VCNL4010_3.h ****     return read_Buf[0];
 758              		.loc 3 23 0
 759 0034 6B46     		mov	r3, sp
 760 0036 1878     		ldrb	r0, [r3]
  24:./VCNL4010_3.h **** }
 761              		.loc 3 24 0
 762 0038 03B0     		add	sp, sp, #12
 763              		@ sp needed
 764 003a 00BD     		pop	{pc}
 765              		.cfi_endproc
 766              	.LFE47:
 767              		.size	readVCNL_3, .-readVCNL_3
 768              		.section	.text.initVCNL_3,"ax",%progbits
 769              		.align	2
 770              		.global	initVCNL_3
 771              		.code	16
 772              		.thumb_func
 773              		.type	initVCNL_3, %function
 774              	initVCNL_3:
 775              	.LFB48:
  25:./VCNL4010_3.h **** //Init Sensor
  26:./VCNL4010_3.h **** void initVCNL_3(){
 776              		.loc 3 26 0
 777              		.cfi_startproc
 778 0000 10B5     		push	{r4, lr}
 779              		.cfi_def_cfa_offset 8
 780              		.cfi_offset 4, -8
 781              		.cfi_offset 14, -4
  27:./VCNL4010_3.h ****   int temp = readVCNL_3(0x81);
 782              		.loc 3 27 0
 783 0002 8120     		mov	r0, #129
 784 0004 FFF7FEFF 		bl	readVCNL_3
 785              	.LVL101:
  28:./VCNL4010_3.h ****   if (temp != 0x21){  
 786              		.loc 3 28 0
 787 0008 2128     		cmp	r0, #33
 788 000a 0ED0     		beq	.L39
  29:./VCNL4010_3.h ****     //Led Sequence Fail
  30:./VCNL4010_3.h ****     LED_3_Write(1);
 789              		.loc 3 30 0
 790 000c 0120     		mov	r0, #1
 791              	.LVL102:
 792 000e FFF7FEFF 		bl	LED_3_Write
 793              	.LVL103:
  31:./VCNL4010_3.h ****     CyDelay(500);
 794              		.loc 3 31 0
 795 0012 FA24     		mov	r4, #250
 796 0014 6400     		lsl	r4, r4, #1
ARM GAS  C:\Users\Andres\AppData\Local\Temp\ccSsqcxd.s 			page 18


 797 0016 201C     		mov	r0, r4
 798 0018 FFF7FEFF 		bl	CyDelay
 799              	.LVL104:
  32:./VCNL4010_3.h ****     LED_3_Write(0);
 800              		.loc 3 32 0
 801 001c 0020     		mov	r0, #0
 802 001e FFF7FEFF 		bl	LED_3_Write
 803              	.LVL105:
  33:./VCNL4010_3.h ****     CyDelay(500);    
 804              		.loc 3 33 0
 805 0022 201C     		mov	r0, r4
 806 0024 FFF7FEFF 		bl	CyDelay
 807              	.LVL106:
 808 0028 1DE0     		b	.L40
 809              	.LVL107:
 810              	.L39:
  34:./VCNL4010_3.h ****   }
  35:./VCNL4010_3.h ****    else{
  36:./VCNL4010_3.h ****     //Led Sequence Sucess
  37:./VCNL4010_3.h ****     LED_3_Write(0);
 811              		.loc 3 37 0
 812 002a 0020     		mov	r0, #0
 813              	.LVL108:
 814 002c FFF7FEFF 		bl	LED_3_Write
 815              	.LVL109:
  38:./VCNL4010_3.h ****     for(iii=1;iii<5;iii++){
 816              		.loc 3 38 0
 817 0030 0122     		mov	r2, #1
 818 0032 154B     		ldr	r3, .L43
 819 0034 9A60     		str	r2, [r3, #8]
 820 0036 0FE0     		b	.L41
 821              	.L42:
  39:./VCNL4010_3.h ****         LED_3_Write(1);
 822              		.loc 3 39 0 discriminator 3
 823 0038 0120     		mov	r0, #1
 824 003a FFF7FEFF 		bl	LED_3_Write
 825              	.LVL110:
  40:./VCNL4010_3.h ****         CyDelay(200);
 826              		.loc 3 40 0 discriminator 3
 827 003e C820     		mov	r0, #200
 828 0040 FFF7FEFF 		bl	CyDelay
 829              	.LVL111:
  41:./VCNL4010_3.h ****         LED_3_Write(0);
 830              		.loc 3 41 0 discriminator 3
 831 0044 0020     		mov	r0, #0
 832 0046 FFF7FEFF 		bl	LED_3_Write
 833              	.LVL112:
  42:./VCNL4010_3.h ****         CyDelay(200); 
 834              		.loc 3 42 0 discriminator 3
 835 004a C820     		mov	r0, #200
 836 004c FFF7FEFF 		bl	CyDelay
 837              	.LVL113:
  38:./VCNL4010_3.h ****         LED_3_Write(1);
 838              		.loc 3 38 0 discriminator 3
 839 0050 0D4A     		ldr	r2, .L43
 840 0052 9368     		ldr	r3, [r2, #8]
 841 0054 0133     		add	r3, r3, #1
ARM GAS  C:\Users\Andres\AppData\Local\Temp\ccSsqcxd.s 			page 19


 842 0056 9360     		str	r3, [r2, #8]
 843              	.L41:
  38:./VCNL4010_3.h ****         LED_3_Write(1);
 844              		.loc 3 38 0 is_stmt 0 discriminator 1
 845 0058 0B4B     		ldr	r3, .L43
 846 005a 9B68     		ldr	r3, [r3, #8]
 847 005c 042B     		cmp	r3, #4
 848 005e EBDD     		ble	.L42
  43:./VCNL4010_3.h ****         }
  44:./VCNL4010_3.h ****     LED_2_Write(0);
 849              		.loc 3 44 0 is_stmt 1
 850 0060 0020     		mov	r0, #0
 851 0062 FFF7FEFF 		bl	LED_2_Write
 852              	.LVL114:
 853              	.L40:
  45:./VCNL4010_3.h ****   } 
  46:./VCNL4010_3.h ****   //VCNL Init Params
  47:./VCNL4010_3.h ****   writeVCNL_3(0x84, 0x0F); // Configures ambient light measures - Single conversion mode, 128 avera
 854              		.loc 3 47 0
 855 0066 8420     		mov	r0, #132
 856 0068 0F21     		mov	r1, #15
 857 006a FFF7FEFF 		bl	writeVCNL_3
 858              	.LVL115:
  48:./VCNL4010_3.h ****   writeVCNL_3(0x83, 0x32);   // sets IR current in steps of 10mA 0-200mA --> 200mA
 859              		.loc 3 48 0
 860 006e 8320     		mov	r0, #131
 861 0070 3221     		mov	r1, #50
 862 0072 FFF7FEFF 		bl	writeVCNL_3
 863              	.LVL116:
  49:./VCNL4010_3.h ****   writeVCNL_3(0x89, 0);    // Proximity IR test signal freq, 0-3 - 781.25 kHz
 864              		.loc 3 49 0
 865 0076 8920     		mov	r0, #137
 866 0078 0021     		mov	r1, #0
 867 007a FFF7FEFF 		bl	writeVCNL_3
 868              	.LVL117:
  50:./VCNL4010_3.h ****   writeVCNL_3(0x8A, 0x81); // proximity modulator timing - 129, recommended by Vishay 
 869              		.loc 3 50 0
 870 007e 8A20     		mov	r0, #138
 871 0080 8121     		mov	r1, #129
 872 0082 FFF7FEFF 		bl	writeVCNL_3
 873              	.LVL118:
  51:./VCNL4010_3.h **** }
 874              		.loc 3 51 0
 875              		@ sp needed
 876 0086 10BD     		pop	{r4, pc}
 877              	.L44:
 878              		.align	2
 879              	.L43:
 880 0088 00000000 		.word	.LANCHOR0
 881              		.cfi_endproc
 882              	.LFE48:
 883              		.size	initVCNL_3, .-initVCNL_3
 884              		.section	.text.readProximity_3,"ax",%progbits
 885              		.align	2
 886              		.global	readProximity_3
 887              		.code	16
 888              		.thumb_func
ARM GAS  C:\Users\Andres\AppData\Local\Temp\ccSsqcxd.s 			page 20


 889              		.type	readProximity_3, %function
 890              	readProximity_3:
 891              	.LFB49:
  52:./VCNL4010_3.h **** //Read Distance Signal
  53:./VCNL4010_3.h **** unsigned int readProximity_3(){
 892              		.loc 3 53 0
 893              		.cfi_startproc
 894 0000 10B5     		push	{r4, lr}
 895              		.cfi_def_cfa_offset 8
 896              		.cfi_offset 4, -8
 897              		.cfi_offset 14, -4
  54:./VCNL4010_3.h ****   int temp = readVCNL_3(0x80);
 898              		.loc 3 54 0
 899 0002 8020     		mov	r0, #128
 900 0004 FFF7FEFF 		bl	readVCNL_3
 901              	.LVL119:
  55:./VCNL4010_3.h ****   writeVCNL_3(0x80, temp | 0x08);             // command the sensor to perform a proximity measure
 902              		.loc 3 55 0
 903 0008 0823     		mov	r3, #8
 904 000a 011C     		mov	r1, r0
 905 000c 1943     		orr	r1, r3
 906 000e 8020     		mov	r0, #128
 907              	.LVL120:
 908 0010 FFF7FEFF 		bl	writeVCNL_3
 909              	.LVL121:
 910              	.L46:
  56:./VCNL4010_3.h ****   while(!(readVCNL_3(0x80)&0x20));            // Wait for the proximity data ready bit to be set
 911              		.loc 3 56 0 discriminator 1
 912 0014 8020     		mov	r0, #128
 913 0016 FFF7FEFF 		bl	readVCNL_3
 914              	.LVL122:
 915 001a 8306     		lsl	r3, r0, #26
 916 001c FAD5     		bpl	.L46
  57:./VCNL4010_3.h ****   unsigned int data = readVCNL_3(0x87) << 8;
 917              		.loc 3 57 0
 918 001e 8720     		mov	r0, #135
 919 0020 FFF7FEFF 		bl	readVCNL_3
 920              	.LVL123:
 921 0024 0402     		lsl	r4, r0, #8
 922              	.LVL124:
  58:./VCNL4010_3.h ****   data |= readVCNL_3(0x88);
 923              		.loc 3 58 0
 924 0026 8820     		mov	r0, #136
 925 0028 FFF7FEFF 		bl	readVCNL_3
 926              	.LVL125:
 927 002c 2043     		orr	r0, r4
 928              	.LVL126:
  59:./VCNL4010_3.h ****   return data;
  60:./VCNL4010_3.h **** }
 929              		.loc 3 60 0
 930              		@ sp needed
 931 002e 10BD     		pop	{r4, pc}
 932              		.cfi_endproc
 933              	.LFE49:
 934              		.size	readProximity_3, .-readProximity_3
 935              		.section	.text.readAmbient_3,"ax",%progbits
 936              		.align	2
ARM GAS  C:\Users\Andres\AppData\Local\Temp\ccSsqcxd.s 			page 21


 937              		.global	readAmbient_3
 938              		.code	16
 939              		.thumb_func
 940              		.type	readAmbient_3, %function
 941              	readAmbient_3:
 942              	.LFB50:
  61:./VCNL4010_3.h **** //Read Ambient Signal
  62:./VCNL4010_3.h **** unsigned int readAmbient_3(){
 943              		.loc 3 62 0
 944              		.cfi_startproc
 945 0000 10B5     		push	{r4, lr}
 946              		.cfi_def_cfa_offset 8
 947              		.cfi_offset 4, -8
 948              		.cfi_offset 14, -4
  63:./VCNL4010_3.h ****   int temp = readVCNL_3(0x80);
 949              		.loc 3 63 0
 950 0002 8020     		mov	r0, #128
 951 0004 FFF7FEFF 		bl	readVCNL_3
 952              	.LVL127:
  64:./VCNL4010_3.h ****   writeVCNL_3(0x80, temp | 0x10);             // command the sensor to perform ambient measure
 953              		.loc 3 64 0
 954 0008 1023     		mov	r3, #16
 955 000a 011C     		mov	r1, r0
 956 000c 1943     		orr	r1, r3
 957 000e 8020     		mov	r0, #128
 958              	.LVL128:
 959 0010 FFF7FEFF 		bl	writeVCNL_3
 960              	.LVL129:
 961              	.L48:
  65:./VCNL4010_3.h ****   while(!(readVCNL_3(0x80)&0x40));            // wait for the proximity data ready bit to be set
 962              		.loc 3 65 0 discriminator 1
 963 0014 8020     		mov	r0, #128
 964 0016 FFF7FEFF 		bl	readVCNL_3
 965              	.LVL130:
 966 001a 4306     		lsl	r3, r0, #25
 967 001c FAD5     		bpl	.L48
  66:./VCNL4010_3.h ****   unsigned int data = readVCNL_3(0x85) << 8;  
 968              		.loc 3 66 0
 969 001e 8520     		mov	r0, #133
 970 0020 FFF7FEFF 		bl	readVCNL_3
 971              	.LVL131:
 972 0024 0402     		lsl	r4, r0, #8
 973              	.LVL132:
  67:./VCNL4010_3.h ****   data |= readVCNL_3(0x86);
 974              		.loc 3 67 0
 975 0026 8620     		mov	r0, #134
 976 0028 FFF7FEFF 		bl	readVCNL_3
 977              	.LVL133:
 978 002c 2043     		orr	r0, r4
 979              	.LVL134:
  68:./VCNL4010_3.h ****   return data;
  69:./VCNL4010_3.h **** }
 980              		.loc 3 69 0
 981              		@ sp needed
 982 002e 10BD     		pop	{r4, pc}
 983              		.cfi_endproc
 984              	.LFE50:
ARM GAS  C:\Users\Andres\AppData\Local\Temp\ccSsqcxd.s 			page 22


 985              		.size	readAmbient_3, .-readAmbient_3
 986              		.section	.text.error_data,"ax",%progbits
 987              		.align	2
 988              		.global	error_data
 989              		.code	16
 990              		.thumb_func
 991              		.type	error_data, %function
 992              	error_data:
 993              	.LFB51:
 994              		.file 4 "./AX12.h"
   1:./AX12.h      **** #include <DynamixelSerial1.h>
   2:./AX12.h      **** #include <project.h>
   3:./AX12.h      **** 
   4:./AX12.h      **** //////actualizado 2.0     <---------------------------------------------
   5:./AX12.h      **** unsigned char Checksum;
   6:./AX12.h      **** unsigned char Incoming_Byte,Temperature_Byte,Error_Byte,Incoming_Byte2,Position_Long_Byte, Position
   7:./AX12.h      **** int Time_Counter;
   8:./AX12.h      **** //The functions are based on the arduino library
   9:./AX12.h      **** 
  10:./AX12.h      **** 
  11:./AX12.h      **** int error_data (){
 995              		.loc 4 11 0
 996              		.cfi_startproc
 997 0000 10B5     		push	{r4, lr}
 998              		.cfi_def_cfa_offset 8
 999              		.cfi_offset 4, -8
 1000              		.cfi_offset 14, -4
  12:./AX12.h      ****     Time_Counter=0;
 1001              		.loc 4 12 0
 1002 0002 0022     		mov	r2, #0
 1003 0004 224B     		ldr	r3, .L55
 1004 0006 1A60     		str	r2, [r3]
  13:./AX12.h      ****     CyDelay(20); ///// delay para recibir
 1005              		.loc 4 13 0
 1006 0008 1420     		mov	r0, #20
 1007 000a FFF7FEFF 		bl	CyDelay
 1008              	.LVL135:
  14:./AX12.h      ****     while((RX_GetRxBufferSize() < 6) & (Time_Counter==TIME_OUT))
 1009              		.loc 4 14 0
 1010 000e 06E0     		b	.L50
 1011              	.L51:
  15:./AX12.h      ****     {Time_Counter++;
 1012              		.loc 4 15 0
 1013 0010 0132     		add	r2, r2, #1
 1014 0012 1F4B     		ldr	r3, .L55
 1015 0014 1A60     		str	r2, [r3]
  16:./AX12.h      ****     CyDelayUs(1000);
 1016              		.loc 4 16 0
 1017 0016 FA20     		mov	r0, #250
 1018 0018 8000     		lsl	r0, r0, #2
 1019 001a FFF7FEFF 		bl	CyDelayUs
 1020              	.LVL136:
 1021              	.L50:
  14:./AX12.h      ****     while((RX_GetRxBufferSize() < 6) & (Time_Counter==TIME_OUT))
 1022              		.loc 4 14 0
 1023 001e FFF7FEFF 		bl	RX_GetRxBufferSize
 1024              	.LVL137:
ARM GAS  C:\Users\Andres\AppData\Local\Temp\ccSsqcxd.s 			page 23


 1025 0022 1B4B     		ldr	r3, .L55
 1026 0024 1A68     		ldr	r2, [r3]
 1027 0026 0023     		mov	r3, #0
 1028 0028 0521     		mov	r1, #5
 1029 002a 8142     		cmp	r1, r0
 1030 002c 5B41     		adc	r3, r3, r3
 1031 002e 111C     		mov	r1, r2
 1032 0030 0A39     		sub	r1, r1, #10
 1033 0032 4842     		neg	r0, r1
 1034 0034 4141     		adc	r1, r1, r0
 1035 0036 1942     		tst	r1, r3
 1036 0038 EAD1     		bne	.L51
 1037 003a 21E0     		b	.L52
 1038              	.L54:
  17:./AX12.h      ****         }
  18:./AX12.h      ****     
  19:./AX12.h      ****         while (RX_GetRxBufferSize() > 0){
  20:./AX12.h      ****          
  21:./AX12.h      ****              
  22:./AX12.h      ****              
  23:./AX12.h      **** 		Incoming_Byte =    RX_GetChar();
 1039              		.loc 4 23 0
 1040 003c FFF7FEFF 		bl	RX_GetChar
 1041              	.LVL138:
 1042 0040 144C     		ldr	r4, .L55+4
 1043 0042 2070     		strb	r0, [r4]
  24:./AX12.h      ****         Incoming_Byte2 =    RX_GetChar();
 1044              		.loc 4 24 0
 1045 0044 FFF7FEFF 		bl	RX_GetChar
 1046              	.LVL139:
 1047 0048 134B     		ldr	r3, .L55+8
 1048 004a 1870     		strb	r0, [r3]
  25:./AX12.h      **** 		if ( (Incoming_Byte == 255) & (Incoming_Byte2 == 255) ){
 1049              		.loc 4 25 0
 1050 004c 2378     		ldrb	r3, [r4]
 1051 004e FF3B     		sub	r3, r3, #255
 1052 0050 5A42     		neg	r2, r3
 1053 0052 5341     		adc	r3, r3, r2
 1054 0054 FF38     		sub	r0, r0, #255
 1055 0056 4242     		neg	r2, r0
 1056 0058 5041     		adc	r0, r0, r2
 1057 005a 1842     		tst	r0, r3
 1058 005c 10D0     		beq	.L52
  26:./AX12.h      **** 			
  27:./AX12.h      **** 		   RX_GetChar();    //ID motor
 1059              		.loc 4 27 0
 1060 005e FFF7FEFF 		bl	RX_GetChar
 1061              	.LVL140:
  28:./AX12.h      ****           RX_GetChar();   // Length                                                               
 1062              		.loc 4 28 0
 1063 0062 FFF7FEFF 		bl	RX_GetChar
 1064              	.LVL141:
  29:./AX12.h      **** 	       Error_Byte =   RX_GetChar();   // Error                    
 1065              		.loc 4 29 0
 1066 0066 FFF7FEFF 		bl	RX_GetChar
 1067              	.LVL142:
 1068 006a 0C4C     		ldr	r4, .L55+12
ARM GAS  C:\Users\Andres\AppData\Local\Temp\ccSsqcxd.s 			page 24


 1069 006c 2070     		strb	r0, [r4]
  30:./AX12.h      **** 		   RX_GetChar(); ///check
 1070              		.loc 4 30 0
 1071 006e FFF7FEFF 		bl	RX_GetChar
 1072              	.LVL143:
  31:./AX12.h      **** 	  RX_ClearRxBuffer(); //limpia buffer 
 1073              		.loc 4 31 0
 1074 0072 FFF7FEFF 		bl	RX_ClearRxBuffer
 1075              	.LVL144:
  32:./AX12.h      ****     CyDelay(10);
 1076              		.loc 4 32 0
 1077 0076 0A20     		mov	r0, #10
 1078 0078 FFF7FEFF 		bl	CyDelay
 1079              	.LVL145:
  33:./AX12.h      ****          return (Error_Byte);
 1080              		.loc 4 33 0
 1081 007c 2078     		ldrb	r0, [r4]
 1082 007e 05E0     		b	.L53
 1083              	.L52:
  19:./AX12.h      ****          
 1084              		.loc 4 19 0
 1085 0080 FFF7FEFF 		bl	RX_GetRxBufferSize
 1086              	.LVL146:
 1087 0084 0028     		cmp	r0, #0
 1088 0086 D9D1     		bne	.L54
  34:./AX12.h      **** 			            
  35:./AX12.h      **** 		}
  36:./AX12.h      ****        
  37:./AX12.h      ****    }
  38:./AX12.h      ****          return (Error_Byte);  //ax no responde
 1089              		.loc 4 38 0
 1090 0088 044B     		ldr	r3, .L55+12
 1091 008a 1878     		ldrb	r0, [r3]
 1092              	.L53:
  39:./AX12.h      **** }
 1093              		.loc 4 39 0
 1094              		@ sp needed
 1095 008c 10BD     		pop	{r4, pc}
 1096              	.L56:
 1097 008e C046     		.align	2
 1098              	.L55:
 1099 0090 00000000 		.word	Time_Counter
 1100 0094 00000000 		.word	Incoming_Byte
 1101 0098 00000000 		.word	Incoming_Byte2
 1102 009c 00000000 		.word	Error_Byte
 1103              		.cfi_endproc
 1104              	.LFE51:
 1105              		.size	error_data, .-error_data
 1106              		.section	.text.readtemperature,"ax",%progbits
 1107              		.align	2
 1108              		.global	readtemperature
 1109              		.code	16
 1110              		.thumb_func
 1111              		.type	readtemperature, %function
 1112              	readtemperature:
 1113              	.LFB52:
  40:./AX12.h      **** 
ARM GAS  C:\Users\Andres\AppData\Local\Temp\ccSsqcxd.s 			page 25


  41:./AX12.h      **** 
  42:./AX12.h      **** int readtemperature(unsigned char ID){
 1114              		.loc 4 42 0
 1115              		.cfi_startproc
 1116              	.LVL147:
 1117 0000 38B5     		push	{r3, r4, r5, lr}
 1118              		.cfi_def_cfa_offset 16
 1119              		.cfi_offset 3, -16
 1120              		.cfi_offset 4, -12
 1121              		.cfi_offset 5, -8
 1122              		.cfi_offset 14, -4
 1123 0002 051C     		mov	r5, r0
  43:./AX12.h      **** 
  44:./AX12.h      ****     Checksum = (~(ID + AX_TEM_LENGTH  + AX_READ_DATA + AX_PRESENT_TEMPERATURE + AX_BYTE_READ))&0xFF
 1124              		.loc 4 44 0
 1125 0004 384C     		ldr	r4, .L63
 1126 0006 031C     		mov	r3, r0
 1127 0008 3233     		add	r3, r3, #50
 1128 000a DB43     		mvn	r3, r3
 1129 000c 2370     		strb	r3, [r4]
  45:./AX12.h      **** 
  46:./AX12.h      ****     TXC_Write(2); ////habilita tx  2
 1130              		.loc 4 46 0
 1131 000e 0220     		mov	r0, #2
 1132              	.LVL148:
 1133 0010 FFF7FEFF 		bl	TXC_Write
 1134              	.LVL149:
  47:./AX12.h      ****    
  48:./AX12.h      **** MOTOR_PutChar(AX_START);
 1135              		.loc 4 48 0
 1136 0014 FF20     		mov	r0, #255
 1137 0016 FFF7FEFF 		bl	MOTOR_PutChar
 1138              	.LVL150:
  49:./AX12.h      **** MOTOR_PutChar(AX_START);
 1139              		.loc 4 49 0
 1140 001a FF20     		mov	r0, #255
 1141 001c FFF7FEFF 		bl	MOTOR_PutChar
 1142              	.LVL151:
  50:./AX12.h      **** MOTOR_PutChar(ID);
 1143              		.loc 4 50 0
 1144 0020 281C     		mov	r0, r5
 1145 0022 FFF7FEFF 		bl	MOTOR_PutChar
 1146              	.LVL152:
  51:./AX12.h      **** MOTOR_PutChar(AX_TEM_LENGTH);
 1147              		.loc 4 51 0
 1148 0026 0420     		mov	r0, #4
 1149 0028 FFF7FEFF 		bl	MOTOR_PutChar
 1150              	.LVL153:
  52:./AX12.h      **** MOTOR_PutChar(AX_READ_DATA);
 1151              		.loc 4 52 0
 1152 002c 0220     		mov	r0, #2
 1153 002e FFF7FEFF 		bl	MOTOR_PutChar
 1154              	.LVL154:
  53:./AX12.h      **** MOTOR_PutChar(AX_PRESENT_TEMPERATURE);
 1155              		.loc 4 53 0
 1156 0032 2B20     		mov	r0, #43
 1157 0034 FFF7FEFF 		bl	MOTOR_PutChar
ARM GAS  C:\Users\Andres\AppData\Local\Temp\ccSsqcxd.s 			page 26


 1158              	.LVL155:
  54:./AX12.h      **** MOTOR_PutChar(AX_BYTE_READ);
 1159              		.loc 4 54 0
 1160 0038 0120     		mov	r0, #1
 1161 003a FFF7FEFF 		bl	MOTOR_PutChar
 1162              	.LVL156:
  55:./AX12.h      **** MOTOR_PutChar(Checksum);
 1163              		.loc 4 55 0
 1164 003e 2078     		ldrb	r0, [r4]
 1165 0040 FFF7FEFF 		bl	MOTOR_PutChar
 1166              	.LVL157:
  56:./AX12.h      **** CyDelayUs(TX_DELAY_TIME);
 1167              		.loc 4 56 0
 1168 0044 C820     		mov	r0, #200
 1169 0046 4000     		lsl	r0, r0, #1
 1170 0048 FFF7FEFF 		bl	CyDelayUs
 1171              	.LVL158:
  57:./AX12.h      ****   CyDelay(5);  /// cambio de estado delay para buffer de salida
 1172              		.loc 4 57 0
 1173 004c 0520     		mov	r0, #5
 1174 004e FFF7FEFF 		bl	CyDelay
 1175              	.LVL159:
  58:./AX12.h      ****   TXC_Write(1); ///habilita rx 1
 1176              		.loc 4 58 0
 1177 0052 0120     		mov	r0, #1
 1178 0054 FFF7FEFF 		bl	TXC_Write
 1179              	.LVL160:
  59:./AX12.h      ****      
  60:./AX12.h      ****     Time_Counter=0;
 1180              		.loc 4 60 0
 1181 0058 0022     		mov	r2, #0
 1182 005a 244B     		ldr	r3, .L63+4
 1183 005c 1A60     		str	r2, [r3]
  61:./AX12.h      ****     CyDelay(20);/// delay para recibir
 1184              		.loc 4 61 0
 1185 005e 1420     		mov	r0, #20
 1186 0060 FFF7FEFF 		bl	CyDelay
 1187              	.LVL161:
  62:./AX12.h      ****  while((RX_GetRxBufferSize() < 6) & (Time_Counter==TIME_OUT))
 1188              		.loc 4 62 0
 1189 0064 06E0     		b	.L58
 1190              	.L59:
  63:./AX12.h      ****     {Time_Counter++;
 1191              		.loc 4 63 0
 1192 0066 0132     		add	r2, r2, #1
 1193 0068 204B     		ldr	r3, .L63+4
 1194 006a 1A60     		str	r2, [r3]
  64:./AX12.h      ****     CyDelayUs(1000);
 1195              		.loc 4 64 0
 1196 006c FA20     		mov	r0, #250
 1197 006e 8000     		lsl	r0, r0, #2
 1198 0070 FFF7FEFF 		bl	CyDelayUs
 1199              	.LVL162:
 1200              	.L58:
  62:./AX12.h      ****  while((RX_GetRxBufferSize() < 6) & (Time_Counter==TIME_OUT))
 1201              		.loc 4 62 0
 1202 0074 FFF7FEFF 		bl	RX_GetRxBufferSize
ARM GAS  C:\Users\Andres\AppData\Local\Temp\ccSsqcxd.s 			page 27


 1203              	.LVL163:
 1204 0078 1C4B     		ldr	r3, .L63+4
 1205 007a 1A68     		ldr	r2, [r3]
 1206 007c 0023     		mov	r3, #0
 1207 007e 0521     		mov	r1, #5
 1208 0080 8142     		cmp	r1, r0
 1209 0082 5B41     		adc	r3, r3, r3
 1210 0084 111C     		mov	r1, r2
 1211 0086 0A39     		sub	r1, r1, #10
 1212 0088 4842     		neg	r0, r1
 1213 008a 4141     		adc	r1, r1, r0
 1214 008c 1942     		tst	r1, r3
 1215 008e EAD1     		bne	.L59
 1216 0090 23E0     		b	.L60
 1217              	.L62:
  65:./AX12.h      ****         }
  66:./AX12.h      **** 
  67:./AX12.h      ****         while (RX_GetRxBufferSize() > 0){
  68:./AX12.h      **** 		Incoming_Byte = RX_ReadRxData();
 1218              		.loc 4 68 0
 1219 0092 FFF7FEFF 		bl	RX_ReadRxData
 1220              	.LVL164:
 1221 0096 164C     		ldr	r4, .L63+8
 1222 0098 2070     		strb	r0, [r4]
  69:./AX12.h      ****         Incoming_Byte2= RX_ReadRxData();
 1223              		.loc 4 69 0
 1224 009a FFF7FEFF 		bl	RX_ReadRxData
 1225              	.LVL165:
 1226 009e 154B     		ldr	r3, .L63+12
 1227 00a0 1870     		strb	r0, [r3]
  70:./AX12.h      **** 		if ( (Incoming_Byte == 255) & (Incoming_Byte2  == 255) ){
 1228              		.loc 4 70 0
 1229 00a2 2378     		ldrb	r3, [r4]
 1230 00a4 FF3B     		sub	r3, r3, #255
 1231 00a6 5A42     		neg	r2, r3
 1232 00a8 5341     		adc	r3, r3, r2
 1233 00aa FF38     		sub	r0, r0, #255
 1234 00ac 4242     		neg	r2, r0
 1235 00ae 5041     		adc	r0, r0, r2
 1236 00b0 1842     		tst	r0, r3
 1237 00b2 12D0     		beq	.L60
  71:./AX12.h      **** 			                   
  72:./AX12.h      **** 	        RX_ReadRxData();       // Ax-12 ID
 1238              		.loc 4 72 0
 1239 00b4 FFF7FEFF 		bl	RX_ReadRxData
 1240              	.LVL166:
  73:./AX12.h      **** 			RX_ReadRxData();       // Length
 1241              		.loc 4 73 0
 1242 00b8 FFF7FEFF 		bl	RX_ReadRxData
 1243              	.LVL167:
  74:./AX12.h      **** 	    	RX_ReadRxData();       //error
 1244              		.loc 4 74 0
 1245 00bc FFF7FEFF 		bl	RX_ReadRxData
 1246              	.LVL168:
  75:./AX12.h      ****         	Temperature_Byte= 	RX_ReadRxData(); ///dato
 1247              		.loc 4 75 0
 1248 00c0 FFF7FEFF 		bl	RX_ReadRxData
ARM GAS  C:\Users\Andres\AppData\Local\Temp\ccSsqcxd.s 			page 28


 1249              	.LVL169:
 1250 00c4 0C4C     		ldr	r4, .L63+16
 1251 00c6 2070     		strb	r0, [r4]
  76:./AX12.h      **** 	        RX_ReadRxData();            //cheaksum           
 1252              		.loc 4 76 0
 1253 00c8 FFF7FEFF 		bl	RX_ReadRxData
 1254              	.LVL170:
  77:./AX12.h      ****             RX_ClearRxBuffer(); //limpia buffer
 1255              		.loc 4 77 0
 1256 00cc FFF7FEFF 		bl	RX_ClearRxBuffer
 1257              	.LVL171:
  78:./AX12.h      ****              CyDelay(10);
 1258              		.loc 4 78 0
 1259 00d0 0A20     		mov	r0, #10
 1260 00d2 FFF7FEFF 		bl	CyDelay
 1261              	.LVL172:
  79:./AX12.h      ****             return (Temperature_Byte);
 1262              		.loc 4 79 0
 1263 00d6 2078     		ldrb	r0, [r4]
 1264 00d8 05E0     		b	.L61
 1265              	.L60:
  67:./AX12.h      **** 		Incoming_Byte = RX_ReadRxData();
 1266              		.loc 4 67 0
 1267 00da FFF7FEFF 		bl	RX_GetRxBufferSize
 1268              	.LVL173:
 1269 00de 0028     		cmp	r0, #0
 1270 00e0 D7D1     		bne	.L62
  80:./AX12.h      **** 		}
  81:./AX12.h      ****    }
  82:./AX12.h      **** return (Temperature_Byte);
 1271              		.loc 4 82 0
 1272 00e2 054B     		ldr	r3, .L63+16
 1273 00e4 1878     		ldrb	r0, [r3]
 1274              	.L61:
  83:./AX12.h      **** }
 1275              		.loc 4 83 0
 1276              		@ sp needed
 1277 00e6 38BD     		pop	{r3, r4, r5, pc}
 1278              	.L64:
 1279              		.align	2
 1280              	.L63:
 1281 00e8 00000000 		.word	Checksum
 1282 00ec 00000000 		.word	Time_Counter
 1283 00f0 00000000 		.word	Incoming_Byte
 1284 00f4 00000000 		.word	Incoming_Byte2
 1285 00f8 00000000 		.word	Temperature_Byte
 1286              		.cfi_endproc
 1287              	.LFE52:
 1288              		.size	readtemperature, .-readtemperature
 1289              		.section	.text.setID,"ax",%progbits
 1290              		.align	2
 1291              		.global	setID
 1292              		.code	16
 1293              		.thumb_func
 1294              		.type	setID, %function
 1295              	setID:
 1296              	.LFB53:
ARM GAS  C:\Users\Andres\AppData\Local\Temp\ccSsqcxd.s 			page 29


  84:./AX12.h      **** 
  85:./AX12.h      **** int setID (unsigned char ID,unsigned char newID){
 1297              		.loc 4 85 0
 1298              		.cfi_startproc
 1299              	.LVL174:
 1300 0000 70B5     		push	{r4, r5, r6, lr}
 1301              		.cfi_def_cfa_offset 16
 1302              		.cfi_offset 4, -16
 1303              		.cfi_offset 5, -12
 1304              		.cfi_offset 6, -8
 1305              		.cfi_offset 14, -4
 1306 0002 051C     		mov	r5, r0
 1307 0004 0C1C     		mov	r4, r1
  86:./AX12.h      **** Checksum = (~(ID + AX_ID_LENGTH + AX_WRITE_DATA + AX_ID + newID))&0xFF;
 1308              		.loc 4 86 0
 1309 0006 164E     		ldr	r6, .L66
 1310 0008 4318     		add	r3, r0, r1
 1311 000a 0A33     		add	r3, r3, #10
 1312 000c DB43     		mvn	r3, r3
 1313 000e 3370     		strb	r3, [r6]
  87:./AX12.h      **** TXC_Write(2); ////habilita tx
 1314              		.loc 4 87 0
 1315 0010 0220     		mov	r0, #2
 1316              	.LVL175:
 1317 0012 FFF7FEFF 		bl	TXC_Write
 1318              	.LVL176:
  88:./AX12.h      **** MOTOR_PutChar(AX_START);              
 1319              		.loc 4 88 0
 1320 0016 FF20     		mov	r0, #255
 1321 0018 FFF7FEFF 		bl	MOTOR_PutChar
 1322              	.LVL177:
  89:./AX12.h      ****  MOTOR_PutChar(AX_START);
 1323              		.loc 4 89 0
 1324 001c FF20     		mov	r0, #255
 1325 001e FFF7FEFF 		bl	MOTOR_PutChar
 1326              	.LVL178:
  90:./AX12.h      **** MOTOR_PutChar(ID);
 1327              		.loc 4 90 0
 1328 0022 281C     		mov	r0, r5
 1329 0024 FFF7FEFF 		bl	MOTOR_PutChar
 1330              	.LVL179:
  91:./AX12.h      **** MOTOR_PutChar(AX_ID_LENGTH);
 1331              		.loc 4 91 0
 1332 0028 0420     		mov	r0, #4
 1333 002a FFF7FEFF 		bl	MOTOR_PutChar
 1334              	.LVL180:
  92:./AX12.h      **** MOTOR_PutChar(AX_WRITE_DATA);
 1335              		.loc 4 92 0
 1336 002e 0320     		mov	r0, #3
 1337 0030 FFF7FEFF 		bl	MOTOR_PutChar
 1338              	.LVL181:
  93:./AX12.h      **** MOTOR_PutChar(AX_ID);
 1339              		.loc 4 93 0
 1340 0034 0320     		mov	r0, #3
 1341 0036 FFF7FEFF 		bl	MOTOR_PutChar
 1342              	.LVL182:
  94:./AX12.h      **** MOTOR_PutChar(newID);
ARM GAS  C:\Users\Andres\AppData\Local\Temp\ccSsqcxd.s 			page 30


 1343              		.loc 4 94 0
 1344 003a 201C     		mov	r0, r4
 1345 003c FFF7FEFF 		bl	MOTOR_PutChar
 1346              	.LVL183:
  95:./AX12.h      **** MOTOR_PutChar(Checksum);
 1347              		.loc 4 95 0
 1348 0040 3078     		ldrb	r0, [r6]
 1349 0042 FFF7FEFF 		bl	MOTOR_PutChar
 1350              	.LVL184:
  96:./AX12.h      **** CyDelayUs(TX_DELAY_TIME);
 1351              		.loc 4 96 0
 1352 0046 C820     		mov	r0, #200
 1353 0048 4000     		lsl	r0, r0, #1
 1354 004a FFF7FEFF 		bl	CyDelayUs
 1355              	.LVL185:
  97:./AX12.h      ****  CyDelay(5);  /// cambio de estado delay para buffer de salida
 1356              		.loc 4 97 0
 1357 004e 0520     		mov	r0, #5
 1358 0050 FFF7FEFF 		bl	CyDelay
 1359              	.LVL186:
  98:./AX12.h      ****  TXC_Write(1); ///habilita rx 1
 1360              		.loc 4 98 0
 1361 0054 0120     		mov	r0, #1
 1362 0056 FFF7FEFF 		bl	TXC_Write
 1363              	.LVL187:
  99:./AX12.h      **** return (error_data()); 
 1364              		.loc 4 99 0
 1365 005a FFF7FEFF 		bl	error_data
 1366              	.LVL188:
 100:./AX12.h      **** }
 1367              		.loc 4 100 0
 1368              		@ sp needed
 1369 005e 70BD     		pop	{r4, r5, r6, pc}
 1370              	.L67:
 1371              		.align	2
 1372              	.L66:
 1373 0060 00000000 		.word	Checksum
 1374              		.cfi_endproc
 1375              	.LFE53:
 1376              		.size	setID, .-setID
 1377              		.section	.text.ping,"ax",%progbits
 1378              		.align	2
 1379              		.global	ping
 1380              		.code	16
 1381              		.thumb_func
 1382              		.type	ping, %function
 1383              	ping:
 1384              	.LFB54:
 101:./AX12.h      **** int ping (unsigned char ID){
 1385              		.loc 4 101 0
 1386              		.cfi_startproc
 1387              	.LVL189:
 1388 0000 38B5     		push	{r3, r4, r5, lr}
 1389              		.cfi_def_cfa_offset 16
 1390              		.cfi_offset 3, -16
 1391              		.cfi_offset 4, -12
 1392              		.cfi_offset 5, -8
ARM GAS  C:\Users\Andres\AppData\Local\Temp\ccSsqcxd.s 			page 31


 1393              		.cfi_offset 14, -4
 1394 0002 051C     		mov	r5, r0
 102:./AX12.h      ****     Checksum = (~(ID + AX_READ_DATA + AX_PING))&0xFF;
 1395              		.loc 4 102 0
 1396 0004 124C     		ldr	r4, .L69
 1397 0006 C31C     		add	r3, r0, #3
 1398 0008 DB43     		mvn	r3, r3
 1399 000a 2370     		strb	r3, [r4]
 103:./AX12.h      ****     TXC_Write(2); ////habilita tx
 1400              		.loc 4 103 0
 1401 000c 0220     		mov	r0, #2
 1402              	.LVL190:
 1403 000e FFF7FEFF 		bl	TXC_Write
 1404              	.LVL191:
 104:./AX12.h      ****     MOTOR_PutChar(AX_START);
 1405              		.loc 4 104 0
 1406 0012 FF20     		mov	r0, #255
 1407 0014 FFF7FEFF 		bl	MOTOR_PutChar
 1408              	.LVL192:
 105:./AX12.h      ****     MOTOR_PutChar(AX_START);
 1409              		.loc 4 105 0
 1410 0018 FF20     		mov	r0, #255
 1411 001a FFF7FEFF 		bl	MOTOR_PutChar
 1412              	.LVL193:
 106:./AX12.h      ****     MOTOR_PutChar(ID);
 1413              		.loc 4 106 0
 1414 001e 281C     		mov	r0, r5
 1415 0020 FFF7FEFF 		bl	MOTOR_PutChar
 1416              	.LVL194:
 107:./AX12.h      ****     MOTOR_PutChar(AX_READ_DATA);
 1417              		.loc 4 107 0
 1418 0024 0220     		mov	r0, #2
 1419 0026 FFF7FEFF 		bl	MOTOR_PutChar
 1420              	.LVL195:
 108:./AX12.h      ****     MOTOR_PutChar(AX_PING);
 1421              		.loc 4 108 0
 1422 002a 0120     		mov	r0, #1
 1423 002c FFF7FEFF 		bl	MOTOR_PutChar
 1424              	.LVL196:
 109:./AX12.h      ****     MOTOR_PutChar(Checksum);
 1425              		.loc 4 109 0
 1426 0030 2078     		ldrb	r0, [r4]
 1427 0032 FFF7FEFF 		bl	MOTOR_PutChar
 1428              	.LVL197:
 110:./AX12.h      ****     CyDelayUs(TX_DELAY_TIME);
 1429              		.loc 4 110 0
 1430 0036 C820     		mov	r0, #200
 1431 0038 4000     		lsl	r0, r0, #1
 1432 003a FFF7FEFF 		bl	CyDelayUs
 1433              	.LVL198:
 111:./AX12.h      ****     CyDelay(5);  /// cambio de estado delay para buffer de salida
 1434              		.loc 4 111 0
 1435 003e 0520     		mov	r0, #5
 1436 0040 FFF7FEFF 		bl	CyDelay
 1437              	.LVL199:
 112:./AX12.h      ****     TXC_Write(1); ///habilita rx 1
 1438              		.loc 4 112 0
ARM GAS  C:\Users\Andres\AppData\Local\Temp\ccSsqcxd.s 			page 32


 1439 0044 0120     		mov	r0, #1
 1440 0046 FFF7FEFF 		bl	TXC_Write
 1441              	.LVL200:
 113:./AX12.h      ****     return(error_data()) ; 
 1442              		.loc 4 113 0
 1443 004a FFF7FEFF 		bl	error_data
 1444              	.LVL201:
 114:./AX12.h      **** }
 1445              		.loc 4 114 0
 1446              		@ sp needed
 1447 004e 38BD     		pop	{r3, r4, r5, pc}
 1448              	.L70:
 1449              		.align	2
 1450              	.L69:
 1451 0050 00000000 		.word	Checksum
 1452              		.cfi_endproc
 1453              	.LFE54:
 1454              		.size	ping, .-ping
 1455              		.section	.text.reset,"ax",%progbits
 1456              		.align	2
 1457              		.global	reset
 1458              		.code	16
 1459              		.thumb_func
 1460              		.type	reset, %function
 1461              	reset:
 1462              	.LFB55:
 115:./AX12.h      **** 
 116:./AX12.h      **** int reset (unsigned char ID ){
 1463              		.loc 4 116 0
 1464              		.cfi_startproc
 1465              	.LVL202:
 1466 0000 38B5     		push	{r3, r4, r5, lr}
 1467              		.cfi_def_cfa_offset 16
 1468              		.cfi_offset 3, -16
 1469              		.cfi_offset 4, -12
 1470              		.cfi_offset 5, -8
 1471              		.cfi_offset 14, -4
 1472 0002 051C     		mov	r5, r0
 117:./AX12.h      ****     
 118:./AX12.h      **** Checksum = (~(ID + AX_RESET_LENGTH + AX_RESET))&0xFF;
 1473              		.loc 4 118 0
 1474 0004 134C     		ldr	r4, .L72
 1475 0006 031C     		mov	r3, r0
 1476 0008 0833     		add	r3, r3, #8
 1477 000a DB43     		mvn	r3, r3
 1478 000c 2370     		strb	r3, [r4]
 119:./AX12.h      ****  TXC_Write(2); ////habilita tx
 1479              		.loc 4 119 0
 1480 000e 0220     		mov	r0, #2
 1481              	.LVL203:
 1482 0010 FFF7FEFF 		bl	TXC_Write
 1483              	.LVL204:
 120:./AX12.h      ****  MOTOR_PutChar(AX_START);              
 1484              		.loc 4 120 0
 1485 0014 FF20     		mov	r0, #255
 1486 0016 FFF7FEFF 		bl	MOTOR_PutChar
 1487              	.LVL205:
ARM GAS  C:\Users\Andres\AppData\Local\Temp\ccSsqcxd.s 			page 33


 121:./AX12.h      ****  MOTOR_PutChar(AX_START);
 1488              		.loc 4 121 0
 1489 001a FF20     		mov	r0, #255
 1490 001c FFF7FEFF 		bl	MOTOR_PutChar
 1491              	.LVL206:
 122:./AX12.h      ****  MOTOR_PutChar(ID);
 1492              		.loc 4 122 0
 1493 0020 281C     		mov	r0, r5
 1494 0022 FFF7FEFF 		bl	MOTOR_PutChar
 1495              	.LVL207:
 123:./AX12.h      ****  MOTOR_PutChar(AX_RESET_LENGTH);	
 1496              		.loc 4 123 0
 1497 0026 0220     		mov	r0, #2
 1498 0028 FFF7FEFF 		bl	MOTOR_PutChar
 1499              	.LVL208:
 124:./AX12.h      ****  MOTOR_PutChar(AX_RESET);
 1500              		.loc 4 124 0
 1501 002c 0620     		mov	r0, #6
 1502 002e FFF7FEFF 		bl	MOTOR_PutChar
 1503              	.LVL209:
 125:./AX12.h      ****  MOTOR_PutChar(Checksum);	
 1504              		.loc 4 125 0
 1505 0032 2078     		ldrb	r0, [r4]
 1506 0034 FFF7FEFF 		bl	MOTOR_PutChar
 1507              	.LVL210:
 126:./AX12.h      **** CyDelayUs(TX_DELAY_TIME);
 1508              		.loc 4 126 0
 1509 0038 C820     		mov	r0, #200
 1510 003a 4000     		lsl	r0, r0, #1
 1511 003c FFF7FEFF 		bl	CyDelayUs
 1512              	.LVL211:
 127:./AX12.h      ****    CyDelay(5);  /// cambio de estado delay para buffer de salida
 1513              		.loc 4 127 0
 1514 0040 0520     		mov	r0, #5
 1515 0042 FFF7FEFF 		bl	CyDelay
 1516              	.LVL212:
 128:./AX12.h      ****     TXC_Write(1); ///habilita rx 1
 1517              		.loc 4 128 0
 1518 0046 0120     		mov	r0, #1
 1519 0048 FFF7FEFF 		bl	TXC_Write
 1520              	.LVL213:
 129:./AX12.h      **** return (error_data()); 
 1521              		.loc 4 129 0
 1522 004c FFF7FEFF 		bl	error_data
 1523              	.LVL214:
 130:./AX12.h      **** 
 131:./AX12.h      **** 
 132:./AX12.h      **** }
 1524              		.loc 4 132 0
 1525              		@ sp needed
 1526 0050 38BD     		pop	{r3, r4, r5, pc}
 1527              	.L73:
 1528 0052 C046     		.align	2
 1529              	.L72:
 1530 0054 00000000 		.word	Checksum
 1531              		.cfi_endproc
 1532              	.LFE55:
ARM GAS  C:\Users\Andres\AppData\Local\Temp\ccSsqcxd.s 			page 34


 1533              		.size	reset, .-reset
 1534              		.section	.text.LED,"ax",%progbits
 1535              		.align	2
 1536              		.global	LED
 1537              		.code	16
 1538              		.thumb_func
 1539              		.type	LED, %function
 1540              	LED:
 1541              	.LFB56:
 133:./AX12.h      **** int LED(unsigned char ID, int Status){    
 1542              		.loc 4 133 0
 1543              		.cfi_startproc
 1544              	.LVL215:
 1545 0000 70B5     		push	{r4, r5, r6, lr}
 1546              		.cfi_def_cfa_offset 16
 1547              		.cfi_offset 4, -16
 1548              		.cfi_offset 5, -12
 1549              		.cfi_offset 6, -8
 1550              		.cfi_offset 14, -4
 1551 0002 041C     		mov	r4, r0
 134:./AX12.h      ****     //Checksum for verification data to send
 135:./AX12.h      ****     Checksum = (~(ID + AX_LED_LENGTH + AX_WRITE_DATA + AX_LED + Status))&0xFF;
 1552              		.loc 4 135 0
 1553 0004 CDB2     		uxtb	r5, r1
 1554 0006 164E     		ldr	r6, .L75
 1555 0008 2B18     		add	r3, r5, r0
 1556 000a 2033     		add	r3, r3, #32
 1557 000c DB43     		mvn	r3, r3
 1558 000e 3370     		strb	r3, [r6]
 136:./AX12.h      ****     // Send Instructions over Serial
 137:./AX12.h      ****     TXC_Write(2); ////habilita tx
 1559              		.loc 4 137 0
 1560 0010 0220     		mov	r0, #2
 1561              	.LVL216:
 1562 0012 FFF7FEFF 		bl	TXC_Write
 1563              	.LVL217:
 138:./AX12.h      ****     MOTOR_PutChar(AX_START);              
 1564              		.loc 4 138 0
 1565 0016 FF20     		mov	r0, #255
 1566 0018 FFF7FEFF 		bl	MOTOR_PutChar
 1567              	.LVL218:
 139:./AX12.h      ****     MOTOR_PutChar(AX_START);
 1568              		.loc 4 139 0
 1569 001c FF20     		mov	r0, #255
 1570 001e FFF7FEFF 		bl	MOTOR_PutChar
 1571              	.LVL219:
 140:./AX12.h      ****     MOTOR_PutChar(ID);
 1572              		.loc 4 140 0
 1573 0022 201C     		mov	r0, r4
 1574 0024 FFF7FEFF 		bl	MOTOR_PutChar
 1575              	.LVL220:
 141:./AX12.h      ****     MOTOR_PutChar(AX_LED_LENGTH);
 1576              		.loc 4 141 0
 1577 0028 0420     		mov	r0, #4
 1578 002a FFF7FEFF 		bl	MOTOR_PutChar
 1579              	.LVL221:
 142:./AX12.h      ****    MOTOR_PutChar(AX_WRITE_DATA);
ARM GAS  C:\Users\Andres\AppData\Local\Temp\ccSsqcxd.s 			page 35


 1580              		.loc 4 142 0
 1581 002e 0320     		mov	r0, #3
 1582 0030 FFF7FEFF 		bl	MOTOR_PutChar
 1583              	.LVL222:
 143:./AX12.h      ****     MOTOR_PutChar(AX_LED);
 1584              		.loc 4 143 0
 1585 0034 1920     		mov	r0, #25
 1586 0036 FFF7FEFF 		bl	MOTOR_PutChar
 1587              	.LVL223:
 144:./AX12.h      ****     MOTOR_PutChar(Status);
 1588              		.loc 4 144 0
 1589 003a 281C     		mov	r0, r5
 1590 003c FFF7FEFF 		bl	MOTOR_PutChar
 1591              	.LVL224:
 145:./AX12.h      ****     MOTOR_PutChar(Checksum);
 1592              		.loc 4 145 0
 1593 0040 3078     		ldrb	r0, [r6]
 1594 0042 FFF7FEFF 		bl	MOTOR_PutChar
 1595              	.LVL225:
 146:./AX12.h      ****     CyDelayUs(TX_DELAY_TIME);
 1596              		.loc 4 146 0
 1597 0046 C820     		mov	r0, #200
 1598 0048 4000     		lsl	r0, r0, #1
 1599 004a FFF7FEFF 		bl	CyDelayUs
 1600              	.LVL226:
 147:./AX12.h      ****      CyDelay(5);  /// cambio de estado delay para buffer de salida
 1601              		.loc 4 147 0
 1602 004e 0520     		mov	r0, #5
 1603 0050 FFF7FEFF 		bl	CyDelay
 1604              	.LVL227:
 148:./AX12.h      ****      TXC_Write(1);
 1605              		.loc 4 148 0
 1606 0054 0120     		mov	r0, #1
 1607 0056 FFF7FEFF 		bl	TXC_Write
 1608              	.LVL228:
 149:./AX12.h      **** 
 150:./AX12.h      ****    
 151:./AX12.h      ****     //Finish Function
 152:./AX12.h      ****     return(error_data());
 1609              		.loc 4 152 0
 1610 005a FFF7FEFF 		bl	error_data
 1611              	.LVL229:
 153:./AX12.h      **** }
 1612              		.loc 4 153 0
 1613              		@ sp needed
 1614 005e 70BD     		pop	{r4, r5, r6, pc}
 1615              	.L76:
 1616              		.align	2
 1617              	.L75:
 1618 0060 00000000 		.word	Checksum
 1619              		.cfi_endproc
 1620              	.LFE56:
 1621              		.size	LED, .-LED
 1622              		.section	.text.Move,"ax",%progbits
 1623              		.align	2
 1624              		.global	Move
 1625              		.code	16
ARM GAS  C:\Users\Andres\AppData\Local\Temp\ccSsqcxd.s 			page 36


 1626              		.thumb_func
 1627              		.type	Move, %function
 1628              	Move:
 1629              	.LFB57:
 154:./AX12.h      **** 
 155:./AX12.h      **** int Move(unsigned char ID, int Position){
 1630              		.loc 4 155 0
 1631              		.cfi_startproc
 1632              	.LVL230:
 1633 0000 F8B5     		push	{r3, r4, r5, r6, r7, lr}
 1634              		.cfi_def_cfa_offset 24
 1635              		.cfi_offset 3, -24
 1636              		.cfi_offset 4, -20
 1637              		.cfi_offset 5, -16
 1638              		.cfi_offset 6, -12
 1639              		.cfi_offset 7, -8
 1640              		.cfi_offset 14, -4
 1641 0002 041C     		mov	r4, r0
 156:./AX12.h      ****     char Position_H,Position_L;
 157:./AX12.h      ****     //Shift register 16 bits
 158:./AX12.h      ****     Position_H = Position >> 8;           
 1642              		.loc 4 158 0
 1643 0004 0E12     		asr	r6, r1, #8
 1644 0006 F6B2     		uxtb	r6, r6
 1645              	.LVL231:
 159:./AX12.h      ****     Position_L = Position;
 1646              		.loc 4 159 0
 1647 0008 CDB2     		uxtb	r5, r1
 1648              	.LVL232:
 160:./AX12.h      **** 	Checksum = (~(ID + AX_GOAL_LENGTH + AX_WRITE_DATA + AX_GOAL_POSITION_L + Position_L + Position_H))
 1649              		.loc 4 160 0
 1650 000a 184F     		ldr	r7, .L78
 1651 000c 4319     		add	r3, r0, r5
 1652 000e F318     		add	r3, r6, r3
 1653 0010 2633     		add	r3, r3, #38
 1654 0012 DB43     		mvn	r3, r3
 1655 0014 3B70     		strb	r3, [r7]
 161:./AX12.h      ****     // Send Instructions over Serial
 162:./AX12.h      ****     TXC_Write(2); ////habilita tx
 1656              		.loc 4 162 0
 1657 0016 0220     		mov	r0, #2
 1658              	.LVL233:
 1659 0018 FFF7FEFF 		bl	TXC_Write
 1660              	.LVL234:
 163:./AX12.h      ****     MOTOR_PutChar(AX_START);                 
 1661              		.loc 4 163 0
 1662 001c FF20     		mov	r0, #255
 1663 001e FFF7FEFF 		bl	MOTOR_PutChar
 1664              	.LVL235:
 164:./AX12.h      ****     MOTOR_PutChar(AX_START);
 1665              		.loc 4 164 0
 1666 0022 FF20     		mov	r0, #255
 1667 0024 FFF7FEFF 		bl	MOTOR_PutChar
 1668              	.LVL236:
 165:./AX12.h      ****     MOTOR_PutChar(ID);
 1669              		.loc 4 165 0
 1670 0028 201C     		mov	r0, r4
ARM GAS  C:\Users\Andres\AppData\Local\Temp\ccSsqcxd.s 			page 37


 1671 002a FFF7FEFF 		bl	MOTOR_PutChar
 1672              	.LVL237:
 166:./AX12.h      ****     MOTOR_PutChar(AX_GOAL_LENGTH);
 1673              		.loc 4 166 0
 1674 002e 0520     		mov	r0, #5
 1675 0030 FFF7FEFF 		bl	MOTOR_PutChar
 1676              	.LVL238:
 167:./AX12.h      ****     MOTOR_PutChar(AX_WRITE_DATA);
 1677              		.loc 4 167 0
 1678 0034 0320     		mov	r0, #3
 1679 0036 FFF7FEFF 		bl	MOTOR_PutChar
 1680              	.LVL239:
 168:./AX12.h      ****     MOTOR_PutChar(AX_GOAL_POSITION_L);
 1681              		.loc 4 168 0
 1682 003a 1E20     		mov	r0, #30
 1683 003c FFF7FEFF 		bl	MOTOR_PutChar
 1684              	.LVL240:
 169:./AX12.h      ****     MOTOR_PutChar(Position_L);
 1685              		.loc 4 169 0
 1686 0040 281C     		mov	r0, r5
 1687 0042 FFF7FEFF 		bl	MOTOR_PutChar
 1688              	.LVL241:
 170:./AX12.h      ****     MOTOR_PutChar(Position_H);
 1689              		.loc 4 170 0
 1690 0046 301C     		mov	r0, r6
 1691 0048 FFF7FEFF 		bl	MOTOR_PutChar
 1692              	.LVL242:
 171:./AX12.h      ****     MOTOR_PutChar(Checksum);
 1693              		.loc 4 171 0
 1694 004c 3878     		ldrb	r0, [r7]
 1695 004e FFF7FEFF 		bl	MOTOR_PutChar
 1696              	.LVL243:
 172:./AX12.h      **** 	CyDelayUs(TX_DELAY_TIME);
 1697              		.loc 4 172 0
 1698 0052 C820     		mov	r0, #200
 1699 0054 4000     		lsl	r0, r0, #1
 1700 0056 FFF7FEFF 		bl	CyDelayUs
 1701              	.LVL244:
 173:./AX12.h      ****    CyDelay(5);  /// cambio de estado delay para buffer de salida
 1702              		.loc 4 173 0
 1703 005a 0520     		mov	r0, #5
 1704 005c FFF7FEFF 		bl	CyDelay
 1705              	.LVL245:
 174:./AX12.h      ****     TXC_Write(1); ///habilita rx 1
 1706              		.loc 4 174 0
 1707 0060 0120     		mov	r0, #1
 1708 0062 FFF7FEFF 		bl	TXC_Write
 1709              	.LVL246:
 175:./AX12.h      ****     return (error_data());                 
 1710              		.loc 4 175 0
 1711 0066 FFF7FEFF 		bl	error_data
 1712              	.LVL247:
 176:./AX12.h      **** }
 1713              		.loc 4 176 0
 1714              		@ sp needed
 1715              	.LVL248:
 1716              	.LVL249:
ARM GAS  C:\Users\Andres\AppData\Local\Temp\ccSsqcxd.s 			page 38


 1717 006a F8BD     		pop	{r3, r4, r5, r6, r7, pc}
 1718              	.L79:
 1719              		.align	2
 1720              	.L78:
 1721 006c 00000000 		.word	Checksum
 1722              		.cfi_endproc
 1723              	.LFE57:
 1724              		.size	Move, .-Move
 1725              		.section	.text.setEndless,"ax",%progbits
 1726              		.align	2
 1727              		.global	setEndless
 1728              		.code	16
 1729              		.thumb_func
 1730              		.type	setEndless, %function
 1731              	setEndless:
 1732              	.LFB58:
 177:./AX12.h      **** 
 178:./AX12.h      **** int setEndless(unsigned char ID, int Status,int rag){
 1733              		.loc 4 178 0
 1734              		.cfi_startproc
 1735              	.LVL250:
 1736 0000 38B5     		push	{r3, r4, r5, lr}
 1737              		.cfi_def_cfa_offset 16
 1738              		.cfi_offset 3, -16
 1739              		.cfi_offset 4, -12
 1740              		.cfi_offset 5, -8
 1741              		.cfi_offset 14, -4
 1742 0002 041C     		mov	r4, r0
 179:./AX12.h      ****     if (Status){	
 1743              		.loc 4 179 0
 1744 0004 0029     		cmp	r1, #0
 1745 0006 29D0     		beq	.L81
 180:./AX12.h      ****   
 181:./AX12.h      ****     // Changing the CCW Angle Limits for Full Rotation.
 182:./AX12.h      **** Checksum = (~(ID + AX_GOAL_LENGTH + AX_WRITE_DATA + AX_CCW_ANGLE_LIMIT_L))&0xFF;
 1746              		.loc 4 182 0
 1747 0008 2C4D     		ldr	r5, .L83
 1748 000a 031C     		mov	r3, r0
 1749 000c 1033     		add	r3, r3, #16
 1750 000e DB43     		mvn	r3, r3
 1751 0010 2B70     		strb	r3, [r5]
 183:./AX12.h      ****     // Send Instructions over Serial
 184:./AX12.h      ****     //Checksum for verification data to send
 185:./AX12.h      ****     TXC_Write(2); ////habilita tx
 1752              		.loc 4 185 0
 1753 0012 0220     		mov	r0, #2
 1754              	.LVL251:
 1755 0014 FFF7FEFF 		bl	TXC_Write
 1756              	.LVL252:
 186:./AX12.h      ****     MOTOR_PutChar(AX_START);                
 1757              		.loc 4 186 0
 1758 0018 FF20     		mov	r0, #255
 1759 001a FFF7FEFF 		bl	MOTOR_PutChar
 1760              	.LVL253:
 187:./AX12.h      ****     MOTOR_PutChar(AX_START);
 1761              		.loc 4 187 0
 1762 001e FF20     		mov	r0, #255
ARM GAS  C:\Users\Andres\AppData\Local\Temp\ccSsqcxd.s 			page 39


 1763 0020 FFF7FEFF 		bl	MOTOR_PutChar
 1764              	.LVL254:
 188:./AX12.h      ****     MOTOR_PutChar(ID);
 1765              		.loc 4 188 0
 1766 0024 201C     		mov	r0, r4
 1767 0026 FFF7FEFF 		bl	MOTOR_PutChar
 1768              	.LVL255:
 189:./AX12.h      ****     MOTOR_PutChar(AX_GOAL_LENGTH);
 1769              		.loc 4 189 0
 1770 002a 0520     		mov	r0, #5
 1771 002c FFF7FEFF 		bl	MOTOR_PutChar
 1772              	.LVL256:
 190:./AX12.h      ****     MOTOR_PutChar(AX_WRITE_DATA);
 1773              		.loc 4 190 0
 1774 0030 0320     		mov	r0, #3
 1775 0032 FFF7FEFF 		bl	MOTOR_PutChar
 1776              	.LVL257:
 191:./AX12.h      ****     MOTOR_PutChar(AX_CCW_ANGLE_LIMIT_L );
 1777              		.loc 4 191 0
 1778 0036 0820     		mov	r0, #8
 1779 0038 FFF7FEFF 		bl	MOTOR_PutChar
 1780              	.LVL258:
 192:./AX12.h      ****     MOTOR_PutChar(Checksum);
 1781              		.loc 4 192 0
 1782 003c 2878     		ldrb	r0, [r5]
 1783 003e FFF7FEFF 		bl	MOTOR_PutChar
 1784              	.LVL259:
 193:./AX12.h      ****     CyDelayUs(TX_DELAY_TIME);
 1785              		.loc 4 193 0
 1786 0042 C820     		mov	r0, #200
 1787 0044 4000     		lsl	r0, r0, #1
 1788 0046 FFF7FEFF 		bl	CyDelayUs
 1789              	.LVL260:
 194:./AX12.h      ****      CyDelay(5);  /// cambio de estado delay para buffer de salida
 1790              		.loc 4 194 0
 1791 004a 0520     		mov	r0, #5
 1792 004c FFF7FEFF 		bl	CyDelay
 1793              	.LVL261:
 195:./AX12.h      ****     TXC_Write(1); ///habilita rx 1
 1794              		.loc 4 195 0
 1795 0050 0120     		mov	r0, #1
 1796 0052 FFF7FEFF 		bl	TXC_Write
 1797              	.LVL262:
 196:./AX12.h      **** 	return (error_data()); 
 1798              		.loc 4 196 0
 1799 0056 FFF7FEFF 		bl	error_data
 1800              	.LVL263:
 1801 005a 2EE0     		b	.L82
 1802              	.LVL264:
 1803              	.L81:
 197:./AX12.h      ****  }
 198:./AX12.h      ****  else{
 199:./AX12.h      **** Checksum = (~(ID + AX_GOAL_LENGTH + AX_WRITE_DATA + AX_CCW_ANGLE_LIMIT_L + AX_CCW_AL_L + AX_CCW_AL_
 1804              		.loc 4 199 0
 1805 005c 174D     		ldr	r5, .L83
 1806 005e 031C     		mov	r3, r0
 1807 0060 1233     		add	r3, r3, #18
ARM GAS  C:\Users\Andres\AppData\Local\Temp\ccSsqcxd.s 			page 40


 1808 0062 DB43     		mvn	r3, r3
 1809 0064 2B70     		strb	r3, [r5]
 200:./AX12.h      **** 	    // Send Instructions over Serial
 201:./AX12.h      ****     //Checksum for verification data to send
 202:./AX12.h      ****     TXC_Write(2); ////habilita tx
 1810              		.loc 4 202 0
 1811 0066 0220     		mov	r0, #2
 1812              	.LVL265:
 1813 0068 FFF7FEFF 		bl	TXC_Write
 1814              	.LVL266:
 203:./AX12.h      **** 	MOTOR_PutChar(AX_START);                 
 1815              		.loc 4 203 0
 1816 006c FF20     		mov	r0, #255
 1817 006e FFF7FEFF 		bl	MOTOR_PutChar
 1818              	.LVL267:
 204:./AX12.h      **** 	MOTOR_PutChar(AX_START);
 1819              		.loc 4 204 0
 1820 0072 FF20     		mov	r0, #255
 1821 0074 FFF7FEFF 		bl	MOTOR_PutChar
 1822              	.LVL268:
 205:./AX12.h      **** 	MOTOR_PutChar(ID);
 1823              		.loc 4 205 0
 1824 0078 201C     		mov	r0, r4
 1825 007a FFF7FEFF 		bl	MOTOR_PutChar
 1826              	.LVL269:
 206:./AX12.h      **** 	MOTOR_PutChar(AX_GOAL_LENGTH);
 1827              		.loc 4 206 0
 1828 007e 0520     		mov	r0, #5
 1829 0080 FFF7FEFF 		bl	MOTOR_PutChar
 1830              	.LVL270:
 207:./AX12.h      **** 	MOTOR_PutChar(AX_WRITE_DATA);
 1831              		.loc 4 207 0
 1832 0084 0320     		mov	r0, #3
 1833 0086 FFF7FEFF 		bl	MOTOR_PutChar
 1834              	.LVL271:
 208:./AX12.h      **** 	MOTOR_PutChar(AX_CCW_ANGLE_LIMIT_L);
 1835              		.loc 4 208 0
 1836 008a 0820     		mov	r0, #8
 1837 008c FFF7FEFF 		bl	MOTOR_PutChar
 1838              	.LVL272:
 209:./AX12.h      **** 	MOTOR_PutChar(AX_CCW_AL_L);
 1839              		.loc 4 209 0
 1840 0090 FF20     		mov	r0, #255
 1841 0092 FFF7FEFF 		bl	MOTOR_PutChar
 1842              	.LVL273:
 210:./AX12.h      **** 	MOTOR_PutChar(AX_CCW_AL_H);
 1843              		.loc 4 210 0
 1844 0096 0320     		mov	r0, #3
 1845 0098 FFF7FEFF 		bl	MOTOR_PutChar
 1846              	.LVL274:
 211:./AX12.h      **** 	MOTOR_PutChar(Checksum);
 1847              		.loc 4 211 0
 1848 009c 2878     		ldrb	r0, [r5]
 1849 009e FFF7FEFF 		bl	MOTOR_PutChar
 1850              	.LVL275:
 212:./AX12.h      **** 	CyDelayUs(TX_DELAY_TIME);
 1851              		.loc 4 212 0
ARM GAS  C:\Users\Andres\AppData\Local\Temp\ccSsqcxd.s 			page 41


 1852 00a2 C820     		mov	r0, #200
 1853 00a4 4000     		lsl	r0, r0, #1
 1854 00a6 FFF7FEFF 		bl	CyDelayUs
 1855              	.LVL276:
 213:./AX12.h      ****      CyDelay(5);  /// cambio de estado delay para buffer de salida
 1856              		.loc 4 213 0
 1857 00aa 0520     		mov	r0, #5
 1858 00ac FFF7FEFF 		bl	CyDelay
 1859              	.LVL277:
 214:./AX12.h      ****     TXC_Write(1); ///habilita rx 1
 1860              		.loc 4 214 0
 1861 00b0 0120     		mov	r0, #1
 1862 00b2 FFF7FEFF 		bl	TXC_Write
 1863              	.LVL278:
 215:./AX12.h      **** 	return (error_data());                 
 1864              		.loc 4 215 0
 1865 00b6 FFF7FEFF 		bl	error_data
 1866              	.LVL279:
 1867              	.L82:
 216:./AX12.h      ****   }
 217:./AX12.h      ****  } 
 1868              		.loc 4 217 0
 1869              		@ sp needed
 1870 00ba 38BD     		pop	{r3, r4, r5, pc}
 1871              	.L84:
 1872              		.align	2
 1873              	.L83:
 1874 00bc 00000000 		.word	Checksum
 1875              		.cfi_endproc
 1876              	.LFE58:
 1877              		.size	setEndless, .-setEndless
 1878              		.section	.text.torqueStatus,"ax",%progbits
 1879              		.align	2
 1880              		.global	torqueStatus
 1881              		.code	16
 1882              		.thumb_func
 1883              		.type	torqueStatus, %function
 1884              	torqueStatus:
 1885              	.LFB59:
 218:./AX12.h      **** 
 219:./AX12.h      **** int torqueStatus( unsigned char ID, int Status){
 1886              		.loc 4 219 0
 1887              		.cfi_startproc
 1888              	.LVL280:
 1889 0000 70B5     		push	{r4, r5, r6, lr}
 1890              		.cfi_def_cfa_offset 16
 1891              		.cfi_offset 4, -16
 1892              		.cfi_offset 5, -12
 1893              		.cfi_offset 6, -8
 1894              		.cfi_offset 14, -4
 1895 0002 041C     		mov	r4, r0
 220:./AX12.h      ****     Checksum = (~(ID + AX_TORQUE_LENGTH + AX_WRITE_DATA + AX_TORQUE_ENABLE + Status))&0xFF;
 1896              		.loc 4 220 0
 1897 0004 CDB2     		uxtb	r5, r1
 1898 0006 164E     		ldr	r6, .L86
 1899 0008 2B18     		add	r3, r5, r0
 1900 000a 1F33     		add	r3, r3, #31
ARM GAS  C:\Users\Andres\AppData\Local\Temp\ccSsqcxd.s 			page 42


 1901 000c DB43     		mvn	r3, r3
 1902 000e 3370     		strb	r3, [r6]
 221:./AX12.h      ****     // Send Instructions over Serial
 222:./AX12.h      ****     //Checksum for verification data to send
 223:./AX12.h      ****     TXC_Write(2); ////habilita tx
 1903              		.loc 4 223 0
 1904 0010 0220     		mov	r0, #2
 1905              	.LVL281:
 1906 0012 FFF7FEFF 		bl	TXC_Write
 1907              	.LVL282:
 224:./AX12.h      ****     MOTOR_PutChar(AX_START); 
 1908              		.loc 4 224 0
 1909 0016 FF20     		mov	r0, #255
 1910 0018 FFF7FEFF 		bl	MOTOR_PutChar
 1911              	.LVL283:
 225:./AX12.h      ****     MOTOR_PutChar(AX_START);
 1912              		.loc 4 225 0
 1913 001c FF20     		mov	r0, #255
 1914 001e FFF7FEFF 		bl	MOTOR_PutChar
 1915              	.LVL284:
 226:./AX12.h      ****     MOTOR_PutChar(ID);
 1916              		.loc 4 226 0
 1917 0022 201C     		mov	r0, r4
 1918 0024 FFF7FEFF 		bl	MOTOR_PutChar
 1919              	.LVL285:
 227:./AX12.h      ****     MOTOR_PutChar(AX_TORQUE_LENGTH);
 1920              		.loc 4 227 0
 1921 0028 0420     		mov	r0, #4
 1922 002a FFF7FEFF 		bl	MOTOR_PutChar
 1923              	.LVL286:
 228:./AX12.h      ****     MOTOR_PutChar(AX_WRITE_DATA);
 1924              		.loc 4 228 0
 1925 002e 0320     		mov	r0, #3
 1926 0030 FFF7FEFF 		bl	MOTOR_PutChar
 1927              	.LVL287:
 229:./AX12.h      ****     MOTOR_PutChar(AX_TORQUE_ENABLE);
 1928              		.loc 4 229 0
 1929 0034 1820     		mov	r0, #24
 1930 0036 FFF7FEFF 		bl	MOTOR_PutChar
 1931              	.LVL288:
 230:./AX12.h      ****     MOTOR_PutChar(Status);
 1932              		.loc 4 230 0
 1933 003a 281C     		mov	r0, r5
 1934 003c FFF7FEFF 		bl	MOTOR_PutChar
 1935              	.LVL289:
 231:./AX12.h      ****     MOTOR_PutChar(Checksum);
 1936              		.loc 4 231 0
 1937 0040 3078     		ldrb	r0, [r6]
 1938 0042 FFF7FEFF 		bl	MOTOR_PutChar
 1939              	.LVL290:
 232:./AX12.h      ****     CyDelayUs(TX_DELAY_TIME);
 1940              		.loc 4 232 0
 1941 0046 C820     		mov	r0, #200
 1942 0048 4000     		lsl	r0, r0, #1
 1943 004a FFF7FEFF 		bl	CyDelayUs
 1944              	.LVL291:
 233:./AX12.h      ****      CyDelay(5);  /// cambio de estado delay para buffer de salida
ARM GAS  C:\Users\Andres\AppData\Local\Temp\ccSsqcxd.s 			page 43


 1945              		.loc 4 233 0
 1946 004e 0520     		mov	r0, #5
 1947 0050 FFF7FEFF 		bl	CyDelay
 1948              	.LVL292:
 234:./AX12.h      ****     TXC_Write(1); ///habilita rx 1
 1949              		.loc 4 234 0
 1950 0054 0120     		mov	r0, #1
 1951 0056 FFF7FEFF 		bl	TXC_Write
 1952              	.LVL293:
 235:./AX12.h      ****     // Return the read error
 236:./AX12.h      ****     return (error_data());               
 1953              		.loc 4 236 0
 1954 005a FFF7FEFF 		bl	error_data
 1955              	.LVL294:
 237:./AX12.h      **** }
 1956              		.loc 4 237 0
 1957              		@ sp needed
 1958 005e 70BD     		pop	{r4, r5, r6, pc}
 1959              	.L87:
 1960              		.align	2
 1961              	.L86:
 1962 0060 00000000 		.word	Checksum
 1963              		.cfi_endproc
 1964              	.LFE59:
 1965              		.size	torqueStatus, .-torqueStatus
 1966              		.section	.text.MoveSpeed,"ax",%progbits
 1967              		.align	2
 1968              		.global	MoveSpeed
 1969              		.code	16
 1970              		.thumb_func
 1971              		.type	MoveSpeed, %function
 1972              	MoveSpeed:
 1973              	.LFB60:
 238:./AX12.h      **** 
 239:./AX12.h      **** int MoveSpeed(unsigned char ID, int Position, int Speed){
 1974              		.loc 4 239 0
 1975              		.cfi_startproc
 1976              	.LVL295:
 1977 0000 F0B5     		push	{r4, r5, r6, r7, lr}
 1978              		.cfi_def_cfa_offset 20
 1979              		.cfi_offset 4, -20
 1980              		.cfi_offset 5, -16
 1981              		.cfi_offset 6, -12
 1982              		.cfi_offset 7, -8
 1983              		.cfi_offset 14, -4
 1984 0002 4746     		mov	r7, r8
 1985 0004 80B4     		push	{r7}
 1986              		.cfi_def_cfa_offset 24
 1987              		.cfi_offset 8, -24
 1988 0006 82B0     		sub	sp, sp, #8
 1989              		.cfi_def_cfa_offset 32
 240:./AX12.h      ****     char Position_H,Position_L,Speed_H,Speed_L;
 241:./AX12.h      ****     //Shift register 16 bits
 242:./AX12.h      ****     Position_H = Position >> 8;    
 1990              		.loc 4 242 0
 1991 0008 0B12     		asr	r3, r1, #8
 1992 000a DBB2     		uxtb	r3, r3
ARM GAS  C:\Users\Andres\AppData\Local\Temp\ccSsqcxd.s 			page 44


 1993 000c 9846     		mov	r8, r3
 1994              	.LVL296:
 243:./AX12.h      ****     Position_L = Position;                
 1995              		.loc 4 243 0
 1996 000e CEB2     		uxtb	r6, r1
 1997              	.LVL297:
 244:./AX12.h      ****     //Shift register 16 bits
 245:./AX12.h      ****     Speed_H = Speed >> 8;
 1998              		.loc 4 245 0
 1999 0010 1712     		asr	r7, r2, #8
 2000 0012 FFB2     		uxtb	r7, r7
 2001              	.LVL298:
 246:./AX12.h      ****     Speed_L = Speed;        
 2002              		.loc 4 246 0
 2003 0014 D4B2     		uxtb	r4, r2
 2004              	.LVL299:
 247:./AX12.h      ****     //Checksum for verification data to send
 248:./AX12.h      **** 	Checksum = (~(ID + AX_GOAL_SP_LENGTH + AX_WRITE_DATA + AX_GOAL_POSITION_L + Position_L + Position_
 2005              		.loc 4 248 0
 2006 0016 1E4D     		ldr	r5, .L89
 2007 0018 0190     		str	r0, [sp, #4]
 2008 001a 8319     		add	r3, r0, r6
 2009 001c 4344     		add	r3, r3, r8
 2010 001e E318     		add	r3, r4, r3
 2011 0020 FB18     		add	r3, r7, r3
 2012 0022 2833     		add	r3, r3, #40
 2013 0024 DB43     		mvn	r3, r3
 2014 0026 2B70     		strb	r3, [r5]
 249:./AX12.h      ****     // Send Instructions over Serial
 250:./AX12.h      ****     TXC_Write(2); ////habilita tx
 2015              		.loc 4 250 0
 2016 0028 0220     		mov	r0, #2
 2017              	.LVL300:
 2018 002a FFF7FEFF 		bl	TXC_Write
 2019              	.LVL301:
 251:./AX12.h      ****     MOTOR_PutChar(AX_START);
 2020              		.loc 4 251 0
 2021 002e FF20     		mov	r0, #255
 2022 0030 FFF7FEFF 		bl	MOTOR_PutChar
 2023              	.LVL302:
 252:./AX12.h      ****     MOTOR_PutChar(AX_START);
 2024              		.loc 4 252 0
 2025 0034 FF20     		mov	r0, #255
 2026 0036 FFF7FEFF 		bl	MOTOR_PutChar
 2027              	.LVL303:
 253:./AX12.h      ****     MOTOR_PutChar(ID);
 2028              		.loc 4 253 0
 2029 003a 0198     		ldr	r0, [sp, #4]
 2030 003c FFF7FEFF 		bl	MOTOR_PutChar
 2031              	.LVL304:
 254:./AX12.h      ****     MOTOR_PutChar(AX_GOAL_SP_LENGTH);
 2032              		.loc 4 254 0
 2033 0040 0720     		mov	r0, #7
 2034 0042 FFF7FEFF 		bl	MOTOR_PutChar
 2035              	.LVL305:
 255:./AX12.h      ****     MOTOR_PutChar(AX_WRITE_DATA);
 2036              		.loc 4 255 0
ARM GAS  C:\Users\Andres\AppData\Local\Temp\ccSsqcxd.s 			page 45


 2037 0046 0320     		mov	r0, #3
 2038 0048 FFF7FEFF 		bl	MOTOR_PutChar
 2039              	.LVL306:
 256:./AX12.h      ****     MOTOR_PutChar(AX_GOAL_POSITION_L);
 2040              		.loc 4 256 0
 2041 004c 1E20     		mov	r0, #30
 2042 004e FFF7FEFF 		bl	MOTOR_PutChar
 2043              	.LVL307:
 257:./AX12.h      ****     MOTOR_PutChar(Position_L);
 2044              		.loc 4 257 0
 2045 0052 301C     		mov	r0, r6
 2046 0054 FFF7FEFF 		bl	MOTOR_PutChar
 2047              	.LVL308:
 258:./AX12.h      ****     MOTOR_PutChar(Position_H);
 2048              		.loc 4 258 0
 2049 0058 4046     		mov	r0, r8
 2050 005a FFF7FEFF 		bl	MOTOR_PutChar
 2051              	.LVL309:
 259:./AX12.h      ****     MOTOR_PutChar(Speed_L);
 2052              		.loc 4 259 0
 2053 005e 201C     		mov	r0, r4
 2054 0060 FFF7FEFF 		bl	MOTOR_PutChar
 2055              	.LVL310:
 260:./AX12.h      ****     MOTOR_PutChar(Speed_H);
 2056              		.loc 4 260 0
 2057 0064 381C     		mov	r0, r7
 2058 0066 FFF7FEFF 		bl	MOTOR_PutChar
 2059              	.LVL311:
 261:./AX12.h      ****     MOTOR_PutChar(Checksum);
 2060              		.loc 4 261 0
 2061 006a 2878     		ldrb	r0, [r5]
 2062 006c FFF7FEFF 		bl	MOTOR_PutChar
 2063              	.LVL312:
 262:./AX12.h      ****     CyDelayUs(TX_DELAY_TIME);
 2064              		.loc 4 262 0
 2065 0070 C820     		mov	r0, #200
 2066 0072 4000     		lsl	r0, r0, #1
 2067 0074 FFF7FEFF 		bl	CyDelayUs
 2068              	.LVL313:
 263:./AX12.h      ****      CyDelay(5);  /// cambio de estado delay para buffer de salida
 2069              		.loc 4 263 0
 2070 0078 0520     		mov	r0, #5
 2071 007a FFF7FEFF 		bl	CyDelay
 2072              	.LVL314:
 264:./AX12.h      ****     TXC_Write(1); ///habilita rx 1
 2073              		.loc 4 264 0
 2074 007e 0120     		mov	r0, #1
 2075 0080 FFF7FEFF 		bl	TXC_Write
 2076              	.LVL315:
 265:./AX12.h      ****     return (error_data());                
 2077              		.loc 4 265 0
 2078 0084 FFF7FEFF 		bl	error_data
 2079              	.LVL316:
 266:./AX12.h      **** }
 2080              		.loc 4 266 0
 2081 0088 02B0     		add	sp, sp, #8
 2082              		@ sp needed
ARM GAS  C:\Users\Andres\AppData\Local\Temp\ccSsqcxd.s 			page 46


 2083              	.LVL317:
 2084              	.LVL318:
 2085              	.LVL319:
 2086              	.LVL320:
 2087 008a 04BC     		pop	{r2}
 2088 008c 9046     		mov	r8, r2
 2089 008e F0BD     		pop	{r4, r5, r6, r7, pc}
 2090              	.L90:
 2091              		.align	2
 2092              	.L89:
 2093 0090 00000000 		.word	Checksum
 2094              		.cfi_endproc
 2095              	.LFE60:
 2096              		.size	MoveSpeed, .-MoveSpeed
 2097              		.section	.text.moveRW,"ax",%progbits
 2098              		.align	2
 2099              		.global	moveRW
 2100              		.code	16
 2101              		.thumb_func
 2102              		.type	moveRW, %function
 2103              	moveRW:
 2104              	.LFB61:
 267:./AX12.h      **** 
 268:./AX12.h      **** int moveRW(unsigned char ID, int Position){
 2105              		.loc 4 268 0
 2106              		.cfi_startproc
 2107              	.LVL321:
 2108 0000 F8B5     		push	{r3, r4, r5, r6, r7, lr}
 2109              		.cfi_def_cfa_offset 24
 2110              		.cfi_offset 3, -24
 2111              		.cfi_offset 4, -20
 2112              		.cfi_offset 5, -16
 2113              		.cfi_offset 6, -12
 2114              		.cfi_offset 7, -8
 2115              		.cfi_offset 14, -4
 2116 0002 041C     		mov	r4, r0
 269:./AX12.h      ****     char Position_H,Position_L;
 270:./AX12.h      ****     //Shift register 16 bits
 271:./AX12.h      ****     Position_H = Position >> 8;           
 2117              		.loc 4 271 0
 2118 0004 0E12     		asr	r6, r1, #8
 2119 0006 F6B2     		uxtb	r6, r6
 2120              	.LVL322:
 272:./AX12.h      ****     Position_L = Position;
 2121              		.loc 4 272 0
 2122 0008 CDB2     		uxtb	r5, r1
 2123              	.LVL323:
 273:./AX12.h      ****     //Checksum for verification data to send
 274:./AX12.h      ****     Checksum = (~(ID + AX_GOAL_LENGTH + AX_REG_WRITE + AX_GOAL_POSITION_L + Position_L + Position_H
 2124              		.loc 4 274 0
 2125 000a 184F     		ldr	r7, .L92
 2126 000c 4319     		add	r3, r0, r5
 2127 000e F318     		add	r3, r6, r3
 2128 0010 2733     		add	r3, r3, #39
 2129 0012 DB43     		mvn	r3, r3
 2130 0014 3B70     		strb	r3, [r7]
 275:./AX12.h      ****     // Send Instructions over Serial
ARM GAS  C:\Users\Andres\AppData\Local\Temp\ccSsqcxd.s 			page 47


 276:./AX12.h      ****     TXC_Write(2); ////habilita tx
 2131              		.loc 4 276 0
 2132 0016 0220     		mov	r0, #2
 2133              	.LVL324:
 2134 0018 FFF7FEFF 		bl	TXC_Write
 2135              	.LVL325:
 277:./AX12.h      ****     MOTOR_PutChar(AX_START); 
 2136              		.loc 4 277 0
 2137 001c FF20     		mov	r0, #255
 2138 001e FFF7FEFF 		bl	MOTOR_PutChar
 2139              	.LVL326:
 278:./AX12.h      ****     MOTOR_PutChar(AX_START);
 2140              		.loc 4 278 0
 2141 0022 FF20     		mov	r0, #255
 2142 0024 FFF7FEFF 		bl	MOTOR_PutChar
 2143              	.LVL327:
 279:./AX12.h      ****     MOTOR_PutChar(ID);
 2144              		.loc 4 279 0
 2145 0028 201C     		mov	r0, r4
 2146 002a FFF7FEFF 		bl	MOTOR_PutChar
 2147              	.LVL328:
 280:./AX12.h      ****     MOTOR_PutChar(AX_GOAL_LENGTH);
 2148              		.loc 4 280 0
 2149 002e 0520     		mov	r0, #5
 2150 0030 FFF7FEFF 		bl	MOTOR_PutChar
 2151              	.LVL329:
 281:./AX12.h      ****     MOTOR_PutChar(AX_REG_WRITE);
 2152              		.loc 4 281 0
 2153 0034 0420     		mov	r0, #4
 2154 0036 FFF7FEFF 		bl	MOTOR_PutChar
 2155              	.LVL330:
 282:./AX12.h      ****     MOTOR_PutChar(AX_GOAL_POSITION_L);
 2156              		.loc 4 282 0
 2157 003a 1E20     		mov	r0, #30
 2158 003c FFF7FEFF 		bl	MOTOR_PutChar
 2159              	.LVL331:
 283:./AX12.h      ****     MOTOR_PutChar(Position_L);
 2160              		.loc 4 283 0
 2161 0040 281C     		mov	r0, r5
 2162 0042 FFF7FEFF 		bl	MOTOR_PutChar
 2163              	.LVL332:
 284:./AX12.h      ****     MOTOR_PutChar(Position_H);
 2164              		.loc 4 284 0
 2165 0046 301C     		mov	r0, r6
 2166 0048 FFF7FEFF 		bl	MOTOR_PutChar
 2167              	.LVL333:
 285:./AX12.h      ****     MOTOR_PutChar(Checksum);
 2168              		.loc 4 285 0
 2169 004c 3878     		ldrb	r0, [r7]
 2170 004e FFF7FEFF 		bl	MOTOR_PutChar
 2171              	.LVL334:
 286:./AX12.h      **** 	CyDelayUs(TX_DELAY_TIME);
 2172              		.loc 4 286 0
 2173 0052 C820     		mov	r0, #200
 2174 0054 4000     		lsl	r0, r0, #1
 2175 0056 FFF7FEFF 		bl	CyDelayUs
 2176              	.LVL335:
ARM GAS  C:\Users\Andres\AppData\Local\Temp\ccSsqcxd.s 			page 48


 287:./AX12.h      ****      CyDelay(5);  /// cambio de estado delay para buffer de salida
 2177              		.loc 4 287 0
 2178 005a 0520     		mov	r0, #5
 2179 005c FFF7FEFF 		bl	CyDelay
 2180              	.LVL336:
 288:./AX12.h      ****     TXC_Write(1); ///habilita rx 1
 2181              		.loc 4 288 0
 2182 0060 0120     		mov	r0, #1
 2183 0062 FFF7FEFF 		bl	TXC_Write
 2184              	.LVL337:
 289:./AX12.h      ****     return (error_data());                  
 2185              		.loc 4 289 0
 2186 0066 FFF7FEFF 		bl	error_data
 2187              	.LVL338:
 290:./AX12.h      **** }
 2188              		.loc 4 290 0
 2189              		@ sp needed
 2190              	.LVL339:
 2191              	.LVL340:
 2192 006a F8BD     		pop	{r3, r4, r5, r6, r7, pc}
 2193              	.L93:
 2194              		.align	2
 2195              	.L92:
 2196 006c 00000000 		.word	Checksum
 2197              		.cfi_endproc
 2198              	.LFE61:
 2199              		.size	moveRW, .-moveRW
 2200              		.section	.text.action,"ax",%progbits
 2201              		.align	2
 2202              		.global	action
 2203              		.code	16
 2204              		.thumb_func
 2205              		.type	action, %function
 2206              	action:
 2207              	.LFB62:
 291:./AX12.h      **** 
 292:./AX12.h      **** void action(){
 2208              		.loc 4 292 0
 2209              		.cfi_startproc
 2210 0000 08B5     		push	{r3, lr}
 2211              		.cfi_def_cfa_offset 8
 2212              		.cfi_offset 3, -8
 2213              		.cfi_offset 14, -4
 293:./AX12.h      **** 	// Send Instructions over Serial
 294:./AX12.h      ****     TXC_Write(2); ////habilita tx
 2214              		.loc 4 294 0
 2215 0002 0220     		mov	r0, #2
 2216 0004 FFF7FEFF 		bl	TXC_Write
 2217              	.LVL341:
 295:./AX12.h      ****     MOTOR_PutChar(AX_START);                
 2218              		.loc 4 295 0
 2219 0008 FF20     		mov	r0, #255
 2220 000a FFF7FEFF 		bl	MOTOR_PutChar
 2221              	.LVL342:
 296:./AX12.h      ****     MOTOR_PutChar(AX_START);
 2222              		.loc 4 296 0
 2223 000e FF20     		mov	r0, #255
ARM GAS  C:\Users\Andres\AppData\Local\Temp\ccSsqcxd.s 			page 49


 2224 0010 FFF7FEFF 		bl	MOTOR_PutChar
 2225              	.LVL343:
 297:./AX12.h      ****     MOTOR_PutChar(BROADCAST_ID);
 2226              		.loc 4 297 0
 2227 0014 FE20     		mov	r0, #254
 2228 0016 FFF7FEFF 		bl	MOTOR_PutChar
 2229              	.LVL344:
 298:./AX12.h      ****     MOTOR_PutChar(AX_ACTION_LENGTH);
 2230              		.loc 4 298 0
 2231 001a 0220     		mov	r0, #2
 2232 001c FFF7FEFF 		bl	MOTOR_PutChar
 2233              	.LVL345:
 299:./AX12.h      ****     MOTOR_PutChar(AX_ACTION);
 2234              		.loc 4 299 0
 2235 0020 0520     		mov	r0, #5
 2236 0022 FFF7FEFF 		bl	MOTOR_PutChar
 2237              	.LVL346:
 300:./AX12.h      ****     MOTOR_PutChar(AX_ACTION_CHECKSUM);
 2238              		.loc 4 300 0
 2239 0026 FA20     		mov	r0, #250
 2240 0028 FFF7FEFF 		bl	MOTOR_PutChar
 2241              	.LVL347:
 301:./AX12.h      **** 	CyDelayUs(TX_DELAY_TIME);
 2242              		.loc 4 301 0
 2243 002c C820     		mov	r0, #200
 2244 002e 4000     		lsl	r0, r0, #1
 2245 0030 FFF7FEFF 		bl	CyDelayUs
 2246              	.LVL348:
 302:./AX12.h      ****      CyDelay(5);  /// cambio de estado delay para buffer de salida
 2247              		.loc 4 302 0
 2248 0034 0520     		mov	r0, #5
 2249 0036 FFF7FEFF 		bl	CyDelay
 2250              	.LVL349:
 303:./AX12.h      ****     TXC_Write(1); ///habilita rx 1
 2251              		.loc 4 303 0
 2252 003a 0120     		mov	r0, #1
 2253 003c FFF7FEFF 		bl	TXC_Write
 2254              	.LVL350:
 304:./AX12.h      **** }
 2255              		.loc 4 304 0
 2256              		@ sp needed
 2257 0040 08BD     		pop	{r3, pc}
 2258              		.cfi_endproc
 2259              	.LFE62:
 2260              		.size	action, .-action
 2261 0042 C046     		.section	.text.turn,"ax",%progbits
 2262              		.align	2
 2263              		.global	turn
 2264              		.code	16
 2265              		.thumb_func
 2266              		.type	turn, %function
 2267              	turn:
 2268              	.LFB63:
 305:./AX12.h      **** 
 306:./AX12.h      **** int turn(unsigned char ID, int SIDE, int Speed){		
 2269              		.loc 4 306 0
 2270              		.cfi_startproc
ARM GAS  C:\Users\Andres\AppData\Local\Temp\ccSsqcxd.s 			page 50


 2271              	.LVL351:
 2272 0000 F8B5     		push	{r3, r4, r5, r6, r7, lr}
 2273              		.cfi_def_cfa_offset 24
 2274              		.cfi_offset 3, -24
 2275              		.cfi_offset 4, -20
 2276              		.cfi_offset 5, -16
 2277              		.cfi_offset 6, -12
 2278              		.cfi_offset 7, -8
 2279              		.cfi_offset 14, -4
 2280 0002 051C     		mov	r5, r0
 307:./AX12.h      **** 		if (SIDE == 0){                          
 2281              		.loc 4 307 0
 2282 0004 0029     		cmp	r1, #0
 2283 0006 33D1     		bne	.L96
 2284              	.LBB2:
 308:./AX12.h      **** 			//Left Move
 309:./AX12.h      **** 			char Speed_H,Speed_L;
 310:./AX12.h      ****             //Shift register 16 bits
 311:./AX12.h      **** 			Speed_H = Speed >> 8;
 2285              		.loc 4 311 0
 2286 0008 1612     		asr	r6, r2, #8
 2287 000a F6B2     		uxtb	r6, r6
 2288              	.LVL352:
 312:./AX12.h      **** 			Speed_L = Speed;        
 2289              		.loc 4 312 0
 2290 000c D4B2     		uxtb	r4, r2
 2291              	.LVL353:
 313:./AX12.h      ****             //Checksum for verification data to send
 314:./AX12.h      **** 			Checksum = (~(ID + AX_SPEED_LENGTH + AX_WRITE_DATA + AX_GOAL_SPEED_L + Speed_L + Speed_H))&0xFF;
 2292              		.loc 4 314 0
 2293 000e 334F     		ldr	r7, .L98
 2294 0010 0319     		add	r3, r0, r4
 2295 0012 F318     		add	r3, r6, r3
 2296 0014 2833     		add	r3, r3, #40
 2297 0016 DB43     		mvn	r3, r3
 2298 0018 3B70     		strb	r3, [r7]
 315:./AX12.h      **** 		    // Send Instructions over Serial
 316:./AX12.h      ****             TXC_Write(2); ////habilita tx
 2299              		.loc 4 316 0
 2300 001a 0220     		mov	r0, #2
 2301              	.LVL354:
 2302 001c FFF7FEFF 		bl	TXC_Write
 2303              	.LVL355:
 317:./AX12.h      **** 			MOTOR_PutChar(AX_START);                
 2304              		.loc 4 317 0
 2305 0020 FF20     		mov	r0, #255
 2306 0022 FFF7FEFF 		bl	MOTOR_PutChar
 2307              	.LVL356:
 318:./AX12.h      **** 			MOTOR_PutChar(AX_START);
 2308              		.loc 4 318 0
 2309 0026 FF20     		mov	r0, #255
 2310 0028 FFF7FEFF 		bl	MOTOR_PutChar
 2311              	.LVL357:
 319:./AX12.h      **** 			MOTOR_PutChar(ID);
 2312              		.loc 4 319 0
 2313 002c 281C     		mov	r0, r5
 2314 002e FFF7FEFF 		bl	MOTOR_PutChar
ARM GAS  C:\Users\Andres\AppData\Local\Temp\ccSsqcxd.s 			page 51


 2315              	.LVL358:
 320:./AX12.h      **** 			MOTOR_PutChar(AX_SPEED_LENGTH);
 2316              		.loc 4 320 0
 2317 0032 0520     		mov	r0, #5
 2318 0034 FFF7FEFF 		bl	MOTOR_PutChar
 2319              	.LVL359:
 321:./AX12.h      **** 			MOTOR_PutChar(AX_WRITE_DATA);
 2320              		.loc 4 321 0
 2321 0038 0320     		mov	r0, #3
 2322 003a FFF7FEFF 		bl	MOTOR_PutChar
 2323              	.LVL360:
 322:./AX12.h      **** 			MOTOR_PutChar(AX_GOAL_SPEED_L);
 2324              		.loc 4 322 0
 2325 003e 2020     		mov	r0, #32
 2326 0040 FFF7FEFF 		bl	MOTOR_PutChar
 2327              	.LVL361:
 323:./AX12.h      **** 			MOTOR_PutChar(Speed_L);
 2328              		.loc 4 323 0
 2329 0044 201C     		mov	r0, r4
 2330 0046 FFF7FEFF 		bl	MOTOR_PutChar
 2331              	.LVL362:
 324:./AX12.h      **** 			MOTOR_PutChar(Speed_H);
 2332              		.loc 4 324 0
 2333 004a 301C     		mov	r0, r6
 2334 004c FFF7FEFF 		bl	MOTOR_PutChar
 2335              	.LVL363:
 325:./AX12.h      **** 			MOTOR_PutChar(Checksum);
 2336              		.loc 4 325 0
 2337 0050 3878     		ldrb	r0, [r7]
 2338 0052 FFF7FEFF 		bl	MOTOR_PutChar
 2339              	.LVL364:
 326:./AX12.h      **** 			CyDelayUs(TX_DELAY_TIME);
 2340              		.loc 4 326 0
 2341 0056 C820     		mov	r0, #200
 2342 0058 4000     		lsl	r0, r0, #1
 2343 005a FFF7FEFF 		bl	CyDelayUs
 2344              	.LVL365:
 327:./AX12.h      ****              CyDelay(5);  /// cambio de estado delay para buffer de salida
 2345              		.loc 4 327 0
 2346 005e 0520     		mov	r0, #5
 2347 0060 FFF7FEFF 		bl	CyDelay
 2348              	.LVL366:
 328:./AX12.h      ****              TXC_Write(1); ///habilita rx 1
 2349              		.loc 4 328 0
 2350 0064 0120     		mov	r0, #1
 2351 0066 FFF7FEFF 		bl	TXC_Write
 2352              	.LVL367:
 329:./AX12.h      **** 			return (error_data());                	
 2353              		.loc 4 329 0
 2354 006a FFF7FEFF 		bl	error_data
 2355              	.LVL368:
 2356 006e 33E0     		b	.L97
 2357              	.LVL369:
 2358              	.L96:
 2359              	.LBE2:
 2360              	.LBB3:
 330:./AX12.h      **** 		}
ARM GAS  C:\Users\Andres\AppData\Local\Temp\ccSsqcxd.s 			page 52


 331:./AX12.h      **** 		else
 332:./AX12.h      **** 		{                                            
 333:./AX12.h      ****             // Rigth Move
 334:./AX12.h      **** 			char Speed_H,Speed_L;
 335:./AX12.h      ****             //Shift register 16 bits
 336:./AX12.h      **** 			Speed_H = (Speed >> 8) + 4;
 2361              		.loc 4 336 0
 2362 0070 1612     		asr	r6, r2, #8
 2363 0072 0436     		add	r6, r6, #4
 2364 0074 F6B2     		uxtb	r6, r6
 2365              	.LVL370:
 337:./AX12.h      **** 			Speed_L = Speed;              
 2366              		.loc 4 337 0
 2367 0076 D4B2     		uxtb	r4, r2
 2368              	.LVL371:
 338:./AX12.h      ****             //Checksum for verification data to send
 339:./AX12.h      **** 			Checksum = (~(ID + AX_SPEED_LENGTH + AX_WRITE_DATA + AX_GOAL_SPEED_L + Speed_L + Speed_H))&0xFF;
 2369              		.loc 4 339 0
 2370 0078 184F     		ldr	r7, .L98
 2371 007a 0319     		add	r3, r0, r4
 2372 007c F318     		add	r3, r6, r3
 2373 007e 2833     		add	r3, r3, #40
 2374 0080 DB43     		mvn	r3, r3
 2375 0082 3B70     		strb	r3, [r7]
 340:./AX12.h      **** 			// Send Instructions over Serial
 341:./AX12.h      ****             TXC_Write(2); ////habilita tx
 2376              		.loc 4 341 0
 2377 0084 0220     		mov	r0, #2
 2378              	.LVL372:
 2379 0086 FFF7FEFF 		bl	TXC_Write
 2380              	.LVL373:
 342:./AX12.h      **** 			MOTOR_PutChar(AX_START);                
 2381              		.loc 4 342 0
 2382 008a FF20     		mov	r0, #255
 2383 008c FFF7FEFF 		bl	MOTOR_PutChar
 2384              	.LVL374:
 343:./AX12.h      **** 			MOTOR_PutChar(AX_START);
 2385              		.loc 4 343 0
 2386 0090 FF20     		mov	r0, #255
 2387 0092 FFF7FEFF 		bl	MOTOR_PutChar
 2388              	.LVL375:
 344:./AX12.h      **** 			MOTOR_PutChar(ID);
 2389              		.loc 4 344 0
 2390 0096 281C     		mov	r0, r5
 2391 0098 FFF7FEFF 		bl	MOTOR_PutChar
 2392              	.LVL376:
 345:./AX12.h      **** 			MOTOR_PutChar(AX_SPEED_LENGTH);
 2393              		.loc 4 345 0
 2394 009c 0520     		mov	r0, #5
 2395 009e FFF7FEFF 		bl	MOTOR_PutChar
 2396              	.LVL377:
 346:./AX12.h      **** 			MOTOR_PutChar(AX_WRITE_DATA);
 2397              		.loc 4 346 0
 2398 00a2 0320     		mov	r0, #3
 2399 00a4 FFF7FEFF 		bl	MOTOR_PutChar
 2400              	.LVL378:
 347:./AX12.h      **** 			MOTOR_PutChar(AX_GOAL_SPEED_L);
ARM GAS  C:\Users\Andres\AppData\Local\Temp\ccSsqcxd.s 			page 53


 2401              		.loc 4 347 0
 2402 00a8 2020     		mov	r0, #32
 2403 00aa FFF7FEFF 		bl	MOTOR_PutChar
 2404              	.LVL379:
 348:./AX12.h      **** 			MOTOR_PutChar(Speed_L);
 2405              		.loc 4 348 0
 2406 00ae 201C     		mov	r0, r4
 2407 00b0 FFF7FEFF 		bl	MOTOR_PutChar
 2408              	.LVL380:
 349:./AX12.h      **** 			MOTOR_PutChar(Speed_H);
 2409              		.loc 4 349 0
 2410 00b4 301C     		mov	r0, r6
 2411 00b6 FFF7FEFF 		bl	MOTOR_PutChar
 2412              	.LVL381:
 350:./AX12.h      **** 			MOTOR_PutChar(Checksum);
 2413              		.loc 4 350 0
 2414 00ba 3878     		ldrb	r0, [r7]
 2415 00bc FFF7FEFF 		bl	MOTOR_PutChar
 2416              	.LVL382:
 351:./AX12.h      **** 			CyDelayUs(TX_DELAY_TIME);
 2417              		.loc 4 351 0
 2418 00c0 C820     		mov	r0, #200
 2419 00c2 4000     		lsl	r0, r0, #1
 2420 00c4 FFF7FEFF 		bl	CyDelayUs
 2421              	.LVL383:
 352:./AX12.h      ****              CyDelay(5);  /// cambio de estado delay para buffer de salida
 2422              		.loc 4 352 0
 2423 00c8 0520     		mov	r0, #5
 2424 00ca FFF7FEFF 		bl	CyDelay
 2425              	.LVL384:
 353:./AX12.h      ****              TXC_Write(1); ///habilita rx 1	
 2426              		.loc 4 353 0
 2427 00ce 0120     		mov	r0, #1
 2428 00d0 FFF7FEFF 		bl	TXC_Write
 2429              	.LVL385:
 354:./AX12.h      **** 			return (error_data());                	
 2430              		.loc 4 354 0
 2431 00d4 FFF7FEFF 		bl	error_data
 2432              	.LVL386:
 2433              	.L97:
 2434              	.LBE3:
 355:./AX12.h      **** 		}
 356:./AX12.h      **** }
 2435              		.loc 4 356 0
 2436              		@ sp needed
 2437 00d8 F8BD     		pop	{r3, r4, r5, r6, r7, pc}
 2438              	.L99:
 2439 00da C046     		.align	2
 2440              	.L98:
 2441 00dc 00000000 		.word	Checksum
 2442              		.cfi_endproc
 2443              	.LFE63:
 2444              		.size	turn, .-turn
 2445              		.section	.text.readPosition,"ax",%progbits
 2446              		.align	2
 2447              		.global	readPosition
 2448              		.code	16
ARM GAS  C:\Users\Andres\AppData\Local\Temp\ccSsqcxd.s 			page 54


 2449              		.thumb_func
 2450              		.type	readPosition, %function
 2451              	readPosition:
 2452              	.LFB64:
 357:./AX12.h      **** int readPosition (unsigned char ID){
 2453              		.loc 4 357 0
 2454              		.cfi_startproc
 2455              	.LVL387:
 2456 0000 70B5     		push	{r4, r5, r6, lr}
 2457              		.cfi_def_cfa_offset 16
 2458              		.cfi_offset 4, -16
 2459              		.cfi_offset 5, -12
 2460              		.cfi_offset 6, -8
 2461              		.cfi_offset 14, -4
 2462 0002 051C     		mov	r5, r0
 358:./AX12.h      ****     int data;
 359:./AX12.h      **** RX_ClearRxBuffer();
 2463              		.loc 4 359 0
 2464 0004 FFF7FEFF 		bl	RX_ClearRxBuffer
 2465              	.LVL388:
 360:./AX12.h      ****   Checksum = (~(ID + AX_POS_LENGTH  + AX_READ_DATA + AX_PRESENT_POSITION_L + AX_BYTE_READ_POS))&0xF
 2466              		.loc 4 360 0
 2467 0008 3F4E     		ldr	r6, .L106
 2468 000a 2B1C     		mov	r3, r5
 2469 000c 2C33     		add	r3, r3, #44
 2470 000e DB43     		mvn	r3, r3
 2471 0010 3370     		strb	r3, [r6]
 361:./AX12.h      **** 
 362:./AX12.h      ****    TXC_Write(2); ////habilita tx
 2472              		.loc 4 362 0
 2473 0012 0220     		mov	r0, #2
 2474 0014 FFF7FEFF 		bl	TXC_Write
 2475              	.LVL389:
 363:./AX12.h      **** 
 364:./AX12.h      **** MOTOR_PutChar(AX_START);
 2476              		.loc 4 364 0
 2477 0018 FF20     		mov	r0, #255
 2478 001a FFF7FEFF 		bl	MOTOR_PutChar
 2479              	.LVL390:
 365:./AX12.h      **** MOTOR_PutChar(AX_START);
 2480              		.loc 4 365 0
 2481 001e FF20     		mov	r0, #255
 2482 0020 FFF7FEFF 		bl	MOTOR_PutChar
 2483              	.LVL391:
 366:./AX12.h      **** MOTOR_PutChar(ID);
 2484              		.loc 4 366 0
 2485 0024 281C     		mov	r0, r5
 2486 0026 FFF7FEFF 		bl	MOTOR_PutChar
 2487              	.LVL392:
 367:./AX12.h      **** MOTOR_PutChar(AX_POS_LENGTH);
 2488              		.loc 4 367 0
 2489 002a 0420     		mov	r0, #4
 2490 002c FFF7FEFF 		bl	MOTOR_PutChar
 2491              	.LVL393:
 368:./AX12.h      **** MOTOR_PutChar(AX_READ_DATA);
 2492              		.loc 4 368 0
 2493 0030 0220     		mov	r0, #2
ARM GAS  C:\Users\Andres\AppData\Local\Temp\ccSsqcxd.s 			page 55


 2494 0032 FFF7FEFF 		bl	MOTOR_PutChar
 2495              	.LVL394:
 369:./AX12.h      **** MOTOR_PutChar(AX_PRESENT_POSITION_L);
 2496              		.loc 4 369 0
 2497 0036 2420     		mov	r0, #36
 2498 0038 FFF7FEFF 		bl	MOTOR_PutChar
 2499              	.LVL395:
 370:./AX12.h      **** MOTOR_PutChar(AX_BYTE_READ_POS);
 2500              		.loc 4 370 0
 2501 003c 0220     		mov	r0, #2
 2502 003e FFF7FEFF 		bl	MOTOR_PutChar
 2503              	.LVL396:
 371:./AX12.h      **** MOTOR_PutChar(Checksum);
 2504              		.loc 4 371 0
 2505 0042 3078     		ldrb	r0, [r6]
 2506 0044 FFF7FEFF 		bl	MOTOR_PutChar
 2507              	.LVL397:
 372:./AX12.h      **** CyDelayUs(TX_DELAY_TIME);
 2508              		.loc 4 372 0
 2509 0048 C820     		mov	r0, #200
 2510 004a 4000     		lsl	r0, r0, #1
 2511 004c FFF7FEFF 		bl	CyDelayUs
 2512              	.LVL398:
 373:./AX12.h      ****  CyDelay(5);  /// cambio de estado delay para buffer de salida
 2513              		.loc 4 373 0
 2514 0050 0520     		mov	r0, #5
 2515 0052 FFF7FEFF 		bl	CyDelay
 2516              	.LVL399:
 374:./AX12.h      ****              TXC_Write(1); ///habilita rx 1	
 2517              		.loc 4 374 0
 2518 0056 0120     		mov	r0, #1
 2519 0058 FFF7FEFF 		bl	TXC_Write
 2520              	.LVL400:
 375:./AX12.h      ****             
 376:./AX12.h      **** Position_Long_Byte = -1;
 2521              		.loc 4 376 0
 2522 005c FF22     		mov	r2, #255
 2523 005e 2B4B     		ldr	r3, .L106+4
 2524 0060 1A70     		strb	r2, [r3]
 377:./AX12.h      ****             Time_Counter = 0;
 2525              		.loc 4 377 0
 2526 0062 0022     		mov	r2, #0
 2527 0064 2A4B     		ldr	r3, .L106+8
 2528 0066 1A60     		str	r2, [r3]
 378:./AX12.h      ****             CyDelay(20);/// delay de espera
 2529              		.loc 4 378 0
 2530 0068 1420     		mov	r0, #20
 2531 006a FFF7FEFF 		bl	CyDelay
 2532              	.LVL401:
 379:./AX12.h      ****             
 380:./AX12.h      ****     while((RX_GetRxBufferSize() < 7) & (Time_Counter < TIME_OUT)){
 2533              		.loc 4 380 0
 2534 006e 06E0     		b	.L101
 2535              	.L102:
 381:./AX12.h      **** 		Time_Counter++;
 2536              		.loc 4 381 0
 2537 0070 0131     		add	r1, r1, #1
ARM GAS  C:\Users\Andres\AppData\Local\Temp\ccSsqcxd.s 			page 56


 2538 0072 274B     		ldr	r3, .L106+8
 2539 0074 1960     		str	r1, [r3]
 382:./AX12.h      **** 		CyDelayUs(1000);
 2540              		.loc 4 382 0
 2541 0076 FA20     		mov	r0, #250
 2542 0078 8000     		lsl	r0, r0, #2
 2543 007a FFF7FEFF 		bl	CyDelayUs
 2544              	.LVL402:
 2545              	.L101:
 380:./AX12.h      **** 		Time_Counter++;
 2546              		.loc 4 380 0
 2547 007e FFF7FEFF 		bl	RX_GetRxBufferSize
 2548              	.LVL403:
 2549 0082 234B     		ldr	r3, .L106+8
 2550 0084 1968     		ldr	r1, [r3]
 2551 0086 0023     		mov	r3, #0
 2552 0088 0622     		mov	r2, #6
 2553 008a 1D1C     		mov	r5, r3
 2554 008c 8242     		cmp	r2, r0
 2555 008e 5D41     		adc	r5, r5, r3
 2556 0090 2A1C     		mov	r2, r5
 2557 0092 CD0F     		lsr	r5, r1, #31
 2558 0094 0920     		mov	r0, #9
 2559 0096 8842     		cmp	r0, r1
 2560 0098 6B41     		adc	r3, r3, r5
 2561 009a 1340     		and	r3, r2
 2562 009c DBB2     		uxtb	r3, r3
 2563 009e 002B     		cmp	r3, #0
 2564 00a0 E6D1     		bne	.L102
 2565 00a2 2BE0     		b	.L104
 2566              	.LVL404:
 2567              	.L105:
 383:./AX12.h      ****     }
 384:./AX12.h      ****    while (RX_GetRxBufferSize() > 0){
 385:./AX12.h      **** 		Incoming_Byte = RX_ReadRxData();
 2568              		.loc 4 385 0
 2569 00a4 FFF7FEFF 		bl	RX_ReadRxData
 2570              	.LVL405:
 2571 00a8 1A4D     		ldr	r5, .L106+12
 2572 00aa 2870     		strb	r0, [r5]
 386:./AX12.h      ****         Incoming_Byte2 = RX_ReadRxData();
 2573              		.loc 4 386 0
 2574 00ac FFF7FEFF 		bl	RX_ReadRxData
 2575              	.LVL406:
 2576 00b0 194B     		ldr	r3, .L106+16
 2577 00b2 1870     		strb	r0, [r3]
 387:./AX12.h      **** 		if ( (Incoming_Byte == 255) & (Incoming_Byte2 == 255) ){
 2578              		.loc 4 387 0
 2579 00b4 2B78     		ldrb	r3, [r5]
 2580 00b6 FF3B     		sub	r3, r3, #255
 2581 00b8 5A42     		neg	r2, r3
 2582 00ba 5341     		adc	r3, r3, r2
 2583 00bc FF38     		sub	r0, r0, #255
 2584 00be 4242     		neg	r2, r0
 2585 00c0 5041     		adc	r0, r0, r2
 2586 00c2 1842     		tst	r0, r3
 2587 00c4 1AD0     		beq	.L104
ARM GAS  C:\Users\Andres\AppData\Local\Temp\ccSsqcxd.s 			page 57


 388:./AX12.h      **** 			                          
 389:./AX12.h      **** 			RX_ReadRxData();                            // Ax-12 ID
 2588              		.loc 4 389 0
 2589 00c6 FFF7FEFF 		bl	RX_ReadRxData
 2590              	.LVL407:
 390:./AX12.h      **** 			RX_ReadRxData();                            // Length
 2591              		.loc 4 390 0
 2592 00ca FFF7FEFF 		bl	RX_ReadRxData
 2593              	.LVL408:
 391:./AX12.h      **** 			Error_Byte = RX_ReadRxData();    //error
 2594              		.loc 4 391 0
 2595 00ce FFF7FEFF 		bl	RX_ReadRxData
 2596              	.LVL409:
 2597 00d2 124B     		ldr	r3, .L106+20
 2598 00d4 1870     		strb	r0, [r3]
 392:./AX12.h      ****    			Position_Low_Byte = RX_ReadRxData();            // Position Bytes
 2599              		.loc 4 392 0
 2600 00d6 FFF7FEFF 		bl	RX_ReadRxData
 2601              	.LVL410:
 2602 00da 114D     		ldr	r5, .L106+24
 2603 00dc 2870     		strb	r0, [r5]
 393:./AX12.h      **** 			Position_High_Byte = RX_ReadRxData();           // Position Bytes  
 2604              		.loc 4 393 0
 2605 00de FFF7FEFF 		bl	RX_ReadRxData
 2606              	.LVL411:
 2607 00e2 104C     		ldr	r4, .L106+28
 2608              	.LVL412:
 2609 00e4 2070     		strb	r0, [r4]
 394:./AX12.h      ****             RX_ReadRxData();
 2610              		.loc 4 394 0
 2611 00e6 FFF7FEFF 		bl	RX_ReadRxData
 2612              	.LVL413:
 395:./AX12.h      ****             
 396:./AX12.h      **** 			data = Position_High_Byte << 8; 
 2613              		.loc 4 396 0
 2614 00ea 2478     		ldrb	r4, [r4]
 2615 00ec 2402     		lsl	r4, r4, #8
 2616              	.LVL414:
 397:./AX12.h      **** 			data = data + Position_Low_Byte;
 2617              		.loc 4 397 0
 2618 00ee 2B78     		ldrb	r3, [r5]
 2619 00f0 1C19     		add	r4, r3, r4
 2620              	.LVL415:
 398:./AX12.h      **** 		RX_ClearRxBuffer();
 2621              		.loc 4 398 0
 2622 00f2 FFF7FEFF 		bl	RX_ClearRxBuffer
 2623              	.LVL416:
 399:./AX12.h      ****             CyDelay(10);
 2624              		.loc 4 399 0
 2625 00f6 0A20     		mov	r0, #10
 2626 00f8 FFF7FEFF 		bl	CyDelay
 2627              	.LVL417:
 2628              	.L104:
 384:./AX12.h      **** 		Incoming_Byte = RX_ReadRxData();
 2629              		.loc 4 384 0
 2630 00fc FFF7FEFF 		bl	RX_GetRxBufferSize
 2631              	.LVL418:
ARM GAS  C:\Users\Andres\AppData\Local\Temp\ccSsqcxd.s 			page 58


 2632 0100 0028     		cmp	r0, #0
 2633 0102 CFD1     		bne	.L105
 400:./AX12.h      ****         
 401:./AX12.h      ****         }
 402:./AX12.h      ****         
 403:./AX12.h      ****     }
 404:./AX12.h      **** 	return (data);     // Returns the read position
 405:./AX12.h      ****     
 406:./AX12.h      **** }
 2634              		.loc 4 406 0
 2635 0104 201C     		mov	r0, r4
 2636              		@ sp needed
 2637              	.LVL419:
 2638 0106 70BD     		pop	{r4, r5, r6, pc}
 2639              	.L107:
 2640              		.align	2
 2641              	.L106:
 2642 0108 00000000 		.word	Checksum
 2643 010c 00000000 		.word	Position_Long_Byte
 2644 0110 00000000 		.word	Time_Counter
 2645 0114 00000000 		.word	Incoming_Byte
 2646 0118 00000000 		.word	Incoming_Byte2
 2647 011c 00000000 		.word	Error_Byte
 2648 0120 00000000 		.word	Position_Low_Byte
 2649 0124 00000000 		.word	Position_High_Byte
 2650              		.cfi_endproc
 2651              	.LFE64:
 2652              		.size	readPosition, .-readPosition
 2653              		.section	.text.setAngleLimit,"ax",%progbits
 2654              		.align	2
 2655              		.global	setAngleLimit
 2656              		.code	16
 2657              		.thumb_func
 2658              		.type	setAngleLimit, %function
 2659              	setAngleLimit:
 2660              	.LFB65:
 407:./AX12.h      **** int setAngleLimit(unsigned char ID, int CWLimit, int CCWLimit)
 408:./AX12.h      **** {
 2661              		.loc 4 408 0
 2662              		.cfi_startproc
 2663              	.LVL420:
 2664 0000 F0B5     		push	{r4, r5, r6, r7, lr}
 2665              		.cfi_def_cfa_offset 20
 2666              		.cfi_offset 4, -20
 2667              		.cfi_offset 5, -16
 2668              		.cfi_offset 6, -12
 2669              		.cfi_offset 7, -8
 2670              		.cfi_offset 14, -4
 2671 0002 4746     		mov	r7, r8
 2672 0004 80B4     		push	{r7}
 2673              		.cfi_def_cfa_offset 24
 2674              		.cfi_offset 8, -24
 2675 0006 82B0     		sub	sp, sp, #8
 2676              		.cfi_def_cfa_offset 32
 409:./AX12.h      **** 	char CW_H,CW_L,CCW_H,CCW_L;
 410:./AX12.h      ****     CW_H = CWLimit >> 8;    
 2677              		.loc 4 410 0
ARM GAS  C:\Users\Andres\AppData\Local\Temp\ccSsqcxd.s 			page 59


 2678 0008 0B12     		asr	r3, r1, #8
 2679 000a DBB2     		uxtb	r3, r3
 2680 000c 9846     		mov	r8, r3
 2681              	.LVL421:
 411:./AX12.h      ****     CW_L = CWLimit;                // 16 bits - 2 x 8 bits variables
 2682              		.loc 4 411 0
 2683 000e CEB2     		uxtb	r6, r1
 2684              	.LVL422:
 412:./AX12.h      ****     CCW_H = CCWLimit >> 8;
 2685              		.loc 4 412 0
 2686 0010 1712     		asr	r7, r2, #8
 2687 0012 FFB2     		uxtb	r7, r7
 2688              	.LVL423:
 413:./AX12.h      ****     CCW_L = CCWLimit;  
 2689              		.loc 4 413 0
 2690 0014 D4B2     		uxtb	r4, r2
 2691              	.LVL424:
 414:./AX12.h      **** 	Checksum = (~(ID + AX_VL_LENGTH +AX_WRITE_DATA+ AX_CW_ANGLE_LIMIT_L + CW_H + CW_L + AX_CCW_ANGLE_L
 2692              		.loc 4 414 0
 2693 0016 204D     		ldr	r5, .L109
 2694 0018 0190     		str	r0, [sp, #4]
 2695 001a 031C     		mov	r3, r0
 2696 001c 4344     		add	r3, r3, r8
 2697 001e F318     		add	r3, r6, r3
 2698 0020 FB18     		add	r3, r7, r3
 2699 0022 E318     		add	r3, r4, r3
 2700 0024 1733     		add	r3, r3, #23
 2701 0026 DB43     		mvn	r3, r3
 2702 0028 2B70     		strb	r3, [r5]
 415:./AX12.h      **** 	
 416:./AX12.h      ****   TXC_Write(2); ////habilita tx	 
 2703              		.loc 4 416 0
 2704 002a 0220     		mov	r0, #2
 2705              	.LVL425:
 2706 002c FFF7FEFF 		bl	TXC_Write
 2707              	.LVL426:
 417:./AX12.h      ****     MOTOR_PutChar(AX_START);
 2708              		.loc 4 417 0
 2709 0030 FF20     		mov	r0, #255
 2710 0032 FFF7FEFF 		bl	MOTOR_PutChar
 2711              	.LVL427:
 418:./AX12.h      **** 	MOTOR_PutChar(AX_START);
 2712              		.loc 4 418 0
 2713 0036 FF20     		mov	r0, #255
 2714 0038 FFF7FEFF 		bl	MOTOR_PutChar
 2715              	.LVL428:
 419:./AX12.h      ****     MOTOR_PutChar(ID);
 2716              		.loc 4 419 0
 2717 003c 0198     		ldr	r0, [sp, #4]
 2718 003e FFF7FEFF 		bl	MOTOR_PutChar
 2719              	.LVL429:
 420:./AX12.h      **** 	MOTOR_PutChar(AX_CCW_CW_LENGTH);
 2720              		.loc 4 420 0
 2721 0042 0820     		mov	r0, #8
 2722 0044 FFF7FEFF 		bl	MOTOR_PutChar
 2723              	.LVL430:
 421:./AX12.h      **** 	MOTOR_PutChar(AX_WRITE_DATA);
ARM GAS  C:\Users\Andres\AppData\Local\Temp\ccSsqcxd.s 			page 60


 2724              		.loc 4 421 0
 2725 0048 0320     		mov	r0, #3
 2726 004a FFF7FEFF 		bl	MOTOR_PutChar
 2727              	.LVL431:
 422:./AX12.h      **** 	MOTOR_PutChar(AX_CW_ANGLE_LIMIT_L);
 2728              		.loc 4 422 0
 2729 004e 0620     		mov	r0, #6
 2730 0050 FFF7FEFF 		bl	MOTOR_PutChar
 2731              	.LVL432:
 423:./AX12.h      ****     MOTOR_PutChar(CW_L);
 2732              		.loc 4 423 0
 2733 0054 301C     		mov	r0, r6
 2734 0056 FFF7FEFF 		bl	MOTOR_PutChar
 2735              	.LVL433:
 424:./AX12.h      ****     MOTOR_PutChar(CW_H);
 2736              		.loc 4 424 0
 2737 005a 4046     		mov	r0, r8
 2738 005c FFF7FEFF 		bl	MOTOR_PutChar
 2739              	.LVL434:
 425:./AX12.h      **** 	MOTOR_PutChar(AX_CCW_ANGLE_LIMIT_L);
 2740              		.loc 4 425 0
 2741 0060 0820     		mov	r0, #8
 2742 0062 FFF7FEFF 		bl	MOTOR_PutChar
 2743              	.LVL435:
 426:./AX12.h      ****     MOTOR_PutChar(CCW_L);
 2744              		.loc 4 426 0
 2745 0066 201C     		mov	r0, r4
 2746 0068 FFF7FEFF 		bl	MOTOR_PutChar
 2747              	.LVL436:
 427:./AX12.h      **** 	MOTOR_PutChar(CCW_H);
 2748              		.loc 4 427 0
 2749 006c 381C     		mov	r0, r7
 2750 006e FFF7FEFF 		bl	MOTOR_PutChar
 2751              	.LVL437:
 428:./AX12.h      **** 	MOTOR_PutChar(Checksum);
 2752              		.loc 4 428 0
 2753 0072 2878     		ldrb	r0, [r5]
 2754 0074 FFF7FEFF 		bl	MOTOR_PutChar
 2755              	.LVL438:
 429:./AX12.h      **** 	CyDelayUs(TX_DELAY_TIME);
 2756              		.loc 4 429 0
 2757 0078 C820     		mov	r0, #200
 2758 007a 4000     		lsl	r0, r0, #1
 2759 007c FFF7FEFF 		bl	CyDelayUs
 2760              	.LVL439:
 430:./AX12.h      **** 	CyDelay(5);
 2761              		.loc 4 430 0
 2762 0080 0520     		mov	r0, #5
 2763 0082 FFF7FEFF 		bl	CyDelay
 2764              	.LVL440:
 431:./AX12.h      **** 	 TXC_Write(1); ////habilita rx	 
 2765              		.loc 4 431 0
 2766 0086 0120     		mov	r0, #1
 2767 0088 FFF7FEFF 		bl	TXC_Write
 2768              	.LVL441:
 432:./AX12.h      ****     return (error_data()); 
 2769              		.loc 4 432 0
ARM GAS  C:\Users\Andres\AppData\Local\Temp\ccSsqcxd.s 			page 61


 2770 008c FFF7FEFF 		bl	error_data
 2771              	.LVL442:
 433:./AX12.h      **** }
 2772              		.loc 4 433 0
 2773 0090 02B0     		add	sp, sp, #8
 2774              		@ sp needed
 2775              	.LVL443:
 2776              	.LVL444:
 2777              	.LVL445:
 2778              	.LVL446:
 2779 0092 04BC     		pop	{r2}
 2780 0094 9046     		mov	r8, r2
 2781 0096 F0BD     		pop	{r4, r5, r6, r7, pc}
 2782              	.L110:
 2783              		.align	2
 2784              	.L109:
 2785 0098 00000000 		.word	Checksum
 2786              		.cfi_endproc
 2787              	.LFE65:
 2788              		.size	setAngleLimit, .-setAngleLimit
 2789              		.section	.text.asignacion,"ax",%progbits
 2790              		.align	2
 2791              		.global	asignacion
 2792              		.code	16
 2793              		.thumb_func
 2794              		.type	asignacion, %function
 2795              	asignacion:
 2796              	.LFB66:
 2797              		.file 5 "./inicio.h"
   1:./inicio.h    **** #include <VCNL4010_1.h>
   2:./inicio.h    **** #include <VCNL4010_2.h>
   3:./inicio.h    **** #include <VCNL4010_3.h>
   4:./inicio.h    **** //#include <VCNL4010_4.h>
   5:./inicio.h    **** #include <AX12.h>
   6:./inicio.h    **** #include <math.h>
   7:./inicio.h    **** #include <protocolo can.h>
   8:./inicio.h    **** 
   9:./inicio.h    **** int  ant,t,Pd,Pt,cstatus,M,Pta,errc,PositionM,pos; 
  10:./inicio.h    **** unsigned char dir=1; //////dir motor
  11:./inicio.h    **** unsigned int Pda;
  12:./inicio.h    **** uint8 Mydir=250;
  13:./inicio.h    **** uint8 dirasig ;
  14:./inicio.h    **** uint8 sumadir;
  15:./inicio.h    **** uint8 dato_enviado[8];
  16:./inicio.h    **** uint8 mailbox0[8];
  17:./inicio.h    **** float srf;
  18:./inicio.h    **** unsigned char dir,tem,tes,error,Error_Byte,Incoming_Byte2;
  19:./inicio.h    **** int amb,posicion,posicionh,posicionl;
  20:./inicio.h    **** 
  21:./inicio.h    **** /////////////////////////////////////codigo para identificar//////////////////////////
  22:./inicio.h    **** 
  23:./inicio.h    **** 
  24:./inicio.h    **** 
  25:./inicio.h    **** int asignacion(){
 2798              		.loc 5 25 0
 2799              		.cfi_startproc
 2800 0000 08B5     		push	{r3, lr}
ARM GAS  C:\Users\Andres\AppData\Local\Temp\ccSsqcxd.s 			page 62


 2801              		.cfi_def_cfa_offset 8
 2802              		.cfi_offset 3, -8
 2803              		.cfi_offset 14, -4
  26:./inicio.h    **** 
  27:./inicio.h    **** 
  28:./inicio.h    ****   dato_enviado[0]=VER ;//verificacion
 2804              		.loc 5 28 0
 2805 0002 094B     		ldr	r3, .L112
 2806 0004 7F22     		mov	r2, #127
 2807 0006 1A70     		strb	r2, [r3]
  29:./inicio.h    ****   dato_enviado[1]=DIRCS ;//dir
 2808              		.loc 5 29 0
 2809 0008 7B32     		add	r2, r2, #123
 2810 000a 5A70     		strb	r2, [r3, #1]
  30:./inicio.h    ****   dato_enviado[2]=ESCRITURA ;//operacion
 2811              		.loc 5 30 0
 2812 000c F83A     		sub	r2, r2, #248
 2813 000e 9A70     		strb	r2, [r3, #2]
  31:./inicio.h    ****   dato_enviado[3]=MEC;//lugar
 2814              		.loc 5 31 0
 2815 0010 0832     		add	r2, r2, #8
 2816 0012 DA70     		strb	r2, [r3, #3]
  32:./inicio.h    ****   dato_enviado[4]= dirasig ;  //dato... en este caso direcion para asignar
 2817              		.loc 5 32 0
 2818 0014 054A     		ldr	r2, .L112+4
 2819 0016 1278     		ldrb	r2, [r2]
 2820 0018 1A71     		strb	r2, [r3, #4]
  33:./inicio.h    **** 
  34:./inicio.h    ****       CAN_SendMsg0(); 
 2821              		.loc 5 34 0
 2822 001a FFF7FEFF 		bl	CAN_SendMsg0
 2823              	.LVL447:
  35:./inicio.h    **** CyDelay(25);
 2824              		.loc 5 35 0
 2825 001e 1920     		mov	r0, #25
 2826 0020 FFF7FEFF 		bl	CyDelay
 2827              	.LVL448:
  36:./inicio.h    **** 
  37:./inicio.h    **** return(0);
  38:./inicio.h    **** }
 2828              		.loc 5 38 0
 2829 0024 0020     		mov	r0, #0
 2830              		@ sp needed
 2831 0026 08BD     		pop	{r3, pc}
 2832              	.L113:
 2833              		.align	2
 2834              	.L112:
 2835 0028 00000000 		.word	dato_enviado
 2836 002c 00000000 		.word	dirasig
 2837              		.cfi_endproc
 2838              	.LFE66:
 2839              		.size	asignacion, .-asignacion
 2840              		.section	.text.ledoff,"ax",%progbits
 2841              		.align	2
 2842              		.global	ledoff
 2843              		.code	16
 2844              		.thumb_func
ARM GAS  C:\Users\Andres\AppData\Local\Temp\ccSsqcxd.s 			page 63


 2845              		.type	ledoff, %function
 2846              	ledoff:
 2847              	.LFB67:
  39:./inicio.h    **** int ledoff(int datas,int direccion,int led){
 2848              		.loc 5 39 0
 2849              		.cfi_startproc
 2850              	.LVL449:
 2851 0000 10B5     		push	{r4, lr}
 2852              		.cfi_def_cfa_offset 8
 2853              		.cfi_offset 4, -8
 2854              		.cfi_offset 14, -4
  40:./inicio.h    ****     
  41:./inicio.h    ****     
  42:./inicio.h    ****   dato_enviado[0]=VER ;//verificacion
 2855              		.loc 5 42 0
 2856 0002 074B     		ldr	r3, .L115
 2857 0004 7F24     		mov	r4, #127
 2858 0006 1C70     		strb	r4, [r3]
  43:./inicio.h    ****   dato_enviado[1]=direccion ;//dir
 2859              		.loc 5 43 0
 2860 0008 5970     		strb	r1, [r3, #1]
  44:./inicio.h    ****   dato_enviado[2]=ESCRITURA ;//operacion
 2861              		.loc 5 44 0
 2862 000a 0221     		mov	r1, #2
 2863              	.LVL450:
 2864 000c 9970     		strb	r1, [r3, #2]
  45:./inicio.h    ****   dato_enviado[3]=led;//lugar
 2865              		.loc 5 45 0
 2866 000e DA70     		strb	r2, [r3, #3]
  46:./inicio.h    ****   dato_enviado[4]= datas ;  //dato... en este caso direcion para asignar
 2867              		.loc 5 46 0
 2868 0010 1871     		strb	r0, [r3, #4]
  47:./inicio.h    ****     
  48:./inicio.h    ****       CAN_SendMsg0(); 
 2869              		.loc 5 48 0
 2870 0012 FFF7FEFF 		bl	CAN_SendMsg0
 2871              	.LVL451:
  49:./inicio.h    ****     
  50:./inicio.h    ****     CyDelay(25);
 2872              		.loc 5 50 0
 2873 0016 1920     		mov	r0, #25
 2874 0018 FFF7FEFF 		bl	CyDelay
 2875              	.LVL452:
  51:./inicio.h    ****     return 0;
  52:./inicio.h    **** }
 2876              		.loc 5 52 0
 2877 001c 0020     		mov	r0, #0
 2878              		@ sp needed
 2879 001e 10BD     		pop	{r4, pc}
 2880              	.L116:
 2881              		.align	2
 2882              	.L115:
 2883 0020 00000000 		.word	dato_enviado
 2884              		.cfi_endproc
 2885              	.LFE67:
 2886              		.size	ledoff, .-ledoff
 2887              		.section	.text.inicio,"ax",%progbits
ARM GAS  C:\Users\Andres\AppData\Local\Temp\ccSsqcxd.s 			page 64


 2888              		.align	2
 2889              		.global	inicio
 2890              		.code	16
 2891              		.thumb_func
 2892              		.type	inicio, %function
 2893              	inicio:
 2894              	.LFB68:
  53:./inicio.h    **** int inicio(){
 2895              		.loc 5 53 0
 2896              		.cfi_startproc
 2897 0000 10B5     		push	{r4, lr}
 2898              		.cfi_def_cfa_offset 8
 2899              		.cfi_offset 4, -8
 2900              		.cfi_offset 14, -4
 2901              	.L120:
  54:./inicio.h    ****     ini:
  55:./inicio.h    ****         Pd=readProximity_2();
 2902              		.loc 5 55 0
 2903 0002 FFF7FEFF 		bl	readProximity_2
 2904              	.LVL453:
 2905 0006 434B     		ldr	r3, .L128
 2906 0008 1860     		str	r0, [r3]
  56:./inicio.h    ****        // Pt=readProximity_4();
  57:./inicio.h    ****        
  58:./inicio.h    ****     
  59:./inicio.h    ****       
  60:./inicio.h    ****     if(Mydir!=DIRCS){
 2907              		.loc 5 60 0
 2908 000a 434B     		ldr	r3, .L128+4
 2909 000c 1B78     		ldrb	r3, [r3]
 2910 000e FA2B     		cmp	r3, #250
 2911 0010 7DD1     		bne	.L119
  61:./inicio.h    ****        goto end;
  62:./inicio.h    ****     }else{
  63:./inicio.h    ****     
  64:./inicio.h    ****     
  65:./inicio.h    ****     errc=CAN_GetErrorState();  ///////////status can
 2912              		.loc 5 65 0
 2913 0012 FFF7FEFF 		bl	CAN_GetErrorState
 2914              	.LVL454:
 2915 0016 414B     		ldr	r3, .L128+8
 2916 0018 1860     		str	r0, [r3]
  66:./inicio.h    ****         if(errc==0){
 2917              		.loc 5 66 0
 2918 001a 0028     		cmp	r0, #0
 2919 001c F1D1     		bne	.L120
  67:./inicio.h    ****       
  68:./inicio.h    ****             if(Pd>=3000){Pda=readAmbient_2(); 
 2920              		.loc 5 68 0
 2921 001e 3D4B     		ldr	r3, .L128
 2922 0020 1A68     		ldr	r2, [r3]
 2923 0022 3F4B     		ldr	r3, .L128+12
 2924 0024 9A42     		cmp	r2, r3
 2925 0026 19DD     		ble	.L121
 2926              		.loc 5 68 0 is_stmt 0 discriminator 1
 2927 0028 FFF7FEFF 		bl	readAmbient_2
 2928              	.LVL455:
ARM GAS  C:\Users\Andres\AppData\Local\Temp\ccSsqcxd.s 			page 65


 2929 002c 3D4C     		ldr	r4, .L128+16
 2930 002e 2060     		str	r0, [r4]
  69:./inicio.h    ****                 LED_3_Write(1); 
 2931              		.loc 5 69 0 is_stmt 1 discriminator 1
 2932 0030 0120     		mov	r0, #1
 2933 0032 FFF7FEFF 		bl	LED_3_Write
 2934              	.LVL456:
  70:./inicio.h    ****      Pda=readAmbient_2(); 
 2935              		.loc 5 70 0 discriminator 1
 2936 0036 FFF7FEFF 		bl	readAmbient_2
 2937              	.LVL457:
 2938 003a 2060     		str	r0, [r4]
  71:./inicio.h    ****       CyDelay(4);  
 2939              		.loc 5 71 0 discriminator 1
 2940 003c 0420     		mov	r0, #4
 2941 003e FFF7FEFF 		bl	CyDelay
 2942              	.LVL458:
  72:./inicio.h    ****     LED_3_Write(0);
 2943              		.loc 5 72 0 discriminator 1
 2944 0042 0020     		mov	r0, #0
 2945 0044 FFF7FEFF 		bl	LED_3_Write
 2946              	.LVL459:
  73:./inicio.h    ****     Pda=readAmbient_2(); 
 2947              		.loc 5 73 0 discriminator 1
 2948 0048 FFF7FEFF 		bl	readAmbient_2
 2949              	.LVL460:
 2950 004c 2060     		str	r0, [r4]
  74:./inicio.h    ****      CyDelay(4); 
 2951              		.loc 5 74 0 discriminator 1
 2952 004e 0420     		mov	r0, #4
 2953 0050 FFF7FEFF 		bl	CyDelay
 2954              	.LVL461:
  75:./inicio.h    ****               Pda=readAmbient_2(); 
 2955              		.loc 5 75 0 discriminator 1
 2956 0054 FFF7FEFF 		bl	readAmbient_2
 2957              	.LVL462:
 2958 0058 2060     		str	r0, [r4]
 2959              	.L118:
  76:./inicio.h    ****                 goto ini;
 2960              		.loc 5 76 0 discriminator 1
 2961 005a D2E7     		b	.L120
 2962              	.L121:
  77:./inicio.h    ****                           
  78:./inicio.h    ****             
  79:./inicio.h    ****         }else{
  80:./inicio.h    ****             
  81:./inicio.h    ****             
  82:./inicio.h    ****             
  83:./inicio.h    ****             
  84:./inicio.h    ****             Mydir=DIRM;
 2963              		.loc 5 84 0
 2964 005c C822     		mov	r2, #200
 2965 005e 2E4B     		ldr	r3, .L128+4
 2966 0060 1A70     		strb	r2, [r3]
  85:./inicio.h    ****             
  86:./inicio.h    ****            
  87:./inicio.h    ****             
ARM GAS  C:\Users\Andres\AppData\Local\Temp\ccSsqcxd.s 			page 66


  88:./inicio.h    ****          
  89:./inicio.h    ****       
  90:./inicio.h    **** //        /////esperar respuesta de vericacion de asignacion de dir
  91:./inicio.h    **** //        
  92:./inicio.h    ****          
  93:./inicio.h    ****             
  94:./inicio.h    ****             
  95:./inicio.h    ****             LED_2_Write(1);  ///identificador
 2967              		.loc 5 95 0
 2968 0062 0120     		mov	r0, #1
 2969 0064 FFF7FEFF 		bl	LED_2_Write
 2970              	.LVL463:
  96:./inicio.h    ****            LED_4_Write(1);///led trasero 
 2971              		.loc 5 96 0
 2972 0068 0120     		mov	r0, #1
 2973 006a FFF7FEFF 		bl	LED_4_Write
 2974              	.LVL464:
 2975              	.L122:
  97:./inicio.h    ****           
  98:./inicio.h    ****             
  99:./inicio.h    ****             asig:
 100:./inicio.h    ****             CyDelay(2000);///t para lectura amb
 2976              		.loc 5 100 0
 2977 006e FA20     		mov	r0, #250
 2978 0070 C000     		lsl	r0, r0, #3
 2979 0072 FFF7FEFF 		bl	CyDelay
 2980              	.LVL465:
 101:./inicio.h    ****          ///
 102:./inicio.h    ****             dirasig=sumadir+1;
 2981              		.loc 5 102 0
 2982 0076 2C4A     		ldr	r2, .L128+20
 2983 0078 1378     		ldrb	r3, [r2]
 2984 007a 0133     		add	r3, r3, #1
 2985 007c 2B49     		ldr	r1, .L128+24
 2986 007e 0B70     		strb	r3, [r1]
 103:./inicio.h    ****             sumadir=0;
 2987              		.loc 5 103 0
 2988 0080 0023     		mov	r3, #0
 2989 0082 1370     		strb	r3, [r2]
 104:./inicio.h    ****             asignacion();/////envio1
 2990              		.loc 5 104 0
 2991 0084 FFF7FEFF 		bl	asignacion
 2992              	.LVL466:
 105:./inicio.h    ****             while(sumadir!=dirasig){//// espera de verificacion de llegada
 2993              		.loc 5 105 0
 2994 0088 22E0     		b	.L124
 2995              	.L126:
 106:./inicio.h    ****                 
 107:./inicio.h    ****                 CyDelay(75);
 2996              		.loc 5 107 0
 2997 008a 4B20     		mov	r0, #75
 2998 008c FFF7FEFF 		bl	CyDelay
 2999              	.LVL467:
 108:./inicio.h    ****                 
 109:./inicio.h    ****             
 110:./inicio.h    ****             if(t==10){ LED_4_Write(0);
 3000              		.loc 5 110 0
ARM GAS  C:\Users\Andres\AppData\Local\Temp\ccSsqcxd.s 			page 67


 3001 0090 274B     		ldr	r3, .L128+28
 3002 0092 1B68     		ldr	r3, [r3]
 3003 0094 0A2B     		cmp	r3, #10
 3004 0096 18D1     		bne	.L125
 3005              		.loc 5 110 0 is_stmt 0 discriminator 1
 3006 0098 0020     		mov	r0, #0
 3007 009a FFF7FEFF 		bl	LED_4_Write
 3008              	.LVL468:
 111:./inicio.h    ****             dirasig= dirasig-1;
 3009              		.loc 5 111 0 is_stmt 1 discriminator 1
 3010 009e 234C     		ldr	r4, .L128+24
 3011 00a0 2178     		ldrb	r1, [r4]
 3012 00a2 0139     		sub	r1, r1, #1
 3013 00a4 C9B2     		uxtb	r1, r1
 3014 00a6 2170     		strb	r1, [r4]
 112:./inicio.h    ****             
 113:./inicio.h    ****             ledoff(0,dirasig,LEDF);
 3015              		.loc 5 113 0 discriminator 1
 3016 00a8 0020     		mov	r0, #0
 3017 00aa 0E22     		mov	r2, #14
 3018 00ac FFF7FEFF 		bl	ledoff
 3019              	.LVL469:
 114:./inicio.h    ****             ant=dirasig; ///valor real de numero de modulos
 3020              		.loc 5 114 0 discriminator 1
 3021 00b0 2378     		ldrb	r3, [r4]
 3022 00b2 204C     		ldr	r4, .L128+32
 115:./inicio.h    ****             
 116:./inicio.h    ****             ant=dirasig-1;
 3023              		.loc 5 116 0 discriminator 1
 3024 00b4 013B     		sub	r3, r3, #1
 3025 00b6 2360     		str	r3, [r4]
 117:./inicio.h    ****             CyDelay(5);
 3026              		.loc 5 117 0 discriminator 1
 3027 00b8 0520     		mov	r0, #5
 3028 00ba FFF7FEFF 		bl	CyDelay
 3029              	.LVL470:
 118:./inicio.h    ****              ledoff(0,ant,LEDF);
 3030              		.loc 5 118 0 discriminator 1
 3031 00be 2168     		ldr	r1, [r4]
 3032 00c0 0020     		mov	r0, #0
 3033 00c2 0E22     		mov	r2, #14
 3034 00c4 FFF7FEFF 		bl	ledoff
 3035              	.LVL471:
 119:./inicio.h    ****             
 120:./inicio.h    ****             goto end;
 3036              		.loc 5 120 0 discriminator 1
 3037 00c8 21E0     		b	.L119
 3038              	.L125:
 121:./inicio.h    ****                 
 122:./inicio.h    ****             }else t++;
 3039              		.loc 5 122 0
 3040 00ca 0133     		add	r3, r3, #1
 3041 00cc 184A     		ldr	r2, .L128+28
 3042 00ce 1360     		str	r3, [r2]
 3043              	.L124:
 105:./inicio.h    ****                 
 3044              		.loc 5 105 0
ARM GAS  C:\Users\Andres\AppData\Local\Temp\ccSsqcxd.s 			page 68


 3045 00d0 154B     		ldr	r3, .L128+20
 3046 00d2 1978     		ldrb	r1, [r3]
 3047 00d4 154B     		ldr	r3, .L128+24
 3048 00d6 1B78     		ldrb	r3, [r3]
 3049 00d8 9942     		cmp	r1, r3
 3050 00da D6D1     		bne	.L126
 123:./inicio.h    ****             
 124:./inicio.h    ****             
 125:./inicio.h    ****             
 126:./inicio.h    ****             }t=0;  
 3051              		.loc 5 126 0
 3052 00dc 0022     		mov	r2, #0
 3053 00de 144B     		ldr	r3, .L128+28
 3054 00e0 1A60     		str	r2, [r3]
 127:./inicio.h    ****             ledoff(1,sumadir,LEDF);
 3055              		.loc 5 127 0
 3056 00e2 0120     		mov	r0, #1
 3057 00e4 0E32     		add	r2, r2, #14
 3058 00e6 FFF7FEFF 		bl	ledoff
 3059              	.LVL472:
 128:./inicio.h    ****             if(sumadir>1){
 3060              		.loc 5 128 0
 3061 00ea 0F4B     		ldr	r3, .L128+20
 3062 00ec 1B78     		ldrb	r3, [r3]
 3063 00ee 012B     		cmp	r3, #1
 3064 00f0 09D9     		bls	.L127
 129:./inicio.h    ****                 ant=dirasig-1;
 3065              		.loc 5 129 0
 3066 00f2 0E4B     		ldr	r3, .L128+24
 3067 00f4 1978     		ldrb	r1, [r3]
 3068 00f6 0139     		sub	r1, r1, #1
 3069 00f8 0E4B     		ldr	r3, .L128+32
 3070 00fa 1960     		str	r1, [r3]
 130:./inicio.h    ****              ledoff(0,ant,LEDF);
 3071              		.loc 5 130 0
 3072 00fc 0020     		mov	r0, #0
 3073 00fe 0E22     		mov	r2, #14
 3074 0100 FFF7FEFF 		bl	ledoff
 3075              	.LVL473:
 3076 0104 B3E7     		b	.L122
 3077              	.L127:
 131:./inicio.h    ****             }else LED_4_Write(0);
 3078              		.loc 5 131 0
 3079 0106 0020     		mov	r0, #0
 3080 0108 FFF7FEFF 		bl	LED_4_Write
 3081              	.LVL474:
 3082              	.L123:
 3083 010c AFE7     		b	.L122
 3084              	.L119:
 132:./inicio.h    ****           
 133:./inicio.h    ****            
 134:./inicio.h    ****             goto asig;
 135:./inicio.h    ****             
 136:./inicio.h    ****             
 137:./inicio.h    ****             
 138:./inicio.h    ****             
 139:./inicio.h    ****             
ARM GAS  C:\Users\Andres\AppData\Local\Temp\ccSsqcxd.s 			page 69


 140:./inicio.h    ****         
 141:./inicio.h    ****         
 142:./inicio.h    ****         
 143:./inicio.h    ****         
 144:./inicio.h    ****        
 145:./inicio.h    ****       
 146:./inicio.h    ****         
 147:./inicio.h    ****         
 148:./inicio.h    ****        
 149:./inicio.h    ****        
 150:./inicio.h    ****             
 151:./inicio.h    **** 
 152:./inicio.h    ****         }
 153:./inicio.h    ****             
 154:./inicio.h    ****             
 155:./inicio.h    ****         } else goto ini;
 156:./inicio.h    ****        
 157:./inicio.h    ****     }
 158:./inicio.h    ****        
 159:./inicio.h    ****        
 160:./inicio.h    ****      end:   
 161:./inicio.h    ****      return (0);
 162:./inicio.h    ****               
 163:./inicio.h    **** }
 3085              		.loc 5 163 0
 3086 010e 0020     		mov	r0, #0
 3087              		@ sp needed
 3088 0110 10BD     		pop	{r4, pc}
 3089              	.L129:
 3090 0112 C046     		.align	2
 3091              	.L128:
 3092 0114 00000000 		.word	Pd
 3093 0118 00000000 		.word	.LANCHOR1
 3094 011c 00000000 		.word	errc
 3095 0120 B70B0000 		.word	2999
 3096 0124 00000000 		.word	Pda
 3097 0128 00000000 		.word	sumadir
 3098 012c 00000000 		.word	dirasig
 3099 0130 00000000 		.word	t
 3100 0134 00000000 		.word	ant
 3101              		.cfi_endproc
 3102              	.LFE68:
 3103              		.size	inicio, .-inicio
 3104              		.section	.text.recibmail,"ax",%progbits
 3105              		.align	2
 3106              		.global	recibmail
 3107              		.code	16
 3108              		.thumb_func
 3109              		.type	recibmail, %function
 3110              	recibmail:
 3111              	.LFB69:
 164:./inicio.h    **** 
 165:./inicio.h    **** int recibmail(){
 3112              		.loc 5 165 0
 3113              		.cfi_startproc
 3114 0000 08B5     		push	{r3, lr}
 3115              		.cfi_def_cfa_offset 8
ARM GAS  C:\Users\Andres\AppData\Local\Temp\ccSsqcxd.s 			page 70


 3116              		.cfi_offset 3, -8
 3117              		.cfi_offset 14, -4
 166:./inicio.h    **** 
 167:./inicio.h    ****  
 168:./inicio.h    ****    if( (mailbox0[0]==VER)&(mailbox0[1]==Mydir)){
 3118              		.loc 5 168 0
 3119 0002 554A     		ldr	r2, .L151
 3120 0004 1378     		ldrb	r3, [r2]
 3121 0006 5178     		ldrb	r1, [r2, #1]
 3122 0008 7F3B     		sub	r3, r3, #127
 3123 000a 5A42     		neg	r2, r3
 3124 000c 5341     		adc	r3, r3, r2
 3125 000e 534A     		ldr	r2, .L151+4
 3126 0010 1278     		ldrb	r2, [r2]
 3127 0012 521A     		sub	r2, r2, r1
 3128 0014 5142     		neg	r1, r2
 3129 0016 4A41     		adc	r2, r2, r1
 3130 0018 1A42     		tst	r2, r3
 3131 001a 00D1     		bne	.LCB2685
 3132 001c 99E0     		b	.L131	@long jump
 3133              	.LCB2685:
 169:./inicio.h    ****     
 170:./inicio.h    ****     switch(mailbox0[2]){
 3134              		.loc 5 170 0
 3135 001e 4E4B     		ldr	r3, .L151
 3136 0020 9B78     		ldrb	r3, [r3, #2]
 3137 0022 022B     		cmp	r3, #2
 3138 0024 1CD0     		beq	.L132
 3139 0026 282B     		cmp	r3, #40
 3140 0028 00D1     		bne	.LCB2691
 3141 002a 8EE0     		b	.L133	@long jump
 3142              	.LCB2691:
 3143 002c 012B     		cmp	r3, #1
 3144 002e 00D0     		beq	.LCB2693
 3145 0030 8FE0     		b	.L131	@long jump
 3146              	.LCB2693:
 171:./inicio.h    ****         ///////////////////////////////////////////////////////
 172:./inicio.h    ****          case LECM:{ 
 173:./inicio.h    ****         switch(mailbox0[3]){//////////+6+++++++++++++
 3147              		.loc 5 173 0
 3148 0032 494B     		ldr	r3, .L151
 3149 0034 DB78     		ldrb	r3, [r3, #3]
 3150 0036 032B     		cmp	r3, #3
 3151 0038 00D0     		beq	.LCB2697
 3152 003a 8AE0     		b	.L131	@long jump
 3153              	.LCB2697:
 3154              	.LBB4:
 174:./inicio.h    ****         case MOTOR:{
 175:./inicio.h    ****         char mh,ml;
 176:./inicio.h    ****              pos = readPosition(1);
 3155              		.loc 5 176 0
 3156 003c 0120     		mov	r0, #1
 3157 003e FFF7FEFF 		bl	readPosition
 3158              	.LVL475:
 3159 0042 474B     		ldr	r3, .L151+8
 3160 0044 1860     		str	r0, [r3]
 177:./inicio.h    ****             mh=pos>>8;
ARM GAS  C:\Users\Andres\AppData\Local\Temp\ccSsqcxd.s 			page 71


 3161              		.loc 5 177 0
 3162 0046 0212     		asr	r2, r0, #8
 3163              	.LVL476:
 178:./inicio.h    ****             ml=pos;
 179:./inicio.h    ****                 dato_enviado[0]=VER;
 3164              		.loc 5 179 0
 3165 0048 464B     		ldr	r3, .L151+12
 3166 004a 7F21     		mov	r1, #127
 3167 004c 1970     		strb	r1, [r3]
 180:./inicio.h    ****                 dato_enviado[1]=DIRM;
 3168              		.loc 5 180 0
 3169 004e 4931     		add	r1, r1, #73
 3170 0050 5970     		strb	r1, [r3, #1]
 181:./inicio.h    ****                 dato_enviado[2]=MOTOR;
 3171              		.loc 5 181 0
 3172 0052 C539     		sub	r1, r1, #197
 3173 0054 9970     		strb	r1, [r3, #2]
 182:./inicio.h    ****                 dato_enviado[3]=mh;
 3174              		.loc 5 182 0
 3175 0056 DA70     		strb	r2, [r3, #3]
 183:./inicio.h    ****                 dato_enviado[4]=ml;
 3176              		.loc 5 183 0
 3177 0058 1871     		strb	r0, [r3, #4]
 184:./inicio.h    ****                
 185:./inicio.h    ****                 CAN_SendMsg0();
 3178              		.loc 5 185 0
 3179 005a FFF7FEFF 		bl	CAN_SendMsg0
 3180              	.LVL477:
 3181              	.LBE4:
 186:./inicio.h    ****         
 187:./inicio.h    ****         }
 188:./inicio.h    ****             
 189:./inicio.h    ****             
 190:./inicio.h    ****             
 191:./inicio.h    ****             break;
 3182              		.loc 5 191 0
 3183 005e 78E0     		b	.L131
 3184              	.L132:
 192:./inicio.h    ****         case SENSOR1:
 193:./inicio.h    ****             switch(mailbox0[4]){
 194:./inicio.h    ****             case SAMB:///code
 195:./inicio.h    ****                 
 196:./inicio.h    ****                 break;
 197:./inicio.h    ****                 case SPROX: ///code
 198:./inicio.h    ****                 
 199:./inicio.h    ****                 break;
 200:./inicio.h    ****             
 201:./inicio.h    ****             }
 202:./inicio.h    ****             
 203:./inicio.h    ****             break;
 204:./inicio.h    ****         case SENSOR2:  
 205:./inicio.h    ****             break;
 206:./inicio.h    ****         case SENSOR3:  
 207:./inicio.h    ****             break;
 208:./inicio.h    ****         case SENSOR4: 
 209:./inicio.h    ****             break;
 210:./inicio.h    ****   
ARM GAS  C:\Users\Andres\AppData\Local\Temp\ccSsqcxd.s 			page 72


 211:./inicio.h    **** 
 212:./inicio.h    ****         }break;///////+++++++++++++++++
 213:./inicio.h    ****         
 214:./inicio.h    ****         }break;
 215:./inicio.h    ****         
 216:./inicio.h    ****         
 217:./inicio.h    ****         /////////////////////////////////////////////////////
 218:./inicio.h    ****         
 219:./inicio.h    ****         case ESCRITURA:{
 220:./inicio.h    ****         switch(mailbox0[3]){////+++++++++++++++++++++++++++++++++++
 3185              		.loc 5 220 0
 3186 0060 3D4B     		ldr	r3, .L151
 3187 0062 DB78     		ldrb	r3, [r3, #3]
 3188 0064 033B     		sub	r3, r3, #3
 3189 0066 DAB2     		uxtb	r2, r3
 3190 0068 0B2A     		cmp	r2, #11
 3191 006a 72D8     		bhi	.L131
 3192 006c 9300     		lsl	r3, r2, #2
 3193 006e 3E4A     		ldr	r2, .L151+16
 3194 0070 D358     		ldr	r3, [r2, r3]
 3195 0072 9F46     		mov	pc, r3
 3196              		.section	.rodata
 3197              		.align	2
 3198              	.L137:
 3199 0000 C0000000 		.word	.L136
 3200 0004 52010000 		.word	.L131
 3201 0008 52010000 		.word	.L131
 3202 000c 52010000 		.word	.L131
 3203 0010 52010000 		.word	.L131
 3204 0014 52010000 		.word	.L131
 3205 0018 52010000 		.word	.L131
 3206 001c 74000000 		.word	.L138
 3207 0020 DA000000 		.word	.L139
 3208 0024 F6000000 		.word	.L140
 3209 0028 12010000 		.word	.L141
 3210 002c 2E010000 		.word	.L142
 3211              		.section	.text.recibmail
 3212              	.L138:
 221:./inicio.h    ****         case MEC:{
 222:./inicio.h    **** 
 223:./inicio.h    ****            
 224:./inicio.h    ****          
 225:./inicio.h    ****               CyDelay(100);
 3213              		.loc 5 225 0
 3214 0074 6420     		mov	r0, #100
 3215 0076 FFF7FEFF 		bl	CyDelay
 3216              	.LVL478:
 226:./inicio.h    ****            LED_1_Write(1);
 3217              		.loc 5 226 0
 3218 007a 0120     		mov	r0, #1
 3219 007c FFF7FEFF 		bl	LED_1_Write
 3220              	.LVL479:
 227:./inicio.h    ****            CyDelay(100);
 3221              		.loc 5 227 0
 3222 0080 6420     		mov	r0, #100
 3223 0082 FFF7FEFF 		bl	CyDelay
 3224              	.LVL480:
ARM GAS  C:\Users\Andres\AppData\Local\Temp\ccSsqcxd.s 			page 73


 228:./inicio.h    ****            LED_1_Write(0);
 3225              		.loc 5 228 0
 3226 0086 0020     		mov	r0, #0
 3227 0088 FFF7FEFF 		bl	LED_1_Write
 3228              	.LVL481:
 229:./inicio.h    ****             if(Pda>=5000){
 3229              		.loc 5 229 0
 3230 008c 374B     		ldr	r3, .L151+20
 3231 008e 1A68     		ldr	r2, [r3]
 3232 0090 374B     		ldr	r3, .L151+24
 3233 0092 9A42     		cmp	r2, r3
 3234 0094 5DD9     		bls	.L131
 230:./inicio.h    ****                 Mydir=mailbox0[4];
 3235              		.loc 5 230 0
 3236 0096 304B     		ldr	r3, .L151
 3237 0098 1A79     		ldrb	r2, [r3, #4]
 3238 009a 304B     		ldr	r3, .L151+4
 3239 009c 1A70     		strb	r2, [r3]
 231:./inicio.h    ****                 dato_enviado[0]=VER;
 3240              		.loc 5 231 0
 3241 009e 314B     		ldr	r3, .L151+12
 3242 00a0 7F21     		mov	r1, #127
 3243 00a2 1970     		strb	r1, [r3]
 232:./inicio.h    ****                 dato_enviado[1]=DIRM;
 3244              		.loc 5 232 0
 3245 00a4 4931     		add	r1, r1, #73
 3246 00a6 5970     		strb	r1, [r3, #1]
 233:./inicio.h    ****                 dato_enviado[2]=OK;
 3247              		.loc 5 233 0
 3248 00a8 A039     		sub	r1, r1, #160
 3249 00aa 9970     		strb	r1, [r3, #2]
 234:./inicio.h    ****                 dato_enviado[3]=Mydir;
 3250              		.loc 5 234 0
 3251 00ac DA70     		strb	r2, [r3, #3]
 235:./inicio.h    ****                 dato_enviado[4]=0;
 3252              		.loc 5 235 0
 3253 00ae 0022     		mov	r2, #0
 3254 00b0 1A71     		strb	r2, [r3, #4]
 236:./inicio.h    ****                 dato_enviado[5]=0;
 3255              		.loc 5 236 0
 3256 00b2 5A71     		strb	r2, [r3, #5]
 237:./inicio.h    ****                 CAN_SendMsg0();
 3257              		.loc 5 237 0
 3258 00b4 FFF7FEFF 		bl	CAN_SendMsg0
 3259              	.LVL482:
 238:./inicio.h    ****                LED_1_Write(1); 
 3260              		.loc 5 238 0
 3261 00b8 0120     		mov	r0, #1
 3262 00ba FFF7FEFF 		bl	LED_1_Write
 3263              	.LVL483:
 3264 00be 48E0     		b	.L131
 3265              	.L136:
 239:./inicio.h    ****             }
 240:./inicio.h    ****             else;}
 241:./inicio.h    ****         break;
 242:./inicio.h    ****          case MOTOR:
 243:./inicio.h    ****             
ARM GAS  C:\Users\Andres\AppData\Local\Temp\ccSsqcxd.s 			page 74


 244:./inicio.h    ****                 PositionM = mailbox0[4] << 8;           
 3266              		.loc 5 244 0
 3267 00c0 254B     		ldr	r3, .L151
 3268 00c2 1979     		ldrb	r1, [r3, #4]
 3269 00c4 0902     		lsl	r1, r1, #8
 245:./inicio.h    ****                 PositionM = PositionM+mailbox0[5];
 3270              		.loc 5 245 0
 3271 00c6 5B79     		ldrb	r3, [r3, #5]
 3272 00c8 C918     		add	r1, r1, r3
 3273 00ca 2A4B     		ldr	r3, .L151+28
 3274 00cc 1960     		str	r1, [r3]
 246:./inicio.h    ****                 MoveSpeed(dir,PositionM,100);
 3275              		.loc 5 246 0
 3276 00ce 234B     		ldr	r3, .L151+4
 3277 00d0 5878     		ldrb	r0, [r3, #1]
 3278 00d2 6422     		mov	r2, #100
 3279 00d4 FFF7FEFF 		bl	MoveSpeed
 3280              	.LVL484:
 247:./inicio.h    ****         break;
 3281              		.loc 5 247 0
 3282 00d8 3BE0     		b	.L131
 3283              	.L139:
 248:./inicio.h    ****              case LED1:
 249:./inicio.h    ****             switch(mailbox0[4]){
 3284              		.loc 5 249 0
 3285 00da 1F4B     		ldr	r3, .L151
 3286 00dc 1B79     		ldrb	r3, [r3, #4]
 3287 00de 002B     		cmp	r3, #0
 3288 00e0 05D0     		beq	.L143
 3289 00e2 012B     		cmp	r3, #1
 3290 00e4 35D1     		bne	.L131
 250:./inicio.h    ****                 case ONM:  LED_1_Write(1);  break;
 3291              		.loc 5 250 0
 3292 00e6 0120     		mov	r0, #1
 3293 00e8 FFF7FEFF 		bl	LED_1_Write
 3294              	.LVL485:
 3295 00ec 31E0     		b	.L131
 3296              	.L143:
 251:./inicio.h    ****                 case OFFM: LED_1_Write(0);  break;
 3297              		.loc 5 251 0
 3298 00ee 0020     		mov	r0, #0
 3299 00f0 FFF7FEFF 		bl	LED_1_Write
 3300              	.LVL486:
 3301 00f4 2DE0     		b	.L131
 3302              	.L140:
 252:./inicio.h    ****                  }
 253:./inicio.h    ****         break;
 254:./inicio.h    ****              case LED2:
 255:./inicio.h    ****              switch(mailbox0[4]){
 3303              		.loc 5 255 0
 3304 00f6 184B     		ldr	r3, .L151
 3305 00f8 1B79     		ldrb	r3, [r3, #4]
 3306 00fa 002B     		cmp	r3, #0
 3307 00fc 05D0     		beq	.L145
 3308 00fe 012B     		cmp	r3, #1
 3309 0100 27D1     		bne	.L131
 256:./inicio.h    ****                 case ONM:  LED_2_Write(1);  break;
ARM GAS  C:\Users\Andres\AppData\Local\Temp\ccSsqcxd.s 			page 75


 3310              		.loc 5 256 0
 3311 0102 0120     		mov	r0, #1
 3312 0104 FFF7FEFF 		bl	LED_2_Write
 3313              	.LVL487:
 3314 0108 23E0     		b	.L131
 3315              	.L145:
 257:./inicio.h    ****                 case OFFM: LED_2_Write(0);  break;
 3316              		.loc 5 257 0
 3317 010a 0020     		mov	r0, #0
 3318 010c FFF7FEFF 		bl	LED_2_Write
 3319              	.LVL488:
 3320 0110 1FE0     		b	.L131
 3321              	.L141:
 258:./inicio.h    ****                  }
 259:./inicio.h    ****         break;
 260:./inicio.h    ****                     case LED3:
 261:./inicio.h    ****              switch(mailbox0[4]){
 3322              		.loc 5 261 0
 3323 0112 114B     		ldr	r3, .L151
 3324 0114 1B79     		ldrb	r3, [r3, #4]
 3325 0116 002B     		cmp	r3, #0
 3326 0118 05D0     		beq	.L147
 3327 011a 012B     		cmp	r3, #1
 3328 011c 19D1     		bne	.L131
 262:./inicio.h    ****                 case ONM:  LED_3_Write(1);  break;
 3329              		.loc 5 262 0
 3330 011e 0120     		mov	r0, #1
 3331 0120 FFF7FEFF 		bl	LED_3_Write
 3332              	.LVL489:
 3333 0124 15E0     		b	.L131
 3334              	.L147:
 263:./inicio.h    ****                 case OFFM: LED_3_Write(0);  break;
 3335              		.loc 5 263 0
 3336 0126 0020     		mov	r0, #0
 3337 0128 FFF7FEFF 		bl	LED_3_Write
 3338              	.LVL490:
 3339 012c 11E0     		b	.L131
 3340              	.L142:
 264:./inicio.h    ****                  }
 265:./inicio.h    ****         break;
 266:./inicio.h    ****              case LED4:
 267:./inicio.h    ****              switch(mailbox0[4]){
 3341              		.loc 5 267 0
 3342 012e 0A4B     		ldr	r3, .L151
 3343 0130 1B79     		ldrb	r3, [r3, #4]
 3344 0132 002B     		cmp	r3, #0
 3345 0134 05D0     		beq	.L149
 3346 0136 012B     		cmp	r3, #1
 3347 0138 0BD1     		bne	.L131
 268:./inicio.h    ****                 case ONM:  LED_4_Write(1);  break;
 3348              		.loc 5 268 0
 3349 013a 0120     		mov	r0, #1
 3350 013c FFF7FEFF 		bl	LED_4_Write
 3351              	.LVL491:
 3352 0140 07E0     		b	.L131
 3353              	.L149:
 269:./inicio.h    ****                 case OFFM: LED_4_Write(0);  break;
ARM GAS  C:\Users\Andres\AppData\Local\Temp\ccSsqcxd.s 			page 76


 3354              		.loc 5 269 0
 3355 0142 0020     		mov	r0, #0
 3356 0144 FFF7FEFF 		bl	LED_4_Write
 3357              	.LVL492:
 3358 0148 03E0     		b	.L131
 3359              	.L133:
 270:./inicio.h    ****                  }
 271:./inicio.h    ****         break;
 272:./inicio.h    ****         
 273:./inicio.h    ****         }//////++++++++++++++++++++++++++++++++
 274:./inicio.h    ****         }break;
 275:./inicio.h    ****         case OK:{sumadir=mailbox0[3]; }break;
 3360              		.loc 5 275 0
 3361 014a 034B     		ldr	r3, .L151
 3362 014c DA78     		ldrb	r2, [r3, #3]
 3363 014e 0A4B     		ldr	r3, .L151+32
 3364 0150 1A70     		strb	r2, [r3]
 3365              	.L131:
 276:./inicio.h    ****         /////////////////////////////////////////////////////
 277:./inicio.h    ****         }
 278:./inicio.h    ****         //////
 279:./inicio.h    ****         
 280:./inicio.h    ****         
 281:./inicio.h    ****             
 282:./inicio.h    ****             
 283:./inicio.h    ****         
 284:./inicio.h    ****    
 285:./inicio.h    ****         
 286:./inicio.h    ****     }else;
 287:./inicio.h    ****     
 288:./inicio.h    ****     
 289:./inicio.h    ****     
 290:./inicio.h    ****     
 291:./inicio.h    ****     
 292:./inicio.h    **** 
 293:./inicio.h    ****     
 294:./inicio.h    ****     
 295:./inicio.h    ****     
 296:./inicio.h    **** 
 297:./inicio.h    ****    return 0;
 298:./inicio.h    **** }
 3366              		.loc 5 298 0
 3367 0152 0020     		mov	r0, #0
 3368              		@ sp needed
 3369 0154 08BD     		pop	{r3, pc}
 3370              	.L152:
 3371 0156 C046     		.align	2
 3372              	.L151:
 3373 0158 00000000 		.word	mailbox0
 3374 015c 00000000 		.word	.LANCHOR1
 3375 0160 00000000 		.word	pos
 3376 0164 00000000 		.word	dato_enviado
 3377 0168 00000000 		.word	.L137
 3378 016c 00000000 		.word	Pda
 3379 0170 87130000 		.word	4999
 3380 0174 00000000 		.word	PositionM
 3381 0178 00000000 		.word	sumadir
ARM GAS  C:\Users\Andres\AppData\Local\Temp\ccSsqcxd.s 			page 77


 3382              		.cfi_endproc
 3383              	.LFE69:
 3384              		.size	recibmail, .-recibmail
 3385              		.section	.text.interrutcan,"ax",%progbits
 3386              		.align	2
 3387              		.global	interrutcan
 3388              		.code	16
 3389              		.thumb_func
 3390              		.type	interrutcan, %function
 3391              	interrutcan:
 3392              	.LFB72:
 3393              		.file 6 "main.c"
   1:main.c        **** #include <project.h>
   2:main.c        **** #include <inicio.h>
   3:main.c        **** 
   4:main.c        **** 
   5:main.c        **** 
   6:main.c        **** 
   7:main.c        **** CY_ISR(interrutcan){
 3394              		.loc 6 7 0
 3395              		.cfi_startproc
 3396 0000 08B5     		push	{r3, lr}
 3397              		.cfi_def_cfa_offset 8
 3398              		.cfi_offset 3, -8
 3399              		.cfi_offset 14, -4
   8:main.c        **** 
   9:main.c        **** CAN_MsgRXIsr();///para marcar la interrucion como leida y resive msm
 3400              		.loc 6 9 0
 3401 0002 FFF7FEFF 		bl	CAN_MsgRXIsr
 3402              	.LVL493:
  10:main.c        **** //CAN_INT_SR_REG = CAN_RX_MESSAGE_MASK;
  11:main.c        **** //CAN_ReceiveMsg0();
  12:main.c        **** //Pda=readAmbient_2(); 
  13:main.c        ****  recibmail();
 3403              		.loc 6 13 0
 3404 0006 FFF7FEFF 		bl	recibmail
 3405              	.LVL494:
  14:main.c        **** //  LED_3_Write(1); 
  15:main.c        **** //            CyDelay(20);
  16:main.c        **** //               LED_3_Write(0); 
  17:main.c        **** //             CyDelay(20);
  18:main.c        **** }
 3406              		.loc 6 18 0
 3407              		@ sp needed
 3408 000a 08BD     		pop	{r3, pc}
 3409              		.cfi_endproc
 3410              	.LFE72:
 3411              		.size	interrutcan, .-interrutcan
 3412              		.section	.text.movimiento,"ax",%progbits
 3413              		.align	2
 3414              		.global	movimiento
 3415              		.code	16
 3416              		.thumb_func
 3417              		.type	movimiento, %function
 3418              	movimiento:
 3419              	.LFB70:
 299:./inicio.h    **** int movimiento(unsigned int dirr,int mov){
ARM GAS  C:\Users\Andres\AppData\Local\Temp\ccSsqcxd.s 			page 78


 3420              		.loc 5 299 0
 3421              		.cfi_startproc
 3422              	.LVL495:
 3423 0000 10B5     		push	{r4, lr}
 3424              		.cfi_def_cfa_offset 8
 3425              		.cfi_offset 4, -8
 3426              		.cfi_offset 14, -4
 300:./inicio.h    **** char byteh,bytel;
 301:./inicio.h    ****    byteh= mov >> 8;
 3427              		.loc 5 301 0
 3428 0002 0B12     		asr	r3, r1, #8
 3429 0004 DAB2     		uxtb	r2, r3
 3430              	.LVL496:
 302:./inicio.h    ****    bytel=mov;
 3431              		.loc 5 302 0
 3432 0006 CCB2     		uxtb	r4, r1
 3433              	.LVL497:
 303:./inicio.h    ****     
 304:./inicio.h    ****     
 305:./inicio.h    **** //    if(dirr!=2 && dirr!=3){
 306:./inicio.h    ****     
 307:./inicio.h    ****     
 308:./inicio.h    ****     if(dirr==0){
 3434              		.loc 5 308 0
 3435 0008 0028     		cmp	r0, #0
 3436 000a 04D1     		bne	.L155
 309:./inicio.h    ****         MoveSpeed(1,mov,100);
 3437              		.loc 5 309 0
 3438 000c 0130     		add	r0, r0, #1
 3439              	.LVL498:
 3440 000e 6422     		mov	r2, #100
 3441              	.LVL499:
 3442 0010 FFF7FEFF 		bl	MoveSpeed
 3443              	.LVL500:
 3444 0014 0EE0     		b	.L156
 3445              	.LVL501:
 3446              	.L155:
 310:./inicio.h    ****     }else{
 311:./inicio.h    ****     
 312:./inicio.h    ****   dato_enviado[0]=VER ;//verificacion
 3447              		.loc 5 312 0
 3448 0016 084B     		ldr	r3, .L157
 3449 0018 7F21     		mov	r1, #127
 3450              	.LVL502:
 3451 001a 1970     		strb	r1, [r3]
 313:./inicio.h    ****   dato_enviado[1]=dirr ;//dir
 3452              		.loc 5 313 0
 3453 001c 5870     		strb	r0, [r3, #1]
 314:./inicio.h    ****   dato_enviado[2]=ESCRITURA ;//operacion
 3454              		.loc 5 314 0
 3455 001e 7D39     		sub	r1, r1, #125
 3456 0020 9970     		strb	r1, [r3, #2]
 315:./inicio.h    ****   dato_enviado[3]=MOTOR;//lugar
 3457              		.loc 5 315 0
 3458 0022 0131     		add	r1, r1, #1
 3459 0024 D970     		strb	r1, [r3, #3]
 316:./inicio.h    ****   dato_enviado[4]= byteh ;  //dato
ARM GAS  C:\Users\Andres\AppData\Local\Temp\ccSsqcxd.s 			page 79


 3460              		.loc 5 316 0
 3461 0026 1A71     		strb	r2, [r3, #4]
 317:./inicio.h    ****   dato_enviado[5]= bytel ;  //dato
 3462              		.loc 5 317 0
 3463 0028 5C71     		strb	r4, [r3, #5]
 318:./inicio.h    ****       CAN_SendMsg0(); 
 3464              		.loc 5 318 0
 3465 002a FFF7FEFF 		bl	CAN_SendMsg0
 3466              	.LVL503:
 319:./inicio.h    ****     CyDelay(25);
 3467              		.loc 5 319 0
 3468 002e 1920     		mov	r0, #25
 3469 0030 FFF7FEFF 		bl	CyDelay
 3470              	.LVL504:
 3471              	.L156:
 320:./inicio.h    ****     }
 321:./inicio.h    ****     
 322:./inicio.h    **** //    }else;
 323:./inicio.h    ****     
 324:./inicio.h    **** return 0;
 325:./inicio.h    **** }
 3472              		.loc 5 325 0
 3473 0034 0020     		mov	r0, #0
 3474              		@ sp needed
 3475              	.LVL505:
 3476 0036 10BD     		pop	{r4, pc}
 3477              	.L158:
 3478              		.align	2
 3479              	.L157:
 3480 0038 00000000 		.word	dato_enviado
 3481              		.cfi_endproc
 3482              	.LFE70:
 3483              		.size	movimiento, .-movimiento
 3484              		.global	__aeabi_i2d
 3485              		.global	__aeabi_dmul
 3486              		.global	__aeabi_ddiv
 3487              		.global	__aeabi_d2f
 3488              		.global	__aeabi_i2f
 3489              		.global	__aeabi_fmul
 3490              		.global	__aeabi_fadd
 3491              		.global	__aeabi_f2d
 3492              		.global	__aeabi_dadd
 3493              		.global	__aeabi_f2iz
 3494              		.section	.text.cal,"ax",%progbits
 3495              		.align	2
 3496              		.global	cal
 3497              		.code	16
 3498              		.thumb_func
 3499              		.type	cal, %function
 3500              	cal:
 3501              	.LFB71:
 326:./inicio.h    **** 
 327:./inicio.h    **** 
 328:./inicio.h    **** 
 329:./inicio.h    **** 
 330:./inicio.h    **** 
 331:./inicio.h    **** int cal(int df){
ARM GAS  C:\Users\Andres\AppData\Local\Temp\ccSsqcxd.s 			page 80


 3502              		.loc 5 331 0
 3503              		.cfi_startproc
 3504              	.LVL506:
 3505 0000 F0B5     		push	{r4, r5, r6, r7, lr}
 3506              		.cfi_def_cfa_offset 20
 3507              		.cfi_offset 4, -20
 3508              		.cfi_offset 5, -16
 3509              		.cfi_offset 6, -12
 3510              		.cfi_offset 7, -8
 3511              		.cfi_offset 14, -4
 3512 0002 5F46     		mov	r7, fp
 3513 0004 5646     		mov	r6, r10
 3514 0006 4D46     		mov	r5, r9
 3515 0008 4446     		mov	r4, r8
 3516 000a F0B4     		push	{r4, r5, r6, r7}
 3517              		.cfi_def_cfa_offset 36
 3518              		.cfi_offset 8, -36
 3519              		.cfi_offset 9, -32
 3520              		.cfi_offset 10, -28
 3521              		.cfi_offset 11, -24
 3522 000c 83B0     		sub	sp, sp, #12
 3523              		.cfi_def_cfa_offset 48
 3524 000e 00AF     		add	r7, sp, #0
 3525              		.cfi_def_cfa_register 7
 332:./inicio.h    **** 
 333:./inicio.h    ****     
 334:./inicio.h    ****     
 335:./inicio.h    **** if(Mydir==DIRM){  
 3526              		.loc 5 335 0
 3527 0010 3A4B     		ldr	r3, .L166
 3528 0012 1B78     		ldrb	r3, [r3]
 3529 0014 C82B     		cmp	r3, #200
 3530 0016 68D1     		bne	.L160
 3531              	.LBB5:
 3532 0018 EB46     		mov	fp, sp
 336:./inicio.h    **** int n,m,r,v;// n num de modulos, f fase ,df desfase
 337:./inicio.h    **** unsigned int f;    
 338:./inicio.h    **** m=dirasig;  
 3533              		.loc 5 338 0
 3534 001a 394B     		ldr	r3, .L166+4
 3535 001c 1C78     		ldrb	r4, [r3]
 3536              	.LVL507:
 339:./inicio.h    ****     m=m-2;//// quitar los que estan torcisdos
 3537              		.loc 5 339 0
 3538 001e A51E     		sub	r5, r4, #2
 3539              	.LVL508:
 340:./inicio.h    **** n=dirasig+1;
 341:./inicio.h    ****     
 342:./inicio.h    ****     n=n-2;/// quitar los que estan torcisdos
 3540              		.loc 5 342 0
 3541 0020 013C     		sub	r4, r4, #1
 3542              	.LVL509:
 343:./inicio.h    ****     
 344:./inicio.h    ****     
 345:./inicio.h    ****     float fx[m],theta[m],fase[m],x,dsf;//
 3543              		.loc 5 345 0
 3544 0022 AB00     		lsl	r3, r5, #2
ARM GAS  C:\Users\Andres\AppData\Local\Temp\ccSsqcxd.s 			page 81


 3545 0024 0A33     		add	r3, r3, #10
 3546 0026 DB08     		lsr	r3, r3, #3
 3547 0028 DB00     		lsl	r3, r3, #3
 3548 002a 6A46     		mov	r2, sp
 3549 002c D21A     		sub	r2, r2, r3
 3550 002e 9546     		mov	sp, r2
 3551 0030 E846     		mov	r8, sp
 3552              	.LVL510:
 3553 0032 D21A     		sub	r2, r2, r3
 3554              	.LVL511:
 3555 0034 9546     		mov	sp, r2
 3556 0036 EA46     		mov	r10, sp
 3557              	.LVL512:
 3558 0038 D31A     		sub	r3, r2, r3
 3559 003a 9D46     		mov	sp, r3
 3560 003c E946     		mov	r9, sp
 3561              	.LVL513:
 346:./inicio.h    ****     dsf=(M_PI*df)/180;
 3562              		.loc 5 346 0
 3563 003e FFF7FEFF 		bl	__aeabi_i2d
 3564              	.LVL514:
 3565 0042 304A     		ldr	r2, .L166+8
 3566 0044 304B     		ldr	r3, .L166+12
 3567 0046 FFF7FEFF 		bl	__aeabi_dmul
 3568              	.LVL515:
 3569 004a 0022     		mov	r2, #0
 3570 004c 2F4B     		ldr	r3, .L166+16
 3571 004e FFF7FEFF 		bl	__aeabi_ddiv
 3572              	.LVL516:
 3573 0052 FFF7FEFF 		bl	__aeabi_d2f
 3574              	.LVL517:
 3575 0056 7860     		str	r0, [r7, #4]
 3576              	.LVL518:
 347:./inicio.h    ****     
 348:./inicio.h    ****   srf=((2*M_PI)/n);//// recorrido de fase separamiento
 3577              		.loc 5 348 0
 3578 0058 201C     		mov	r0, r4
 3579              	.LVL519:
 3580 005a FFF7FEFF 		bl	__aeabi_i2d
 3581              	.LVL520:
 3582 005e 021C     		mov	r2, r0
 3583 0060 0B1C     		mov	r3, r1
 3584 0062 2848     		ldr	r0, .L166+8
 3585 0064 2A49     		ldr	r1, .L166+20
 3586 0066 FFF7FEFF 		bl	__aeabi_ddiv
 3587              	.LVL521:
 3588 006a FFF7FEFF 		bl	__aeabi_d2f
 3589              	.LVL522:
 3590 006e 294B     		ldr	r3, .L166+24
 3591 0070 1860     		str	r0, [r3]
 3592              	.LVL523:
 349:./inicio.h    **** 
 350:./inicio.h    **** for(r=0;r<=m;r++){
 3593              		.loc 5 350 0
 3594 0072 0024     		mov	r4, #0
 3595              	.LVL524:
 3596 0074 36E0     		b	.L161
ARM GAS  C:\Users\Andres\AppData\Local\Temp\ccSsqcxd.s 			page 82


 3597              	.LVL525:
 3598              	.L163:
 351:./inicio.h    ****     fase[r]=r*srf+dsf;
 3599              		.loc 5 351 0
 3600 0076 201C     		mov	r0, r4
 3601 0078 FFF7FEFF 		bl	__aeabi_i2f
 3602              	.LVL526:
 3603 007c 254B     		ldr	r3, .L166+24
 3604 007e 1968     		ldr	r1, [r3]
 3605 0080 FFF7FEFF 		bl	__aeabi_fmul
 3606              	.LVL527:
 3607 0084 7968     		ldr	r1, [r7, #4]
 3608 0086 FFF7FEFF 		bl	__aeabi_fadd
 3609              	.LVL528:
 3610 008a A600     		lsl	r6, r4, #2
 3611 008c 4B46     		mov	r3, r9
 3612 008e F050     		str	r0, [r6, r3]
 352:./inicio.h    ****     fx[r]=cosf(fase[r]); /////fx puntos tangentes al sen(theta)
 3613              		.loc 5 352 0
 3614 0090 FFF7FEFF 		bl	cosf
 3615              	.LVL529:
 3616 0094 4346     		mov	r3, r8
 3617 0096 F050     		str	r0, [r6, r3]
 353:./inicio.h    ****          theta[r]=atanf(fx[r]);///desplasamiento inicial del motor para cada modulo
 3618              		.loc 5 353 0
 3619 0098 FFF7FEFF 		bl	atanf
 3620              	.LVL530:
 3621 009c 5346     		mov	r3, r10
 3622 009e F050     		str	r0, [r6, r3]
 354:./inicio.h    ****                               ////en radianes
 355:./inicio.h    ****       
 356:./inicio.h    ****         
 357:./inicio.h    ****     x=theta[r]+(0.83333*M_PI);///centrando 0 del angulo
 3623              		.loc 5 357 0
 3624 00a0 FFF7FEFF 		bl	__aeabi_f2d
 3625              	.LVL531:
 3626 00a4 1C4A     		ldr	r2, .L166+28
 3627 00a6 1D4B     		ldr	r3, .L166+32
 3628 00a8 FFF7FEFF 		bl	__aeabi_dadd
 3629              	.LVL532:
 3630 00ac FFF7FEFF 		bl	__aeabi_d2f
 3631              	.LVL533:
 358:./inicio.h    ****     x=(x*1023)/(1.66666*M_PI); // covercion a bit
 3632              		.loc 5 358 0
 3633 00b0 1B49     		ldr	r1, .L166+36
 3634 00b2 FFF7FEFF 		bl	__aeabi_fmul
 3635              	.LVL534:
 3636 00b6 FFF7FEFF 		bl	__aeabi_f2d
 3637              	.LVL535:
 3638 00ba 174A     		ldr	r2, .L166+28
 3639 00bc 194B     		ldr	r3, .L166+40
 3640 00be FFF7FEFF 		bl	__aeabi_ddiv
 3641              	.LVL536:
 3642 00c2 FFF7FEFF 		bl	__aeabi_d2f
 3643              	.LVL537:
 359:./inicio.h    ****     
 360:./inicio.h    **** f= (int)x ;     ///funcion pso
ARM GAS  C:\Users\Andres\AppData\Local\Temp\ccSsqcxd.s 			page 83


 3644              		.loc 5 360 0
 3645 00c6 FFF7FEFF 		bl	__aeabi_f2iz
 3646              	.LVL538:
 3647 00ca 011C     		mov	r1, r0
 3648              	.LVL539:
 361:./inicio.h    **** //CyDelay(2000);
 362:./inicio.h    **** 
 363:./inicio.h    **** v=r;//////////asignacion de movimiento para los extremos
 364:./inicio.h    **** 
 365:./inicio.h    **** if(v==2){
 3649              		.loc 5 365 0
 3650 00cc 022C     		cmp	r4, #2
 3651 00ce 03D0     		beq	.L164
 366:./inicio.h    ****   v=4;
 367:./inicio.h    **** }else{
 368:./inicio.h    **** 
 369:./inicio.h    **** if(v==3){
 3652              		.loc 5 369 0
 3653 00d0 032C     		cmp	r4, #3
 3654 00d2 03D0     		beq	.L165
 363:./inicio.h    **** 
 3655              		.loc 5 363 0
 3656 00d4 201C     		mov	r0, r4
 3657              	.LVL540:
 3658 00d6 02E0     		b	.L162
 3659              	.LVL541:
 3660              	.L164:
 366:./inicio.h    ****   v=4;
 3661              		.loc 5 366 0
 3662 00d8 0420     		mov	r0, #4
 3663              	.LVL542:
 3664 00da 00E0     		b	.L162
 3665              	.LVL543:
 3666              	.L165:
 370:./inicio.h    ****   v=5;
 3667              		.loc 5 370 0
 3668 00dc 0520     		mov	r0, #5
 3669              	.LVL544:
 3670              	.L162:
 371:./inicio.h    **** }else;
 372:./inicio.h    **** 
 373:./inicio.h    **** }
 374:./inicio.h    **** 
 375:./inicio.h    **** 
 376:./inicio.h    **** 
 377:./inicio.h    ****     movimiento(v,f);  
 3671              		.loc 5 377 0 discriminator 2
 3672 00de FFF7FEFF 		bl	movimiento
 3673              	.LVL545:
 350:./inicio.h    ****     fase[r]=r*srf+dsf;
 3674              		.loc 5 350 0 discriminator 2
 3675 00e2 0134     		add	r4, r4, #1
 3676              	.LVL546:
 3677              	.L161:
 350:./inicio.h    ****     fase[r]=r*srf+dsf;
 3678              		.loc 5 350 0 is_stmt 0 discriminator 1
 3679 00e4 AC42     		cmp	r4, r5
ARM GAS  C:\Users\Andres\AppData\Local\Temp\ccSsqcxd.s 			page 84


 3680 00e6 C6DD     		ble	.L163
 3681 00e8 DD46     		mov	sp, fp
 3682              	.LVL547:
 3683              	.L160:
 3684              	.LBE5:
 378:./inicio.h    ****         
 379:./inicio.h    **** }   
 380:./inicio.h    **** 
 381:./inicio.h    **** 
 382:./inicio.h    **** 
 383:./inicio.h    **** 
 384:./inicio.h    ****     
 385:./inicio.h    **** 
 386:./inicio.h    ****     
 387:./inicio.h    ****     
 388:./inicio.h    ****     
 389:./inicio.h    **** }else;
 390:./inicio.h    **** 
 391:./inicio.h    **** 
 392:./inicio.h    **** 
 393:./inicio.h    **** return 0;
 394:./inicio.h    **** }
 3685              		.loc 5 394 0 is_stmt 1
 3686 00ea 0020     		mov	r0, #0
 3687 00ec BD46     		mov	sp, r7
 3688 00ee 03B0     		add	sp, sp, #12
 3689              		@ sp needed
 3690 00f0 3CBC     		pop	{r2, r3, r4, r5}
 3691 00f2 9046     		mov	r8, r2
 3692 00f4 9946     		mov	r9, r3
 3693 00f6 A246     		mov	r10, r4
 3694 00f8 AB46     		mov	fp, r5
 3695 00fa F0BD     		pop	{r4, r5, r6, r7, pc}
 3696              	.L167:
 3697              		.align	2
 3698              	.L166:
 3699 00fc 00000000 		.word	.LANCHOR1
 3700 0100 00000000 		.word	dirasig
 3701 0104 182D4454 		.word	1413754136
 3702 0108 FB210940 		.word	1074340347
 3703 010c 00806640 		.word	1080459264
 3704 0110 FB211940 		.word	1075388923
 3705 0114 00000000 		.word	srf
 3706 0118 8479B248 		.word	1219656068
 3707 011c A1F10440 		.word	1074065825
 3708 0120 00C07F44 		.word	1149222912
 3709 0124 A1F11440 		.word	1075114401
 3710              		.cfi_endproc
 3711              	.LFE71:
 3712              		.size	cal, .-cal
 3713              		.section	.text.main,"ax",%progbits
 3714              		.align	2
 3715              		.global	main
 3716              		.code	16
 3717              		.thumb_func
 3718              		.type	main, %function
 3719              	main:
ARM GAS  C:\Users\Andres\AppData\Local\Temp\ccSsqcxd.s 			page 85


 3720              	.LFB73:
  19:main.c        **** 
  20:main.c        **** 
  21:main.c        **** 
  22:main.c        **** int main()
  23:main.c        **** {  
 3721              		.loc 6 23 0
 3722              		.cfi_startproc
 3723 0000 F0B5     		push	{r4, r5, r6, r7, lr}
 3724              		.cfi_def_cfa_offset 20
 3725              		.cfi_offset 4, -20
 3726              		.cfi_offset 5, -16
 3727              		.cfi_offset 6, -12
 3728              		.cfi_offset 7, -8
 3729              		.cfi_offset 14, -4
 3730 0002 4746     		mov	r7, r8
 3731 0004 80B4     		push	{r7}
 3732              		.cfi_def_cfa_offset 24
 3733              		.cfi_offset 8, -24
  24:main.c        ****     CyGlobalIntEnable; /* Enable global interrupts. */
 3734              		.loc 6 24 0
 3735              	@ 24 "main.c" 1
 3736 0006 62B6     		CPSIE   i
 3737              	@ 0 "" 2
  25:main.c        **** 
  26:main.c        ****     //Init LED's
  27:main.c        ****     LED_1_Write(0);
 3738              		.loc 6 27 0
 3739              		.code	16
 3740 0008 0020     		mov	r0, #0
 3741 000a FFF7FEFF 		bl	LED_1_Write
 3742              	.LVL548:
  28:main.c        ****     LED_2_Write(0);
 3743              		.loc 6 28 0
 3744 000e 0020     		mov	r0, #0
 3745 0010 FFF7FEFF 		bl	LED_2_Write
 3746              	.LVL549:
  29:main.c        ****     LED_3_Write(0);
 3747              		.loc 6 29 0
 3748 0014 0020     		mov	r0, #0
 3749 0016 FFF7FEFF 		bl	LED_3_Write
 3750              	.LVL550:
  30:main.c        ****     LED_4_Write(0);
 3751              		.loc 6 30 0
 3752 001a 0020     		mov	r0, #0
 3753 001c FFF7FEFF 		bl	LED_4_Write
 3754              	.LVL551:
  31:main.c        ****     //Init Sensor's
  32:main.c        ****     SENSOR_1_Start();
 3755              		.loc 6 32 0
 3756 0020 FFF7FEFF 		bl	SENSOR_1_Start
 3757              	.LVL552:
  33:main.c        ****     SENSOR_1_Enable();
 3758              		.loc 6 33 0
 3759 0024 FFF7FEFF 		bl	SENSOR_1_Enable
 3760              	.LVL553:
  34:main.c        ****     SENSOR_2_Start();
ARM GAS  C:\Users\Andres\AppData\Local\Temp\ccSsqcxd.s 			page 86


 3761              		.loc 6 34 0
 3762 0028 FFF7FEFF 		bl	SENSOR_2_Start
 3763              	.LVL554:
  35:main.c        ****     SENSOR_2_Enable();
 3764              		.loc 6 35 0
 3765 002c FFF7FEFF 		bl	SENSOR_2_Enable
 3766              	.LVL555:
  36:main.c        ****     SENSOR_3_Start();
 3767              		.loc 6 36 0
 3768 0030 FFF7FEFF 		bl	SENSOR_3_Start
 3769              	.LVL556:
  37:main.c        ****     SENSOR_3_Enable();
 3770              		.loc 6 37 0
 3771 0034 FFF7FEFF 		bl	SENSOR_3_Enable
 3772              	.LVL557:
  38:main.c        ****     SENSOR_4_Start();
 3773              		.loc 6 38 0
 3774 0038 FFF7FEFF 		bl	SENSOR_4_Start
 3775              	.LVL558:
  39:main.c        ****     SENSOR_4_Enable();    
 3776              		.loc 6 39 0
 3777 003c FFF7FEFF 		bl	SENSOR_4_Enable
 3778              	.LVL559:
  40:main.c        ****     CyDelay(100);
 3779              		.loc 6 40 0
 3780 0040 6420     		mov	r0, #100
 3781 0042 FFF7FEFF 		bl	CyDelay
 3782              	.LVL560:
  41:main.c        ****     initVCNL_1();
 3783              		.loc 6 41 0
 3784 0046 FFF7FEFF 		bl	initVCNL_1
 3785              	.LVL561:
  42:main.c        ****     initVCNL_2();
 3786              		.loc 6 42 0
 3787 004a FFF7FEFF 		bl	initVCNL_2
 3788              	.LVL562:
  43:main.c        ****     initVCNL_3();
 3789              		.loc 6 43 0
 3790 004e FFF7FEFF 		bl	initVCNL_3
 3791              	.LVL563:
  44:main.c        ****    // initVCNL_4();
  45:main.c        ****      int desfase,pxd,pxi,defr,dato,pos;
  46:main.c        ****     CAN_Start(); ///  start CAN
 3792              		.loc 6 46 0
 3793 0052 FFF7FEFF 		bl	CAN_Start
 3794              	.LVL564:
  47:main.c        ****     CAN_isr_StartEx(interrutcan);//interrucion can
 3795              		.loc 6 47 0
 3796 0056 E848     		ldr	r0, .L189
 3797 0058 FFF7FEFF 		bl	CAN_isr_StartEx
 3798              	.LVL565:
  48:main.c        ****     dir=1;  ///direcion del motor
 3799              		.loc 6 48 0
 3800 005c 0122     		mov	r2, #1
 3801 005e E74B     		ldr	r3, .L189+4
 3802 0060 5A70     		strb	r2, [r3, #1]
  49:main.c        ****     RX_Start();///rx motor
ARM GAS  C:\Users\Andres\AppData\Local\Temp\ccSsqcxd.s 			page 87


 3803              		.loc 6 49 0
 3804 0062 FFF7FEFF 		bl	RX_Start
 3805              	.LVL566:
  50:main.c        ****     MOTOR_Start();//tx motor
 3806              		.loc 6 50 0
 3807 0066 FFF7FEFF 		bl	MOTOR_Start
 3808              	.LVL567:
  51:main.c        ****     TXC_Write(3);// rx y tx desabilitados
 3809              		.loc 6 51 0
 3810 006a 0320     		mov	r0, #3
 3811 006c FFF7FEFF 		bl	TXC_Write
 3812              	.LVL568:
  52:main.c        ****     CAN_GlobalIntEnable();
 3813              		.loc 6 52 0
 3814 0070 FFF7FEFF 		bl	CAN_GlobalIntEnable
 3815              	.LVL569:
  53:main.c        ****          MoveSpeed(1,512,100);
 3816              		.loc 6 53 0
 3817 0074 8024     		mov	r4, #128
 3818 0076 A400     		lsl	r4, r4, #2
 3819 0078 0120     		mov	r0, #1
 3820 007a 211C     		mov	r1, r4
 3821 007c 6422     		mov	r2, #100
 3822 007e FFF7FEFF 		bl	MoveSpeed
 3823              	.LVL570:
  54:main.c        ****     inicio();///asignacion de posicion
 3824              		.loc 6 54 0
 3825 0082 FFF7FEFF 		bl	inicio
 3826              	.LVL571:
  55:main.c        ****     MoveSpeed(1,512,100);
 3827              		.loc 6 55 0
 3828 0086 0120     		mov	r0, #1
 3829 0088 211C     		mov	r1, r4
 3830 008a 6422     		mov	r2, #100
 3831 008c FFF7FEFF 		bl	MoveSpeed
 3832              	.LVL572:
  56:main.c        ****     movimiento(1,512);/////// aliniacion
 3833              		.loc 6 56 0
 3834 0090 0120     		mov	r0, #1
 3835 0092 211C     		mov	r1, r4
 3836 0094 FFF7FEFF 		bl	movimiento
 3837              	.LVL573:
  57:main.c        ****     movimiento(2,512);
 3838              		.loc 6 57 0
 3839 0098 0220     		mov	r0, #2
 3840 009a 211C     		mov	r1, r4
 3841 009c FFF7FEFF 		bl	movimiento
 3842              	.LVL574:
  58:main.c        ****     movimiento(3,512);
 3843              		.loc 6 58 0
 3844 00a0 0320     		mov	r0, #3
 3845 00a2 211C     		mov	r1, r4
 3846 00a4 FFF7FEFF 		bl	movimiento
 3847              	.LVL575:
  59:main.c        ****     movimiento(4,512);
 3848              		.loc 6 59 0
 3849 00a8 0420     		mov	r0, #4
ARM GAS  C:\Users\Andres\AppData\Local\Temp\ccSsqcxd.s 			page 88


 3850 00aa 211C     		mov	r1, r4
 3851 00ac FFF7FEFF 		bl	movimiento
 3852              	.LVL576:
  60:main.c        ****     movimiento(5,512);
 3853              		.loc 6 60 0
 3854 00b0 0520     		mov	r0, #5
 3855 00b2 211C     		mov	r1, r4
 3856 00b4 FFF7FEFF 		bl	movimiento
 3857              	.LVL577:
  61:main.c        ****     pxd=readProximity_1();
 3858              		.loc 6 61 0
 3859 00b8 FFF7FEFF 		bl	readProximity_1
 3860              	.LVL578:
 3861 00bc 051C     		mov	r5, r0
 3862              	.LVL579:
  62:main.c        ****          pxi=readProximity_3();
 3863              		.loc 6 62 0
 3864 00be FFF7FEFF 		bl	readProximity_3
 3865              	.LVL580:
 3866 00c2 071C     		mov	r7, r0
 3867              	.LVL581:
  63:main.c        ****          defr=readProximity_2();
 3868              		.loc 6 63 0
 3869 00c4 FFF7FEFF 		bl	readProximity_2
 3870              	.LVL582:
 3871 00c8 8046     		mov	r8, r0
 3872              	.LVL583:
  64:main.c        ****    LED_2_Write(0);
 3873              		.loc 6 64 0
 3874 00ca 0020     		mov	r0, #0
 3875              	.LVL584:
 3876 00cc FFF7FEFF 		bl	LED_2_Write
 3877              	.LVL585:
 3878              	.L169:
  65:main.c        ****     //cal(0);
  66:main.c        ****   
  67:main.c        ****     
  68:main.c        ****     for(;;)////////////////////////////////////////////////////////////////////////////////////////
  69:main.c        ****     { if(Mydir==DIRM){
 3879              		.loc 6 69 0
 3880 00d0 CA4B     		ldr	r3, .L189+4
 3881 00d2 1B78     		ldrb	r3, [r3]
 3882 00d4 C82B     		cmp	r3, #200
 3883 00d6 00D0     		beq	.LCB3384
 3884 00d8 9EE1     		b	.L170	@long jump
 3885              	.LCB3384:
  70:main.c        ****  
  71:main.c        **** 
  72:main.c        ****         
  73:main.c        ****      pos  = readPosition(1);
 3886              		.loc 6 73 0
 3887 00da 0120     		mov	r0, #1
 3888 00dc FFF7FEFF 		bl	readPosition
 3889              	.LVL586:
  74:main.c        ****     
  75:main.c        ****         if(pos<=500){
 3890              		.loc 6 75 0
ARM GAS  C:\Users\Andres\AppData\Local\Temp\ccSsqcxd.s 			page 89


 3891 00e0 FA23     		mov	r3, #250
 3892 00e2 5B00     		lsl	r3, r3, #1
 3893 00e4 9842     		cmp	r0, r3
 3894 00e6 0EDC     		bgt	.L171
  76:main.c        ****              LED_2_Write(1);
 3895              		.loc 6 76 0
 3896 00e8 0120     		mov	r0, #1
 3897              	.LVL587:
 3898 00ea FFF7FEFF 		bl	LED_2_Write
 3899              	.LVL588:
  77:main.c        ****          pxd=readProximity_1();
 3900              		.loc 6 77 0
 3901 00ee FFF7FEFF 		bl	readProximity_1
 3902              	.LVL589:
 3903 00f2 051C     		mov	r5, r0
 3904              	.LVL590:
  78:main.c        ****          pxi=readProximity_3();
 3905              		.loc 6 78 0
 3906 00f4 FFF7FEFF 		bl	readProximity_3
 3907              	.LVL591:
 3908 00f8 071C     		mov	r7, r0
 3909              	.LVL592:
  79:main.c        ****          defr=readProximity_2();
 3910              		.loc 6 79 0
 3911 00fa FFF7FEFF 		bl	readProximity_2
 3912              	.LVL593:
 3913 00fe 8046     		mov	r8, r0
 3914              	.LVL594:
  80:main.c        ****         LED_2_Write(0);
 3915              		.loc 6 80 0
 3916 0100 0020     		mov	r0, #0
 3917              	.LVL595:
 3918 0102 FFF7FEFF 		bl	LED_2_Write
 3919              	.LVL596:
 3920              	.L171:
  81:main.c        ****         }else;
  82:main.c        ****         
  83:main.c        ****         
  84:main.c        ****         if(pxd>=2500&&pxi>=2950&&defr>=2900){
 3921              		.loc 6 84 0
 3922 0106 BE4B     		ldr	r3, .L189+8
 3923 0108 9D42     		cmp	r5, r3
 3924 010a 05DD     		ble	.L172
 3925              		.loc 6 84 0 is_stmt 0 discriminator 1
 3926 010c BD4B     		ldr	r3, .L189+12
 3927 010e 9F42     		cmp	r7, r3
 3928 0110 02DD     		ble	.L172
 3929              		.loc 6 84 0 discriminator 2
 3930 0112 BD4B     		ldr	r3, .L189+16
 3931 0114 9845     		cmp	r8, r3
 3932 0116 06DC     		bgt	.L184
 3933              	.L172:
  85:main.c        ****            dato=5;
  86:main.c        ****             goto salto;
  87:main.c        ****         }else ;
  88:main.c        ****         
  89:main.c        ****         if(defr<=2900){
ARM GAS  C:\Users\Andres\AppData\Local\Temp\ccSsqcxd.s 			page 90


 3934              		.loc 6 89 0 is_stmt 1
 3935 0118 BC4B     		ldr	r3, .L189+20
 3936 011a 9845     		cmp	r8, r3
 3937 011c 05DD     		ble	.L185
  90:main.c        ****             dato=1;
  91:main.c        ****             goto salto;
  92:main.c        ****             //// elige derecha o izquierda
  93:main.c        ****             
  94:main.c        ****         } else{
  95:main.c        ****         if(pxi<=pxd){
 3938              		.loc 6 95 0
 3939 011e AF42     		cmp	r7, r5
 3940 0120 05DC     		bgt	.L186
  96:main.c        ****             dato=2;
 3941              		.loc 6 96 0
 3942 0122 0223     		mov	r3, #2
 3943 0124 04E0     		b	.L173
 3944              	.L184:
  85:main.c        ****            dato=5;
 3945              		.loc 6 85 0
 3946 0126 0523     		mov	r3, #5
 3947 0128 02E0     		b	.L173
 3948              	.L185:
  90:main.c        ****             dato=1;
 3949              		.loc 6 90 0
 3950 012a 0123     		mov	r3, #1
 3951 012c 00E0     		b	.L173
 3952              	.L186:
  97:main.c        ****         }else dato=3;
 3953              		.loc 6 97 0
 3954 012e 0323     		mov	r3, #3
 3955              	.L173:
 3956              	.LVL597:
  98:main.c        ****         
  99:main.c        ****         
 100:main.c        ****         
 101:main.c        ****         }
 102:main.c        ****         
 103:main.c        ****         
 104:main.c        ****         
 105:main.c        ****         
 106:main.c        ****         
 107:main.c        ****         
 108:main.c        ****         
 109:main.c        ****         
 110:main.c        ****        salto: 
 111:main.c        ****        switch(dato){
 3957              		.loc 6 111 0
 3958 0130 022B     		cmp	r3, #2
 3959 0132 13D0     		beq	.L175
 3960 0134 02DC     		bgt	.L176
 3961 0136 012B     		cmp	r3, #1
 3962 0138 06D0     		beq	.L177
 3963 013a 45E1     		b	.L174
 3964              	.L176:
 3965 013c 032B     		cmp	r3, #3
 3966 013e 55D0     		beq	.L178
ARM GAS  C:\Users\Andres\AppData\Local\Temp\ccSsqcxd.s 			page 91


 3967 0140 052B     		cmp	r3, #5
 3968 0142 00D1     		bne	.LCB3479
 3969 0144 ACE0     		b	.L179	@long jump
 3970              	.LCB3479:
 3971 0146 3FE1     		b	.L174
 3972              	.L177:
 112:main.c        ****         
 113:main.c        ****         
 114:main.c        ****         case 1:{
 115:main.c        ****         cal(desfase); /// desplasamiento 
 3973              		.loc 6 115 0
 3974 0148 301C     		mov	r0, r6
 3975 014a FFF7FEFF 		bl	cal
 3976              	.LVL598:
 116:main.c        ****         if(desfase==360){
 3977              		.loc 6 116 0
 3978 014e B423     		mov	r3, #180
 3979 0150 5B00     		lsl	r3, r3, #1
 3980 0152 9E42     		cmp	r6, r3
 3981 0154 00D1     		bne	.LCB3491
 3982 0156 36E1     		b	.L187	@long jump
 3983              	.LCB3491:
 117:main.c        ****                desfase=0;
 118:main.c        ****         }else desfase=desfase+30;
 3984              		.loc 6 118 0
 3985 0158 1E36     		add	r6, r6, #30
 3986              	.LVL599:
 3987 015a 35E1     		b	.L174
 3988              	.LVL600:
 3989              	.L175:
 119:main.c        ****         
 120:main.c        ****         
 121:main.c        ****         }
 122:main.c        ****         break;
 123:main.c        ****         case 2:{
 124:main.c        ****         /////izquierda
 125:main.c        ****     MoveSpeed(1,512,100);
 3990              		.loc 6 125 0
 3991 015c 8024     		mov	r4, #128
 3992 015e A400     		lsl	r4, r4, #2
 3993 0160 0120     		mov	r0, #1
 3994 0162 211C     		mov	r1, r4
 3995 0164 6422     		mov	r2, #100
 3996 0166 FFF7FEFF 		bl	MoveSpeed
 3997              	.LVL601:
 126:main.c        ****      movimiento(1,512);/////// aliniacion
 3998              		.loc 6 126 0
 3999 016a 0120     		mov	r0, #1
 4000 016c 211C     		mov	r1, r4
 4001 016e FFF7FEFF 		bl	movimiento
 4002              	.LVL602:
 127:main.c        ****     movimiento(2,512);
 4003              		.loc 6 127 0
 4004 0172 0220     		mov	r0, #2
 4005 0174 211C     		mov	r1, r4
 4006 0176 FFF7FEFF 		bl	movimiento
 4007              	.LVL603:
ARM GAS  C:\Users\Andres\AppData\Local\Temp\ccSsqcxd.s 			page 92


 128:main.c        ****     movimiento(3,512);
 4008              		.loc 6 128 0
 4009 017a 0320     		mov	r0, #3
 4010 017c 211C     		mov	r1, r4
 4011 017e FFF7FEFF 		bl	movimiento
 4012              	.LVL604:
 129:main.c        ****     movimiento(4,512);
 4013              		.loc 6 129 0
 4014 0182 0420     		mov	r0, #4
 4015 0184 211C     		mov	r1, r4
 4016 0186 FFF7FEFF 		bl	movimiento
 4017              	.LVL605:
 130:main.c        ****     movimiento(5,674);//// ancha t
 4018              		.loc 6 130 0
 4019 018a 0520     		mov	r0, #5
 4020 018c A049     		ldr	r1, .L189+24
 4021 018e FFF7FEFF 		bl	movimiento
 4022              	.LVL606:
 131:main.c        ****     CyDelay(2000);
 4023              		.loc 6 131 0
 4024 0192 FA20     		mov	r0, #250
 4025 0194 C000     		lsl	r0, r0, #3
 4026 0196 FFF7FEFF 		bl	CyDelay
 4027              	.LVL607:
 132:main.c        ****     movimiento(2,700);/// mover parte de adelante
 4028              		.loc 6 132 0
 4029 019a 0220     		mov	r0, #2
 4030 019c AF21     		mov	r1, #175
 4031 019e 8900     		lsl	r1, r1, #2
 4032 01a0 FFF7FEFF 		bl	movimiento
 4033              	.LVL608:
 133:main.c        ****     movimiento(3,600);///mover parte trasera
 4034              		.loc 6 133 0
 4035 01a4 0320     		mov	r0, #3
 4036 01a6 9621     		mov	r1, #150
 4037 01a8 8900     		lsl	r1, r1, #2
 4038 01aa FFF7FEFF 		bl	movimiento
 4039              	.LVL609:
 134:main.c        ****     CyDelay(2000);
 4040              		.loc 6 134 0
 4041 01ae FA20     		mov	r0, #250
 4042 01b0 C000     		lsl	r0, r0, #3
 4043 01b2 FFF7FEFF 		bl	CyDelay
 4044              	.LVL610:
 135:main.c        ****     movimiento(5,512);//// ancha t
 4045              		.loc 6 135 0
 4046 01b6 0520     		mov	r0, #5
 4047 01b8 211C     		mov	r1, r4
 4048 01ba FFF7FEFF 		bl	movimiento
 4049              	.LVL611:
 136:main.c        ****     MoveSpeed(1,350,100);///ancla delantera
 4050              		.loc 6 136 0
 4051 01be 0120     		mov	r0, #1
 4052 01c0 AF21     		mov	r1, #175
 4053 01c2 4900     		lsl	r1, r1, #1
 4054 01c4 6422     		mov	r2, #100
 4055 01c6 FFF7FEFF 		bl	MoveSpeed
ARM GAS  C:\Users\Andres\AppData\Local\Temp\ccSsqcxd.s 			page 93


 4056              	.LVL612:
 137:main.c        ****     CyDelay(2000);
 4057              		.loc 6 137 0
 4058 01ca FA20     		mov	r0, #250
 4059 01cc C000     		lsl	r0, r0, #3
 4060 01ce FFF7FEFF 		bl	CyDelay
 4061              	.LVL613:
 138:main.c        ****     movimiento(2,512);
 4062              		.loc 6 138 0
 4063 01d2 0220     		mov	r0, #2
 4064 01d4 211C     		mov	r1, r4
 4065 01d6 FFF7FEFF 		bl	movimiento
 4066              	.LVL614:
 139:main.c        ****     movimiento(3,512);///mover parte trasera
 4067              		.loc 6 139 0
 4068 01da 0320     		mov	r0, #3
 4069 01dc 211C     		mov	r1, r4
 4070 01de FFF7FEFF 		bl	movimiento
 4071              	.LVL615:
 140:main.c        ****     CyDelay(2000);
 4072              		.loc 6 140 0
 4073 01e2 FA20     		mov	r0, #250
 4074 01e4 C000     		lsl	r0, r0, #3
 4075 01e6 FFF7FEFF 		bl	CyDelay
 4076              	.LVL616:
 141:main.c        ****        
 142:main.c        ****         }
 143:main.c        ****         break;
 4077              		.loc 6 143 0
 4078 01ea EDE0     		b	.L174
 4079              	.LVL617:
 4080              	.L178:
 144:main.c        ****     case 3:{    
 145:main.c        ****     ////derecha
 146:main.c        ****     
 147:main.c        ****     MoveSpeed(1,512,100);    
 4081              		.loc 6 147 0
 4082 01ec 8024     		mov	r4, #128
 4083 01ee A400     		lsl	r4, r4, #2
 4084 01f0 0120     		mov	r0, #1
 4085 01f2 211C     		mov	r1, r4
 4086 01f4 6422     		mov	r2, #100
 4087 01f6 FFF7FEFF 		bl	MoveSpeed
 4088              	.LVL618:
 148:main.c        ****     movimiento(1,512);/////// aliniacion
 4089              		.loc 6 148 0
 4090 01fa 0120     		mov	r0, #1
 4091 01fc 211C     		mov	r1, r4
 4092 01fe FFF7FEFF 		bl	movimiento
 4093              	.LVL619:
 149:main.c        ****     movimiento(2,512);
 4094              		.loc 6 149 0
 4095 0202 0220     		mov	r0, #2
 4096 0204 211C     		mov	r1, r4
 4097 0206 FFF7FEFF 		bl	movimiento
 4098              	.LVL620:
 150:main.c        ****     movimiento(3,512);
ARM GAS  C:\Users\Andres\AppData\Local\Temp\ccSsqcxd.s 			page 94


 4099              		.loc 6 150 0
 4100 020a 0320     		mov	r0, #3
 4101 020c 211C     		mov	r1, r4
 4102 020e FFF7FEFF 		bl	movimiento
 4103              	.LVL621:
 151:main.c        ****     movimiento(4,512);
 4104              		.loc 6 151 0
 4105 0212 0420     		mov	r0, #4
 4106 0214 211C     		mov	r1, r4
 4107 0216 FFF7FEFF 		bl	movimiento
 4108              	.LVL622:
 152:main.c        ****     movimiento(5,674);//// ancha t
 4109              		.loc 6 152 0
 4110 021a 0520     		mov	r0, #5
 4111 021c 7C49     		ldr	r1, .L189+24
 4112 021e FFF7FEFF 		bl	movimiento
 4113              	.LVL623:
 153:main.c        ****     CyDelay(2000);
 4114              		.loc 6 153 0
 4115 0222 FA20     		mov	r0, #250
 4116 0224 C000     		lsl	r0, r0, #3
 4117 0226 FFF7FEFF 		bl	CyDelay
 4118              	.LVL624:
 154:main.c        ****     movimiento(2,324);/// mover parte de adelante
 4119              		.loc 6 154 0
 4120 022a 0220     		mov	r0, #2
 4121 022c A221     		mov	r1, #162
 4122 022e 4900     		lsl	r1, r1, #1
 4123 0230 FFF7FEFF 		bl	movimiento
 4124              	.LVL625:
 155:main.c        ****     movimiento(3,424);///mover parte trasera
 4125              		.loc 6 155 0
 4126 0234 0320     		mov	r0, #3
 4127 0236 D421     		mov	r1, #212
 4128 0238 4900     		lsl	r1, r1, #1
 4129 023a FFF7FEFF 		bl	movimiento
 4130              	.LVL626:
 156:main.c        ****     CyDelay(2000);
 4131              		.loc 6 156 0
 4132 023e FA20     		mov	r0, #250
 4133 0240 C000     		lsl	r0, r0, #3
 4134 0242 FFF7FEFF 		bl	CyDelay
 4135              	.LVL627:
 157:main.c        ****     movimiento(5,512);//// ancha t
 4136              		.loc 6 157 0
 4137 0246 0520     		mov	r0, #5
 4138 0248 211C     		mov	r1, r4
 4139 024a FFF7FEFF 		bl	movimiento
 4140              	.LVL628:
 158:main.c        ****     MoveSpeed(1,350,100);///ancla delantera
 4141              		.loc 6 158 0
 4142 024e 0120     		mov	r0, #1
 4143 0250 AF21     		mov	r1, #175
 4144 0252 4900     		lsl	r1, r1, #1
 4145 0254 6422     		mov	r2, #100
 4146 0256 FFF7FEFF 		bl	MoveSpeed
 4147              	.LVL629:
ARM GAS  C:\Users\Andres\AppData\Local\Temp\ccSsqcxd.s 			page 95


 159:main.c        ****     CyDelay(2000);
 4148              		.loc 6 159 0
 4149 025a FA20     		mov	r0, #250
 4150 025c C000     		lsl	r0, r0, #3
 4151 025e FFF7FEFF 		bl	CyDelay
 4152              	.LVL630:
 160:main.c        ****     movimiento(2,512);
 4153              		.loc 6 160 0
 4154 0262 0220     		mov	r0, #2
 4155 0264 211C     		mov	r1, r4
 4156 0266 FFF7FEFF 		bl	movimiento
 4157              	.LVL631:
 161:main.c        ****     movimiento(3,512);///mover parte trasera
 4158              		.loc 6 161 0
 4159 026a 0320     		mov	r0, #3
 4160 026c 211C     		mov	r1, r4
 4161 026e FFF7FEFF 		bl	movimiento
 4162              	.LVL632:
 162:main.c        ****     CyDelay(2000);
 4163              		.loc 6 162 0
 4164 0272 FA20     		mov	r0, #250
 4165 0274 C000     		lsl	r0, r0, #3
 4166 0276 FFF7FEFF 		bl	CyDelay
 4167              	.LVL633:
 163:main.c        ****     }
 164:main.c        ****     break;
 4168              		.loc 6 164 0
 4169 027a A5E0     		b	.L174
 4170              	.L182:
 165:main.c        ****     
 166:main.c        ****     case 5:{
 167:main.c        ****     
 168:main.c        ****        
 169:main.c        ****     while(pxd>=2500&&pxi>=2950){
 170:main.c        ****     cal(desfase); /// desplasamiento 
 4171              		.loc 6 170 0
 4172 027c 301C     		mov	r0, r6
 4173 027e FFF7FEFF 		bl	cal
 4174              	.LVL634:
 171:main.c        ****     if(desfase==0){
 4175              		.loc 6 171 0
 4176 0282 002E     		cmp	r6, #0
 4177 0284 01D0     		beq	.L188
 172:main.c        ****                desfase=360;
 173:main.c        ****         }else desfase=desfase-30;
 4178              		.loc 6 173 0
 4179 0286 1E3E     		sub	r6, r6, #30
 4180              	.LVL635:
 4181 0288 01E0     		b	.L180
 4182              	.L188:
 172:main.c        ****                desfase=360;
 4183              		.loc 6 172 0
 4184 028a B426     		mov	r6, #180
 4185              	.LVL636:
 4186 028c 7600     		lsl	r6, r6, #1
 4187              	.L180:
 4188              	.LVL637:
ARM GAS  C:\Users\Andres\AppData\Local\Temp\ccSsqcxd.s 			page 96


 174:main.c        ****       CyDelay(100);
 4189              		.loc 6 174 0
 4190 028e 6420     		mov	r0, #100
 4191 0290 FFF7FEFF 		bl	CyDelay
 4192              	.LVL638:
 175:main.c        ****          pxd=readProximity_1();
 4193              		.loc 6 175 0
 4194 0294 FFF7FEFF 		bl	readProximity_1
 4195              	.LVL639:
 4196 0298 051C     		mov	r5, r0
 4197              	.LVL640:
 176:main.c        ****          pxi=readProximity_3();
 4198              		.loc 6 176 0
 4199 029a FFF7FEFF 		bl	readProximity_3
 4200              	.LVL641:
 4201 029e 071C     		mov	r7, r0
 4202              	.LVL642:
 4203              	.L179:
 169:main.c        ****     cal(desfase); /// desplasamiento 
 4204              		.loc 6 169 0
 4205 02a0 574B     		ldr	r3, .L189+8
 4206 02a2 9D42     		cmp	r5, r3
 4207 02a4 02DD     		ble	.L181
 169:main.c        ****     cal(desfase); /// desplasamiento 
 4208              		.loc 6 169 0 is_stmt 0 discriminator 1
 4209 02a6 574B     		ldr	r3, .L189+12
 4210 02a8 9F42     		cmp	r7, r3
 4211 02aa E7DC     		bgt	.L182
 4212              	.L181:
 177:main.c        ****     }
 178:main.c        ****         
 179:main.c        ****           MoveSpeed(1,512,100);    
 4213              		.loc 6 179 0 is_stmt 1
 4214 02ac 8024     		mov	r4, #128
 4215 02ae A400     		lsl	r4, r4, #2
 4216 02b0 0120     		mov	r0, #1
 4217 02b2 211C     		mov	r1, r4
 4218 02b4 6422     		mov	r2, #100
 4219 02b6 FFF7FEFF 		bl	MoveSpeed
 4220              	.LVL643:
 180:main.c        ****     movimiento(1,512);/////// aliniacion
 4221              		.loc 6 180 0
 4222 02ba 0120     		mov	r0, #1
 4223 02bc 211C     		mov	r1, r4
 4224 02be FFF7FEFF 		bl	movimiento
 4225              	.LVL644:
 181:main.c        ****     movimiento(2,512);
 4226              		.loc 6 181 0
 4227 02c2 0220     		mov	r0, #2
 4228 02c4 211C     		mov	r1, r4
 4229 02c6 FFF7FEFF 		bl	movimiento
 4230              	.LVL645:
 182:main.c        ****     movimiento(3,512);
 4231              		.loc 6 182 0
 4232 02ca 0320     		mov	r0, #3
 4233 02cc 211C     		mov	r1, r4
 4234 02ce FFF7FEFF 		bl	movimiento
ARM GAS  C:\Users\Andres\AppData\Local\Temp\ccSsqcxd.s 			page 97


 4235              	.LVL646:
 183:main.c        ****     movimiento(4,512);
 4236              		.loc 6 183 0
 4237 02d2 0420     		mov	r0, #4
 4238 02d4 211C     		mov	r1, r4
 4239 02d6 FFF7FEFF 		bl	movimiento
 4240              	.LVL647:
 184:main.c        ****     movimiento(5,674);//// ancha t
 4241              		.loc 6 184 0
 4242 02da 0520     		mov	r0, #5
 4243 02dc 4C49     		ldr	r1, .L189+24
 4244 02de FFF7FEFF 		bl	movimiento
 4245              	.LVL648:
 185:main.c        ****     CyDelay(2000);
 4246              		.loc 6 185 0
 4247 02e2 FA20     		mov	r0, #250
 4248 02e4 C000     		lsl	r0, r0, #3
 4249 02e6 FFF7FEFF 		bl	CyDelay
 4250              	.LVL649:
 186:main.c        ****     movimiento(2,324);/// mover parte de adelante
 4251              		.loc 6 186 0
 4252 02ea 0220     		mov	r0, #2
 4253 02ec A221     		mov	r1, #162
 4254 02ee 4900     		lsl	r1, r1, #1
 4255 02f0 FFF7FEFF 		bl	movimiento
 4256              	.LVL650:
 187:main.c        ****     movimiento(3,424);///mover parte trasera
 4257              		.loc 6 187 0
 4258 02f4 0320     		mov	r0, #3
 4259 02f6 D421     		mov	r1, #212
 4260 02f8 4900     		lsl	r1, r1, #1
 4261 02fa FFF7FEFF 		bl	movimiento
 4262              	.LVL651:
 188:main.c        ****     CyDelay(2000);
 4263              		.loc 6 188 0
 4264 02fe FA20     		mov	r0, #250
 4265 0300 C000     		lsl	r0, r0, #3
 4266 0302 FFF7FEFF 		bl	CyDelay
 4267              	.LVL652:
 189:main.c        ****     movimiento(5,512);//// ancha t
 4268              		.loc 6 189 0
 4269 0306 0520     		mov	r0, #5
 4270 0308 211C     		mov	r1, r4
 4271 030a FFF7FEFF 		bl	movimiento
 4272              	.LVL653:
 190:main.c        ****     MoveSpeed(1,350,100);///ancla delantera
 4273              		.loc 6 190 0
 4274 030e 0120     		mov	r0, #1
 4275 0310 AF21     		mov	r1, #175
 4276 0312 4900     		lsl	r1, r1, #1
 4277 0314 6422     		mov	r2, #100
 4278 0316 FFF7FEFF 		bl	MoveSpeed
 4279              	.LVL654:
 191:main.c        ****     CyDelay(2000);
 4280              		.loc 6 191 0
 4281 031a FA20     		mov	r0, #250
 4282 031c C000     		lsl	r0, r0, #3
ARM GAS  C:\Users\Andres\AppData\Local\Temp\ccSsqcxd.s 			page 98


 4283 031e FFF7FEFF 		bl	CyDelay
 4284              	.LVL655:
 192:main.c        ****     movimiento(2,512);
 4285              		.loc 6 192 0
 4286 0322 0220     		mov	r0, #2
 4287 0324 211C     		mov	r1, r4
 4288 0326 FFF7FEFF 		bl	movimiento
 4289              	.LVL656:
 193:main.c        ****     movimiento(3,512);///mover parte trasera
 4290              		.loc 6 193 0
 4291 032a 0320     		mov	r0, #3
 4292 032c 211C     		mov	r1, r4
 4293 032e FFF7FEFF 		bl	movimiento
 4294              	.LVL657:
 194:main.c        ****     CyDelay(2000);
 4295              		.loc 6 194 0
 4296 0332 FA20     		mov	r0, #250
 4297 0334 C000     		lsl	r0, r0, #3
 4298 0336 FFF7FEFF 		bl	CyDelay
 4299              	.LVL658:
 195:main.c        ****     
 196:main.c        ****       MoveSpeed(1,512,100);    
 4300              		.loc 6 196 0
 4301 033a 0120     		mov	r0, #1
 4302 033c 211C     		mov	r1, r4
 4303 033e 6422     		mov	r2, #100
 4304 0340 FFF7FEFF 		bl	MoveSpeed
 4305              	.LVL659:
 197:main.c        ****     movimiento(1,512);/////// aliniacion
 4306              		.loc 6 197 0
 4307 0344 0120     		mov	r0, #1
 4308 0346 211C     		mov	r1, r4
 4309 0348 FFF7FEFF 		bl	movimiento
 4310              	.LVL660:
 198:main.c        ****     movimiento(2,512);
 4311              		.loc 6 198 0
 4312 034c 0220     		mov	r0, #2
 4313 034e 211C     		mov	r1, r4
 4314 0350 FFF7FEFF 		bl	movimiento
 4315              	.LVL661:
 199:main.c        ****     movimiento(3,512);
 4316              		.loc 6 199 0
 4317 0354 0320     		mov	r0, #3
 4318 0356 211C     		mov	r1, r4
 4319 0358 FFF7FEFF 		bl	movimiento
 4320              	.LVL662:
 200:main.c        ****     movimiento(4,512);
 4321              		.loc 6 200 0
 4322 035c 0420     		mov	r0, #4
 4323 035e 211C     		mov	r1, r4
 4324 0360 FFF7FEFF 		bl	movimiento
 4325              	.LVL663:
 201:main.c        ****     movimiento(5,674);//// ancha t
 4326              		.loc 6 201 0
 4327 0364 0520     		mov	r0, #5
 4328 0366 2A49     		ldr	r1, .L189+24
 4329 0368 FFF7FEFF 		bl	movimiento
ARM GAS  C:\Users\Andres\AppData\Local\Temp\ccSsqcxd.s 			page 99


 4330              	.LVL664:
 202:main.c        ****     CyDelay(2000);
 4331              		.loc 6 202 0
 4332 036c FA20     		mov	r0, #250
 4333 036e C000     		lsl	r0, r0, #3
 4334 0370 FFF7FEFF 		bl	CyDelay
 4335              	.LVL665:
 203:main.c        ****     movimiento(2,324);/// mover parte de adelante
 4336              		.loc 6 203 0
 4337 0374 0220     		mov	r0, #2
 4338 0376 A221     		mov	r1, #162
 4339 0378 4900     		lsl	r1, r1, #1
 4340 037a FFF7FEFF 		bl	movimiento
 4341              	.LVL666:
 204:main.c        ****     movimiento(3,424);///mover parte trasera
 4342              		.loc 6 204 0
 4343 037e 0320     		mov	r0, #3
 4344 0380 D421     		mov	r1, #212
 4345 0382 4900     		lsl	r1, r1, #1
 4346 0384 FFF7FEFF 		bl	movimiento
 4347              	.LVL667:
 205:main.c        ****     CyDelay(2000);
 4348              		.loc 6 205 0
 4349 0388 FA20     		mov	r0, #250
 4350 038a C000     		lsl	r0, r0, #3
 4351 038c FFF7FEFF 		bl	CyDelay
 4352              	.LVL668:
 206:main.c        ****     movimiento(5,512);//// ancha t
 4353              		.loc 6 206 0
 4354 0390 0520     		mov	r0, #5
 4355 0392 211C     		mov	r1, r4
 4356 0394 FFF7FEFF 		bl	movimiento
 4357              	.LVL669:
 207:main.c        ****     MoveSpeed(1,350,100);///ancla delantera
 4358              		.loc 6 207 0
 4359 0398 0120     		mov	r0, #1
 4360 039a AF21     		mov	r1, #175
 4361 039c 4900     		lsl	r1, r1, #1
 4362 039e 6422     		mov	r2, #100
 4363 03a0 FFF7FEFF 		bl	MoveSpeed
 4364              	.LVL670:
 208:main.c        ****     CyDelay(2000);
 4365              		.loc 6 208 0
 4366 03a4 FA20     		mov	r0, #250
 4367 03a6 C000     		lsl	r0, r0, #3
 4368 03a8 FFF7FEFF 		bl	CyDelay
 4369              	.LVL671:
 209:main.c        ****     movimiento(2,512);
 4370              		.loc 6 209 0
 4371 03ac 0220     		mov	r0, #2
 4372 03ae 211C     		mov	r1, r4
 4373 03b0 FFF7FEFF 		bl	movimiento
 4374              	.LVL672:
 210:main.c        ****     movimiento(3,512);///mover parte trasera
 4375              		.loc 6 210 0
 4376 03b4 0320     		mov	r0, #3
 4377 03b6 211C     		mov	r1, r4
ARM GAS  C:\Users\Andres\AppData\Local\Temp\ccSsqcxd.s 			page 100


 4378 03b8 FFF7FEFF 		bl	movimiento
 4379              	.LVL673:
 211:main.c        ****     CyDelay(2000);
 4380              		.loc 6 211 0
 4381 03bc FA20     		mov	r0, #250
 4382 03be C000     		lsl	r0, r0, #3
 4383 03c0 FFF7FEFF 		bl	CyDelay
 4384              	.LVL674:
 212:main.c        ****         
 213:main.c        ****     }
 214:main.c        ****       break;  
 4385              		.loc 6 214 0
 4386 03c4 00E0     		b	.L174
 4387              	.L187:
 117:main.c        ****         }else desfase=desfase+30;
 4388              		.loc 6 117 0
 4389 03c6 0026     		mov	r6, #0
 4390              	.LVL675:
 4391              	.L174:
 215:main.c        ****     
 216:main.c        ****     }
 217:main.c        ****     
 218:main.c        ****     LED_1_Write(1);
 4392              		.loc 6 218 0
 4393 03c8 0120     		mov	r0, #1
 4394 03ca FFF7FEFF 		bl	LED_1_Write
 4395              	.LVL676:
 219:main.c        ****     
 220:main.c        ****     
 221:main.c        ****     
 222:main.c        ****     
 223:main.c        ****     
 224:main.c        ****  ledoff(0,dirasig,LED4);
 4396              		.loc 6 224 0
 4397 03ce 114C     		ldr	r4, .L189+28
 4398 03d0 2178     		ldrb	r1, [r4]
 4399 03d2 0020     		mov	r0, #0
 4400 03d4 0E22     		mov	r2, #14
 4401 03d6 FFF7FEFF 		bl	ledoff
 4402              	.LVL677:
 225:main.c        **** //movimiento(dirasig,500);
 226:main.c        ****       CyDelay(100);  
 4403              		.loc 6 226 0
 4404 03da 6420     		mov	r0, #100
 4405 03dc FFF7FEFF 		bl	CyDelay
 4406              	.LVL678:
 227:main.c        ****     LED_1_Write(0);
 4407              		.loc 6 227 0
 4408 03e0 0020     		mov	r0, #0
 4409 03e2 FFF7FEFF 		bl	LED_1_Write
 4410              	.LVL679:
 228:main.c        ****     ledoff(1,dirasig,LED4);
 4411              		.loc 6 228 0
 4412 03e6 2178     		ldrb	r1, [r4]
 4413 03e8 0120     		mov	r0, #1
 4414 03ea 0E22     		mov	r2, #14
 4415 03ec FFF7FEFF 		bl	ledoff
ARM GAS  C:\Users\Andres\AppData\Local\Temp\ccSsqcxd.s 			page 101


 4416              	.LVL680:
 229:main.c        ****    // movimiento(dirasig,559);
 230:main.c        ****      CyDelay(100);  
 4417              		.loc 6 230 0
 4418 03f0 6420     		mov	r0, #100
 4419 03f2 FFF7FEFF 		bl	CyDelay
 4420              	.LVL681:
 4421 03f6 6BE6     		b	.L169
 4422              	.L190:
 4423              		.align	2
 4424              	.L189:
 4425 03f8 00000000 		.word	interrutcan
 4426 03fc 00000000 		.word	.LANCHOR1
 4427 0400 C3090000 		.word	2499
 4428 0404 850B0000 		.word	2949
 4429 0408 530B0000 		.word	2899
 4430 040c 540B0000 		.word	2900
 4431 0410 A2020000 		.word	674
 4432 0414 00000000 		.word	dirasig
 4433              	.L170:
 231:main.c        ****     }else{//LED_1_Write(1); 
 232:main.c        ****      
 233:main.c        ****       CyDelay(1000);  
 4434              		.loc 6 233 0
 4435 0418 FA24     		mov	r4, #250
 4436 041a A400     		lsl	r4, r4, #2
 4437 041c 201C     		mov	r0, r4
 4438 041e FFF7FEFF 		bl	CyDelay
 4439              	.LVL682:
 234:main.c        ****     //LED_1_Write(0);
 235:main.c        ****     
 236:main.c        ****      CyDelay(1000); }
 4440              		.loc 6 236 0
 4441 0422 201C     		mov	r0, r4
 4442 0424 FFF7FEFF 		bl	CyDelay
 4443              	.LVL683:
 4444 0428 52E6     		b	.L169
 4445              		.cfi_endproc
 4446              	.LFE73:
 4447              		.size	main, .-main
 4448              		.comm	posicionl,4,4
 4449              		.comm	posicionh,4,4
 4450              		.comm	posicion,4,4
 4451              		.comm	amb,4,4
 4452              		.comm	error,1,1
 4453              		.comm	tes,1,1
 4454              		.comm	tem,1,1
 4455              		.comm	srf,4,4
 4456              		.comm	mailbox0,8,4
 4457              		.comm	dato_enviado,8,4
 4458              		.comm	sumadir,1,1
 4459              		.comm	dirasig,1,1
 4460              		.global	Mydir
 4461              		.comm	Pda,4,4
 4462              		.global	dir
 4463              		.comm	pos,4,4
 4464              		.comm	PositionM,4,4
ARM GAS  C:\Users\Andres\AppData\Local\Temp\ccSsqcxd.s 			page 102


 4465              		.comm	errc,4,4
 4466              		.comm	Pta,4,4
 4467              		.comm	M,4,4
 4468              		.comm	cstatus,4,4
 4469              		.comm	Pt,4,4
 4470              		.comm	Pd,4,4
 4471              		.comm	t,4,4
 4472              		.comm	ant,4,4
 4473              		.comm	Time_Counter,4,4
 4474              		.comm	Position_Low_Byte,1,1
 4475              		.comm	Position_High_Byte,1,1
 4476              		.comm	Position_Long_Byte,1,1
 4477              		.comm	Incoming_Byte2,1,1
 4478              		.comm	Error_Byte,1,1
 4479              		.comm	Temperature_Byte,1,1
 4480              		.comm	Incoming_Byte,1,1
 4481              		.comm	Checksum,1,1
 4482              		.global	iii
 4483              		.global	ii
 4484              		.global	i
 4485 042a C046     		.data
 4486              		.set	.LANCHOR1,. + 0
 4487              		.type	Mydir, %object
 4488              		.size	Mydir, 1
 4489              	Mydir:
 4490 0000 FA       		.byte	-6
 4491              		.type	dir, %object
 4492              		.size	dir, 1
 4493              	dir:
 4494 0001 01       		.byte	1
 4495              		.bss
 4496              		.align	2
 4497              		.set	.LANCHOR0,. + 0
 4498              		.type	i, %object
 4499              		.size	i, 4
 4500              	i:
 4501 0000 00000000 		.space	4
 4502              		.type	ii, %object
 4503              		.size	ii, 4
 4504              	ii:
 4505 0004 00000000 		.space	4
 4506              		.type	iii, %object
 4507              		.size	iii, 4
 4508              	iii:
 4509 0008 00000000 		.space	4
 4510              		.text
 4511              	.Letext0:
 4512              		.file 7 "Generated_Source\\PSoC4/cytypes.h"
 4513              		.file 8 "Generated_Source\\PSoC4/SENSOR_1_I2C.h"
 4514              		.file 9 "Generated_Source\\PSoC4/LED_1.h"
 4515              		.file 10 "Generated_Source\\PSoC4/CyLib.h"
 4516              		.file 11 "Generated_Source\\PSoC4/SENSOR_2_I2C.h"
 4517              		.file 12 "Generated_Source\\PSoC4/LED_2.h"
 4518              		.file 13 "Generated_Source\\PSoC4/SENSOR_3_I2C.h"
 4519              		.file 14 "Generated_Source\\PSoC4/LED_3.h"
 4520              		.file 15 "Generated_Source\\PSoC4/RX.h"
 4521              		.file 16 "Generated_Source\\PSoC4/TXC.h"
ARM GAS  C:\Users\Andres\AppData\Local\Temp\ccSsqcxd.s 			page 103


 4522              		.file 17 "Generated_Source\\PSoC4/MOTOR.h"
 4523              		.file 18 "Generated_Source\\PSoC4/CAN.h"
 4524              		.file 19 "Generated_Source\\PSoC4/LED_4.h"
 4525              		.file 20 "c:\\program files (x86)\\cypress\\psoc creator\\4.0\\psoc creator\\import\\gnu\\arm\\4.9
 4526              		.file 21 "Generated_Source\\PSoC4/SENSOR_1.h"
 4527              		.file 22 "Generated_Source\\PSoC4/SENSOR_2.h"
 4528              		.file 23 "Generated_Source\\PSoC4/SENSOR_3.h"
 4529              		.file 24 "Generated_Source\\PSoC4/SENSOR_4.h"
 4530              		.file 25 "Generated_Source\\PSoC4/CAN_isr.h"