ARM GAS  C:\Users\Andres\AppData\Local\Temp\ccSsqcxd.s 			page 1


   1              		.cpu cortex-m0
   2              		.fpu softvfp
   3              		.eabi_attribute 20, 1
   4              		.eabi_attribute 21, 1
   5              		.eabi_attribute 23, 3
   6              		.eabi_attribute 24, 1
   7              		.eabi_attribute 25, 1
   8              		.eabi_attribute 26, 1
   9              		.eabi_attribute 30, 1
  10              		.eabi_attribute 34, 0
  11              		.eabi_attribute 18, 4
  12              		.code	16
  13              		.file	"main.c"
  14              		.text
  15              	.Ltext0:
  16              		.cfi_sections	.debug_frame
  17              		.section	.text.writeVCNL_1,"ax",%progbits
  18              		.align	2
  19              		.global	writeVCNL_1
  20              		.code	16
  21              		.thumb_func
  22              		.type	writeVCNL_1, %function
  23              	writeVCNL_1:
  24              	.LFB36:
  25              		.file 1 "./VCNL4010_1.h"
   1:./VCNL4010_1.h **** #include <project.h>
   2:./VCNL4010_1.h **** #define VCNL4010_ADDRESS 0x13
   3:./VCNL4010_1.h **** 
   4:./VCNL4010_1.h **** int i=0;
   5:./VCNL4010_1.h **** //Send Data
   6:./VCNL4010_1.h **** void writeVCNL_1(int address, int data){
  26              		.loc 1 6 0
  27              		.cfi_startproc
  28              	.LVL0:
  29 0000 00B5     		push	{lr}
  30              		.cfi_def_cfa_offset 4
  31              		.cfi_offset 14, -4
  32 0002 83B0     		sub	sp, sp, #12
  33              		.cfi_def_cfa_offset 16
   7:./VCNL4010_1.h ****     uint8 Write_buf[2]={0};
  34              		.loc 1 7 0
  35 0004 01AB     		add	r3, sp, #4
   8:./VCNL4010_1.h ****     Write_buf[0]=address;
  36              		.loc 1 8 0
  37 0006 1870     		strb	r0, [r3]
   9:./VCNL4010_1.h ****     Write_buf[1]=data;
  38              		.loc 1 9 0
  39 0008 5970     		strb	r1, [r3, #1]
  10:./VCNL4010_1.h ****     SENSOR_1_I2CMasterWriteBuf(VCNL4010_ADDRESS,(uint8 *)Write_buf,2,SENSOR_1_I2C_MODE_COMPLETE_XFE
  40              		.loc 1 10 0
  41 000a 1320     		mov	r0, #19
  42              	.LVL1:
  43 000c 191C     		mov	r1, r3
  44              	.LVL2:
  45 000e 0222     		mov	r2, #2
  46 0010 0023     		mov	r3, #0
  47 0012 FFF7FEFF 		bl	SENSOR_1_I2CMasterWriteBuf
ARM GAS  C:\Users\Andres\AppData\Local\Temp\ccSsqcxd.s 			page 2


  48              	.LVL3:
  49              	.L2:
  11:./VCNL4010_1.h ****     while((SENSOR_1_I2CMasterStatus()&SENSOR_1_I2C_MSTAT_WR_CMPLT)==0){}
  50              		.loc 1 11 0 discriminator 1
  51 0016 FFF7FEFF 		bl	SENSOR_1_I2CMasterStatus
  52              	.LVL4:
  53 001a 8307     		lsl	r3, r0, #30
  54 001c FBD5     		bpl	.L2
  12:./VCNL4010_1.h ****     return;
  13:./VCNL4010_1.h **** }
  55              		.loc 1 13 0
  56 001e 03B0     		add	sp, sp, #12
  57              		@ sp needed
  58 0020 00BD     		pop	{pc}
  59              		.cfi_endproc
  60              	.LFE36:
  61              		.size	writeVCNL_1, .-writeVCNL_1
  62 0022 C046     		.section	.text.readVCNL_1,"ax",%progbits
  63              		.align	2
  64              		.global	readVCNL_1
  65              		.code	16
  66              		.thumb_func
  67              		.type	readVCNL_1, %function
  68              	readVCNL_1:
  69              	.LFB37:
  14:./VCNL4010_1.h **** //Read Data
  15:./VCNL4010_1.h **** int readVCNL_1(int address){
  70              		.loc 1 15 0
  71              		.cfi_startproc
  72              	.LVL5:
  73 0000 00B5     		push	{lr}
  74              		.cfi_def_cfa_offset 4
  75              		.cfi_offset 14, -4
  76 0002 83B0     		sub	sp, sp, #12
  77              		.cfi_def_cfa_offset 16
  16:./VCNL4010_1.h ****     uint8 Write_buf[1]={0};
  78              		.loc 1 16 0
  79 0004 01A9     		add	r1, sp, #4
  17:./VCNL4010_1.h ****     Write_buf[0]=address;
  80              		.loc 1 17 0
  81 0006 0870     		strb	r0, [r1]
  18:./VCNL4010_1.h ****     uint8 read_Buf[1]={0};
  82              		.loc 1 18 0
  83 0008 0023     		mov	r3, #0
  84 000a 6A46     		mov	r2, sp
  85 000c 1370     		strb	r3, [r2]
  19:./VCNL4010_1.h ****     SENSOR_1_I2CMasterWriteBuf(VCNL4010_ADDRESS,(uint8 *)Write_buf,1,SENSOR_1_I2C_MODE_NO_STOP);
  86              		.loc 1 19 0
  87 000e 1320     		mov	r0, #19
  88              	.LVL6:
  89 0010 0122     		mov	r2, #1
  90 0012 0233     		add	r3, r3, #2
  91 0014 FFF7FEFF 		bl	SENSOR_1_I2CMasterWriteBuf
  92              	.LVL7:
  93              	.L4:
  20:./VCNL4010_1.h ****     while((SENSOR_1_I2CMasterStatus()&SENSOR_1_I2C_MSTAT_WR_CMPLT)==0){}
  94              		.loc 1 20 0 discriminator 1
ARM GAS  C:\Users\Andres\AppData\Local\Temp\ccSsqcxd.s 			page 3


  95 0018 FFF7FEFF 		bl	SENSOR_1_I2CMasterStatus
  96              	.LVL8:
  97 001c 8307     		lsl	r3, r0, #30
  98 001e FBD5     		bpl	.L4
  21:./VCNL4010_1.h ****     SENSOR_1_I2CMasterReadBuf(VCNL4010_ADDRESS,(uint8 *)read_Buf,1,SENSOR_1_I2C_MODE_REPEAT_START);
  99              		.loc 1 21 0
 100 0020 1320     		mov	r0, #19
 101 0022 6946     		mov	r1, sp
 102 0024 0122     		mov	r2, #1
 103 0026 0123     		mov	r3, #1
 104 0028 FFF7FEFF 		bl	SENSOR_1_I2CMasterReadBuf
 105              	.LVL9:
 106              	.L5:
  22:./VCNL4010_1.h ****     while((SENSOR_1_I2CMasterStatus()&SENSOR_1_I2C_MSTAT_RD_CMPLT)==0){}
 107              		.loc 1 22 0 discriminator 1
 108 002c FFF7FEFF 		bl	SENSOR_1_I2CMasterStatus
 109              	.LVL10:
 110 0030 C307     		lsl	r3, r0, #31
 111 0032 FBD5     		bpl	.L5
  23:./VCNL4010_1.h ****     return read_Buf[0];
 112              		.loc 1 23 0
 113 0034 6B46     		mov	r3, sp
 114 0036 1878     		ldrb	r0, [r3]
  24:./VCNL4010_1.h **** }
 115              		.loc 1 24 0
 116 0038 03B0     		add	sp, sp, #12
 117              		@ sp needed
 118 003a 00BD     		pop	{pc}
 119              		.cfi_endproc
 120              	.LFE37:
 121              		.size	readVCNL_1, .-readVCNL_1
 122              		.section	.text.initVCNL_1,"ax",%progbits
 123              		.align	2
 124              		.global	initVCNL_1
 125              		.code	16
 126              		.thumb_func
 127              		.type	initVCNL_1, %function
 128              	initVCNL_1:
 129              	.LFB38:
  25:./VCNL4010_1.h **** //Init Sensor
  26:./VCNL4010_1.h **** void initVCNL_1(){
 130              		.loc 1 26 0
 131              		.cfi_startproc
 132 0000 10B5     		push	{r4, lr}
 133              		.cfi_def_cfa_offset 8
 134              		.cfi_offset 4, -8
 135              		.cfi_offset 14, -4
  27:./VCNL4010_1.h ****   int temp = readVCNL_1(0x81);
 136              		.loc 1 27 0
 137 0002 8120     		mov	r0, #129
 138 0004 FFF7FEFF 		bl	readVCNL_1
 139              	.LVL11:
  28:./VCNL4010_1.h ****   if (temp != 0x21){  
 140              		.loc 1 28 0
 141 0008 2128     		cmp	r0, #33
 142 000a 0ED0     		beq	.L7
  29:./VCNL4010_1.h ****     //Led Sequence Fail
ARM GAS  C:\Users\Andres\AppData\Local\Temp\ccSsqcxd.s 			page 4


  30:./VCNL4010_1.h ****     LED_1_Write(1);
 143              		.loc 1 30 0
 144 000c 0120     		mov	r0, #1
 145              	.LVL12:
 146 000e FFF7FEFF 		bl	LED_1_Write
 147              	.LVL13:
  31:./VCNL4010_1.h ****     CyDelay(500);
 148              		.loc 1 31 0
 149 0012 FA24     		mov	r4, #250
 150 0014 6400     		lsl	r4, r4, #1
 151 0016 201C     		mov	r0, r4
 152 0018 FFF7FEFF 		bl	CyDelay
 153              	.LVL14:
  32:./VCNL4010_1.h ****     LED_1_Write(0);
 154              		.loc 1 32 0
 155 001c 0020     		mov	r0, #0
 156 001e FFF7FEFF 		bl	LED_1_Write
 157              	.LVL15:
  33:./VCNL4010_1.h ****     CyDelay(500);    
 158              		.loc 1 33 0
 159 0022 201C     		mov	r0, r4
 160 0024 FFF7FEFF 		bl	CyDelay
 161              	.LVL16:
 162 0028 1DE0     		b	.L8
 163              	.LVL17:
 164              	.L7:
  34:./VCNL4010_1.h ****   }
  35:./VCNL4010_1.h ****    else{
  36:./VCNL4010_1.h ****     //Led Sequence Sucess
  37:./VCNL4010_1.h ****     LED_1_Write(0);
 165              		.loc 1 37 0
 166 002a 0020     		mov	r0, #0
 167              	.LVL18:
 168 002c FFF7FEFF 		bl	LED_1_Write
 169              	.LVL19:
  38:./VCNL4010_1.h ****     for(i=1;i<5;i++){
 170              		.loc 1 38 0
 171 0030 0122     		mov	r2, #1
 172 0032 154B     		ldr	r3, .L11
 173 0034 1A60     		str	r2, [r3]
 174 0036 0FE0     		b	.L9
 175              	.L10:
  39:./VCNL4010_1.h ****         LED_1_Write(1);
 176              		.loc 1 39 0 discriminator 3
 177 0038 0120     		mov	r0, #1
 178 003a FFF7FEFF 		bl	LED_1_Write
 179              	.LVL20:
  40:./VCNL4010_1.h ****         CyDelay(200);
 180              		.loc 1 40 0 discriminator 3
 181 003e C820     		mov	r0, #200
 182 0040 FFF7FEFF 		bl	CyDelay
 183              	.LVL21:
  41:./VCNL4010_1.h ****         LED_1_Write(0);
 184              		.loc 1 41 0 discriminator 3
 185 0044 0020     		mov	r0, #0
 186 0046 FFF7FEFF 		bl	LED_1_Write
 187              	.LVL22:
ARM GAS  C:\Users\Andres\AppData\Local\Temp\ccSsqcxd.s 			page 5


  42:./VCNL4010_1.h ****         CyDelay(200); 
 188              		.loc 1 42 0 discriminator 3
 189 004a C820     		mov	r0, #200
 190 004c FFF7FEFF 		bl	CyDelay
 191              	.LVL23:
  38:./VCNL4010_1.h ****         LED_1_Write(1);
 192              		.loc 1 38 0 discriminator 3
 193 0050 0D4A     		ldr	r2, .L11
 194 0052 1368     		ldr	r3, [r2]
 195 0054 0133     		add	r3, r3, #1
 196 0056 1360     		str	r3, [r2]
 197              	.L9:
  38:./VCNL4010_1.h ****         LED_1_Write(1);
 198              		.loc 1 38 0 is_stmt 0 discriminator 1
 199 0058 0B4B     		ldr	r3, .L11
 200 005a 1B68     		ldr	r3, [r3]
 201 005c 042B     		cmp	r3, #4
 202 005e EBDD     		ble	.L10
  43:./VCNL4010_1.h ****         }
  44:./VCNL4010_1.h ****     LED_1_Write(0);
 203              		.loc 1 44 0 is_stmt 1
 204 0060 0020     		mov	r0, #0
 205 0062 FFF7FEFF 		bl	LED_1_Write
 206              	.LVL24:
 207              	.L8:
  45:./VCNL4010_1.h ****   } 
  46:./VCNL4010_1.h ****   //VCNL Init Params
  47:./VCNL4010_1.h ****   writeVCNL_1(0x84, 0x0F); // Configures ambient light measures - Single conversion mode, 128 avera
 208              		.loc 1 47 0
 209 0066 8420     		mov	r0, #132
 210 0068 0F21     		mov	r1, #15
 211 006a FFF7FEFF 		bl	writeVCNL_1
 212              	.LVL25:
  48:./VCNL4010_1.h ****   writeVCNL_1(0x83, 0x32);   // sets IR current in steps of 10mA 0-200mA --> 200mA
 213              		.loc 1 48 0
 214 006e 8320     		mov	r0, #131
 215 0070 3221     		mov	r1, #50
 216 0072 FFF7FEFF 		bl	writeVCNL_1
 217              	.LVL26:
  49:./VCNL4010_1.h ****   writeVCNL_1(0x89, 0);    // Proximity IR test signal freq, 0-3 - 781.25 kHz
 218              		.loc 1 49 0
 219 0076 8920     		mov	r0, #137
 220 0078 0021     		mov	r1, #0
 221 007a FFF7FEFF 		bl	writeVCNL_1
 222              	.LVL27:
  50:./VCNL4010_1.h ****   writeVCNL_1(0x8A, 0x81); // proximity modulator timing - 129, recommended by Vishay 
 223              		.loc 1 50 0
 224 007e 8A20     		mov	r0, #138
 225 0080 8121     		mov	r1, #129
 226 0082 FFF7FEFF 		bl	writeVCNL_1
 227              	.LVL28:
  51:./VCNL4010_1.h **** }
 228              		.loc 1 51 0
 229              		@ sp needed
 230 0086 10BD     		pop	{r4, pc}
 231              	.L12:
 232              		.align	2
ARM GAS  C:\Users\Andres\AppData\Local\Temp\ccSsqcxd.s 			page 6


 233              	.L11:
 234 0088 00000000 		.word	.LANCHOR0
 235              		.cfi_endproc
 236              	.LFE38:
 237              		.size	initVCNL_1, .-initVCNL_1
 238              		.section	.text.readProximity_1,"ax",%progbits
 239              		.align	2
 240              		.global	readProximity_1
 241              		.code	16
 242              		.thumb_func
 243              		.type	readProximity_1, %function
 244              	readProximity_1:
 245              	.LFB39:
  52:./VCNL4010_1.h **** //Read Distance Signal
  53:./VCNL4010_1.h **** unsigned int readProximity_1(){
 246              		.loc 1 53 0
 247              		.cfi_startproc
 248 0000 10B5     		push	{r4, lr}
 249              		.cfi_def_cfa_offset 8
 250              		.cfi_offset 4, -8
 251              		.cfi_offset 14, -4
  54:./VCNL4010_1.h ****   int temp = readVCNL_1(0x80);
 252              		.loc 1 54 0
 253 0002 8020     		mov	r0, #128
 254 0004 FFF7FEFF 		bl	readVCNL_1
 255              	.LVL29:
  55:./VCNL4010_1.h ****   writeVCNL_1(0x80, temp | 0x08);             // command the sensor to perform a proximity measure
 256              		.loc 1 55 0
 257 0008 0823     		mov	r3, #8
 258 000a 011C     		mov	r1, r0
 259 000c 1943     		orr	r1, r3
 260 000e 8020     		mov	r0, #128
 261              	.LVL30:
 262 0010 FFF7FEFF 		bl	writeVCNL_1
 263              	.LVL31:
 264              	.L14:
  56:./VCNL4010_1.h ****   while(!(readVCNL_1(0x80)&0x20));            // Wait for the proximity data ready bit to be set
 265              		.loc 1 56 0 discriminator 1
 266 0014 8020     		mov	r0, #128
 267 0016 FFF7FEFF 		bl	readVCNL_1
 268              	.LVL32:
 269 001a 8306     		lsl	r3, r0, #26
 270 001c FAD5     		bpl	.L14
  57:./VCNL4010_1.h ****   unsigned int data = readVCNL_1(0x87) << 8;
 271              		.loc 1 57 0
 272 001e 8720     		mov	r0, #135
 273 0020 FFF7FEFF 		bl	readVCNL_1
 274              	.LVL33:
 275 0024 0402     		lsl	r4, r0, #8
 276              	.LVL34:
  58:./VCNL4010_1.h ****   data |= readVCNL_1(0x88);
 277              		.loc 1 58 0
 278 0026 8820     		mov	r0, #136
 279 0028 FFF7FEFF 		bl	readVCNL_1
 280              	.LVL35:
 281 002c 2043     		orr	r0, r4
 282              	.LVL36:
ARM GAS  C:\Users\Andres\AppData\Local\Temp\ccSsqcxd.s 			page 7


  59:./VCNL4010_1.h ****   return data;
  60:./VCNL4010_1.h **** }
 283              		.loc 1 60 0
 284              		@ sp needed
 285 002e 10BD     		pop	{r4, pc}
 286              		.cfi_endproc
 287              	.LFE39:
 288              		.size	readProximity_1, .-readProximity_1
 289              		.section	.text.readAmbient_1,"ax",%progbits
 290              		.align	2
 291              		.global	readAmbient_1
 292              		.code	16
 293              		.thumb_func
 294              		.type	readAmbient_1, %function
 295              	readAmbient_1:
 296              	.LFB40:
  61:./VCNL4010_1.h **** //Read Ambient Signal
  62:./VCNL4010_1.h **** unsigned int readAmbient_1(){
 297              		.loc 1 62 0
 298              		.cfi_startproc
 299 0000 10B5     		push	{r4, lr}
 300              		.cfi_def_cfa_offset 8
 301              		.cfi_offset 4, -8
 302              		.cfi_offset 14, -4
  63:./VCNL4010_1.h ****   int temp = readVCNL_1(0x80);
 303              		.loc 1 63 0
 304 0002 8020     		mov	r0, #128
 305 0004 FFF7FEFF 		bl	readVCNL_1
 306              	.LVL37:
  64:./VCNL4010_1.h ****   writeVCNL_1(0x80, temp | 0x10);             // command the sensor to perform ambient measure
 307              		.loc 1 64 0
 308 0008 1023     		mov	r3, #16
 309 000a 011C     		mov	r1, r0
 310 000c 1943     		orr	r1, r3
 311 000e 8020     		mov	r0, #128
 312              	.LVL38:
 313 0010 FFF7FEFF 		bl	writeVCNL_1
 314              	.LVL39:
 315              	.L16:
  65:./VCNL4010_1.h ****   while(!(readVCNL_1(0x80)&0x40));            // wait for the proximity data ready bit to be set
 316              		.loc 1 65 0 discriminator 1
 317 0014 8020     		mov	r0, #128
 318 0016 FFF7FEFF 		bl	readVCNL_1
 319              	.LVL40:
 320 001a 4306     		lsl	r3, r0, #25
 321 001c FAD5     		bpl	.L16
  66:./VCNL4010_1.h ****   unsigned int data = readVCNL_1(0x85) << 8;  
 322              		.loc 1 66 0
 323 001e 8520     		mov	r0, #133
 324 0020 FFF7FEFF 		bl	readVCNL_1
 325              	.LVL41:
 326 0024 0402     		lsl	r4, r0, #8
 327              	.LVL42:
  67:./VCNL4010_1.h ****   data |= readVCNL_1(0x86);
 328              		.loc 1 67 0
 329 0026 8620     		mov	r0, #134
 330 0028 FFF7FEFF 		bl	readVCNL_1
ARM GAS  C:\Users\Andres\AppData\Local\Temp\ccSsqcxd.s 			page 8


 331              	.LVL43:
 332 002c 2043     		orr	r0, r4
 333              	.LVL44:
  68:./VCNL4010_1.h ****   return data;
  69:./VCNL4010_1.h **** }
 334              		.loc 1 69 0
 335              		@ sp needed
 336 002e 10BD     		pop	{r4, pc}
 337              		.cfi_endproc
 338              	.LFE40:
 339              		.size	readAmbient_1, .-readAmbient_1
 340              		.section	.text.writeVCNL_2,"ax",%progbits
 341              		.align	2
 342              		.global	writeVCNL_2
 343              		.code	16
 344              		.thumb_func
 345              		.type	writeVCNL_2, %function
 346              	writeVCNL_2:
 347              	.LFB41:
 348              		.file 2 "./VCNL4010_2.h"
   1:./VCNL4010_2.h **** #include <project.h>
   2:./VCNL4010_2.h **** #define VCNL4010_ADDRESS 0x13
   3:./VCNL4010_2.h **** 
   4:./VCNL4010_2.h **** int ii=0;
   5:./VCNL4010_2.h **** //Send Data
   6:./VCNL4010_2.h **** void writeVCNL_2(int address, int data){
 349              		.loc 2 6 0
 350              		.cfi_startproc
 351              	.LVL45:
 352 0000 00B5     		push	{lr}
 353              		.cfi_def_cfa_offset 4
 354              		.cfi_offset 14, -4
 355 0002 83B0     		sub	sp, sp, #12
 356              		.cfi_def_cfa_offset 16
   7:./VCNL4010_2.h ****     uint8 Write_buf[2]={0};
 357              		.loc 2 7 0
 358 0004 01AB     		add	r3, sp, #4
   8:./VCNL4010_2.h ****     Write_buf[0]=address;
 359              		.loc 2 8 0
 360 0006 1870     		strb	r0, [r3]
   9:./VCNL4010_2.h ****     Write_buf[1]=data;
 361              		.loc 2 9 0
 362 0008 5970     		strb	r1, [r3, #1]
  10:./VCNL4010_2.h ****     SENSOR_2_I2CMasterWriteBuf(VCNL4010_ADDRESS,(uint8 *)Write_buf,2,SENSOR_2_I2C_MODE_COMPLETE_XFE
 363              		.loc 2 10 0
 364 000a 1320     		mov	r0, #19
 365              	.LVL46:
 366 000c 191C     		mov	r1, r3
 367              	.LVL47:
 368 000e 0222     		mov	r2, #2
 369 0010 0023     		mov	r3, #0
 370 0012 FFF7FEFF 		bl	SENSOR_2_I2CMasterWriteBuf
 371              	.LVL48:
 372              	.L18:
  11:./VCNL4010_2.h ****     while((SENSOR_2_I2CMasterStatus()&SENSOR_2_I2C_MSTAT_WR_CMPLT)==0){}
 373              		.loc 2 11 0 discriminator 1
 374 0016 FFF7FEFF 		bl	SENSOR_2_I2CMasterStatus
ARM GAS  C:\Users\Andres\AppData\Local\Temp\ccSsqcxd.s 			page 9


 375              	.LVL49:
 376 001a 8307     		lsl	r3, r0, #30
 377 001c FBD5     		bpl	.L18
  12:./VCNL4010_2.h ****     return;
  13:./VCNL4010_2.h **** }
 378              		.loc 2 13 0
 379 001e 03B0     		add	sp, sp, #12
 380              		@ sp needed
 381 0020 00BD     		pop	{pc}
 382              		.cfi_endproc
 383              	.LFE41:
 384              		.size	writeVCNL_2, .-writeVCNL_2
 385 0022 C046     		.section	.text.readVCNL_2,"ax",%progbits
 386              		.align	2
 387              		.global	readVCNL_2
 388              		.code	16
 389              		.thumb_func
 390              		.type	readVCNL_2, %function
 391              	readVCNL_2:
 392              	.LFB42:
  14:./VCNL4010_2.h **** //Read Data
  15:./VCNL4010_2.h **** int readVCNL_2(int address){
 393              		.loc 2 15 0
 394              		.cfi_startproc
 395              	.LVL50:
 396 0000 00B5     		push	{lr}
 397              		.cfi_def_cfa_offset 4
 398              		.cfi_offset 14, -4
 399 0002 83B0     		sub	sp, sp, #12
 400              		.cfi_def_cfa_offset 16
  16:./VCNL4010_2.h ****     uint8 Write_buf[1]={0};
 401              		.loc 2 16 0
 402 0004 01A9     		add	r1, sp, #4
  17:./VCNL4010_2.h ****     Write_buf[0]=address;
 403              		.loc 2 17 0
 404 0006 0870     		strb	r0, [r1]
  18:./VCNL4010_2.h ****     uint8 read_Buf[1]={0};
 405              		.loc 2 18 0
 406 0008 0023     		mov	r3, #0
 407 000a 6A46     		mov	r2, sp
 408 000c 1370     		strb	r3, [r2]
  19:./VCNL4010_2.h ****     SENSOR_2_I2CMasterWriteBuf(VCNL4010_ADDRESS,(uint8 *)Write_buf,1,SENSOR_2_I2C_MODE_NO_STOP);
 409              		.loc 2 19 0
 410 000e 1320     		mov	r0, #19
 411              	.LVL51:
 412 0010 0122     		mov	r2, #1
 413 0012 0233     		add	r3, r3, #2
 414 0014 FFF7FEFF 		bl	SENSOR_2_I2CMasterWriteBuf
 415              	.LVL52:
 416              	.L20:
  20:./VCNL4010_2.h ****     while((SENSOR_2_I2CMasterStatus()&SENSOR_2_I2C_MSTAT_WR_CMPLT)==0){}
 417              		.loc 2 20 0 discriminator 1
 418 0018 FFF7FEFF 		bl	SENSOR_2_I2CMasterStatus
 419              	.LVL53:
 420 001c 8307     		lsl	r3, r0, #30
 421 001e FBD5     		bpl	.L20
  21:./VCNL4010_2.h ****     SENSOR_2_I2CMasterReadBuf(VCNL4010_ADDRESS,(uint8 *)read_Buf,1,SENSOR_2_I2C_MODE_REPEAT_START);
ARM GAS  C:\Users\Andres\AppData\Local\Temp\ccSsqcxd.s 			page 10


 422              		.loc 2 21 0
 423 0020 1320     		mov	r0, #19
 424 0022 6946     		mov	r1, sp
 425 0024 0122     		mov	r2, #1
 426 0026 0123     		mov	r3, #1
 427 0028 FFF7FEFF 		bl	SENSOR_2_I2CMasterReadBuf
 428              	.LVL54:
 429              	.L21:
  22:./VCNL4010_2.h ****     while((SENSOR_2_I2CMasterStatus()&SENSOR_2_I2C_MSTAT_RD_CMPLT)==0){}
 430              		.loc 2 22 0 discriminator 1
 431 002c FFF7FEFF 		bl	SENSOR_2_I2CMasterStatus
 432              	.LVL55:
 433 0030 C307     		lsl	r3, r0, #31
 434 0032 FBD5     		bpl	.L21
  23:./VCNL4010_2.h ****     return read_Buf[0];
 435              		.loc 2 23 0
 436 0034 6B46     		mov	r3, sp
 437 0036 1878     		ldrb	r0, [r3]
  24:./VCNL4010_2.h **** }
 438              		.loc 2 24 0
 439 0038 03B0     		add	sp, sp, #12
 440              		@ sp needed
 441 003a 00BD     		pop	{pc}
 442              		.cfi_endproc
 443              	.LFE42:
 444              		.size	readVCNL_2, .-readVCNL_2
 445              		.section	.text.initVCNL_2,"ax",%progbits
 446              		.align	2
 447              		.global	initVCNL_2
 448              		.code	16
 449              		.thumb_func
 450              		.type	initVCNL_2, %function
 451              	initVCNL_2:
 452              	.LFB43:
  25:./VCNL4010_2.h **** //Init Sensor
  26:./VCNL4010_2.h **** void initVCNL_2(){
 453              		.loc 2 26 0
 454              		.cfi_startproc
 455 0000 10B5     		push	{r4, lr}
 456              		.cfi_def_cfa_offset 8
 457              		.cfi_offset 4, -8
 458              		.cfi_offset 14, -4
  27:./VCNL4010_2.h ****   int temp = readVCNL_2(0x81);
 459              		.loc 2 27 0
 460 0002 8120     		mov	r0, #129
 461 0004 FFF7FEFF 		bl	readVCNL_2
 462              	.LVL56:
  28:./VCNL4010_2.h ****   if (temp != 0x21){  
 463              		.loc 2 28 0
 464 0008 2128     		cmp	r0, #33
 465 000a 0ED0     		beq	.L23
  29:./VCNL4010_2.h ****     //Led Sequence Fail
  30:./VCNL4010_2.h ****     LED_2_Write(1);
 466              		.loc 2 30 0
 467 000c 0120     		mov	r0, #1
 468              	.LVL57:
 469 000e FFF7FEFF 		bl	LED_2_Write
ARM GAS  C:\Users\Andres\AppData\Local\Temp\ccSsqcxd.s 			page 11


 470              	.LVL58:
  31:./VCNL4010_2.h ****     CyDelay(500);
 471              		.loc 2 31 0
 472 0012 FA24     		mov	r4, #250
 473 0014 6400     		lsl	r4, r4, #1
 474 0016 201C     		mov	r0, r4
 475 0018 FFF7FEFF 		bl	CyDelay
 476              	.LVL59:
  32:./VCNL4010_2.h ****     LED_2_Write(0);
 477              		.loc 2 32 0
 478 001c 0020     		mov	r0, #0
 479 001e FFF7FEFF 		bl	LED_2_Write
 480              	.LVL60:
  33:./VCNL4010_2.h ****     CyDelay(500);    
 481              		.loc 2 33 0
 482 0022 201C     		mov	r0, r4
 483 0024 FFF7FEFF 		bl	CyDelay
 484              	.LVL61:
 485 0028 1DE0     		b	.L24
 486              	.LVL62:
 487              	.L23:
  34:./VCNL4010_2.h ****   }
  35:./VCNL4010_2.h ****    else{
  36:./VCNL4010_2.h ****     //Led Sequence Sucess
  37:./VCNL4010_2.h ****     LED_2_Write(0);
 488              		.loc 2 37 0
 489 002a 0020     		mov	r0, #0
 490              	.LVL63:
 491 002c FFF7FEFF 		bl	LED_2_Write
 492              	.LVL64:
  38:./VCNL4010_2.h ****     for(ii=1;ii<5;ii++){
 493              		.loc 2 38 0
 494 0030 0122     		mov	r2, #1
 495 0032 154B     		ldr	r3, .L27
 496 0034 5A60     		str	r2, [r3, #4]
 497 0036 0FE0     		b	.L25
 498              	.L26:
  39:./VCNL4010_2.h ****         LED_2_Write(1);
 499              		.loc 2 39 0 discriminator 3
 500 0038 0120     		mov	r0, #1
 501 003a FFF7FEFF 		bl	LED_2_Write
 502              	.LVL65:
  40:./VCNL4010_2.h ****         CyDelay(200);
 503              		.loc 2 40 0 discriminator 3
 504 003e C820     		mov	r0, #200
 505 0040 FFF7FEFF 		bl	CyDelay
 506              	.LVL66:
  41:./VCNL4010_2.h ****         LED_2_Write(0);
 507              		.loc 2 41 0 discriminator 3
 508 0044 0020     		mov	r0, #0
 509 0046 FFF7FEFF 		bl	LED_2_Write
 510              	.LVL67:
  42:./VCNL4010_2.h ****         CyDelay(200); 
 511              		.loc 2 42 0 discriminator 3
 512 004a C820     		mov	r0, #200
 513 004c FFF7FEFF 		bl	CyDelay
 514              	.LVL68:
ARM GAS  C:\Users\Andres\AppData\Local\Temp\ccSsqcxd.s 			page 12


  38:./VCNL4010_2.h ****         LED_2_Write(1);
 515              		.loc 2 38 0 discriminator 3
 516 0050 0D4A     		ldr	r2, .L27
 517 0052 5368     		ldr	r3, [r2, #4]
 518 0054 0133     		add	r3, r3, #1
 519 0056 5360     		str	r3, [r2, #4]
 520              	.L25:
  38:./VCNL4010_2.h ****         LED_2_Write(1);
 521              		.loc 2 38 0 is_stmt 0 discriminator 1
 522 0058 0B4B     		ldr	r3, .L27
 523 005a 5B68     		ldr	r3, [r3, #4]
 524 005c 042B     		cmp	r3, #4
 525 005e EBDD     		ble	.L26
  43:./VCNL4010_2.h ****         }
  44:./VCNL4010_2.h ****     LED_2_Write(0);
 526              		.loc 2 44 0 is_stmt 1
 527 0060 0020     		mov	r0, #0
 528 0062 FFF7FEFF 		bl	LED_2_Write
 529              	.LVL69:
 530              	.L24:
  45:./VCNL4010_2.h ****   } 
  46:./VCNL4010_2.h ****   //VCNL Init Params
  47:./VCNL4010_2.h ****   writeVCNL_2(0x84, 0x0F); // Configures ambient light measures - Single conversion mode, 128 avera
 531              		.loc 2 47 0
 532 0066 8420     		mov	r0, #132
 533 0068 0F21     		mov	r1, #15
 534 006a FFF7FEFF 		bl	writeVCNL_2
 535              	.LVL70:
  48:./VCNL4010_2.h ****   writeVCNL_2(0x83, 0x32);   // sets IR current in steps of 10mA 0-200mA --> 200mA
 536              		.loc 2 48 0
 537 006e 8320     		mov	r0, #131
 538 0070 3221     		mov	r1, #50
 539 0072 FFF7FEFF 		bl	writeVCNL_2
 540              	.LVL71:
  49:./VCNL4010_2.h ****   writeVCNL_2(0x89, 0);    // Proximity IR test signal freq, 0-3 - 781.25 kHz
 541              		.loc 2 49 0
 542 0076 8920     		mov	r0, #137
 543 0078 0021     		mov	r1, #0
 544 007a FFF7FEFF 		bl	writeVCNL_2
 545              	.LVL72:
  50:./VCNL4010_2.h ****   writeVCNL_2(0x8A, 0x81); // proximity modulator timing - 129, recommended by Vishay 
 546              		.loc 2 50 0
 547 007e 8A20     		mov	r0, #138
 548 0080 8121     		mov	r1, #129
 549 0082 FFF7FEFF 		bl	writeVCNL_2
 550              	.LVL73:
  51:./VCNL4010_2.h **** }
 551              		.loc 2 51 0
 552              		@ sp needed
 553 0086 10BD     		pop	{r4, pc}
 554              	.L28:
 555              		.align	2
 556              	.L27:
 557 0088 00000000 		.word	.LANCHOR0
 558              		.cfi_endproc
 559              	.LFE43:
 560              		.size	initVCNL_2, .-initVCNL_2
ARM GAS  C:\Users\Andres\AppData\Local\Temp\ccSsqcxd.s 			page 13


 561              		.section	.text.readProximity_2,"ax",%progbits
 562              		.align	2
 563              		.global	readProximity_2
 564              		.code	16
 565              		.thumb_func
 566              		.type	readProximity_2, %function
 567              	readProximity_2:
 568              	.LFB44:
  52:./VCNL4010_2.h **** //Read Distance Signal
  53:./VCNL4010_2.h **** unsigned int readProximity_2(){
 569              		.loc 2 53 0
 570              		.cfi_startproc
 571 0000 10B5     		push	{r4, lr}
 572              		.cfi_def_cfa_offset 8
 573              		.cfi_offset 4, -8
 574              		.cfi_offset 14, -4
  54:./VCNL4010_2.h ****   int temp = readVCNL_2(0x80);
 575              		.loc 2 54 0
 576 0002 8020     		mov	r0, #128
 577 0004 FFF7FEFF 		bl	readVCNL_2
 578              	.LVL74:
  55:./VCNL4010_2.h ****   writeVCNL_2(0x80, temp | 0x08);             // command the sensor to perform a proximity measure
 579              		.loc 2 55 0
 580 0008 0823     		mov	r3, #8
 581 000a 011C     		mov	r1, r0
 582 000c 1943     		orr	r1, r3
 583 000e 8020     		mov	r0, #128
 584              	.LVL75:
 585 0010 FFF7FEFF 		bl	writeVCNL_2
 586              	.LVL76:
 587              	.L30:
  56:./VCNL4010_2.h ****   while(!(readVCNL_2(0x80)&0x20));            // Wait for the proximity data ready bit to be set
 588              		.loc 2 56 0 discriminator 1
 589 0014 8020     		mov	r0, #128
 590 0016 FFF7FEFF 		bl	readVCNL_2
 591              	.LVL77:
 592 001a 8306     		lsl	r3, r0, #26
 593 001c FAD5     		bpl	.L30
  57:./VCNL4010_2.h ****   unsigned int data = readVCNL_2(0x87) << 8;
 594              		.loc 2 57 0
 595 001e 8720     		mov	r0, #135
 596 0020 FFF7FEFF 		bl	readVCNL_2
 597              	.LVL78:
 598 0024 0402     		lsl	r4, r0, #8
 599              	.LVL79:
  58:./VCNL4010_2.h ****   data |= readVCNL_2(0x88);
 600              		.loc 2 58 0
 601 0026 8820     		mov	r0, #136
 602 0028 FFF7FEFF 		bl	readVCNL_2
 603              	.LVL80:
 604 002c 2043     		orr	r0, r4
 605              	.LVL81:
  59:./VCNL4010_2.h ****   return data;
  60:./VCNL4010_2.h **** }
 606              		.loc 2 60 0
 607              		@ sp needed
 608 002e 10BD     		pop	{r4, pc}
ARM GAS  C:\Users\Andres\AppData\Local\Temp\ccSsqcxd.s 			page 14


 609              		.cfi_endproc
 610              	.LFE44:
 611              		.size	readProximity_2, .-readProximity_2
 612              		.section	.text.readAmbient_2,"ax",%progbits
 613              		.align	2
 614              		.global	readAmbient_2
 615              		.code	16
 616              		.thumb_func
 617              		.type	readAmbient_2, %function
 618              	readAmbient_2:
 619              	.LFB45:
  61:./VCNL4010_2.h **** //Read Ambient Signal
  62:./VCNL4010_2.h ****  int readAmbient_2(){
 620              		.loc 2 62 0
 621              		.cfi_startproc
 622 0000 10B5     		push	{r4, lr}
 623              		.cfi_def_cfa_offset 8
 624              		.cfi_offset 4, -8
 625              		.cfi_offset 14, -4
  63:./VCNL4010_2.h ****   int temp = readVCNL_2(0x80);
 626              		.loc 2 63 0
 627 0002 8020     		mov	r0, #128
 628 0004 FFF7FEFF 		bl	readVCNL_2
 629              	.LVL82:
  64:./VCNL4010_2.h ****   writeVCNL_2(0x80, temp | 0x10);             // command the sensor to perform ambient measure
 630              		.loc 2 64 0
 631 0008 1023     		mov	r3, #16
 632 000a 011C     		mov	r1, r0
 633 000c 1943     		orr	r1, r3
 634 000e 8020     		mov	r0, #128
 635              	.LVL83:
 636 0010 FFF7FEFF 		bl	writeVCNL_2
 637              	.LVL84:
 638              	.L32:
  65:./VCNL4010_2.h ****   while(!(readVCNL_2(0x80)&0x40));            // wait for the proximity data ready bit to be set
 639              		.loc 2 65 0 discriminator 1
 640 0014 8020     		mov	r0, #128
 641 0016 FFF7FEFF 		bl	readVCNL_2
 642              	.LVL85:
 643 001a 4306     		lsl	r3, r0, #25
 644 001c FAD5     		bpl	.L32
  66:./VCNL4010_2.h ****   unsigned int data = readVCNL_2(0x85) << 8;  
 645              		.loc 2 66 0
 646 001e 8520     		mov	r0, #133
 647 0020 FFF7FEFF 		bl	readVCNL_2
 648              	.LVL86:
 649 0024 0402     		lsl	r4, r0, #8
 650              	.LVL87:
  67:./VCNL4010_2.h ****   data |= readVCNL_2(0x86);
 651              		.loc 2 67 0
 652 0026 8620     		mov	r0, #134
 653 0028 FFF7FEFF 		bl	readVCNL_2
 654              	.LVL88:
 655 002c 2043     		orr	r0, r4
 656              	.LVL89:
  68:./VCNL4010_2.h ****   return data;
  69:./VCNL4010_2.h **** }
ARM GAS  C:\Users\Andres\AppData\Local\Temp\ccSsqcxd.s 			page 15


 657              		.loc 2 69 0
 658              		@ sp needed
 659 002e 10BD     		pop	{r4, pc}
 660              		.cfi_endproc
 661              	.LFE45:
 662              		.size	readAmbient_2, .-readAmbient_2
 663              		.section	.text.writeVCNL_3,"ax",%progbits
 664              		.align	2
 665              		.global	writeVCNL_3
 666              		.code	16
 667              		.thumb_func
 668              		.type	writeVCNL_3, %function
 669              	writeVCNL_3:
 670              	.LFB46:
 671              		.file 3 "./VCNL4010_3.h"
   1:./VCNL4010_3.h **** #include <project.h>
   2:./VCNL4010_3.h **** #define VCNL4010_ADDRESS 0x13
   3:./VCNL4010_3.h **** 
   4:./VCNL4010_3.h **** int iii=0;
   5:./VCNL4010_3.h **** //Send Data
   6:./VCNL4010_3.h **** void writeVCNL_3(int address, int data){
 672              		.loc 3 6 0
 673              		.cfi_startproc
 674              	.LVL90:
 675 0000 00B5     		push	{lr}
 676              		.cfi_def_cfa_offset 4
 677              		.cfi_offset 14, -4
 678 0002 83B0     		sub	sp, sp, #12
 679              		.cfi_def_cfa_offset 16
   7:./VCNL4010_3.h ****     uint8 Write_buf[2]={0};
 680              		.loc 3 7 0
 681 0004 01AB     		add	r3, sp, #4
   8:./VCNL4010_3.h ****     Write_buf[0]=address;
 682              		.loc 3 8 0
 683 0006 1870     		strb	r0, [r3]
   9:./VCNL4010_3.h ****     Write_buf[1]=data;
 684              		.loc 3 9 0
 685 0008 5970     		strb	r1, [r3, #1]
  10:./VCNL4010_3.h ****     SENSOR_3_I2CMasterWriteBuf(VCNL4010_ADDRESS,(uint8 *)Write_buf,2,SENSOR_3_I2C_MODE_COMPLETE_XFE
 686              		.loc 3 10 0
 687 000a 1320     		mov	r0, #19
 688              	.LVL91:
 689 000c 191C     		mov	r1, r3
 690              	.LVL92:
 691 000e 0222     		mov	r2, #2
 692 0010 0023     		mov	r3, #0
 693 0012 FFF7FEFF 		bl	SENSOR_3_I2CMasterWriteBuf
 694              	.LVL93:
 695              	.L34:
  11:./VCNL4010_3.h ****     while((SENSOR_3_I2CMasterStatus()&SENSOR_3_I2C_MSTAT_WR_CMPLT)==0){}
 696              		.loc 3 11 0 discriminator 1
 697 0016 FFF7FEFF 		bl	SENSOR_3_I2CMasterStatus
 698              	.LVL94:
 699 001a 8307     		lsl	r3, r0, #30
 700 001c FBD5     		bpl	.L34
  12:./VCNL4010_3.h ****     return;
  13:./VCNL4010_3.h **** }
ARM GAS  C:\Users\Andres\AppData\Local\Temp\ccSsqcxd.s 			page 16


 701              		.loc 3 13 0
 702 001e 03B0     		add	sp, sp, #12
 703              		@ sp needed
 704 0020 00BD     		pop	{pc}
 705              		.cfi_endproc
 706              	.LFE46:
 707              		.size	writeVCNL_3, .-writeVCNL_3
 708 0022 C046     		.section	.text.readVCNL_3,"ax",%progbits
 709              		.align	2
 710              		.global	readVCNL_3
 711              		.code	16
 712              		.thumb_func
 713              		.type	readVCNL_3, %function
 714              	readVCNL_3:
 715              	.LFB47:
  14:./VCNL4010_3.h **** //Read Data
  15:./VCNL4010_3.h **** int readVCNL_3(int address){
 716              		.loc 3 15 0
 717              		.cfi_startproc
 718              	.LVL95:
 719 0000 00B5     		push	{lr}
 720              		.cfi_def_cfa_offset 4
 721              		.cfi_offset 14, -4
 722 0002 83B0     		sub	sp, sp, #12
 723              		.cfi_def_cfa_offset 16
  16:./VCNL4010_3.h ****     uint8 Write_buf[1]={0};
 724              		.loc 3 16 0
 725 0004 01A9     		add	r1, sp, #4
  17:./VCNL4010_3.h ****     Write_buf[0]=address;
 726              		.loc 3 17 0
 727 0006 0870     		strb	r0, [r1]
  18:./VCNL4010_3.h ****     uint8 read_Buf[1]={0};
 728              		.loc 3 18 0
 729 0008 0023     		mov	r3, #0
 730 000a 6A46     		mov	r2, sp
 731 000c 1370     		strb	r3, [r2]
  19:./VCNL4010_3.h ****     SENSOR_3_I2CMasterWriteBuf(VCNL4010_ADDRESS,(uint8 *)Write_buf,1,SENSOR_3_I2C_MODE_NO_STOP);
 732              		.loc 3 19 0
 733 000e 1320     		mov	r0, #19
 734              	.LVL96:
 735 0010 0122     		mov	r2, #1
 736 0012 0233     		add	r3, r3, #2
 737 0014 FFF7FEFF 		bl	SENSOR_3_I2CMasterWriteBuf
 738              	.LVL97:
 739              	.L36:
  20:./VCNL4010_3.h ****     while((SENSOR_3_I2CMasterStatus()&SENSOR_3_I2C_MSTAT_WR_CMPLT)==0){}
 740              		.loc 3 20 0 discriminator 1
 741 0018 FFF7FEFF 		bl	SENSOR_3_I2CMasterStatus
 742              	.LVL98:
 743 001c 8307     		lsl	r3, r0, #30
 744 001e FBD5     		bpl	.L36
  21:./VCNL4010_3.h ****     SENSOR_3_I2CMasterReadBuf(VCNL4010_ADDRESS,(uint8 *)read_Buf,1,SENSOR_3_I2C_MODE_REPEAT_START);
 745              		.loc 3 21 0
 746 0020 1320     		mov	r0, #19
 747 0022 6946     		mov	r1, sp
 748 0024 0122     		mov	r2, #1
 749 0026 0123     		mov	r3, #1
ARM GAS  C:\Users\Andres\AppData\Local\Temp\ccSsqcxd.s 			page 17


 750 0028 FFF7FEFF 		bl	SENSOR_3_I2CMasterReadBuf
 751              	.LVL99:
 752              	.L37:
  22:./VCNL4010_3.h ****     while((SENSOR_3_I2CMasterStatus()&SENSOR_3_I2C_MSTAT_RD_CMPLT)==0){}
 753              		.loc 3 22 0 discriminator 1
 754 002c FFF7FEFF 		bl	SENSOR_3_I2CMasterStatus
 755              	.LVL100:
 756 0030 C307     		lsl	r3, r0, #31
 757 0032 FBD5     		bpl	.L37
  23:./VCNL4010_3.h ****     return read_Buf[0];
 758              		.loc 3 23 0
 759 0034 6B46     		mov	r3, sp
 760 0036 1878     		ldrb	r0, [r3]
  24:./VCNL4010_3.h **** }
 761              		.loc 3 24 0
 762 0038 03B0     		add	sp, sp, #12
 763              		@ sp needed
 764 003a 00BD     		pop	{pc}
 765              		.cfi_endproc
 766              	.LFE47:
 767              		.size	readVCNL_3, .-readVCNL_3
 768              		.section	.text.initVCNL_3,"ax",%progbits
 769              		.align	2
 770              		.global	initVCNL_3
 771              		.code	16
 772              		.thumb_func
 773              		.type	initVCNL_3, %function
 774              	initVCNL_3:
 775              	.LFB48:
  25:./VCNL4010_3.h **** //Init Sensor
  26:./VCNL4010_3.h **** void initVCNL_3(){
 776              		.loc 3 26 0
 777              		.cfi_startproc
 778 0000 10B5     		push	{r4, lr}
 779              		.cfi_def_cfa_offset 8
 780              		.cfi_offset 4, -8
 781              		.cfi_offset 14, -4
  27:./VCNL4010_3.h ****   int temp = readVCNL_3(0x81);
 782              		.loc 3 27 0
 783 0002 8120     		mov	r0, #129
 784 0004 FFF7FEFF 		bl	readVCNL_3
 785              	.LVL101:
  28:./VCNL4010_3.h ****   if (temp != 0x21){  
 786              		.loc 3 28 0
 787 0008 2128     		cmp	r0, #33
 788 000a 0ED0     		beq	.L39
  29:./VCNL4010_3.h ****     //Led Sequence Fail
  30:./VCNL4010_3.h ****     LED_3_Write(1);
 789              		.loc 3 30 0
 790 000c 0120     		mov	r0, #1
 791              	.LVL102:
 792 000e FFF7FEFF 		bl	LED_3_Write
 793              	.LVL103:
  31:./VCNL4010_3.h ****     CyDelay(500);
 794              		.loc 3 31 0
 795 0012 FA24     		mov	r4, #250
 796 0014 6400     		lsl	r4, r4, #1
ARM GAS  C:\Users\Andres\AppData\Local\Temp\ccSsqcxd.s 			page 18


 797 0016 201C     		mov	r0, r4
 798 0018 FFF7FEFF 		bl	CyDelay
 799              	.LVL104:
  32:./VCNL4010_3.h ****     LED_3_Write(0);
 800              		.loc 3 32 0
 801 001c 0020     		mov	r0, #0
 802 001e FFF7FEFF 		bl	LED_3_Write
 803              	.LVL105:
  33:./VCNL4010_3.h ****     CyDelay(500);    
 804              		.loc 3 33 0
 805 0022 201C     		mov	r0, r4
 806 0024 FFF7FEFF 		bl	CyDelay
 807              	.LVL106:
 808 0028 1DE0     		b	.L40
 809              	.LVL107:
 810              	.L39:
  34:./VCNL4010_3.h ****   }
  35:./VCNL4010_3.h ****    else{
  36:./VCNL4010_3.h ****     //Led Sequence Sucess
  37:./VCNL4010_3.h ****     LED_3_Write(0);
 811              		.loc 3 37 0
 812 002a 0020     		mov	r0, #0
 813              	.LVL108:
 814 002c FFF7FEFF 		bl	LED_3_Write
 815              	.LVL109:
  38:./VCNL4010_3.h ****     for(iii=1;iii<5;iii++){
 816              		.loc 3 38 0
 817 0030 0122     		mov	r2, #1
 818 0032 154B     		ldr	r3, .L43
 819 0034 9A60     		str	r2, [r3, #8]
 820 0036 0FE0     		b	.L41
 821              	.L42:
  39:./VCNL4010_3.h ****         LED_3_Write(1);
 822              		.loc 3 39 0 discriminator 3
 823 0038 0120     		mov	r0, #1
 824 003a FFF7FEFF 		bl	LED_3_Write
 825              	.LVL110:
  40:./VCNL4010_3.h ****         CyDelay(200);
 826              		.loc 3 40 0 discriminator 3
 827 003e C820     		mov	r0, #200
 828 0040 FFF7FEFF 		bl	CyDelay
 829              	.LVL111:
  41:./VCNL4010_3.h ****         LED_3_Write(0);
 830              		.loc 3 41 0 discriminator 3
 831 0044 0020     		mov	r0, #0
 832 0046 FFF7FEFF 		bl	LED_3_Write
 833              	.LVL112:
  42:./VCNL4010_3.h ****         CyDelay(200); 
 834              		.loc 3 42 0 discriminator 3
 835 004a C820     		mov	r0, #200
 836 004c FFF7FEFF 		bl	CyDelay
 837              	.LVL113:
  38:./VCNL4010_3.h ****         LED_3_Write(1);
 838              		.loc 3 38 0 discriminator 3
 839 0050 0D4A     		ldr	r2, .L43
 840 0052 9368     		ldr	r3, [r2, #8]
 841 0054 0133     		add	r3, r3, #1
ARM GAS  C:\Users\Andres\AppData\Local\Temp\ccSsqcxd.s 			page 19


 842 0056 9360     		str	r3, [r2, #8]
 843              	.L41:
  38:./VCNL4010_3.h ****         LED_3_Write(1);
 844              		.loc 3 38 0 is_stmt 0 discriminator 1
 845 0058 0B4B     		ldr	r3, .L43
 846 005a 9B68     		ldr	r3, [r3, #8]
 847 005c 042B     		cmp	r3, #4
 848 005e EBDD     		ble	.L42
  43:./VCNL4010_3.h ****         }
  44:./VCNL4010_3.h ****     LED_2_Write(0);
 849              		.loc 3 44 0 is_stmt 1
 850 0060 0020     		mov	r0, #0
 851 0062 FFF7FEFF 		bl	LED_2_Write
 852              	.LVL114:
 853              	.L40:
  45:./VCNL4010_3.h ****   } 
  46:./VCNL4010_3.h ****   //VCNL Init Params
  47:./VCNL4010_3.h ****   writeVCNL_3(0x84, 0x0F); // Configures ambient light measures - Single conversion mode, 128 avera
 854              		.loc 3 47 0
 855 0066 8420     		mov	r0, #132
 856 0068 0F21     		mov	r1, #15
 857 006a FFF7FEFF 		bl	writeVCNL_3
 858              	.LVL115:
  48:./VCNL4010_3.h ****   writeVCNL_3(0x83, 0x32);   // sets IR current in steps of 10mA 0-200mA --> 200mA
 859              		.loc 3 48 0
 860 006e 8320     		mov	r0, #131
 861 0070 3221     		mov	r1, #50
 862 0072 FFF7FEFF 		bl	writeVCNL_3
 863              	.LVL116:
  49:./VCNL4010_3.h ****   writeVCNL_3(0x89, 0);    // Proximity IR test signal freq, 0-3 - 781.25 kHz
 864              		.loc 3 49 0
 865 0076 8920     		mov	r0, #137
 866 0078 0021     		mov	r1, #0
 867 007a FFF7FEFF 		bl	writeVCNL_3
 868              	.LVL117:
  50:./VCNL4010_3.h ****   writeVCNL_3(0x8A, 0x81); // proximity modulator timing - 129, recommended by Vishay 
 869              		.loc 3 50 0
 870 007e 8A20     		mov	r0, #138
 871 0080 8121     		mov	r1, #129
 872 0082 FFF7FEFF 		bl	writeVCNL_3
 873              	.LVL118:
  51:./VCNL4010_3.h **** }
 874              		.loc 3 51 0
 875              		@ sp needed
 876 0086 10BD     		pop	{r4, pc}
 877              	.L44:
 878              		.align	2
 879              	.L43:
 880 0088 00000000 		.word	.LANCHOR0
 881              		.cfi_endproc
 882              	.LFE48:
 883              		.size	initVCNL_3, .-initVCNL_3
 884              		.section	.text.readProximity_3,"ax",%progbits
 885              		.align	2
 886              		.global	readProximity_3
 887              		.code	16
 888              		.thumb_func
ARM GAS  C:\Users\Andres\AppData\Local\Temp\ccSsqcxd.s 			page 20


 889              		.type	readProximity_3, %function
 890              	readProximity_3:
 891              	.LFB49:
  52:./VCNL4010_3.h **** //Read Distance Signal
  53:./VCNL4010_3.h **** unsigned int readProximity_3(){
 892              		.loc 3 53 0
 893              		.cfi_startproc
 894 0000 10B5     		push	{r4, lr}
 895              		.cfi_def_cfa_offset 8
 896              		.cfi_offset 4, -8
 897              		.cfi_offset 14, -4
  54:./VCNL4010_3.h ****   int temp = readVCNL_3(0x80);
 898              		.loc 3 54 0
 899 0002 8020     		mov	r0, #128
 900 0004 FFF7FEFF 		bl	readVCNL_3
 901              	.LVL119:
  55:./VCNL4010_3.h ****   writeVCNL_3(0x80, temp | 0x08);             // command the sensor to perform a proximity measure
 902              		.loc 3 55 0
 903 0008 0823     		mov	r3, #8
 904 000a 011C     		mov	r1, r0
 905 000c 1943     		orr	r1, r3
 906 000e 8020     		mov	r0, #128
 907              	.LVL120:
 908 0010 FFF7FEFF 		bl	writeVCNL_3
 909              	.LVL121:
 910              	.L46:
  56:./VCNL4010_3.h ****   while(!(readVCNL_3(0x80)&0x20));            // Wait for the proximity data ready bit to be set
 911              		.loc 3 56 0 discriminator 1
 912 0014 8020     		mov	r0, #128
 913 0016 FFF7FEFF 		bl	readVCNL_3
 914              	.LVL122:
 915 001a 8306     		lsl	r3, r0, #26
 916 001c FAD5     		bpl	.L46
  57:./VCNL4010_3.h ****   unsigned int data = readVCNL_3(0x87) << 8;
 917              		.loc 3 57 0
 918 001e 8720     		mov	r0, #135
 919 0020 FFF7FEFF 		bl	readVCNL_3
 920              	.LVL123:
 921 0024 0402     		lsl	r4, r0, #8
 922              	.LVL124:
  58:./VCNL4010_3.h ****   data |= readVCNL_3(0x88);
 923              		.loc 3 58 0
 924 0026 8820     		mov	r0, #136
 925 0028 FFF7FEFF 		bl	readVCNL_3
 926              	.LVL125:
 927 002c 2043     		orr	r0, r4
 928              	.LVL126:
  59:./VCNL4010_3.h ****   return data;
  60:./VCNL4010_3.h **** }
 929              		.loc 3 60 0
 930              		@ sp needed
 931 002e 10BD     		pop	{r4, pc}
 932              		.cfi_endproc
 933              	.LFE49:
 934              		.size	readProximity_3, .-readProximity_3
 935              		.section	.text.readAmbient_3,"ax",%progbits
 936              		.align	2
ARM GAS  C:\Users\Andres\AppData\Local\Temp\ccSsqcxd.s 			page 21


 937              		.global	readAmbient_3
 938              		.code	16
 939              		.thumb_func
 940              		.type	readAmbient_3, %function
 941              	readAmbient_3:
 942              	.LFB50:
  61:./VCNL4010_3.h **** //Read Ambient Signal
  62:./VCNL4010_3.h **** unsigned int readAmbient_3(){
 943              		.loc 3 62 0
 944              		.cfi_startproc
 945 0000 10B5     		push	{r4, lr}
 946              		.cfi_def_cfa_offset 8
 947              		.cfi_offset 4, -8
 948              		.cfi_offset 14, -4
  63:./VCNL4010_3.h ****   int temp = readVCNL_3(0x80);
 949              		.loc 3 63 0
 950 0002 8020     		mov	r0, #128
 951 0004 FFF7FEFF 		bl	readVCNL_3
 952              	.LVL127:
  64:./VCNL4010_3.h ****   writeVCNL_3(0x80, temp | 0x10);             // command the sensor to perform ambient measure
 953              		.loc 3 64 0
 954 0008 1023     		mov	r3, #16
 955 000a 011C     		mov	r1, r0
 956 000c 1943     		orr	r1, r3
 957 000e 8020     		mov	r0, #128
 958              	.LVL128:
 959 0010 FFF7FEFF 		bl	writeVCNL_3
 960              	.LVL129:
 961              	.L48:
  65:./VCNL4010_3.h ****   while(!(readVCNL_3(0x80)&0x40));            // wait for the proximity data ready bit to be set
 962              		.loc 3 65 0 discriminator 1
 963 0014 8020     		mov	r0, #128
 964 0016 FFF7FEFF 		bl	readVCNL_3
 965              	.LVL130:
 966 001a 4306     		lsl	r3, r0, #25
 967 001c FAD5     		bpl	.L48
  66:./VCNL4010_3.h ****   unsigned int data = readVCNL_3(0x85) << 8;  
 968              		.loc 3 66 0
 969 001e 8520     		mov	r0, #133
 970 0020 FFF7FEFF 		bl	readVCNL_3
 971              	.LVL131:
 972 0024 0402     		lsl	r4, r0, #8
 973              	.LVL132:
  67:./VCNL4010_3.h ****   data |= readVCNL_3(0x86);
 974              		.loc 3 67 0
 975 0026 8620     		mov	r0, #134
 976 0028 FFF7FEFF 		bl	readVCNL_3
 977              	.LVL133:
 978 002c 2043     		orr	r0, r4
 979              	.LVL134:
  68:./VCNL4010_3.h ****   return data;
  69:./VCNL4010_3.h **** }
 980              		.loc 3 69 0
 981              		@ sp needed
 982 002e 10BD     		pop	{r4, pc}
 983              		.cfi_endproc
 984              	.LFE50:
ARM GAS  C:\Users\Andres\AppData\Local\Temp\ccSsqcxd.s 			page 22


 985              		.size	readAmbient_3, .-readAmbient_3
 986              		.section	.text.error_data,"ax",%progbits
 987              		.align	2
 988              		.global	error_data
 989              		.code	16
 990              		.thumb_func
 991              		.type	error_data, %function
 992              	error_data:
 993              	.LFB51:
 994              		.file 4 "./AX12.h"
   1:./AX12.h      **** #include <DynamixelSerial1.h>
   2:./AX12.h      **** #include <project.h>
   3:./AX12.h      **** 
   4:./AX12.h      **** //////actualizado 2.0     <---------------------------------------------
   5:./AX12.h      **** unsigned char Checksum;
   6:./AX12.h      **** unsigned char Incoming_Byte,Temperature_Byte,Error_Byte,Incoming_Byte2,Position_Long_Byte, Position
   7:./AX12.h      **** int Time_Counter;
   8:./AX12.h      **** //The functions are based on the arduino library
   9:./AX12.h      **** 
  10:./AX12.h      **** 
  11:./AX12.h      **** int error_data (){
 995              		.loc 4 11 0
 996              		.cfi_startproc
 997 0000 10B5     		push	{r4, lr}
 998              		.cfi_def_cfa_offset 8
 999              		.cfi_offset 4, -8
 1000              		.cfi_offset 14, -4
  12:./AX12.h      ****     Time_Counter=0;
 1001              		.loc 4 12 0
 1002 0002 0022     		mov	r2, #0
 1003 0004 224B     		ldr	r3, .L55
 1004 0006 1A60     		str	r2, [r3]
  13:./AX12.h      ****     CyDelay(20); ///// delay para recibir
 1005              		.loc 4 13 0
 1006 0008 1420     		mov	r0, #20
 1007 000a FFF7FEFF 		bl	CyDelay
 1008              	.LVL135:
  14:./AX12.h      ****     while((RX_GetRxBufferSize() < 6) & (Time_Counter==TIME_OUT))
 1009              		.loc 4 14 0
 1010 000e 06E0     		b	.L50
 1011              	.L51:
  15:./AX12.h      ****     {Time_Counter++;
 1012              		.loc 4 15 0
 1013 0010 0132     		add	r2, r2, #1
 1014 0012 1F4B     		ldr	r3, .L55
 1015 0014 1A60     		str	r2, [r3]
  16:./AX12.h      ****     CyDelayUs(1000);
 1016              		.loc 4 16 0
 1017 0016 FA20     		mov	r0, #250
 1018 0018 8000     		lsl	r0, r0, #2
 1019 001a FFF7FEFF 		bl	CyDelayUs
 1020              	.LVL136:
 1021              	.L50:
  14:./AX12.h      ****     while((RX_GetRxBufferSize() < 6) & (Time_Counter==TIME_OUT))
 1022              		.loc 4 14 0
 1023 001e FFF7FEFF 		bl	RX_GetRxBufferSize
 1024              	.LVL137:
ARM GAS  C:\Users\Andres\AppData\Local\Temp\ccSsqcxd.s 			page 23


 1025 0022 1B4B     		ldr	r3, .L55
 1026 0024 1A68     		ldr	r2, [r3]
 1027 0026 0023     		mov	r3, #0
 1028 0028 0521     		mov	r1, #5
 1029 002a 8142     		cmp	r1, r0
 1030 002c 5B41     		adc	r3, r3, r3
 1031 002e 111C     		mov	r1, r2
 1032 0030 0A39     		sub	r1, r1, #10
 1033 0032 4842     		neg	r0, r1
 1034 0034 4141     		adc	r1, r1, r0
 1035 0036 1942     		tst	r1, r3
 1036 0038 EAD1     		bne	.L51
 1037 003a 21E0     		b	.L52
 1038              	.L54:
  17:./AX12.h      ****         }
  18:./AX12.h      ****     
  19:./AX12.h      ****         while (RX_GetRxBufferSize() > 0){
  20:./AX12.h      ****          
  21:./AX12.h      ****              
  22:./AX12.h      ****              
  23:./AX12.h      **** 		Incoming_Byte =    RX_GetChar();
 1039              		.loc 4 23 0
 1040 003c FFF7FEFF 		bl	RX_GetChar
 1041              	.LVL138:
 1042 0040 144C     		ldr	r4, .L55+4
 1043 0042 2070     		strb	r0, [r4]
  24:./AX12.h      ****         Incoming_Byte2 =    RX_GetChar();
 1044              		.loc 4 24 0
 1045 0044 FFF7FEFF 		bl	RX_GetChar
 1046              	.LVL139:
 1047 0048 134B     		ldr	r3, .L55+8
 1048 004a 1870     		strb	r0, [r3]
  25:./AX12.h      **** 		if ( (Incoming_Byte == 255) & (Incoming_Byte2 == 255) ){
 1049              		.loc 4 25 0
 1050 004c 2378     		ldrb	r3, [r4]
 1051 004e FF3B     		sub	r3, r3, #255
 1052 0050 5A42     		neg	r2, r3
 1053 0052 5341     		adc	r3, r3, r2
 1054 0054 FF38     		sub	r0, r0, #255
 1055 0056 4242     		neg	r2, r0
 1056 0058 5041     		adc	r0, r0, r2
 1057 005a 1842     		tst	r0, r3
 1058 005c 10D0     		beq	.L52
  26:./AX12.h      **** 			
  27:./AX12.h      **** 		   RX_GetChar();    //ID motor
 1059              		.loc 4 27 0
 1060 005e FFF7FEFF 		bl	RX_GetChar
 1061              	.LVL140:
  28:./AX12.h      ****           RX_GetChar();   // Length                                                               
 1062              		.loc 4 28 0
 1063 0062 FFF7FEFF 		bl	RX_GetChar
 1064              	.LVL141:
  29:./AX12.h      **** 	       Error_Byte =   RX_GetChar();   // Error                    
 1065              		.loc 4 29 0
 1066 0066 FFF7FEFF 		bl	RX_GetChar
 1067              	.LVL142:
 1068 006a 0C4C     		ldr	r4, .L55+12
ARM GAS  C:\Users\Andres\AppData\Local\Temp\ccSsqcxd.s 			page 24


 1069 006c 2070     		strb	r0, [r4]
  30:./AX12.h      **** 		   RX_GetChar(); ///check
 1070              		.loc 4 30 0
 1071 006e FFF7FEFF 		bl	RX_GetChar
 1072              	.LVL143:
  31:./AX12.h      **** 	  RX_ClearRxBuffer(); //limpia buffer 
 1073              		.loc 4 31 0
 1074 0072 FFF7FEFF 		bl	RX_ClearRxBuffer
 1075              	.LVL144:
  32:./AX12.h      ****     CyDelay(10);
 1076              		.loc 4 32 0
 1077 0076 0A20     		mov	r0, #10
 1078 0078 FFF7FEFF 		bl	CyDelay
 1079              	.LVL145:
  33:./AX12.h      ****          return (Error_Byte);
 1080              		.loc 4 33 0
 1081 007c 2078     		ldrb	r0, [r4]
 1082 007e 05E0     		b	.L53
 1083              	.L52:
  19:./AX12.h      ****          
 1084              		.loc 4 19 0
 1085 0080 FFF7FEFF 		bl	RX_GetRxBufferSize
 1086              	.LVL146:
 1087 0084 0028     		cmp	r0, #0
 1088 0086 D9D1     		bne	.L54
  34:./AX12.h      **** 			            
  35:./AX12.h      **** 		}
  36:./AX12.h      ****        
  37:./AX12.h      ****    }
  38:./AX12.h      ****          return (Error_Byte);  //ax no responde
 1089              		.loc 4 38 0
 1090 0088 044B     		ldr	r3, .L55+12
 1091 008a 1878     		ldrb	r0, [r3]
 1092              	.L53:
  39:./AX12.h      **** }
 1093              		.loc 4 39 0
 1094              		@ sp needed
 1095 008c 10BD     		pop	{r4, pc}
 1096              	.L56:
 1097 008e C046     		.align	2
 1098              	.L55:
 1099 0090 00000000 		.word	Time_Counter
 1100 0094 00000000 		.word	Incoming_Byte
 1101 0098 00000000 		.word	Incoming_Byte2
 1102 009c 00000000 		.word	Error_Byte
 1103              		.cfi_endproc
 1104              	.LFE51:
 1105              		.size	error_data, .-error_data
 1106              		.section	.text.readtemperature,"ax",%progbits
 1107              		.align	2
 1108              		.global	readtemperature
 1109              		.code	16
 1110              		.thumb_func
 1111              		.type	readtemperature, %function
 1112              	readtemperature:
 1113              	.LFB52:
  40:./AX12.h      **** 
ARM GAS  C:\Users\Andres\AppData\Local\Temp\ccSsqcxd.s 			page 25


  41:./AX12.h      **** 
  42:./AX12.h      **** int readtemperature(unsigned char ID){
 1114              		.loc 4 42 0
 1115              		.cfi_startproc
 1116              	.LVL147:
 1117 0000 38B5     		push	{r3, r4, r5, lr}
 1118              		.cfi_def_cfa_offset 16
 1119              		.cfi_offset 3, -16
 1120              		.cfi_offset 4, -12
 1121              		.cfi_offset 5, -8
 1122              		.cfi_offset 14, -4
 1123 0002 051C     		mov	r5, r0
  43:./AX12.h      **** 
  44:./AX12.h      ****     Checksum = (~(ID + AX_TEM_LENGTH  + AX_READ_DATA + AX_PRESENT_TEMPERATURE + AX_BYTE_READ))&0xFF
 1124              		.loc 4 44 0
 1125 0004 384C     		ldr	r4, .L63
 1126 0006 031C     		mov	r3, r0
 1127 0008 3233     		add	r3, r3, #50
 1128 000a DB43     		mvn	r3, r3
 1129 000c 2370     		strb	r3, [r4]
  45:./AX12.h      **** 
  46:./AX12.h      ****     TXC_Write(2); ////habilita tx  2
 1130              		.loc 4 46 0
 1131 000e 0220     		mov	r0, #2
 1132              	.LVL148:
 1133 0010 FFF7FEFF 		bl	TXC_Write
 1134              	.LVL149:
  47:./AX12.h      ****    
  48:./AX12.h      **** MOTOR_PutChar(AX_START);
 1135              		.loc 4 48 0
 1136 0014 FF20     		mov	r0, #255
 1137 0016 FFF7FEFF 		bl	MOTOR_PutChar
 1138              	.LVL150:
  49:./AX12.h      **** MOTOR_PutChar(AX_START);
 1139              		.loc 4 49 0
 1140 001a FF20     		mov	r0, #255
 1141 001c FFF7FEFF 		bl	MOTOR_PutChar
 1142              	.LVL151:
  50:./AX12.h      **** MOTOR_PutChar(ID);
 1143              		.loc 4 50 0
 1144 0020 281C     		mov	r0, r5
 1145 0022 FFF7FEFF 		bl	MOTOR_PutChar
 1146              	.LVL152:
  51:./AX12.h      **** MOTOR_PutChar(AX_TEM_LENGTH);
 1147              		.loc 4 51 0
 1148 0026 0420     		mov	r0, #4
 1149 0028 FFF7FEFF 		bl	MOTOR_PutChar
 1150              	.LVL153:
  52:./AX12.h      **** MOTOR_PutChar(AX_READ_DATA);
 1151              		.loc 4 52 0
 1152 002c 0220     		mov	r0, #2
 1153 002e FFF7FEFF 		bl	MOTOR_PutChar
 1154              	.LVL154:
  53:./AX12.h      **** MOTOR_PutChar(AX_PRESENT_TEMPERATURE);
 1155              		.loc 4 53 0
 1156 0032 2B20     		mov	r0, #43
 1157 0034 FFF7FEFF 		bl	MOTOR_PutChar
ARM GAS  C:\Users\Andres\AppData\Local\Temp\ccSsqcxd.s 			page 26


 1158              	.LVL155:
  54:./AX12.h      **** MOTOR_PutChar(AX_BYTE_READ);
 1159              		.loc 4 54 0
 1160 0038 0120     		mov	r0, #1
 1161 003a FFF7FEFF 		bl	MOTOR_PutChar
 1162              	.LVL156:
  55:./AX12.h      **** MOTOR_PutChar(Checksum);
 1163              		.loc 4 55 0
 1164 003e 2078     		ldrb	r0, [r4]
 1165 0040 FFF7FEFF 		bl	MOTOR_PutChar
 1166              	.LVL157:
  56:./AX12.h      **** CyDelayUs(TX_DELAY_TIME);
 1167              		.loc 4 56 0
 1168 0044 C820     		mov	r0, #200
 1169 0046 4000     		lsl	r0, r0, #1
 1170 0048 FFF7FEFF 		bl	CyDelayUs
 1171              	.LVL158:
  57:./AX12.h      ****   CyDelay(5);  /// cambio de estado delay para buffer de salida
 1172              		.loc 4 57 0
 1173 004c 0520     		mov	r0, #5
 1174 004e FFF7FEFF 		bl	CyDelay
 1175              	.LVL159:
  58:./AX12.h      ****   TXC_Write(1); ///habilita rx 1
 1176              		.loc 4 58 0
 1177 0052 0120     		mov	r0, #1
 1178 0054 FFF7FEFF 		bl	TXC_Write
 1179              	.LVL160:
  59:./AX12.h      ****      
  60:./AX12.h      ****     Time_Counter=0;
 1180              		.loc 4 60 0
 1181 0058 0022     		mov	r2, #0
 1182 005a 244B     		ldr	r3, .L63+4
 1183 005c 1A60     		str	r2, [r3]
  61:./AX12.h      ****     CyDelay(20);/// delay para recibir
 1184              		.loc 4 61 0
 1185 005e 1420     		mov	r0, #20
 1186 0060 FFF7FEFF 		bl	CyDelay
 1187              	.LVL161:
  62:./AX12.h      ****  while((RX_GetRxBufferSize() < 6) & (Time_Counter==TIME_OUT))
 1188              		.loc 4 62 0
 1189 0064 06E0     		b	.L58
 1190              	.L59:
  63:./AX12.h      ****     {Time_Counter++;
 1191              		.loc 4 63 0
 1192 0066 0132     		add	r2, r2, #1
 1193 0068 204B     		ldr	r3, .L63+4
 1194 006a 1A60     		str	r2, [r3]
  64:./AX12.h      ****     CyDelayUs(1000);
 1195              		.loc 4 64 0
 1196 006c FA20     		mov	r0, #250
 1197 006e 8000     		lsl	r0, r0, #2
 1198 0070 FFF7FEFF 		bl	CyDelayUs
 1199              	.LVL162:
 1200              	.L58:
  62:./AX12.h      ****  while((RX_GetRxBufferSize() < 6) & (Time_Counter==TIME_OUT))
 1201              		.loc 4 62 0
 1202 0074 FFF7FEFF 		bl	RX_GetRxBufferSize
ARM GAS  C:\Users\Andres\AppData\Local\Temp\ccSsqcxd.s 			page 27


 1203              	.LVL163:
 1204 0078 1C4B     		ldr	r3, .L63+4
 1205 007a 1A68     		ldr	r2, [r3]
 1206 007c 0023     		mov	r3, #0
 1207 007e 0521     		mov	r1, #5
 1208 0080 8142     		cmp	r1, r0
 1209 0082 5B41     		adc	r3, r3, r3
 1210 0084 111C     		mov	r1, r2
 1211 0086 0A39     		sub	r1, r1, #10
 1212 0088 4842     		neg	r0, r1
 1213 008a 4141     		adc	r1, r1, r0
 1214 008c 1942     		tst	r1, r3
 1215 008e EAD1     		bne	.L59
 1216 0090 23E0     		b	.L60
 1217              	.L62:
  65:./AX12.h      ****         }
  66:./AX12.h      **** 
  67:./AX12.h      ****         while (RX_GetRxBufferSize() > 0){
  68:./AX12.h      **** 		Incoming_Byte = RX_ReadRxData();
 1218              		.loc 4 68 0
 1219 0092 FFF7FEFF 		bl	RX_ReadRxData
 1220              	.LVL164:
 1221 0096 164C     		ldr	r4, .L63+8
 1222 0098 2070     		strb	r0, [r4]
  69:./AX12.h      ****         Incoming_Byte2= RX_ReadRxData();
 1223              		.loc 4 69 0
 1224 009a FFF7FEFF 		bl	RX_ReadRxData
 1225              	.LVL165:
 1226 009e 154B     		ldr	r3, .L63+12
 1227 00a0 1870     		strb	r0, [r3]
  70:./AX12.h      **** 		if ( (Incoming_Byte == 255) & (Incoming_Byte2  == 255) ){
 1228              		.loc 4 70 0
 1229 00a2 2378     		ldrb	r3, [r4]
 1230 00a4 FF3B     		sub	r3, r3, #255
 1231 00a6 5A42     		neg	r2, r3
 1232 00a8 5341     		adc	r3, r3, r2
 1233 00aa FF38     		sub	r0, r0, #255
 1234 00ac 4242     		neg	r2, r0
 1235 00ae 5041     		adc	r0, r0, r2
 1236 00b0 1842     		tst	r0, r3
 1237 00b2 12D0     		beq	.L60
  71:./AX12.h      **** 			                   
  72:./AX12.h      **** 	        RX_ReadRxData();       // Ax-12 ID
 1238              		.loc 4 72 0
 1239 00b4 FFF7FEFF 		bl	RX_ReadRxData
 1240              	.LVL166:
  73:./AX12.h      **** 			RX_ReadRxData();       // Length
 1241              		.loc 4 73 0
 1242 00b8 FFF7FEFF 		bl	RX_ReadRxData
 1243              	.LVL167:
  74:./AX12.h      **** 	    	RX_ReadRxData();       //error
 1244              		.loc 4 74 0
 1245 00bc FFF7FEFF 		bl	RX_ReadRxData
 1246              	.LVL168:
  75:./AX12.h      ****         	Temperature_Byte= 	RX_ReadRxData(); ///dato
 1247              		.loc 4 75 0
 1248 00c0 FFF7FEFF 		bl	RX_ReadRxData
ARM GAS  C:\Users\Andres\AppData\Local\Temp\ccSsqcxd.s 			page 28


 1249              	.LVL169:
 1250 00c4 0C4C     		ldr	r4, .L63+16
 1251 00c6 2070     		strb	r0, [r4]
  76:./AX12.h      **** 	        RX_ReadRxData();            //cheaksum           
 1252              		.loc 4 76 0
 1253 00c8 FFF7FEFF 		bl	RX_ReadRxData
 1254              	.LVL170:
  77:./AX12.h      ****             RX_ClearRxBuffer(); //limpia buffer
 1255              		.loc 4 77 0
 1256 00cc FFF7FEFF 		bl	RX_ClearRxBuffer
 1257              	.LVL171:
  78:./AX12.h      ****              CyDelay(10);
 1258              		.loc 4 78 0
 1259 00d0 0A20     		mov	r0, #10
 1260 00d2 FFF7FEFF 		bl	CyDelay
 1261              	.LVL172:
  79:./AX12.h      ****             return (Temperature_Byte);
 1262              		.loc 4 79 0
 1263 00d6 2078     		ldrb	r0, [r4]
 1264 00d8 05E0     		b	.L61
 1265              	.L60:
  67:./AX12.h      **** 		Incoming_Byte = RX_ReadRxData();
 1266              		.loc 4 67 0
 1267 00da FFF7FEFF 		bl	RX_GetRxBufferSize
 1268              	.LVL173:
 1269 00de 0028     		cmp	r0, #0
 1270 00e0 D7D1     		bne	.L62
  80:./AX12.h      **** 		}
  81:./AX12.h      ****    }
  82:./AX12.h      **** return (Temperature_Byte);
 1271              		.loc 4 82 0
 1272 00e2 054B     		ldr	r3, .L63+16
 1273 00e4 1878     		ldrb	r0, [r3]
 1274              	.L61:
  83:./AX12.h      **** }
 1275              		.loc 4 83 0
 1276              		@ sp needed
 1277 00e6 38BD     		pop	{r3, r4, r5, pc}
 1278              	.L64:
 1279              		.align	2
 1280              	.L63:
 1281 00e8 00000000 		.word	Checksum
 1282 00ec 00000000 		.word	Time_Counter
 1283 00f0 00000000 		.word	Incoming_Byte
 1284 00f4 00000000 		.word	Incoming_Byte2
 1285 00f8 00000000 		.word	Temperature_Byte
 1286              		.cfi_endproc
 1287              	.LFE52:
 1288              		.size	readtemperature, .-readtemperature
 1289              		.section	.text.setID,"ax",%progbits
 1290              		.align	2
 1291              		.global	setID
 1292              		.code	16
 1293              		.thumb_func
 1294              		.type	setID, %function
 1295              	setID:
 1296              	.LFB53:
ARM GAS  C:\Users\Andres\AppData\Local\Temp\ccSsqcxd.s 			page 29


  84:./AX12.h      **** 
  85:./AX12.h      **** int setID (unsigned char ID,unsigned char newID){
 1297              		.loc 4 85 0
 1298              		.cfi_startproc
 1299              	.LVL174:
 1300 0000 70B5     		push	{r4, r5, r6, lr}
 1301              		.cfi_def_cfa_offset 16
 1302              		.cfi_offset 4, -16
 1303              		.cfi_offset 5, -12
 1304              		.cfi_offset 6, -8
 1305              		.cfi_offset 14, -4
 1306 0002 051C     		mov	r5, r0
 1307 0004 0C1C     		mov	r4, r1
  86:./AX12.h      **** Checksum = (~(ID + AX_ID_LENGTH + AX_WRITE_DATA + AX_ID + newID))&0xFF;
 1308              		.loc 4 86 0
 1309 0006 164E     		ldr	r6, .L66
 1310 0008 4318     		add	r3, r0, r1
 1311 000a 0A33     		add	r3, r3, #10
 1312 000c DB43     		mvn	r3, r3
 1313 000e 3370     		strb	r3, [r6]
  87:./AX12.h      **** TXC_Write(2); ////habilita tx
 1314              		.loc 4 87 0
 1315 0010 0220     		mov	r0, #2
 1316              	.LVL175:
 1317 0012 FFF7FEFF 		bl	TXC_Write
 1318              	.LVL176:
  88:./AX12.h      **** MOTOR_PutChar(AX_START);              
 1319              		.loc 4 88 0
 1320 0016 FF20     		mov	r0, #255
 1321 0018 FFF7FEFF 		bl	MOTOR_PutChar
 1322              	.LVL177:
  89:./AX12.h      ****  MOTOR_PutChar(AX_START);
 1323              		.loc 4 89 0
 1324 001c FF20     		mov	r0, #255
 1325 001e FFF7FEFF 		bl	MOTOR_PutChar
 1326              	.LVL178:
  90:./AX12.h      **** MOTOR_PutChar(ID);
 1327              		.loc 4 90 0
 1328 0022 281C     		mov	r0, r5
 1329 0024 FFF7FEFF 		bl	MOTOR_PutChar
 1330              	.LVL179:
  91:./AX12.h      **** MOTOR_PutChar(AX_ID_LENGTH);
 1331              		.loc 4 91 0
 1332 0028 0420     		mov	r0, #4
 1333 002a FFF7FEFF 		bl	MOTOR_PutChar
 1334              	.LVL180:
  92:./AX12.h      **** MOTOR_PutChar(AX_WRITE_DATA);
 1335              		.loc 4 92 0
 1336 002e 0320     		mov	r0, #3
 1337 0030 FFF7FEFF 		bl	MOTOR_PutChar
 1338              	.LVL181:
  93:./AX12.h      **** MOTOR_PutChar(AX_ID);
 1339              		.loc 4 93 0
 1340 0034 0320     		mov	r0, #3
 1341 0036 FFF7FEFF 		bl	MOTOR_PutChar
 1342              	.LVL182:
  94:./AX12.h      **** MOTOR_PutChar(newID);
ARM GAS  C:\Users\Andres\AppData\Local\Temp\ccSsqcxd.s 			page 30


 1343              		.loc 4 94 0
 1344 003a 201C     		mov	r0, r4
 1345 003c FFF7FEFF 		bl	MOTOR_PutChar
 1346              	.LVL183:
  95:./AX12.h      **** MOTOR_PutChar(Checksum);
 1347              		.loc 4 95 0
 1348 0040 3078     		ldrb	r0, [r6]
 1349 0042 FFF7FEFF 		bl	MOTOR_PutChar
 1350              	.LVL184:
  96:./AX12.h      **** CyDelayUs(TX_DELAY_TIME);
 1351              		.loc 4 96 0
 1352 0046 C820     		mov	r0, #200
 1353 0048 4000     		lsl	r0, r0, #1
 1354 004a FFF7FEFF 		bl	CyDelayUs
 1355              	.LVL185:
  97:./AX12.h      ****  CyDelay(5);  /// cambio de estado delay para buffer de salida
 1356              		.loc 4 97 0
 1357 004e 0520     		mov	r0, #5
 1358 0050 FFF7FEFF 		bl	CyDelay
 1359              	.LVL186:
  98:./AX12.h      ****  TXC_Write(1); ///habilita rx 1
 1360              		.loc 4 98 0
 1361 0054 0120     		mov	r0, #1
 1362 0056 FFF7FEFF 		bl	TXC_Write
 1363              	.LVL187:
  99:./AX12.h      **** return (error_data()); 
 1364              		.loc 4 99 0
 1365 005a FFF7FEFF 		bl	error_data
 1366              	.LVL188:
 100:./AX12.h      **** }
 1367              		.loc 4 100 0
 1368              		@ sp needed
 1369 005e 70BD     		pop	{r4, r5, r6, pc}
 1370              	.L67:
 1371              		.align	2
 1372              	.L66:
 1373 0060 00000000 		.word	Checksum
 1374              		.cfi_endproc
 1375              	.LFE53:
 1376              		.size	setID, .-setID
 1377              		.section	.text.ping,"ax",%progbits
 1378              		.align	2
 1379              		.global	ping
 1380              		.code	16
 1381              		.thumb_func
 1382              		.type	ping, %function
 1383              	ping:
 1384              	.LFB54:
 101:./AX12.h      **** int ping (unsigned char ID){
 1385              		.loc 4 101 0
 1386              		.cfi_startproc
 1387              	.LVL189:
 1388 0000 38B5     		push	{r3, r4, r5, lr}
 1389              		.cfi_def_cfa_offset 16
 1390              		.cfi_offset 3, -16
 1391              		.cfi_offset 4, -12
 1392              		.cfi_offset 5, -8
ARM GAS  C:\Users\Andres\AppData\Local\Temp\ccSsqcxd.s 			page 31


 1393              		.cfi_offset 14, -4
 1394 0002 051C     		mov	r5, r0
 102:./AX12.h      ****     Checksum = (~(ID + AX_READ_DATA + AX_PING))&0xFF;
 1395              		.loc 4 102 0
 1396 0004 124C     		ldr	r4, .L69
 1397 0006 C31C     		add	r3, r0, #3
 1398 0008 DB43     		mvn	r3, r3
 1399 000a 2370     		strb	r3, [r4]
 103:./AX12.h      ****     TXC_Write(2); ////habilita tx
 1400              		.loc 4 103 0
 1401 000c 0220     		mov	r0, #2
 1402              	.LVL190:
 1403 000e FFF7FEFF 		bl	TXC_Write
 1404              	.LVL191:
 104:./AX12.h      ****     MOTOR_PutChar(AX_START);
 1405              		.loc 4 104 0
 1406 0012 FF20     		mov	r0, #255
 1407 0014 FFF7FEFF 		bl	MOTOR_PutChar
 1408              	.LVL192:
 105:./AX12.h      ****     MOTOR_PutChar(AX_START);
 1409              		.loc 4 105 0
 1410 0018 FF20     		mov	r0, #255
 1411 001a FFF7FEFF 		bl	MOTOR_PutChar
 1412              	.LVL193:
 106:./AX12.h      ****     MOTOR_PutChar(ID);
 1413              		.loc 4 106 0
 1414 001e 281C     		mov	r0, r5
 1415 0020 FFF7FEFF 		bl	MOTOR_PutChar
 1416              	.LVL194:
 107:./AX12.h      ****     MOTOR_PutChar(AX_READ_DATA);
 1417              		.loc 4 107 0
 1418 0024 0220     		mov	r0, #2
 1419 0026 FFF7FEFF 		bl	MOTOR_PutChar
 1420              	.LVL195:
 108:./AX12.h      ****     MOTOR_PutChar(AX_PING);
 1421              		.loc 4 108 0
 1422 002a 0120     		mov	r0, #1
 1423 002c FFF7FEFF 		bl	MOTOR_PutChar
 1424              	.LVL196:
 109:./AX12.h      ****     MOTOR_PutChar(Checksum);
 1425              		.loc 4 109 0
 1426 0030 2078     		ldrb	r0, [r4]
 1427 0032 FFF7FEFF 		bl	MOTOR_PutChar
 1428              	.LVL197:
 110:./AX12.h      ****     CyDelayUs(TX_DELAY_TIME);
 1429              		.loc 4 110 0
 1430 0036 C820     		mov	r0, #200
 1431 0038 4000     		lsl	r0, r0, #1
 1432 003a FFF7FEFF 		bl	CyDelayUs
 1433              	.LVL198:
 111:./AX12.h      ****     CyDelay(5);  /// cambio de estado delay para buffer de salida
 1434              		.loc 4 111 0
 1435 003e 0520     		mov	r0, #5
 1436 0040 FFF7FEFF 		bl	CyDelay
 1437              	.LVL199:
 112:./AX12.h      ****     TXC_Write(1); ///habilita rx 1
 1438              		.loc 4 112 0
ARM GAS  C:\Users\Andres\AppData\Local\Temp\ccSsqcxd.s 			page 32


 1439 0044 0120     		mov	r0, #1
 1440 0046 FFF7FEFF 		bl	TXC_Write
 1441              	.LVL200:
 113:./AX12.h      ****     return(error_data()) ; 
 1442              		.loc 4 113 0
 1443 004a FFF7FEFF 		bl	error_data
 1444              	.LVL201:
 114:./AX12.h      **** }
 1445              		.loc 4 114 0
 1446              		@ sp needed
 1447 004e 38BD     		pop	{r3, r4, r5, pc}
 1448              	.L70:
 1449              		.align	2
 1450              	.L69:
 1451 0050 00000000 		.word	Checksum
 1452              		.cfi_endproc
 1453              	.LFE54:
 1454              		.size	ping, .-ping
 1455              		.section	.text.reset,"ax",%progbits
 1456              		.align	2
 1457              		.global	reset
 1458              		.code	16
 1459              		.thumb_func
 1460              		.type	reset, %function
 1461              	reset:
 1462              	.LFB55:
 115:./AX12.h      **** 
 116:./AX12.h      **** int reset (unsigned char ID ){
 1463              		.loc 4 116 0
 1464              		.cfi_startproc
 1465              	.LVL202:
 1466 0000 38B5     		push	{r3, r4, r5, lr}
 1467              		.cfi_def_cfa_offset 16
 1468              		.cfi_offset 3, -16
 1469              		.cfi_offset 4, -12
 1470              		.cfi_offset 5, -8
 1471              		.cfi_offset 14, -4
 1472 0002 051C     		mov	r5, r0
 117:./AX12.h      ****     
 118:./AX12.h      **** Checksum = (~(ID + AX_RESET_LENGTH + AX_RESET))&0xFF;
 1473              		.loc 4 118 0
 1474 0004 134C     		ldr	r4, .L72
 1475 0006 031C     		mov	r3, r0
 1476 0008 0833     		add	r3, r3, #8
 1477 000a DB43     		mvn	r3, r3
 1478 000c 2370     		strb	r3, [r4]
 119:./AX12.h      ****  TXC_Write(2); ////habilita tx
 1479              		.loc 4 119 0
 1480 000e 0220     		mov	r0, #2
 1481              	.LVL203:
 1482 0010 FFF7FEFF 		bl	TXC_Write
 1483              	.LVL204:
 120:./AX12.h      ****  MOTOR_PutChar(AX_START);              
 1484              		.loc 4 120 0
 1485 0014 FF20     		mov	r0, #255
 1486 0016 FFF7FEFF 		bl	MOTOR_PutChar
 1487              	.LVL205:
ARM GAS  C:\Users\Andres\AppData\Local\Temp\ccSsqcxd.s 			page 33


 121:./AX12.h      ****  MOTOR_PutChar(AX_START);
 1488              		.loc 4 121 0
 1489 001a FF20     		mov	r0, #255
 1490 001c FFF7FEFF 		bl	MOTOR_PutChar
 1491              	.LVL206:
 122:./AX12.h      ****  MOTOR_PutChar(ID);
 1492              		.loc 4 122 0
 1493 0020 281C     		mov	r0, r5
 1494 0022 FFF7FEFF 		bl	MOTOR_PutChar
 1495              	.LVL207:
 123:./AX12.h      ****  MOTOR_PutChar(AX_RESET_LENGTH);	
 1496              		.loc 4 123 0
 1497 0026 0220     		mov	r0, #2
 1498 0028 FFF7FEFF 		bl	MOTOR_PutChar
 1499              	.LVL208:
 124:./AX12.h      ****  MOTOR_PutChar(AX_RESET);
 1500              		.loc 4 124 0
 1501 002c 0620     		mov	r0, #6
 1502 002e FFF7FEFF 		bl	MOTOR_PutChar
 1503              	.LVL209:
 125:./AX12.h      ****  MOTOR_PutChar(Checksum);	
 1504              		.loc 4 125 0
 1505 0032 2078     		ldrb	r0, [r4]
 1506 0034 FFF7FEFF 		bl	MOTOR_PutChar
 1507              	.LVL210:
 126:./AX12.h      **** CyDelayUs(TX_DELAY_TIME);
 1508              		.loc 4 126 0
 1509 0038 C820     		mov	r0, #200
 1510 003a 4000     		lsl	r0, r0, #1
 1511 003c FFF7FEFF 		bl	CyDelayUs
 1512              	.LVL211:
 127:./AX12.h      ****    CyDelay(5);  /// cambio de estado delay para buffer de salida
 1513              		.loc 4 127 0
 1514 0040 0520     		mov	r0, #5
 1515 0042 FFF7FEFF 		bl	CyDelay
 1516              	.LVL212:
 128:./AX12.h      ****     TXC_Write(1); ///habilita rx 1
 1517              		.loc 4 128 0
 1518 0046 0120     		mov	r0, #1
 1519 0048 FFF7FEFF 		bl	TXC_Write
 1520              	.LVL213:
 129:./AX12.h      **** return (error_data()); 
 1521              		.loc 4 129 0
 1522 004c FFF7FEFF 		bl	error_data
 1523              	.LVL214:
 130:./AX12.h      **** 
 131:./AX12.h      **** 
 132:./AX12.h      **** }
 1524              		.loc 4 132 0
 1525              		@ sp needed
 1526 0050 38BD     		pop	{r3, r4, r5, pc}
 1527              	.L73:
 1528 0052 C046     		.align	2
 1529              	.L72:
 1530 0054 00000000 		.word	Checksum
 1531              		.cfi_endproc
 1532              	.LFE55:
ARM GAS  C:\Users\Andres\AppData\Local\Temp\ccSsqcxd.s 			page 34


 1533              		.size	reset, .-reset
 1534              		.section	.text.LED,"ax",%progbits
 1535              		.align	2
 1536              		.global	LED
 1537              		.code	16
 1538              		.thumb_func
 1539              		.type	LED, %function
 1540              	LED:
 1541              	.LFB56:
 133:./AX12.h      **** int LED(unsigned char ID, int Status){    
 1542              		.loc 4 133 0
 1543              		.cfi_startproc
 1544              	.LVL215:
 1545 0000 70B5     		push	{r4, r5, r6, lr}
 1546              		.cfi_def_cfa_offset 16
 1547              		.cfi_offset 4, -16
 1548              		.cfi_offset 5, -12
 1549              		.cfi_offset 6, -8
 1550              		.cfi_offset 14, -4
 1551 0002 041C     		mov	r4, r0
 134:./AX12.h      ****     //Checksum for verification data to send
 135:./AX12.h      ****     Checksum = (~(ID + AX_LED_LENGTH + AX_WRITE_DATA + AX_LED + Status))&0xFF;
 1552              		.loc 4 135 0
 1553 0004 CDB2     		uxtb	r5, r1
 1554 0006 164E     		ldr	r6, .L75
 1555 0008 2B18     		add	r3, r5, r0
 1556 000a 2033     		add	r3, r3, #32
 1557 000c DB43     		mvn	r3, r3
 1558 000e 3370     		strb	r3, [r6]
 136:./AX12.h      ****     // Send Instructions over Serial
 137:./AX12.h      ****     TXC_Write(2); ////habilita tx
 1559              		.loc 4 137 0
 1560 0010 0220     		mov	r0, #2
 1561              	.LVL216:
 1562 0012 FFF7FEFF 		bl	TXC_Write
 1563              	.LVL217:
 138:./AX12.h      ****     MOTOR_PutChar(AX_START);              
 1564              		.loc 4 138 0
 1565 0016 FF20     		mov	r0, #255
 1566 0018 FFF7FEFF 		bl	MOTOR_PutChar
 1567              	.LVL218:
 139:./AX12.h      ****     MOTOR_PutChar(AX_START);
 1568              		.loc 4 139 0
 1569 001c FF20     		mov	r0, #255
 1570 001e FFF7FEFF 		bl	MOTOR_PutChar
 1571              	.LVL219:
 140:./AX12.h      ****     MOTOR_PutChar(ID);
 1572              		.loc 4 140 0
 1573 0022 201C     		mov	r0, r4
 1574 0024 FFF7FEFF 		bl	MOTOR_PutChar
 1575              	.LVL220:
 141:./AX12.h      ****     MOTOR_PutChar(AX_LED_LENGTH);
 1576              		.loc 4 141 0
 1577 0028 0420     		mov	r0, #4
 1578 002a FFF7FEFF 		bl	MOTOR_PutChar
 1579              	.LVL221:
 142:./AX12.h      ****    MOTOR_PutChar(AX_WRITE_DATA);
ARM GAS  C:\Users\Andres\AppData\Local\Temp\ccSsqcxd.s 			page 35


 1580              		.loc 4 142 0
 1581 002e 0320     		mov	r0, #3
 1582 0030 FFF7FEFF 		bl	MOTOR_PutChar
 1583              	.LVL222:
 143:./AX12.h      ****     MOTOR_PutChar(AX_LED);
 1584              		.loc 4 143 0
 1585 0034 1920     		mov	r0, #25
 1586 0036 FFF7FEFF 		bl	MOTOR_PutChar
 1587              	.LVL223:
 144:./AX12.h      ****     MOTOR_PutChar(Status);
 1588              		.loc 4 144 0
 1589 003a 281C     		mov	r0, r5
 1590 003c FFF7FEFF 		bl	MOTOR_PutChar
 1591              	.LVL224:
 145:./AX12.h      ****     MOTOR_PutChar(Checksum);
 1592              		.loc 4 145 0
 1593 0040 3078     		ldrb	r0, [r6]
 1594 0042 FFF7FEFF 		bl	MOTOR_PutChar
 1595              	.LVL225:
 146:./AX12.h      ****     CyDelayUs(TX_DELAY_TIME);
 1596              		.loc 4 146 0
 1597 0046 C820     		mov	r0, #200
 1598 0048 4000     		lsl	r0, r0, #1
 1599 004a FFF7FEFF 		bl	CyDelayUs
 1600              	.LVL226:
 147:./AX12.h      ****      CyDelay(5);  /// cambio de estado delay para buffer de salida
 1601              		.loc 4 147 0
 1602 004e 0520     		mov	r0, #5
 1603 0050 FFF7FEFF 		bl	CyDelay
 1604              	.LVL227:
 148:./AX12.h      ****      TXC_Write(1);
 1605              		.loc 4 148 0
 1606 0054 0120     		mov	r0, #1
 1607 0056 FFF7FEFF 		bl	TXC_Write
 1608              	.LVL228:
 149:./AX12.h      **** 
 150:./AX12.h      ****    
 151:./AX12.h      ****     //Finish Function
 152:./AX12.h      ****     return(error_data());
 1609              		.loc 4 152 0
 1610 005a FFF7FEFF 		bl	error_data
 1611              	.LVL229:
 153:./AX12.h      **** }
 1612              		.loc 4 153 0
 1613              		@ sp needed
 1614 005e 70BD     		pop	{r4, r5, r6, pc}
 1615              	.L76:
 1616              		.align	2
 1617              	.L75:
 1618 0060 00000000 		.word	Checksum
 1619              		.cfi_endproc
 1620              	.LFE56:
 1621              		.size	LED, .-LED
 1622              		.section	.text.Move,"ax",%progbits
 1623              		.align	2
 1624              		.global	Move
 1625              		.code	16
ARM GAS  C:\Users\Andres\AppData\Local\Temp\ccSsqcxd.s 			page 36


 1626              		.thumb_func
 1627              		.type	Move, %function
 1628              	Move:
 1629              	.LFB57:
 154:./AX12.h      **** 
 155:./AX12.h      **** int Move(unsigned char ID, int Position){
 1630              		.loc 4 155 0
 1631              		.cfi_startproc
 1632              	.LVL230:
 1633 0000 F8B5     		push	{r3, r4, r5, r6, r7, lr}
 1634              		.cfi_def_cfa_offset 24
 1635              		.cfi_offset 3, -24
 1636              		.cfi_offset 4, -20
 1637              		.cfi_offset 5, -16
 1638              		.cfi_offset 6, -12
 1639              		.cfi_offset 7, -8
 1640              		.cfi_offset 14, -4
 1641 0002 041C     		mov	r4, r0
 156:./AX12.h      ****     char Position_H,Position_L;
 157:./AX12.h      ****     //Shift register 16 bits
 158:./AX12.h      ****     Position_H = Position >> 8;           
 1642              		.loc 4 158 0
 1643 0004 0E12     		asr	r6, r1, #8
 1644 0006 F6B2     		uxtb	r6, r6
 1645              	.LVL231:
 159:./AX12.h      ****     Position_L = Position;
 1646              		.loc 4 159 0
 1647 0008 CDB2     		uxtb	r5, r1
 1648              	.LVL232:
 160:./AX12.h      **** 	Checksum = (~(ID + AX_GOAL_LENGTH + AX_WRITE_DATA + AX_GOAL_POSITION_L + Position_L + Position_H))
 1649              		.loc 4 160 0
 1650 000a 184F     		ldr	r7, .L78
 1651 000c 4319     		add	r3, r0, r5
 1652 000e F318     		add	r3, r6, r3
 1653 0010 2633     		add	r3, r3, #38
 1654 0012 DB43     		mvn	r3, r3
 1655 0014 3B70     		strb	r3, [r7]
 161:./AX12.h      ****     // Send Instructions over Serial
 162:./AX12.h      ****     TXC_Write(2); ////habilita tx
 1656              		.loc 4 162 0
 1657 0016 0220     		mov	r0, #2
 1658              	.LVL233:
 1659 0018 FFF7FEFF 		bl	TXC_Write
 1660              	.LVL234:
 163:./AX12.h      ****     MOTOR_PutChar(AX_START);                 
 1661              		.loc 4 163 0
 1662 001c FF20     		mov	r0, #255
 1663 001e FFF7FEFF 		bl	MOTOR_PutChar
 1664              	.LVL235:
 164:./AX12.h      ****     MOTOR_PutChar(AX_START);
 1665              		.loc 4 164 0
 1666 0022 FF20     		mov	r0, #255
 1667 0024 FFF7FEFF 		bl	MOTOR_PutChar
 1668              	.LVL236:
 165:./AX12.h      ****     MOTOR_PutChar(ID);
 1669              		.loc 4 165 0
 1670 0028 201C     		mov	r0, r4
ARM GAS  C:\Users\Andres\AppData\Local\Temp\ccSsqcxd.s 			page 37


 1671 002a FFF7FEFF 		bl	MOTOR_PutChar
 1672              	.LVL237:
 166:./AX12.h      ****     MOTOR_PutChar(AX_GOAL_LENGTH);
 1673              		.loc 4 166 0
 1674 002e 0520     		mov	r0, #5
 1675 0030 FFF7FEFF 		bl	MOTOR_PutChar
 1676              	.LVL238:
 167:./AX12.h      ****     MOTOR_PutChar(AX_WRITE_DATA);
 1677              		.loc 4 167 0
 1678 0034 0320     		mov	r0, #3
 1679 0036 FFF7FEFF 		bl	MOTOR_PutChar
 1680              	.LVL239:
 168:./AX12.h      ****     MOTOR_PutChar(AX_GOAL_POSITION_L);
 1681              		.loc 4 168 0
 1682 003a 1E20     		mov	r0, #30
 1683 003c FFF7FEFF 		bl	MOTOR_PutChar
 1684              	.LVL240:
 169:./AX12.h      ****     MOTOR_PutChar(Position_L);
 1685              		.loc 4 169 0
 1686 0040 281C     		mov	r0, r5
 1687 0042 FFF7FEFF 		bl	MOTOR_PutChar
 1688              	.LVL241:
 170:./AX12.h      ****     MOTOR_PutChar(Position_H);
 1689              		.loc 4 170 0
 1690 0046 301C     		mov	r0, r6
 1691 0048 FFF7FEFF 		bl	MOTOR_PutChar
 1692              	.LVL242:
 171:./AX12.h      ****     MOTOR_PutChar(Checksum);
 1693              		.loc 4 171 0
 1694 004c 3878     		ldrb	r0, [r7]
 1695 004e FFF7FEFF 		bl	MOTOR_PutChar
 1696              	.LVL243:
 172:./AX12.h      **** 	CyDelayUs(TX_DELAY_TIME);
 1697              		.loc 4 172 0
 1698 0052 C820     		mov	r0, #200
 1699 0054 4000     		lsl	r0, r0, #1
 1700 0056 FFF7FEFF 		bl	CyDelayUs
 1701              	.LVL244:
 173:./AX12.h      ****    CyDelay(5);  /// cambio de estado delay para buffer de salida
 1702              		.loc 4 173 0
 1703 005a 0520     		mov	r0, #5
 1704 005c FFF7FEFF 		bl	CyDelay
 1705              	.LVL245:
 174:./AX12.h      ****     TXC_Write(1); ///habilita rx 1
 1706              		.loc 4 174 0
 1707 0060 0120     		mov	r0, #1
 1708 0062 FFF7FEFF 		bl	TXC_Write
 1709              	.LVL246:
 175:./AX12.h      ****     return (error_data());                 
 1710              		.loc 4 175 0
 1711 0066 FFF7FEFF 		bl	error_data
 1712              	.LVL247:
 176:./AX12.h      **** }
 1713              		.loc 4 176 0
 1714              		@ sp needed
 1715              	.LVL248:
 1716              	.LVL249:
ARM GAS  C:\Users\Andres\AppData\Local\Temp\ccSsqcxd.s 			page 38


 1717 006a F8BD     		pop	{r3, r4, r5, r6, r7, pc}
 1718              	.L79:
 1719              		.align	2
 1720              	.L78:
 1721 006c 00000000 		.word	Checksum
 1722              		.cfi_endproc
 1723              	.LFE57:
 1724              		.size	Move, .-Move
 1725              		.section	.text.setEndless,"ax",%progbits
 1726              		.align	2
 1727              		.global	setEndless
 1728              		.code	16
 1729              		.thumb_func
 1730              		.type	setEndless, %function
 1731              	setEndless:
 1732              	.LFB58:
 177:./AX12.h      **** 
 178:./AX12.h      **** int setEndless(unsigned char ID, int Status,int rag){
 1733              		.loc 4 178 0
 1734              		.cfi_startproc
 1735              	.LVL250:
 1736 0000 38B5     		push	{r3, r4, r5, lr}
 1737              		.cfi_def_cfa_offset 16
 1738              		.cfi_offset 3, -16
 1739              		.cfi_offset 4, -12
 1740              		.cfi_offset 5, -8
 1741              		.cfi_offset 14, -4
 1742 0002 041C     		mov	r4, r0
 179:./AX12.h      ****     if (Status){	
 1743              		.loc 4 179 0
 1744 0004 0029     		cmp	r1, #0
 1745 0006 29D0     		beq	.L81
 180:./AX12.h      ****   
 181:./AX12.h      ****     // Changing the CCW Angle Limits for Full Rotation.
 182:./AX12.h      **** Checksum = (~(ID + AX_GOAL_LENGTH + AX_WRITE_DATA + AX_CCW_ANGLE_LIMIT_L))&0xFF;
 1746              		.loc 4 182 0
 1747 0008 2C4D     		ldr	r5, .L83
 1748 000a 031C     		mov	r3, r0
 1749 000c 1033     		add	r3, r3, #16
 1750 000e DB43     		mvn	r3, r3
 1751 0010 2B70     		strb	r3, [r5]
 183:./AX12.h      ****     // Send Instructions over Serial
 184:./AX12.h      ****     //Checksum for verification data to send
 185:./AX12.h      ****     TXC_Write(2); ////habilita tx
 1752              		.loc 4 185 0
 1753 0012 0220     		mov	r0, #2
 1754              	.LVL251:
 1755 0014 FFF7FEFF 		bl	TXC_Write
 1756              	.LVL252:
 186:./AX12.h      ****     MOTOR_PutChar(AX_START);                
 1757              		.loc 4 186 0
 1758 0018 FF20     		mov	r0, #255
 1759 001a FFF7FEFF 		bl	MOTOR_PutChar
 1760              	.LVL253:
 187:./AX12.h      ****     MOTOR_PutChar(AX_START);
 1761              		.loc 4 187 0
 1762 001e FF20     		mov	r0, #255
ARM GAS  C:\Users\Andres\AppData\Local\Temp\ccSsqcxd.s 			page 39


 1763 0020 FFF7FEFF 		bl	MOTOR_PutChar
 1764              	.LVL254:
 188:./AX12.h      ****     MOTOR_PutChar(ID);
 1765              		.loc 4 188 0
 1766 0024 201C     		mov	r0, r4
 1767 0026 FFF7FEFF 		bl	MOTOR_PutChar
 1768              	.LVL255:
 189:./AX12.h      ****     MOTOR_PutChar(AX_GOAL_LENGTH);
 1769              		.loc 4 189 0
 1770 002a 0520     		mov	r0, #5
 1771 002c FFF7FEFF 		bl	MOTOR_PutChar
 1772              	.LVL256:
 190:./AX12.h      ****     MOTOR_PutChar(AX_WRITE_DATA);
 1773              		.loc 4 190 0
 1774 0030 0320     		mov	r0, #3
 1775 0032 FFF7FEFF 		bl	MOTOR_PutChar
 1776              	.LVL257:
 191:./AX12.h      ****     MOTOR_PutChar(AX_CCW_ANGLE_LIMIT_L );
 1777              		.loc 4 191 0
 1778 0036 0820     		mov	r0, #8
 1779 0038 FFF7FEFF 		bl	MOTOR_PutChar
 1780              	.LVL258:
 192:./AX12.h      ****     MOTOR_PutChar(Checksum);
 1781              		.loc 4 192 0
 1782 003c 2878     		ldrb	r0, [r5]
 1783 003e FFF7FEFF 		bl	MOTOR_PutChar
 1784              	.LVL259:
 193:./AX12.h      ****     CyDelayUs(TX_DELAY_TIME);
 1785              		.loc 4 193 0
 1786 0042 C820     		mov	r0, #200
 1787 0044 4000     		lsl	r0, r0, #1
 1788 0046 FFF7FEFF 		bl	CyDelayUs
 1789              	.LVL260:
 194:./AX12.h      ****      CyDelay(5);  /// cambio de estado delay para buffer de salida
 1790              		.loc 4 194 0
 1791 004a 0520     		mov	r0, #5
 1792 004c FFF7FEFF 		bl	CyDelay
 1793              	.LVL261:
 195:./AX12.h      ****     TXC_Write(1); ///habilita rx 1
 1794              		.loc 4 195 0
 1795 0050 0120     		mov	r0, #1
 1796 0052 FFF7FEFF 		bl	TXC_Write
 1797              	.LVL262:
 196:./AX12.h      **** 	return (error_data()); 
 1798              		.loc 4 196 0
 1799 0056 FFF7FEFF 		bl	error_data
 1800              	.LVL263:
 1801 005a 2EE0     		b	.L82
 1802              	.LVL264:
 1803              	.L81:
 197:./AX12.h      ****  }
 198:./AX12.h      ****  else{
 199:./AX12.h      **** Checksum = (~(ID + AX_GOAL_LENGTH + AX_WRITE_DATA + AX_CCW_ANGLE_LIMIT_L + AX_CCW_AL_L + AX_CCW_AL_
 1804              		.loc 4 199 0
 1805 005c 174D     		ldr	r5, .L83
 1806 005e 031C     		mov	r3, r0
 1807 0060 1233     		add	r3, r3, #18
ARM GAS  C:\Users\Andres\AppData\Local\Temp\ccSsqcxd.s 			page 40


 1808 0062 DB43     		mvn	r3, r3
 1809 0064 2B70     		strb	r3, [r5]
 200:./AX12.h      **** 	    // Send Instructions over Serial
 201:./AX12.h      ****     //Checksum for verification data to send
 202:./AX12.h      ****     TXC_Write(2); ////habilita tx
 1810              		.loc 4 202 0
 1811 0066 0220     		mov	r0, #2
 1812              	.LVL265:
 1813 0068 FFF7FEFF 		bl	TXC_Write
 1814              	.LVL266:
 203:./AX12.h      **** 	MOTOR_PutChar(AX_START);                 
 1815              		.loc 4 203 0
 1816 006c FF20     		mov	r0, #255
 1817 006e FFF7FEFF 		bl	MOTOR_PutChar
 1818              	.LVL267:
 204:./AX12.h      **** 	MOTOR_PutChar(AX_START);
 1819              		.loc 4 204 0
 1820 0072 FF20     		mov	r0, #255
 1821 0074 FFF7FEFF 		bl	MOTOR_PutChar
 1822              	.LVL268:
 205:./AX12.h      **** 	MOTOR_PutChar(ID);
 1823              		.loc 4 205 0
 1824 0078 201C     		mov	r0, r4
 1825 007a FFF7FEFF 		bl	MOTOR_PutChar
 1826              	.LVL269:
 206:./AX12.h      **** 	MOTOR_PutChar(AX_GOAL_LENGTH);
 1827              		.loc 4 206 0
 1828 007e 0520     		mov	r0, #5
 1829 0080 FFF7FEFF 		bl	MOTOR_PutChar
 1830              	.LVL270:
 207:./AX12.h      **** 	MOTOR_PutChar(AX_WRITE_DATA);
 1831              		.loc 4 207 0
 1832 0084 0320     		mov	r0, #3
 1833 0086 FFF7FEFF 		bl	MOTOR_PutChar
 1834              	.LVL271:
 208:./AX12.h      **** 	MOTOR_PutChar(AX_CCW_ANGLE_LIMIT_L);
 1835              		.loc 4 208 0
 1836 008a 0820     		mov	r0, #8
 1837 008c FFF7FEFF 		bl	MOTOR_PutChar
 1838              	.LVL272:
 209:./AX12.h      **** 	MOTOR_PutChar(AX_CCW_AL_L);
 1839              		.loc 4 209 0
 1840 0090 FF20     		mov	r0, #255
 1841 0092 FFF7FEFF 		bl	MOTOR_PutChar
 1842              	.LVL273:
 210:./AX12.h      **** 	MOTOR_PutChar(AX_CCW_AL_H);
 1843              		.loc 4 210 0
 1844 0096 0320     		mov	r0, #3
 1845 0098 FFF7FEFF 		bl	MOTOR_PutChar
 1846              	.LVL274:
 211:./AX12.h      **** 	MOTOR_PutChar(Checksum);
 1847              		.loc 4 211 0
 1848 009c 2878     		ldrb	r0, [r5]
 1849 009e FFF7FEFF 		bl	MOTOR_PutChar
 1850              	.LVL275:
 212:./AX12.h      **** 	CyDelayUs(TX_DELAY_TIME);
 1851              		.loc 4 212 0
ARM GAS  C:\Users\Andres\AppData\Local\Temp\ccSsqcxd.s 			page 41


 1852 00a2 C820     		mov	r0, #200
 1853 00a4 4000     		lsl	r0, r0, #1
 1854 00a6 FFF7FEFF 		bl	CyDelayUs
 1855              	.LVL276:
 213:./AX12.h      ****      CyDelay(5);  /// cambio de estado delay para buffer de salida
 1856              		.loc 4 213 0
 1857 00aa 0520     		mov	r0, #5
 1858 00ac FFF7FEFF 		bl	CyDelay
 1859              	.LVL277:
 214:./AX12.h      ****     TXC_Write(1); ///habilita rx 1
 1860              		.loc 4 214 0
 1861 00b0 0120     		mov	r0, #1
 1862 00b2 FFF7FEFF 		bl	TXC_Write
 1863              	.LVL278:
 215:./AX12.h      **** 	return (error_data());                 
 1864              		.loc 4 215 0
 1865 00b6 FFF7FEFF 		bl	error_data
 1866              	.LVL279:
 1867              	.L82:
 216:./AX12.h      ****   }
 217:./AX12.h      ****  } 
 1868              		.loc 4 217 0
 1869              		@ sp needed
 1870 00ba 38BD     		pop	{r3, r4, r5, pc}
 1871              	.L84:
 1872              		.align	2
 1873              	.L83:
 1874 00bc 00000000 		.word	Checksum
 1875              		.cfi_endproc
 1876              	.LFE58:
 1877              		.size	setEndless, .-setEndless
 1878              		.section	.text.torqueStatus,"ax",%progbits
 1879              		.align	2
 1880              		.global	torqueStatus
 1881              		.code	16
 1882              		.thumb_func
 1883              		.type	torqueStatus, %function
 1884              	torqueStatus:
 1885              	.LFB59:
 218:./AX12.h      **** 
 219:./AX12.h      **** int torqueStatus( unsigned char ID, int Status){
 1886              		.loc 4 219 0
 1887              		.cfi_startproc
 1888              	.LVL280:
 1889 0000 70B5     		push	{r4, r5, r6, lr}
 1890              		.cfi_def_cfa_offset 16
 1891              		.cfi_offset 4, -16
 1892              		.cfi_offset 5, -12
 1893              		.cfi_offset 6, -8
 1894              		.cfi_offset 14, -4
 1895 0002 041C     		mov	r4, r0
 220:./AX12.h      ****     Checksum = (~(ID + AX_TORQUE_LENGTH + AX_WRITE_DATA + AX_TORQUE_ENABLE + Status))&0xFF;
 1896              		.loc 4 220 0
 1897 0004 CDB2     		uxtb	r5, r1
 1898 0006 164E     		ldr	r6, .L86
 1899 0008 2B18     		add	r3, r5, r0
 1900 000a 1F33     		add	r3, r3, #31
ARM GAS  C:\Users\Andres\AppData\Local\Temp\ccSsqcxd.s 			page 42


 1901 000c DB43     		mvn	r3, r3
 1902 000e 3370     		strb	r3, [r6]
 221:./AX12.h      ****     // Send Instructions over Serial
 222:./AX12.h      ****     //Checksum for verification data to send
 223:./AX12.h      ****     TXC_Write(2); ////habilita tx
 1903              		.loc 4 223 0
 1904 0010 0220     		mov	r0, #2
 1905              	.LVL281:
 1906 0012 FFF7FEFF 		bl	TXC_Write
 1907              	.LVL282:
 224:./AX12.h      ****     MOTOR_PutChar(AX_START); 
 1908              		.loc 4 224 0
 1909 0016 FF20     		mov	r0, #255
 1910 0018 FFF7FEFF 		bl	MOTOR_PutChar
 1911              	.LVL283:
 225:./AX12.h      ****     MOTOR_PutChar(AX_START);
 1912              		.loc 4 225 0
 1913 001c FF20     		mov	r0, #255
 1914 001e FFF7FEFF 		bl	MOTOR_PutChar
 1915              	.LVL284:
 226:./AX12.h      ****     MOTOR_PutChar(ID);
 1916              		.loc 4 226 0
 1917 0022 201C     		mov	r0, r4
 1918 0024 FFF7FEFF 		bl	MOTOR_PutChar
 1919              	.LVL285:
 227:./AX12.h      ****     MOTOR_PutChar(AX_TORQUE_LENGTH);
 1920              		.loc 4 227 0
 1921 0028 0420     		mov	r0, #4
 1922 002a FFF7FEFF 		bl	MOTOR_PutChar
 1923              	.LVL286:
 228:./AX12.h      ****     MOTOR_PutChar(AX_WRITE_DATA);
 1924              		.loc 4 228 0
 1925 002e 0320     		mov	r0, #3
 1926 0030 FFF7FEFF 		bl	MOTOR_PutChar
 1927              	.LVL287:
 229:./AX12.h      ****     MOTOR_PutChar(AX_TORQUE_ENABLE);
 1928              		.loc 4 229 0
 1929 0034 1820     		mov	r0, #24
 1930 0036 FFF7FEFF 		bl	MOTOR_PutChar
 1931              	.LVL288:
 230:./AX12.h      ****     MOTOR_PutChar(Status);
 1932              		.loc 4 230 0
 1933 003a 281C     		mov	r0, r5
 1934 003c FFF7FEFF 		bl	MOTOR_PutChar
 1935              	.LVL289:
 231:./AX12.h      ****     MOTOR_PutChar(Checksum);
 1936              		.loc 4 231 0
 1937 0040 3078     		ldrb	r0, [r6]
 1938 0042 FFF7FEFF 		bl	MOTOR_PutChar
 1939              	.LVL290:
 232:./AX12.h      ****     CyDelayUs(TX_DELAY_TIME);
 1940              		.loc 4 232 0
 1941 0046 C820     		mov	r0, #200
 1942 0048 4000     		lsl	r0, r0, #1
 1943 004a FFF7FEFF 		bl	CyDelayUs
 1944              	.LVL291:
 233:./AX12.h      ****      CyDelay(5);  /// cambio de estado delay para buffer de salida
ARM GAS  C:\Users\Andres\AppData\Local\Temp\ccSsqcxd.s 			page 43


 1945              		.loc 4 233 0
 1946 004e 0520     		mov	r0, #5
 1947 0050 FFF7FEFF 		bl	CyDelay
 1948              	.LVL292:
 234:./AX12.h      ****     TXC_Write(1); ///habilita rx 1
 1949              		.loc 4 234 0
 1950 0054 0120     		mov	r0, #1
 1951 0056 FFF7FEFF 		bl	TXC_Write
 1952              	.LVL293:
 235:./AX12.h      ****     // Return the read error
 236:./AX12.h      ****     return (error_data());               
 1953              		.loc 4 236 0
 1954 005a FFF7FEFF 		bl	error_data
 1955              	.LVL294:
 237:./AX12.h      **** }
 1956              		.loc 4 237 0
 1957              		@ sp needed
 1958 005e 70BD     		pop	{r4, r5, r6, pc}
 1959              	.L87:
 1960              		.align	2
 1961              	.L86:
 1962 0060 00000000 		.word	Checksum
 1963              		.cfi_endproc
 1964              	.LFE59:
 1965              		.size	torqueStatus, .-torqueStatus
 1966              		.section	.text.MoveSpeed,"ax",%progbits
 1967              		.align	2
 1968              		.global	MoveSpeed
 1969              		.code	16
 1970              		.thumb_func
 1971              		.type	MoveSpeed, %function
 1972              	MoveSpeed:
 1973              	.LFB60:
 238:./AX12.h      **** 
 239:./AX12.h      **** int MoveSpeed(unsigned char ID, int Position, int Speed){
 1974              		.loc 4 239 0
 1975              		.cfi_startproc
 1976              	.LVL295:
 1977 0000 F0B5     		push	{r4, r5, r6, r7, lr}
 1978              		.cfi_def_cfa_offset 20
 1979              		.cfi_offset 4, -20
 1980              		.cfi_offset 5, -16
 1981              		.cfi_offset 6, -12
 1982              		.cfi_offset 7, -8
 1983              		.cfi_offset 14, -4
 1984 0002 4746     		mov	r7, r8
 1985 0004 80B4     		push	{r7}
 1986              		.cfi_def_cfa_offset 24
 1987              		.cfi_offset 8, -24
 1988 0006 82B0     		sub	sp, sp, #8
 1989              		.cfi_def_cfa_offset 32
 240:./AX12.h      ****     char Position_H,Position_L,Speed_H,Speed_L;
 241:./AX12.h      ****     //Shift register 16 bits
 242:./AX12.h      ****     Position_H = Position >> 8;    
 1990              		.loc 4 242 0
 1991 0008 0B12     		asr	r3, r1, #8
 1992 000a DBB2     		uxtb	r3, r3
ARM GAS  C:\Users\Andres\AppData\Local\Temp\ccSsqcxd.s 			page 44


 1993 000c 9846     		mov	r8, r3
 1994              	.LVL296:
 243:./AX12.h      ****     Position_L = Position;                
 1995              		.loc 4 243 0
 1996 000e CEB2     		uxtb	r6, r1
 1997              	.LVL297:
 244:./AX12.h      ****     //Shift register 16 bits
 245:./AX12.h      ****     Speed_H = Speed >> 8;
 1998              		.loc 4 245 0
 1999 0010 1712     		asr	r7, r2, #8
 2000 0012 FFB2     		uxtb	r7, r7
 2001              	.LVL298:
 246:./AX12.h      ****     Speed_L = Speed;        
 2002              		.loc 4 246 0
 2003 0014 D4B2     		uxtb	r4, r2
 2004              	.LVL299:
 247:./AX12.h      ****     //Checksum for verification data to send
 248:./AX12.h      **** 	Checksum = (~(ID + AX_GOAL_SP_LENGTH + AX_WRITE_DATA + AX_GOAL_POSITION_L + Position_L + Position_
 2005              		.loc 4 248 0
 2006 0016 1E4D     		ldr	r5, .L89
 2007 0018 0190     		str	r0, [sp, #4]
 2008 001a 8319     		add	r3, r0, r6
 2009 001c 4344     		add	r3, r3, r8
 2010 001e E318     		add	r3, r4, r3
 2011 0020 FB18     		add	r3, r7, r3
 2012 0022 2833     		add	r3, r3, #40
 2013 0024 DB43     		mvn	r3, r3
 2014 0026 2B70     		strb	r3, [r5]
 249:./AX12.h      ****     // Send Instructions over Serial
 250:./AX12.h      ****     TXC_Write(2); ////habilita tx
 2015              		.loc 4 250 0
 2016 0028 0220     		mov	r0, #2
 2017              	.LVL300:
 2018 002a FFF7FEFF 		bl	TXC_Write
 2019              	.LVL301:
 251:./AX12.h      ****     MOTOR_PutChar(AX_START);
 2020              		.loc 4 251 0
 2021 002e FF20     		mov	r0, #255
 2022 0030 FFF7FEFF 		bl	MOTOR_PutChar
 2023              	.LVL302:
 252:./AX12.h      ****     MOTOR_PutChar(AX_START);
 2024              		.loc 4 252 0
 2025 0034 FF20     		mov	r0, #255
 2026 0036 FFF7FEFF 		bl	MOTOR_PutChar
 2027              	.LVL303:
 253:./AX12.h      ****     MOTOR_PutChar(ID);
 2028              		.loc 4 253 0
 2029 003a 0198     		ldr	r0, [sp, #4]
 2030 003c FFF7FEFF 		bl	MOTOR_PutChar
 2031              	.LVL304:
 254:./AX12.h      ****     MOTOR_PutChar(AX_GOAL_SP_LENGTH);
 2032              		.loc 4 254 0
 2033 0040 0720     		mov	r0, #7
 2034 0042 FFF7FEFF 		bl	MOTOR_PutChar
 2035              	.LVL305:
 255:./AX12.h      ****     MOTOR_PutChar(AX_WRITE_DATA);
 2036              		.loc 4 255 0
ARM GAS  C:\Users\Andres\AppData\Local\Temp\ccSsqcxd.s 			page 45


 2037 0046 0320     		mov	r0, #3
 2038 0048 FFF7FEFF 		bl	MOTOR_PutChar
 2039              	.LVL306:
 256:./AX12.h      ****     MOTOR_PutChar(AX_GOAL_POSITION_L);
 2040              		.loc 4 256 0
 2041 004c 1E20     		mov	r0, #30
 2042 004e FFF7FEFF 		bl	MOTOR_PutChar
 2043              	.LVL307:
 257:./AX12.h      ****     MOTOR_PutChar(Position_L);
 2044              		.loc 4 257 0
 2045 0052 301C     		mov	r0, r6
 2046 0054 FFF7FEFF 		bl	MOTOR_PutChar
 2047              	.LVL308:
 258:./AX12.h      ****     MOTOR_PutChar(Position_H);
 2048              		.loc 4 258 0
 2049 0058 4046     		mov	r0, r8
 2050 005a FFF7FEFF 		bl	MOTOR_PutChar
 2051              	.LVL309:
 259:./AX12.h      ****     MOTOR_PutChar(Speed_L);
 2052              		.loc 4 259 0
 2053 005e 201C     		mov	r0, r4
 2054 0060 FFF7FEFF 		bl	MOTOR_PutChar
 2055              	.LVL310:
 260:./AX12.h      ****     MOTOR_PutChar(Speed_H);
 2056              		.loc 4 260 0
 2057 0064 381C     		mov	r0, r7
 2058 0066 FFF7FEFF 		bl	MOTOR_PutChar
 2059              	.LVL311:
 261:./AX12.h      ****     MOTOR_PutChar(Checksum);
 2060              		.loc 4 261 0
 2061 006a 2878     		ldrb	r0, [r5]
 2062 006c FFF7FEFF 		bl	MOTOR_PutChar
 2063              	.LVL312:
 262:./AX12.h      ****     CyDelayUs(TX_DELAY_TIME);
 2064              		.loc 4 262 0
 2065 0070 C820     		mov	r0, #200
 2066 0072 4000     		lsl	r0, r0, #1
 2067 0074 FFF7FEFF 		bl	CyDelayUs
 2068              	.LVL313:
 263:./AX12.h      ****      CyDelay(5);  /// cambio de estado delay para buffer de salida
 2069              		.loc 4 263 0
 2070 0078 0520     		mov	r0, #5
 2071 007a FFF7FEFF 		bl	CyDelay
 2072              	.LVL314:
 264:./AX12.h      ****     TXC_Write(1); ///habilita rx 1
 2073              		.loc 4 264 0
 2074 007e 0120     		mov	r0, #1
 2075 0080 FFF7FEFF 		bl	TXC_Write
 2076              	.LVL315:
 265:./AX12.h      ****     return (error_data());                
 2077              		.loc 4 265 0
 2078 0084 FFF7FEFF 		bl	error_data
 2079              	.LVL316:
 266:./AX12.h      **** }
 2080              		.loc 4 266 0
 2081 0088 02B0     		add	sp, sp, #8
 2082              		@ sp needed
ARM GAS  C:\Users\Andres\AppData\Local\Temp\ccSsqcxd.s 			page 46


 2083              	.LVL317:
 2084              	.LVL318:
 2085              	.LVL319:
 2086              	.LVL320:
 2087 008a 04BC     		pop	{r2}
 2088 008c 9046     		mov	r8, r2
 2089 008e F0BD     		pop	{r4, r5, r6, r7, pc}
 2090              	.L90:
 2091              		.align	2
 2092              	.L89:
 2093 0090 00000000 		.word	Checksum
 2094              		.cfi_endproc
 2095              	.LFE60:
 2096              		.size	MoveSpeed, .-MoveSpeed
 2097              		.section	.text.moveRW,"ax",%progbits
 2098              		.align	2
 2099              		.global	moveRW
 2100              		.code	16
 2101              		.thumb_func
 2102              		.type	moveRW, %function
 2103              	moveRW:
 2104              	.LFB61:
 267:./AX12.h      **** 
 268:./AX12.h      **** int moveRW(unsigned char ID, int Position){
 2105              		.loc 4 268 0
 2106              		.cfi_startproc
 2107              	.LVL321:
 2108 0000 F8B5     		push	{r3, r4, r5, r6, r7, lr}
 2109              		.cfi_def_cfa_offset 24
 2110              		.cfi_offset 3, -24
 2111              		.cfi_offset 4, -20
 2112              		.cfi_offset 5, -16
 2113              		.cfi_offset 6, -12
 2114              		.cfi_offset 7, -8
 2115              		.cfi_offset 14, -4
 2116 0002 041C     		mov	r4, r0
 269:./AX12.h      ****     char Position_H,Position_L;
 270:./AX12.h      ****     //Shift register 16 bits
 271:./AX12.h      ****     Position_H = Position >> 8;           
 2117              		.loc 4 271 0
 2118 0004 0E12     		asr	r6, r1, #8
 2119 0006 F6B2     		uxtb	r6, r6
 2120              	.LVL322:
 272:./AX12.h      ****     Position_L = Position;
 2121              		.loc 4 272 0
 2122 0008 CDB2     		uxtb	r5, r1
 2123              	.LVL323:
 273:./AX12.h      ****     //Checksum for verification data to send
 274:./AX12.h      ****     Checksum = (~(ID + AX_GOAL_LENGTH + AX_REG_WRITE + AX_GOAL_POSITION_L + Position_L + Position_H
 2124              		.loc 4 274 0
 2125 000a 184F     		ldr	r7, .L92
 2126 000c 4319     		add	r3, r0, r5
 2127 000e F318     		add	r3, r6, r3
 2128 0010 2733     		add	r3, r3, #39
 2129 0012 DB43     		mvn	r3, r3
 2130 0014 3B70     		strb	r3, [r7]
 275:./AX12.h      ****     // Send Instructions over Serial
ARM GAS  C:\Users\Andres\AppData\Local\Temp\ccSsqcxd.s 			page 47


 276:./AX12.h      ****     TXC_Write(2); ////habilita tx
 2131              		.loc 4 276 0
 2132 0016 0220     		mov	r0, #2
 2133              	.LVL324:
 2134 0018 FFF7FEFF 		bl	TXC_Write
 2135              	.LVL325:
 277:./AX12.h      ****     MOTOR_PutChar(AX_START); 
 2136              		.loc 4 277 0
 2137 001c FF20     		mov	r0, #255
 2138 001e FFF7FEFF 		bl	MOTOR_PutChar
 2139              	.LVL326:
 278:./AX12.h      ****     MOTOR_PutChar(AX_START);
 2140              		.loc 4 278 0
 2141 0022 FF20     		mov	r0, #255
 2142 0024 FFF7FEFF 		bl	MOTOR_PutChar
 2143              	.LVL327:
 279:./AX12.h      ****     MOTOR_PutChar(ID);
 2144              		.loc 4 279 0
 2145 0028 201C     		mov	r0, r4
 2146 002a FFF7FEFF 		bl	MOTOR_PutChar
 2147              	.LVL328:
 280:./AX12.h      ****     MOTOR_PutChar(AX_GOAL_LENGTH);
 2148              		.loc 4 280 0
 2149 002e 0520     		mov	r0, #5
 2150 0030 FFF7FEFF 		bl	MOTOR_PutChar
 2151              	.LVL329:
 281:./AX12.h      ****     MOTOR_PutChar(AX_REG_WRITE);
 2152              		.loc 4 281 0
 2153 0034 0420     		mov	r0, #4
 2154 0036 FFF7FEFF 		bl	MOTOR_PutChar
 2155              	.LVL330:
 282:./AX12.h      ****     MOTOR_PutChar(AX_GOAL_POSITION_L);
 2156              		.loc 4 282 0
 2157 003a 1E20     		mov	r0, #30
 2158 003c FFF7FEFF 		bl	MOTOR_PutChar
 2159              	.LVL331:
 283:./AX12.h      ****     MOTOR_PutChar(Position_L);
 2160              		.loc 4 283 0
 2161 0040 281C     		mov	r0, r5
 2162 0042 FFF7FEFF 		bl	MOTOR_PutChar
 2163              	.LVL332:
 284:./AX12.h      ****     MOTOR_PutChar(Position_H);
 2164              		.loc 4 284 0
 2165 0046 301C     		mov	r0, r6
 2166 0048 FFF7FEFF 		bl	MOTOR_PutChar
 2167              	.LVL333:
 285:./AX12.h      ****     MOTOR_PutChar(Checksum);
 2168              		.loc 4 285 0
 2169 004c 3878     		ldrb	r0, [r7]
 2170 004e FFF7FEFF 		bl	MOTOR_PutChar
 2171              	.LVL334:
 286:./AX12.h      **** 	CyDelayUs(TX_DELAY_TIME);
 2172              		.loc 4 286 0
 2173 0052 C820     		mov	r0, #200
 2174 0054 4000     		lsl	r0, r0, #1
 2175 0056 FFF7FEFF 		bl	CyDelayUs
 2176              	.LVL335:
ARM GAS  C:\Users\Andres\AppData\Local\Temp\ccSsqcxd.s 			page 48


 287:./AX12.h      ****      CyDelay(5);  /// cambio de estado delay para buffer de salida
 2177              		.loc 4 287 0
 2178 005a 0520     		mov	r0, #5
 2179 005c FFF7FEFF 		bl	CyDelay
 2180              	.LVL336:
 288:./AX12.h      ****     TXC_Write(1); ///habilita rx 1
 2181              		.loc 4 288 0
 2182 0060 0120     		mov	r0, #1
 2183 0062 FFF7FEFF 		bl	TXC_Write
 2184              	.LVL337:
 289:./AX12.h      ****     return (error_data());                  
 2185              		.loc 4 289 0
 2186 0066 FFF7FEFF 		bl	error_data
 2187              	.LVL338:
 290:./AX12.h      **** }
 2188              		.loc 4 290 0
 2189              		@ sp needed
 2190              	.LVL339:
 2191              	.LVL340:
 2192 006a F8BD     		pop	{r3, r4, r5, r6, r7, pc}
 2193              	.L93:
 2194              		.align	2
 2195              	.L92:
 2196 006c 00000000 		.word	Checksum
 2197              		.cfi_endproc
 2198              	.LFE61:
 2199              		.size	moveRW, .-moveRW
 2200              		.section	.text.action,"ax",%progbits
 2201              		.align	2
 2202              		.global	action
 2203              		.code	16
 2204              		.thumb_func
 2205              		.type	action, %function
 2206              	action:
 2207              	.LFB62:
 291:./AX12.h      **** 
 292:./AX12.h      **** void action(){
 2208              		.loc 4 292 0
 2209              		.cfi_startproc
 2210 0000 08B5     		push	{r3, lr}
 2211              		.cfi_def_cfa_offset 8
 2212              		.cfi_offset 3, -8
 2213              		.cfi_offset 14, -4
 293:./AX12.h      **** 	// Send Instructions over Serial
 294:./AX12.h      ****     TXC_Write(2); ////habilita tx
 2214              		.loc 4 294 0
 2215 0002 0220     		mov	r0, #2
 2216 0004 FFF7FEFF 		bl	TXC_Write
 2217              	.LVL341:
 295:./AX12.h      ****     MOTOR_PutChar(AX_START);                
 2218              		.loc 4 295 0
 2219 0008 FF20     		mov	r0, #255
 2220 000a FFF7FEFF 		bl	MOTOR_PutChar
 2221              	.LVL342:
 296:./AX12.h      ****     MOTOR_PutChar(AX_START);
 2222              		.loc 4 296 0
 2223 000e FF20     		mov	r0, #255
ARM GAS  C:\Users\Andres\AppData\Local\Temp\ccSsqcxd.s 			page 49


 2224 0010 FFF7FEFF 		bl	MOTOR_PutChar
 2225              	.LVL343:
 297:./AX12.h      ****     MOTOR_PutChar(BROADCAST_ID);
 2226              		.loc 4 297 0
 2227 0014 FE20     		mov	r0, #254
 2228 0016 FFF7FEFF 		bl	MOTOR_PutChar
 2229              	.LVL344:
 298:./AX12.h      ****     MOTOR_PutChar(AX_ACTION_LENGTH);
 2230              		.loc 4 298 0
 2231 001a 0220     		mov	r0, #2
 2232 001c FFF7FEFF 		bl	MOTOR_PutChar
 2233              	.LVL345:
 299:./AX12.h      ****     MOTOR_PutChar(AX_ACTION);
 2234              		.loc 4 299 0
 2235 0020 0520     		mov	r0, #5
 2236 0022 FFF7FEFF 		bl	MOTOR_PutChar
 2237              	.LVL346:
 300:./AX12.h      ****     MOTOR_PutChar(AX_ACTION_CHECKSUM);
 2238              		.loc 4 300 0
 2239 0026 FA20     		mov	r0, #250
 2240 0028 FFF7FEFF 		bl	MOTOR_PutChar
 2241              	.LVL347:
 301:./AX12.h      **** 	CyDelayUs(TX_DELAY_TIME);
 2242              		.loc 4 301 0
 2243 002c C820     		mov	r0, #200
 2244 002e 4000     		lsl	r0, r0, #1
 2245 0030 FFF7FEFF 		bl	CyDelayUs
 2246              	.LVL348:
 302:./AX12.h      ****      CyDelay(5);  /// cambio de estado delay para buffer de salida
 2247              		.loc 4 302 0
 2248 0034 0520     		mov	r0, #5
 2249 0036 FFF7FEFF 		bl	CyDelay
 2250              	.LVL349:
 303:./AX12.h      ****     TXC_Write(1); ///habilita rx 1
 2251              		.loc 4 303 0
 2252 003a 0120     		mov	r0, #1
 2253 003c FFF7FEFF 		bl	TXC_Write
 2254              	.LVL350:
 304:./AX12.h      **** }
 2255              		.loc 4 304 0
 2256              		@ sp needed
 2257 0040 08BD     		pop	{r3, pc}
 2258              		.cfi_endproc
 2259              	.LFE62:
 2260              		.size	action, .-action
 2261 0042 C046     		.section	.text.turn,"ax",%progbits
 2262              		.align	2
 2263              		.global	turn
 2264              		.code	16
 2265              		.thumb_func
 2266              		.type	turn, %function
 2267              	turn:
 2268              	.LFB63:
 305:./AX12.h      **** 
 306:./AX12.h      **** int turn(unsigned char ID, int SIDE, int Speed){		
 2269              		.loc 4 306 0
 2270              		.cfi_startproc
ARM GAS  C:\Users\Andres\AppData\Local\Temp\ccSsqcxd.s 			page 50


 2271              	.LVL351:
 2272 0000 F8B5     		push	{r3, r4, r5, r6, r7, lr}
 2273              		.cfi_def_cfa_offset 24
 2274              		.cfi_offset 3, -24
 2275              		.cfi_offset 4, -20
 2276              		.cfi_offset 5, -16
 2277              		.cfi_offset 6, -12
 2278              		.cfi_offset 7, -8
 2279              		.cfi_offset 14, -4
 2280 0002 051C     		mov	r5, r0
 307:./AX12.h      **** 		if (SIDE == 0){                          
 2281              		.loc 4 307 0
 2282 0004 0029     		cmp	r1, #0
 2283 0006 33D1     		bne	.L96
 2284              	.LBB2:
 308:./AX12.h      **** 			//Left Move
 309:./AX12.h      **** 			char Speed_H,Speed_L;
 310:./AX12.h      ****             //Shift register 16 bits
 311:./AX12.h      **** 			Speed_H = Speed >> 8;
 2285              		.loc 4 311 0
 2286 0008 1612     		asr	r6, r2, #8
 2287 000a F6B2     		uxtb	r6, r6
 2288              	.LVL352:
 312:./AX12.h      **** 			Speed_L = Speed;        
 2289              		.loc 4 312 0
 2290 000c D4B2     		uxtb	r4, r2
 2291              	.LVL353:
 313:./AX12.h      ****             //Checksum for verification data to send
 314:./AX12.h      **** 			Checksum = (~(ID + AX_SPEED_LENGTH + AX_WRITE_DATA + AX_GOAL_SPEED_L + Speed_L + Speed_H))&0xFF;
 2292              		.loc 4 314 0
 2293 000e 334F     		ldr	r7, .L98
 2294 0010 0319     		add	r3, r0, r4
 2295 0012 F318     		add	r3, r6, r3
 2296 0014 2833     		add	r3, r3, #40
 2297 0016 DB43     		mvn	r3, r3
 2298 0018 3B70     		strb	r3, [r7]
 315:./AX12.h      **** 		    // Send Instructions over Serial
 316:./AX12.h      ****             TXC_Write(2); ////habilita tx
 2299              		.loc 4 316 0
 2300 001a 0220     		mov	r0, #2
 2301              	.LVL354:
 2302 001c FFF7FEFF 		bl	TXC_Write
 2303              	.LVL355:
 317:./AX12.h      **** 			MOTOR_PutChar(AX_START);                
 2304              		.loc 4 317 0
 2305 0020 FF20     		mov	r0, #255
 2306 0022 FFF7FEFF 		bl	MOTOR_PutChar
 2307              	.LVL356:
 318:./AX12.h      **** 			MOTOR_PutChar(AX_START);
 2308              		.loc 4 318 0
 2309 0026 FF20     		mov	r0, #255
 2310 0028 FFF7FEFF 		bl	MOTOR_PutChar
 2311              	.LVL357:
 319:./AX12.h      **** 			MOTOR_PutChar(ID);
 2312              		.loc 4 319 0
 2313 002c 281C     		mov	r0, r5
 2314 002e FFF7FEFF 		bl	MOTOR_PutChar
ARM GAS  C:\Users\Andres\AppData\Local\Temp\ccSsqcxd.s 			page 51


 2315              	.LVL358:
 320:./AX12.h      **** 			MOTOR_PutChar(AX_SPEED_LENGTH);
 2316              		.loc 4 320 0
 2317 0032 0520     		mov	r0, #5
 2318 0034 FFF7FEFF 		bl	MOTOR_PutChar
 2319              	.LVL359:
 321:./AX12.h      **** 			MOTOR_PutChar(AX_WRITE_DATA);
 2320              		.loc 4 321 0
 2321 0038 0320     		mov	r0, #3
 2322 003a FFF7FEFF 		bl	MOTOR_PutChar
 2323              	.LVL360:
 322:./AX12.h      **** 			MOTOR_PutChar(AX_GOAL_SPEED_L);
 2324              		.loc 4 322 0
 2325 003e 2020     		mov	r0, #32
 2326 0040 FFF7FEFF 		bl	MOTOR_PutChar
 2327              	.LVL361:
 323:./AX12.h      **** 			MOTOR_PutChar(Speed_L);
 2328              		.loc 4 323 0
 2329 0044 201C     		mov	r0, r4
 2330 0046 FFF7FEFF 		bl	MOTOR_PutChar
 2331              	.LVL362:
 324:./AX12.h      **** 			MOTOR_PutChar(Speed_H);
 2332              		.loc 4 324 0
 2333 004a 301C     		mov	r0, r6
 2334 004c FFF7FEFF 		bl	MOTOR_PutChar
 2335              	.LVL363:
 325:./AX12.h      **** 			MOTOR_PutChar(Checksum);
 2336              		.loc 4 325 0
 2337 0050 3878     		ldrb	r0, [r7]
 2338 0052 FFF7FEFF 		bl	MOTOR_PutChar
 2339              	.LVL364:
 326:./AX12.h      **** 			CyDelayUs(TX_DELAY_TIME);
 2340              		.loc 4 326 0
 2341 0056 C820     		mov	r0, #200
 2342 0058 4000     		lsl	r0, r0, #1
 2343 005a FFF7FEFF 		bl	CyDelayUs
 2344              	.LVL365:
 327:./AX12.h      ****              CyDelay(5);  /// cambio de estado delay para buffer de salida
 2345              		.loc 4 327 0
 2346 005e 0520     		mov	r0, #5
 2347 0060 FFF7FEFF 		bl	CyDelay
 2348              	.LVL366:
 328:./AX12.h      ****              TXC_Write(1); ///habilita rx 1
 2349              		.loc 4 328 0
 2350 0064 0120     		mov	r0, #1
 2351 0066 FFF7FEFF 		bl	TXC_Write
 2352              	.LVL367:
 329:./AX12.h      **** 			return (error_data());                	
 2353              		.loc 4 329 0
 2354 006a FFF7FEFF 		bl	error_data
 2355              	.LVL368:
 2356 006e 33E0     		b	.L97
 2357              	.LVL369:
 2358              	.L96:
 2359              	.LBE2:
 2360              	.LBB3:
 330:./AX12.h      **** 		}
ARM GAS  C:\Users\Andres\AppData\Local\Temp\ccSsqcxd.s 			page 52


 331:./AX12.h      **** 		else
 332:./AX12.h      **** 		{                                            
 333:./AX12.h      ****             // Rigth Move
 334:./AX12.h      **** 			char Speed_H,Speed_L;
 335:./AX12.h      ****             //Shift register 16 bits
 336:./AX12.h      **** 			Speed_H = (Speed >> 8) + 4;
 2361              		.loc 4 336 0
 2362 0070 1612     		asr	r6, r2, #8
 2363 0072 0436     		add	r6, r6, #4
 2364 0074 F6B2     		uxtb	r6, r6
 2365              	.LVL370:
 337:./AX12.h      **** 			Speed_L = Speed;              
 2366              		.loc 4 337 0
 2367 0076 D4B2     		uxtb	r4, r2
 2368              	.LVL371:
 338:./AX12.h      ****             //Checksum for verification data to send
 339:./AX12.h      **** 			Checksum = (~(ID + AX_SPEED_LENGTH + AX_WRITE_DATA + AX_GOAL_SPEED_L + Speed_L + Speed_H))&0xFF;
 2369              		.loc 4 339 0
 2370 0078 184F     		ldr	r7, .L98
 2371 007a 0319     		add	r3, r0, r4
 2372 007c F318     		add	r3, r6, r3
 2373 007e 2833     		add	r3, r3, #40
 2374 0080 DB43     		mvn	r3, r3
 2375 0082 3B70     		strb	r3, [r7]
 340:./AX12.h      **** 			// Send Instructions over Serial
 341:./AX12.h      ****             TXC_Write(2); ////habilita tx
 2376              		.loc 4 341 0
 2377 0084 0220     		mov	r0, #2
 2378              	.LVL372:
 2379 0086 FFF7FEFF 		bl	TXC_Write
 2380              	.LVL373:
 342:./AX12.h      **** 			MOTOR_PutChar(AX_START);                
 2381              		.loc 4 342 0
 2382 008a FF20     		mov	r0, #255
 2383 008c FFF7FEFF 		bl	MOTOR_PutChar
 2384              	.LVL374:
 343:./AX12.h      **** 			MOTOR_PutChar(AX_START);
 2385              		.loc 4 343 0
 2386 0090 FF20     		mov	r0, #255
 2387 0092 FFF7FEFF 		bl	MOTOR_PutChar
 2388              	.LVL375:
 344:./AX12.h      **** 			MOTOR_PutChar(ID);
 2389              		.loc 4 344 0
 2390 0096 281C     		mov	r0, r5
 2391 0098 FFF7FEFF 		bl	MOTOR_PutChar
 2392              	.LVL376:
 345:./AX12.h      **** 			MOTOR_PutChar(AX_SPEED_LENGTH);
 2393              		.loc 4 345 0
 2394 009c 0520     		mov	r0, #5
 2395 009e FFF7FEFF 		bl	MOTOR_PutChar
 2396              	.LVL377:
 346:./AX12.h      **** 			MOTOR_PutChar(AX_WRITE_DATA);
 2397              		.loc 4 346 0
 2398 00a2 0320     		mov	r0, #3
 2399 00a4 FFF7FEFF 		bl	MOTOR_PutChar
 2400              	.LVL378:
 347:./AX12.h      **** 			MOTOR_PutChar(AX_GOAL_SPEED_L);
ARM GAS  C:\Users\Andres\AppData\Local\Temp\ccSsqcxd.s 			page 53


 2401              		.loc 4 347 0
 2402 00a8 2020     		mov	r0, #32
 2403 00aa FFF7FEFF 		bl	MOTOR_PutChar
 2404              	.LVL379:
 348:./AX12.h      **** 			MOTOR_PutChar(Speed_L);
 2405              		.loc 4 348 0
 2406 00ae 201C     		mov	r0, r4
 2407 00b0 FFF7FEFF 		bl	MOTOR_PutChar
 2408              	.LVL380:
 349:./AX12.h      **** 			MOTOR_PutChar(Speed_H);
 2409              		.loc 4 349 0
 2410 00b4 301C     		mov	r0, r6
 2411 00b6 FFF7FEFF 		bl	MOTOR_PutChar
 2412              	.LVL381:
 350:./AX12.h      **** 			MOTOR_PutChar(Checksum);
 2413              		.loc 4 350 0
 2414 00ba 3878     		ldrb	r0, [r7]
 2415 00bc FFF7FEFF 		bl	MOTOR_PutChar
 2416              	.LVL382:
 351:./AX12.h      **** 			CyDelayUs(TX_DELAY_TIME);
 2417              		.loc 4 351 0
 2418 00c0 C820     		mov	r0, #200
 2419 00c2 4000     		lsl	r0, r0, #1
 2420 00c4 FFF7FEFF 		bl	CyDelayUs
 2421              	.LVL383:
 352:./AX12.h      ****              CyDelay(5);  /// cambio de estado delay para buffer de salida
 2422              		.loc 4 352 0
 2423 00c8 0520     		mov	r0, #5
 2424 00ca FFF7FEFF 		bl	CyDelay
 2425              	.LVL384:
 353:./AX12.h      ****              TXC_Write(1); ///habilita rx 1	
 2426              		.loc 4 353 0
 2427 00ce 0120     		mov	r0, #1
 2428 00d0 FFF7FEFF 		bl	TXC_Write
 2429              	.LVL385:
 354:./AX12.h      **** 			return (error_data());                	
 2430              		.loc 4 354 0
 2431 00d4 FFF7FEFF 		bl	error_data
 2432              	.LVL386:
 2433              	.L97:
 2434              	.LBE3:
 355:./AX12.h      **** 		}
 356:./AX12.h      **** }
 2435              		.loc 4 356 0
 2436              		@ sp needed
 2437 00d8 F8BD     		pop	{r3, r4, r5, r6, r7, pc}
 2438              	.L99:
 2439 00da C046     		.align	2
 2440              	.L98:
 2441 00dc 00000000 		.word	Checksum
 2442              		.cfi_endproc
 2443              	.LFE63:
 2444              		.size	turn, .-turn
 2445              		.section	.text.readPosition,"ax",%progbits
 2446              		.align	2
 2447              		.global	readPosition
 2448              		.code	16
ARM GAS  C:\Users\Andres\AppData\Local\Temp\ccSsqcxd.s 			page 54


 2449              		.thumb_func
 2450              		.type	readPosition, %function
 2451              	readPosition:
 2452              	.LFB64:
 357:./AX12.h      **** int readPosition (unsigned char ID){
 2453              		.loc 4 357 0
 2454              		.cfi_startproc
 2455              	.LVL387:
 2456 0000 70B5     		push	{r4, r5, r6, lr}
 2457              		.cfi_def_cfa_offset 16
 2458              		.cfi_offset 4, -16
 2459              		.cfi_offset 5, -12
 2460              		.cfi_offset 6, -8
 2461              		.cfi_offset 14, -4
 2462 0002 051C     		mov	r5, r0
 358:./AX12.h      ****     int data;
 359:./AX12.h      **** RX_ClearRxBuffer();
 2463              		.loc 4 359 0
 2464 0004 FFF7FEFF 		bl	RX_ClearRxBuffer
 2465              	.LVL388:
 360:./AX12.h      ****   Checksum = (~(ID + AX_POS_LENGTH  + AX_READ_DATA + AX_PRESENT_POSITION_L + AX_BYTE_READ_POS))&0xF
 2466              		.loc 4 360 0
 2467 0008 3F4E     		ldr	r6, .L106
 2468 000a 2B1C     		mov	r3, r5
 2469 000c 2C33     		add	r3, r3, #44
 2470 000e DB43     		mvn	r3, r3
 2471 0010 3370     		strb	r3, [r6]
 361:./AX12.h      **** 
 362:./AX12.h      ****    TXC_Write(2); ////habilita tx
 2472              		.loc 4 362 0
 2473 0012 0220     		mov	r0, #2
 2474 0014 FFF7FEFF 		bl	TXC_Write
 2475              	.LVL389:
 363:./AX12.h      **** 
 364:./AX12.h      **** MOTOR_PutChar(AX_START);
 2476              		.loc 4 364 0
 2477 0018 FF20     		mov	r0, #255
 2478 001a FFF7FEFF 		bl	MOTOR_PutChar
 2479              	.LVL390:
 365:./AX12.h      **** MOTOR_PutChar(AX_START);
 2480              		.loc 4 365 0
 2481 001e FF20     		mov	r0, #255
 2482 0020 FFF7FEFF 		bl	MOTOR_PutChar
 2483              	.LVL391:
 366:./AX12.h      **** MOTOR_PutChar(ID);
 2484              		.loc 4 366 0
 2485 0024 281C     		mov	r0, r5
 2486 0026 FFF7FEFF 		bl	MOTOR_PutChar
 2487              	.LVL392:
 367:./AX12.h      **** MOTOR_PutChar(AX_POS_LENGTH);
 2488              		.loc 4 367 0
 2489 002a 0420     		mov	r0, #4
 2490 002c FFF7FEFF 		bl	MOTOR_PutChar
 2491              	.LVL393:
 368:./AX12.h      **** MOTOR_PutChar(AX_READ_DATA);
 2492              		.loc 4 368 0
 2493 0030 0220     		mov	r0, #2
ARM GAS  C:\Users\Andres\AppData\Local\Temp\ccSsqcxd.s 			page 55


 2494 0032 FFF7FEFF 		bl	MOTOR_PutChar
 2495              	.LVL394:
 369:./AX12.h      **** MOTOR_PutChar(AX_PRESENT_POSITION_L);
 2496              		.loc 4 369 0
 2497 0036 2420     		mov	r0, #36
 2498 0038 FFF7FEFF 		bl	MOTOR_PutChar
 2499              	.LVL395:
 370:./AX12.h      **** MOTOR_PutChar(AX_BYTE_READ_POS);
 2500              		.loc 4 370 0
 2501 003c 0220     		mov	r0, #2
 2502 003e FFF7FEFF 		bl	MOTOR_PutChar
 2503              	.LVL396:
 371:./AX12.h      **** MOTOR_PutChar(Checksum);
 2504              		.loc 4 371 0
 2505 0042 3078     		ldrb	r0, [r6]
 2506 0044 FFF7FEFF 		bl	MOTOR_PutChar
 2507              	.LVL397:
 372:./AX12.h      **** CyDelayUs(TX_DELAY_TIME);
 2508              		.loc 4 372 0
 2509 0048 C820     		mov	r0, #200
 2510 004a 4000     		lsl	r0, r0, #1
 2511 004c FFF7FEFF 		bl	CyDelayUs
 2512              	.LVL398:
 373:./AX12.h      ****  CyDelay(5);  /// cambio de estado delay para buffer de salida
 2513              		.loc 4 373 0
 2514 0050 0520     		mov	r0, #5
 2515 0052 FFF7FEFF 		bl	CyDelay
 2516              	.LVL399:
 374:./AX12.h      ****              TXC_Write(1); ///habilita rx 1	
 2517              		.loc 4 374 0
 2518 0056 0120     		mov	r0, #1
 2519 0058 FFF7FEFF 		bl	TXC_Write
 2520              	.LVL400:
 375:./AX12.h      ****             
 376:./AX12.h      **** Position_Long_Byte = -1;
 2521              		.loc 4 376 0
 2522 005c FF22     		mov	r2, #255
 2523 005e 2B4B     		ldr	r3, .L106+4
 2524 0060 1A70     		strb	r2, [r3]
 377:./AX12.h      ****             Time_Counter = 0;
 2525              		.loc 4 377 0
 2526 0062 0022     		mov	r2, #0
 2527 0064 2A4B     		ldr	r3, .L106+8
 2528 0066 1A60     		str	r2, [r3]
 378:./AX12.h      ****             CyDelay(20);/// delay de espera
 2529              		.loc 4 378 0
 2530 0068 1420     		mov	r0, #20
 2531 006a FFF7FEFF 		bl	CyDelay
 2532              	.LVL401:
 379:./AX12.h      ****             
 380:./AX12.h      ****     while((RX_GetRxBufferSize() < 7) & (Time_Counter < TIME_OUT)){
 2533              		.loc 4 380 0
 2534 006e 06E0     		b	.L101
 2535              	.L102:
 381:./AX12.h      **** 		Time_Counter++;
 2536              		.loc 4 381 0
 2537 0070 0131     		add	r1, r1, #1
ARM GAS  C:\Users\Andres\AppData\Local\Temp\ccSsqcxd.s 			page 56


 2538 0072 274B     		ldr	r3, .L106+8
 2539 0074 1960     		str	r1, [r3]
 382:./AX12.h      **** 		CyDelayUs(1000);
 2540              		.loc 4 382 0
 2541 0076 FA20     		mov	r0, #250
 2542 0078 8000     		lsl	r0, r0, #2
 2543 007a FFF7FEFF 		bl	CyDelayUs
 2544              	.LVL402:
 2545              	.L101:
 380:./AX12.h      **** 		Time_Counter++;
 2546              		.loc 4 380 0
 2547 007e FFF7FEFF 		bl	RX_GetRxBufferSize
 2548              	.LVL403:
 2549 0082 234B     		ldr	r3, .L106+8
 2550 0084 1968     		ldr	r1, [r3]
 2551 0086 0023     		mov	r3, #0
 2552 0088 0622     		mov	r2, #6
 2553 008a 1D1C     		mov	r5, r3
 2554 008c 8242     		cmp	r2, r0
 2555 008e 5D41     		adc	r5, r5, r3
 2556 0090 2A1C     		mov	r2, r5
 2557 0092 CD0F     		lsr	r5, r1, #31
 2558 0094 0920     		mov	r0, #9
 2559 0096 8842     		cmp	r0, r1
 2560 0098 6B41     		adc	r3, r3, r5
 2561 009a 1340     		and	r3, r2
 2562 009c DBB2     		uxtb	r3, r3
 2563 009e 002B     		cmp	r3, #0
 2564 00a0 E6D1     		bne	.L102
 2565 00a2 2BE0     		b	.L104
 2566              	.LVL404:
 2567              	.L105:
 383:./AX12.h      ****     }
 384:./AX12.h      ****    while (RX_GetRxBufferSize() > 0){
 385:./AX12.h      **** 		Incoming_Byte = RX_ReadRxData();
 2568              		.loc 4 385 0
 2569 00a4 FFF7FEFF 		bl	RX_ReadRxData
 2570              	.LVL405:
 2571 00a8 1A4D     		ldr	r5, .L106+12
 2572 00aa 2870     		strb	r0, [r5]
 386:./AX12.h      ****         Incoming_Byte2 = RX_ReadRxData();
 2573              		.loc 4 386 0
 2574 00ac FFF7FEFF 		bl	RX_ReadRxData
 2575              	.LVL406:
 2576 00b0 194B     		ldr	r3, .L106+16
 2577 00b2 1870     		strb	r0, [r3]
 387:./AX12.h      **** 		if ( (Incoming_Byte == 255) & (Incoming_Byte2 == 255) ){
 2578              		.loc 4 387 0
 2579 00b4 2B78     		ldrb	r3, [r5]
 2580 00b6 FF3B     		sub	r3, r3, #255
 2581 00b8 5A42     		neg	r2, r3
 2582 00ba 5341     		adc	r3, r3, r2
 2583 00bc FF38     		sub	r0, r0, #255
 2584 00be 4242     		neg	r2, r0
 2585 00c0 5041     		adc	r0, r0, r2
 2586 00c2 1842     		tst	r0, r3
 2587 00c4 1AD0     		beq	.L104
ARM GAS  C:\Users\Andres\AppData\Local\Temp\ccSsqcxd.s 			page 57


 388:./AX12.h      **** 			                          
 389:./AX12.h      **** 			RX_ReadRxData();                            // Ax-12 ID
 2588              		.loc 4 389 0
 2589 00c6 FFF7FEFF 		bl	RX_ReadRxData
 2590              	.LVL407:
 390:./AX12.h      **** 			RX_ReadRxData();                            // Length
 2591              		.loc 4 390 0
 2592 00ca FFF7FEFF 		bl	RX_ReadRxData
 2593              	.LVL408:
 391:./AX12.h      **** 			Error_Byte = RX_ReadRxData();    //error
 2594              		.loc 4 391 0
 2595 00ce FFF7FEFF 		bl	RX_ReadRxData
 2596              	.LVL409:
 2597 00d2 124B     		ldr	r3, .L106+20
 2598 00d4 1870     		strb	r0, [r3]
 392:./AX12.h      ****    			Position_Low_Byte = RX_ReadRxData();            // Position Bytes
 2599              		.loc 4 392 0
 2600 00d6 FFF7FEFF 		bl	RX_ReadRxData
 2601              	.LVL410:
 2602 00da 114D     		ldr	r5, .L106+24
 2603 00dc 2870     		strb	r0, [r5]
 393:./AX12.h      **** 			Position_High_Byte = RX_ReadRxData();           // Position Bytes  
 2604              		.loc 4 393 0
 2605 00de FFF7FEFF 		bl	RX_ReadRxData
 2606              	.LVL411:
 2607 00e2 104C     		ldr	r4, .L106+28
 2608              	.LVL412:
 2609 00e4 2070     		strb	r0, [r4]
 394:./AX12.h      ****             RX_ReadRxData();
 2610              		.loc 4 394 0
 2611 00e6 FFF7FEFF 		bl	RX_ReadRxData
 2612              	.LVL413:
 395:./AX12.h      ****             
 396:./AX12.h      **** 			data = Position_High_Byte << 8; 
 2613              		.loc 4 396 0
 2614 00ea 2478     		ldrb	r4, [r4]
 2615 00ec 2402     		lsl	r4, r4, #8
 2616              	.LVL414:
 397:./AX12.h      **** 			data = data + Position_Low_Byte;
 2617              		.loc 4 397 0
 2618 00ee 2B78     		ldrb	r3, [r5]
 2619 00f0 1C19     		add	r4, r3, r4
 2620              	.LVL415:
 398:./AX12.h      **** 		RX_ClearRxBuffer();
 2621              		.loc 4 398 0
 2622 00f2 FFF7FEFF 		bl	RX_ClearRxBuffer
 2623              	.LVL416:
 399:./AX12.h      ****             CyDelay(10);
 2624              		.loc 4 399 0
 2625 00f6 0A20     		mov	r0, #10
 2626 00f8 FFF7FEFF 		bl	CyDelay
 2627              	.LVL417:
 2628              	.L104:
 384:./AX12.h      **** 		Incoming_Byte = RX_ReadRxData();
 2629              		.loc 4 384 0
 2630 00fc FFF7FEFF 		bl	RX_GetRxBufferSize
 2631              	.LVL418:
ARM GAS  C:\Users\Andres\AppData\Local\Temp\ccSsqcxd.s 			page 58


 2632 0100 0028     		cmp	r0, #0
 2633 0102 CFD1     		bne	.L105
 400:./AX12.h      ****         
 401:./AX12.h      ****         }
 402:./AX12.h      ****         
 403:./AX12.h      ****     }
 404:./AX12.h      **** 	return (data);     // Returns the read position
 405:./AX12.h      ****     
 406:./AX12.h      **** }
 2634              		.loc 4 406 0
 2635 0104 201C     		mov	r0, r4
 2636              		@ sp needed
 2637              	.LVL419:
 2638 0106 70BD     		pop	{r4, r5, r6, pc}
 2639              	.L107:
 2640              		.align	2
 2641              	.L106:
 2642 0108 00000000 		.word	Checksum
 2643 010c 00000000 		.word	Position_Long_Byte
 2644 0110 00000000 		.word	Time_Counter
 2645 0114 00000000 		.word	Incoming_Byte
 2646 0118 00000000 		.word	Incoming_Byte2
 2647 011c 00000000 		.word	Error_Byte
 2648 0120 00000000 		.word	Position_Low_Byte
 2649 0124 00000000 		.word	Position_High_Byte
 2650              		.cfi_endproc
 2651              	.LFE64:
 2652              		.size	readPosition, .-readPosition
 2653              		.section	.text.setAngleLimit,"ax",%progbits
 2654              		.align	2
 2655              		.global	setAngleLimit
 2656              		.code	16
 2657              		.thumb_func
 2658              		.type	setAngleLimit, %function
 2659              	setAngleLimit:
 2660              	.LFB65:
 407:./AX12.h      **** int setAngleLimit(unsigned char ID, int CWLimit, int CCWLimit)
 408:./AX12.h      **** {
 2661              		.loc 4 408 0
 2662              		.cfi_startproc
 2663              	.LVL420:
 2664 0000 F0B5     		push	{r4, r5, r6, r7, lr}
 2665              		.cfi_def_cfa_offset 20
 2666              		.cfi_offset 4, -20
 2667              		.cfi_offset 5, -16
 2668              		.cfi_offset 6, -12
 2669              		.cfi_offset 7, -8
 2670              		.cfi_offset 14, -4
 2671 0002 4746     		mov	r7, r8
 2672 0004 80B4     		push	{r7}
 2673              		.cfi_def_cfa_offset 24
 2674              		.cfi_offset 8, -24
 2675 0006 82B0     		sub	sp, sp, #8
 2676              		.cfi_def_cfa_offset 32
 409:./AX12.h      **** 	char CW_H,CW_L,CCW_H,CCW_L;
 410:./AX12.h      ****     CW_H = CWLimit >> 8;    
 2677              		.loc 4 410 0
ARM GAS  C:\Users\Andres\AppData\Local\Temp\ccSsqcxd.s 			page 59


 2678 0008 0B12     		asr	r3, r1, #8
 2679 000a DBB2     		uxtb	r3, r3
 2680 000c 9846     		mov	r8, r3
 2681              	.LVL421:
 411:./AX12.h      ****     CW_L = CWLimit;                // 16 bits - 2 x 8 bits variables
 2682              		.loc 4 411 0
 2683 000e CEB2     		uxtb	r6, r1
 2684              	.LVL422:
 412:./AX12.h      ****     CCW_H = CCWLimit >> 8;
 2685              		.loc 4 412 0
 2686 0010 1712     		asr	r7, r2, #8
 2687 0012 FFB2     		uxtb	r7, r7
 2688              	.LVL423:
 413:./AX12.h      ****     CCW_L = CCWLimit;  
 2689              		.loc 4 413 0
 2690 0014 D4B2     		uxtb	r4, r2
 2691              	.LVL424:
 414:./AX12.h      **** 	Checksum = (~(ID + AX_VL_LENGTH +AX_WRITE_DATA+ AX_CW_ANGLE_LIMIT_L + CW_H + CW_L + AX_CCW_ANGLE_L
 2692              		.loc 4 414 0
 2693 0016 204D     		ldr	r5, .L109
 2694 0018 0190     		str	r0, [sp, #4]
 2695 001a 031C     		mov	r3, r0
 2696 001c 4344     		add	r3, r3, r8
 2697 001e F318     		add	r3, r6, r3
 2698 0020 FB18     		add	r3, r7, r3
 2699 0022 E318     		add	r3, r4, r3
 2700 0024 1733     		add	r3, r3, #23
 2701 0026 DB43     		mvn	r3, r3
 2702 0028 2B70     		strb	r3, [r5]
 415:./AX12.h      **** 	
 416:./AX12.h      ****   TXC_Write(2); ////habilita tx	 
 2703              		.loc 4 416 0
 2704 002a 0220     		mov	r0, #2
 2705              	.LVL425:
 2706 002c FFF7FEFF 		bl	TXC_Write
 2707              	.LVL426:
 417:./AX12.h      ****     MOTOR_PutChar(AX_START);
 2708              		.loc 4 417 0
 2709 0030 FF20     		mov	r0, #255
 2710 0032 FFF7FEFF 		bl	MOTOR_PutChar
 2711              	.LVL427:
 418:./AX12.h      **** 	MOTOR_PutChar(AX_START);
 2712              		.loc 4 418 0
 2713 0036 FF20     		mov	r0, #255
 2714 0038 FFF7FEFF 		bl	MOTOR_PutChar
 2715              	.LVL428:
 419:./AX12.h      ****     MOTOR_PutChar(ID);
 2716              		.loc 4 419 0
 2717 003c 0198     		ldr	r0, [sp, #4]
 2718 003e FFF7FEFF 		bl	MOTOR_PutChar
 2719              	.LVL429:
 420:./AX12.h      **** 	MOTOR_PutChar(AX_CCW_CW_LENGTH);
 2720              		.loc 4 420 0
 2721 0042 0820     		mov	r0, #8
 2722 0044 FFF7FEFF 		bl	MOTOR_PutChar
 2723              	.LVL430:
 421:./AX12.h      **** 	MOTOR_PutChar(AX_WRITE_DATA);
ARM GAS  C:\Users\Andres\AppData\Local\Temp\ccSsqcxd.s 			page 60


 2724              		.loc 4 421 0
 2725 0048 0320     		mov	r0, #3
 2726 004a FFF7FEFF 		bl	MOTOR_PutChar
 2727              	.LVL431:
 422:./AX12.h      **** 	MOTOR_PutChar(AX_CW_ANGLE_LIMIT_L);
 2728              		.loc 4 422 0
 2729 004e 0620     		mov	r0, #6
 2730 0050 FFF7FEFF 		bl	MOTOR_PutChar
 2731              	.LVL432:
 423:./AX12.h      ****     MOTOR_PutChar(CW_L);
 2732              		.loc 4 423 0
 2733 0054 301C     		mov	r0, r6
 2734 0056 FFF7FEFF 		bl	MOTOR_PutChar
 2735              	.LVL433:
 424:./AX12.h      ****     MOTOR_PutChar(CW_H);
 2736              		.loc 4 424 0
 2737 005a 4046     		mov	r0, r8
 2738 005c FFF7FEFF 		bl	MOTOR_PutChar
 2739              	.LVL434:
 425:./AX12.h      **** 	MOTOR_PutChar(AX_CCW_ANGLE_LIMIT_L);
 2740              		.loc 4 425 0
 2741 0060 0820     		mov	r0, #8
 2742 0062 FFF7FEFF 		bl	MOTOR_PutChar
 2743              	.LVL435:
 426:./AX12.h      ****     MOTOR_PutChar(CCW_L);
 2744              		.loc 4 426 0
 2745 0066 201C     		mov	r0, r4
 2746 0068 FFF7FEFF 		bl	MOTOR_PutChar
 2747              	.LVL436:
 427:./AX12.h      **** 	MOTOR_PutChar(CCW_H);
 2748              		.loc 4 427 0
 2749 006c 381C     		mov	r0, r7
 2750 006e FFF7FEFF 		bl	MOTOR_PutChar
 2751              	.LVL437:
 428:./AX12.h      **** 	MOTOR_PutChar(Checksum);
 2752              		.loc 4 428 0
 2753 0072 2878     		ldrb	r0, [r5]
 2754 0074 FFF7FEFF 		bl	MOTOR_PutChar
 2755              	.LVL438:
 429:./AX12.h      **** 	CyDelayUs(TX_DELAY_TIME);
 2756              		.loc 4 429 0
 2757 0078 C820     		mov	r0, #200
 2758 007a 4000     		lsl	r0, r0, #1
 2759 007c FFF7FEFF 		bl	CyDelayUs
 2760              	.LVL439:
 430:./AX12.h      **** 	CyDelay(5);
 2761              		.loc 4 430 0
 2762 0080 0520     		mov	r0, #5
 2763 0082 FFF7FEFF 		bl	CyDelay
 2764              	.LVL440:
 431:./AX12.h      **** 	 TXC_Write(1); ////habilita rx	 
 2765              		.loc 4 431 0
 2766 0086 0120     		mov	r0, #1
 2767 0088 FFF7FEFF 		bl	TXC_Write
 2768              	.LVL441:
 432:./AX12.h      ****     return (error_data()); 
 2769              		.loc 4 432 0
ARM GAS  C:\Users\Andres\AppData\Local\Temp\ccSsqcxd.s 			page 61


 2770 008c FFF7FEFF 		bl	error_data
 2771              	.LVL442:
 433:./AX12.h      **** }
 2772              		.loc 4 433 0
 2773 0090 02B0     		add	sp, sp, #8
 2774              		@ sp needed
 2775              	.LVL443:
 2776              	.LVL444:
 2777              	.LVL445:
 2778              	.LVL446:
 2779 0092 04BC     		pop	{r2}
 2780 0094 9046     		mov	r8, r2
 2781 0096 F0BD     		pop	{r4, r5, r6, r7, pc}
 2782              	.L110:
 2783              		.align	2
 2784              	.L109:
 2785 0098 00000000 		.word	Checksum
 2786              		.cfi_endproc
 2787              	.LFE65:
 2788              		.size	setAngleLimit, .-setAngleLimit
 2789              		.section	.text.asignacion,"ax",%progbits
 2790              		.align	2
 2791              		.global	asignacion
 2792              		.code	16
 2793              		.thumb_func
 2794              		.type	asignacion, %function
 2795              	asignacion:
 2796              	.LFB66:
 2797              		.file 5 "./inicio.h"
   1:./inicio.h    **** #include <VCNL4010_1.h>
   2:./inicio.h    **** #include <VCNL4010_2.h>
   3:./inicio.h    **** #include <VCNL4010_3.h>
   4:./inicio.h    **** //#include <VCNL4010_4.h>
   5:./inicio.h    **** #include <AX12.h>
   6:./inicio.h    **** #include <math.h>
   7:./inicio.h    **** #include <protocolo can.h>
   8:./inicio.h    **** 
   9:./inicio.h    **** int  ant,t,Pd,Pt,cstatus,M,Pta,errc,PositionM,pos; 
  10:./inicio.h    **** unsigned char dir=1; //////dir motor
  11:./inicio.h    **** unsigned int Pda;
  12:./inicio.h    **** uint8 Mydir=250;
  13:./inicio.h    **** uint8 dirasig ;
  14:./inicio.h    **** uint8 sumadir;
  15:./inicio.h    **** uint8 dato_enviado[8];
  16:./inicio.h    **** uint8 mailbox0[8];
  17:./inicio.h    **** float srf;
  18:./inicio.h    **** unsigned char dir,tem,tes,error,Error_Byte,Incoming_Byte2;
  19:./inicio.h    **** int amb,posicion,posicionh,posicionl;
  20:./inicio.h    **** 
  21:./inicio.h    **** /////////////////////////////////////codigo para identificar//////////////////////////
  22:./inicio.h    **** 
  23:./inicio.h    **** 
  24:./inicio.h    **** 
  25:./inicio.h    **** int asignacion(){
 2798              		.loc 5 25 0
 2799              		.cfi_startproc
 2800 0000 08B5     		push	{r3, lr}
ARM GAS  C:\Users\Andres\AppData\Local\Temp\ccSsqcxd.s 			page 62


 2801              		.cfi_def_cfa_offset 8
 2802              		.cfi_offset 3, -8
 2803              		.cfi_offset 14, -4
  26:./inicio.h    **** 
  27:./inicio.h    **** 
  28:./inicio.h    ****   dato_enviado[0]=VER ;//verificacion
 2804              		.loc 5 28 0
 2805 0002 094B     		ldr	r3, .L112
 2806 0004 7F22     		mov	r2, #127
 2807 0006 1A70     		strb	r2, [r3]
  29:./inicio.h    ****   dato_enviado[1]=DIRCS ;//dir
 2808              		.loc 5 29 0
 2809 0008 7B32     		add	r2, r2, #123
 2810 000a 5A70     		strb	r2, [r3, #1]
  30:./inicio.h    ****   dato_enviado[2]=ESCRITURA ;//operacion
 2811              		.loc 5 30 0
 2812 000c F83A     		sub	r2, r2, #248
 2813 000e 9A70     		strb	r2, [r3, #2]
  31:./inicio.h    ****   dato_enviado[3]=MEC;//lugar
 2814              		.loc 5 31 0
 2815 0010 0832     		add	r2, r2, #8
 2816 0012 DA70     		strb	r2, [r3, #3]
  32:./inicio.h    ****   dato_enviado[4]= dirasig ;  //dato... en este caso direcion para asignar
 2817              		.loc 5 32 0
 2818 0014 054A     		ldr	r2, .L112+4
 2819 0016 1278     		ldrb	r2, [r2]
 2820 0018 1A71     		strb	r2, [r3, #4]
  33:./inicio.h    **** 
  34:./inicio.h    ****       CAN_SendMsg0(); 
 2821              		.loc 5 34 0
 2822 001a FFF7FEFF 		bl	CAN_SendMsg0
 2823              	.LVL447:
  35:./inicio.h    **** CyDelay(25);
 2824              		.loc 5 35 0
 2825 001e 1920     		mov	r0, #25
 2826 0020 FFF7FEFF 		bl	CyDelay
 2827              	.LVL448:
  36:./inicio.h    **** 
  37:./inicio.h    **** return(0);
  38:./inicio.h    **** }
 2828              		.loc 5 38 0
 2829 0024 0020     		mov	r0, #0
 2830              		@ sp needed
 2831 0026 08BD     		pop	{r3, pc}
 2832              	.L113:
 2833              		.align	2
 2834              	.L112:
 2835 0028 00000000 		.word	dato_enviado
 2836 002c 00000000 		.word	dirasig
 2837              		.cfi_endproc
 2838              	.LFE66:
 2839              		.size	asignacion, .-asignacion
 2840              		.section	.text.ledoff,"ax",%progbits
 2841              		.align	2
 2842              		.global	ledoff
 2843              		.code	16
 2844              		.thumb_func
ARM GAS  C:\Users\Andres\AppData\Local\Temp\ccSsqcxd.s 			page 63


 2845              		.type	ledoff, %function
 2846              	ledoff:
 2847              	.LFB67:
  39:./inicio.h    **** int ledoff(int datas,int direccion,int led){
 2848              		.loc 5 39 0
 2849              		.cfi_startproc
 2850              	.LVL449:
 2851 0000 10B5     		push	{r4, lr}
 2852              		.cfi_def_cfa_offset 8
 2853              		.cfi_offset 4, -8
 2854              		.cfi_offset 14, -4
  40:./inicio.h    ****     
  41:./inicio.h    ****     
  42:./inicio.h    ****   dato_enviado[0]=VER ;//verificacion
 2855              		.loc 5 42 0
 2856 0002 074B     		ldr	r3, .L115
 2857 0004 7F24     		mov	r4, #127
 2858 0006 1C70     		strb	r4, [r3]
  43:./inicio.h    ****   dato_enviado[1]=direccion ;//dir
 2859              		.loc 5 43 0
 2860 0008 5970     		strb	r1, [r3, #1]
  44:./inicio.h    ****   dato_enviado[2]=ESCRITURA ;//operacion
 2861              		.loc 5 44 0
 2862 000a 0221     		mov	r1, #2
 2863              	.LVL450:
 2864 000c 9970     		strb	r1, [r3, #2]
  45:./inicio.h    ****   dato_enviado[3]=led;//lugar
 2865              		.loc 5 45 0
 2866 000e DA70     		strb	r2, [r3, #3]
  46:./inicio.h    ****   dato_enviado[4]= datas ;  //dato... en este caso direcion para asignar
 2867              		.loc 5 46 0
 2868 0010 1871     		strb	r0, [r3, #4]
  47:./inicio.h    ****     
  48:./inicio.h    ****       CAN_SendMsg0(); 
 2869              		.loc 5 48 0
 2870 0012 FFF7FEFF 		bl	CAN_SendMsg0
 2871              	.LVL451:
  49:./inicio.h    ****     
  50:./inicio.h    ****     CyDelay(25);
 2872              		.loc 5 50 0
 2873 0016 1920     		mov	r0, #25
 2874 0018 FFF7FEFF 		bl	CyDelay
 2875              	.LVL452:
  51:./inicio.h    ****     return 0;
  52:./inicio.h    **** }
 2876              		.loc 5 52 0
 2877 001c 0020     		mov	r0, #0
 2878              		@ sp needed
 2879 001e 10BD     		pop	{r4, pc}
 2880              	.L116:
 2881              		.align	2
 2882              	.L115:
 2883 0020 00000000 		.word	dato_enviado
 2884              		.cfi_endproc
 2885              	.LFE67:
 2886              		.size	ledoff, .-ledoff
 2887              		.section	.text.inicio,"ax",%progbits
ARM GAS  C:\Users\Andres\AppData\Local\Temp\ccSsqcxd.s 			page 64


 2888              		.align	2
 2889              		.global	inicio
 2890              		.code	16
 2891              		.thumb_func
 2892              		.type	inicio, %function
 2893              	inicio:
 2894              	.LFB68:
  53:./inicio.h    **** int inicio(){
 2895              		.loc 5 53 0
 2896              		.cfi_startproc
 2897 0000 10B5     		push	{r4, lr}
 2898              		.cfi_def_cfa_offset 8
 2899              		.cfi_offset 4, -8
 2900              		.cfi_offset 14, -4
 2901              	.L120:
  54:./inicio.h    ****     ini:
  55:./inicio.h    ****         Pd=readProximity_2();
 2902              		.loc 5 55 0
 2903 0002 FFF7FEFF 		bl	readProximity_2
 2904              	.LVL453:
 2905 0006 434B     		ldr	r3, .L128
 2906 0008 1860     		str	r0, [r3]
  56:./inicio.h    ****        // Pt=readProximity_4();
  57:./inicio.h    ****        
  58:./inicio.h    ****     
  59:./inicio.h    ****       
  60:./inicio.h    ****     if(Mydir!=DIRCS){
 2907              		.loc 5 60 0
 2908 000a 434B     		ldr	r3, .L128+4
 2909 000c 1B78     		ldrb	r3, [r3]
 2910 000e FA2B     		cmp	r3, #250
 2911 0010 7DD1     		bne	.L119
  61:./inicio.h    ****        goto end;
  62:./inicio.h    ****     }else{
  63:./inicio.h    ****     
  64:./inicio.h    ****     
  65:./inicio.h    ****     errc=CAN_GetErrorState();  ///////////status can
 2912              		.loc 5 65 0
 2913 0012 FFF7FEFF 		bl	CAN_GetErrorState
 2914              	.LVL454:
 2915 0016 414B     		ldr	r3, .L128+8
 2916 0018 1860     		str	r0, [r3]
  66:./inicio.h    ****         if(errc==0){
 2917              		.loc 5 66 0
 2918 001a 0028     		cmp	r0, #0
 2919 001c F1D1     		bne	.L120
  67:./inicio.h    ****       
  68:./inicio.h    ****             if(Pd>=3000){Pda=readAmbient_2(); 
 2920              		.loc 5 68 0
 2921 001e 3D4B     		ldr	r3, .L128
 2922 0020 1A68     		ldr	r2, [r3]
 2923 0022 3F4B     		ldr	r3, .L128+12
 2924 0024 9A42     		cmp	r2, r3
 2925 0026 19DD     		ble	.L121
 2926              		.loc 5 68 0 is_stmt 0 discriminator 1
 2927 0028 FFF7FEFF 		bl	readAmbient_2
 2928              	.LVL455:
ARM GAS  C:\Users\Andres\AppData\Local\Temp\ccSsqcxd.s 			page 65


 2929 002c 3D4C     		ldr	r4, .L128+16
 2930 002e 2060     		str	r0, [r4]
  69:./inicio.h    ****                 LED_3_Write(1); 
 2931              		.loc 5 69 0 is_stmt 1 discriminator 1
 2932 0030 0120     		mov	r0, #1
 2933 0032 FFF7FEFF 		bl	LED_3_Write
 2934              	.LVL456:
  70:./inicio.h    ****      Pda=readAmbient_2(); 
 2935              		.loc 5 70 0 discriminator 1
 2936 0036 FFF7FEFF 		bl	readAmbient_2
 2937              	.LVL457:
 2938 003a 2060     		str	r0, [r4]
  71:./inicio.h    ****       CyDelay(4);  
 2939              		.loc 5 71 0 discriminator 1
 2940 003c 0420     		mov	r0, #4
 2941 003e FFF7FEFF 		bl	CyDelay
 2942              	.LVL458:
  72:./inicio.h    ****     LED_3_Write(0);
 2943              		.loc 5 72 0 discriminator 1
 2944 0042 0020     		mov	r0, #0
 2945 0044 FFF7FEFF 		bl	LED_3_Write
 2946              	.LVL459:
  73:./inicio.h    ****     Pda=readAmbient_2(); 
 2947              		.loc 5 73 0 discriminator 1
 2948 0048 FFF7FEFF 		bl	readAmbient_2
 2949              	.LVL460:
 2950 004c 2060     		str	r0, [r4]
  74:./inicio.h    ****      CyDelay(4); 
 2951              		.loc 5 74 0 discriminator 1
 2952 004e 0420     		mov	r0, #4
 2953 0050 FFF7FEFF 		bl	CyDelay
 2954              	.LVL461:
  75:./inicio.h    ****               Pda=readAmbient_2(); 
 2955              		.loc 5 75 0 discriminator 1
 2956 0054 FFF7FEFF 		bl	readAmbient_2
 2957              	.LVL462:
 2958 0058 2060     		str	r0, [r4]
 2959              	.L118:
  76:./inicio.h    ****                 goto ini;
 2960              		.loc 5 76 0 discriminator 1
 2961 005a D2E7     		b	.L120
 2962              	.L121:
  77:./inicio.h    ****                           
  78:./inicio.h    ****             
  79:./inicio.h    ****         }else{
  80:./inicio.h    ****             
  81:./inicio.h    ****             
  82:./inicio.h    ****             
  83:./inicio.h    ****             
  84:./inicio.h    ****             Mydir=DIRM;
 2963              		.loc 5 84 0
 2964 005c C822     		mov	r2, #200
 2965 005e 2E4B     		ldr	r3, .L128+4
 2966 0060 1A70     		strb	r2, [r3]
  85:./inicio.h    ****             
  86:./inicio.h    ****            
  87:./inicio.h    ****             
ARM GAS  C:\Users\Andres\AppData\Local\Temp\ccSsqcxd.s 			page 66


  88:./inicio.h    ****          
  89:./inicio.h    ****       
  90:./inicio.h    **** //        /////esperar respuesta de vericacion de asignacion de dir
  91:./inicio.h    **** //        
  92:./inicio.h    ****          
  93:./inicio.h    ****             
  94:./inicio.h    ****             
  95:./inicio.h    ****             LED_2_Write(1);  ///identificador
 2967              		.loc 5 95 0
 2968 0062 0120     		mov	r0, #1
 2969 0064 FFF7FEFF 		bl	LED_2_Write
 2970              	.LVL463:
  96:./inicio.h    ****            LED_4_Write(1);///led trasero 
 2971              		.loc 5 96 0
 2972 0068 0120     		mov	r0, #1
 2973 006a FFF7FEFF 		bl	LED_4_Write
 2974              	.LVL464:
 2975              	.L122:
  97:./inicio.h    ****           
  98:./inicio.h    ****             
  99:./inicio.h    ****             asig:
 100:./inicio.h    ****             CyDelay(2000);///t para lectura amb
 2976              		.loc 5 100 0
 2977 006e FA20     		mov	r0, #250
 2978 0070 C000     		lsl	r0, r0, #3
 2979 0072 FFF7FEFF 		bl	CyDelay
 2980              	.LVL465:
 101:./inicio.h    ****          ///
 102:./inicio.h    ****             dirasig=sumadir+1;
 2981              		.loc 5 102 0
 2982 0076 2C4A     		ldr	r2, .L128+20
 2983 0078 1378     		ldrb	r3, [r2]
 2984 007a 0133     		add	r3, r3, #1
 2985 007c 2B49     		ldr	r1, .L128+24
 2986 007e 0B70     		strb	r3, [r1]
 103:./inicio.h    ****             sumadir=0;
 2987              		.loc 5 103 0
 2988 0080 0023     		mov	r3, #0
 2989 0082 1370     		strb	r3, [r2]
 104:./inicio.h    ****             asignacion();/////envio1
 2990              		.loc 5 104 0
 2991 0084 FFF7FEFF 		bl	asignacion
 2992              	.LVL466:
 105:./inicio.h    ****             while(sumadir!=dirasig){//// espera de verificacion de llegada
 2993              		.loc 5 105 0
 2994 0088 22E0     		b	.L124
 2995              	.L126:
 106:./inicio.h    ****                 
 107:./inicio.h    ****                 CyDelay(75);
 2996              		.loc 5 107 0
 2997 008a 4B20     		mov	r0, #75
 2998 008c FFF7FEFF 		bl	CyDelay
 2999              	.LVL467:
 108:./inicio.h    ****                 
 109:./inicio.h    ****             
 110:./inicio.h    ****             if(t==10){ LED_4_Write(0);
 3000              		.loc 5 110 0
ARM GAS  C:\Users\Andres\AppData\Local\Temp\ccSsqcxd.s 			page 67


 3001 0090 274B     		ldr	r3, .L128+28
 3002 0092 1B68     		ldr	r3, [r3]
 3003 0094 0A2B     		cmp	r3, #10
 3004 0096 18D1     		bne	.L125
 3005              		.loc 5 110 0 is_stmt 0 discriminator 1
 3006 0098 0020     		mov	r0, #0
 3007 009a FFF7FEFF 		bl	LED_4_Write
 3008              	.LVL468:
 111:./inicio.h    ****             dirasig= dirasig-1;
 3009              		.loc 5 111 0 is_stmt 1 discriminator 1
 3010 009e 234C     		ldr	r4, .L128+24
 3011 00a0 2178     		ldrb	r1, [r4]
 3012 00a2 0139     		sub	r1, r1, #1
 3013 00a4 C9B2     		uxtb	r1, r1
 3014 00a6 2170     		strb	r1, [r4]
 112:./inicio.h    ****             
 113:./inicio.h    ****             ledoff(0,dirasig,LEDF);
 3015              		.loc 5 113 0 discriminator 1
 3016 00a8 0020     		mov	r0, #0
 3017 00aa 0E22     		mov	r2, #14
 3018 00ac FFF7FEFF 		bl	ledoff
 3019              	.LVL469:
 114:./inicio.h    ****             ant=dirasig; ///valor real de numero de modulos
 3020              		.loc 5 114 0 discriminator 1
 3021 00b0 2378     		ldrb	r3, [r4]
 3022 00b2 204C     		ldr	r4, .L128+32
 115:./inicio.h    ****             
 116:./inicio.h    ****             ant=dirasig-1;
 3023              		.loc 5 116 0 discriminator 1
 3024 00b4 013B     		sub	r3, r3, #1
 3025 00b6 2360     		str	r3, [r4]
 117:./inicio.h    ****             CyDelay(5);
 3026              		.loc 5 117 0 discriminator 1
 3027 00b8 0520     		mov	r0, #5
 3028 00ba FFF7FEFF 		bl	CyDelay
 3029              	.LVL470:
 118:./inicio.h    ****              ledoff(0,ant,LEDF);
 3030              		.loc 5 118 0 discriminator 1
 3031 00be 2168     		ldr	r1, [r4]
 3032 00c0 0020     		mov	r0, #0
 3033 00c2 0E22     		mov	r2, #14
 3034 00c4 FFF7FEFF 		bl	ledoff
 3035              	.LVL471:
 119:./inicio.h    ****             
 120:./inicio.h    ****             goto end;
 3036              		.loc 5 120 0 discriminator 1
 3037 00c8 21E0     		b	.L119
 3038              	.L125:
 121:./inicio.h    ****                 
 122:./inicio.h    ****             }else t++;
 3039              		.loc 5 122 0
 3040 00ca 0133     		add	r3, r3, #1
 3041 00cc 184A     		ldr	r2, .L128+28
 3042 00ce 1360     		str	r3, [r2]
 3043              	.L124:
 105:./inicio.h    ****                 
 3044              		.loc 5 105 0
ARM GAS  C:\Users\Andres\AppData\Local\Temp\ccSsqcxd.s 			page 68


 3045 00d0 154B     		ldr	r3, .L128+20
 3046 00d2 1978     		ldrb	r1, [r3]
 3047 00d4 154B     		ldr	r3, .L128+24
 3048 00d6 1B78     		ldrb	r3, [r3]
 3049 00d8 9942     		cmp	r1, r3
 3050 00da D6D1     		bne	.L126
 123:./inicio.h    ****             
 124:./inicio.h    ****             
 125:./inicio.h    ****             
 126:./inicio.h    ****             }t=0;  
 3051              		.loc 5 126 0
 3052 00dc 0022     		mov	r2, #0
 3053 00de 144B     		ldr	r3, .L128+28
 3054 00e0 1A60     		str	r2, [r3]
 127:./inicio.h    ****             ledoff(1,sumadir,LEDF);
 3055              		.loc 5 127 0
 3056 00e2 0120     		mov	r0, #1
 3057 00e4 0E32     		add	r2, r2, #14
 3058 00e6 FFF7FEFF 		bl	ledoff
 3059              	.LVL472:
 128:./inicio.h    ****             if(sumadir>1){
 3060              		.loc 5 128 0
 3061 00ea 0F4B     		ldr	r3, .L128+20
 3062 00ec 1B78     		ldrb	r3, [r3]
 3063 00ee 012B     		cmp	r3, #1
 3064 00f0 09D9     		bls	.L127
 129:./inicio.h    ****                 ant=dirasig-1;
 3065              		.loc 5 129 0
 3066 00f2 0E4B     		ldr	r3, .L128+24
 3067 00f4 1978     		ldrb	r1, [r3]
 3068 00f6 0139     		sub	r1, r1, #1
 3069 00f8 0E4B     		ldr	r3, .L128+32
 3070 00fa 1960     		str	r1, [r3]
 130:./inicio.h    ****              ledoff(0,ant,LEDF);
 3071              		.loc 5 130 0
 3072 00fc 0020     		mov	r0, #0
 3073 00fe 0E22     		mov	r2, #14
 3074 0100 FFF7FEFF 		bl	ledoff
 3075              	.LVL473:
 3076 0104 B3E7     		b	.L122
 3077              	.L127:
 131:./inicio.h    ****             }else LED_4_Write(0);
 3078              		.loc 5 131 0
 3079 0106 0020     		mov	r0, #0
 3080 0108 FFF7FEFF 		bl	LED_4_Write
 3081              	.LVL474:
 3082              	.L123:
 3083 010c AFE7     		b	.L122
 3084              	.L119:
 132:./inicio.h    ****           
 133:./inicio.h    ****            
 134:./inicio.h    ****             goto asig;
 135:./inicio.h    ****             
 136:./inicio.h    ****             
 137:./inicio.h    ****             
 138:./inicio.h    ****             
 139:./inicio.h    ****             
ARM GAS  C:\Users\Andres\AppData\Local\Temp\ccSsqcxd.s 			page 69


 140:./inicio.h    ****         
 141:./inicio.h    ****         
 142:./inicio.h    ****         
 143:./inicio.h    ****         
 144:./inicio.h    ****        
 145:./inicio.h    ****       
 146:./inicio.h    ****         
 147:./inicio.h    ****         
 148:./inicio.h    ****        
 149:./inicio.h    ****        
 150:./inicio.h    ****             
 151:./inicio.h    **** 
 152:./inicio.h    ****         }
 153:./inicio.h    ****             
 154:./inicio.h    ****             
 155:./inicio.h    ****         } else goto ini;
 156:./inicio.h    ****        
 157:./inicio.h    ****     }
 158:./inicio.h    ****        
 159:./inicio.h    ****        
 160:./inicio.h    ****      end:   
 161:./inicio.h    ****      return (0);
 162:./inicio.h    ****               
 163:./inicio.h    **** }
 3085              		.loc 5 163 0
 3086 010e 0020     		mov	r0, #0
 3087              		@ sp needed
 3088 0110 10BD     		pop	{r4, pc}
 3089              	.L129:
 3090 0112 C046     		.align	2
 3091              	.L128:
 3092 0114 00000000 		.word	Pd
 3093 0118 00000000 		.word	.LANCHOR1
 3094 011c 00000000 		.word	errc
 3095 0120 B70B0000 		.word	2999
 3096 0124 00000000 		.word	Pda
 3097 0128 00000000 		.word	sumadir
 3098 012c 00000000 		.word	dirasig
 3099 0130 00000000 		.word	t
 3100 0134 00000000 		.word	ant
 3101              		.cfi_endproc
 3102              	.LFE68:
 3103              		.size	inicio, .-inicio
 3104              		.section	.text.recibmail,"ax",%progbits
 3105              		.align	2
 3106              		.global	recibmail
 3107              		.code	16
 3108              		.thumb_func
 3109              		.type	recibmail, %function
 3110              	recibmail:
 3111              	.LFB69:
 164:./inicio.h    **** 
 165:./inicio.h    **** int recibmail(){
 3112              		.loc 5 165 0
 3113              		.cfi_startproc
 3114 0000 08B5     		push	{r3, lr}
 3115              		.cfi_def_cfa_offset 8
ARM GAS  C:\Users\Andres\AppData\Local\Temp\ccSsqcxd.s 			page 70


 3116              		.cfi_offset 3, -8
 3117              		.cfi_offset 14, -4
 166:./inicio.h    **** 
 167:./inicio.h    ****  
 168:./inicio.h    ****    if( (mailbox0[0]==VER)&(mailbox0[1]==Mydir)){
 3118              		.loc 5 168 0
 3119 0002 554A     		ldr	r2, .L151
 3120 0004 1378     		ldrb	r3, [r2]
 3121 0006 5178     		ldrb	r1, [r2, #1]
 3122 0008 7F3B     		sub	r3, r3, #127
 3123 000a 5A42     		neg	r2, r3
 3124 000c 5341     		adc	r3, r3, r2
 3125 000e 534A     		ldr	r2, .L151+4
 3126 0010 1278     		ldrb	r2, [r2]
 3127 0012 521A     		sub	r2, r2, r1
 3128 0014 5142     		neg	r1, r2
 3129 0016 4A41     		adc	r2, r2, r1
 3130 0018 1A42     		tst	r2, r3
 3131 001a 00D1     		bne	.LCB2685
 3132 001c 99E0     		b	.L131	@long jump
 3133              	.LCB2685:
 169:./inicio.h    ****     
 170:./inicio.h    ****     switch(mailbox0[2]){
 3134              		.loc 5 170 0
 3135 001e 4E4B     		ldr	r3, .L151
 3136 0020 9B78     		ldrb	r3, [r3, #2]
 3137 0022 022B     		cmp	r3, #2
 3138 0024 1CD0     		beq	.L132
 3139 0026 282B     		cmp	r3, #40
 3140 0028 00D1     		bne	.LCB2691
 3141 002a 8EE0     		b	.L133	@long jump
 3142              	.LCB2691:
 3143 002c 012B     		cmp	r3, #1
 3144 002e 00D0     		beq	.LCB2693
 3145 0030 8FE0     		b	.L131	@long jump
 3146              	.LCB2693:
 171:./inicio.h    ****         ///////////////////////////////////////////////////////
 172:./inicio.h    ****          case LECM:{ 
 173:./inicio.h    ****         switch(mailbox0[3]){//////////+6+++++++++++++
 3147              		.loc 5 173 0
 3148 0032 494B     		ldr	r3, .L151
 3149 0034 DB78     		ldrb	r3, [r3, #3]
 3150 0036 032B     		cmp	r3, #3
 3151 0038 00D0     		beq	.LCB2697
 3152 003a 8AE0     		b	.L131	@long jump
 3153              	.LCB2697:
 3154              	.LBB4:
 174:./inicio.h    ****         case MOTOR:{
 175:./inicio.h    ****         char mh,ml;
 176:./inicio.h    ****              pos = readPosition(1);
 3155              		.loc 5 176 0
 3156 003c 0120     		mov	r0, #1
 3157 003e FFF7FEFF 		bl	readPosition
 3158              	.LVL475:
 3159 0042 474B     		ldr	r3, .L151+8
 3160 0044 1860     		str	r0, [r3]
 177:./inicio.h    ****             mh=pos>>8;
ARM GAS  C:\Users\Andres\AppData\Local\Temp\ccSsqcxd.s 			page 71


 3161              		.loc 5 177 0
 3162 0046 0212     		asr	r2, r0, #8
 3163              	.LVL476:
 178:./inicio.h    ****             ml=pos;
 179:./inicio.h    ****                 dato_enviado[0]=VER;
 3164              		.loc 5 179 0
 3165 0048 464B     		ldr	r3, .L151+12
 3166 004a 7F21     		mov	r1, #127
 3167 004c 1970     		strb	r1, [r3]
 180:./inicio.h    ****                 dato_enviado[1]=DIRM;
 3168              		.loc 5 180 0
 3169 004e 4931     		add	r1, r1, #73
 3170 0050 5970     		strb	r1, [r3, #1]
 181:./inicio.h    ****                 dato_enviado[2]=MOTOR;
 3171              		.loc 5 181 0
 3172 0052 C539     		sub	r1, r1, #197
 3173 0054 9970     		strb	r1, [r3, #2]
 182:./inicio.h    ****                 dato_enviado[3]=mh;
 3174              		.loc 5 182 0
 3175 0056 DA70     		strb	r2, [r3, #3]
 183:./inicio.h    ****                 dato_enviado[4]=ml;
 3176              		.loc 5 183 0
 3177 0058 1871     		strb	r0, [r3, #4]
 184:./inicio.h    ****                
 185:./inicio.h    ****                 CAN_SendMsg0();
 3178              		.loc 5 185 0
 3179 005a FFF7FEFF 		bl	CAN_SendMsg0
 3180              	.LVL477:
 3181              	.LBE4:
 186:./inicio.h    ****         
 187:./inicio.h    ****         }
 188:./inicio.h    ****             
 189:./inicio.h    ****             
 190:./inicio.h    ****             
 191:./inicio.h    ****             break;
 3182              		.loc 5 191 0
 3183 005e 78E0     		b	.L131
 3184              	.L132:
 192:./inicio.h    ****         case SENSOR1:
 193:./inicio.h    ****             switch(mailbox0[4]){
 194:./inicio.h    ****             case SAMB:///code
 195:./inicio.h    ****                 
 196:./inicio.h    ****                 break;
 197:./inicio.h    ****                 case SPROX: ///code
 198:./inicio.h    ****                 
 199:./inicio.h    ****                 break;
 200:./inicio.h    ****             
 201:./inicio.h    ****             }
 202:./inicio.h    ****             
 203:./inicio.h    ****             break;
 204:./inicio.h    ****         case SENSOR2:  
 205:./inicio.h    ****             break;
 206:./inicio.h    ****         case SENSOR3:  
 207:./inicio.h    ****             break;
 208:./inicio.h    ****         case SENSOR4: 
 209:./inicio.h    ****             break;
 210:./inicio.h    ****   
ARM GAS  C:\Users\Andres\AppData\Local\Temp\ccSsqcxd.s 			page 72


 211:./inicio.h    **** 
 212:./inicio.h    ****         }break;///////+++++++++++++++++
 213:./inicio.h    ****         
 214:./inicio.h    ****         }break;
 215:./inicio.h    ****         
 216:./inicio.h    ****         
 217:./inicio.h    ****         /////////////////////////////////////////////////////
 218:./inicio.h    ****         
 219:./inicio.h    ****         case ESCRITURA:{
 220:./inicio.h    ****         switch(mailbox0[3]){////+++++++++++++++++++++++++++++++++++
 3185              		.loc 5 220 0
 3186 0060 3D4B     		ldr	r3, .L151
 3187 0062 DB78     		ldrb	r3, [r3, #3]
 3188 0064 033B     		sub	r3, r3, #3
 3189 0066 DAB2     		uxtb	r2, r3
 3190 0068 0B2A     		cmp	r2, #11
 3191 006a 72D8     		bhi	.L131
 3192 006c 9300     		lsl	r3, r2, #2
 3193 006e 3E4A     		ldr	r2, .L151+16
 3194 0070 D358     		ldr	r3, [r2, r3]
 3195 0072 9F46     		mov	pc, r3
 3196              		.section	.rodata
 3197              		.align	2
 3198              	.L137:
 3199 0000 C0000000 		.word	.L136
 3200 0004 52010000 		.word	.L131
 3201 0008 52010000 		.word	.L131
 3202 000c 52010000 		.word	.L131
 3203 0010 52010000 		.word	.L131
 3204 0014 52010000 		.word	.L131
 3205 0018 52010000 		.word	.L131
 3206 001c 74000000 		.word	.L138
 3207 0020 DA000000 		.word	.L139
 3208 0024 F6000000 		.word	.L140
 3209 0028 12010000 		.word	.L141
 3210 002c 2E010000 		.word	.L142
 3211              		.section	.text.recibmail
 3212              	.L138:
 221:./inicio.h    ****         case MEC:{
 222:./inicio.h    **** 
 223:./inicio.h    ****            
 224:./inicio.h    ****          
 225:./inicio.h    ****               CyDelay(100);
 3213              		.loc 5 225 0
 3214 0074 6420     		mov	r0, #100
 3215 0076 FFF7FEFF 		bl	CyDelay
 3216              	.LVL478:
 226:./inicio.h    ****            LED_1_Write(1);
 3217              		.loc 5 226 0
 3218 007a 0120     		mov	r0, #1
 3219 007c FFF7FEFF 		bl	LED_1_Write
 3220              	.LVL479:
 227:./inicio.h    ****            CyDelay(100);
 3221              		.loc 5 227 0
 3222 0080 6420     		mov	r0, #100
 3223 0082 FFF7FEFF 		bl	CyDelay
 3224              	.LVL480:
ARM GAS  C:\Users\Andres\AppData\Local\Temp\ccSsqcxd.s 			page 73


 228:./inicio.h    ****            LED_1_Write(0);
 3225              		.loc 5 228 0
 3226 0086 0020     		mov	r0, #0
 3227 0088 FFF7FEFF 		bl	LED_1_Write
 3228              	.LVL481:
 229:./inicio.h    ****             if(Pda>=5000){
 3229              		.loc 5 229 0
 3230 008c 374B     		ldr	r3, .L151+20
 3231 008e 1A68     		ldr	r2, [r3]
 3232 0090 374B     		ldr	r3, .L151+24
 3233 0092 9A42     		cmp	r2, r3
 3234 0094 5DD9     		bls	.L131
 230:./inicio.h    ****                 Mydir=mailbox0[4];
 3235              		.loc 5 230 0
 3236 0096 304B     		ldr	r3, .L151
 3237 0098 1A79     		ldrb	r2, [r3, #4]
 3238 009a 304B     		ldr	r3, .L151+4
 3239 009c 1A70     		strb	r2, [r3]
 231:./inicio.h    ****                 dato_enviado[0]=VER;
 3240              		.loc 5 231 0
 3241 009e 314B     		ldr	r3, .L151+12
 3242 00a0 7F21     		mov	r1, #127
 3243 00a2 1970     		strb	r1, [r3]
 232:./inicio.h    ****                 dato_enviado[1]=DIRM;
 3244              		.loc 5 232 0
 3245 00a4 4931     		add	r1, r1, #73
 3246 00a6 5970     		strb	r1, [r3, #1]
 233:./inicio.h    ****                 dato_enviado[2]=OK;
 3247              		.loc 5 233 0
 3248 00a8 A039     		sub	r1, r1, #160
 3249 00aa 9970     		strb	r1, [r3, #2]
 234:./inicio.h    ****                 dato_enviado[3]=Mydir;
 3250              		.loc 5 234 0
 3251 00ac DA70     		strb	r2, [r3, #3]
 235:./inicio.h    ****                 dato_enviado[4]=0;
 3252              		.loc 5 235 0
 3253 00ae 0022     		mov	r2, #0
 3254 00b0 1A71     		strb	r2, [r3, #4]
 236:./inicio.h    ****                 dato_enviado[5]=0;
 3255              		.loc 5 236 0
 3256 00b2 5A71     		strb	r2, [r3, #5]
 237:./inicio.h    ****                 CAN_SendMsg0();
 3257              		.loc 5 237 0
 3258 00b4 FFF7FEFF 		bl	CAN_SendMsg0
 3259              	.LVL482:
 238:./inicio.h    ****                LED_1_Write(1); 
 3260              		.loc 5 238 0
 3261 00b8 0120     		mov	r0, #1
 3262 00ba FFF7FEFF 		bl	LED_1_Write
 3263              	.LVL483:
 3264 00be 48E0     		b	.L131
 3265              	.L136:
 239:./inicio.h    ****             }
 240:./inicio.h    ****             else;}
 241:./inicio.h    ****         break;
 242:./inicio.h    ****          case MOTOR:
 243:./inicio.h    ****             
ARM GAS  C:\Users\Andres\AppData\Local\Temp\ccSsqcxd.s 			page 74


 244:./inicio.h    ****                 PositionM = mailbox0[4] << 8;           
 3266              		.loc 5 244 0
 3267 00c0 254B     		ldr	r3, .L151
 3268 00c2 1979     		ldrb	r1, [r3, #4]
 3269 00c4 0902     		lsl	r1, r1, #8
 245:./inicio.h    ****                 PositionM = PositionM+mailbox0[5];
 3270              		.loc 5 245 0
 3271 00c6 5B79     		ldrb	r3, [r3, #5]
 3272 00c8 C918     		add	r1, r1, r3
 3273 00ca 2A4B     		ldr	r3, .L151+28
 3274 00cc 1960     		str	r1, [r3]
 246:./inicio.h    ****                 MoveSpeed(dir,PositionM,100);
 3275              		.loc 5 246 0
 3276 00ce 234B     		ldr	r3, .L151+4
 3277 00d0 5878     		ldrb	r0, [r3, #1]
 3278 00d2 6422     		mov	r2, #100
 3279 00d4 FFF7FEFF 		bl	MoveSpeed
 3280              	.LVL484:
 247:./inicio.h    ****         break;
 3281              		.loc 5 247 0
 3282 00d8 3BE0     		b	.L131
 3283              	.L139:
 248:./inicio.h    ****              case LED1:
 249:./inicio.h    ****             switch(mailbox0[4]){
 3284              		.loc 5 249 0
 3285 00da 1F4B     		ldr	r3, .L151
 3286 00dc 1B79     		ldrb	r3, [r3, #4]
 3287 00de 002B     		cmp	r3, #0
 3288 00e0 05D0     		beq	.L143
 3289 00e2 012B     		cmp	r3, #1
 3290 00e4 35D1     		bne	.L131
 250:./inicio.h    ****                 case ONM:  LED_1_Write(1);  break;
 3291              		.loc 5 250 0
 3292 00e6 0120     		mov	r0, #1
 3293 00e8 FFF7FEFF 		bl	LED_1_Write
 3294              	.LVL485:
 3295 00ec 31E0     		b	.L131
 3296              	.L143:
 251:./inicio.h    ****                 case OFFM: LED_1_Write(0);  break;
 3297              		.loc 5 251 0
 3298 00ee 0020     		mov	r0, #0
 3299 00f0 FFF7FEFF 		bl	LED_1_Write
 3300              	.LVL486:
 3301 00f4 2DE0     		b	.L131
 3302              	.L140:
 252:./inicio.h    ****                  }
 253:./inicio.h    ****         break;
 254:./inicio.h    ****              case LED2:
 255:./inicio.h    ****              switch(mailbox0[4]){
 3303              		.loc 5 255 0
 3304 00f6 184B     		ldr	r3, .L151
 3305 00f8 1B79     		ldrb	r3, [r3, #4]
 3306 00fa 002B     		cmp	r3, #0
 3307 00fc 05D0     		beq	.L145
 3308 00fe 012B     		cmp	r3, #1
 3309 0100 27D1     		bne	.L131
 256:./inicio.h    ****                 case ONM:  LED_2_Write(1);  break;
ARM GAS  C:\Users\Andres\AppData\Local\Temp\ccSsqcxd.s 			page 75


 3310              		.loc 5 256 0
 3311 0102 0120     		mov	r0, #1
 3312 0104 FFF7FEFF 		bl	LED_2_Write
 3313              	.LVL487:
 3314 0108 23E0     		b	.L131
 3315              	.L145:
 257:./inicio.h    ****                 case OFFM: LED_2_Write(0);  break;
 3316              		.loc 5 257 0
 3317 010a 0020     		mov	r0, #0
 3318 010c FFF7FEFF 		bl	LED_2_Write
 3319              	.LVL488:
 3320 0110 1FE0     		b	.L131
 3321              	.L141:
 258:./inicio.h    ****                  }
 259:./inicio.h    ****         break;
 260:./inicio.h    ****                     case LED3:
 261:./inicio.h    ****              switch(mailbox0[4]){
 3322              		.loc 5 261 0
 3323 0112 114B     		ldr	r3, .L151
 3324 0114 1B79     		ldrb	r3, [r3, #4]
 3325 0116 002B     		cmp	r3, #0
 3326 0118 05D0     		beq	.L147
 3327 011a 012B     		cmp	r3, #1
 3328 011c 19D1     		bne	.L131
 262:./inicio.h    ****                 case ONM:  LED_3_Write(1);  break;
 3329              		.loc 5 262 0
 3330 011e 0120     		mov	r0, #1
 3331 0120 FFF7FEFF 		bl	LED_3_Write
 3332              	.LVL489:
 3333 0124 15E0     		b	.L131
 3334              	.L147:
 263:./inicio.h    ****                 case OFFM: LED_3_Write(0);  break;
 3335              		.loc 5 263 0
 3336 0126 0020     		mov	r0, #0
 3337 0128 FFF7FEFF 		bl	LED_3_Write
 3338              	.LVL490:
 3339 012c 11E0     		b	.L131
 3340              	.L142:
 264:./inicio.h    ****                  }
 265:./inicio.h    ****         break;
 266:./inicio.h    ****              case LED4:
 267:./inicio.h    ****              switch(mailbox0[4]){
 3341              		.loc 5 267 0
 3342 012e 0A4B     		ldr	r3, .L151
 3343 0130 1B79     		ldrb	r3, [r3, #4]
 3344 0132 002B     		cmp	r3, #0
 3345 0134 05D0     		beq	.L149
 3346 0136 012B     		cmp	r3, #1
 3347 0138 0BD1     		bne	.L131
 268:./inicio.h    ****                 case ONM:  LED_4_Write(1);  break;
 3348              		.loc 5 268 0
 3349 013a 0120     		mov	r0, #1
 3350 013c FFF7FEFF 		bl	LED_4_Write
 3351              	.LVL491:
 3352 0140 07E0     		b	.L131
 3353              	.L149:
 269:./inicio.h    ****                 case OFFM: LED_4_Write(0);  break;
ARM GAS  C:\Users\Andres\AppData\Local\Temp\ccSsqcxd.s 			page 76


 3354              		.loc 5 269 0
 3355 0142 0020     		mov	r0, #0
 3356 0144 FFF7FEFF 		bl	LED_4_Write
 3357              	.LVL492:
 3358 0148 03E0     		b	.L131
 3359              	.L133:
 270:./inicio.h    ****                  }
 271:./inicio.h    ****         break;
 272:./inicio.h    ****         
 273:./inicio.h    ****         }//////++++++++++++++++++++++++++++++++
 274:./inicio.h    ****         }break;
 275:./inicio.h    ****         case OK:{sumadir=mailbox0[3]; }break;
 3360              		.loc 5 275 0
 3361 014a 034B     		ldr	r3, .L151
 3362 014c DA78     		ldrb	r2, [r3, #3]
 3363 014e 0A4B     		ldr	r3, .L151+32
 3364 0150 1A70     		strb	r2, [r3]
 3365              	.L131:
 276:./inicio.h    ****         /////////////////////////////////////////////////////
 277:./inicio.h    ****         }
 278:./inicio.h    ****         //////
 279:./inicio.h    ****         
 280:./inicio.h    ****         
 281:./inicio.h    ****             
 282:./inicio.h    ****             
 283:./inicio.h    ****         
 284:./inicio.h    ****    
 285:./inicio.h    ****         
 286:./inicio.h    ****     }else;
 287:./inicio.h    ****     
 288:./inicio.h    ****     
 289:./inicio.h    ****     
 290:./inicio.h    ****     
 291:./inicio.h    ****     
 292:./inicio.h    **** 
 293:./inicio.h    ****     
 294:./inicio.h    ****     
 295:./inicio.h    ****     
 296:./inicio.h    **** 
 297:./inicio.h    ****    return 0;
 298:./inicio.h    **** }
 3366              		.loc 5 298 0
 3367 0152 0020     		mov	r0, #0
 3368              		@ sp needed
 3369 0154 08BD     		pop	{r3, pc}
 3370              	.L152:
 3371 0156 C046     		.align	2
 3372              	.L151:
 3373 0158 00000000 		.word	mailbox0
 3374 015c 00000000 		.word	.LANCHOR1
 3375 0160 00000000 		.word	pos
 3376 0164 00000000 		.word	dato_enviado
 3377 0168 00000000 		.word	.L137
 3378 016c 00000000 		.word	Pda
 3379 0170 87130000 		.word	4999
 3380 0174 00000000 		.word	PositionM
 3381 0178 00000000 		.word	sumadir
ARM GAS  C:\Users\Andres\AppData\Local\Temp\ccSsqcxd.s 			page 77


 3382              		.cfi_endproc
 3383              	.LFE69:
 3384              		.size	recibmail, .-recibmail
 3385              		.section	.text.interrutcan,"ax",%progbits
 3386              		.align	2
 3387              		.global	interrutcan
 3388              		.code	16
 3389              		.thumb_func
 3390              		.type	interrutcan, %function
 3391              	interrutcan:
 3392              	.LFB72:
 3393              		.file 6 "main.c"
   1:main.c        **** #include <project.h>
   2:main.c        **** #include <inicio.h>
   3:main.c        **** 
   4:main.c        **** 
   5:main.c        **** 
   6:main.c        **** 
   7:main.c        **** CY_ISR(interrutcan){
 3394              		.loc 6 7 0
 3395              		.cfi_startproc
 3396 0000 08B5     		push	{r3, lr}
 3397              		.cfi_def_cfa_offset 8
 3398              		.cfi_offset 3, -8
 3399              		.cfi_offset 14, -4
   8:main.c        **** 
   9:main.c        **** CAN_MsgRXIsr();///para marcar la interrucion como leida y resive msm
 3400              		.loc 6 9 0
 3401 0002 FFF7FEFF 		bl	CAN_MsgRXIsr
 3402              	.LVL493:
  10:main.c        **** //CAN_INT_SR_REG = CAN_RX_MESSAGE_MASK;
  11:main.c        **** //CAN_ReceiveMsg0();
  12:main.c        **** //Pda=readAmbient_2(); 
  13:main.c        ****  recibmail();
 3403              		.loc 6 13 0
 3404 0006 FFF7FEFF 		bl	recibmail
 3405              	.LVL494:
  14:main.c        **** //  LED_3_Write(1); 
  15:main.c        **** //            CyDelay(20);
  16:main.c        **** //               LED_3_Write(0); 
  17:main.c        **** //             CyDelay(20);
  18:main.c        **** }
 3406              		.loc 6 18 0
 3407              		@ sp needed
 3408 000a 08BD     		pop	{r3, pc}
 3409              		.cfi_endproc
 3410              	.LFE72:
 3411              		.size	interrutcan, .-interrutcan
 3412              		.section	.text.movimiento,"ax",%progbits
 3413              		.align	2
 3414              		.global	movimiento
 3415              		.code	16
 3416              		.thumb_func
 3417              		.type	movimiento, %function
 3418              	movimiento:
 3419              	.LFB70:
 299:./inicio.h    **** int movimiento(unsigned int dirr,int mov){
ARM GAS  C:\Users\Andres\AppData\Local\Temp\ccSsqcxd.s 			page 78


 3420              		.loc 5 299 0
 3421              		.cfi_startproc
 3422              	.LVL495:
 3423 0000 10B5     		push	{r4, lr}
 3424              		.cfi_def_cfa_offset 8
 3425              		.cfi_offset 4, -8
 3426              		.cfi_offset 14, -4
 300:./inicio.h    **** char byteh,bytel;
 301:./inicio.h    ****    byteh= mov >> 8;
 3427              		.loc 5 301 0
 3428 0002 0B12     		asr	r3, r1, #8
 3429 0004 DAB2     		uxtb	r2, r3
 3430              	.LVL496:
 302:./inicio.h    ****    bytel=mov;
 3431              		.loc 5 302 0
 3432 0006 CCB2     		uxtb	r4, r1
 3433              	.LVL497:
 303:./inicio.h    ****     
 304:./inicio.h    ****     
 305:./inicio.h    **** //    if(dirr!=2 && dirr!=3){
 306:./inicio.h    ****     
 307:./inicio.h    ****     
 308:./inicio.h    ****     if(dirr==0){
 3434              		.loc 5 308 0
 3435 0008 0028     		cmp	r0, #0
 3436 000a 04D1     		bne	.L155
 309:./inicio.h    ****         MoveSpeed(1,mov,100);
 3437              		.loc 5 309 0
 3438 000c 0130     		add	r0, r0, #1
 3439              	.LVL498:
 3440 000e 6422     		mov	r2, #100
 3441              	.LVL499:
 3442 0010 FFF7FEFF 		bl	MoveSpeed
 3443              	.LVL500:
 3444 0014 0EE0     		b	.L156
 3445              	.LVL501:
 3446              	.L155:
 310:./inicio.h    ****     }else{
 311:./inicio.h    ****     
 312:./inicio.h    ****   dato_enviado[0]=VER ;//verificacion
 3447              		.loc 5 312 0
 3448 0016 084B     		ldr	r3, .L157
 3449 0018 7F21     		mov	r1, #127
 3450              	.LVL502:
 3451 001a 1970     		strb	r1, [r3]
 313:./inicio.h    ****   dato_enviado[1]=dirr ;//dir
 3452              		.loc 5 313 0
 3453 001c 5870     		strb	r0, [r3, #1]
 314:./inicio.h    ****   dato_enviado[2]=ESCRITURA ;//operacion
 3454              		.loc 5 314 0
 3455 001e 7D39     		sub	r1, r1, #125
 3456 0020 9970     		strb	r1, [r3, #2]
 315:./inicio.h    ****   dato_enviado[3]=MOTOR;//lugar
 3457              		.loc 5 315 0
 3458 0022 0131     		add	r1, r1, #1
 3459 0024 D970     		strb	r1, [r3, #3]
 316:./inicio.h    ****   dato_enviado[4]= byteh ;  //dato
ARM GAS  C:\Users\Andres\AppData\Local\Temp\ccSsqcxd.s 			page 79


 3460              		.loc 5 316 0
 3461 0026 1A71     		strb	r2, [r3, #4]
 317:./inicio.h    ****   dato_enviado[5]= bytel ;  //dato
 3462              		.loc 5 317 0
 3463 0028 5C71     		strb	r4, [r3, #5]
 318:./inicio.h    ****       CAN_SendMsg0(); 
 3464              		.loc 5 318 0
 3465 002a FFF7FEFF 		bl	CAN_SendMsg0
 3466              	.LVL503:
 319:./inicio.h    ****     CyDelay(25);
 3467              		.loc 5 319 0
 3468 002e 1920     		mov	r0, #25
 3469 0030 FFF7FEFF 		bl	CyDelay
 3470              	.LVL504:
 3471              	.L156:
 320:./inicio.h    ****     }
 321:./inicio.h    ****     
 322:./inicio.h    **** //    }else;
 323:./inicio.h    ****     
 324:./inicio.h    **** return 0;
 325:./inicio.h    **** }
 3472              		.loc 5 325 0
 3473 0034 0020     		mov	r0, #0
 3474              		@ sp needed
 3475              	.LVL505:
 3476 0036 10BD     		pop	{r4, pc}
 3477              	.L158:
 3478              		.align	2
 3479              	.L157:
 3480 0038 00000000 		.word	dato_enviado
 3481              		.cfi_endproc
 3482              	.LFE70:
 3483              		.size	movimiento, .-movimiento
 3484              		.global	__aeabi_i2d
 3485              		.global	__aeabi_dmul
 3486              		.global	__aeabi_ddiv
 3487              		.global	__aeabi_d2f
 3488              		.global	__aeabi_i2f
 3489              		.global	__aeabi_fmul
 3490              		.global	__aeabi_fadd
 3491              		.global	__aeabi_f2d
 3492              		.global	__aeabi_dadd
 3493              		.global	__aeabi_f2iz
 3494              		.section	.text.cal,"ax",%progbits
 3495              		.align	2
 3496              		.global	cal
 3497              		.code	16
 3498              		.thumb_func
 3499              		.type	cal, %function
 3500              	cal:
 3501              	.LFB71:
 326:./inicio.h    **** 
 327:./inicio.h    **** 
 328:./inicio.h    **** 
 329:./inicio.h    **** 
 330:./inicio.h    **** 
 331:./inicio.h    **** int cal(int df){
ARM GAS  C:\Users\Andres\AppData\Local\Temp\ccSsqcxd.s 			page 80


 3502              		.loc 5 331 0
 3503              		.cfi_startproc
 3504              	.LVL506:
 3505 0000 F0B5     		push	{r4, r5, r6, r7, lr}
 3506              		.cfi_def_cfa_offset 20
 3507              		.cfi_offset 4, -20
 3508              		.cfi_offset 5, -16
 3509              		.cfi_offset 6, -12
 3510              		.cfi_offset 7, -8
 3511              		.cfi_offset 14, -4
 3512 0002 5F46     		mov	r7, fp
 3513 0004 5646     		mov	r6, r10
 3514 0006 4D46     		mov	r5, r9
 3515 0008 4446     		mov	r4, r8
 3516 000a F0B4     		push	{r4, r5, r6, r7}
 3517              		.cfi_def_cfa_offset 36
 3518              		.cfi_offset 8, -36
 3519              		.cfi_offset 9, -32
 3520              		.cfi_offset 10, -28
 3521              		.cfi_offset 11, -24
 3522 000c 83B0     		sub	sp, sp, #12
 3523              		.cfi_def_cfa_offset 48
 3524 000e 00AF     		add	r7, sp, #0
 3525              		.cfi_def_cfa_register 7
 332:./inicio.h    **** 
 333:./inicio.h    ****     
 334:./inicio.h    ****     
 335:./inicio.h    **** if(Mydir==DIRM){  
 3526              		.loc 5 335 0
 3527 0010 3A4B     		ldr	r3, .L166
 3528 0012 1B78     		ldrb	r3, [r3]
 3529 0014 C82B     		cmp	r3, #200
 3530 0016 68D1     		bne	.L160
 3531              	.LBB5:
 3532 0018 EB46     		mov	fp, sp
 336:./inicio.h    **** int n,m,r,v;// n num de modulos, f fase ,df desfase
 337:./inicio.h    **** unsigned int f;    
 338:./inicio.h    **** m=dirasig;  
 3533              		.loc 5 338 0
 3534 001a 394B     		ldr	r3, .L166+4
 3535 001c 1C78     		ldrb	r4, [r3]
 3536              	.LVL507:
 339:./inicio.h    ****     m=m-2;//// quitar los que estan torcisdos
 3537              		.loc 5 339 0
 3538 001e A51E     		sub	r5, r4, #2
 3539              	.LVL508:
 340:./inicio.h    **** n=dirasig+1;
 341:./inicio.h    ****     
 342:./inicio.h    ****     n=n-2;/// quitar los que estan torcisdos
 3540              		.loc 5 342 0
 3541 0020 013C     		sub	r4, r4, #1
 3542              	.LVL509:
 343:./inicio.h    ****     
 344:./inicio.h    ****     
 345:./inicio.h    ****     float fx[m],theta[m],fase[m],x,dsf;//
 3543              		.loc 5 345 0
 3544 0022 AB00     		lsl	r3, r5, #2
ARM GAS  C:\Users\Andres\AppData\Local\Temp\ccSsqcxd.s 			page 81


 3545 0024 0A33     		add	r3, r3, #10
 3546 0026 DB08     		lsr	r3, r3, #3
 3547 0028 DB00     		lsl	r3, r3, #3
 3548 002a 6A46     		mov	r2, sp
 3549 002c D21A     		sub	r2, r2, r3
 3550 002e 9546     		mov	sp, r2
 3551 0030 E846     		mov	r8, sp
 3552              	.LVL510:
 3553 0032 D21A     		sub	r2, r2, r3
 3554              	.LVL511:
 3555 0034 9546     		mov	sp, r2
 3556 0036 EA46     		mov	r10, sp
 3557              	.LVL512:
 3558 0038 D31A     		sub	r3, r2, r3
 3559 003a 9D46     		mov	sp, r3
 3560 003c E946     		mov	r9, sp
 3561              	.LVL513:
 346:./inicio.h    ****     dsf=(M_PI*df)/180;
 3562              		.loc 5 346 0
 3563 003e FFF7FEFF 		bl	__aeabi_i2d
 3564              	.LVL514:
 3565 0042 304A     		ldr	r2, .L166+8
 3566 0044 304B     		ldr	r3, .L166+12
 3567 0046 FFF7FEFF 		bl	__aeabi_dmul
 3568              	.LVL515:
 3569 004a 0022     		mov	r2, #0
 3570 004c 2F4B     		ldr	r3, .L166+16
 3571 004e FFF7FEFF 		bl	__aeabi_ddiv
 3572              	.LVL516:
 3573 0052 FFF7FEFF 		bl	__aeabi_d2f
 3574              	.LVL517:
 3575 0056 7860     		str	r0, [r7, #4]
 3576              	.LVL518:
 347:./inicio.h    ****     
 348:./inicio.h    ****   srf=((2*M_PI)/n);//// recorrido de fase separamiento
 3577              		.loc 5 348 0
 3578 0058 201C     		mov	r0, r4
 3579              	.LVL519:
 3580 005a FFF7FEFF 		bl	__aeabi_i2d
 3581              	.LVL520:
 3582 005e 021C     		mov	r2, r0
 3583 0060 0B1C     		mov	r3, r1
 3584 0062 2848     		ldr	r0, .L166+8
 3585 0064 2A49     		ldr	r1, .L166+20
 3586 0066 FFF7FEFF 		bl	__aeabi_ddiv
 3587              	.LVL521:
 3588 006a FFF7FEFF 		bl	__aeabi_d2f
 3589              	.LVL522:
 3590 006e 294B     		ldr	r3, .L166+24
 3591 0070 1860     		str	r0, [r3]
 3592              	.LVL523:
 349:./inicio.h    **** 
 350:./inicio.h    **** for(r=0;r<=m;r++){
 3593              		.loc 5 350 0
 3594 0072 0024     		mov	r4, #0
 3595              	.LVL524:
 3596 0074 36E0     		b	.L161
ARM GAS  C:\Users\Andres\AppData\Local\Temp\ccSsqcxd.s 			page 82


 3597              	.LVL525:
 3598              	.L163:
 351:./inicio.h    ****     fase[r]=r*srf+dsf;
 3599              		.loc 5 351 0
 3600 0076 201C     		mov	r0, r4
 3601 0078 FFF7FEFF 		bl	__aeabi_i2f
 3602              	.LVL526:
 3603 007c 254B     		ldr	r3, .L166+24
 3604 007e 1968     		ldr	r1, [r3]
 3605 0080 FFF7FEFF 		bl	__aeabi_fmul
 3606              	.LVL527:
 3607 0084 7968     		ldr	r1, [r7, #4]
 3608 0086 FFF7FEFF 		bl	__aeabi_fadd
 3609              	.LVL528:
 3610 008a A600     		lsl	r6, r4, #2
 3611 008c 4B46     		mov	r3, r9
 3612 008e F050     		str	r0, [r6, r3]
 352:./inicio.h    ****     fx[r]=cosf(fase[r]); /////fx puntos tangentes al sen(theta)
 3613              		.loc 5 352 0
 3614 0090 FFF7FEFF 		bl	cosf
 3615              	.LVL529:
 3616 0094 4346     		mov	r3, r8
 3617 0096 F050     		str	r0, [r6, r3]
 353:./inicio.h    ****          theta[r]=atanf(fx[r]);///desplasamiento inicial del motor para cada modulo
 3618              		.loc 5 353 0
 3619 0098 FFF7FEFF 		bl	atanf
 3620              	.LVL530:
 3621 009c 5346     		mov	r3, r10
 3622 009e F050     		str	r0, [r6, r3]
 354:./inicio.h    ****                               ////en radianes
 355:./inicio.h    ****       
 356:./inicio.h    ****         
 357:./inicio.h    ****     x=theta[r]+(0.83333*M_PI);///centrando 0 del angulo
 3623              		.loc 5 357 0
 3624 00a0 FFF7FEFF 		bl	__aeabi_f2d
 3625              	.LVL531:
 3626 00a4 1C4A     		ldr	r2, .L166+28
 3627 00a6 1D4B     		ldr	r3, .L166+32
 3628 00a8 FFF7FEFF 		bl	__aeabi_dadd
 3629              	.LVL532:
 3630 00ac FFF7FEFF 		bl	__aeabi_d2f
 3631              	.LVL533:
 358:./inicio.h    ****     x=(x*1023)/(1.66666*M_PI); // covercion a bit
 3632              		.loc 5 358 0
 3633 00b0 1B49     		ldr	r1, .L166+36
 3634 00b2 FFF7FEFF 		bl	__aeabi_fmul
 3635              	.LVL534:
 3636 00b6 FFF7FEFF 		bl	__aeabi_f2d
 3637              	.LVL535:
 3638 00ba 174A     		ldr	r2, .L166+28
 3639 00bc 194B     		ldr	r3, .L166+40
 3640 00be FFF7FEFF 		bl	__aeabi_ddiv
 3641              	.LVL536:
 3642 00c2 FFF7FEFF 		bl	__aeabi_d2f
 3643              	.LVL537:
 359:./inicio.h    ****     
 360:./inicio.h    **** f= (int)x ;     ///funcion pso
ARM GAS  C:\Users\Andres\AppData\Local\Temp\ccSsqcxd.s 			page 83


 3644              		.loc 5 360 0
 3645 00c6 FFF7FEFF 		bl	__aeabi_f2iz
 3646              	.LVL538:
 3647 00ca 011C     		mov	r1, r0
 3648              	.LVL539:
 361:./inicio.h    **** //CyDelay(2000);
 362:./inicio.h    **** 
 363:./inicio.h    **** v=r;//////////asignacion de movimiento para los extremos
 364:./inicio.h    **** 
 365:./inicio.h    **** if(v==2){
 3649              		.loc 5 365 0
 3650 00cc 022C     		cmp	r4, #2
 3651 00ce 03D0     		beq	.L164
 366:./inicio.h    ****   v=4;
 367:./inicio.h    **** }else{
 368:./inicio.h    **** 
 369:./inicio.h    **** if(v==3){
 3652              		.loc 5 369 0
 3653 00d0 032C     		cmp	r4, #3
 3654 00d2 03D0     		beq	.L165
 363:./inicio.h    **** 
 3655              		.loc 5 363 0
 3656 00d4 201C     		mov	r0, r4
 3657              	.LVL540:
 3658 00d6 02E0     		b	.L162
 3659              	.LVL541:
 3660              	.L164:
 366:./inicio.h    ****   v=4;
 3661              		.loc 5 366 0
 3662 00d8 0420     		mov	r0, #4
 3663              	.LVL542:
 3664 00da 00E0     		b	.L162
 3665              	.LVL543:
 3666              	.L165:
 370:./inicio.h    ****   v=5;
 3667              		.loc 5 370 0
 3668 00dc 0520     		mov	r0, #5
 3669              	.LVL544:
 3670              	.L162:
 371:./inicio.h    **** }else;
 372:./inicio.h    **** 
 373:./inicio.h    **** }
 374:./inicio.h    **** 
 375:./inicio.h    **** 
 376:./inicio.h    **** 
 377:./inicio.h    ****     movimiento(v,f);  
 3671              		.loc 5 377 0 discriminator 2
 3672 00de FFF7FEFF 		bl	movimiento
 3673              	.LVL545:
 350:./inicio.h    ****     fase[r]=r*srf+dsf;
 3674              		.loc 5 350 0 discriminator 2
 3675 00e2 0134     		add	r4, r4, #1
 3676              	.LVL546:
 3677              	.L161:
 350:./inicio.h    ****     fase[r]=r*srf+dsf;
 3678              		.loc 5 350 0 is_stmt 0 discriminator 1
 3679 00e4 AC42     		cmp	r4, r5
ARM GAS  C:\Users\Andres\AppData\Local\Temp\ccSsqcxd.s 			page 84


 3680 00e6 C6DD     		ble	.L163
 3681 00e8 DD46     		mov	sp, fp
 3682              	.LVL547:
 3683              	.L160:
 3684              	.LBE5:
 378:./inicio.h    ****         
 379:./inicio.h    **** }   
 380:./inicio.h    **** 
 381:./inicio.h    **** 
 382:./inicio.h    **** 
 383:./inicio.h    **** 
 384:./inicio.h    ****     
 385:./inicio.h    **** 
 386:./inicio.h    ****     
 387:./inicio.h    ****     
 388:./inicio.h    ****     
 389:./inicio.h    **** }else;
 390:./inicio.h    **** 
 391:./inicio.h    **** 
 392:./inicio.h    **** 
 393:./inicio.h    **** return 0;
 394:./inicio.h    **** }
 3685              		.loc 5 394 0 is_stmt 1
 3686 00ea 0020     		mov	r0, #0
 3687 00ec BD46     		mov	sp, r7
 3688 00ee 03B0     		add	sp, sp, #12
 3689              		@ sp needed
 3690 00f0 3CBC     		pop	{r2, r3, r4, r5}
 3691 00f2 9046     		mov	r8, r2
 3692 00f4 9946     		mov	r9, r3
 3693 00f6 A246     		mov	r10, r4
 3694 00f8 AB46     		mov	fp, r5
 3695 00fa F0BD     		pop	{r4, r5, r6, r7, pc}
 3696              	.L167:
 3697              		.align	2
 3698              	.L166:
 3699 00fc 00000000 		.word	.LANCHOR1
 3700 0100 00000000 		.word	dirasig
 3701 0104 182D4454 		.word	1413754136
 3702 0108 FB210940 		.word	1074340347
 3703 010c 00806640 		.word	1080459264
 3704 0110 FB211940 		.word	1075388923
 3705 0114 00000000 		.word	srf
 3706 0118 8479B248 		.word	1219656068
 3707 011c A1F10440 		.word	1074065825
 3708 0120 00C07F44 		.word	1149222912
 3709 0124 A1F11440 		.word	1075114401
 3710              		.cfi_endproc
 3711              	.LFE71:
 3712              		.size	cal, .-cal
 3713              		.section	.text.main,"ax",%progbits
 3714              		.align	2
 3715              		.global	main
 3716              		.code	16
 3717              		.thumb_func
 3718              		.type	main, %function
 3719              	main:
ARM GAS  C:\Users\Andres\AppData\Local\Temp\ccSsqcxd.s 			page 85


 3720              	.LFB73:
  19:main.c        **** 
  20:main.c        **** 
  21:main.c        **** 
  22:main.c        **** int main()
  23:main.c        **** {  
 3721              		.loc 6 23 0
 3722              		.cfi_startproc
 3723 0000 F0B5     		push	{r4, r5, r6, r7, lr}
 3724              		.cfi_def_cfa_offset 20
 3725              		.cfi_offset 4, -20
 3726              		.cfi_offset 5, -16
 3727              		.cfi_offset 6, -12
 3728              		.cfi_offset 7, -8
 3729              		.cfi_offset 14, -4
 3730 0002 4746     		mov	r7, r8
 3731 0004 80B4     		push	{r7}
 3732              		.cfi_def_cfa_offset 24
 3733              		.cfi_offset 8, -24
  24:main.c        ****     CyGlobalIntEnable; /* Enable global interrupts. */
 3734              		.loc 6 24 0
 3735              	@ 24 "main.c" 1
 3736 0006 62B6     		CPSIE   i
 3737              	@ 0 "" 2
  25:main.c        **** 
  26:main.c        ****     //Init LED's
  27:main.c        ****     LED_1_Write(0);
 3738              		.loc 6 27 0
 3739              		.code	16
 3740 0008 0020     		mov	r0, #0
 3741 000a FFF7FEFF 		bl	LED_1_Write
 3742              	.LVL548:
  28:main.c        ****     LED_2_Write(0);
 3743              		.loc 6 28 0
 3744 000e 0020     		mov	r0, #0
 3745 0010 FFF7FEFF 		bl	LED_2_Write
 3746              	.LVL549:
  29:main.c        ****     LED_3_Write(0);
 3747              		.loc 6 29 0
 3748 0014 0020     		mov	r0, #0
 3749 0016 FFF7FEFF 		bl	LED_3_Write
 3750              	.LVL550:
  30:main.c        ****     LED_4_Write(0);
 3751              		.loc 6 30 0
 3752 001a 0020     		mov	r0, #0
 3753 001c FFF7FEFF 		bl	LED_4_Write
 3754              	.LVL551:
  31:main.c        ****     //Init Sensor's
  32:main.c        ****     SENSOR_1_Start();
 3755              		.loc 6 32 0
 3756 0020 FFF7FEFF 		bl	SENSOR_1_Start
 3757              	.LVL552:
  33:main.c        ****     SENSOR_1_Enable();
 3758              		.loc 6 33 0
 3759 0024 FFF7FEFF 		bl	SENSOR_1_Enable
 3760              	.LVL553:
  34:main.c        ****     SENSOR_2_Start();
ARM GAS  C:\Users\Andres\AppData\Local\Temp\ccSsqcxd.s 			page 86


 3761              		.loc 6 34 0
 3762 0028 FFF7FEFF 		bl	SENSOR_2_Start
 3763              	.LVL554:
  35:main.c        ****     SENSOR_2_Enable();
 3764              		.loc 6 35 0
 3765 002c FFF7FEFF 		bl	SENSOR_2_Enable
 3766              	.LVL555:
  36:main.c        ****     SENSOR_3_Start();
 3767              		.loc 6 36 0
 3768 0030 FFF7FEFF 		bl	SENSOR_3_Start
 3769              	.LVL556:
  37:main.c        ****     SENSOR_3_Enable();
 3770              		.loc 6 37 0
 3771 0034 FFF7FEFF 		bl	SENSOR_3_Enable
 3772              	.LVL557:
  38:main.c        ****     SENSOR_4_Start();
 3773              		.loc 6 38 0
 3774 0038 FFF7FEFF 		bl	SENSOR_4_Start
 3775              	.LVL558:
  39:main.c        ****     SENSOR_4_Enable();    
 3776              		.loc 6 39 0
 3777 003c FFF7FEFF 		bl	SENSOR_4_Enable
 3778              	.LVL559:
  40:main.c        ****     CyDelay(100);
 3779              		.loc 6 40 0
 3780 0040 6420     		mov	r0, #100
 3781 0042 FFF7FEFF 		bl	CyDelay
 3782              	.LVL560:
  41:main.c        ****     initVCNL_1();
 3783              		.loc 6 41 0
 3784 0046 FFF7FEFF 		bl	initVCNL_1
 3785              	.LVL561:
  42:main.c        ****     initVCNL_2();
 3786              		.loc 6 42 0
 3787 004a FFF7FEFF 		bl	initVCNL_2
 3788              	.LVL562:
  43:main.c        ****     initVCNL_3();
 3789              		.loc 6 43 0
 3790 004e FFF7FEFF 		bl	initVCNL_3
 3791              	.LVL563:
  44:main.c        ****    // initVCNL_4();
  45:main.c        ****      int desfase,pxd,pxi,defr,dato,pos;
  46:main.c        ****     CAN_Start(); ///  start CAN
 3792              		.loc 6 46 0
 3793 0052 FFF7FEFF 		bl	CAN_Start
 3794              	.LVL564:
  47:main.c        ****     CAN_isr_StartEx(interrutcan);//interrucion can
 3795              		.loc 6 47 0
 3796 0056 E848     		ldr	r0, .L189
 3797 0058 FFF7FEFF 		bl	CAN_isr_StartEx
 3798              	.LVL565:
  48:main.c        ****     dir=1;  ///direcion del motor
 3799              		.loc 6 48 0
 3800 005c 0122     		mov	r2, #1
 3801 005e E74B     		ldr	r3, .L189+4
 3802 0060 5A70     		strb	r2, [r3, #1]
  49:main.c        ****     RX_Start();///rx motor
ARM GAS  C:\Users\Andres\AppData\Local\Temp\ccSsqcxd.s 			page 87


 3803              		.loc 6 49 0
 3804 0062 FFF7FEFF 		bl	RX_Start
 3805              	.LVL566:
  50:main.c        ****     MOTOR_Start();//tx motor
 3806              		.loc 6 50 0
 3807 0066 FFF7FEFF 		bl	MOTOR_Start
 3808              	.LVL567:
  51:main.c        ****     TXC_Write(3);// rx y tx desabilitados
 3809              		.loc 6 51 0
 3810 006a 0320     		mov	r0, #3
 3811 006c FFF7FEFF 		bl	TXC_Write
 3812              	.LVL568:
  52:main.c        ****     CAN_GlobalIntEnable();
 3813              		.loc 6 52 0
 3814 0070 FFF7FEFF 		bl	CAN_GlobalIntEnable
 3815              	.LVL569:
  53:main.c        ****          MoveSpeed(1,512,100);
 3816              		.loc 6 53 0
 3817 0074 8024     		mov	r4, #128
 3818 0076 A400     		lsl	r4, r4, #2
 3819 0078 0120     		mov	r0, #1
 3820 007a 211C     		mov	r1, r4
 3821 007c 6422     		mov	r2, #100
 3822 007e FFF7FEFF 		bl	MoveSpeed
 3823              	.LVL570:
  54:main.c        ****     inicio();///asignacion de posicion
 3824              		.loc 6 54 0
 3825 0082 FFF7FEFF 		bl	inicio
 3826              	.LVL571:
  55:main.c        ****     MoveSpeed(1,512,100);
 3827              		.loc 6 55 0
 3828 0086 0120     		mov	r0, #1
 3829 0088 211C     		mov	r1, r4
 3830 008a 6422     		mov	r2, #100
 3831 008c FFF7FEFF 		bl	MoveSpeed
 3832              	.LVL572:
  56:main.c        ****     movimiento(1,512);/////// aliniacion
 3833              		.loc 6 56 0
 3834 0090 0120     		mov	r0, #1
 3835 0092 211C     		mov	r1, r4
 3836 0094 FFF7FEFF 		bl	movimiento
 3837              	.LVL573:
  57:main.c        ****     movimiento(2,512);
 3838              		.loc 6 57 0
 3839 0098 0220     		mov	r0, #2
 3840 009a 211C     		mov	r1, r4
 3841 009c FFF7FEFF 		bl	movimiento
 3842              	.LVL574:
  58:main.c        ****     movimiento(3,512);
 3843              		.loc 6 58 0
 3844 00a0 0320     		mov	r0, #3
 3845 00a2 211C     		mov	r1, r4
 3846 00a4 FFF7FEFF 		bl	movimiento
 3847              	.LVL575:
  59:main.c        ****     movimiento(4,512);
 3848              		.loc 6 59 0
 3849 00a8 0420     		mov	r0, #4
ARM GAS  C:\Users\Andres\AppData\Local\Temp\ccSsqcxd.s 			page 88


 3850 00aa 211C     		mov	r1, r4
 3851 00ac FFF7FEFF 		bl	movimiento
 3852              	.LVL576:
  60:main.c        ****     movimiento(5,512);
 3853              		.loc 6 60 0
 3854 00b0 0520     		mov	r0, #5
 3855 00b2 211C     		mov	r1, r4
 3856 00b4 FFF7FEFF 		bl	movimiento
 3857              	.LVL577:
  61:main.c        ****     pxd=readProximity_1();
 3858              		.loc 6 61 0
 3859 00b8 FFF7FEFF 		bl	readProximity_1
 3860              	.LVL578:
 3861 00bc 051C     		mov	r5, r0
 3862              	.LVL579:
  62:main.c        ****          pxi=readProximity_3();
 3863              		.loc 6 62 0
 3864 00be FFF7FEFF 		bl	readProximity_3
 3865              	.LVL580:
 3866 00c2 071C     		mov	r7, r0
 3867              	.LVL581:
  63:main.c        ****          defr=readProximity_2();
 3868              		.loc 6 63 0
 3869 00c4 FFF7FEFF 		bl	readProximity_2
 3870              	.LVL582:
 3871 00c8 8046     		mov	r8, r0
 3872              	.LVL583:
  64:main.c        ****    LED_2_Write(0);
 3873              		.loc 6 64 0
 3874 00ca 0020     		mov	r0, #0
 3875              	.LVL584:
 3876 00cc FFF7FEFF 		bl	LED_2_Write
 3877              	.LVL585:
 3878              	.L169:
  65:main.c        ****     //cal(0);
  66:main.c        ****   
  67:main.c        ****     
  68:main.c        ****     for(;;)////////////////////////////////////////////////////////////////////////////////////////
  69:main.c        ****     { if(Mydir==DIRM){
 3879              		.loc 6 69 0
 3880 00d0 CA4B     		ldr	r3, .L189+4
 3881 00d2 1B78     		ldrb	r3, [r3]
 3882 00d4 C82B     		cmp	r3, #200
 3883 00d6 00D0     		beq	.LCB3384
 3884 00d8 9EE1     		b	.L170	@long jump
 3885              	.LCB3384:
  70:main.c        ****  
  71:main.c        **** 
  72:main.c        ****         
  73:main.c        ****      pos  = readPosition(1);
 3886              		.loc 6 73 0
 3887 00da 0120     		mov	r0, #1
 3888 00dc FFF7FEFF 		bl	readPosition
 3889              	.LVL586:
  74:main.c        ****     
  75:main.c        ****         if(pos<=500){
 3890              		.loc 6 75 0
ARM GAS  C:\Users\Andres\AppData\Local\Temp\ccSsqcxd.s 			page 89


 3891 00e0 FA23     		mov	r3, #250
 3892 00e2 5B00     		lsl	r3, r3, #1
 3893 00e4 9842     		cmp	r0, r3
 3894 00e6 0EDC     		bgt	.L171
  76:main.c        ****              LED_2_Write(1);
 3895              		.loc 6 76 0
 3896 00e8 0120     		mov	r0, #1
 3897              	.LVL587:
 3898 00ea FFF7FEFF 		bl	LED_2_Write
 3899              	.LVL588:
  77:main.c        ****          pxd=readProximity_1();
 3900              		.loc 6 77 0
 3901 00ee FFF7FEFF 		bl	readProximity_1
 3902              	.LVL589:
 3903 00f2 051C     		mov	r5, r0
 3904              	.LVL590:
  78:main.c        ****          pxi=readProximity_3();
 3905              		.loc 6 78 0
 3906 00f4 FFF7FEFF 		bl	readProximity_3
 3907              	.LVL591:
 3908 00f8 071C     		mov	r7, r0
 3909              	.LVL592:
  79:main.c        ****          defr=readProximity_2();
 3910              		.loc 6 79 0
 3911 00fa FFF7FEFF 		bl	readProximity_2
 3912              	.LVL593:
 3913 00fe 8046     		mov	r8, r0
 3914              	.LVL594:
  80:main.c        ****         LED_2_Write(0);
 3915              		.loc 6 80 0
 3916 0100 0020     		mov	r0, #0
 3917              	.LVL595:
 3918 0102 FFF7FEFF 		bl	LED_2_Write
 3919              	.LVL596:
 3920              	.L171:
  81:main.c        ****         }else;
  82:main.c        ****         
  83:main.c        ****         
  84:main.c        ****         if(pxd>=2500&&pxi>=2950&&defr>=2900){
 3921              		.loc 6 84 0
 3922 0106 BE4B     		ldr	r3, .L189+8
 3923 0108 9D42     		cmp	r5, r3
 3924 010a 05DD     		ble	.L172
 3925              		.loc 6 84 0 is_stmt 0 discriminator 1
 3926 010c BD4B     		ldr	r3, .L189+12
 3927 010e 9F42     		cmp	r7, r3
 3928 0110 02DD     		ble	.L172
 3929              		.loc 6 84 0 discriminator 2
 3930 0112 BD4B     		ldr	r3, .L189+16
 3931 0114 9845     		cmp	r8, r3
 3932 0116 06DC     		bgt	.L184
 3933              	.L172:
  85:main.c        ****            dato=5;
  86:main.c        ****             goto salto;
  87:main.c        ****         }else ;
  88:main.c        ****         
  89:main.c        ****         if(defr<=2900){
ARM GAS  C:\Users\Andres\AppData\Local\Temp\ccSsqcxd.s 			page 90


 3934              		.loc 6 89 0 is_stmt 1
 3935 0118 BC4B     		ldr	r3, .L189+20
 3936 011a 9845     		cmp	r8, r3
 3937 011c 05DD     		ble	.L185
  90:main.c        ****             dato=1;
  91:main.c        ****             goto salto;
  92:main.c        ****             //// elige derecha o izquierda
  93:main.c        ****             
  94:main.c        ****         } else{
  95:main.c        ****         if(pxi<=pxd){
 3938              		.loc 6 95 0
 3939 011e AF42     		cmp	r7, r5
 3940 0120 05DC     		bgt	.L186
  96:main.c        ****             dato=2;
 3941              		.loc 6 96 0
 3942 0122 0223     		mov	r3, #2
 3943 0124 04E0     		b	.L173
 3944              	.L184:
  85:main.c        ****            dato=5;
 3945              		.loc 6 85 0
 3946 0126 0523     		mov	r3, #5
 3947 0128 02E0     		b	.L173
 3948              	.L185:
  90:main.c        ****             dato=1;
 3949              		.loc 6 90 0
 3950 012a 0123     		mov	r3, #1
 3951 012c 00E0     		b	.L173
 3952              	.L186:
  97:main.c        ****         }else dato=3;
 3953              		.loc 6 97 0
 3954 012e 0323     		mov	r3, #3
 3955              	.L173:
 3956              	.LVL597:
  98:main.c        ****         
  99:main.c        ****         
 100:main.c        ****         
 101:main.c        ****         }
 102:main.c        ****         
 103:main.c        ****         
 104:main.c        ****         
 105:main.c        ****         
 106:main.c        ****         
 107:main.c        ****         
 108:main.c        ****         
 109:main.c        ****         
 110:main.c        ****        salto: 
 111:main.c        ****        switch(dato){
 3957              		.loc 6 111 0
 3958 0130 022B     		cmp	r3, #2
 3959 0132 13D0     		beq	.L175
 3960 0134 02DC     		bgt	.L176
 3961 0136 012B     		cmp	r3, #1
 3962 0138 06D0     		beq	.L177
 3963 013a 45E1     		b	.L174
 3964              	.L176:
 3965 013c 032B     		cmp	r3, #3
 3966 013e 55D0     		beq	.L178
ARM GAS  C:\Users\Andres\AppData\Local\Temp\ccSsqcxd.s 			page 91


 3967 0140 052B     		cmp	r3, #5
 3968 0142 00D1     		bne	.LCB3479
 3969 0144 ACE0     		b	.L179	@long jump
 3970              	.LCB3479:
 3971 0146 3FE1     		b	.L174
 3972              	.L177:
 112:main.c        ****         
 113:main.c        ****         
 114:main.c        ****         case 1:{
 115:main.c        ****         cal(desfase); /// desplasamiento 
 3973              		.loc 6 115 0
 3974 0148 301C     		mov	r0, r6
 3975 014a FFF7FEFF 		bl	cal
 3976              	.LVL598:
 116:main.c        ****         if(desfase==360){
 3977              		.loc 6 116 0
 3978 014e B423     		mov	r3, #180
 3979 0150 5B00     		lsl	r3, r3, #1
 3980 0152 9E42     		cmp	r6, r3
 3981 0154 00D1     		bne	.LCB3491
 3982 0156 36E1     		b	.L187	@long jump
 3983              	.LCB3491:
 117:main.c        ****                desfase=0;
 118:main.c        ****         }else desfase=desfase+30;
 3984              		.loc 6 118 0
 3985 0158 1E36     		add	r6, r6, #30
 3986              	.LVL599:
 3987 015a 35E1     		b	.L174
 3988              	.LVL600:
 3989              	.L175:
 119:main.c        ****         
 120:main.c        ****         
 121:main.c        ****         }
 122:main.c        ****         break;
 123:main.c        ****         case 2:{
 124:main.c        ****         /////izquierda
 125:main.c        ****     MoveSpeed(1,512,100);
 3990              		.loc 6 125 0
 3991 015c 8024     		mov	r4, #128
 3992 015e A400     		lsl	r4, r4, #2
 3993 0160 0120     		mov	r0, #1
 3994 0162 211C     		mov	r1, r4
 3995 0164 6422     		mov	r2, #100
 3996 0166 FFF7FEFF 		bl	MoveSpeed
 3997              	.LVL601:
 126:main.c        ****      movimiento(1,512);/////// aliniacion
 3998              		.loc 6 126 0
 3999 016a 0120     		mov	r0, #1
 4000 016c 211C     		mov	r1, r4
 4001 016e FFF7FEFF 		bl	movimiento
 4002              	.LVL602:
 127:main.c        ****     movimiento(2,512);
 4003              		.loc 6 127 0
 4004 0172 0220     		mov	r0, #2
 4005 0174 211C     		mov	r1, r4
 4006 0176 FFF7FEFF 		bl	movimiento
 4007              	.LVL603:
ARM GAS  C:\Users\Andres\AppData\Local\Temp\ccSsqcxd.s 			page 92


 128:main.c        ****     movimiento(3,512);
 4008              		.loc 6 128 0
 4009 017a 0320     		mov	r0, #3
 4010 017c 211C     		mov	r1, r4
 4011 017e FFF7FEFF 		bl	movimiento
 4012              	.LVL604:
 129:main.c        ****     movimiento(4,512);
 4013              		.loc 6 129 0
 4014 0182 0420     		mov	r0, #4
 4015 0184 211C     		mov	r1, r4
 4016 0186 FFF7FEFF 		bl	movimiento
 4017              	.LVL605:
 130:main.c        ****     movimiento(5,674);//// ancha t
 4018              		.loc 6 130 0
 4019 018a 0520     		mov	r0, #5
 4020 018c A049     		ldr	r1, .L189+24
 4021 018e FFF7FEFF 		bl	movimiento
 4022              	.LVL606:
 131:main.c        ****     CyDelay(2000);
 4023              		.loc 6 131 0
 4024 0192 FA20     		mov	r0, #250
 4025 0194 C000     		lsl	r0, r0, #3
 4026 0196 FFF7FEFF 		bl	CyDelay
 4027              	.LVL607:
 132:main.c        ****     movimiento(2,700);/// mover parte de adelante
 4028              		.loc 6 132 0
 4029 019a 0220     		mov	r0, #2
 4030 019c AF21     		mov	r1, #175
 4031 019e 8900     		lsl	r1, r1, #2
 4032 01a0 FFF7FEFF 		bl	movimiento
 4033              	.LVL608:
 133:main.c        ****     movimiento(3,600);///mover parte trasera
 4034              		.loc 6 133 0
 4035 01a4 0320     		mov	r0, #3
 4036 01a6 9621     		mov	r1, #150
 4037 01a8 8900     		lsl	r1, r1, #2
 4038 01aa FFF7FEFF 		bl	movimiento
 4039              	.LVL609:
 134:main.c        ****     CyDelay(2000);
 4040              		.loc 6 134 0
 4041 01ae FA20     		mov	r0, #250
 4042 01b0 C000     		lsl	r0, r0, #3
 4043 01b2 FFF7FEFF 		bl	CyDelay
 4044              	.LVL610:
 135:main.c        ****     movimiento(5,512);//// ancha t
 4045              		.loc 6 135 0
 4046 01b6 0520     		mov	r0, #5
 4047 01b8 211C     		mov	r1, r4
 4048 01ba FFF7FEFF 		bl	movimiento
 4049              	.LVL611:
 136:main.c        ****     MoveSpeed(1,350,100);///ancla delantera
 4050              		.loc 6 136 0
 4051 01be 0120     		mov	r0, #1
 4052 01c0 AF21     		mov	r1, #175
 4053 01c2 4900     		lsl	r1, r1, #1
 4054 01c4 6422     		mov	r2, #100
 4055 01c6 FFF7FEFF 		bl	MoveSpeed
ARM GAS  C:\Users\Andres\AppData\Local\Temp\ccSsqcxd.s 			page 93


 4056              	.LVL612:
 137:main.c        ****     CyDelay(2000);
 4057              		.loc 6 137 0
 4058 01ca FA20     		mov	r0, #250
 4059 01cc C000     		lsl	r0, r0, #3
 4060 01ce FFF7FEFF 		bl	CyDelay
 4061              	.LVL613:
 138:main.c        ****     movimiento(2,512);
 4062              		.loc 6 138 0
 4063 01d2 0220     		mov	r0, #2
 4064 01d4 211C     		mov	r1, r4
 4065 01d6 FFF7FEFF 		bl	movimiento
 4066              	.LVL614:
 139:main.c        ****     movimiento(3,512);///mover parte trasera
 4067              		.loc 6 139 0
 4068 01da 0320     		mov	r0, #3
 4069 01dc 211C     		mov	r1, r4
 4070 01de FFF7FEFF 		bl	movimiento
 4071              	.LVL615:
 140:main.c        ****     CyDelay(2000);
 4072              		.loc 6 140 0
 4073 01e2 FA20     		mov	r0, #250
 4074 01e4 C000     		lsl	r0, r0, #3
 4075 01e6 FFF7FEFF 		bl	CyDelay
 4076              	.LVL616:
 141:main.c        ****        
 142:main.c        ****         }
 143:main.c        ****         break;
 4077              		.loc 6 143 0
 4078 01ea EDE0     		b	.L174
 4079              	.LVL617:
 4080              	.L178:
 144:main.c        ****     case 3:{    
 145:main.c        ****     ////derecha
 146:main.c        ****     
 147:main.c        ****     MoveSpeed(1,512,100);    
 4081              		.loc 6 147 0
 4082 01ec 8024     		mov	r4, #128
 4083 01ee A400     		lsl	r4, r4, #2
 4084 01f0 0120     		mov	r0, #1
 4085 01f2 211C     		mov	r1, r4
 4086 01f4 6422     		mov	r2, #100
 4087 01f6 FFF7FEFF 		bl	MoveSpeed
 4088              	.LVL618:
 148:main.c        ****     movimiento(1,512);/////// aliniacion
 4089              		.loc 6 148 0
 4090 01fa 0120     		mov	r0, #1
 4091 01fc 211C     		mov	r1, r4
 4092 01fe FFF7FEFF 		bl	movimiento
 4093              	.LVL619:
 149:main.c        ****     movimiento(2,512);
 4094              		.loc 6 149 0
 4095 0202 0220     		mov	r0, #2
 4096 0204 211C     		mov	r1, r4
 4097 0206 FFF7FEFF 		bl	movimiento
 4098              	.LVL620:
 150:main.c        ****     movimiento(3,512);
ARM GAS  C:\Users\Andres\AppData\Local\Temp\ccSsqcxd.s 			page 94


 4099              		.loc 6 150 0
 4100 020a 0320     		mov	r0, #3
 4101 020c 211C     		mov	r1, r4
 4102 020e FFF7FEFF 		bl	movimiento
 4103              	.LVL621:
 151:main.c        ****     movimiento(4,512);
 4104              		.loc 6 151 0
 4105 0212 0420     		mov	r0, #4
 4106 0214 211C     		mov	r1, r4
 4107 0216 FFF7FEFF 		bl	movimiento
 4108              	.LVL622:
 152:main.c        ****     movimiento(5,674);//// ancha t
 4109              		.loc 6 152 0
 4110 021a 0520     		mov	r0, #5
 4111 021c 7C49     		ldr	r1, .L189+24
 4112 021e FFF7FEFF 		bl	movimiento
 4113              	.LVL623:
 153:main.c        ****     CyDelay(2000);
 4114              		.loc 6 153 0
 4115 0222 FA20     		mov	r0, #250
 4116 0224 C000     		lsl	r0, r0, #3
 4117 0226 FFF7FEFF 		bl	CyDelay
 4118              	.LVL624:
 154:main.c        ****     movimiento(2,324);/// mover parte de adelante
 4119              		.loc 6 154 0
 4120 022a 0220     		mov	r0, #2
 4121 022c A221     		mov	r1, #162
 4122 022e 4900     		lsl	r1, r1, #1
 4123 0230 FFF7FEFF 		bl	movimiento
 4124              	.LVL625:
 155:main.c        ****     movimiento(3,424);///mover parte trasera
 4125              		.loc 6 155 0
 4126 0234 0320     		mov	r0, #3
 4127 0236 D421     		mov	r1, #212
 4128 0238 4900     		lsl	r1, r1, #1
 4129 023a FFF7FEFF 		bl	movimiento
 4130              	.LVL626:
 156:main.c        ****     CyDelay(2000);
 4131              		.loc 6 156 0
 4132 023e FA20     		mov	r0, #250
 4133 0240 C000     		lsl	r0, r0, #3
 4134 0242 FFF7FEFF 		bl	CyDelay
 4135              	.LVL627:
 157:main.c        ****     movimiento(5,512);//// ancha t
 4136              		.loc 6 157 0
 4137 0246 0520     		mov	r0, #5
 4138 0248 211C     		mov	r1, r4
 4139 024a FFF7FEFF 		bl	movimiento
 4140              	.LVL628:
 158:main.c        ****     MoveSpeed(1,350,100);///ancla delantera
 4141              		.loc 6 158 0
 4142 024e 0120     		mov	r0, #1
 4143 0250 AF21     		mov	r1, #175
 4144 0252 4900     		lsl	r1, r1, #1
 4145 0254 6422     		mov	r2, #100
 4146 0256 FFF7FEFF 		bl	MoveSpeed
 4147              	.LVL629:
ARM GAS  C:\Users\Andres\AppData\Local\Temp\ccSsqcxd.s 			page 95


 159:main.c        ****     CyDelay(2000);
 4148              		.loc 6 159 0
 4149 025a FA20     		mov	r0, #250
 4150 025c C000     		lsl	r0, r0, #3
 4151 025e FFF7FEFF 		bl	CyDelay
 4152              	.LVL630:
 160:main.c        ****     movimiento(2,512);
 4153              		.loc 6 160 0
 4154 0262 0220     		mov	r0, #2
 4155 0264 211C     		mov	r1, r4
 4156 0266 FFF7FEFF 		bl	movimiento
 4157              	.LVL631:
 161:main.c        ****     movimiento(3,512);///mover parte trasera
 4158              		.loc 6 161 0
 4159 026a 0320     		mov	r0, #3
 4160 026c 211C     		mov	r1, r4
 4161 026e FFF7FEFF 		bl	movimiento
 4162              	.LVL632:
 162:main.c        ****     CyDelay(2000);
 4163              		.loc 6 162 0
 4164 0272 FA20     		mov	r0, #250
 4165 0274 C000     		lsl	r0, r0, #3
 4166 0276 FFF7FEFF 		bl	CyDelay
 4167              	.LVL633:
 163:main.c        ****     }
 164:main.c        ****     break;
 4168              		.loc 6 164 0
 4169 027a A5E0     		b	.L174
 4170              	.L182:
 165:main.c        ****     
 166:main.c        ****     case 5:{
 167:main.c        ****     
 168:main.c        ****        
 169:main.c        ****     while(pxd>=2500&&pxi>=2950){
 170:main.c        ****     cal(desfase); /// desplasamiento 
 4171              		.loc 6 170 0
 4172 027c 301C     		mov	r0, r6
 4173 027e FFF7FEFF 		bl	cal
 4174              	.LVL634:
 171:main.c        ****     if(desfase==0){
 4175              		.loc 6 171 0
 4176 0282 002E     		cmp	r6, #0
 4177 0284 01D0     		beq	.L188
 172:main.c        ****                desfase=360;
 173:main.c        ****         }else desfase=desfase-30;
 4178              		.loc 6 173 0
 4179 0286 1E3E     		sub	r6, r6, #30
 4180              	.LVL635:
 4181 0288 01E0     		b	.L180
 4182              	.L188:
 172:main.c        ****                desfase=360;
 4183              		.loc 6 172 0
 4184 028a B426     		mov	r6, #180
 4185              	.LVL636:
 4186 028c 7600     		lsl	r6, r6, #1
 4187              	.L180:
 4188              	.LVL637:
ARM GAS  C:\Users\Andres\AppData\Local\Temp\ccSsqcxd.s 			page 96


 174:main.c        ****       CyDelay(100);
 4189              		.loc 6 174 0
 4190 028e 6420     		mov	r0, #100
 4191 0290 FFF7FEFF 		bl	CyDelay
 4192              	.LVL638:
 175:main.c        ****          pxd=readProximity_1();
 4193              		.loc 6 175 0
 4194 0294 FFF7FEFF 		bl	readProximity_1
 4195              	.LVL639:
 4196 0298 051C     		mov	r5, r0
 4197              	.LVL640:
 176:main.c        ****          pxi=readProximity_3();
 4198              		.loc 6 176 0
 4199 029a FFF7FEFF 		bl	readProximity_3
 4200              	.LVL641:
 4201 029e 071C     		mov	r7, r0
 4202              	.LVL642:
 4203              	.L179:
 169:main.c        ****     cal(desfase); /// desplasamiento 
 4204              		.loc 6 169 0
 4205 02a0 574B     		ldr	r3, .L189+8
 4206 02a2 9D42     		cmp	r5, r3
 4207 02a4 02DD     		ble	.L181
 169:main.c        ****     cal(desfase); /// desplasamiento 
 4208              		.loc 6 169 0 is_stmt 0 discriminator 1
 4209 02a6 574B     		ldr	r3, .L189+12
 4210 02a8 9F42     		cmp	r7, r3
 4211 02aa E7DC     		bgt	.L182
 4212              	.L181:
 177:main.c        ****     }
 178:main.c        ****         
 179:main.c        ****           MoveSpeed(1,512,100);    
 4213              		.loc 6 179 0 is_stmt 1
 4214 02ac 8024     		mov	r4, #128
 4215 02ae A400     		lsl	r4, r4, #2
 4216 02b0 0120     		mov	r0, #1
 4217 02b2 211C     		mov	r1, r4
 4218 02b4 6422     		mov	r2, #100
 4219 02b6 FFF7FEFF 		bl	MoveSpeed
 4220              	.LVL643:
 180:main.c        ****     movimiento(1,512);/////// aliniacion
 4221              		.loc 6 180 0
 4222 02ba 0120     		mov	r0, #1
 4223 02bc 211C     		mov	r1, r4
 4224 02be FFF7FEFF 		bl	movimiento
 4225              	.LVL644:
 181:main.c        ****     movimiento(2,512);
 4226              		.loc 6 181 0
 4227 02c2 0220     		mov	r0, #2
 4228 02c4 211C     		mov	r1, r4
 4229 02c6 FFF7FEFF 		bl	movimiento
 4230              	.LVL645:
 182:main.c        ****     movimiento(3,512);
 4231              		.loc 6 182 0
 4232 02ca 0320     		mov	r0, #3
 4233 02cc 211C     		mov	r1, r4
 4234 02ce FFF7FEFF 		bl	movimiento
ARM GAS  C:\Users\Andres\AppData\Local\Temp\ccSsqcxd.s 			page 97


 4235              	.LVL646:
 183:main.c        ****     movimiento(4,512);
 4236              		.loc 6 183 0
 4237 02d2 0420     		mov	r0, #4
 4238 02d4 211C     		mov	r1, r4
 4239 02d6 FFF7FEFF 		bl	movimiento
 4240              	.LVL647:
 184:main.c        ****     movimiento(5,674);//// ancha t
 4241              		.loc 6 184 0
 4242 02da 0520     		mov	r0, #5
 4243 02dc 4C49     		ldr	r1, .L189+24
 4244 02de FFF7FEFF 		bl	movimiento
 4245              	.LVL648:
 185:main.c        ****     CyDelay(2000);
 4246              		.loc 6 185 0
 4247 02e2 FA20     		mov	r0, #250
 4248 02e4 C000     		lsl	r0, r0, #3
 4249 02e6 FFF7FEFF 		bl	CyDelay
 4250              	.LVL649:
 186:main.c        ****     movimiento(2,324);/// mover parte de adelante
 4251              		.loc 6 186 0
 4252 02ea 0220     		mov	r0, #2
 4253 02ec A221     		mov	r1, #162
 4254 02ee 4900     		lsl	r1, r1, #1
 4255 02f0 FFF7FEFF 		bl	movimiento
 4256              	.LVL650:
 187:main.c        ****     movimiento(3,424);///mover parte trasera
 4257              		.loc 6 187 0
 4258 02f4 0320     		mov	r0, #3
 4259 02f6 D421     		mov	r1, #212
 4260 02f8 4900     		lsl	r1, r1, #1
 4261 02fa FFF7FEFF 		bl	movimiento
 4262              	.LVL651:
 188:main.c        ****     CyDelay(2000);
 4263              		.loc 6 188 0
 4264 02fe FA20     		mov	r0, #250
 4265 0300 C000     		lsl	r0, r0, #3
 4266 0302 FFF7FEFF 		bl	CyDelay
 4267              	.LVL652:
 189:main.c        ****     movimiento(5,512);//// ancha t
 4268              		.loc 6 189 0
 4269 0306 0520     		mov	r0, #5
 4270 0308 211C     		mov	r1, r4
 4271 030a FFF7FEFF 		bl	movimiento
 4272              	.LVL653:
 190:main.c        ****     MoveSpeed(1,350,100);///ancla delantera
 4273              		.loc 6 190 0
 4274 030e 0120     		mov	r0, #1
 4275 0310 AF21     		mov	r1, #175
 4276 0312 4900     		lsl	r1, r1, #1
 4277 0314 6422     		mov	r2, #100
 4278 0316 FFF7FEFF 		bl	MoveSpeed
 4279              	.LVL654:
 191:main.c        ****     CyDelay(2000);
 4280              		.loc 6 191 0
 4281 031a FA20     		mov	r0, #250
 4282 031c C000     		lsl	r0, r0, #3
ARM GAS  C:\Users\Andres\AppData\Local\Temp\ccSsqcxd.s 			page 98


 4283 031e FFF7FEFF 		bl	CyDelay
 4284              	.LVL655:
 192:main.c        ****     movimiento(2,512);
 4285              		.loc 6 192 0
 4286 0322 0220     		mov	r0, #2
 4287 0324 211C     		mov	r1, r4
 4288 0326 FFF7FEFF 		bl	movimiento
 4289              	.LVL656:
 193:main.c        ****     movimiento(3,512);///mover parte trasera
 4290              		.loc 6 193 0
 4291 032a 0320     		mov	r0, #3
 4292 032c 211C     		mov	r1, r4
 4293 032e FFF7FEFF 		bl	movimiento
 4294              	.LVL657:
 194:main.c        ****     CyDelay(2000);
 4295              		.loc 6 194 0
 4296 0332 FA20     		mov	r0, #250
 4297 0334 C000     		lsl	r0, r0, #3
 4298 0336 FFF7FEFF 		bl	CyDelay
 4299              	.LVL658:
 195:main.c        ****     
 196:main.c        ****       MoveSpeed(1,512,100);    
 4300              		.loc 6 196 0
 4301 033a 0120     		mov	r0, #1
 4302 033c 211C     		mov	r1, r4
 4303 033e 6422     		mov	r2, #100
 4304 0340 FFF7FEFF 		bl	MoveSpeed
 4305              	.LVL659:
 197:main.c        ****     movimiento(1,512);/////// aliniacion
 4306              		.loc 6 197 0
 4307 0344 0120     		mov	r0, #1
 4308 0346 211C     		mov	r1, r4
 4309 0348 FFF7FEFF 		bl	movimiento
 4310              	.LVL660:
 198:main.c        ****     movimiento(2,512);
 4311              		.loc 6 198 0
 4312 034c 0220     		mov	r0, #2
 4313 034e 211C     		mov	r1, r4
 4314 0350 FFF7FEFF 		bl	movimiento
 4315              	.LVL661:
 199:main.c        ****     movimiento(3,512);
 4316              		.loc 6 199 0
 4317 0354 0320     		mov	r0, #3
 4318 0356 211C     		mov	r1, r4
 4319 0358 FFF7FEFF 		bl	movimiento
 4320              	.LVL662:
 200:main.c        ****     movimiento(4,512);
 4321              		.loc 6 200 0
 4322 035c 0420     		mov	r0, #4
 4323 035e 211C     		mov	r1, r4
 4324 0360 FFF7FEFF 		bl	movimiento
 4325              	.LVL663:
 201:main.c        ****     movimiento(5,674);//// ancha t
 4326              		.loc 6 201 0
 4327 0364 0520     		mov	r0, #5
 4328 0366 2A49     		ldr	r1, .L189+24
 4329 0368 FFF7FEFF 		bl	movimiento
ARM GAS  C:\Users\Andres\AppData\Local\Temp\ccSsqcxd.s 			page 99


 4330              	.LVL664:
 202:main.c        ****     CyDelay(2000);
 4331              		.loc 6 202 0
 4332 036c FA20     		mov	r0, #250
 4333 036e C000     		lsl	r0, r0, #3
 4334 0370 FFF7FEFF 		bl	CyDelay
 4335              	.LVL665:
 203:main.c        ****     movimiento(2,324);/// mover parte de adelante
 4336              		.loc 6 203 0
 4337 0374 0220     		mov	r0, #2
 4338 0376 A221     		mov	r1, #162
 4339 0378 4900     		lsl	r1, r1, #1
 4340 037a FFF7FEFF 		bl	movimiento
 4341              	.LVL666:
 204:main.c        ****     movimiento(3,424);///mover parte trasera
 4342              		.loc 6 204 0
 4343 037e 0320     		mov	r0, #3
 4344 0380 D421     		mov	r1, #212
 4345 0382 4900     		lsl	r1, r1, #1
 4346 0384 FFF7FEFF 		bl	movimiento
 4347              	.LVL667:
 205:main.c        ****     CyDelay(2000);
 4348              		.loc 6 205 0
 4349 0388 FA20     		mov	r0, #250
 4350 038a C000     		lsl	r0, r0, #3
 4351 038c FFF7FEFF 		bl	CyDelay
 4352              	.LVL668:
 206:main.c        ****     movimiento(5,512);//// ancha t
 4353              		.loc 6 206 0
 4354 0390 0520     		mov	r0, #5
 4355 0392 211C     		mov	r1, r4
 4356 0394 FFF7FEFF 		bl	movimiento
 4357              	.LVL669:
 207:main.c        ****     MoveSpeed(1,350,100);///ancla delantera
 4358              		.loc 6 207 0
 4359 0398 0120     		mov	r0, #1
 4360 039a AF21     		mov	r1, #175
 4361 039c 4900     		lsl	r1, r1, #1
 4362 039e 6422     		mov	r2, #100
 4363 03a0 FFF7FEFF 		bl	MoveSpeed
 4364              	.LVL670:
 208:main.c        ****     CyDelay(2000);
 4365              		.loc 6 208 0
 4366 03a4 FA20     		mov	r0, #250
 4367 03a6 C000     		lsl	r0, r0, #3
 4368 03a8 FFF7FEFF 		bl	CyDelay
 4369              	.LVL671:
 209:main.c        ****     movimiento(2,512);
 4370              		.loc 6 209 0
 4371 03ac 0220     		mov	r0, #2
 4372 03ae 211C     		mov	r1, r4
 4373 03b0 FFF7FEFF 		bl	movimiento
 4374              	.LVL672:
 210:main.c        ****     movimiento(3,512);///mover parte trasera
 4375              		.loc 6 210 0
 4376 03b4 0320     		mov	r0, #3
 4377 03b6 211C     		mov	r1, r4
ARM GAS  C:\Users\Andres\AppData\Local\Temp\ccSsqcxd.s 			page 100


 4378 03b8 FFF7FEFF 		bl	movimiento
 4379              	.LVL673:
 211:main.c        ****     CyDelay(2000);
 4380              		.loc 6 211 0
 4381 03bc FA20     		mov	r0, #250
 4382 03be C000     		lsl	r0, r0, #3
 4383 03c0 FFF7FEFF 		bl	CyDelay
 4384              	.LVL674:
 212:main.c        ****         
 213:main.c        ****     }
 214:main.c        ****       break;  
 4385              		.loc 6 214 0
 4386 03c4 00E0     		b	.L174
 4387              	.L187:
 117:main.c        ****         }else desfase=desfase+30;
 4388              		.loc 6 117 0
 4389 03c6 0026     		mov	r6, #0
 4390              	.LVL675:
 4391              	.L174:
 215:main.c        ****     
 216:main.c        ****     }
 217:main.c        ****     
 218:main.c        ****     LED_1_Write(1);
 4392              		.loc 6 218 0
 4393 03c8 0120     		mov	r0, #1
 4394 03ca FFF7FEFF 		bl	LED_1_Write
 4395              	.LVL676:
 219:main.c        ****     
 220:main.c        ****     
 221:main.c        ****     
 222:main.c        ****     
 223:main.c        ****     
 224:main.c        ****  ledoff(0,dirasig,LED4);
 4396              		.loc 6 224 0
 4397 03ce 114C     		ldr	r4, .L189+28
 4398 03d0 2178     		ldrb	r1, [r4]
 4399 03d2 0020     		mov	r0, #0
 4400 03d4 0E22     		mov	r2, #14
 4401 03d6 FFF7FEFF 		bl	ledoff
 4402              	.LVL677:
 225:main.c        **** //movimiento(dirasig,500);
 226:main.c        ****       CyDelay(100);  
 4403              		.loc 6 226 0
 4404 03da 6420     		mov	r0, #100
 4405 03dc FFF7FEFF 		bl	CyDelay
 4406              	.LVL678:
 227:main.c        ****     LED_1_Write(0);
 4407              		.loc 6 227 0
 4408 03e0 0020     		mov	r0, #0
 4409 03e2 FFF7FEFF 		bl	LED_1_Write
 4410              	.LVL679:
 228:main.c        ****     ledoff(1,dirasig,LED4);
 4411              		.loc 6 228 0
 4412 03e6 2178     		ldrb	r1, [r4]
 4413 03e8 0120     		mov	r0, #1
 4414 03ea 0E22     		mov	r2, #14
 4415 03ec FFF7FEFF 		bl	ledoff
ARM GAS  C:\Users\Andres\AppData\Local\Temp\ccSsqcxd.s 			page 101


 4416              	.LVL680:
 229:main.c        ****    // movimiento(dirasig,559);
 230:main.c        ****      CyDelay(100);  
 4417              		.loc 6 230 0
 4418 03f0 6420     		mov	r0, #100
 4419 03f2 FFF7FEFF 		bl	CyDelay
 4420              	.LVL681:
 4421 03f6 6BE6     		b	.L169
 4422              	.L190:
 4423              		.align	2
 4424              	.L189:
 4425 03f8 00000000 		.word	interrutcan
 4426 03fc 00000000 		.word	.LANCHOR1
 4427 0400 C3090000 		.word	2499
 4428 0404 850B0000 		.word	2949
 4429 0408 530B0000 		.word	2899
 4430 040c 540B0000 		.word	2900
 4431 0410 A2020000 		.word	674
 4432 0414 00000000 		.word	dirasig
 4433              	.L170:
 231:main.c        ****     }else{//LED_1_Write(1); 
 232:main.c        ****      
 233:main.c        ****       CyDelay(1000);  
 4434              		.loc 6 233 0
 4435 0418 FA24     		mov	r4, #250
 4436 041a A400     		lsl	r4, r4, #2
 4437 041c 201C     		mov	r0, r4
 4438 041e FFF7FEFF 		bl	CyDelay
 4439              	.LVL682:
 234:main.c        ****     //LED_1_Write(0);
 235:main.c        ****     
 236:main.c        ****      CyDelay(1000); }
 4440              		.loc 6 236 0
 4441 0422 201C     		mov	r0, r4
 4442 0424 FFF7FEFF 		bl	CyDelay
 4443              	.LVL683:
 4444 0428 52E6     		b	.L169
 4445              		.cfi_endproc
 4446              	.LFE73:
 4447              		.size	main, .-main
 4448              		.comm	posicionl,4,4
 4449              		.comm	posicionh,4,4
 4450              		.comm	posicion,4,4
 4451              		.comm	amb,4,4
 4452              		.comm	error,1,1
 4453              		.comm	tes,1,1
 4454              		.comm	tem,1,1
 4455              		.comm	srf,4,4
 4456              		.comm	mailbox0,8,4
 4457              		.comm	dato_enviado,8,4
 4458              		.comm	sumadir,1,1
 4459              		.comm	dirasig,1,1
 4460              		.global	Mydir
 4461              		.comm	Pda,4,4
 4462              		.global	dir
 4463              		.comm	pos,4,4
 4464              		.comm	PositionM,4,4
ARM GAS  C:\Users\Andres\AppData\Local\Temp\ccSsqcxd.s 			page 102


 4465              		.comm	errc,4,4
 4466              		.comm	Pta,4,4
 4467              		.comm	M,4,4
 4468              		.comm	cstatus,4,4
 4469              		.comm	Pt,4,4
 4470              		.comm	Pd,4,4
 4471              		.comm	t,4,4
 4472              		.comm	ant,4,4
 4473              		.comm	Time_Counter,4,4
 4474              		.comm	Position_Low_Byte,1,1
 4475              		.comm	Position_High_Byte,1,1
 4476              		.comm	Position_Long_Byte,1,1
 4477              		.comm	Incoming_Byte2,1,1
 4478              		.comm	Error_Byte,1,1
 4479              		.comm	Temperature_Byte,1,1
 4480              		.comm	Incoming_Byte,1,1
 4481              		.comm	Checksum,1,1
 4482              		.global	iii
 4483              		.global	ii
 4484              		.global	i
 4485 042a C046     		.data
 4486              		.set	.LANCHOR1,. + 0
 4487              		.type	Mydir, %object
 4488              		.size	Mydir, 1
 4489              	Mydir:
 4490 0000 FA       		.byte	-6
 4491              		.type	dir, %object
 4492              		.size	dir, 1
 4493              	dir:
 4494 0001 01       		.byte	1
 4495              		.bss
 4496              		.align	2
 4497              		.set	.LANCHOR0,. + 0
 4498              		.type	i, %object
 4499              		.size	i, 4
 4500              	i:
 4501 0000 00000000 		.space	4
 4502              		.type	ii, %object
 4503              		.size	ii, 4
 4504              	ii:
 4505 0004 00000000 		.space	4
 4506              		.type	iii, %object
 4507              		.size	iii, 4
 4508              	iii:
 4509 0008 00000000 		.space	4
 4510              		.text
 4511              	.Letext0:
 4512              		.file 7 "Generated_Source\\PSoC4/cytypes.h"
 4513              		.file 8 "Generated_Source\\PSoC4/SENSOR_1_I2C.h"
 4514              		.file 9 "Generated_Source\\PSoC4/LED_1.h"
 4515              		.file 10 "Generated_Source\\PSoC4/CyLib.h"
 4516              		.file 11 "Generated_Source\\PSoC4/SENSOR_2_I2C.h"
 4517              		.file 12 "Generated_Source\\PSoC4/LED_2.h"
 4518              		.file 13 "Generated_Source\\PSoC4/SENSOR_3_I2C.h"
 4519              		.file 14 "Generated_Source\\PSoC4/LED_3.h"
 4520              		.file 15 "Generated_Source\\PSoC4/RX.h"
 4521              		.file 16 "Generated_Source\\PSoC4/TXC.h"
ARM GAS  C:\Users\Andres\AppData\Local\Temp\ccSsqcxd.s 			page 103


 4522              		.file 17 "Generated_Source\\PSoC4/MOTOR.h"
 4523              		.file 18 "Generated_Source\\PSoC4/CAN.h"
 4524              		.file 19 "Generated_Source\\PSoC4/LED_4.h"
 4525              		.file 20 "c:\\program files (x86)\\cypress\\psoc creator\\4.0\\psoc creator\\import\\gnu\\arm\\4.9
 4526              		.file 21 "Generated_Source\\PSoC4/SENSOR_1.h"
 4527              		.file 22 "Generated_Source\\PSoC4/SENSOR_2.h"
 4528              		.file 23 "Generated_Source\\PSoC4/SENSOR_3.h"
 4529              		.file 24 "Generated_Source\\PSoC4/SENSOR_4.h"
 4530              		.file 25 "Generated_Source\\PSoC4/CAN_isr.h"
 4531              		.section	.debug_info,"",%progbits
 4532              	.Ldebug_info0:
 4533 0000 2B350000 		.4byte	0x352b
 4534 0004 0400     		.2byte	0x4
 4535 0006 00000000 		.4byte	.Ldebug_abbrev0
 4536 000a 04       		.byte	0x4
 4537 000b 01       		.uleb128 0x1
 4538 000c 9B040000 		.4byte	.LASF146
 4539 0010 01       		.byte	0x1
 4540 0011 32000000 		.4byte	.LASF147
 4541 0015 B9060000 		.4byte	.LASF148
 4542 0019 00000000 		.4byte	.Ldebug_ranges0+0
 4543 001d 00000000 		.4byte	0
 4544 0021 00000000 		.4byte	.Ldebug_line0
 4545 0025 02       		.uleb128 0x2
 4546 0026 01       		.byte	0x1
 4547 0027 06       		.byte	0x6
 4548 0028 3E060000 		.4byte	.LASF0
 4549 002c 02       		.uleb128 0x2
 4550 002d 01       		.byte	0x1
 4551 002e 08       		.byte	0x8
 4552 002f E5050000 		.4byte	.LASF1
 4553 0033 02       		.uleb128 0x2
 4554 0034 02       		.byte	0x2
 4555 0035 05       		.byte	0x5
 4556 0036 46040000 		.4byte	.LASF2
 4557 003a 02       		.uleb128 0x2
 4558 003b 02       		.byte	0x2
 4559 003c 07       		.byte	0x7
 4560 003d 4A060000 		.4byte	.LASF3
 4561 0041 02       		.uleb128 0x2
 4562 0042 04       		.byte	0x4
 4563 0043 05       		.byte	0x5
 4564 0044 56040000 		.4byte	.LASF4
 4565 0048 02       		.uleb128 0x2
 4566 0049 04       		.byte	0x4
 4567 004a 07       		.byte	0x7
 4568 004b 82050000 		.4byte	.LASF5
 4569 004f 02       		.uleb128 0x2
 4570 0050 08       		.byte	0x8
 4571 0051 05       		.byte	0x5
 4572 0052 36030000 		.4byte	.LASF6
 4573 0056 02       		.uleb128 0x2
 4574 0057 08       		.byte	0x8
 4575 0058 07       		.byte	0x7
 4576 0059 87010000 		.4byte	.LASF7
 4577 005d 03       		.uleb128 0x3
 4578 005e 04       		.byte	0x4
ARM GAS  C:\Users\Andres\AppData\Local\Temp\ccSsqcxd.s 			page 104


 4579 005f 05       		.byte	0x5
 4580 0060 696E7400 		.ascii	"int\000"
 4581 0064 02       		.uleb128 0x2
 4582 0065 04       		.byte	0x4
 4583 0066 07       		.byte	0x7
 4584 0067 78000000 		.4byte	.LASF8
 4585 006b 04       		.uleb128 0x4
 4586 006c 6D060000 		.4byte	.LASF9
 4587 0070 07       		.byte	0x7
 4588 0071 9801     		.2byte	0x198
 4589 0073 2C000000 		.4byte	0x2c
 4590 0077 04       		.uleb128 0x4
 4591 0078 13030000 		.4byte	.LASF10
 4592 007c 07       		.byte	0x7
 4593 007d 9901     		.2byte	0x199
 4594 007f 3A000000 		.4byte	0x3a
 4595 0083 04       		.uleb128 0x4
 4596 0084 8E030000 		.4byte	.LASF11
 4597 0088 07       		.byte	0x7
 4598 0089 9A01     		.2byte	0x19a
 4599 008b 48000000 		.4byte	0x48
 4600 008f 02       		.uleb128 0x2
 4601 0090 04       		.byte	0x4
 4602 0091 04       		.byte	0x4
 4603 0092 49010000 		.4byte	.LASF12
 4604 0096 02       		.uleb128 0x2
 4605 0097 08       		.byte	0x8
 4606 0098 04       		.byte	0x4
 4607 0099 73060000 		.4byte	.LASF13
 4608 009d 02       		.uleb128 0x2
 4609 009e 01       		.byte	0x1
 4610 009f 08       		.byte	0x8
 4611 00a0 B8020000 		.4byte	.LASF14
 4612 00a4 04       		.uleb128 0x4
 4613 00a5 7A030000 		.4byte	.LASF15
 4614 00a9 07       		.byte	0x7
 4615 00aa 5402     		.2byte	0x254
 4616 00ac B0000000 		.4byte	0xb0
 4617 00b0 05       		.uleb128 0x5
 4618 00b1 04       		.byte	0x4
 4619 00b2 B6000000 		.4byte	0xb6
 4620 00b6 06       		.uleb128 0x6
 4621 00b7 02       		.uleb128 0x2
 4622 00b8 04       		.byte	0x4
 4623 00b9 07       		.byte	0x7
 4624 00ba 6E050000 		.4byte	.LASF16
 4625 00be 07       		.uleb128 0x7
 4626 00bf 6B000000 		.4byte	0x6b
 4627 00c3 CE000000 		.4byte	0xce
 4628 00c7 08       		.uleb128 0x8
 4629 00c8 B7000000 		.4byte	0xb7
 4630 00cc 07       		.byte	0x7
 4631 00cd 00       		.byte	0
 4632 00ce 02       		.uleb128 0x2
 4633 00cf 08       		.byte	0x8
 4634 00d0 04       		.byte	0x4
 4635 00d1 DB030000 		.4byte	.LASF17
ARM GAS  C:\Users\Andres\AppData\Local\Temp\ccSsqcxd.s 			page 105


 4636 00d5 09       		.uleb128 0x9
 4637 00d6 05070000 		.4byte	.LASF23
 4638 00da 01       		.byte	0x1
 4639 00db 06       		.byte	0x6
 4640 00dc 00000000 		.4byte	.LFB36
 4641 00e0 22000000 		.4byte	.LFE36-.LFB36
 4642 00e4 01       		.uleb128 0x1
 4643 00e5 9C       		.byte	0x9c
 4644 00e6 43010000 		.4byte	0x143
 4645 00ea 0A       		.uleb128 0xa
 4646 00eb 94050000 		.4byte	.LASF18
 4647 00ef 01       		.byte	0x1
 4648 00f0 06       		.byte	0x6
 4649 00f1 5D000000 		.4byte	0x5d
 4650 00f5 00000000 		.4byte	.LLST0
 4651 00f9 0A       		.uleb128 0xa
 4652 00fa 1A030000 		.4byte	.LASF19
 4653 00fe 01       		.byte	0x1
 4654 00ff 06       		.byte	0x6
 4655 0100 5D000000 		.4byte	0x5d
 4656 0104 21000000 		.4byte	.LLST1
 4657 0108 0B       		.uleb128 0xb
 4658 0109 D6020000 		.4byte	.LASF20
 4659 010d 01       		.byte	0x1
 4660 010e 07       		.byte	0x7
 4661 010f 43010000 		.4byte	0x143
 4662 0113 02       		.uleb128 0x2
 4663 0114 91       		.byte	0x91
 4664 0115 74       		.sleb128 -12
 4665 0116 0C       		.uleb128 0xc
 4666 0117 16000000 		.4byte	.LVL3
 4667 011b BE320000 		.4byte	0x32be
 4668 011f 39010000 		.4byte	0x139
 4669 0123 0D       		.uleb128 0xd
 4670 0124 01       		.uleb128 0x1
 4671 0125 53       		.byte	0x53
 4672 0126 01       		.uleb128 0x1
 4673 0127 30       		.byte	0x30
 4674 0128 0D       		.uleb128 0xd
 4675 0129 01       		.uleb128 0x1
 4676 012a 52       		.byte	0x52
 4677 012b 01       		.uleb128 0x1
 4678 012c 32       		.byte	0x32
 4679 012d 0D       		.uleb128 0xd
 4680 012e 01       		.uleb128 0x1
 4681 012f 51       		.byte	0x51
 4682 0130 02       		.uleb128 0x2
 4683 0131 91       		.byte	0x91
 4684 0132 74       		.sleb128 -12
 4685 0133 0D       		.uleb128 0xd
 4686 0134 01       		.uleb128 0x1
 4687 0135 50       		.byte	0x50
 4688 0136 01       		.uleb128 0x1
 4689 0137 43       		.byte	0x43
 4690 0138 00       		.byte	0
 4691 0139 0E       		.uleb128 0xe
 4692 013a 1A000000 		.4byte	.LVL4
ARM GAS  C:\Users\Andres\AppData\Local\Temp\ccSsqcxd.s 			page 106


 4693 013e E9320000 		.4byte	0x32e9
 4694 0142 00       		.byte	0
 4695 0143 07       		.uleb128 0x7
 4696 0144 6B000000 		.4byte	0x6b
 4697 0148 53010000 		.4byte	0x153
 4698 014c 08       		.uleb128 0x8
 4699 014d B7000000 		.4byte	0xb7
 4700 0151 01       		.byte	0x1
 4701 0152 00       		.byte	0
 4702 0153 0F       		.uleb128 0xf
 4703 0154 8E020000 		.4byte	.LASF27
 4704 0158 01       		.byte	0x1
 4705 0159 0F       		.byte	0xf
 4706 015a 5D000000 		.4byte	0x5d
 4707 015e 00000000 		.4byte	.LFB37
 4708 0162 3C000000 		.4byte	.LFE37-.LFB37
 4709 0166 01       		.uleb128 0x1
 4710 0167 9C       		.byte	0x9c
 4711 0168 F0010000 		.4byte	0x1f0
 4712 016c 0A       		.uleb128 0xa
 4713 016d 94050000 		.4byte	.LASF18
 4714 0171 01       		.byte	0x1
 4715 0172 0F       		.byte	0xf
 4716 0173 5D000000 		.4byte	0x5d
 4717 0177 42000000 		.4byte	.LLST2
 4718 017b 0B       		.uleb128 0xb
 4719 017c D6020000 		.4byte	.LASF20
 4720 0180 01       		.byte	0x1
 4721 0181 10       		.byte	0x10
 4722 0182 F0010000 		.4byte	0x1f0
 4723 0186 02       		.uleb128 0x2
 4724 0187 91       		.byte	0x91
 4725 0188 74       		.sleb128 -12
 4726 0189 0B       		.uleb128 0xb
 4727 018a 65050000 		.4byte	.LASF21
 4728 018e 01       		.byte	0x1
 4729 018f 12       		.byte	0x12
 4730 0190 F0010000 		.4byte	0x1f0
 4731 0194 02       		.uleb128 0x2
 4732 0195 91       		.byte	0x91
 4733 0196 70       		.sleb128 -16
 4734 0197 0C       		.uleb128 0xc
 4735 0198 18000000 		.4byte	.LVL7
 4736 019c BE320000 		.4byte	0x32be
 4737 01a0 BA010000 		.4byte	0x1ba
 4738 01a4 0D       		.uleb128 0xd
 4739 01a5 01       		.uleb128 0x1
 4740 01a6 53       		.byte	0x53
 4741 01a7 01       		.uleb128 0x1
 4742 01a8 32       		.byte	0x32
 4743 01a9 0D       		.uleb128 0xd
 4744 01aa 01       		.uleb128 0x1
 4745 01ab 52       		.byte	0x52
 4746 01ac 01       		.uleb128 0x1
 4747 01ad 31       		.byte	0x31
 4748 01ae 0D       		.uleb128 0xd
 4749 01af 01       		.uleb128 0x1
ARM GAS  C:\Users\Andres\AppData\Local\Temp\ccSsqcxd.s 			page 107


 4750 01b0 51       		.byte	0x51
 4751 01b1 02       		.uleb128 0x2
 4752 01b2 91       		.byte	0x91
 4753 01b3 74       		.sleb128 -12
 4754 01b4 0D       		.uleb128 0xd
 4755 01b5 01       		.uleb128 0x1
 4756 01b6 50       		.byte	0x50
 4757 01b7 01       		.uleb128 0x1
 4758 01b8 43       		.byte	0x43
 4759 01b9 00       		.byte	0
 4760 01ba 0E       		.uleb128 0xe
 4761 01bb 1C000000 		.4byte	.LVL8
 4762 01bf E9320000 		.4byte	0x32e9
 4763 01c3 0C       		.uleb128 0xc
 4764 01c4 2C000000 		.4byte	.LVL9
 4765 01c8 F5320000 		.4byte	0x32f5
 4766 01cc E6010000 		.4byte	0x1e6
 4767 01d0 0D       		.uleb128 0xd
 4768 01d1 01       		.uleb128 0x1
 4769 01d2 53       		.byte	0x53
 4770 01d3 01       		.uleb128 0x1
 4771 01d4 31       		.byte	0x31
 4772 01d5 0D       		.uleb128 0xd
 4773 01d6 01       		.uleb128 0x1
 4774 01d7 52       		.byte	0x52
 4775 01d8 01       		.uleb128 0x1
 4776 01d9 31       		.byte	0x31
 4777 01da 0D       		.uleb128 0xd
 4778 01db 01       		.uleb128 0x1
 4779 01dc 51       		.byte	0x51
 4780 01dd 02       		.uleb128 0x2
 4781 01de 7D       		.byte	0x7d
 4782 01df 00       		.sleb128 0
 4783 01e0 0D       		.uleb128 0xd
 4784 01e1 01       		.uleb128 0x1
 4785 01e2 50       		.byte	0x50
 4786 01e3 01       		.uleb128 0x1
 4787 01e4 43       		.byte	0x43
 4788 01e5 00       		.byte	0
 4789 01e6 0E       		.uleb128 0xe
 4790 01e7 30000000 		.4byte	.LVL10
 4791 01eb E9320000 		.4byte	0x32e9
 4792 01ef 00       		.byte	0
 4793 01f0 07       		.uleb128 0x7
 4794 01f1 6B000000 		.4byte	0x6b
 4795 01f5 00020000 		.4byte	0x200
 4796 01f9 08       		.uleb128 0x8
 4797 01fa B7000000 		.4byte	0xb7
 4798 01fe 00       		.byte	0
 4799 01ff 00       		.byte	0
 4800 0200 10       		.uleb128 0x10
 4801 0201 15040000 		.4byte	.LASF29
 4802 0205 01       		.byte	0x1
 4803 0206 1A       		.byte	0x1a
 4804 0207 00000000 		.4byte	.LFB38
 4805 020b 8C000000 		.4byte	.LFE38-.LFB38
 4806 020f 01       		.uleb128 0x1
ARM GAS  C:\Users\Andres\AppData\Local\Temp\ccSsqcxd.s 			page 108


 4807 0210 9C       		.byte	0x9c
 4808 0211 5D030000 		.4byte	0x35d
 4809 0215 11       		.uleb128 0x11
 4810 0216 73040000 		.4byte	.LASF22
 4811 021a 01       		.byte	0x1
 4812 021b 1B       		.byte	0x1b
 4813 021c 5D000000 		.4byte	0x5d
 4814 0220 63000000 		.4byte	.LLST3
 4815 0224 0C       		.uleb128 0xc
 4816 0225 08000000 		.4byte	.LVL11
 4817 0229 53010000 		.4byte	0x153
 4818 022d 38020000 		.4byte	0x238
 4819 0231 0D       		.uleb128 0xd
 4820 0232 01       		.uleb128 0x1
 4821 0233 50       		.byte	0x50
 4822 0234 02       		.uleb128 0x2
 4823 0235 08       		.byte	0x8
 4824 0236 81       		.byte	0x81
 4825 0237 00       		.byte	0
 4826 0238 0C       		.uleb128 0xc
 4827 0239 12000000 		.4byte	.LVL13
 4828 023d 1A330000 		.4byte	0x331a
 4829 0241 4B020000 		.4byte	0x24b
 4830 0245 0D       		.uleb128 0xd
 4831 0246 01       		.uleb128 0x1
 4832 0247 50       		.byte	0x50
 4833 0248 01       		.uleb128 0x1
 4834 0249 31       		.byte	0x31
 4835 024a 00       		.byte	0
 4836 024b 0C       		.uleb128 0xc
 4837 024c 1C000000 		.4byte	.LVL14
 4838 0250 2B330000 		.4byte	0x332b
 4839 0254 5F020000 		.4byte	0x25f
 4840 0258 0D       		.uleb128 0xd
 4841 0259 01       		.uleb128 0x1
 4842 025a 50       		.byte	0x50
 4843 025b 02       		.uleb128 0x2
 4844 025c 74       		.byte	0x74
 4845 025d 00       		.sleb128 0
 4846 025e 00       		.byte	0
 4847 025f 0C       		.uleb128 0xc
 4848 0260 22000000 		.4byte	.LVL15
 4849 0264 1A330000 		.4byte	0x331a
 4850 0268 72020000 		.4byte	0x272
 4851 026c 0D       		.uleb128 0xd
 4852 026d 01       		.uleb128 0x1
 4853 026e 50       		.byte	0x50
 4854 026f 01       		.uleb128 0x1
 4855 0270 30       		.byte	0x30
 4856 0271 00       		.byte	0
 4857 0272 0C       		.uleb128 0xc
 4858 0273 28000000 		.4byte	.LVL16
 4859 0277 2B330000 		.4byte	0x332b
 4860 027b 86020000 		.4byte	0x286
 4861 027f 0D       		.uleb128 0xd
 4862 0280 01       		.uleb128 0x1
 4863 0281 50       		.byte	0x50
ARM GAS  C:\Users\Andres\AppData\Local\Temp\ccSsqcxd.s 			page 109


 4864 0282 02       		.uleb128 0x2
 4865 0283 74       		.byte	0x74
 4866 0284 00       		.sleb128 0
 4867 0285 00       		.byte	0
 4868 0286 0C       		.uleb128 0xc
 4869 0287 30000000 		.4byte	.LVL19
 4870 028b 1A330000 		.4byte	0x331a
 4871 028f 99020000 		.4byte	0x299
 4872 0293 0D       		.uleb128 0xd
 4873 0294 01       		.uleb128 0x1
 4874 0295 50       		.byte	0x50
 4875 0296 01       		.uleb128 0x1
 4876 0297 30       		.byte	0x30
 4877 0298 00       		.byte	0
 4878 0299 0C       		.uleb128 0xc
 4879 029a 3E000000 		.4byte	.LVL20
 4880 029e 1A330000 		.4byte	0x331a
 4881 02a2 AC020000 		.4byte	0x2ac
 4882 02a6 0D       		.uleb128 0xd
 4883 02a7 01       		.uleb128 0x1
 4884 02a8 50       		.byte	0x50
 4885 02a9 01       		.uleb128 0x1
 4886 02aa 31       		.byte	0x31
 4887 02ab 00       		.byte	0
 4888 02ac 0C       		.uleb128 0xc
 4889 02ad 44000000 		.4byte	.LVL21
 4890 02b1 2B330000 		.4byte	0x332b
 4891 02b5 C0020000 		.4byte	0x2c0
 4892 02b9 0D       		.uleb128 0xd
 4893 02ba 01       		.uleb128 0x1
 4894 02bb 50       		.byte	0x50
 4895 02bc 02       		.uleb128 0x2
 4896 02bd 08       		.byte	0x8
 4897 02be C8       		.byte	0xc8
 4898 02bf 00       		.byte	0
 4899 02c0 0C       		.uleb128 0xc
 4900 02c1 4A000000 		.4byte	.LVL22
 4901 02c5 1A330000 		.4byte	0x331a
 4902 02c9 D3020000 		.4byte	0x2d3
 4903 02cd 0D       		.uleb128 0xd
 4904 02ce 01       		.uleb128 0x1
 4905 02cf 50       		.byte	0x50
 4906 02d0 01       		.uleb128 0x1
 4907 02d1 30       		.byte	0x30
 4908 02d2 00       		.byte	0
 4909 02d3 0C       		.uleb128 0xc
 4910 02d4 50000000 		.4byte	.LVL23
 4911 02d8 2B330000 		.4byte	0x332b
 4912 02dc E7020000 		.4byte	0x2e7
 4913 02e0 0D       		.uleb128 0xd
 4914 02e1 01       		.uleb128 0x1
 4915 02e2 50       		.byte	0x50
 4916 02e3 02       		.uleb128 0x2
 4917 02e4 08       		.byte	0x8
 4918 02e5 C8       		.byte	0xc8
 4919 02e6 00       		.byte	0
 4920 02e7 0C       		.uleb128 0xc
ARM GAS  C:\Users\Andres\AppData\Local\Temp\ccSsqcxd.s 			page 110


 4921 02e8 66000000 		.4byte	.LVL24
 4922 02ec 1A330000 		.4byte	0x331a
 4923 02f0 FA020000 		.4byte	0x2fa
 4924 02f4 0D       		.uleb128 0xd
 4925 02f5 01       		.uleb128 0x1
 4926 02f6 50       		.byte	0x50
 4927 02f7 01       		.uleb128 0x1
 4928 02f8 30       		.byte	0x30
 4929 02f9 00       		.byte	0
 4930 02fa 0C       		.uleb128 0xc
 4931 02fb 6E000000 		.4byte	.LVL25
 4932 02ff D5000000 		.4byte	0xd5
 4933 0303 13030000 		.4byte	0x313
 4934 0307 0D       		.uleb128 0xd
 4935 0308 01       		.uleb128 0x1
 4936 0309 51       		.byte	0x51
 4937 030a 01       		.uleb128 0x1
 4938 030b 3F       		.byte	0x3f
 4939 030c 0D       		.uleb128 0xd
 4940 030d 01       		.uleb128 0x1
 4941 030e 50       		.byte	0x50
 4942 030f 02       		.uleb128 0x2
 4943 0310 08       		.byte	0x8
 4944 0311 84       		.byte	0x84
 4945 0312 00       		.byte	0
 4946 0313 0C       		.uleb128 0xc
 4947 0314 76000000 		.4byte	.LVL26
 4948 0318 D5000000 		.4byte	0xd5
 4949 031c 2D030000 		.4byte	0x32d
 4950 0320 0D       		.uleb128 0xd
 4951 0321 01       		.uleb128 0x1
 4952 0322 51       		.byte	0x51
 4953 0323 02       		.uleb128 0x2
 4954 0324 08       		.byte	0x8
 4955 0325 32       		.byte	0x32
 4956 0326 0D       		.uleb128 0xd
 4957 0327 01       		.uleb128 0x1
 4958 0328 50       		.byte	0x50
 4959 0329 02       		.uleb128 0x2
 4960 032a 08       		.byte	0x8
 4961 032b 83       		.byte	0x83
 4962 032c 00       		.byte	0
 4963 032d 0C       		.uleb128 0xc
 4964 032e 7E000000 		.4byte	.LVL27
 4965 0332 D5000000 		.4byte	0xd5
 4966 0336 46030000 		.4byte	0x346
 4967 033a 0D       		.uleb128 0xd
 4968 033b 01       		.uleb128 0x1
 4969 033c 51       		.byte	0x51
 4970 033d 01       		.uleb128 0x1
 4971 033e 30       		.byte	0x30
 4972 033f 0D       		.uleb128 0xd
 4973 0340 01       		.uleb128 0x1
 4974 0341 50       		.byte	0x50
 4975 0342 02       		.uleb128 0x2
 4976 0343 08       		.byte	0x8
 4977 0344 89       		.byte	0x89
ARM GAS  C:\Users\Andres\AppData\Local\Temp\ccSsqcxd.s 			page 111


 4978 0345 00       		.byte	0
 4979 0346 12       		.uleb128 0x12
 4980 0347 86000000 		.4byte	.LVL28
 4981 034b D5000000 		.4byte	0xd5
 4982 034f 0D       		.uleb128 0xd
 4983 0350 01       		.uleb128 0x1
 4984 0351 51       		.byte	0x51
 4985 0352 02       		.uleb128 0x2
 4986 0353 08       		.byte	0x8
 4987 0354 81       		.byte	0x81
 4988 0355 0D       		.uleb128 0xd
 4989 0356 01       		.uleb128 0x1
 4990 0357 50       		.byte	0x50
 4991 0358 02       		.uleb128 0x2
 4992 0359 08       		.byte	0x8
 4993 035a 8A       		.byte	0x8a
 4994 035b 00       		.byte	0
 4995 035c 00       		.byte	0
 4996 035d 13       		.uleb128 0x13
 4997 035e B3010000 		.4byte	.LASF24
 4998 0362 01       		.byte	0x1
 4999 0363 35       		.byte	0x35
 5000 0364 64000000 		.4byte	0x64
 5001 0368 00000000 		.4byte	.LFB39
 5002 036c 30000000 		.4byte	.LFE39-.LFB39
 5003 0370 01       		.uleb128 0x1
 5004 0371 9C       		.byte	0x9c
 5005 0372 F5030000 		.4byte	0x3f5
 5006 0376 11       		.uleb128 0x11
 5007 0377 73040000 		.4byte	.LASF22
 5008 037b 01       		.byte	0x1
 5009 037c 36       		.byte	0x36
 5010 037d 5D000000 		.4byte	0x5d
 5011 0381 81000000 		.4byte	.LLST4
 5012 0385 11       		.uleb128 0x11
 5013 0386 1A030000 		.4byte	.LASF19
 5014 038a 01       		.byte	0x1
 5015 038b 39       		.byte	0x39
 5016 038c 64000000 		.4byte	0x64
 5017 0390 94000000 		.4byte	.LLST5
 5018 0394 0C       		.uleb128 0xc
 5019 0395 08000000 		.4byte	.LVL29
 5020 0399 53010000 		.4byte	0x153
 5021 039d A8030000 		.4byte	0x3a8
 5022 03a1 0D       		.uleb128 0xd
 5023 03a2 01       		.uleb128 0x1
 5024 03a3 50       		.byte	0x50
 5025 03a4 02       		.uleb128 0x2
 5026 03a5 08       		.byte	0x8
 5027 03a6 80       		.byte	0x80
 5028 03a7 00       		.byte	0
 5029 03a8 0C       		.uleb128 0xc
 5030 03a9 14000000 		.4byte	.LVL31
 5031 03ad D5000000 		.4byte	0xd5
 5032 03b1 BC030000 		.4byte	0x3bc
 5033 03b5 0D       		.uleb128 0xd
 5034 03b6 01       		.uleb128 0x1
ARM GAS  C:\Users\Andres\AppData\Local\Temp\ccSsqcxd.s 			page 112


 5035 03b7 50       		.byte	0x50
 5036 03b8 02       		.uleb128 0x2
 5037 03b9 08       		.byte	0x8
 5038 03ba 80       		.byte	0x80
 5039 03bb 00       		.byte	0
 5040 03bc 0C       		.uleb128 0xc
 5041 03bd 1A000000 		.4byte	.LVL32
 5042 03c1 53010000 		.4byte	0x153
 5043 03c5 D0030000 		.4byte	0x3d0
 5044 03c9 0D       		.uleb128 0xd
 5045 03ca 01       		.uleb128 0x1
 5046 03cb 50       		.byte	0x50
 5047 03cc 02       		.uleb128 0x2
 5048 03cd 08       		.byte	0x8
 5049 03ce 80       		.byte	0x80
 5050 03cf 00       		.byte	0
 5051 03d0 0C       		.uleb128 0xc
 5052 03d1 24000000 		.4byte	.LVL33
 5053 03d5 53010000 		.4byte	0x153
 5054 03d9 E4030000 		.4byte	0x3e4
 5055 03dd 0D       		.uleb128 0xd
 5056 03de 01       		.uleb128 0x1
 5057 03df 50       		.byte	0x50
 5058 03e0 02       		.uleb128 0x2
 5059 03e1 08       		.byte	0x8
 5060 03e2 87       		.byte	0x87
 5061 03e3 00       		.byte	0
 5062 03e4 12       		.uleb128 0x12
 5063 03e5 2C000000 		.4byte	.LVL35
 5064 03e9 53010000 		.4byte	0x153
 5065 03ed 0D       		.uleb128 0xd
 5066 03ee 01       		.uleb128 0x1
 5067 03ef 50       		.byte	0x50
 5068 03f0 02       		.uleb128 0x2
 5069 03f1 08       		.byte	0x8
 5070 03f2 88       		.byte	0x88
 5071 03f3 00       		.byte	0
 5072 03f4 00       		.byte	0
 5073 03f5 13       		.uleb128 0x13
 5074 03f6 CC000000 		.4byte	.LASF25
 5075 03fa 01       		.byte	0x1
 5076 03fb 3E       		.byte	0x3e
 5077 03fc 64000000 		.4byte	0x64
 5078 0400 00000000 		.4byte	.LFB40
 5079 0404 30000000 		.4byte	.LFE40-.LFB40
 5080 0408 01       		.uleb128 0x1
 5081 0409 9C       		.byte	0x9c
 5082 040a 8D040000 		.4byte	0x48d
 5083 040e 11       		.uleb128 0x11
 5084 040f 73040000 		.4byte	.LASF22
 5085 0413 01       		.byte	0x1
 5086 0414 3F       		.byte	0x3f
 5087 0415 5D000000 		.4byte	0x5d
 5088 0419 B2000000 		.4byte	.LLST6
 5089 041d 11       		.uleb128 0x11
 5090 041e 1A030000 		.4byte	.LASF19
 5091 0422 01       		.byte	0x1
ARM GAS  C:\Users\Andres\AppData\Local\Temp\ccSsqcxd.s 			page 113


 5092 0423 42       		.byte	0x42
 5093 0424 64000000 		.4byte	0x64
 5094 0428 C5000000 		.4byte	.LLST7
 5095 042c 0C       		.uleb128 0xc
 5096 042d 08000000 		.4byte	.LVL37
 5097 0431 53010000 		.4byte	0x153
 5098 0435 40040000 		.4byte	0x440
 5099 0439 0D       		.uleb128 0xd
 5100 043a 01       		.uleb128 0x1
 5101 043b 50       		.byte	0x50
 5102 043c 02       		.uleb128 0x2
 5103 043d 08       		.byte	0x8
 5104 043e 80       		.byte	0x80
 5105 043f 00       		.byte	0
 5106 0440 0C       		.uleb128 0xc
 5107 0441 14000000 		.4byte	.LVL39
 5108 0445 D5000000 		.4byte	0xd5
 5109 0449 54040000 		.4byte	0x454
 5110 044d 0D       		.uleb128 0xd
 5111 044e 01       		.uleb128 0x1
 5112 044f 50       		.byte	0x50
 5113 0450 02       		.uleb128 0x2
 5114 0451 08       		.byte	0x8
 5115 0452 80       		.byte	0x80
 5116 0453 00       		.byte	0
 5117 0454 0C       		.uleb128 0xc
 5118 0455 1A000000 		.4byte	.LVL40
 5119 0459 53010000 		.4byte	0x153
 5120 045d 68040000 		.4byte	0x468
 5121 0461 0D       		.uleb128 0xd
 5122 0462 01       		.uleb128 0x1
 5123 0463 50       		.byte	0x50
 5124 0464 02       		.uleb128 0x2
 5125 0465 08       		.byte	0x8
 5126 0466 80       		.byte	0x80
 5127 0467 00       		.byte	0
 5128 0468 0C       		.uleb128 0xc
 5129 0469 24000000 		.4byte	.LVL41
 5130 046d 53010000 		.4byte	0x153
 5131 0471 7C040000 		.4byte	0x47c
 5132 0475 0D       		.uleb128 0xd
 5133 0476 01       		.uleb128 0x1
 5134 0477 50       		.byte	0x50
 5135 0478 02       		.uleb128 0x2
 5136 0479 08       		.byte	0x8
 5137 047a 85       		.byte	0x85
 5138 047b 00       		.byte	0
 5139 047c 12       		.uleb128 0x12
 5140 047d 2C000000 		.4byte	.LVL43
 5141 0481 53010000 		.4byte	0x153
 5142 0485 0D       		.uleb128 0xd
 5143 0486 01       		.uleb128 0x1
 5144 0487 50       		.byte	0x50
 5145 0488 02       		.uleb128 0x2
 5146 0489 08       		.byte	0x8
 5147 048a 86       		.byte	0x86
 5148 048b 00       		.byte	0
ARM GAS  C:\Users\Andres\AppData\Local\Temp\ccSsqcxd.s 			page 114


 5149 048c 00       		.byte	0
 5150 048d 09       		.uleb128 0x9
 5151 048e 11070000 		.4byte	.LASF26
 5152 0492 02       		.byte	0x2
 5153 0493 06       		.byte	0x6
 5154 0494 00000000 		.4byte	.LFB41
 5155 0498 22000000 		.4byte	.LFE41-.LFB41
 5156 049c 01       		.uleb128 0x1
 5157 049d 9C       		.byte	0x9c
 5158 049e FB040000 		.4byte	0x4fb
 5159 04a2 0A       		.uleb128 0xa
 5160 04a3 94050000 		.4byte	.LASF18
 5161 04a7 02       		.byte	0x2
 5162 04a8 06       		.byte	0x6
 5163 04a9 5D000000 		.4byte	0x5d
 5164 04ad E3000000 		.4byte	.LLST8
 5165 04b1 0A       		.uleb128 0xa
 5166 04b2 1A030000 		.4byte	.LASF19
 5167 04b6 02       		.byte	0x2
 5168 04b7 06       		.byte	0x6
 5169 04b8 5D000000 		.4byte	0x5d
 5170 04bc 04010000 		.4byte	.LLST9
 5171 04c0 0B       		.uleb128 0xb
 5172 04c1 D6020000 		.4byte	.LASF20
 5173 04c5 02       		.byte	0x2
 5174 04c6 07       		.byte	0x7
 5175 04c7 43010000 		.4byte	0x143
 5176 04cb 02       		.uleb128 0x2
 5177 04cc 91       		.byte	0x91
 5178 04cd 74       		.sleb128 -12
 5179 04ce 0C       		.uleb128 0xc
 5180 04cf 16000000 		.4byte	.LVL48
 5181 04d3 3C330000 		.4byte	0x333c
 5182 04d7 F1040000 		.4byte	0x4f1
 5183 04db 0D       		.uleb128 0xd
 5184 04dc 01       		.uleb128 0x1
 5185 04dd 53       		.byte	0x53
 5186 04de 01       		.uleb128 0x1
 5187 04df 30       		.byte	0x30
 5188 04e0 0D       		.uleb128 0xd
 5189 04e1 01       		.uleb128 0x1
 5190 04e2 52       		.byte	0x52
 5191 04e3 01       		.uleb128 0x1
 5192 04e4 32       		.byte	0x32
 5193 04e5 0D       		.uleb128 0xd
 5194 04e6 01       		.uleb128 0x1
 5195 04e7 51       		.byte	0x51
 5196 04e8 02       		.uleb128 0x2
 5197 04e9 91       		.byte	0x91
 5198 04ea 74       		.sleb128 -12
 5199 04eb 0D       		.uleb128 0xd
 5200 04ec 01       		.uleb128 0x1
 5201 04ed 50       		.byte	0x50
 5202 04ee 01       		.uleb128 0x1
 5203 04ef 43       		.byte	0x43
 5204 04f0 00       		.byte	0
 5205 04f1 0E       		.uleb128 0xe
ARM GAS  C:\Users\Andres\AppData\Local\Temp\ccSsqcxd.s 			page 115


 5206 04f2 1A000000 		.4byte	.LVL49
 5207 04f6 61330000 		.4byte	0x3361
 5208 04fa 00       		.byte	0
 5209 04fb 0F       		.uleb128 0xf
 5210 04fc 99020000 		.4byte	.LASF28
 5211 0500 02       		.byte	0x2
 5212 0501 0F       		.byte	0xf
 5213 0502 5D000000 		.4byte	0x5d
 5214 0506 00000000 		.4byte	.LFB42
 5215 050a 3C000000 		.4byte	.LFE42-.LFB42
 5216 050e 01       		.uleb128 0x1
 5217 050f 9C       		.byte	0x9c
 5218 0510 98050000 		.4byte	0x598
 5219 0514 0A       		.uleb128 0xa
 5220 0515 94050000 		.4byte	.LASF18
 5221 0519 02       		.byte	0x2
 5222 051a 0F       		.byte	0xf
 5223 051b 5D000000 		.4byte	0x5d
 5224 051f 25010000 		.4byte	.LLST10
 5225 0523 0B       		.uleb128 0xb
 5226 0524 D6020000 		.4byte	.LASF20
 5227 0528 02       		.byte	0x2
 5228 0529 10       		.byte	0x10
 5229 052a F0010000 		.4byte	0x1f0
 5230 052e 02       		.uleb128 0x2
 5231 052f 91       		.byte	0x91
 5232 0530 74       		.sleb128 -12
 5233 0531 0B       		.uleb128 0xb
 5234 0532 65050000 		.4byte	.LASF21
 5235 0536 02       		.byte	0x2
 5236 0537 12       		.byte	0x12
 5237 0538 F0010000 		.4byte	0x1f0
 5238 053c 02       		.uleb128 0x2
 5239 053d 91       		.byte	0x91
 5240 053e 70       		.sleb128 -16
 5241 053f 0C       		.uleb128 0xc
 5242 0540 18000000 		.4byte	.LVL52
 5243 0544 3C330000 		.4byte	0x333c
 5244 0548 62050000 		.4byte	0x562
 5245 054c 0D       		.uleb128 0xd
 5246 054d 01       		.uleb128 0x1
 5247 054e 53       		.byte	0x53
 5248 054f 01       		.uleb128 0x1
 5249 0550 32       		.byte	0x32
 5250 0551 0D       		.uleb128 0xd
 5251 0552 01       		.uleb128 0x1
 5252 0553 52       		.byte	0x52
 5253 0554 01       		.uleb128 0x1
 5254 0555 31       		.byte	0x31
 5255 0556 0D       		.uleb128 0xd
 5256 0557 01       		.uleb128 0x1
 5257 0558 51       		.byte	0x51
 5258 0559 02       		.uleb128 0x2
 5259 055a 91       		.byte	0x91
 5260 055b 74       		.sleb128 -12
 5261 055c 0D       		.uleb128 0xd
 5262 055d 01       		.uleb128 0x1
ARM GAS  C:\Users\Andres\AppData\Local\Temp\ccSsqcxd.s 			page 116


 5263 055e 50       		.byte	0x50
 5264 055f 01       		.uleb128 0x1
 5265 0560 43       		.byte	0x43
 5266 0561 00       		.byte	0
 5267 0562 0E       		.uleb128 0xe
 5268 0563 1C000000 		.4byte	.LVL53
 5269 0567 61330000 		.4byte	0x3361
 5270 056b 0C       		.uleb128 0xc
 5271 056c 2C000000 		.4byte	.LVL54
 5272 0570 6D330000 		.4byte	0x336d
 5273 0574 8E050000 		.4byte	0x58e
 5274 0578 0D       		.uleb128 0xd
 5275 0579 01       		.uleb128 0x1
 5276 057a 53       		.byte	0x53
 5277 057b 01       		.uleb128 0x1
 5278 057c 31       		.byte	0x31
 5279 057d 0D       		.uleb128 0xd
 5280 057e 01       		.uleb128 0x1
 5281 057f 52       		.byte	0x52
 5282 0580 01       		.uleb128 0x1
 5283 0581 31       		.byte	0x31
 5284 0582 0D       		.uleb128 0xd
 5285 0583 01       		.uleb128 0x1
 5286 0584 51       		.byte	0x51
 5287 0585 02       		.uleb128 0x2
 5288 0586 7D       		.byte	0x7d
 5289 0587 00       		.sleb128 0
 5290 0588 0D       		.uleb128 0xd
 5291 0589 01       		.uleb128 0x1
 5292 058a 50       		.byte	0x50
 5293 058b 01       		.uleb128 0x1
 5294 058c 43       		.byte	0x43
 5295 058d 00       		.byte	0
 5296 058e 0E       		.uleb128 0xe
 5297 058f 30000000 		.4byte	.LVL55
 5298 0593 61330000 		.4byte	0x3361
 5299 0597 00       		.byte	0
 5300 0598 10       		.uleb128 0x10
 5301 0599 20040000 		.4byte	.LASF30
 5302 059d 02       		.byte	0x2
 5303 059e 1A       		.byte	0x1a
 5304 059f 00000000 		.4byte	.LFB43
 5305 05a3 8C000000 		.4byte	.LFE43-.LFB43
 5306 05a7 01       		.uleb128 0x1
 5307 05a8 9C       		.byte	0x9c
 5308 05a9 F5060000 		.4byte	0x6f5
 5309 05ad 11       		.uleb128 0x11
 5310 05ae 73040000 		.4byte	.LASF22
 5311 05b2 02       		.byte	0x2
 5312 05b3 1B       		.byte	0x1b
 5313 05b4 5D000000 		.4byte	0x5d
 5314 05b8 46010000 		.4byte	.LLST11
 5315 05bc 0C       		.uleb128 0xc
 5316 05bd 08000000 		.4byte	.LVL56
 5317 05c1 FB040000 		.4byte	0x4fb
 5318 05c5 D0050000 		.4byte	0x5d0
 5319 05c9 0D       		.uleb128 0xd
ARM GAS  C:\Users\Andres\AppData\Local\Temp\ccSsqcxd.s 			page 117


 5320 05ca 01       		.uleb128 0x1
 5321 05cb 50       		.byte	0x50
 5322 05cc 02       		.uleb128 0x2
 5323 05cd 08       		.byte	0x8
 5324 05ce 81       		.byte	0x81
 5325 05cf 00       		.byte	0
 5326 05d0 0C       		.uleb128 0xc
 5327 05d1 12000000 		.4byte	.LVL58
 5328 05d5 92330000 		.4byte	0x3392
 5329 05d9 E3050000 		.4byte	0x5e3
 5330 05dd 0D       		.uleb128 0xd
 5331 05de 01       		.uleb128 0x1
 5332 05df 50       		.byte	0x50
 5333 05e0 01       		.uleb128 0x1
 5334 05e1 31       		.byte	0x31
 5335 05e2 00       		.byte	0
 5336 05e3 0C       		.uleb128 0xc
 5337 05e4 1C000000 		.4byte	.LVL59
 5338 05e8 2B330000 		.4byte	0x332b
 5339 05ec F7050000 		.4byte	0x5f7
 5340 05f0 0D       		.uleb128 0xd
 5341 05f1 01       		.uleb128 0x1
 5342 05f2 50       		.byte	0x50
 5343 05f3 02       		.uleb128 0x2
 5344 05f4 74       		.byte	0x74
 5345 05f5 00       		.sleb128 0
 5346 05f6 00       		.byte	0
 5347 05f7 0C       		.uleb128 0xc
 5348 05f8 22000000 		.4byte	.LVL60
 5349 05fc 92330000 		.4byte	0x3392
 5350 0600 0A060000 		.4byte	0x60a
 5351 0604 0D       		.uleb128 0xd
 5352 0605 01       		.uleb128 0x1
 5353 0606 50       		.byte	0x50
 5354 0607 01       		.uleb128 0x1
 5355 0608 30       		.byte	0x30
 5356 0609 00       		.byte	0
 5357 060a 0C       		.uleb128 0xc
 5358 060b 28000000 		.4byte	.LVL61
 5359 060f 2B330000 		.4byte	0x332b
 5360 0613 1E060000 		.4byte	0x61e
 5361 0617 0D       		.uleb128 0xd
 5362 0618 01       		.uleb128 0x1
 5363 0619 50       		.byte	0x50
 5364 061a 02       		.uleb128 0x2
 5365 061b 74       		.byte	0x74
 5366 061c 00       		.sleb128 0
 5367 061d 00       		.byte	0
 5368 061e 0C       		.uleb128 0xc
 5369 061f 30000000 		.4byte	.LVL64
 5370 0623 92330000 		.4byte	0x3392
 5371 0627 31060000 		.4byte	0x631
 5372 062b 0D       		.uleb128 0xd
 5373 062c 01       		.uleb128 0x1
 5374 062d 50       		.byte	0x50
 5375 062e 01       		.uleb128 0x1
 5376 062f 30       		.byte	0x30
ARM GAS  C:\Users\Andres\AppData\Local\Temp\ccSsqcxd.s 			page 118


 5377 0630 00       		.byte	0
 5378 0631 0C       		.uleb128 0xc
 5379 0632 3E000000 		.4byte	.LVL65
 5380 0636 92330000 		.4byte	0x3392
 5381 063a 44060000 		.4byte	0x644
 5382 063e 0D       		.uleb128 0xd
 5383 063f 01       		.uleb128 0x1
 5384 0640 50       		.byte	0x50
 5385 0641 01       		.uleb128 0x1
 5386 0642 31       		.byte	0x31
 5387 0643 00       		.byte	0
 5388 0644 0C       		.uleb128 0xc
 5389 0645 44000000 		.4byte	.LVL66
 5390 0649 2B330000 		.4byte	0x332b
 5391 064d 58060000 		.4byte	0x658
 5392 0651 0D       		.uleb128 0xd
 5393 0652 01       		.uleb128 0x1
 5394 0653 50       		.byte	0x50
 5395 0654 02       		.uleb128 0x2
 5396 0655 08       		.byte	0x8
 5397 0656 C8       		.byte	0xc8
 5398 0657 00       		.byte	0
 5399 0658 0C       		.uleb128 0xc
 5400 0659 4A000000 		.4byte	.LVL67
 5401 065d 92330000 		.4byte	0x3392
 5402 0661 6B060000 		.4byte	0x66b
 5403 0665 0D       		.uleb128 0xd
 5404 0666 01       		.uleb128 0x1
 5405 0667 50       		.byte	0x50
 5406 0668 01       		.uleb128 0x1
 5407 0669 30       		.byte	0x30
 5408 066a 00       		.byte	0
 5409 066b 0C       		.uleb128 0xc
 5410 066c 50000000 		.4byte	.LVL68
 5411 0670 2B330000 		.4byte	0x332b
 5412 0674 7F060000 		.4byte	0x67f
 5413 0678 0D       		.uleb128 0xd
 5414 0679 01       		.uleb128 0x1
 5415 067a 50       		.byte	0x50
 5416 067b 02       		.uleb128 0x2
 5417 067c 08       		.byte	0x8
 5418 067d C8       		.byte	0xc8
 5419 067e 00       		.byte	0
 5420 067f 0C       		.uleb128 0xc
 5421 0680 66000000 		.4byte	.LVL69
 5422 0684 92330000 		.4byte	0x3392
 5423 0688 92060000 		.4byte	0x692
 5424 068c 0D       		.uleb128 0xd
 5425 068d 01       		.uleb128 0x1
 5426 068e 50       		.byte	0x50
 5427 068f 01       		.uleb128 0x1
 5428 0690 30       		.byte	0x30
 5429 0691 00       		.byte	0
 5430 0692 0C       		.uleb128 0xc
 5431 0693 6E000000 		.4byte	.LVL70
 5432 0697 8D040000 		.4byte	0x48d
 5433 069b AB060000 		.4byte	0x6ab
ARM GAS  C:\Users\Andres\AppData\Local\Temp\ccSsqcxd.s 			page 119


 5434 069f 0D       		.uleb128 0xd
 5435 06a0 01       		.uleb128 0x1
 5436 06a1 51       		.byte	0x51
 5437 06a2 01       		.uleb128 0x1
 5438 06a3 3F       		.byte	0x3f
 5439 06a4 0D       		.uleb128 0xd
 5440 06a5 01       		.uleb128 0x1
 5441 06a6 50       		.byte	0x50
 5442 06a7 02       		.uleb128 0x2
 5443 06a8 08       		.byte	0x8
 5444 06a9 84       		.byte	0x84
 5445 06aa 00       		.byte	0
 5446 06ab 0C       		.uleb128 0xc
 5447 06ac 76000000 		.4byte	.LVL71
 5448 06b0 8D040000 		.4byte	0x48d
 5449 06b4 C5060000 		.4byte	0x6c5
 5450 06b8 0D       		.uleb128 0xd
 5451 06b9 01       		.uleb128 0x1
 5452 06ba 51       		.byte	0x51
 5453 06bb 02       		.uleb128 0x2
 5454 06bc 08       		.byte	0x8
 5455 06bd 32       		.byte	0x32
 5456 06be 0D       		.uleb128 0xd
 5457 06bf 01       		.uleb128 0x1
 5458 06c0 50       		.byte	0x50
 5459 06c1 02       		.uleb128 0x2
 5460 06c2 08       		.byte	0x8
 5461 06c3 83       		.byte	0x83
 5462 06c4 00       		.byte	0
 5463 06c5 0C       		.uleb128 0xc
 5464 06c6 7E000000 		.4byte	.LVL72
 5465 06ca 8D040000 		.4byte	0x48d
 5466 06ce DE060000 		.4byte	0x6de
 5467 06d2 0D       		.uleb128 0xd
 5468 06d3 01       		.uleb128 0x1
 5469 06d4 51       		.byte	0x51
 5470 06d5 01       		.uleb128 0x1
 5471 06d6 30       		.byte	0x30
 5472 06d7 0D       		.uleb128 0xd
 5473 06d8 01       		.uleb128 0x1
 5474 06d9 50       		.byte	0x50
 5475 06da 02       		.uleb128 0x2
 5476 06db 08       		.byte	0x8
 5477 06dc 89       		.byte	0x89
 5478 06dd 00       		.byte	0
 5479 06de 12       		.uleb128 0x12
 5480 06df 86000000 		.4byte	.LVL73
 5481 06e3 8D040000 		.4byte	0x48d
 5482 06e7 0D       		.uleb128 0xd
 5483 06e8 01       		.uleb128 0x1
 5484 06e9 51       		.byte	0x51
 5485 06ea 02       		.uleb128 0x2
 5486 06eb 08       		.byte	0x8
 5487 06ec 81       		.byte	0x81
 5488 06ed 0D       		.uleb128 0xd
 5489 06ee 01       		.uleb128 0x1
 5490 06ef 50       		.byte	0x50
ARM GAS  C:\Users\Andres\AppData\Local\Temp\ccSsqcxd.s 			page 120


 5491 06f0 02       		.uleb128 0x2
 5492 06f1 08       		.byte	0x8
 5493 06f2 8A       		.byte	0x8a
 5494 06f3 00       		.byte	0
 5495 06f4 00       		.byte	0
 5496 06f5 13       		.uleb128 0x13
 5497 06f6 C3010000 		.4byte	.LASF31
 5498 06fa 02       		.byte	0x2
 5499 06fb 35       		.byte	0x35
 5500 06fc 64000000 		.4byte	0x64
 5501 0700 00000000 		.4byte	.LFB44
 5502 0704 30000000 		.4byte	.LFE44-.LFB44
 5503 0708 01       		.uleb128 0x1
 5504 0709 9C       		.byte	0x9c
 5505 070a 8D070000 		.4byte	0x78d
 5506 070e 11       		.uleb128 0x11
 5507 070f 73040000 		.4byte	.LASF22
 5508 0713 02       		.byte	0x2
 5509 0714 36       		.byte	0x36
 5510 0715 5D000000 		.4byte	0x5d
 5511 0719 64010000 		.4byte	.LLST12
 5512 071d 11       		.uleb128 0x11
 5513 071e 1A030000 		.4byte	.LASF19
 5514 0722 02       		.byte	0x2
 5515 0723 39       		.byte	0x39
 5516 0724 64000000 		.4byte	0x64
 5517 0728 77010000 		.4byte	.LLST13
 5518 072c 0C       		.uleb128 0xc
 5519 072d 08000000 		.4byte	.LVL74
 5520 0731 FB040000 		.4byte	0x4fb
 5521 0735 40070000 		.4byte	0x740
 5522 0739 0D       		.uleb128 0xd
 5523 073a 01       		.uleb128 0x1
 5524 073b 50       		.byte	0x50
 5525 073c 02       		.uleb128 0x2
 5526 073d 08       		.byte	0x8
 5527 073e 80       		.byte	0x80
 5528 073f 00       		.byte	0
 5529 0740 0C       		.uleb128 0xc
 5530 0741 14000000 		.4byte	.LVL76
 5531 0745 8D040000 		.4byte	0x48d
 5532 0749 54070000 		.4byte	0x754
 5533 074d 0D       		.uleb128 0xd
 5534 074e 01       		.uleb128 0x1
 5535 074f 50       		.byte	0x50
 5536 0750 02       		.uleb128 0x2
 5537 0751 08       		.byte	0x8
 5538 0752 80       		.byte	0x80
 5539 0753 00       		.byte	0
 5540 0754 0C       		.uleb128 0xc
 5541 0755 1A000000 		.4byte	.LVL77
 5542 0759 FB040000 		.4byte	0x4fb
 5543 075d 68070000 		.4byte	0x768
 5544 0761 0D       		.uleb128 0xd
 5545 0762 01       		.uleb128 0x1
 5546 0763 50       		.byte	0x50
 5547 0764 02       		.uleb128 0x2
ARM GAS  C:\Users\Andres\AppData\Local\Temp\ccSsqcxd.s 			page 121


 5548 0765 08       		.byte	0x8
 5549 0766 80       		.byte	0x80
 5550 0767 00       		.byte	0
 5551 0768 0C       		.uleb128 0xc
 5552 0769 24000000 		.4byte	.LVL78
 5553 076d FB040000 		.4byte	0x4fb
 5554 0771 7C070000 		.4byte	0x77c
 5555 0775 0D       		.uleb128 0xd
 5556 0776 01       		.uleb128 0x1
 5557 0777 50       		.byte	0x50
 5558 0778 02       		.uleb128 0x2
 5559 0779 08       		.byte	0x8
 5560 077a 87       		.byte	0x87
 5561 077b 00       		.byte	0
 5562 077c 12       		.uleb128 0x12
 5563 077d 2C000000 		.4byte	.LVL80
 5564 0781 FB040000 		.4byte	0x4fb
 5565 0785 0D       		.uleb128 0xd
 5566 0786 01       		.uleb128 0x1
 5567 0787 50       		.byte	0x50
 5568 0788 02       		.uleb128 0x2
 5569 0789 08       		.byte	0x8
 5570 078a 88       		.byte	0x88
 5571 078b 00       		.byte	0
 5572 078c 00       		.byte	0
 5573 078d 13       		.uleb128 0x13
 5574 078e E9060000 		.4byte	.LASF32
 5575 0792 02       		.byte	0x2
 5576 0793 3E       		.byte	0x3e
 5577 0794 5D000000 		.4byte	0x5d
 5578 0798 00000000 		.4byte	.LFB45
 5579 079c 30000000 		.4byte	.LFE45-.LFB45
 5580 07a0 01       		.uleb128 0x1
 5581 07a1 9C       		.byte	0x9c
 5582 07a2 25080000 		.4byte	0x825
 5583 07a6 11       		.uleb128 0x11
 5584 07a7 73040000 		.4byte	.LASF22
 5585 07ab 02       		.byte	0x2
 5586 07ac 3F       		.byte	0x3f
 5587 07ad 5D000000 		.4byte	0x5d
 5588 07b1 95010000 		.4byte	.LLST14
 5589 07b5 11       		.uleb128 0x11
 5590 07b6 1A030000 		.4byte	.LASF19
 5591 07ba 02       		.byte	0x2
 5592 07bb 42       		.byte	0x42
 5593 07bc 64000000 		.4byte	0x64
 5594 07c0 A8010000 		.4byte	.LLST15
 5595 07c4 0C       		.uleb128 0xc
 5596 07c5 08000000 		.4byte	.LVL82
 5597 07c9 FB040000 		.4byte	0x4fb
 5598 07cd D8070000 		.4byte	0x7d8
 5599 07d1 0D       		.uleb128 0xd
 5600 07d2 01       		.uleb128 0x1
 5601 07d3 50       		.byte	0x50
 5602 07d4 02       		.uleb128 0x2
 5603 07d5 08       		.byte	0x8
 5604 07d6 80       		.byte	0x80
ARM GAS  C:\Users\Andres\AppData\Local\Temp\ccSsqcxd.s 			page 122


 5605 07d7 00       		.byte	0
 5606 07d8 0C       		.uleb128 0xc
 5607 07d9 14000000 		.4byte	.LVL84
 5608 07dd 8D040000 		.4byte	0x48d
 5609 07e1 EC070000 		.4byte	0x7ec
 5610 07e5 0D       		.uleb128 0xd
 5611 07e6 01       		.uleb128 0x1
 5612 07e7 50       		.byte	0x50
 5613 07e8 02       		.uleb128 0x2
 5614 07e9 08       		.byte	0x8
 5615 07ea 80       		.byte	0x80
 5616 07eb 00       		.byte	0
 5617 07ec 0C       		.uleb128 0xc
 5618 07ed 1A000000 		.4byte	.LVL85
 5619 07f1 FB040000 		.4byte	0x4fb
 5620 07f5 00080000 		.4byte	0x800
 5621 07f9 0D       		.uleb128 0xd
 5622 07fa 01       		.uleb128 0x1
 5623 07fb 50       		.byte	0x50
 5624 07fc 02       		.uleb128 0x2
 5625 07fd 08       		.byte	0x8
 5626 07fe 80       		.byte	0x80
 5627 07ff 00       		.byte	0
 5628 0800 0C       		.uleb128 0xc
 5629 0801 24000000 		.4byte	.LVL86
 5630 0805 FB040000 		.4byte	0x4fb
 5631 0809 14080000 		.4byte	0x814
 5632 080d 0D       		.uleb128 0xd
 5633 080e 01       		.uleb128 0x1
 5634 080f 50       		.byte	0x50
 5635 0810 02       		.uleb128 0x2
 5636 0811 08       		.byte	0x8
 5637 0812 85       		.byte	0x85
 5638 0813 00       		.byte	0
 5639 0814 12       		.uleb128 0x12
 5640 0815 2C000000 		.4byte	.LVL88
 5641 0819 FB040000 		.4byte	0x4fb
 5642 081d 0D       		.uleb128 0xd
 5643 081e 01       		.uleb128 0x1
 5644 081f 50       		.byte	0x50
 5645 0820 02       		.uleb128 0x2
 5646 0821 08       		.byte	0x8
 5647 0822 86       		.byte	0x86
 5648 0823 00       		.byte	0
 5649 0824 00       		.byte	0
 5650 0825 09       		.uleb128 0x9
 5651 0826 1D070000 		.4byte	.LASF33
 5652 082a 03       		.byte	0x3
 5653 082b 06       		.byte	0x6
 5654 082c 00000000 		.4byte	.LFB46
 5655 0830 22000000 		.4byte	.LFE46-.LFB46
 5656 0834 01       		.uleb128 0x1
 5657 0835 9C       		.byte	0x9c
 5658 0836 93080000 		.4byte	0x893
 5659 083a 0A       		.uleb128 0xa
 5660 083b 94050000 		.4byte	.LASF18
 5661 083f 03       		.byte	0x3
ARM GAS  C:\Users\Andres\AppData\Local\Temp\ccSsqcxd.s 			page 123


 5662 0840 06       		.byte	0x6
 5663 0841 5D000000 		.4byte	0x5d
 5664 0845 C6010000 		.4byte	.LLST16
 5665 0849 0A       		.uleb128 0xa
 5666 084a 1A030000 		.4byte	.LASF19
 5667 084e 03       		.byte	0x3
 5668 084f 06       		.byte	0x6
 5669 0850 5D000000 		.4byte	0x5d
 5670 0854 E7010000 		.4byte	.LLST17
 5671 0858 0B       		.uleb128 0xb
 5672 0859 D6020000 		.4byte	.LASF20
 5673 085d 03       		.byte	0x3
 5674 085e 07       		.byte	0x7
 5675 085f 43010000 		.4byte	0x143
 5676 0863 02       		.uleb128 0x2
 5677 0864 91       		.byte	0x91
 5678 0865 74       		.sleb128 -12
 5679 0866 0C       		.uleb128 0xc
 5680 0867 16000000 		.4byte	.LVL93
 5681 086b A3330000 		.4byte	0x33a3
 5682 086f 89080000 		.4byte	0x889
 5683 0873 0D       		.uleb128 0xd
 5684 0874 01       		.uleb128 0x1
 5685 0875 53       		.byte	0x53
 5686 0876 01       		.uleb128 0x1
 5687 0877 30       		.byte	0x30
 5688 0878 0D       		.uleb128 0xd
 5689 0879 01       		.uleb128 0x1
 5690 087a 52       		.byte	0x52
 5691 087b 01       		.uleb128 0x1
 5692 087c 32       		.byte	0x32
 5693 087d 0D       		.uleb128 0xd
 5694 087e 01       		.uleb128 0x1
 5695 087f 51       		.byte	0x51
 5696 0880 02       		.uleb128 0x2
 5697 0881 91       		.byte	0x91
 5698 0882 74       		.sleb128 -12
 5699 0883 0D       		.uleb128 0xd
 5700 0884 01       		.uleb128 0x1
 5701 0885 50       		.byte	0x50
 5702 0886 01       		.uleb128 0x1
 5703 0887 43       		.byte	0x43
 5704 0888 00       		.byte	0
 5705 0889 0E       		.uleb128 0xe
 5706 088a 1A000000 		.4byte	.LVL94
 5707 088e C8330000 		.4byte	0x33c8
 5708 0892 00       		.byte	0
 5709 0893 0F       		.uleb128 0xf
 5710 0894 A4020000 		.4byte	.LASF34
 5711 0898 03       		.byte	0x3
 5712 0899 0F       		.byte	0xf
 5713 089a 5D000000 		.4byte	0x5d
 5714 089e 00000000 		.4byte	.LFB47
 5715 08a2 3C000000 		.4byte	.LFE47-.LFB47
 5716 08a6 01       		.uleb128 0x1
 5717 08a7 9C       		.byte	0x9c
 5718 08a8 30090000 		.4byte	0x930
ARM GAS  C:\Users\Andres\AppData\Local\Temp\ccSsqcxd.s 			page 124


 5719 08ac 0A       		.uleb128 0xa
 5720 08ad 94050000 		.4byte	.LASF18
 5721 08b1 03       		.byte	0x3
 5722 08b2 0F       		.byte	0xf
 5723 08b3 5D000000 		.4byte	0x5d
 5724 08b7 08020000 		.4byte	.LLST18
 5725 08bb 0B       		.uleb128 0xb
 5726 08bc D6020000 		.4byte	.LASF20
 5727 08c0 03       		.byte	0x3
 5728 08c1 10       		.byte	0x10
 5729 08c2 F0010000 		.4byte	0x1f0
 5730 08c6 02       		.uleb128 0x2
 5731 08c7 91       		.byte	0x91
 5732 08c8 74       		.sleb128 -12
 5733 08c9 0B       		.uleb128 0xb
 5734 08ca 65050000 		.4byte	.LASF21
 5735 08ce 03       		.byte	0x3
 5736 08cf 12       		.byte	0x12
 5737 08d0 F0010000 		.4byte	0x1f0
 5738 08d4 02       		.uleb128 0x2
 5739 08d5 91       		.byte	0x91
 5740 08d6 70       		.sleb128 -16
 5741 08d7 0C       		.uleb128 0xc
 5742 08d8 18000000 		.4byte	.LVL97
 5743 08dc A3330000 		.4byte	0x33a3
 5744 08e0 FA080000 		.4byte	0x8fa
 5745 08e4 0D       		.uleb128 0xd
 5746 08e5 01       		.uleb128 0x1
 5747 08e6 53       		.byte	0x53
 5748 08e7 01       		.uleb128 0x1
 5749 08e8 32       		.byte	0x32
 5750 08e9 0D       		.uleb128 0xd
 5751 08ea 01       		.uleb128 0x1
 5752 08eb 52       		.byte	0x52
 5753 08ec 01       		.uleb128 0x1
 5754 08ed 31       		.byte	0x31
 5755 08ee 0D       		.uleb128 0xd
 5756 08ef 01       		.uleb128 0x1
 5757 08f0 51       		.byte	0x51
 5758 08f1 02       		.uleb128 0x2
 5759 08f2 91       		.byte	0x91
 5760 08f3 74       		.sleb128 -12
 5761 08f4 0D       		.uleb128 0xd
 5762 08f5 01       		.uleb128 0x1
 5763 08f6 50       		.byte	0x50
 5764 08f7 01       		.uleb128 0x1
 5765 08f8 43       		.byte	0x43
 5766 08f9 00       		.byte	0
 5767 08fa 0E       		.uleb128 0xe
 5768 08fb 1C000000 		.4byte	.LVL98
 5769 08ff C8330000 		.4byte	0x33c8
 5770 0903 0C       		.uleb128 0xc
 5771 0904 2C000000 		.4byte	.LVL99
 5772 0908 D4330000 		.4byte	0x33d4
 5773 090c 26090000 		.4byte	0x926
 5774 0910 0D       		.uleb128 0xd
 5775 0911 01       		.uleb128 0x1
ARM GAS  C:\Users\Andres\AppData\Local\Temp\ccSsqcxd.s 			page 125


 5776 0912 53       		.byte	0x53
 5777 0913 01       		.uleb128 0x1
 5778 0914 31       		.byte	0x31
 5779 0915 0D       		.uleb128 0xd
 5780 0916 01       		.uleb128 0x1
 5781 0917 52       		.byte	0x52
 5782 0918 01       		.uleb128 0x1
 5783 0919 31       		.byte	0x31
 5784 091a 0D       		.uleb128 0xd
 5785 091b 01       		.uleb128 0x1
 5786 091c 51       		.byte	0x51
 5787 091d 02       		.uleb128 0x2
 5788 091e 7D       		.byte	0x7d
 5789 091f 00       		.sleb128 0
 5790 0920 0D       		.uleb128 0xd
 5791 0921 01       		.uleb128 0x1
 5792 0922 50       		.byte	0x50
 5793 0923 01       		.uleb128 0x1
 5794 0924 43       		.byte	0x43
 5795 0925 00       		.byte	0
 5796 0926 0E       		.uleb128 0xe
 5797 0927 30000000 		.4byte	.LVL100
 5798 092b C8330000 		.4byte	0x33c8
 5799 092f 00       		.byte	0
 5800 0930 10       		.uleb128 0x10
 5801 0931 2B040000 		.4byte	.LASF35
 5802 0935 03       		.byte	0x3
 5803 0936 1A       		.byte	0x1a
 5804 0937 00000000 		.4byte	.LFB48
 5805 093b 8C000000 		.4byte	.LFE48-.LFB48
 5806 093f 01       		.uleb128 0x1
 5807 0940 9C       		.byte	0x9c
 5808 0941 8D0A0000 		.4byte	0xa8d
 5809 0945 11       		.uleb128 0x11
 5810 0946 73040000 		.4byte	.LASF22
 5811 094a 03       		.byte	0x3
 5812 094b 1B       		.byte	0x1b
 5813 094c 5D000000 		.4byte	0x5d
 5814 0950 29020000 		.4byte	.LLST19
 5815 0954 0C       		.uleb128 0xc
 5816 0955 08000000 		.4byte	.LVL101
 5817 0959 93080000 		.4byte	0x893
 5818 095d 68090000 		.4byte	0x968
 5819 0961 0D       		.uleb128 0xd
 5820 0962 01       		.uleb128 0x1
 5821 0963 50       		.byte	0x50
 5822 0964 02       		.uleb128 0x2
 5823 0965 08       		.byte	0x8
 5824 0966 81       		.byte	0x81
 5825 0967 00       		.byte	0
 5826 0968 0C       		.uleb128 0xc
 5827 0969 12000000 		.4byte	.LVL103
 5828 096d F9330000 		.4byte	0x33f9
 5829 0971 7B090000 		.4byte	0x97b
 5830 0975 0D       		.uleb128 0xd
 5831 0976 01       		.uleb128 0x1
 5832 0977 50       		.byte	0x50
ARM GAS  C:\Users\Andres\AppData\Local\Temp\ccSsqcxd.s 			page 126


 5833 0978 01       		.uleb128 0x1
 5834 0979 31       		.byte	0x31
 5835 097a 00       		.byte	0
 5836 097b 0C       		.uleb128 0xc
 5837 097c 1C000000 		.4byte	.LVL104
 5838 0980 2B330000 		.4byte	0x332b
 5839 0984 8F090000 		.4byte	0x98f
 5840 0988 0D       		.uleb128 0xd
 5841 0989 01       		.uleb128 0x1
 5842 098a 50       		.byte	0x50
 5843 098b 02       		.uleb128 0x2
 5844 098c 74       		.byte	0x74
 5845 098d 00       		.sleb128 0
 5846 098e 00       		.byte	0
 5847 098f 0C       		.uleb128 0xc
 5848 0990 22000000 		.4byte	.LVL105
 5849 0994 F9330000 		.4byte	0x33f9
 5850 0998 A2090000 		.4byte	0x9a2
 5851 099c 0D       		.uleb128 0xd
 5852 099d 01       		.uleb128 0x1
 5853 099e 50       		.byte	0x50
 5854 099f 01       		.uleb128 0x1
 5855 09a0 30       		.byte	0x30
 5856 09a1 00       		.byte	0
 5857 09a2 0C       		.uleb128 0xc
 5858 09a3 28000000 		.4byte	.LVL106
 5859 09a7 2B330000 		.4byte	0x332b
 5860 09ab B6090000 		.4byte	0x9b6
 5861 09af 0D       		.uleb128 0xd
 5862 09b0 01       		.uleb128 0x1
 5863 09b1 50       		.byte	0x50
 5864 09b2 02       		.uleb128 0x2
 5865 09b3 74       		.byte	0x74
 5866 09b4 00       		.sleb128 0
 5867 09b5 00       		.byte	0
 5868 09b6 0C       		.uleb128 0xc
 5869 09b7 30000000 		.4byte	.LVL109
 5870 09bb F9330000 		.4byte	0x33f9
 5871 09bf C9090000 		.4byte	0x9c9
 5872 09c3 0D       		.uleb128 0xd
 5873 09c4 01       		.uleb128 0x1
 5874 09c5 50       		.byte	0x50
 5875 09c6 01       		.uleb128 0x1
 5876 09c7 30       		.byte	0x30
 5877 09c8 00       		.byte	0
 5878 09c9 0C       		.uleb128 0xc
 5879 09ca 3E000000 		.4byte	.LVL110
 5880 09ce F9330000 		.4byte	0x33f9
 5881 09d2 DC090000 		.4byte	0x9dc
 5882 09d6 0D       		.uleb128 0xd
 5883 09d7 01       		.uleb128 0x1
 5884 09d8 50       		.byte	0x50
 5885 09d9 01       		.uleb128 0x1
 5886 09da 31       		.byte	0x31
 5887 09db 00       		.byte	0
 5888 09dc 0C       		.uleb128 0xc
 5889 09dd 44000000 		.4byte	.LVL111
ARM GAS  C:\Users\Andres\AppData\Local\Temp\ccSsqcxd.s 			page 127


 5890 09e1 2B330000 		.4byte	0x332b
 5891 09e5 F0090000 		.4byte	0x9f0
 5892 09e9 0D       		.uleb128 0xd
 5893 09ea 01       		.uleb128 0x1
 5894 09eb 50       		.byte	0x50
 5895 09ec 02       		.uleb128 0x2
 5896 09ed 08       		.byte	0x8
 5897 09ee C8       		.byte	0xc8
 5898 09ef 00       		.byte	0
 5899 09f0 0C       		.uleb128 0xc
 5900 09f1 4A000000 		.4byte	.LVL112
 5901 09f5 F9330000 		.4byte	0x33f9
 5902 09f9 030A0000 		.4byte	0xa03
 5903 09fd 0D       		.uleb128 0xd
 5904 09fe 01       		.uleb128 0x1
 5905 09ff 50       		.byte	0x50
 5906 0a00 01       		.uleb128 0x1
 5907 0a01 30       		.byte	0x30
 5908 0a02 00       		.byte	0
 5909 0a03 0C       		.uleb128 0xc
 5910 0a04 50000000 		.4byte	.LVL113
 5911 0a08 2B330000 		.4byte	0x332b
 5912 0a0c 170A0000 		.4byte	0xa17
 5913 0a10 0D       		.uleb128 0xd
 5914 0a11 01       		.uleb128 0x1
 5915 0a12 50       		.byte	0x50
 5916 0a13 02       		.uleb128 0x2
 5917 0a14 08       		.byte	0x8
 5918 0a15 C8       		.byte	0xc8
 5919 0a16 00       		.byte	0
 5920 0a17 0C       		.uleb128 0xc
 5921 0a18 66000000 		.4byte	.LVL114
 5922 0a1c 92330000 		.4byte	0x3392
 5923 0a20 2A0A0000 		.4byte	0xa2a
 5924 0a24 0D       		.uleb128 0xd
 5925 0a25 01       		.uleb128 0x1
 5926 0a26 50       		.byte	0x50
 5927 0a27 01       		.uleb128 0x1
 5928 0a28 30       		.byte	0x30
 5929 0a29 00       		.byte	0
 5930 0a2a 0C       		.uleb128 0xc
 5931 0a2b 6E000000 		.4byte	.LVL115
 5932 0a2f 25080000 		.4byte	0x825
 5933 0a33 430A0000 		.4byte	0xa43
 5934 0a37 0D       		.uleb128 0xd
 5935 0a38 01       		.uleb128 0x1
 5936 0a39 51       		.byte	0x51
 5937 0a3a 01       		.uleb128 0x1
 5938 0a3b 3F       		.byte	0x3f
 5939 0a3c 0D       		.uleb128 0xd
 5940 0a3d 01       		.uleb128 0x1
 5941 0a3e 50       		.byte	0x50
 5942 0a3f 02       		.uleb128 0x2
 5943 0a40 08       		.byte	0x8
 5944 0a41 84       		.byte	0x84
 5945 0a42 00       		.byte	0
 5946 0a43 0C       		.uleb128 0xc
ARM GAS  C:\Users\Andres\AppData\Local\Temp\ccSsqcxd.s 			page 128


 5947 0a44 76000000 		.4byte	.LVL116
 5948 0a48 25080000 		.4byte	0x825
 5949 0a4c 5D0A0000 		.4byte	0xa5d
 5950 0a50 0D       		.uleb128 0xd
 5951 0a51 01       		.uleb128 0x1
 5952 0a52 51       		.byte	0x51
 5953 0a53 02       		.uleb128 0x2
 5954 0a54 08       		.byte	0x8
 5955 0a55 32       		.byte	0x32
 5956 0a56 0D       		.uleb128 0xd
 5957 0a57 01       		.uleb128 0x1
 5958 0a58 50       		.byte	0x50
 5959 0a59 02       		.uleb128 0x2
 5960 0a5a 08       		.byte	0x8
 5961 0a5b 83       		.byte	0x83
 5962 0a5c 00       		.byte	0
 5963 0a5d 0C       		.uleb128 0xc
 5964 0a5e 7E000000 		.4byte	.LVL117
 5965 0a62 25080000 		.4byte	0x825
 5966 0a66 760A0000 		.4byte	0xa76
 5967 0a6a 0D       		.uleb128 0xd
 5968 0a6b 01       		.uleb128 0x1
 5969 0a6c 51       		.byte	0x51
 5970 0a6d 01       		.uleb128 0x1
 5971 0a6e 30       		.byte	0x30
 5972 0a6f 0D       		.uleb128 0xd
 5973 0a70 01       		.uleb128 0x1
 5974 0a71 50       		.byte	0x50
 5975 0a72 02       		.uleb128 0x2
 5976 0a73 08       		.byte	0x8
 5977 0a74 89       		.byte	0x89
 5978 0a75 00       		.byte	0
 5979 0a76 12       		.uleb128 0x12
 5980 0a77 86000000 		.4byte	.LVL118
 5981 0a7b 25080000 		.4byte	0x825
 5982 0a7f 0D       		.uleb128 0xd
 5983 0a80 01       		.uleb128 0x1
 5984 0a81 51       		.byte	0x51
 5985 0a82 02       		.uleb128 0x2
 5986 0a83 08       		.byte	0x8
 5987 0a84 81       		.byte	0x81
 5988 0a85 0D       		.uleb128 0xd
 5989 0a86 01       		.uleb128 0x1
 5990 0a87 50       		.byte	0x50
 5991 0a88 02       		.uleb128 0x2
 5992 0a89 08       		.byte	0x8
 5993 0a8a 8A       		.byte	0x8a
 5994 0a8b 00       		.byte	0
 5995 0a8c 00       		.byte	0
 5996 0a8d 13       		.uleb128 0x13
 5997 0a8e D3010000 		.4byte	.LASF36
 5998 0a92 03       		.byte	0x3
 5999 0a93 35       		.byte	0x35
 6000 0a94 64000000 		.4byte	0x64
 6001 0a98 00000000 		.4byte	.LFB49
 6002 0a9c 30000000 		.4byte	.LFE49-.LFB49
 6003 0aa0 01       		.uleb128 0x1
ARM GAS  C:\Users\Andres\AppData\Local\Temp\ccSsqcxd.s 			page 129


 6004 0aa1 9C       		.byte	0x9c
 6005 0aa2 250B0000 		.4byte	0xb25
 6006 0aa6 11       		.uleb128 0x11
 6007 0aa7 73040000 		.4byte	.LASF22
 6008 0aab 03       		.byte	0x3
 6009 0aac 36       		.byte	0x36
 6010 0aad 5D000000 		.4byte	0x5d
 6011 0ab1 47020000 		.4byte	.LLST20
 6012 0ab5 11       		.uleb128 0x11
 6013 0ab6 1A030000 		.4byte	.LASF19
 6014 0aba 03       		.byte	0x3
 6015 0abb 39       		.byte	0x39
 6016 0abc 64000000 		.4byte	0x64
 6017 0ac0 5A020000 		.4byte	.LLST21
 6018 0ac4 0C       		.uleb128 0xc
 6019 0ac5 08000000 		.4byte	.LVL119
 6020 0ac9 93080000 		.4byte	0x893
 6021 0acd D80A0000 		.4byte	0xad8
 6022 0ad1 0D       		.uleb128 0xd
 6023 0ad2 01       		.uleb128 0x1
 6024 0ad3 50       		.byte	0x50
 6025 0ad4 02       		.uleb128 0x2
 6026 0ad5 08       		.byte	0x8
 6027 0ad6 80       		.byte	0x80
 6028 0ad7 00       		.byte	0
 6029 0ad8 0C       		.uleb128 0xc
 6030 0ad9 14000000 		.4byte	.LVL121
 6031 0add 25080000 		.4byte	0x825
 6032 0ae1 EC0A0000 		.4byte	0xaec
 6033 0ae5 0D       		.uleb128 0xd
 6034 0ae6 01       		.uleb128 0x1
 6035 0ae7 50       		.byte	0x50
 6036 0ae8 02       		.uleb128 0x2
 6037 0ae9 08       		.byte	0x8
 6038 0aea 80       		.byte	0x80
 6039 0aeb 00       		.byte	0
 6040 0aec 0C       		.uleb128 0xc
 6041 0aed 1A000000 		.4byte	.LVL122
 6042 0af1 93080000 		.4byte	0x893
 6043 0af5 000B0000 		.4byte	0xb00
 6044 0af9 0D       		.uleb128 0xd
 6045 0afa 01       		.uleb128 0x1
 6046 0afb 50       		.byte	0x50
 6047 0afc 02       		.uleb128 0x2
 6048 0afd 08       		.byte	0x8
 6049 0afe 80       		.byte	0x80
 6050 0aff 00       		.byte	0
 6051 0b00 0C       		.uleb128 0xc
 6052 0b01 24000000 		.4byte	.LVL123
 6053 0b05 93080000 		.4byte	0x893
 6054 0b09 140B0000 		.4byte	0xb14
 6055 0b0d 0D       		.uleb128 0xd
 6056 0b0e 01       		.uleb128 0x1
 6057 0b0f 50       		.byte	0x50
 6058 0b10 02       		.uleb128 0x2
 6059 0b11 08       		.byte	0x8
 6060 0b12 87       		.byte	0x87
ARM GAS  C:\Users\Andres\AppData\Local\Temp\ccSsqcxd.s 			page 130


 6061 0b13 00       		.byte	0
 6062 0b14 12       		.uleb128 0x12
 6063 0b15 2C000000 		.4byte	.LVL125
 6064 0b19 93080000 		.4byte	0x893
 6065 0b1d 0D       		.uleb128 0xd
 6066 0b1e 01       		.uleb128 0x1
 6067 0b1f 50       		.byte	0x50
 6068 0b20 02       		.uleb128 0x2
 6069 0b21 08       		.byte	0x8
 6070 0b22 88       		.byte	0x88
 6071 0b23 00       		.byte	0
 6072 0b24 00       		.byte	0
 6073 0b25 13       		.uleb128 0x13
 6074 0b26 F7060000 		.4byte	.LASF37
 6075 0b2a 03       		.byte	0x3
 6076 0b2b 3E       		.byte	0x3e
 6077 0b2c 64000000 		.4byte	0x64
 6078 0b30 00000000 		.4byte	.LFB50
 6079 0b34 30000000 		.4byte	.LFE50-.LFB50
 6080 0b38 01       		.uleb128 0x1
 6081 0b39 9C       		.byte	0x9c
 6082 0b3a BD0B0000 		.4byte	0xbbd
 6083 0b3e 11       		.uleb128 0x11
 6084 0b3f 73040000 		.4byte	.LASF22
 6085 0b43 03       		.byte	0x3
 6086 0b44 3F       		.byte	0x3f
 6087 0b45 5D000000 		.4byte	0x5d
 6088 0b49 78020000 		.4byte	.LLST22
 6089 0b4d 11       		.uleb128 0x11
 6090 0b4e 1A030000 		.4byte	.LASF19
 6091 0b52 03       		.byte	0x3
 6092 0b53 42       		.byte	0x42
 6093 0b54 64000000 		.4byte	0x64
 6094 0b58 8B020000 		.4byte	.LLST23
 6095 0b5c 0C       		.uleb128 0xc
 6096 0b5d 08000000 		.4byte	.LVL127
 6097 0b61 93080000 		.4byte	0x893
 6098 0b65 700B0000 		.4byte	0xb70
 6099 0b69 0D       		.uleb128 0xd
 6100 0b6a 01       		.uleb128 0x1
 6101 0b6b 50       		.byte	0x50
 6102 0b6c 02       		.uleb128 0x2
 6103 0b6d 08       		.byte	0x8
 6104 0b6e 80       		.byte	0x80
 6105 0b6f 00       		.byte	0
 6106 0b70 0C       		.uleb128 0xc
 6107 0b71 14000000 		.4byte	.LVL129
 6108 0b75 25080000 		.4byte	0x825
 6109 0b79 840B0000 		.4byte	0xb84
 6110 0b7d 0D       		.uleb128 0xd
 6111 0b7e 01       		.uleb128 0x1
 6112 0b7f 50       		.byte	0x50
 6113 0b80 02       		.uleb128 0x2
 6114 0b81 08       		.byte	0x8
 6115 0b82 80       		.byte	0x80
 6116 0b83 00       		.byte	0
 6117 0b84 0C       		.uleb128 0xc
ARM GAS  C:\Users\Andres\AppData\Local\Temp\ccSsqcxd.s 			page 131


 6118 0b85 1A000000 		.4byte	.LVL130
 6119 0b89 93080000 		.4byte	0x893
 6120 0b8d 980B0000 		.4byte	0xb98
 6121 0b91 0D       		.uleb128 0xd
 6122 0b92 01       		.uleb128 0x1
 6123 0b93 50       		.byte	0x50
 6124 0b94 02       		.uleb128 0x2
 6125 0b95 08       		.byte	0x8
 6126 0b96 80       		.byte	0x80
 6127 0b97 00       		.byte	0
 6128 0b98 0C       		.uleb128 0xc
 6129 0b99 24000000 		.4byte	.LVL131
 6130 0b9d 93080000 		.4byte	0x893
 6131 0ba1 AC0B0000 		.4byte	0xbac
 6132 0ba5 0D       		.uleb128 0xd
 6133 0ba6 01       		.uleb128 0x1
 6134 0ba7 50       		.byte	0x50
 6135 0ba8 02       		.uleb128 0x2
 6136 0ba9 08       		.byte	0x8
 6137 0baa 85       		.byte	0x85
 6138 0bab 00       		.byte	0
 6139 0bac 12       		.uleb128 0x12
 6140 0bad 2C000000 		.4byte	.LVL133
 6141 0bb1 93080000 		.4byte	0x893
 6142 0bb5 0D       		.uleb128 0xd
 6143 0bb6 01       		.uleb128 0x1
 6144 0bb7 50       		.byte	0x50
 6145 0bb8 02       		.uleb128 0x2
 6146 0bb9 08       		.byte	0x8
 6147 0bba 86       		.byte	0x86
 6148 0bbb 00       		.byte	0
 6149 0bbc 00       		.byte	0
 6150 0bbd 13       		.uleb128 0x13
 6151 0bbe 92060000 		.4byte	.LASF38
 6152 0bc2 04       		.byte	0x4
 6153 0bc3 0B       		.byte	0xb
 6154 0bc4 5D000000 		.4byte	0x5d
 6155 0bc8 00000000 		.4byte	.LFB51
 6156 0bcc A0000000 		.4byte	.LFE51-.LFB51
 6157 0bd0 01       		.uleb128 0x1
 6158 0bd1 9C       		.byte	0x9c
 6159 0bd2 630C0000 		.4byte	0xc63
 6160 0bd6 0C       		.uleb128 0xc
 6161 0bd7 0E000000 		.4byte	.LVL135
 6162 0bdb 2B330000 		.4byte	0x332b
 6163 0bdf E90B0000 		.4byte	0xbe9
 6164 0be3 0D       		.uleb128 0xd
 6165 0be4 01       		.uleb128 0x1
 6166 0be5 50       		.byte	0x50
 6167 0be6 01       		.uleb128 0x1
 6168 0be7 44       		.byte	0x44
 6169 0be8 00       		.byte	0
 6170 0be9 0C       		.uleb128 0xc
 6171 0bea 1E000000 		.4byte	.LVL136
 6172 0bee 0A340000 		.4byte	0x340a
 6173 0bf2 FE0B0000 		.4byte	0xbfe
 6174 0bf6 0D       		.uleb128 0xd
ARM GAS  C:\Users\Andres\AppData\Local\Temp\ccSsqcxd.s 			page 132


 6175 0bf7 01       		.uleb128 0x1
 6176 0bf8 50       		.byte	0x50
 6177 0bf9 03       		.uleb128 0x3
 6178 0bfa 0A       		.byte	0xa
 6179 0bfb E803     		.2byte	0x3e8
 6180 0bfd 00       		.byte	0
 6181 0bfe 0E       		.uleb128 0xe
 6182 0bff 22000000 		.4byte	.LVL137
 6183 0c03 1B340000 		.4byte	0x341b
 6184 0c07 0E       		.uleb128 0xe
 6185 0c08 40000000 		.4byte	.LVL138
 6186 0c0c 26340000 		.4byte	0x3426
 6187 0c10 0E       		.uleb128 0xe
 6188 0c11 48000000 		.4byte	.LVL139
 6189 0c15 26340000 		.4byte	0x3426
 6190 0c19 0E       		.uleb128 0xe
 6191 0c1a 62000000 		.4byte	.LVL140
 6192 0c1e 26340000 		.4byte	0x3426
 6193 0c22 0E       		.uleb128 0xe
 6194 0c23 66000000 		.4byte	.LVL141
 6195 0c27 26340000 		.4byte	0x3426
 6196 0c2b 0E       		.uleb128 0xe
 6197 0c2c 6A000000 		.4byte	.LVL142
 6198 0c30 26340000 		.4byte	0x3426
 6199 0c34 0E       		.uleb128 0xe
 6200 0c35 72000000 		.4byte	.LVL143
 6201 0c39 26340000 		.4byte	0x3426
 6202 0c3d 0E       		.uleb128 0xe
 6203 0c3e 76000000 		.4byte	.LVL144
 6204 0c42 31340000 		.4byte	0x3431
 6205 0c46 0C       		.uleb128 0xc
 6206 0c47 7C000000 		.4byte	.LVL145
 6207 0c4b 2B330000 		.4byte	0x332b
 6208 0c4f 590C0000 		.4byte	0xc59
 6209 0c53 0D       		.uleb128 0xd
 6210 0c54 01       		.uleb128 0x1
 6211 0c55 50       		.byte	0x50
 6212 0c56 01       		.uleb128 0x1
 6213 0c57 3A       		.byte	0x3a
 6214 0c58 00       		.byte	0
 6215 0c59 0E       		.uleb128 0xe
 6216 0c5a 84000000 		.4byte	.LVL146
 6217 0c5e 1B340000 		.4byte	0x341b
 6218 0c62 00       		.byte	0
 6219 0c63 0F       		.uleb128 0xf
 6220 0c64 78040000 		.4byte	.LASF39
 6221 0c68 04       		.byte	0x4
 6222 0c69 2A       		.byte	0x2a
 6223 0c6a 5D000000 		.4byte	0x5d
 6224 0c6e 00000000 		.4byte	.LFB52
 6225 0c72 FC000000 		.4byte	.LFE52-.LFB52
 6226 0c76 01       		.uleb128 0x1
 6227 0c77 9C       		.byte	0x9c
 6228 0c78 000E0000 		.4byte	0xe00
 6229 0c7c 14       		.uleb128 0x14
 6230 0c7d 494400   		.ascii	"ID\000"
 6231 0c80 04       		.byte	0x4
ARM GAS  C:\Users\Andres\AppData\Local\Temp\ccSsqcxd.s 			page 133


 6232 0c81 2A       		.byte	0x2a
 6233 0c82 2C000000 		.4byte	0x2c
 6234 0c86 A9020000 		.4byte	.LLST24
 6235 0c8a 0C       		.uleb128 0xc
 6236 0c8b 14000000 		.4byte	.LVL149
 6237 0c8f 38340000 		.4byte	0x3438
 6238 0c93 9D0C0000 		.4byte	0xc9d
 6239 0c97 0D       		.uleb128 0xd
 6240 0c98 01       		.uleb128 0x1
 6241 0c99 50       		.byte	0x50
 6242 0c9a 01       		.uleb128 0x1
 6243 0c9b 32       		.byte	0x32
 6244 0c9c 00       		.byte	0
 6245 0c9d 0C       		.uleb128 0xc
 6246 0c9e 1A000000 		.4byte	.LVL150
 6247 0ca2 49340000 		.4byte	0x3449
 6248 0ca6 B10C0000 		.4byte	0xcb1
 6249 0caa 0D       		.uleb128 0xd
 6250 0cab 01       		.uleb128 0x1
 6251 0cac 50       		.byte	0x50
 6252 0cad 02       		.uleb128 0x2
 6253 0cae 09       		.byte	0x9
 6254 0caf FF       		.byte	0xff
 6255 0cb0 00       		.byte	0
 6256 0cb1 0C       		.uleb128 0xc
 6257 0cb2 20000000 		.4byte	.LVL151
 6258 0cb6 49340000 		.4byte	0x3449
 6259 0cba C50C0000 		.4byte	0xcc5
 6260 0cbe 0D       		.uleb128 0xd
 6261 0cbf 01       		.uleb128 0x1
 6262 0cc0 50       		.byte	0x50
 6263 0cc1 02       		.uleb128 0x2
 6264 0cc2 09       		.byte	0x9
 6265 0cc3 FF       		.byte	0xff
 6266 0cc4 00       		.byte	0
 6267 0cc5 0C       		.uleb128 0xc
 6268 0cc6 26000000 		.4byte	.LVL152
 6269 0cca 49340000 		.4byte	0x3449
 6270 0cce D90C0000 		.4byte	0xcd9
 6271 0cd2 0D       		.uleb128 0xd
 6272 0cd3 01       		.uleb128 0x1
 6273 0cd4 50       		.byte	0x50
 6274 0cd5 02       		.uleb128 0x2
 6275 0cd6 75       		.byte	0x75
 6276 0cd7 00       		.sleb128 0
 6277 0cd8 00       		.byte	0
 6278 0cd9 0C       		.uleb128 0xc
 6279 0cda 2C000000 		.4byte	.LVL153
 6280 0cde 49340000 		.4byte	0x3449
 6281 0ce2 EC0C0000 		.4byte	0xcec
 6282 0ce6 0D       		.uleb128 0xd
 6283 0ce7 01       		.uleb128 0x1
 6284 0ce8 50       		.byte	0x50
 6285 0ce9 01       		.uleb128 0x1
 6286 0cea 34       		.byte	0x34
 6287 0ceb 00       		.byte	0
 6288 0cec 0C       		.uleb128 0xc
ARM GAS  C:\Users\Andres\AppData\Local\Temp\ccSsqcxd.s 			page 134


 6289 0ced 32000000 		.4byte	.LVL154
 6290 0cf1 49340000 		.4byte	0x3449
 6291 0cf5 FF0C0000 		.4byte	0xcff
 6292 0cf9 0D       		.uleb128 0xd
 6293 0cfa 01       		.uleb128 0x1
 6294 0cfb 50       		.byte	0x50
 6295 0cfc 01       		.uleb128 0x1
 6296 0cfd 32       		.byte	0x32
 6297 0cfe 00       		.byte	0
 6298 0cff 0C       		.uleb128 0xc
 6299 0d00 38000000 		.4byte	.LVL155
 6300 0d04 49340000 		.4byte	0x3449
 6301 0d08 130D0000 		.4byte	0xd13
 6302 0d0c 0D       		.uleb128 0xd
 6303 0d0d 01       		.uleb128 0x1
 6304 0d0e 50       		.byte	0x50
 6305 0d0f 02       		.uleb128 0x2
 6306 0d10 08       		.byte	0x8
 6307 0d11 2B       		.byte	0x2b
 6308 0d12 00       		.byte	0
 6309 0d13 0C       		.uleb128 0xc
 6310 0d14 3E000000 		.4byte	.LVL156
 6311 0d18 49340000 		.4byte	0x3449
 6312 0d1c 260D0000 		.4byte	0xd26
 6313 0d20 0D       		.uleb128 0xd
 6314 0d21 01       		.uleb128 0x1
 6315 0d22 50       		.byte	0x50
 6316 0d23 01       		.uleb128 0x1
 6317 0d24 31       		.byte	0x31
 6318 0d25 00       		.byte	0
 6319 0d26 0E       		.uleb128 0xe
 6320 0d27 44000000 		.4byte	.LVL157
 6321 0d2b 49340000 		.4byte	0x3449
 6322 0d2f 0C       		.uleb128 0xc
 6323 0d30 4C000000 		.4byte	.LVL158
 6324 0d34 0A340000 		.4byte	0x340a
 6325 0d38 440D0000 		.4byte	0xd44
 6326 0d3c 0D       		.uleb128 0xd
 6327 0d3d 01       		.uleb128 0x1
 6328 0d3e 50       		.byte	0x50
 6329 0d3f 03       		.uleb128 0x3
 6330 0d40 0A       		.byte	0xa
 6331 0d41 9001     		.2byte	0x190
 6332 0d43 00       		.byte	0
 6333 0d44 0C       		.uleb128 0xc
 6334 0d45 52000000 		.4byte	.LVL159
 6335 0d49 2B330000 		.4byte	0x332b
 6336 0d4d 570D0000 		.4byte	0xd57
 6337 0d51 0D       		.uleb128 0xd
 6338 0d52 01       		.uleb128 0x1
 6339 0d53 50       		.byte	0x50
 6340 0d54 01       		.uleb128 0x1
 6341 0d55 35       		.byte	0x35
 6342 0d56 00       		.byte	0
 6343 0d57 0C       		.uleb128 0xc
 6344 0d58 58000000 		.4byte	.LVL160
 6345 0d5c 38340000 		.4byte	0x3438
ARM GAS  C:\Users\Andres\AppData\Local\Temp\ccSsqcxd.s 			page 135


 6346 0d60 6A0D0000 		.4byte	0xd6a
 6347 0d64 0D       		.uleb128 0xd
 6348 0d65 01       		.uleb128 0x1
 6349 0d66 50       		.byte	0x50
 6350 0d67 01       		.uleb128 0x1
 6351 0d68 31       		.byte	0x31
 6352 0d69 00       		.byte	0
 6353 0d6a 0C       		.uleb128 0xc
 6354 0d6b 64000000 		.4byte	.LVL161
 6355 0d6f 2B330000 		.4byte	0x332b
 6356 0d73 7D0D0000 		.4byte	0xd7d
 6357 0d77 0D       		.uleb128 0xd
 6358 0d78 01       		.uleb128 0x1
 6359 0d79 50       		.byte	0x50
 6360 0d7a 01       		.uleb128 0x1
 6361 0d7b 44       		.byte	0x44
 6362 0d7c 00       		.byte	0
 6363 0d7d 0C       		.uleb128 0xc
 6364 0d7e 74000000 		.4byte	.LVL162
 6365 0d82 0A340000 		.4byte	0x340a
 6366 0d86 920D0000 		.4byte	0xd92
 6367 0d8a 0D       		.uleb128 0xd
 6368 0d8b 01       		.uleb128 0x1
 6369 0d8c 50       		.byte	0x50
 6370 0d8d 03       		.uleb128 0x3
 6371 0d8e 0A       		.byte	0xa
 6372 0d8f E803     		.2byte	0x3e8
 6373 0d91 00       		.byte	0
 6374 0d92 0E       		.uleb128 0xe
 6375 0d93 78000000 		.4byte	.LVL163
 6376 0d97 1B340000 		.4byte	0x341b
 6377 0d9b 0E       		.uleb128 0xe
 6378 0d9c 96000000 		.4byte	.LVL164
 6379 0da0 5A340000 		.4byte	0x345a
 6380 0da4 0E       		.uleb128 0xe
 6381 0da5 9E000000 		.4byte	.LVL165
 6382 0da9 5A340000 		.4byte	0x345a
 6383 0dad 0E       		.uleb128 0xe
 6384 0dae B8000000 		.4byte	.LVL166
 6385 0db2 5A340000 		.4byte	0x345a
 6386 0db6 0E       		.uleb128 0xe
 6387 0db7 BC000000 		.4byte	.LVL167
 6388 0dbb 5A340000 		.4byte	0x345a
 6389 0dbf 0E       		.uleb128 0xe
 6390 0dc0 C0000000 		.4byte	.LVL168
 6391 0dc4 5A340000 		.4byte	0x345a
 6392 0dc8 0E       		.uleb128 0xe
 6393 0dc9 C4000000 		.4byte	.LVL169
 6394 0dcd 5A340000 		.4byte	0x345a
 6395 0dd1 0E       		.uleb128 0xe
 6396 0dd2 CC000000 		.4byte	.LVL170
 6397 0dd6 5A340000 		.4byte	0x345a
 6398 0dda 0E       		.uleb128 0xe
 6399 0ddb D0000000 		.4byte	.LVL171
 6400 0ddf 31340000 		.4byte	0x3431
 6401 0de3 0C       		.uleb128 0xc
 6402 0de4 D6000000 		.4byte	.LVL172
ARM GAS  C:\Users\Andres\AppData\Local\Temp\ccSsqcxd.s 			page 136


 6403 0de8 2B330000 		.4byte	0x332b
 6404 0dec F60D0000 		.4byte	0xdf6
 6405 0df0 0D       		.uleb128 0xd
 6406 0df1 01       		.uleb128 0x1
 6407 0df2 50       		.byte	0x50
 6408 0df3 01       		.uleb128 0x1
 6409 0df4 3A       		.byte	0x3a
 6410 0df5 00       		.byte	0
 6411 0df6 0E       		.uleb128 0xe
 6412 0df7 DE000000 		.4byte	.LVL173
 6413 0dfb 1B340000 		.4byte	0x341b
 6414 0dff 00       		.byte	0
 6415 0e00 0F       		.uleb128 0xf
 6416 0e01 32060000 		.4byte	.LASF40
 6417 0e05 04       		.byte	0x4
 6418 0e06 55       		.byte	0x55
 6419 0e07 5D000000 		.4byte	0x5d
 6420 0e0b 00000000 		.4byte	.LFB53
 6421 0e0f 64000000 		.4byte	.LFE53-.LFB53
 6422 0e13 01       		.uleb128 0x1
 6423 0e14 9C       		.byte	0x9c
 6424 0e15 200F0000 		.4byte	0xf20
 6425 0e19 14       		.uleb128 0x14
 6426 0e1a 494400   		.ascii	"ID\000"
 6427 0e1d 04       		.byte	0x4
 6428 0e1e 55       		.byte	0x55
 6429 0e1f 2C000000 		.4byte	0x2c
 6430 0e23 CA020000 		.4byte	.LLST25
 6431 0e27 0A       		.uleb128 0xa
 6432 0e28 67060000 		.4byte	.LASF41
 6433 0e2c 04       		.byte	0x4
 6434 0e2d 55       		.byte	0x55
 6435 0e2e 2C000000 		.4byte	0x2c
 6436 0e32 EB020000 		.4byte	.LLST26
 6437 0e36 0C       		.uleb128 0xc
 6438 0e37 16000000 		.4byte	.LVL176
 6439 0e3b 38340000 		.4byte	0x3438
 6440 0e3f 490E0000 		.4byte	0xe49
 6441 0e43 0D       		.uleb128 0xd
 6442 0e44 01       		.uleb128 0x1
 6443 0e45 50       		.byte	0x50
 6444 0e46 01       		.uleb128 0x1
 6445 0e47 32       		.byte	0x32
 6446 0e48 00       		.byte	0
 6447 0e49 0C       		.uleb128 0xc
 6448 0e4a 1C000000 		.4byte	.LVL177
 6449 0e4e 49340000 		.4byte	0x3449
 6450 0e52 5D0E0000 		.4byte	0xe5d
 6451 0e56 0D       		.uleb128 0xd
 6452 0e57 01       		.uleb128 0x1
 6453 0e58 50       		.byte	0x50
 6454 0e59 02       		.uleb128 0x2
 6455 0e5a 09       		.byte	0x9
 6456 0e5b FF       		.byte	0xff
 6457 0e5c 00       		.byte	0
 6458 0e5d 0C       		.uleb128 0xc
 6459 0e5e 22000000 		.4byte	.LVL178
ARM GAS  C:\Users\Andres\AppData\Local\Temp\ccSsqcxd.s 			page 137


 6460 0e62 49340000 		.4byte	0x3449
 6461 0e66 710E0000 		.4byte	0xe71
 6462 0e6a 0D       		.uleb128 0xd
 6463 0e6b 01       		.uleb128 0x1
 6464 0e6c 50       		.byte	0x50
 6465 0e6d 02       		.uleb128 0x2
 6466 0e6e 09       		.byte	0x9
 6467 0e6f FF       		.byte	0xff
 6468 0e70 00       		.byte	0
 6469 0e71 0C       		.uleb128 0xc
 6470 0e72 28000000 		.4byte	.LVL179
 6471 0e76 49340000 		.4byte	0x3449
 6472 0e7a 850E0000 		.4byte	0xe85
 6473 0e7e 0D       		.uleb128 0xd
 6474 0e7f 01       		.uleb128 0x1
 6475 0e80 50       		.byte	0x50
 6476 0e81 02       		.uleb128 0x2
 6477 0e82 75       		.byte	0x75
 6478 0e83 00       		.sleb128 0
 6479 0e84 00       		.byte	0
 6480 0e85 0C       		.uleb128 0xc
 6481 0e86 2E000000 		.4byte	.LVL180
 6482 0e8a 49340000 		.4byte	0x3449
 6483 0e8e 980E0000 		.4byte	0xe98
 6484 0e92 0D       		.uleb128 0xd
 6485 0e93 01       		.uleb128 0x1
 6486 0e94 50       		.byte	0x50
 6487 0e95 01       		.uleb128 0x1
 6488 0e96 34       		.byte	0x34
 6489 0e97 00       		.byte	0
 6490 0e98 0C       		.uleb128 0xc
 6491 0e99 34000000 		.4byte	.LVL181
 6492 0e9d 49340000 		.4byte	0x3449
 6493 0ea1 AB0E0000 		.4byte	0xeab
 6494 0ea5 0D       		.uleb128 0xd
 6495 0ea6 01       		.uleb128 0x1
 6496 0ea7 50       		.byte	0x50
 6497 0ea8 01       		.uleb128 0x1
 6498 0ea9 33       		.byte	0x33
 6499 0eaa 00       		.byte	0
 6500 0eab 0C       		.uleb128 0xc
 6501 0eac 3A000000 		.4byte	.LVL182
 6502 0eb0 49340000 		.4byte	0x3449
 6503 0eb4 BE0E0000 		.4byte	0xebe
 6504 0eb8 0D       		.uleb128 0xd
 6505 0eb9 01       		.uleb128 0x1
 6506 0eba 50       		.byte	0x50
 6507 0ebb 01       		.uleb128 0x1
 6508 0ebc 33       		.byte	0x33
 6509 0ebd 00       		.byte	0
 6510 0ebe 0C       		.uleb128 0xc
 6511 0ebf 40000000 		.4byte	.LVL183
 6512 0ec3 49340000 		.4byte	0x3449
 6513 0ec7 D20E0000 		.4byte	0xed2
 6514 0ecb 0D       		.uleb128 0xd
 6515 0ecc 01       		.uleb128 0x1
 6516 0ecd 50       		.byte	0x50
ARM GAS  C:\Users\Andres\AppData\Local\Temp\ccSsqcxd.s 			page 138


 6517 0ece 02       		.uleb128 0x2
 6518 0ecf 74       		.byte	0x74
 6519 0ed0 00       		.sleb128 0
 6520 0ed1 00       		.byte	0
 6521 0ed2 0E       		.uleb128 0xe
 6522 0ed3 46000000 		.4byte	.LVL184
 6523 0ed7 49340000 		.4byte	0x3449
 6524 0edb 0C       		.uleb128 0xc
 6525 0edc 4E000000 		.4byte	.LVL185
 6526 0ee0 0A340000 		.4byte	0x340a
 6527 0ee4 F00E0000 		.4byte	0xef0
 6528 0ee8 0D       		.uleb128 0xd
 6529 0ee9 01       		.uleb128 0x1
 6530 0eea 50       		.byte	0x50
 6531 0eeb 03       		.uleb128 0x3
 6532 0eec 0A       		.byte	0xa
 6533 0eed 9001     		.2byte	0x190
 6534 0eef 00       		.byte	0
 6535 0ef0 0C       		.uleb128 0xc
 6536 0ef1 54000000 		.4byte	.LVL186
 6537 0ef5 2B330000 		.4byte	0x332b
 6538 0ef9 030F0000 		.4byte	0xf03
 6539 0efd 0D       		.uleb128 0xd
 6540 0efe 01       		.uleb128 0x1
 6541 0eff 50       		.byte	0x50
 6542 0f00 01       		.uleb128 0x1
 6543 0f01 35       		.byte	0x35
 6544 0f02 00       		.byte	0
 6545 0f03 0C       		.uleb128 0xc
 6546 0f04 5A000000 		.4byte	.LVL187
 6547 0f08 38340000 		.4byte	0x3438
 6548 0f0c 160F0000 		.4byte	0xf16
 6549 0f10 0D       		.uleb128 0xd
 6550 0f11 01       		.uleb128 0x1
 6551 0f12 50       		.byte	0x50
 6552 0f13 01       		.uleb128 0x1
 6553 0f14 31       		.byte	0x31
 6554 0f15 00       		.byte	0
 6555 0f16 0E       		.uleb128 0xe
 6556 0f17 5E000000 		.4byte	.LVL188
 6557 0f1b BD0B0000 		.4byte	0xbbd
 6558 0f1f 00       		.byte	0
 6559 0f20 0F       		.uleb128 0xf
 6560 0f21 C7000000 		.4byte	.LASF42
 6561 0f25 04       		.byte	0x4
 6562 0f26 65       		.byte	0x65
 6563 0f27 5D000000 		.4byte	0x5d
 6564 0f2b 00000000 		.4byte	.LFB54
 6565 0f2f 54000000 		.4byte	.LFE54-.LFB54
 6566 0f33 01       		.uleb128 0x1
 6567 0f34 9C       		.byte	0x9c
 6568 0f35 0A100000 		.4byte	0x100a
 6569 0f39 14       		.uleb128 0x14
 6570 0f3a 494400   		.ascii	"ID\000"
 6571 0f3d 04       		.byte	0x4
 6572 0f3e 65       		.byte	0x65
 6573 0f3f 2C000000 		.4byte	0x2c
ARM GAS  C:\Users\Andres\AppData\Local\Temp\ccSsqcxd.s 			page 139


 6574 0f43 0C030000 		.4byte	.LLST27
 6575 0f47 0C       		.uleb128 0xc
 6576 0f48 12000000 		.4byte	.LVL191
 6577 0f4c 38340000 		.4byte	0x3438
 6578 0f50 5A0F0000 		.4byte	0xf5a
 6579 0f54 0D       		.uleb128 0xd
 6580 0f55 01       		.uleb128 0x1
 6581 0f56 50       		.byte	0x50
 6582 0f57 01       		.uleb128 0x1
 6583 0f58 32       		.byte	0x32
 6584 0f59 00       		.byte	0
 6585 0f5a 0C       		.uleb128 0xc
 6586 0f5b 18000000 		.4byte	.LVL192
 6587 0f5f 49340000 		.4byte	0x3449
 6588 0f63 6E0F0000 		.4byte	0xf6e
 6589 0f67 0D       		.uleb128 0xd
 6590 0f68 01       		.uleb128 0x1
 6591 0f69 50       		.byte	0x50
 6592 0f6a 02       		.uleb128 0x2
 6593 0f6b 09       		.byte	0x9
 6594 0f6c FF       		.byte	0xff
 6595 0f6d 00       		.byte	0
 6596 0f6e 0C       		.uleb128 0xc
 6597 0f6f 1E000000 		.4byte	.LVL193
 6598 0f73 49340000 		.4byte	0x3449
 6599 0f77 820F0000 		.4byte	0xf82
 6600 0f7b 0D       		.uleb128 0xd
 6601 0f7c 01       		.uleb128 0x1
 6602 0f7d 50       		.byte	0x50
 6603 0f7e 02       		.uleb128 0x2
 6604 0f7f 09       		.byte	0x9
 6605 0f80 FF       		.byte	0xff
 6606 0f81 00       		.byte	0
 6607 0f82 0C       		.uleb128 0xc
 6608 0f83 24000000 		.4byte	.LVL194
 6609 0f87 49340000 		.4byte	0x3449
 6610 0f8b 960F0000 		.4byte	0xf96
 6611 0f8f 0D       		.uleb128 0xd
 6612 0f90 01       		.uleb128 0x1
 6613 0f91 50       		.byte	0x50
 6614 0f92 02       		.uleb128 0x2
 6615 0f93 75       		.byte	0x75
 6616 0f94 00       		.sleb128 0
 6617 0f95 00       		.byte	0
 6618 0f96 0C       		.uleb128 0xc
 6619 0f97 2A000000 		.4byte	.LVL195
 6620 0f9b 49340000 		.4byte	0x3449
 6621 0f9f A90F0000 		.4byte	0xfa9
 6622 0fa3 0D       		.uleb128 0xd
 6623 0fa4 01       		.uleb128 0x1
 6624 0fa5 50       		.byte	0x50
 6625 0fa6 01       		.uleb128 0x1
 6626 0fa7 32       		.byte	0x32
 6627 0fa8 00       		.byte	0
 6628 0fa9 0C       		.uleb128 0xc
 6629 0faa 30000000 		.4byte	.LVL196
 6630 0fae 49340000 		.4byte	0x3449
ARM GAS  C:\Users\Andres\AppData\Local\Temp\ccSsqcxd.s 			page 140


 6631 0fb2 BC0F0000 		.4byte	0xfbc
 6632 0fb6 0D       		.uleb128 0xd
 6633 0fb7 01       		.uleb128 0x1
 6634 0fb8 50       		.byte	0x50
 6635 0fb9 01       		.uleb128 0x1
 6636 0fba 31       		.byte	0x31
 6637 0fbb 00       		.byte	0
 6638 0fbc 0E       		.uleb128 0xe
 6639 0fbd 36000000 		.4byte	.LVL197
 6640 0fc1 49340000 		.4byte	0x3449
 6641 0fc5 0C       		.uleb128 0xc
 6642 0fc6 3E000000 		.4byte	.LVL198
 6643 0fca 0A340000 		.4byte	0x340a
 6644 0fce DA0F0000 		.4byte	0xfda
 6645 0fd2 0D       		.uleb128 0xd
 6646 0fd3 01       		.uleb128 0x1
 6647 0fd4 50       		.byte	0x50
 6648 0fd5 03       		.uleb128 0x3
 6649 0fd6 0A       		.byte	0xa
 6650 0fd7 9001     		.2byte	0x190
 6651 0fd9 00       		.byte	0
 6652 0fda 0C       		.uleb128 0xc
 6653 0fdb 44000000 		.4byte	.LVL199
 6654 0fdf 2B330000 		.4byte	0x332b
 6655 0fe3 ED0F0000 		.4byte	0xfed
 6656 0fe7 0D       		.uleb128 0xd
 6657 0fe8 01       		.uleb128 0x1
 6658 0fe9 50       		.byte	0x50
 6659 0fea 01       		.uleb128 0x1
 6660 0feb 35       		.byte	0x35
 6661 0fec 00       		.byte	0
 6662 0fed 0C       		.uleb128 0xc
 6663 0fee 4A000000 		.4byte	.LVL200
 6664 0ff2 38340000 		.4byte	0x3438
 6665 0ff6 00100000 		.4byte	0x1000
 6666 0ffa 0D       		.uleb128 0xd
 6667 0ffb 01       		.uleb128 0x1
 6668 0ffc 50       		.byte	0x50
 6669 0ffd 01       		.uleb128 0x1
 6670 0ffe 31       		.byte	0x31
 6671 0fff 00       		.byte	0
 6672 1000 0E       		.uleb128 0xe
 6673 1001 4E000000 		.4byte	.LVL201
 6674 1005 BD0B0000 		.4byte	0xbbd
 6675 1009 00       		.byte	0
 6676 100a 0F       		.uleb128 0xf
 6677 100b 29050000 		.4byte	.LASF43
 6678 100f 04       		.byte	0x4
 6679 1010 74       		.byte	0x74
 6680 1011 5D000000 		.4byte	0x5d
 6681 1015 00000000 		.4byte	.LFB55
 6682 1019 58000000 		.4byte	.LFE55-.LFB55
 6683 101d 01       		.uleb128 0x1
 6684 101e 9C       		.byte	0x9c
 6685 101f F4100000 		.4byte	0x10f4
 6686 1023 14       		.uleb128 0x14
 6687 1024 494400   		.ascii	"ID\000"
ARM GAS  C:\Users\Andres\AppData\Local\Temp\ccSsqcxd.s 			page 141


 6688 1027 04       		.byte	0x4
 6689 1028 74       		.byte	0x74
 6690 1029 2C000000 		.4byte	0x2c
 6691 102d 2D030000 		.4byte	.LLST28
 6692 1031 0C       		.uleb128 0xc
 6693 1032 14000000 		.4byte	.LVL204
 6694 1036 38340000 		.4byte	0x3438
 6695 103a 44100000 		.4byte	0x1044
 6696 103e 0D       		.uleb128 0xd
 6697 103f 01       		.uleb128 0x1
 6698 1040 50       		.byte	0x50
 6699 1041 01       		.uleb128 0x1
 6700 1042 32       		.byte	0x32
 6701 1043 00       		.byte	0
 6702 1044 0C       		.uleb128 0xc
 6703 1045 1A000000 		.4byte	.LVL205
 6704 1049 49340000 		.4byte	0x3449
 6705 104d 58100000 		.4byte	0x1058
 6706 1051 0D       		.uleb128 0xd
 6707 1052 01       		.uleb128 0x1
 6708 1053 50       		.byte	0x50
 6709 1054 02       		.uleb128 0x2
 6710 1055 09       		.byte	0x9
 6711 1056 FF       		.byte	0xff
 6712 1057 00       		.byte	0
 6713 1058 0C       		.uleb128 0xc
 6714 1059 20000000 		.4byte	.LVL206
 6715 105d 49340000 		.4byte	0x3449
 6716 1061 6C100000 		.4byte	0x106c
 6717 1065 0D       		.uleb128 0xd
 6718 1066 01       		.uleb128 0x1
 6719 1067 50       		.byte	0x50
 6720 1068 02       		.uleb128 0x2
 6721 1069 09       		.byte	0x9
 6722 106a FF       		.byte	0xff
 6723 106b 00       		.byte	0
 6724 106c 0C       		.uleb128 0xc
 6725 106d 26000000 		.4byte	.LVL207
 6726 1071 49340000 		.4byte	0x3449
 6727 1075 80100000 		.4byte	0x1080
 6728 1079 0D       		.uleb128 0xd
 6729 107a 01       		.uleb128 0x1
 6730 107b 50       		.byte	0x50
 6731 107c 02       		.uleb128 0x2
 6732 107d 75       		.byte	0x75
 6733 107e 00       		.sleb128 0
 6734 107f 00       		.byte	0
 6735 1080 0C       		.uleb128 0xc
 6736 1081 2C000000 		.4byte	.LVL208
 6737 1085 49340000 		.4byte	0x3449
 6738 1089 93100000 		.4byte	0x1093
 6739 108d 0D       		.uleb128 0xd
 6740 108e 01       		.uleb128 0x1
 6741 108f 50       		.byte	0x50
 6742 1090 01       		.uleb128 0x1
 6743 1091 32       		.byte	0x32
 6744 1092 00       		.byte	0
ARM GAS  C:\Users\Andres\AppData\Local\Temp\ccSsqcxd.s 			page 142


 6745 1093 0C       		.uleb128 0xc
 6746 1094 32000000 		.4byte	.LVL209
 6747 1098 49340000 		.4byte	0x3449
 6748 109c A6100000 		.4byte	0x10a6
 6749 10a0 0D       		.uleb128 0xd
 6750 10a1 01       		.uleb128 0x1
 6751 10a2 50       		.byte	0x50
 6752 10a3 01       		.uleb128 0x1
 6753 10a4 36       		.byte	0x36
 6754 10a5 00       		.byte	0
 6755 10a6 0E       		.uleb128 0xe
 6756 10a7 38000000 		.4byte	.LVL210
 6757 10ab 49340000 		.4byte	0x3449
 6758 10af 0C       		.uleb128 0xc
 6759 10b0 40000000 		.4byte	.LVL211
 6760 10b4 0A340000 		.4byte	0x340a
 6761 10b8 C4100000 		.4byte	0x10c4
 6762 10bc 0D       		.uleb128 0xd
 6763 10bd 01       		.uleb128 0x1
 6764 10be 50       		.byte	0x50
 6765 10bf 03       		.uleb128 0x3
 6766 10c0 0A       		.byte	0xa
 6767 10c1 9001     		.2byte	0x190
 6768 10c3 00       		.byte	0
 6769 10c4 0C       		.uleb128 0xc
 6770 10c5 46000000 		.4byte	.LVL212
 6771 10c9 2B330000 		.4byte	0x332b
 6772 10cd D7100000 		.4byte	0x10d7
 6773 10d1 0D       		.uleb128 0xd
 6774 10d2 01       		.uleb128 0x1
 6775 10d3 50       		.byte	0x50
 6776 10d4 01       		.uleb128 0x1
 6777 10d5 35       		.byte	0x35
 6778 10d6 00       		.byte	0
 6779 10d7 0C       		.uleb128 0xc
 6780 10d8 4C000000 		.4byte	.LVL213
 6781 10dc 38340000 		.4byte	0x3438
 6782 10e0 EA100000 		.4byte	0x10ea
 6783 10e4 0D       		.uleb128 0xd
 6784 10e5 01       		.uleb128 0x1
 6785 10e6 50       		.byte	0x50
 6786 10e7 01       		.uleb128 0x1
 6787 10e8 31       		.byte	0x31
 6788 10e9 00       		.byte	0
 6789 10ea 0E       		.uleb128 0xe
 6790 10eb 50000000 		.4byte	.LVL214
 6791 10ef BD0B0000 		.4byte	0xbbd
 6792 10f3 00       		.byte	0
 6793 10f4 15       		.uleb128 0x15
 6794 10f5 4C454400 		.ascii	"LED\000"
 6795 10f9 04       		.byte	0x4
 6796 10fa 85       		.byte	0x85
 6797 10fb 5D000000 		.4byte	0x5d
 6798 10ff 00000000 		.4byte	.LFB56
 6799 1103 64000000 		.4byte	.LFE56-.LFB56
 6800 1107 01       		.uleb128 0x1
 6801 1108 9C       		.byte	0x9c
ARM GAS  C:\Users\Andres\AppData\Local\Temp\ccSsqcxd.s 			page 143


 6802 1109 14120000 		.4byte	0x1214
 6803 110d 14       		.uleb128 0x14
 6804 110e 494400   		.ascii	"ID\000"
 6805 1111 04       		.byte	0x4
 6806 1112 85       		.byte	0x85
 6807 1113 2C000000 		.4byte	0x2c
 6808 1117 4E030000 		.4byte	.LLST29
 6809 111b 0A       		.uleb128 0xa
 6810 111c 8B000000 		.4byte	.LASF44
 6811 1120 04       		.byte	0x4
 6812 1121 85       		.byte	0x85
 6813 1122 5D000000 		.4byte	0x5d
 6814 1126 6F030000 		.4byte	.LLST30
 6815 112a 0C       		.uleb128 0xc
 6816 112b 16000000 		.4byte	.LVL217
 6817 112f 38340000 		.4byte	0x3438
 6818 1133 3D110000 		.4byte	0x113d
 6819 1137 0D       		.uleb128 0xd
 6820 1138 01       		.uleb128 0x1
 6821 1139 50       		.byte	0x50
 6822 113a 01       		.uleb128 0x1
 6823 113b 32       		.byte	0x32
 6824 113c 00       		.byte	0
 6825 113d 0C       		.uleb128 0xc
 6826 113e 1C000000 		.4byte	.LVL218
 6827 1142 49340000 		.4byte	0x3449
 6828 1146 51110000 		.4byte	0x1151
 6829 114a 0D       		.uleb128 0xd
 6830 114b 01       		.uleb128 0x1
 6831 114c 50       		.byte	0x50
 6832 114d 02       		.uleb128 0x2
 6833 114e 09       		.byte	0x9
 6834 114f FF       		.byte	0xff
 6835 1150 00       		.byte	0
 6836 1151 0C       		.uleb128 0xc
 6837 1152 22000000 		.4byte	.LVL219
 6838 1156 49340000 		.4byte	0x3449
 6839 115a 65110000 		.4byte	0x1165
 6840 115e 0D       		.uleb128 0xd
 6841 115f 01       		.uleb128 0x1
 6842 1160 50       		.byte	0x50
 6843 1161 02       		.uleb128 0x2
 6844 1162 09       		.byte	0x9
 6845 1163 FF       		.byte	0xff
 6846 1164 00       		.byte	0
 6847 1165 0C       		.uleb128 0xc
 6848 1166 28000000 		.4byte	.LVL220
 6849 116a 49340000 		.4byte	0x3449
 6850 116e 79110000 		.4byte	0x1179
 6851 1172 0D       		.uleb128 0xd
 6852 1173 01       		.uleb128 0x1
 6853 1174 50       		.byte	0x50
 6854 1175 02       		.uleb128 0x2
 6855 1176 74       		.byte	0x74
 6856 1177 00       		.sleb128 0
 6857 1178 00       		.byte	0
 6858 1179 0C       		.uleb128 0xc
ARM GAS  C:\Users\Andres\AppData\Local\Temp\ccSsqcxd.s 			page 144


 6859 117a 2E000000 		.4byte	.LVL221
 6860 117e 49340000 		.4byte	0x3449
 6861 1182 8C110000 		.4byte	0x118c
 6862 1186 0D       		.uleb128 0xd
 6863 1187 01       		.uleb128 0x1
 6864 1188 50       		.byte	0x50
 6865 1189 01       		.uleb128 0x1
 6866 118a 34       		.byte	0x34
 6867 118b 00       		.byte	0
 6868 118c 0C       		.uleb128 0xc
 6869 118d 34000000 		.4byte	.LVL222
 6870 1191 49340000 		.4byte	0x3449
 6871 1195 9F110000 		.4byte	0x119f
 6872 1199 0D       		.uleb128 0xd
 6873 119a 01       		.uleb128 0x1
 6874 119b 50       		.byte	0x50
 6875 119c 01       		.uleb128 0x1
 6876 119d 33       		.byte	0x33
 6877 119e 00       		.byte	0
 6878 119f 0C       		.uleb128 0xc
 6879 11a0 3A000000 		.4byte	.LVL223
 6880 11a4 49340000 		.4byte	0x3449
 6881 11a8 B2110000 		.4byte	0x11b2
 6882 11ac 0D       		.uleb128 0xd
 6883 11ad 01       		.uleb128 0x1
 6884 11ae 50       		.byte	0x50
 6885 11af 01       		.uleb128 0x1
 6886 11b0 49       		.byte	0x49
 6887 11b1 00       		.byte	0
 6888 11b2 0C       		.uleb128 0xc
 6889 11b3 40000000 		.4byte	.LVL224
 6890 11b7 49340000 		.4byte	0x3449
 6891 11bb C6110000 		.4byte	0x11c6
 6892 11bf 0D       		.uleb128 0xd
 6893 11c0 01       		.uleb128 0x1
 6894 11c1 50       		.byte	0x50
 6895 11c2 02       		.uleb128 0x2
 6896 11c3 75       		.byte	0x75
 6897 11c4 00       		.sleb128 0
 6898 11c5 00       		.byte	0
 6899 11c6 0E       		.uleb128 0xe
 6900 11c7 46000000 		.4byte	.LVL225
 6901 11cb 49340000 		.4byte	0x3449
 6902 11cf 0C       		.uleb128 0xc
 6903 11d0 4E000000 		.4byte	.LVL226
 6904 11d4 0A340000 		.4byte	0x340a
 6905 11d8 E4110000 		.4byte	0x11e4
 6906 11dc 0D       		.uleb128 0xd
 6907 11dd 01       		.uleb128 0x1
 6908 11de 50       		.byte	0x50
 6909 11df 03       		.uleb128 0x3
 6910 11e0 0A       		.byte	0xa
 6911 11e1 9001     		.2byte	0x190
 6912 11e3 00       		.byte	0
 6913 11e4 0C       		.uleb128 0xc
 6914 11e5 54000000 		.4byte	.LVL227
 6915 11e9 2B330000 		.4byte	0x332b
ARM GAS  C:\Users\Andres\AppData\Local\Temp\ccSsqcxd.s 			page 145


 6916 11ed F7110000 		.4byte	0x11f7
 6917 11f1 0D       		.uleb128 0xd
 6918 11f2 01       		.uleb128 0x1
 6919 11f3 50       		.byte	0x50
 6920 11f4 01       		.uleb128 0x1
 6921 11f5 35       		.byte	0x35
 6922 11f6 00       		.byte	0
 6923 11f7 0C       		.uleb128 0xc
 6924 11f8 5A000000 		.4byte	.LVL228
 6925 11fc 38340000 		.4byte	0x3438
 6926 1200 0A120000 		.4byte	0x120a
 6927 1204 0D       		.uleb128 0xd
 6928 1205 01       		.uleb128 0x1
 6929 1206 50       		.byte	0x50
 6930 1207 01       		.uleb128 0x1
 6931 1208 31       		.byte	0x31
 6932 1209 00       		.byte	0
 6933 120a 0E       		.uleb128 0xe
 6934 120b 5E000000 		.4byte	.LVL229
 6935 120f BD0B0000 		.4byte	0xbbd
 6936 1213 00       		.byte	0
 6937 1214 0F       		.uleb128 0xf
 6938 1215 0A060000 		.4byte	.LASF45
 6939 1219 04       		.byte	0x4
 6940 121a 9B       		.byte	0x9b
 6941 121b 5D000000 		.4byte	0x5d
 6942 121f 00000000 		.4byte	.LFB57
 6943 1223 70000000 		.4byte	.LFE57-.LFB57
 6944 1227 01       		.uleb128 0x1
 6945 1228 9C       		.byte	0x9c
 6946 1229 66130000 		.4byte	0x1366
 6947 122d 14       		.uleb128 0x14
 6948 122e 494400   		.ascii	"ID\000"
 6949 1231 04       		.byte	0x4
 6950 1232 9B       		.byte	0x9b
 6951 1233 2C000000 		.4byte	0x2c
 6952 1237 90030000 		.4byte	.LLST31
 6953 123b 0A       		.uleb128 0xa
 6954 123c AF020000 		.4byte	.LASF46
 6955 1240 04       		.byte	0x4
 6956 1241 9B       		.byte	0x9b
 6957 1242 5D000000 		.4byte	0x5d
 6958 1246 B1030000 		.4byte	.LLST32
 6959 124a 11       		.uleb128 0x11
 6960 124b 2E070000 		.4byte	.LASF47
 6961 124f 04       		.byte	0x4
 6962 1250 9C       		.byte	0x9c
 6963 1251 9D000000 		.4byte	0x9d
 6964 1255 D2030000 		.4byte	.LLST33
 6965 1259 11       		.uleb128 0x11
 6966 125a 46070000 		.4byte	.LASF48
 6967 125e 04       		.byte	0x4
 6968 125f 9C       		.byte	0x9c
 6969 1260 9D000000 		.4byte	0x9d
 6970 1264 F5030000 		.4byte	.LLST34
 6971 1268 0C       		.uleb128 0xc
 6972 1269 1C000000 		.4byte	.LVL234
ARM GAS  C:\Users\Andres\AppData\Local\Temp\ccSsqcxd.s 			page 146


 6973 126d 38340000 		.4byte	0x3438
 6974 1271 7B120000 		.4byte	0x127b
 6975 1275 0D       		.uleb128 0xd
 6976 1276 01       		.uleb128 0x1
 6977 1277 50       		.byte	0x50
 6978 1278 01       		.uleb128 0x1
 6979 1279 32       		.byte	0x32
 6980 127a 00       		.byte	0
 6981 127b 0C       		.uleb128 0xc
 6982 127c 22000000 		.4byte	.LVL235
 6983 1280 49340000 		.4byte	0x3449
 6984 1284 8F120000 		.4byte	0x128f
 6985 1288 0D       		.uleb128 0xd
 6986 1289 01       		.uleb128 0x1
 6987 128a 50       		.byte	0x50
 6988 128b 02       		.uleb128 0x2
 6989 128c 09       		.byte	0x9
 6990 128d FF       		.byte	0xff
 6991 128e 00       		.byte	0
 6992 128f 0C       		.uleb128 0xc
 6993 1290 28000000 		.4byte	.LVL236
 6994 1294 49340000 		.4byte	0x3449
 6995 1298 A3120000 		.4byte	0x12a3
 6996 129c 0D       		.uleb128 0xd
 6997 129d 01       		.uleb128 0x1
 6998 129e 50       		.byte	0x50
 6999 129f 02       		.uleb128 0x2
 7000 12a0 09       		.byte	0x9
 7001 12a1 FF       		.byte	0xff
 7002 12a2 00       		.byte	0
 7003 12a3 0C       		.uleb128 0xc
 7004 12a4 2E000000 		.4byte	.LVL237
 7005 12a8 49340000 		.4byte	0x3449
 7006 12ac B7120000 		.4byte	0x12b7
 7007 12b0 0D       		.uleb128 0xd
 7008 12b1 01       		.uleb128 0x1
 7009 12b2 50       		.byte	0x50
 7010 12b3 02       		.uleb128 0x2
 7011 12b4 74       		.byte	0x74
 7012 12b5 00       		.sleb128 0
 7013 12b6 00       		.byte	0
 7014 12b7 0C       		.uleb128 0xc
 7015 12b8 34000000 		.4byte	.LVL238
 7016 12bc 49340000 		.4byte	0x3449
 7017 12c0 CA120000 		.4byte	0x12ca
 7018 12c4 0D       		.uleb128 0xd
 7019 12c5 01       		.uleb128 0x1
 7020 12c6 50       		.byte	0x50
 7021 12c7 01       		.uleb128 0x1
 7022 12c8 35       		.byte	0x35
 7023 12c9 00       		.byte	0
 7024 12ca 0C       		.uleb128 0xc
 7025 12cb 3A000000 		.4byte	.LVL239
 7026 12cf 49340000 		.4byte	0x3449
 7027 12d3 DD120000 		.4byte	0x12dd
 7028 12d7 0D       		.uleb128 0xd
 7029 12d8 01       		.uleb128 0x1
ARM GAS  C:\Users\Andres\AppData\Local\Temp\ccSsqcxd.s 			page 147


 7030 12d9 50       		.byte	0x50
 7031 12da 01       		.uleb128 0x1
 7032 12db 33       		.byte	0x33
 7033 12dc 00       		.byte	0
 7034 12dd 0C       		.uleb128 0xc
 7035 12de 40000000 		.4byte	.LVL240
 7036 12e2 49340000 		.4byte	0x3449
 7037 12e6 F0120000 		.4byte	0x12f0
 7038 12ea 0D       		.uleb128 0xd
 7039 12eb 01       		.uleb128 0x1
 7040 12ec 50       		.byte	0x50
 7041 12ed 01       		.uleb128 0x1
 7042 12ee 4E       		.byte	0x4e
 7043 12ef 00       		.byte	0
 7044 12f0 0C       		.uleb128 0xc
 7045 12f1 46000000 		.4byte	.LVL241
 7046 12f5 49340000 		.4byte	0x3449
 7047 12f9 04130000 		.4byte	0x1304
 7048 12fd 0D       		.uleb128 0xd
 7049 12fe 01       		.uleb128 0x1
 7050 12ff 50       		.byte	0x50
 7051 1300 02       		.uleb128 0x2
 7052 1301 75       		.byte	0x75
 7053 1302 00       		.sleb128 0
 7054 1303 00       		.byte	0
 7055 1304 0C       		.uleb128 0xc
 7056 1305 4C000000 		.4byte	.LVL242
 7057 1309 49340000 		.4byte	0x3449
 7058 130d 18130000 		.4byte	0x1318
 7059 1311 0D       		.uleb128 0xd
 7060 1312 01       		.uleb128 0x1
 7061 1313 50       		.byte	0x50
 7062 1314 02       		.uleb128 0x2
 7063 1315 76       		.byte	0x76
 7064 1316 00       		.sleb128 0
 7065 1317 00       		.byte	0
 7066 1318 0E       		.uleb128 0xe
 7067 1319 52000000 		.4byte	.LVL243
 7068 131d 49340000 		.4byte	0x3449
 7069 1321 0C       		.uleb128 0xc
 7070 1322 5A000000 		.4byte	.LVL244
 7071 1326 0A340000 		.4byte	0x340a
 7072 132a 36130000 		.4byte	0x1336
 7073 132e 0D       		.uleb128 0xd
 7074 132f 01       		.uleb128 0x1
 7075 1330 50       		.byte	0x50
 7076 1331 03       		.uleb128 0x3
 7077 1332 0A       		.byte	0xa
 7078 1333 9001     		.2byte	0x190
 7079 1335 00       		.byte	0
 7080 1336 0C       		.uleb128 0xc
 7081 1337 60000000 		.4byte	.LVL245
 7082 133b 2B330000 		.4byte	0x332b
 7083 133f 49130000 		.4byte	0x1349
 7084 1343 0D       		.uleb128 0xd
 7085 1344 01       		.uleb128 0x1
 7086 1345 50       		.byte	0x50
ARM GAS  C:\Users\Andres\AppData\Local\Temp\ccSsqcxd.s 			page 148


 7087 1346 01       		.uleb128 0x1
 7088 1347 35       		.byte	0x35
 7089 1348 00       		.byte	0
 7090 1349 0C       		.uleb128 0xc
 7091 134a 66000000 		.4byte	.LVL246
 7092 134e 38340000 		.4byte	0x3438
 7093 1352 5C130000 		.4byte	0x135c
 7094 1356 0D       		.uleb128 0xd
 7095 1357 01       		.uleb128 0x1
 7096 1358 50       		.byte	0x50
 7097 1359 01       		.uleb128 0x1
 7098 135a 31       		.byte	0x31
 7099 135b 00       		.byte	0
 7100 135c 0E       		.uleb128 0xe
 7101 135d 6A000000 		.4byte	.LVL247
 7102 1361 BD0B0000 		.4byte	0xbbd
 7103 1365 00       		.byte	0
 7104 1366 0F       		.uleb128 0xf
 7105 1367 F3050000 		.4byte	.LASF49
 7106 136b 04       		.byte	0x4
 7107 136c B2       		.byte	0xb2
 7108 136d 5D000000 		.4byte	0x5d
 7109 1371 00000000 		.4byte	.LFB58
 7110 1375 C0000000 		.4byte	.LFE58-.LFB58
 7111 1379 01       		.uleb128 0x1
 7112 137a 9C       		.byte	0x9c
 7113 137b 7D150000 		.4byte	0x157d
 7114 137f 14       		.uleb128 0x14
 7115 1380 494400   		.ascii	"ID\000"
 7116 1383 04       		.byte	0x4
 7117 1384 B2       		.byte	0xb2
 7118 1385 2C000000 		.4byte	0x2c
 7119 1389 16040000 		.4byte	.LLST35
 7120 138d 0A       		.uleb128 0xa
 7121 138e 8B000000 		.4byte	.LASF44
 7122 1392 04       		.byte	0x4
 7123 1393 B2       		.byte	0xb2
 7124 1394 5D000000 		.4byte	0x5d
 7125 1398 50040000 		.4byte	.LLST36
 7126 139c 14       		.uleb128 0x14
 7127 139d 72616700 		.ascii	"rag\000"
 7128 13a1 04       		.byte	0x4
 7129 13a2 B2       		.byte	0xb2
 7130 13a3 5D000000 		.4byte	0x5d
 7131 13a7 8A040000 		.4byte	.LLST37
 7132 13ab 0C       		.uleb128 0xc
 7133 13ac 18000000 		.4byte	.LVL252
 7134 13b0 38340000 		.4byte	0x3438
 7135 13b4 BE130000 		.4byte	0x13be
 7136 13b8 0D       		.uleb128 0xd
 7137 13b9 01       		.uleb128 0x1
 7138 13ba 50       		.byte	0x50
 7139 13bb 01       		.uleb128 0x1
 7140 13bc 32       		.byte	0x32
 7141 13bd 00       		.byte	0
 7142 13be 0C       		.uleb128 0xc
 7143 13bf 1E000000 		.4byte	.LVL253
ARM GAS  C:\Users\Andres\AppData\Local\Temp\ccSsqcxd.s 			page 149


 7144 13c3 49340000 		.4byte	0x3449
 7145 13c7 D2130000 		.4byte	0x13d2
 7146 13cb 0D       		.uleb128 0xd
 7147 13cc 01       		.uleb128 0x1
 7148 13cd 50       		.byte	0x50
 7149 13ce 02       		.uleb128 0x2
 7150 13cf 09       		.byte	0x9
 7151 13d0 FF       		.byte	0xff
 7152 13d1 00       		.byte	0
 7153 13d2 0C       		.uleb128 0xc
 7154 13d3 24000000 		.4byte	.LVL254
 7155 13d7 49340000 		.4byte	0x3449
 7156 13db E6130000 		.4byte	0x13e6
 7157 13df 0D       		.uleb128 0xd
 7158 13e0 01       		.uleb128 0x1
 7159 13e1 50       		.byte	0x50
 7160 13e2 02       		.uleb128 0x2
 7161 13e3 09       		.byte	0x9
 7162 13e4 FF       		.byte	0xff
 7163 13e5 00       		.byte	0
 7164 13e6 0C       		.uleb128 0xc
 7165 13e7 2A000000 		.4byte	.LVL255
 7166 13eb 49340000 		.4byte	0x3449
 7167 13ef FA130000 		.4byte	0x13fa
 7168 13f3 0D       		.uleb128 0xd
 7169 13f4 01       		.uleb128 0x1
 7170 13f5 50       		.byte	0x50
 7171 13f6 02       		.uleb128 0x2
 7172 13f7 74       		.byte	0x74
 7173 13f8 00       		.sleb128 0
 7174 13f9 00       		.byte	0
 7175 13fa 0C       		.uleb128 0xc
 7176 13fb 30000000 		.4byte	.LVL256
 7177 13ff 49340000 		.4byte	0x3449
 7178 1403 0D140000 		.4byte	0x140d
 7179 1407 0D       		.uleb128 0xd
 7180 1408 01       		.uleb128 0x1
 7181 1409 50       		.byte	0x50
 7182 140a 01       		.uleb128 0x1
 7183 140b 35       		.byte	0x35
 7184 140c 00       		.byte	0
 7185 140d 0C       		.uleb128 0xc
 7186 140e 36000000 		.4byte	.LVL257
 7187 1412 49340000 		.4byte	0x3449
 7188 1416 20140000 		.4byte	0x1420
 7189 141a 0D       		.uleb128 0xd
 7190 141b 01       		.uleb128 0x1
 7191 141c 50       		.byte	0x50
 7192 141d 01       		.uleb128 0x1
 7193 141e 33       		.byte	0x33
 7194 141f 00       		.byte	0
 7195 1420 0C       		.uleb128 0xc
 7196 1421 3C000000 		.4byte	.LVL258
 7197 1425 49340000 		.4byte	0x3449
 7198 1429 33140000 		.4byte	0x1433
 7199 142d 0D       		.uleb128 0xd
 7200 142e 01       		.uleb128 0x1
ARM GAS  C:\Users\Andres\AppData\Local\Temp\ccSsqcxd.s 			page 150


 7201 142f 50       		.byte	0x50
 7202 1430 01       		.uleb128 0x1
 7203 1431 38       		.byte	0x38
 7204 1432 00       		.byte	0
 7205 1433 0E       		.uleb128 0xe
 7206 1434 42000000 		.4byte	.LVL259
 7207 1438 49340000 		.4byte	0x3449
 7208 143c 0C       		.uleb128 0xc
 7209 143d 4A000000 		.4byte	.LVL260
 7210 1441 0A340000 		.4byte	0x340a
 7211 1445 51140000 		.4byte	0x1451
 7212 1449 0D       		.uleb128 0xd
 7213 144a 01       		.uleb128 0x1
 7214 144b 50       		.byte	0x50
 7215 144c 03       		.uleb128 0x3
 7216 144d 0A       		.byte	0xa
 7217 144e 9001     		.2byte	0x190
 7218 1450 00       		.byte	0
 7219 1451 0C       		.uleb128 0xc
 7220 1452 50000000 		.4byte	.LVL261
 7221 1456 2B330000 		.4byte	0x332b
 7222 145a 64140000 		.4byte	0x1464
 7223 145e 0D       		.uleb128 0xd
 7224 145f 01       		.uleb128 0x1
 7225 1460 50       		.byte	0x50
 7226 1461 01       		.uleb128 0x1
 7227 1462 35       		.byte	0x35
 7228 1463 00       		.byte	0
 7229 1464 0C       		.uleb128 0xc
 7230 1465 56000000 		.4byte	.LVL262
 7231 1469 38340000 		.4byte	0x3438
 7232 146d 77140000 		.4byte	0x1477
 7233 1471 0D       		.uleb128 0xd
 7234 1472 01       		.uleb128 0x1
 7235 1473 50       		.byte	0x50
 7236 1474 01       		.uleb128 0x1
 7237 1475 31       		.byte	0x31
 7238 1476 00       		.byte	0
 7239 1477 0E       		.uleb128 0xe
 7240 1478 5A000000 		.4byte	.LVL263
 7241 147c BD0B0000 		.4byte	0xbbd
 7242 1480 0C       		.uleb128 0xc
 7243 1481 6C000000 		.4byte	.LVL266
 7244 1485 38340000 		.4byte	0x3438
 7245 1489 93140000 		.4byte	0x1493
 7246 148d 0D       		.uleb128 0xd
 7247 148e 01       		.uleb128 0x1
 7248 148f 50       		.byte	0x50
 7249 1490 01       		.uleb128 0x1
 7250 1491 32       		.byte	0x32
 7251 1492 00       		.byte	0
 7252 1493 0C       		.uleb128 0xc
 7253 1494 72000000 		.4byte	.LVL267
 7254 1498 49340000 		.4byte	0x3449
 7255 149c A7140000 		.4byte	0x14a7
 7256 14a0 0D       		.uleb128 0xd
 7257 14a1 01       		.uleb128 0x1
ARM GAS  C:\Users\Andres\AppData\Local\Temp\ccSsqcxd.s 			page 151


 7258 14a2 50       		.byte	0x50
 7259 14a3 02       		.uleb128 0x2
 7260 14a4 09       		.byte	0x9
 7261 14a5 FF       		.byte	0xff
 7262 14a6 00       		.byte	0
 7263 14a7 0C       		.uleb128 0xc
 7264 14a8 78000000 		.4byte	.LVL268
 7265 14ac 49340000 		.4byte	0x3449
 7266 14b0 BB140000 		.4byte	0x14bb
 7267 14b4 0D       		.uleb128 0xd
 7268 14b5 01       		.uleb128 0x1
 7269 14b6 50       		.byte	0x50
 7270 14b7 02       		.uleb128 0x2
 7271 14b8 09       		.byte	0x9
 7272 14b9 FF       		.byte	0xff
 7273 14ba 00       		.byte	0
 7274 14bb 0C       		.uleb128 0xc
 7275 14bc 7E000000 		.4byte	.LVL269
 7276 14c0 49340000 		.4byte	0x3449
 7277 14c4 CF140000 		.4byte	0x14cf
 7278 14c8 0D       		.uleb128 0xd
 7279 14c9 01       		.uleb128 0x1
 7280 14ca 50       		.byte	0x50
 7281 14cb 02       		.uleb128 0x2
 7282 14cc 74       		.byte	0x74
 7283 14cd 00       		.sleb128 0
 7284 14ce 00       		.byte	0
 7285 14cf 0C       		.uleb128 0xc
 7286 14d0 84000000 		.4byte	.LVL270
 7287 14d4 49340000 		.4byte	0x3449
 7288 14d8 E2140000 		.4byte	0x14e2
 7289 14dc 0D       		.uleb128 0xd
 7290 14dd 01       		.uleb128 0x1
 7291 14de 50       		.byte	0x50
 7292 14df 01       		.uleb128 0x1
 7293 14e0 35       		.byte	0x35
 7294 14e1 00       		.byte	0
 7295 14e2 0C       		.uleb128 0xc
 7296 14e3 8A000000 		.4byte	.LVL271
 7297 14e7 49340000 		.4byte	0x3449
 7298 14eb F5140000 		.4byte	0x14f5
 7299 14ef 0D       		.uleb128 0xd
 7300 14f0 01       		.uleb128 0x1
 7301 14f1 50       		.byte	0x50
 7302 14f2 01       		.uleb128 0x1
 7303 14f3 33       		.byte	0x33
 7304 14f4 00       		.byte	0
 7305 14f5 0C       		.uleb128 0xc
 7306 14f6 90000000 		.4byte	.LVL272
 7307 14fa 49340000 		.4byte	0x3449
 7308 14fe 08150000 		.4byte	0x1508
 7309 1502 0D       		.uleb128 0xd
 7310 1503 01       		.uleb128 0x1
 7311 1504 50       		.byte	0x50
 7312 1505 01       		.uleb128 0x1
 7313 1506 38       		.byte	0x38
 7314 1507 00       		.byte	0
ARM GAS  C:\Users\Andres\AppData\Local\Temp\ccSsqcxd.s 			page 152


 7315 1508 0C       		.uleb128 0xc
 7316 1509 96000000 		.4byte	.LVL273
 7317 150d 49340000 		.4byte	0x3449
 7318 1511 1C150000 		.4byte	0x151c
 7319 1515 0D       		.uleb128 0xd
 7320 1516 01       		.uleb128 0x1
 7321 1517 50       		.byte	0x50
 7322 1518 02       		.uleb128 0x2
 7323 1519 09       		.byte	0x9
 7324 151a FF       		.byte	0xff
 7325 151b 00       		.byte	0
 7326 151c 0C       		.uleb128 0xc
 7327 151d 9C000000 		.4byte	.LVL274
 7328 1521 49340000 		.4byte	0x3449
 7329 1525 2F150000 		.4byte	0x152f
 7330 1529 0D       		.uleb128 0xd
 7331 152a 01       		.uleb128 0x1
 7332 152b 50       		.byte	0x50
 7333 152c 01       		.uleb128 0x1
 7334 152d 33       		.byte	0x33
 7335 152e 00       		.byte	0
 7336 152f 0E       		.uleb128 0xe
 7337 1530 A2000000 		.4byte	.LVL275
 7338 1534 49340000 		.4byte	0x3449
 7339 1538 0C       		.uleb128 0xc
 7340 1539 AA000000 		.4byte	.LVL276
 7341 153d 0A340000 		.4byte	0x340a
 7342 1541 4D150000 		.4byte	0x154d
 7343 1545 0D       		.uleb128 0xd
 7344 1546 01       		.uleb128 0x1
 7345 1547 50       		.byte	0x50
 7346 1548 03       		.uleb128 0x3
 7347 1549 0A       		.byte	0xa
 7348 154a 9001     		.2byte	0x190
 7349 154c 00       		.byte	0
 7350 154d 0C       		.uleb128 0xc
 7351 154e B0000000 		.4byte	.LVL277
 7352 1552 2B330000 		.4byte	0x332b
 7353 1556 60150000 		.4byte	0x1560
 7354 155a 0D       		.uleb128 0xd
 7355 155b 01       		.uleb128 0x1
 7356 155c 50       		.byte	0x50
 7357 155d 01       		.uleb128 0x1
 7358 155e 35       		.byte	0x35
 7359 155f 00       		.byte	0
 7360 1560 0C       		.uleb128 0xc
 7361 1561 B6000000 		.4byte	.LVL278
 7362 1565 38340000 		.4byte	0x3438
 7363 1569 73150000 		.4byte	0x1573
 7364 156d 0D       		.uleb128 0xd
 7365 156e 01       		.uleb128 0x1
 7366 156f 50       		.byte	0x50
 7367 1570 01       		.uleb128 0x1
 7368 1571 31       		.byte	0x31
 7369 1572 00       		.byte	0
 7370 1573 0E       		.uleb128 0xe
 7371 1574 BA000000 		.4byte	.LVL279
ARM GAS  C:\Users\Andres\AppData\Local\Temp\ccSsqcxd.s 			page 153


 7372 1578 BD0B0000 		.4byte	0xbbd
 7373 157c 00       		.byte	0
 7374 157d 0F       		.uleb128 0xf
 7375 157e BD020000 		.4byte	.LASF50
 7376 1582 04       		.byte	0x4
 7377 1583 DB       		.byte	0xdb
 7378 1584 5D000000 		.4byte	0x5d
 7379 1588 00000000 		.4byte	.LFB59
 7380 158c 64000000 		.4byte	.LFE59-.LFB59
 7381 1590 01       		.uleb128 0x1
 7382 1591 9C       		.byte	0x9c
 7383 1592 9D160000 		.4byte	0x169d
 7384 1596 14       		.uleb128 0x14
 7385 1597 494400   		.ascii	"ID\000"
 7386 159a 04       		.byte	0x4
 7387 159b DB       		.byte	0xdb
 7388 159c 2C000000 		.4byte	0x2c
 7389 15a0 C4040000 		.4byte	.LLST38
 7390 15a4 0A       		.uleb128 0xa
 7391 15a5 8B000000 		.4byte	.LASF44
 7392 15a9 04       		.byte	0x4
 7393 15aa DB       		.byte	0xdb
 7394 15ab 5D000000 		.4byte	0x5d
 7395 15af E5040000 		.4byte	.LLST39
 7396 15b3 0C       		.uleb128 0xc
 7397 15b4 16000000 		.4byte	.LVL282
 7398 15b8 38340000 		.4byte	0x3438
 7399 15bc C6150000 		.4byte	0x15c6
 7400 15c0 0D       		.uleb128 0xd
 7401 15c1 01       		.uleb128 0x1
 7402 15c2 50       		.byte	0x50
 7403 15c3 01       		.uleb128 0x1
 7404 15c4 32       		.byte	0x32
 7405 15c5 00       		.byte	0
 7406 15c6 0C       		.uleb128 0xc
 7407 15c7 1C000000 		.4byte	.LVL283
 7408 15cb 49340000 		.4byte	0x3449
 7409 15cf DA150000 		.4byte	0x15da
 7410 15d3 0D       		.uleb128 0xd
 7411 15d4 01       		.uleb128 0x1
 7412 15d5 50       		.byte	0x50
 7413 15d6 02       		.uleb128 0x2
 7414 15d7 09       		.byte	0x9
 7415 15d8 FF       		.byte	0xff
 7416 15d9 00       		.byte	0
 7417 15da 0C       		.uleb128 0xc
 7418 15db 22000000 		.4byte	.LVL284
 7419 15df 49340000 		.4byte	0x3449
 7420 15e3 EE150000 		.4byte	0x15ee
 7421 15e7 0D       		.uleb128 0xd
 7422 15e8 01       		.uleb128 0x1
 7423 15e9 50       		.byte	0x50
 7424 15ea 02       		.uleb128 0x2
 7425 15eb 09       		.byte	0x9
 7426 15ec FF       		.byte	0xff
 7427 15ed 00       		.byte	0
 7428 15ee 0C       		.uleb128 0xc
ARM GAS  C:\Users\Andres\AppData\Local\Temp\ccSsqcxd.s 			page 154


 7429 15ef 28000000 		.4byte	.LVL285
 7430 15f3 49340000 		.4byte	0x3449
 7431 15f7 02160000 		.4byte	0x1602
 7432 15fb 0D       		.uleb128 0xd
 7433 15fc 01       		.uleb128 0x1
 7434 15fd 50       		.byte	0x50
 7435 15fe 02       		.uleb128 0x2
 7436 15ff 74       		.byte	0x74
 7437 1600 00       		.sleb128 0
 7438 1601 00       		.byte	0
 7439 1602 0C       		.uleb128 0xc
 7440 1603 2E000000 		.4byte	.LVL286
 7441 1607 49340000 		.4byte	0x3449
 7442 160b 15160000 		.4byte	0x1615
 7443 160f 0D       		.uleb128 0xd
 7444 1610 01       		.uleb128 0x1
 7445 1611 50       		.byte	0x50
 7446 1612 01       		.uleb128 0x1
 7447 1613 34       		.byte	0x34
 7448 1614 00       		.byte	0
 7449 1615 0C       		.uleb128 0xc
 7450 1616 34000000 		.4byte	.LVL287
 7451 161a 49340000 		.4byte	0x3449
 7452 161e 28160000 		.4byte	0x1628
 7453 1622 0D       		.uleb128 0xd
 7454 1623 01       		.uleb128 0x1
 7455 1624 50       		.byte	0x50
 7456 1625 01       		.uleb128 0x1
 7457 1626 33       		.byte	0x33
 7458 1627 00       		.byte	0
 7459 1628 0C       		.uleb128 0xc
 7460 1629 3A000000 		.4byte	.LVL288
 7461 162d 49340000 		.4byte	0x3449
 7462 1631 3B160000 		.4byte	0x163b
 7463 1635 0D       		.uleb128 0xd
 7464 1636 01       		.uleb128 0x1
 7465 1637 50       		.byte	0x50
 7466 1638 01       		.uleb128 0x1
 7467 1639 48       		.byte	0x48
 7468 163a 00       		.byte	0
 7469 163b 0C       		.uleb128 0xc
 7470 163c 40000000 		.4byte	.LVL289
 7471 1640 49340000 		.4byte	0x3449
 7472 1644 4F160000 		.4byte	0x164f
 7473 1648 0D       		.uleb128 0xd
 7474 1649 01       		.uleb128 0x1
 7475 164a 50       		.byte	0x50
 7476 164b 02       		.uleb128 0x2
 7477 164c 75       		.byte	0x75
 7478 164d 00       		.sleb128 0
 7479 164e 00       		.byte	0
 7480 164f 0E       		.uleb128 0xe
 7481 1650 46000000 		.4byte	.LVL290
 7482 1654 49340000 		.4byte	0x3449
 7483 1658 0C       		.uleb128 0xc
 7484 1659 4E000000 		.4byte	.LVL291
 7485 165d 0A340000 		.4byte	0x340a
ARM GAS  C:\Users\Andres\AppData\Local\Temp\ccSsqcxd.s 			page 155


 7486 1661 6D160000 		.4byte	0x166d
 7487 1665 0D       		.uleb128 0xd
 7488 1666 01       		.uleb128 0x1
 7489 1667 50       		.byte	0x50
 7490 1668 03       		.uleb128 0x3
 7491 1669 0A       		.byte	0xa
 7492 166a 9001     		.2byte	0x190
 7493 166c 00       		.byte	0
 7494 166d 0C       		.uleb128 0xc
 7495 166e 54000000 		.4byte	.LVL292
 7496 1672 2B330000 		.4byte	0x332b
 7497 1676 80160000 		.4byte	0x1680
 7498 167a 0D       		.uleb128 0xd
 7499 167b 01       		.uleb128 0x1
 7500 167c 50       		.byte	0x50
 7501 167d 01       		.uleb128 0x1
 7502 167e 35       		.byte	0x35
 7503 167f 00       		.byte	0
 7504 1680 0C       		.uleb128 0xc
 7505 1681 5A000000 		.4byte	.LVL293
 7506 1685 38340000 		.4byte	0x3438
 7507 1689 93160000 		.4byte	0x1693
 7508 168d 0D       		.uleb128 0xd
 7509 168e 01       		.uleb128 0x1
 7510 168f 50       		.byte	0x50
 7511 1690 01       		.uleb128 0x1
 7512 1691 31       		.byte	0x31
 7513 1692 00       		.byte	0
 7514 1693 0E       		.uleb128 0xe
 7515 1694 5E000000 		.4byte	.LVL294
 7516 1698 BD0B0000 		.4byte	0xbbd
 7517 169c 00       		.byte	0
 7518 169d 0F       		.uleb128 0xf
 7519 169e CE050000 		.4byte	.LASF51
 7520 16a2 04       		.byte	0x4
 7521 16a3 EF       		.byte	0xef
 7522 16a4 5D000000 		.4byte	0x5d
 7523 16a8 00000000 		.4byte	.LFB60
 7524 16ac 94000000 		.4byte	.LFE60-.LFB60
 7525 16b0 01       		.uleb128 0x1
 7526 16b1 9C       		.byte	0x9c
 7527 16b2 46180000 		.4byte	0x1846
 7528 16b6 14       		.uleb128 0x14
 7529 16b7 494400   		.ascii	"ID\000"
 7530 16ba 04       		.byte	0x4
 7531 16bb EF       		.byte	0xef
 7532 16bc 2C000000 		.4byte	0x2c
 7533 16c0 06050000 		.4byte	.LLST40
 7534 16c4 0A       		.uleb128 0xa
 7535 16c5 AF020000 		.4byte	.LASF46
 7536 16c9 04       		.byte	0x4
 7537 16ca EF       		.byte	0xef
 7538 16cb 5D000000 		.4byte	0x5d
 7539 16cf 27050000 		.4byte	.LLST41
 7540 16d3 0A       		.uleb128 0xa
 7541 16d4 F3020000 		.4byte	.LASF52
 7542 16d8 04       		.byte	0x4
ARM GAS  C:\Users\Andres\AppData\Local\Temp\ccSsqcxd.s 			page 156


 7543 16d9 EF       		.byte	0xef
 7544 16da 5D000000 		.4byte	0x5d
 7545 16de 48050000 		.4byte	.LLST42
 7546 16e2 11       		.uleb128 0x11
 7547 16e3 2E070000 		.4byte	.LASF47
 7548 16e7 04       		.byte	0x4
 7549 16e8 F0       		.byte	0xf0
 7550 16e9 9D000000 		.4byte	0x9d
 7551 16ed 69050000 		.4byte	.LLST43
 7552 16f1 11       		.uleb128 0x11
 7553 16f2 46070000 		.4byte	.LASF48
 7554 16f6 04       		.byte	0x4
 7555 16f7 F0       		.byte	0xf0
 7556 16f8 9D000000 		.4byte	0x9d
 7557 16fc 8C050000 		.4byte	.LLST44
 7558 1700 11       		.uleb128 0x11
 7559 1701 05040000 		.4byte	.LASF53
 7560 1705 04       		.byte	0x4
 7561 1706 F0       		.byte	0xf0
 7562 1707 9D000000 		.4byte	0x9d
 7563 170b AD050000 		.4byte	.LLST45
 7564 170f 11       		.uleb128 0x11
 7565 1710 0D040000 		.4byte	.LASF54
 7566 1714 04       		.byte	0x4
 7567 1715 F0       		.byte	0xf0
 7568 1716 9D000000 		.4byte	0x9d
 7569 171a D0050000 		.4byte	.LLST46
 7570 171e 0C       		.uleb128 0xc
 7571 171f 2E000000 		.4byte	.LVL301
 7572 1723 38340000 		.4byte	0x3438
 7573 1727 31170000 		.4byte	0x1731
 7574 172b 0D       		.uleb128 0xd
 7575 172c 01       		.uleb128 0x1
 7576 172d 50       		.byte	0x50
 7577 172e 01       		.uleb128 0x1
 7578 172f 32       		.byte	0x32
 7579 1730 00       		.byte	0
 7580 1731 0C       		.uleb128 0xc
 7581 1732 34000000 		.4byte	.LVL302
 7582 1736 49340000 		.4byte	0x3449
 7583 173a 45170000 		.4byte	0x1745
 7584 173e 0D       		.uleb128 0xd
 7585 173f 01       		.uleb128 0x1
 7586 1740 50       		.byte	0x50
 7587 1741 02       		.uleb128 0x2
 7588 1742 09       		.byte	0x9
 7589 1743 FF       		.byte	0xff
 7590 1744 00       		.byte	0
 7591 1745 0C       		.uleb128 0xc
 7592 1746 3A000000 		.4byte	.LVL303
 7593 174a 49340000 		.4byte	0x3449
 7594 174e 59170000 		.4byte	0x1759
 7595 1752 0D       		.uleb128 0xd
 7596 1753 01       		.uleb128 0x1
 7597 1754 50       		.byte	0x50
 7598 1755 02       		.uleb128 0x2
 7599 1756 09       		.byte	0x9
ARM GAS  C:\Users\Andres\AppData\Local\Temp\ccSsqcxd.s 			page 157


 7600 1757 FF       		.byte	0xff
 7601 1758 00       		.byte	0
 7602 1759 0C       		.uleb128 0xc
 7603 175a 40000000 		.4byte	.LVL304
 7604 175e 49340000 		.4byte	0x3449
 7605 1762 6F170000 		.4byte	0x176f
 7606 1766 0D       		.uleb128 0xd
 7607 1767 01       		.uleb128 0x1
 7608 1768 50       		.byte	0x50
 7609 1769 04       		.uleb128 0x4
 7610 176a 91       		.byte	0x91
 7611 176b 64       		.sleb128 -28
 7612 176c 94       		.byte	0x94
 7613 176d 01       		.byte	0x1
 7614 176e 00       		.byte	0
 7615 176f 0C       		.uleb128 0xc
 7616 1770 46000000 		.4byte	.LVL305
 7617 1774 49340000 		.4byte	0x3449
 7618 1778 82170000 		.4byte	0x1782
 7619 177c 0D       		.uleb128 0xd
 7620 177d 01       		.uleb128 0x1
 7621 177e 50       		.byte	0x50
 7622 177f 01       		.uleb128 0x1
 7623 1780 37       		.byte	0x37
 7624 1781 00       		.byte	0
 7625 1782 0C       		.uleb128 0xc
 7626 1783 4C000000 		.4byte	.LVL306
 7627 1787 49340000 		.4byte	0x3449
 7628 178b 95170000 		.4byte	0x1795
 7629 178f 0D       		.uleb128 0xd
 7630 1790 01       		.uleb128 0x1
 7631 1791 50       		.byte	0x50
 7632 1792 01       		.uleb128 0x1
 7633 1793 33       		.byte	0x33
 7634 1794 00       		.byte	0
 7635 1795 0C       		.uleb128 0xc
 7636 1796 52000000 		.4byte	.LVL307
 7637 179a 49340000 		.4byte	0x3449
 7638 179e A8170000 		.4byte	0x17a8
 7639 17a2 0D       		.uleb128 0xd
 7640 17a3 01       		.uleb128 0x1
 7641 17a4 50       		.byte	0x50
 7642 17a5 01       		.uleb128 0x1
 7643 17a6 4E       		.byte	0x4e
 7644 17a7 00       		.byte	0
 7645 17a8 0C       		.uleb128 0xc
 7646 17a9 58000000 		.4byte	.LVL308
 7647 17ad 49340000 		.4byte	0x3449
 7648 17b1 BC170000 		.4byte	0x17bc
 7649 17b5 0D       		.uleb128 0xd
 7650 17b6 01       		.uleb128 0x1
 7651 17b7 50       		.byte	0x50
 7652 17b8 02       		.uleb128 0x2
 7653 17b9 76       		.byte	0x76
 7654 17ba 00       		.sleb128 0
 7655 17bb 00       		.byte	0
 7656 17bc 0C       		.uleb128 0xc
ARM GAS  C:\Users\Andres\AppData\Local\Temp\ccSsqcxd.s 			page 158


 7657 17bd 5E000000 		.4byte	.LVL309
 7658 17c1 49340000 		.4byte	0x3449
 7659 17c5 D0170000 		.4byte	0x17d0
 7660 17c9 0D       		.uleb128 0xd
 7661 17ca 01       		.uleb128 0x1
 7662 17cb 50       		.byte	0x50
 7663 17cc 02       		.uleb128 0x2
 7664 17cd 78       		.byte	0x78
 7665 17ce 00       		.sleb128 0
 7666 17cf 00       		.byte	0
 7667 17d0 0C       		.uleb128 0xc
 7668 17d1 64000000 		.4byte	.LVL310
 7669 17d5 49340000 		.4byte	0x3449
 7670 17d9 E4170000 		.4byte	0x17e4
 7671 17dd 0D       		.uleb128 0xd
 7672 17de 01       		.uleb128 0x1
 7673 17df 50       		.byte	0x50
 7674 17e0 02       		.uleb128 0x2
 7675 17e1 74       		.byte	0x74
 7676 17e2 00       		.sleb128 0
 7677 17e3 00       		.byte	0
 7678 17e4 0C       		.uleb128 0xc
 7679 17e5 6A000000 		.4byte	.LVL311
 7680 17e9 49340000 		.4byte	0x3449
 7681 17ed F8170000 		.4byte	0x17f8
 7682 17f1 0D       		.uleb128 0xd
 7683 17f2 01       		.uleb128 0x1
 7684 17f3 50       		.byte	0x50
 7685 17f4 02       		.uleb128 0x2
 7686 17f5 77       		.byte	0x77
 7687 17f6 00       		.sleb128 0
 7688 17f7 00       		.byte	0
 7689 17f8 0E       		.uleb128 0xe
 7690 17f9 70000000 		.4byte	.LVL312
 7691 17fd 49340000 		.4byte	0x3449
 7692 1801 0C       		.uleb128 0xc
 7693 1802 78000000 		.4byte	.LVL313
 7694 1806 0A340000 		.4byte	0x340a
 7695 180a 16180000 		.4byte	0x1816
 7696 180e 0D       		.uleb128 0xd
 7697 180f 01       		.uleb128 0x1
 7698 1810 50       		.byte	0x50
 7699 1811 03       		.uleb128 0x3
 7700 1812 0A       		.byte	0xa
 7701 1813 9001     		.2byte	0x190
 7702 1815 00       		.byte	0
 7703 1816 0C       		.uleb128 0xc
 7704 1817 7E000000 		.4byte	.LVL314
 7705 181b 2B330000 		.4byte	0x332b
 7706 181f 29180000 		.4byte	0x1829
 7707 1823 0D       		.uleb128 0xd
 7708 1824 01       		.uleb128 0x1
 7709 1825 50       		.byte	0x50
 7710 1826 01       		.uleb128 0x1
 7711 1827 35       		.byte	0x35
 7712 1828 00       		.byte	0
 7713 1829 0C       		.uleb128 0xc
ARM GAS  C:\Users\Andres\AppData\Local\Temp\ccSsqcxd.s 			page 159


 7714 182a 84000000 		.4byte	.LVL315
 7715 182e 38340000 		.4byte	0x3438
 7716 1832 3C180000 		.4byte	0x183c
 7717 1836 0D       		.uleb128 0xd
 7718 1837 01       		.uleb128 0x1
 7719 1838 50       		.byte	0x50
 7720 1839 01       		.uleb128 0x1
 7721 183a 31       		.byte	0x31
 7722 183b 00       		.byte	0
 7723 183c 0E       		.uleb128 0xe
 7724 183d 88000000 		.4byte	.LVL316
 7725 1841 BD0B0000 		.4byte	0xbbd
 7726 1845 00       		.byte	0
 7727 1846 16       		.uleb128 0x16
 7728 1847 E0020000 		.4byte	.LASF55
 7729 184b 04       		.byte	0x4
 7730 184c 0C01     		.2byte	0x10c
 7731 184e 5D000000 		.4byte	0x5d
 7732 1852 00000000 		.4byte	.LFB61
 7733 1856 70000000 		.4byte	.LFE61-.LFB61
 7734 185a 01       		.uleb128 0x1
 7735 185b 9C       		.byte	0x9c
 7736 185c 9D190000 		.4byte	0x199d
 7737 1860 17       		.uleb128 0x17
 7738 1861 494400   		.ascii	"ID\000"
 7739 1864 04       		.byte	0x4
 7740 1865 0C01     		.2byte	0x10c
 7741 1867 2C000000 		.4byte	0x2c
 7742 186b F1050000 		.4byte	.LLST47
 7743 186f 18       		.uleb128 0x18
 7744 1870 AF020000 		.4byte	.LASF46
 7745 1874 04       		.byte	0x4
 7746 1875 0C01     		.2byte	0x10c
 7747 1877 5D000000 		.4byte	0x5d
 7748 187b 12060000 		.4byte	.LLST48
 7749 187f 19       		.uleb128 0x19
 7750 1880 2E070000 		.4byte	.LASF47
 7751 1884 04       		.byte	0x4
 7752 1885 0D01     		.2byte	0x10d
 7753 1887 9D000000 		.4byte	0x9d
 7754 188b 33060000 		.4byte	.LLST49
 7755 188f 19       		.uleb128 0x19
 7756 1890 46070000 		.4byte	.LASF48
 7757 1894 04       		.byte	0x4
 7758 1895 0D01     		.2byte	0x10d
 7759 1897 9D000000 		.4byte	0x9d
 7760 189b 56060000 		.4byte	.LLST50
 7761 189f 0C       		.uleb128 0xc
 7762 18a0 1C000000 		.4byte	.LVL325
 7763 18a4 38340000 		.4byte	0x3438
 7764 18a8 B2180000 		.4byte	0x18b2
 7765 18ac 0D       		.uleb128 0xd
 7766 18ad 01       		.uleb128 0x1
 7767 18ae 50       		.byte	0x50
 7768 18af 01       		.uleb128 0x1
 7769 18b0 32       		.byte	0x32
 7770 18b1 00       		.byte	0
ARM GAS  C:\Users\Andres\AppData\Local\Temp\ccSsqcxd.s 			page 160


 7771 18b2 0C       		.uleb128 0xc
 7772 18b3 22000000 		.4byte	.LVL326
 7773 18b7 49340000 		.4byte	0x3449
 7774 18bb C6180000 		.4byte	0x18c6
 7775 18bf 0D       		.uleb128 0xd
 7776 18c0 01       		.uleb128 0x1
 7777 18c1 50       		.byte	0x50
 7778 18c2 02       		.uleb128 0x2
 7779 18c3 09       		.byte	0x9
 7780 18c4 FF       		.byte	0xff
 7781 18c5 00       		.byte	0
 7782 18c6 0C       		.uleb128 0xc
 7783 18c7 28000000 		.4byte	.LVL327
 7784 18cb 49340000 		.4byte	0x3449
 7785 18cf DA180000 		.4byte	0x18da
 7786 18d3 0D       		.uleb128 0xd
 7787 18d4 01       		.uleb128 0x1
 7788 18d5 50       		.byte	0x50
 7789 18d6 02       		.uleb128 0x2
 7790 18d7 09       		.byte	0x9
 7791 18d8 FF       		.byte	0xff
 7792 18d9 00       		.byte	0
 7793 18da 0C       		.uleb128 0xc
 7794 18db 2E000000 		.4byte	.LVL328
 7795 18df 49340000 		.4byte	0x3449
 7796 18e3 EE180000 		.4byte	0x18ee
 7797 18e7 0D       		.uleb128 0xd
 7798 18e8 01       		.uleb128 0x1
 7799 18e9 50       		.byte	0x50
 7800 18ea 02       		.uleb128 0x2
 7801 18eb 74       		.byte	0x74
 7802 18ec 00       		.sleb128 0
 7803 18ed 00       		.byte	0
 7804 18ee 0C       		.uleb128 0xc
 7805 18ef 34000000 		.4byte	.LVL329
 7806 18f3 49340000 		.4byte	0x3449
 7807 18f7 01190000 		.4byte	0x1901
 7808 18fb 0D       		.uleb128 0xd
 7809 18fc 01       		.uleb128 0x1
 7810 18fd 50       		.byte	0x50
 7811 18fe 01       		.uleb128 0x1
 7812 18ff 35       		.byte	0x35
 7813 1900 00       		.byte	0
 7814 1901 0C       		.uleb128 0xc
 7815 1902 3A000000 		.4byte	.LVL330
 7816 1906 49340000 		.4byte	0x3449
 7817 190a 14190000 		.4byte	0x1914
 7818 190e 0D       		.uleb128 0xd
 7819 190f 01       		.uleb128 0x1
 7820 1910 50       		.byte	0x50
 7821 1911 01       		.uleb128 0x1
 7822 1912 34       		.byte	0x34
 7823 1913 00       		.byte	0
 7824 1914 0C       		.uleb128 0xc
 7825 1915 40000000 		.4byte	.LVL331
 7826 1919 49340000 		.4byte	0x3449
 7827 191d 27190000 		.4byte	0x1927
ARM GAS  C:\Users\Andres\AppData\Local\Temp\ccSsqcxd.s 			page 161


 7828 1921 0D       		.uleb128 0xd
 7829 1922 01       		.uleb128 0x1
 7830 1923 50       		.byte	0x50
 7831 1924 01       		.uleb128 0x1
 7832 1925 4E       		.byte	0x4e
 7833 1926 00       		.byte	0
 7834 1927 0C       		.uleb128 0xc
 7835 1928 46000000 		.4byte	.LVL332
 7836 192c 49340000 		.4byte	0x3449
 7837 1930 3B190000 		.4byte	0x193b
 7838 1934 0D       		.uleb128 0xd
 7839 1935 01       		.uleb128 0x1
 7840 1936 50       		.byte	0x50
 7841 1937 02       		.uleb128 0x2
 7842 1938 75       		.byte	0x75
 7843 1939 00       		.sleb128 0
 7844 193a 00       		.byte	0
 7845 193b 0C       		.uleb128 0xc
 7846 193c 4C000000 		.4byte	.LVL333
 7847 1940 49340000 		.4byte	0x3449
 7848 1944 4F190000 		.4byte	0x194f
 7849 1948 0D       		.uleb128 0xd
 7850 1949 01       		.uleb128 0x1
 7851 194a 50       		.byte	0x50
 7852 194b 02       		.uleb128 0x2
 7853 194c 76       		.byte	0x76
 7854 194d 00       		.sleb128 0
 7855 194e 00       		.byte	0
 7856 194f 0E       		.uleb128 0xe
 7857 1950 52000000 		.4byte	.LVL334
 7858 1954 49340000 		.4byte	0x3449
 7859 1958 0C       		.uleb128 0xc
 7860 1959 5A000000 		.4byte	.LVL335
 7861 195d 0A340000 		.4byte	0x340a
 7862 1961 6D190000 		.4byte	0x196d
 7863 1965 0D       		.uleb128 0xd
 7864 1966 01       		.uleb128 0x1
 7865 1967 50       		.byte	0x50
 7866 1968 03       		.uleb128 0x3
 7867 1969 0A       		.byte	0xa
 7868 196a 9001     		.2byte	0x190
 7869 196c 00       		.byte	0
 7870 196d 0C       		.uleb128 0xc
 7871 196e 60000000 		.4byte	.LVL336
 7872 1972 2B330000 		.4byte	0x332b
 7873 1976 80190000 		.4byte	0x1980
 7874 197a 0D       		.uleb128 0xd
 7875 197b 01       		.uleb128 0x1
 7876 197c 50       		.byte	0x50
 7877 197d 01       		.uleb128 0x1
 7878 197e 35       		.byte	0x35
 7879 197f 00       		.byte	0
 7880 1980 0C       		.uleb128 0xc
 7881 1981 66000000 		.4byte	.LVL337
 7882 1985 38340000 		.4byte	0x3438
 7883 1989 93190000 		.4byte	0x1993
 7884 198d 0D       		.uleb128 0xd
ARM GAS  C:\Users\Andres\AppData\Local\Temp\ccSsqcxd.s 			page 162


 7885 198e 01       		.uleb128 0x1
 7886 198f 50       		.byte	0x50
 7887 1990 01       		.uleb128 0x1
 7888 1991 31       		.byte	0x31
 7889 1992 00       		.byte	0
 7890 1993 0E       		.uleb128 0xe
 7891 1994 6A000000 		.4byte	.LVL338
 7892 1998 BD0B0000 		.4byte	0xbbd
 7893 199c 00       		.byte	0
 7894 199d 1A       		.uleb128 0x1a
 7895 199e 88040000 		.4byte	.LASF56
 7896 19a2 04       		.byte	0x4
 7897 19a3 2401     		.2byte	0x124
 7898 19a5 00000000 		.4byte	.LFB62
 7899 19a9 42000000 		.4byte	.LFE62-.LFB62
 7900 19ad 01       		.uleb128 0x1
 7901 19ae 9C       		.byte	0x9c
 7902 19af 741A0000 		.4byte	0x1a74
 7903 19b3 0C       		.uleb128 0xc
 7904 19b4 08000000 		.4byte	.LVL341
 7905 19b8 38340000 		.4byte	0x3438
 7906 19bc C6190000 		.4byte	0x19c6
 7907 19c0 0D       		.uleb128 0xd
 7908 19c1 01       		.uleb128 0x1
 7909 19c2 50       		.byte	0x50
 7910 19c3 01       		.uleb128 0x1
 7911 19c4 32       		.byte	0x32
 7912 19c5 00       		.byte	0
 7913 19c6 0C       		.uleb128 0xc
 7914 19c7 0E000000 		.4byte	.LVL342
 7915 19cb 49340000 		.4byte	0x3449
 7916 19cf DA190000 		.4byte	0x19da
 7917 19d3 0D       		.uleb128 0xd
 7918 19d4 01       		.uleb128 0x1
 7919 19d5 50       		.byte	0x50
 7920 19d6 02       		.uleb128 0x2
 7921 19d7 09       		.byte	0x9
 7922 19d8 FF       		.byte	0xff
 7923 19d9 00       		.byte	0
 7924 19da 0C       		.uleb128 0xc
 7925 19db 14000000 		.4byte	.LVL343
 7926 19df 49340000 		.4byte	0x3449
 7927 19e3 EE190000 		.4byte	0x19ee
 7928 19e7 0D       		.uleb128 0xd
 7929 19e8 01       		.uleb128 0x1
 7930 19e9 50       		.byte	0x50
 7931 19ea 02       		.uleb128 0x2
 7932 19eb 09       		.byte	0x9
 7933 19ec FF       		.byte	0xff
 7934 19ed 00       		.byte	0
 7935 19ee 0C       		.uleb128 0xc
 7936 19ef 1A000000 		.4byte	.LVL344
 7937 19f3 49340000 		.4byte	0x3449
 7938 19f7 021A0000 		.4byte	0x1a02
 7939 19fb 0D       		.uleb128 0xd
 7940 19fc 01       		.uleb128 0x1
 7941 19fd 50       		.byte	0x50
ARM GAS  C:\Users\Andres\AppData\Local\Temp\ccSsqcxd.s 			page 163


 7942 19fe 02       		.uleb128 0x2
 7943 19ff 09       		.byte	0x9
 7944 1a00 FE       		.byte	0xfe
 7945 1a01 00       		.byte	0
 7946 1a02 0C       		.uleb128 0xc
 7947 1a03 20000000 		.4byte	.LVL345
 7948 1a07 49340000 		.4byte	0x3449
 7949 1a0b 151A0000 		.4byte	0x1a15
 7950 1a0f 0D       		.uleb128 0xd
 7951 1a10 01       		.uleb128 0x1
 7952 1a11 50       		.byte	0x50
 7953 1a12 01       		.uleb128 0x1
 7954 1a13 32       		.byte	0x32
 7955 1a14 00       		.byte	0
 7956 1a15 0C       		.uleb128 0xc
 7957 1a16 26000000 		.4byte	.LVL346
 7958 1a1a 49340000 		.4byte	0x3449
 7959 1a1e 281A0000 		.4byte	0x1a28
 7960 1a22 0D       		.uleb128 0xd
 7961 1a23 01       		.uleb128 0x1
 7962 1a24 50       		.byte	0x50
 7963 1a25 01       		.uleb128 0x1
 7964 1a26 35       		.byte	0x35
 7965 1a27 00       		.byte	0
 7966 1a28 0C       		.uleb128 0xc
 7967 1a29 2C000000 		.4byte	.LVL347
 7968 1a2d 49340000 		.4byte	0x3449
 7969 1a31 3C1A0000 		.4byte	0x1a3c
 7970 1a35 0D       		.uleb128 0xd
 7971 1a36 01       		.uleb128 0x1
 7972 1a37 50       		.byte	0x50
 7973 1a38 02       		.uleb128 0x2
 7974 1a39 09       		.byte	0x9
 7975 1a3a FA       		.byte	0xfa
 7976 1a3b 00       		.byte	0
 7977 1a3c 0C       		.uleb128 0xc
 7978 1a3d 34000000 		.4byte	.LVL348
 7979 1a41 0A340000 		.4byte	0x340a
 7980 1a45 511A0000 		.4byte	0x1a51
 7981 1a49 0D       		.uleb128 0xd
 7982 1a4a 01       		.uleb128 0x1
 7983 1a4b 50       		.byte	0x50
 7984 1a4c 03       		.uleb128 0x3
 7985 1a4d 0A       		.byte	0xa
 7986 1a4e 9001     		.2byte	0x190
 7987 1a50 00       		.byte	0
 7988 1a51 0C       		.uleb128 0xc
 7989 1a52 3A000000 		.4byte	.LVL349
 7990 1a56 2B330000 		.4byte	0x332b
 7991 1a5a 641A0000 		.4byte	0x1a64
 7992 1a5e 0D       		.uleb128 0xd
 7993 1a5f 01       		.uleb128 0x1
 7994 1a60 50       		.byte	0x50
 7995 1a61 01       		.uleb128 0x1
 7996 1a62 35       		.byte	0x35
 7997 1a63 00       		.byte	0
 7998 1a64 12       		.uleb128 0x12
ARM GAS  C:\Users\Andres\AppData\Local\Temp\ccSsqcxd.s 			page 164


 7999 1a65 40000000 		.4byte	.LVL350
 8000 1a69 38340000 		.4byte	0x3438
 8001 1a6d 0D       		.uleb128 0xd
 8002 1a6e 01       		.uleb128 0x1
 8003 1a6f 50       		.byte	0x50
 8004 1a70 01       		.uleb128 0x1
 8005 1a71 31       		.byte	0x31
 8006 1a72 00       		.byte	0
 8007 1a73 00       		.byte	0
 8008 1a74 16       		.uleb128 0x16
 8009 1a75 6F020000 		.4byte	.LASF57
 8010 1a79 04       		.byte	0x4
 8011 1a7a 3201     		.2byte	0x132
 8012 1a7c 5D000000 		.4byte	0x5d
 8013 1a80 00000000 		.4byte	.LFB63
 8014 1a84 E0000000 		.4byte	.LFE63-.LFB63
 8015 1a88 01       		.uleb128 0x1
 8016 1a89 9C       		.byte	0x9c
 8017 1a8a 121D0000 		.4byte	0x1d12
 8018 1a8e 17       		.uleb128 0x17
 8019 1a8f 494400   		.ascii	"ID\000"
 8020 1a92 04       		.byte	0x4
 8021 1a93 3201     		.2byte	0x132
 8022 1a95 2C000000 		.4byte	0x2c
 8023 1a99 77060000 		.4byte	.LLST51
 8024 1a9d 18       		.uleb128 0x18
 8025 1a9e 62060000 		.4byte	.LASF58
 8026 1aa2 04       		.byte	0x4
 8027 1aa3 3201     		.2byte	0x132
 8028 1aa5 5D000000 		.4byte	0x5d
 8029 1aa9 B1060000 		.4byte	.LLST52
 8030 1aad 18       		.uleb128 0x18
 8031 1aae F3020000 		.4byte	.LASF52
 8032 1ab2 04       		.byte	0x4
 8033 1ab3 3201     		.2byte	0x132
 8034 1ab5 5D000000 		.4byte	0x5d
 8035 1ab9 EB060000 		.4byte	.LLST53
 8036 1abd 1B       		.uleb128 0x1b
 8037 1abe 08000000 		.4byte	.LBB2
 8038 1ac2 68000000 		.4byte	.LBE2-.LBB2
 8039 1ac6 E91B0000 		.4byte	0x1be9
 8040 1aca 19       		.uleb128 0x19
 8041 1acb 05040000 		.4byte	.LASF53
 8042 1acf 04       		.byte	0x4
 8043 1ad0 3501     		.2byte	0x135
 8044 1ad2 9D000000 		.4byte	0x9d
 8045 1ad6 25070000 		.4byte	.LLST54
 8046 1ada 19       		.uleb128 0x19
 8047 1adb 0D040000 		.4byte	.LASF54
 8048 1adf 04       		.byte	0x4
 8049 1ae0 3501     		.2byte	0x135
 8050 1ae2 9D000000 		.4byte	0x9d
 8051 1ae6 38070000 		.4byte	.LLST55
 8052 1aea 0C       		.uleb128 0xc
 8053 1aeb 20000000 		.4byte	.LVL355
 8054 1aef 38340000 		.4byte	0x3438
 8055 1af3 FD1A0000 		.4byte	0x1afd
ARM GAS  C:\Users\Andres\AppData\Local\Temp\ccSsqcxd.s 			page 165


 8056 1af7 0D       		.uleb128 0xd
 8057 1af8 01       		.uleb128 0x1
 8058 1af9 50       		.byte	0x50
 8059 1afa 01       		.uleb128 0x1
 8060 1afb 32       		.byte	0x32
 8061 1afc 00       		.byte	0
 8062 1afd 0C       		.uleb128 0xc
 8063 1afe 26000000 		.4byte	.LVL356
 8064 1b02 49340000 		.4byte	0x3449
 8065 1b06 111B0000 		.4byte	0x1b11
 8066 1b0a 0D       		.uleb128 0xd
 8067 1b0b 01       		.uleb128 0x1
 8068 1b0c 50       		.byte	0x50
 8069 1b0d 02       		.uleb128 0x2
 8070 1b0e 09       		.byte	0x9
 8071 1b0f FF       		.byte	0xff
 8072 1b10 00       		.byte	0
 8073 1b11 0C       		.uleb128 0xc
 8074 1b12 2C000000 		.4byte	.LVL357
 8075 1b16 49340000 		.4byte	0x3449
 8076 1b1a 251B0000 		.4byte	0x1b25
 8077 1b1e 0D       		.uleb128 0xd
 8078 1b1f 01       		.uleb128 0x1
 8079 1b20 50       		.byte	0x50
 8080 1b21 02       		.uleb128 0x2
 8081 1b22 09       		.byte	0x9
 8082 1b23 FF       		.byte	0xff
 8083 1b24 00       		.byte	0
 8084 1b25 0C       		.uleb128 0xc
 8085 1b26 32000000 		.4byte	.LVL358
 8086 1b2a 49340000 		.4byte	0x3449
 8087 1b2e 391B0000 		.4byte	0x1b39
 8088 1b32 0D       		.uleb128 0xd
 8089 1b33 01       		.uleb128 0x1
 8090 1b34 50       		.byte	0x50
 8091 1b35 02       		.uleb128 0x2
 8092 1b36 75       		.byte	0x75
 8093 1b37 00       		.sleb128 0
 8094 1b38 00       		.byte	0
 8095 1b39 0C       		.uleb128 0xc
 8096 1b3a 38000000 		.4byte	.LVL359
 8097 1b3e 49340000 		.4byte	0x3449
 8098 1b42 4C1B0000 		.4byte	0x1b4c
 8099 1b46 0D       		.uleb128 0xd
 8100 1b47 01       		.uleb128 0x1
 8101 1b48 50       		.byte	0x50
 8102 1b49 01       		.uleb128 0x1
 8103 1b4a 35       		.byte	0x35
 8104 1b4b 00       		.byte	0
 8105 1b4c 0C       		.uleb128 0xc
 8106 1b4d 3E000000 		.4byte	.LVL360
 8107 1b51 49340000 		.4byte	0x3449
 8108 1b55 5F1B0000 		.4byte	0x1b5f
 8109 1b59 0D       		.uleb128 0xd
 8110 1b5a 01       		.uleb128 0x1
 8111 1b5b 50       		.byte	0x50
 8112 1b5c 01       		.uleb128 0x1
ARM GAS  C:\Users\Andres\AppData\Local\Temp\ccSsqcxd.s 			page 166


 8113 1b5d 33       		.byte	0x33
 8114 1b5e 00       		.byte	0
 8115 1b5f 0C       		.uleb128 0xc
 8116 1b60 44000000 		.4byte	.LVL361
 8117 1b64 49340000 		.4byte	0x3449
 8118 1b68 731B0000 		.4byte	0x1b73
 8119 1b6c 0D       		.uleb128 0xd
 8120 1b6d 01       		.uleb128 0x1
 8121 1b6e 50       		.byte	0x50
 8122 1b6f 02       		.uleb128 0x2
 8123 1b70 08       		.byte	0x8
 8124 1b71 20       		.byte	0x20
 8125 1b72 00       		.byte	0
 8126 1b73 0C       		.uleb128 0xc
 8127 1b74 4A000000 		.4byte	.LVL362
 8128 1b78 49340000 		.4byte	0x3449
 8129 1b7c 871B0000 		.4byte	0x1b87
 8130 1b80 0D       		.uleb128 0xd
 8131 1b81 01       		.uleb128 0x1
 8132 1b82 50       		.byte	0x50
 8133 1b83 02       		.uleb128 0x2
 8134 1b84 74       		.byte	0x74
 8135 1b85 00       		.sleb128 0
 8136 1b86 00       		.byte	0
 8137 1b87 0C       		.uleb128 0xc
 8138 1b88 50000000 		.4byte	.LVL363
 8139 1b8c 49340000 		.4byte	0x3449
 8140 1b90 9B1B0000 		.4byte	0x1b9b
 8141 1b94 0D       		.uleb128 0xd
 8142 1b95 01       		.uleb128 0x1
 8143 1b96 50       		.byte	0x50
 8144 1b97 02       		.uleb128 0x2
 8145 1b98 76       		.byte	0x76
 8146 1b99 00       		.sleb128 0
 8147 1b9a 00       		.byte	0
 8148 1b9b 0E       		.uleb128 0xe
 8149 1b9c 56000000 		.4byte	.LVL364
 8150 1ba0 49340000 		.4byte	0x3449
 8151 1ba4 0C       		.uleb128 0xc
 8152 1ba5 5E000000 		.4byte	.LVL365
 8153 1ba9 0A340000 		.4byte	0x340a
 8154 1bad B91B0000 		.4byte	0x1bb9
 8155 1bb1 0D       		.uleb128 0xd
 8156 1bb2 01       		.uleb128 0x1
 8157 1bb3 50       		.byte	0x50
 8158 1bb4 03       		.uleb128 0x3
 8159 1bb5 0A       		.byte	0xa
 8160 1bb6 9001     		.2byte	0x190
 8161 1bb8 00       		.byte	0
 8162 1bb9 0C       		.uleb128 0xc
 8163 1bba 64000000 		.4byte	.LVL366
 8164 1bbe 2B330000 		.4byte	0x332b
 8165 1bc2 CC1B0000 		.4byte	0x1bcc
 8166 1bc6 0D       		.uleb128 0xd
 8167 1bc7 01       		.uleb128 0x1
 8168 1bc8 50       		.byte	0x50
 8169 1bc9 01       		.uleb128 0x1
ARM GAS  C:\Users\Andres\AppData\Local\Temp\ccSsqcxd.s 			page 167


 8170 1bca 35       		.byte	0x35
 8171 1bcb 00       		.byte	0
 8172 1bcc 0C       		.uleb128 0xc
 8173 1bcd 6A000000 		.4byte	.LVL367
 8174 1bd1 38340000 		.4byte	0x3438
 8175 1bd5 DF1B0000 		.4byte	0x1bdf
 8176 1bd9 0D       		.uleb128 0xd
 8177 1bda 01       		.uleb128 0x1
 8178 1bdb 50       		.byte	0x50
 8179 1bdc 01       		.uleb128 0x1
 8180 1bdd 31       		.byte	0x31
 8181 1bde 00       		.byte	0
 8182 1bdf 0E       		.uleb128 0xe
 8183 1be0 6E000000 		.4byte	.LVL368
 8184 1be4 BD0B0000 		.4byte	0xbbd
 8185 1be8 00       		.byte	0
 8186 1be9 1C       		.uleb128 0x1c
 8187 1bea 70000000 		.4byte	.LBB3
 8188 1bee 68000000 		.4byte	.LBE3-.LBB3
 8189 1bf2 19       		.uleb128 0x19
 8190 1bf3 05040000 		.4byte	.LASF53
 8191 1bf7 04       		.byte	0x4
 8192 1bf8 4E01     		.2byte	0x14e
 8193 1bfa 9D000000 		.4byte	0x9d
 8194 1bfe 4B070000 		.4byte	.LLST56
 8195 1c02 19       		.uleb128 0x19
 8196 1c03 0D040000 		.4byte	.LASF54
 8197 1c07 04       		.byte	0x4
 8198 1c08 4E01     		.2byte	0x14e
 8199 1c0a 9D000000 		.4byte	0x9d
 8200 1c0e 5E070000 		.4byte	.LLST57
 8201 1c12 0C       		.uleb128 0xc
 8202 1c13 8A000000 		.4byte	.LVL373
 8203 1c17 38340000 		.4byte	0x3438
 8204 1c1b 251C0000 		.4byte	0x1c25
 8205 1c1f 0D       		.uleb128 0xd
 8206 1c20 01       		.uleb128 0x1
 8207 1c21 50       		.byte	0x50
 8208 1c22 01       		.uleb128 0x1
 8209 1c23 32       		.byte	0x32
 8210 1c24 00       		.byte	0
 8211 1c25 0C       		.uleb128 0xc
 8212 1c26 90000000 		.4byte	.LVL374
 8213 1c2a 49340000 		.4byte	0x3449
 8214 1c2e 391C0000 		.4byte	0x1c39
 8215 1c32 0D       		.uleb128 0xd
 8216 1c33 01       		.uleb128 0x1
 8217 1c34 50       		.byte	0x50
 8218 1c35 02       		.uleb128 0x2
 8219 1c36 09       		.byte	0x9
 8220 1c37 FF       		.byte	0xff
 8221 1c38 00       		.byte	0
 8222 1c39 0C       		.uleb128 0xc
 8223 1c3a 96000000 		.4byte	.LVL375
 8224 1c3e 49340000 		.4byte	0x3449
 8225 1c42 4D1C0000 		.4byte	0x1c4d
 8226 1c46 0D       		.uleb128 0xd
ARM GAS  C:\Users\Andres\AppData\Local\Temp\ccSsqcxd.s 			page 168


 8227 1c47 01       		.uleb128 0x1
 8228 1c48 50       		.byte	0x50
 8229 1c49 02       		.uleb128 0x2
 8230 1c4a 09       		.byte	0x9
 8231 1c4b FF       		.byte	0xff
 8232 1c4c 00       		.byte	0
 8233 1c4d 0C       		.uleb128 0xc
 8234 1c4e 9C000000 		.4byte	.LVL376
 8235 1c52 49340000 		.4byte	0x3449
 8236 1c56 611C0000 		.4byte	0x1c61
 8237 1c5a 0D       		.uleb128 0xd
 8238 1c5b 01       		.uleb128 0x1
 8239 1c5c 50       		.byte	0x50
 8240 1c5d 02       		.uleb128 0x2
 8241 1c5e 75       		.byte	0x75
 8242 1c5f 00       		.sleb128 0
 8243 1c60 00       		.byte	0
 8244 1c61 0C       		.uleb128 0xc
 8245 1c62 A2000000 		.4byte	.LVL377
 8246 1c66 49340000 		.4byte	0x3449
 8247 1c6a 741C0000 		.4byte	0x1c74
 8248 1c6e 0D       		.uleb128 0xd
 8249 1c6f 01       		.uleb128 0x1
 8250 1c70 50       		.byte	0x50
 8251 1c71 01       		.uleb128 0x1
 8252 1c72 35       		.byte	0x35
 8253 1c73 00       		.byte	0
 8254 1c74 0C       		.uleb128 0xc
 8255 1c75 A8000000 		.4byte	.LVL378
 8256 1c79 49340000 		.4byte	0x3449
 8257 1c7d 871C0000 		.4byte	0x1c87
 8258 1c81 0D       		.uleb128 0xd
 8259 1c82 01       		.uleb128 0x1
 8260 1c83 50       		.byte	0x50
 8261 1c84 01       		.uleb128 0x1
 8262 1c85 33       		.byte	0x33
 8263 1c86 00       		.byte	0
 8264 1c87 0C       		.uleb128 0xc
 8265 1c88 AE000000 		.4byte	.LVL379
 8266 1c8c 49340000 		.4byte	0x3449
 8267 1c90 9B1C0000 		.4byte	0x1c9b
 8268 1c94 0D       		.uleb128 0xd
 8269 1c95 01       		.uleb128 0x1
 8270 1c96 50       		.byte	0x50
 8271 1c97 02       		.uleb128 0x2
 8272 1c98 08       		.byte	0x8
 8273 1c99 20       		.byte	0x20
 8274 1c9a 00       		.byte	0
 8275 1c9b 0C       		.uleb128 0xc
 8276 1c9c B4000000 		.4byte	.LVL380
 8277 1ca0 49340000 		.4byte	0x3449
 8278 1ca4 AF1C0000 		.4byte	0x1caf
 8279 1ca8 0D       		.uleb128 0xd
 8280 1ca9 01       		.uleb128 0x1
 8281 1caa 50       		.byte	0x50
 8282 1cab 02       		.uleb128 0x2
 8283 1cac 74       		.byte	0x74
ARM GAS  C:\Users\Andres\AppData\Local\Temp\ccSsqcxd.s 			page 169


 8284 1cad 00       		.sleb128 0
 8285 1cae 00       		.byte	0
 8286 1caf 0C       		.uleb128 0xc
 8287 1cb0 BA000000 		.4byte	.LVL381
 8288 1cb4 49340000 		.4byte	0x3449
 8289 1cb8 C31C0000 		.4byte	0x1cc3
 8290 1cbc 0D       		.uleb128 0xd
 8291 1cbd 01       		.uleb128 0x1
 8292 1cbe 50       		.byte	0x50
 8293 1cbf 02       		.uleb128 0x2
 8294 1cc0 76       		.byte	0x76
 8295 1cc1 00       		.sleb128 0
 8296 1cc2 00       		.byte	0
 8297 1cc3 0E       		.uleb128 0xe
 8298 1cc4 C0000000 		.4byte	.LVL382
 8299 1cc8 49340000 		.4byte	0x3449
 8300 1ccc 0C       		.uleb128 0xc
 8301 1ccd C8000000 		.4byte	.LVL383
 8302 1cd1 0A340000 		.4byte	0x340a
 8303 1cd5 E11C0000 		.4byte	0x1ce1
 8304 1cd9 0D       		.uleb128 0xd
 8305 1cda 01       		.uleb128 0x1
 8306 1cdb 50       		.byte	0x50
 8307 1cdc 03       		.uleb128 0x3
 8308 1cdd 0A       		.byte	0xa
 8309 1cde 9001     		.2byte	0x190
 8310 1ce0 00       		.byte	0
 8311 1ce1 0C       		.uleb128 0xc
 8312 1ce2 CE000000 		.4byte	.LVL384
 8313 1ce6 2B330000 		.4byte	0x332b
 8314 1cea F41C0000 		.4byte	0x1cf4
 8315 1cee 0D       		.uleb128 0xd
 8316 1cef 01       		.uleb128 0x1
 8317 1cf0 50       		.byte	0x50
 8318 1cf1 01       		.uleb128 0x1
 8319 1cf2 35       		.byte	0x35
 8320 1cf3 00       		.byte	0
 8321 1cf4 0C       		.uleb128 0xc
 8322 1cf5 D4000000 		.4byte	.LVL385
 8323 1cf9 38340000 		.4byte	0x3438
 8324 1cfd 071D0000 		.4byte	0x1d07
 8325 1d01 0D       		.uleb128 0xd
 8326 1d02 01       		.uleb128 0x1
 8327 1d03 50       		.byte	0x50
 8328 1d04 01       		.uleb128 0x1
 8329 1d05 31       		.byte	0x31
 8330 1d06 00       		.byte	0
 8331 1d07 0E       		.uleb128 0xe
 8332 1d08 D8000000 		.4byte	.LVL386
 8333 1d0c BD0B0000 		.4byte	0xbbd
 8334 1d10 00       		.byte	0
 8335 1d11 00       		.byte	0
 8336 1d12 16       		.uleb128 0x16
 8337 1d13 62020000 		.4byte	.LASF59
 8338 1d17 04       		.byte	0x4
 8339 1d18 6501     		.2byte	0x165
 8340 1d1a 5D000000 		.4byte	0x5d
ARM GAS  C:\Users\Andres\AppData\Local\Temp\ccSsqcxd.s 			page 170


 8341 1d1e 00000000 		.4byte	.LFB64
 8342 1d22 28010000 		.4byte	.LFE64-.LFB64
 8343 1d26 01       		.uleb128 0x1
 8344 1d27 9C       		.byte	0x9c
 8345 1d28 D31E0000 		.4byte	0x1ed3
 8346 1d2c 17       		.uleb128 0x17
 8347 1d2d 494400   		.ascii	"ID\000"
 8348 1d30 04       		.byte	0x4
 8349 1d31 6501     		.2byte	0x165
 8350 1d33 2C000000 		.4byte	0x2c
 8351 1d37 71070000 		.4byte	.LLST58
 8352 1d3b 19       		.uleb128 0x19
 8353 1d3c 1A030000 		.4byte	.LASF19
 8354 1d40 04       		.byte	0x4
 8355 1d41 6601     		.2byte	0x166
 8356 1d43 5D000000 		.4byte	0x5d
 8357 1d47 92070000 		.4byte	.LLST59
 8358 1d4b 0E       		.uleb128 0xe
 8359 1d4c 08000000 		.4byte	.LVL388
 8360 1d50 31340000 		.4byte	0x3431
 8361 1d54 0C       		.uleb128 0xc
 8362 1d55 18000000 		.4byte	.LVL389
 8363 1d59 38340000 		.4byte	0x3438
 8364 1d5d 671D0000 		.4byte	0x1d67
 8365 1d61 0D       		.uleb128 0xd
 8366 1d62 01       		.uleb128 0x1
 8367 1d63 50       		.byte	0x50
 8368 1d64 01       		.uleb128 0x1
 8369 1d65 32       		.byte	0x32
 8370 1d66 00       		.byte	0
 8371 1d67 0C       		.uleb128 0xc
 8372 1d68 1E000000 		.4byte	.LVL390
 8373 1d6c 49340000 		.4byte	0x3449
 8374 1d70 7B1D0000 		.4byte	0x1d7b
 8375 1d74 0D       		.uleb128 0xd
 8376 1d75 01       		.uleb128 0x1
 8377 1d76 50       		.byte	0x50
 8378 1d77 02       		.uleb128 0x2
 8379 1d78 09       		.byte	0x9
 8380 1d79 FF       		.byte	0xff
 8381 1d7a 00       		.byte	0
 8382 1d7b 0C       		.uleb128 0xc
 8383 1d7c 24000000 		.4byte	.LVL391
 8384 1d80 49340000 		.4byte	0x3449
 8385 1d84 8F1D0000 		.4byte	0x1d8f
 8386 1d88 0D       		.uleb128 0xd
 8387 1d89 01       		.uleb128 0x1
 8388 1d8a 50       		.byte	0x50
 8389 1d8b 02       		.uleb128 0x2
 8390 1d8c 09       		.byte	0x9
 8391 1d8d FF       		.byte	0xff
 8392 1d8e 00       		.byte	0
 8393 1d8f 0C       		.uleb128 0xc
 8394 1d90 2A000000 		.4byte	.LVL392
 8395 1d94 49340000 		.4byte	0x3449
 8396 1d98 A31D0000 		.4byte	0x1da3
 8397 1d9c 0D       		.uleb128 0xd
ARM GAS  C:\Users\Andres\AppData\Local\Temp\ccSsqcxd.s 			page 171


 8398 1d9d 01       		.uleb128 0x1
 8399 1d9e 50       		.byte	0x50
 8400 1d9f 02       		.uleb128 0x2
 8401 1da0 75       		.byte	0x75
 8402 1da1 00       		.sleb128 0
 8403 1da2 00       		.byte	0
 8404 1da3 0C       		.uleb128 0xc
 8405 1da4 30000000 		.4byte	.LVL393
 8406 1da8 49340000 		.4byte	0x3449
 8407 1dac B61D0000 		.4byte	0x1db6
 8408 1db0 0D       		.uleb128 0xd
 8409 1db1 01       		.uleb128 0x1
 8410 1db2 50       		.byte	0x50
 8411 1db3 01       		.uleb128 0x1
 8412 1db4 34       		.byte	0x34
 8413 1db5 00       		.byte	0
 8414 1db6 0C       		.uleb128 0xc
 8415 1db7 36000000 		.4byte	.LVL394
 8416 1dbb 49340000 		.4byte	0x3449
 8417 1dbf C91D0000 		.4byte	0x1dc9
 8418 1dc3 0D       		.uleb128 0xd
 8419 1dc4 01       		.uleb128 0x1
 8420 1dc5 50       		.byte	0x50
 8421 1dc6 01       		.uleb128 0x1
 8422 1dc7 32       		.byte	0x32
 8423 1dc8 00       		.byte	0
 8424 1dc9 0C       		.uleb128 0xc
 8425 1dca 3C000000 		.4byte	.LVL395
 8426 1dce 49340000 		.4byte	0x3449
 8427 1dd2 DD1D0000 		.4byte	0x1ddd
 8428 1dd6 0D       		.uleb128 0xd
 8429 1dd7 01       		.uleb128 0x1
 8430 1dd8 50       		.byte	0x50
 8431 1dd9 02       		.uleb128 0x2
 8432 1dda 08       		.byte	0x8
 8433 1ddb 24       		.byte	0x24
 8434 1ddc 00       		.byte	0
 8435 1ddd 0C       		.uleb128 0xc
 8436 1dde 42000000 		.4byte	.LVL396
 8437 1de2 49340000 		.4byte	0x3449
 8438 1de6 F01D0000 		.4byte	0x1df0
 8439 1dea 0D       		.uleb128 0xd
 8440 1deb 01       		.uleb128 0x1
 8441 1dec 50       		.byte	0x50
 8442 1ded 01       		.uleb128 0x1
 8443 1dee 32       		.byte	0x32
 8444 1def 00       		.byte	0
 8445 1df0 0E       		.uleb128 0xe
 8446 1df1 48000000 		.4byte	.LVL397
 8447 1df5 49340000 		.4byte	0x3449
 8448 1df9 0C       		.uleb128 0xc
 8449 1dfa 50000000 		.4byte	.LVL398
 8450 1dfe 0A340000 		.4byte	0x340a
 8451 1e02 0E1E0000 		.4byte	0x1e0e
 8452 1e06 0D       		.uleb128 0xd
 8453 1e07 01       		.uleb128 0x1
 8454 1e08 50       		.byte	0x50
ARM GAS  C:\Users\Andres\AppData\Local\Temp\ccSsqcxd.s 			page 172


 8455 1e09 03       		.uleb128 0x3
 8456 1e0a 0A       		.byte	0xa
 8457 1e0b 9001     		.2byte	0x190
 8458 1e0d 00       		.byte	0
 8459 1e0e 0C       		.uleb128 0xc
 8460 1e0f 56000000 		.4byte	.LVL399
 8461 1e13 2B330000 		.4byte	0x332b
 8462 1e17 211E0000 		.4byte	0x1e21
 8463 1e1b 0D       		.uleb128 0xd
 8464 1e1c 01       		.uleb128 0x1
 8465 1e1d 50       		.byte	0x50
 8466 1e1e 01       		.uleb128 0x1
 8467 1e1f 35       		.byte	0x35
 8468 1e20 00       		.byte	0
 8469 1e21 0C       		.uleb128 0xc
 8470 1e22 5C000000 		.4byte	.LVL400
 8471 1e26 38340000 		.4byte	0x3438
 8472 1e2a 341E0000 		.4byte	0x1e34
 8473 1e2e 0D       		.uleb128 0xd
 8474 1e2f 01       		.uleb128 0x1
 8475 1e30 50       		.byte	0x50
 8476 1e31 01       		.uleb128 0x1
 8477 1e32 31       		.byte	0x31
 8478 1e33 00       		.byte	0
 8479 1e34 0C       		.uleb128 0xc
 8480 1e35 6E000000 		.4byte	.LVL401
 8481 1e39 2B330000 		.4byte	0x332b
 8482 1e3d 471E0000 		.4byte	0x1e47
 8483 1e41 0D       		.uleb128 0xd
 8484 1e42 01       		.uleb128 0x1
 8485 1e43 50       		.byte	0x50
 8486 1e44 01       		.uleb128 0x1
 8487 1e45 44       		.byte	0x44
 8488 1e46 00       		.byte	0
 8489 1e47 0C       		.uleb128 0xc
 8490 1e48 7E000000 		.4byte	.LVL402
 8491 1e4c 0A340000 		.4byte	0x340a
 8492 1e50 5C1E0000 		.4byte	0x1e5c
 8493 1e54 0D       		.uleb128 0xd
 8494 1e55 01       		.uleb128 0x1
 8495 1e56 50       		.byte	0x50
 8496 1e57 03       		.uleb128 0x3
 8497 1e58 0A       		.byte	0xa
 8498 1e59 E803     		.2byte	0x3e8
 8499 1e5b 00       		.byte	0
 8500 1e5c 0E       		.uleb128 0xe
 8501 1e5d 82000000 		.4byte	.LVL403
 8502 1e61 1B340000 		.4byte	0x341b
 8503 1e65 0E       		.uleb128 0xe
 8504 1e66 A8000000 		.4byte	.LVL405
 8505 1e6a 5A340000 		.4byte	0x345a
 8506 1e6e 0E       		.uleb128 0xe
 8507 1e6f B0000000 		.4byte	.LVL406
 8508 1e73 5A340000 		.4byte	0x345a
 8509 1e77 0E       		.uleb128 0xe
 8510 1e78 CA000000 		.4byte	.LVL407
 8511 1e7c 5A340000 		.4byte	0x345a
ARM GAS  C:\Users\Andres\AppData\Local\Temp\ccSsqcxd.s 			page 173


 8512 1e80 0E       		.uleb128 0xe
 8513 1e81 CE000000 		.4byte	.LVL408
 8514 1e85 5A340000 		.4byte	0x345a
 8515 1e89 0E       		.uleb128 0xe
 8516 1e8a D2000000 		.4byte	.LVL409
 8517 1e8e 5A340000 		.4byte	0x345a
 8518 1e92 0E       		.uleb128 0xe
 8519 1e93 DA000000 		.4byte	.LVL410
 8520 1e97 5A340000 		.4byte	0x345a
 8521 1e9b 0E       		.uleb128 0xe
 8522 1e9c E2000000 		.4byte	.LVL411
 8523 1ea0 5A340000 		.4byte	0x345a
 8524 1ea4 0E       		.uleb128 0xe
 8525 1ea5 EA000000 		.4byte	.LVL413
 8526 1ea9 5A340000 		.4byte	0x345a
 8527 1ead 0E       		.uleb128 0xe
 8528 1eae F6000000 		.4byte	.LVL416
 8529 1eb2 31340000 		.4byte	0x3431
 8530 1eb6 0C       		.uleb128 0xc
 8531 1eb7 FC000000 		.4byte	.LVL417
 8532 1ebb 2B330000 		.4byte	0x332b
 8533 1ebf C91E0000 		.4byte	0x1ec9
 8534 1ec3 0D       		.uleb128 0xd
 8535 1ec4 01       		.uleb128 0x1
 8536 1ec5 50       		.byte	0x50
 8537 1ec6 01       		.uleb128 0x1
 8538 1ec7 3A       		.byte	0x3a
 8539 1ec8 00       		.byte	0
 8540 1ec9 0E       		.uleb128 0xe
 8541 1eca 00010000 		.4byte	.LVL418
 8542 1ece 1B340000 		.4byte	0x341b
 8543 1ed2 00       		.byte	0
 8544 1ed3 16       		.uleb128 0x16
 8545 1ed4 84060000 		.4byte	.LASF60
 8546 1ed8 04       		.byte	0x4
 8547 1ed9 9701     		.2byte	0x197
 8548 1edb 5D000000 		.4byte	0x5d
 8549 1edf 00000000 		.4byte	.LFB65
 8550 1ee3 9C000000 		.4byte	.LFE65-.LFB65
 8551 1ee7 01       		.uleb128 0x1
 8552 1ee8 9C       		.byte	0x9c
 8553 1ee9 97200000 		.4byte	0x2097
 8554 1eed 17       		.uleb128 0x17
 8555 1eee 494400   		.ascii	"ID\000"
 8556 1ef1 04       		.byte	0x4
 8557 1ef2 9701     		.2byte	0x197
 8558 1ef4 2C000000 		.4byte	0x2c
 8559 1ef8 BB070000 		.4byte	.LLST60
 8560 1efc 18       		.uleb128 0x18
 8561 1efd 0F060000 		.4byte	.LASF61
 8562 1f01 04       		.byte	0x4
 8563 1f02 9701     		.2byte	0x197
 8564 1f04 5D000000 		.4byte	0x5d
 8565 1f08 DC070000 		.4byte	.LLST61
 8566 1f0c 18       		.uleb128 0x18
 8567 1f0d 0F010000 		.4byte	.LASF62
 8568 1f11 04       		.byte	0x4
ARM GAS  C:\Users\Andres\AppData\Local\Temp\ccSsqcxd.s 			page 174


 8569 1f12 9701     		.2byte	0x197
 8570 1f14 5D000000 		.4byte	0x5d
 8571 1f18 FD070000 		.4byte	.LLST62
 8572 1f1c 19       		.uleb128 0x19
 8573 1f1d 47000000 		.4byte	.LASF63
 8574 1f21 04       		.byte	0x4
 8575 1f22 9901     		.2byte	0x199
 8576 1f24 9D000000 		.4byte	0x9d
 8577 1f28 1E080000 		.4byte	.LLST63
 8578 1f2c 19       		.uleb128 0x19
 8579 1f2d 4C000000 		.4byte	.LASF64
 8580 1f31 04       		.byte	0x4
 8581 1f32 9901     		.2byte	0x199
 8582 1f34 9D000000 		.4byte	0x9d
 8583 1f38 41080000 		.4byte	.LLST64
 8584 1f3c 19       		.uleb128 0x19
 8585 1f3d 72000000 		.4byte	.LASF65
 8586 1f41 04       		.byte	0x4
 8587 1f42 9901     		.2byte	0x199
 8588 1f44 9D000000 		.4byte	0x9d
 8589 1f48 62080000 		.4byte	.LLST65
 8590 1f4c 19       		.uleb128 0x19
 8591 1f4d 85000000 		.4byte	.LASF66
 8592 1f51 04       		.byte	0x4
 8593 1f52 9901     		.2byte	0x199
 8594 1f54 9D000000 		.4byte	0x9d
 8595 1f58 85080000 		.4byte	.LLST66
 8596 1f5c 0C       		.uleb128 0xc
 8597 1f5d 30000000 		.4byte	.LVL426
 8598 1f61 38340000 		.4byte	0x3438
 8599 1f65 6F1F0000 		.4byte	0x1f6f
 8600 1f69 0D       		.uleb128 0xd
 8601 1f6a 01       		.uleb128 0x1
 8602 1f6b 50       		.byte	0x50
 8603 1f6c 01       		.uleb128 0x1
 8604 1f6d 32       		.byte	0x32
 8605 1f6e 00       		.byte	0
 8606 1f6f 0C       		.uleb128 0xc
 8607 1f70 36000000 		.4byte	.LVL427
 8608 1f74 49340000 		.4byte	0x3449
 8609 1f78 831F0000 		.4byte	0x1f83
 8610 1f7c 0D       		.uleb128 0xd
 8611 1f7d 01       		.uleb128 0x1
 8612 1f7e 50       		.byte	0x50
 8613 1f7f 02       		.uleb128 0x2
 8614 1f80 09       		.byte	0x9
 8615 1f81 FF       		.byte	0xff
 8616 1f82 00       		.byte	0
 8617 1f83 0C       		.uleb128 0xc
 8618 1f84 3C000000 		.4byte	.LVL428
 8619 1f88 49340000 		.4byte	0x3449
 8620 1f8c 971F0000 		.4byte	0x1f97
 8621 1f90 0D       		.uleb128 0xd
 8622 1f91 01       		.uleb128 0x1
 8623 1f92 50       		.byte	0x50
 8624 1f93 02       		.uleb128 0x2
 8625 1f94 09       		.byte	0x9
ARM GAS  C:\Users\Andres\AppData\Local\Temp\ccSsqcxd.s 			page 175


 8626 1f95 FF       		.byte	0xff
 8627 1f96 00       		.byte	0
 8628 1f97 0C       		.uleb128 0xc
 8629 1f98 42000000 		.4byte	.LVL429
 8630 1f9c 49340000 		.4byte	0x3449
 8631 1fa0 AD1F0000 		.4byte	0x1fad
 8632 1fa4 0D       		.uleb128 0xd
 8633 1fa5 01       		.uleb128 0x1
 8634 1fa6 50       		.byte	0x50
 8635 1fa7 04       		.uleb128 0x4
 8636 1fa8 91       		.byte	0x91
 8637 1fa9 64       		.sleb128 -28
 8638 1faa 94       		.byte	0x94
 8639 1fab 01       		.byte	0x1
 8640 1fac 00       		.byte	0
 8641 1fad 0C       		.uleb128 0xc
 8642 1fae 48000000 		.4byte	.LVL430
 8643 1fb2 49340000 		.4byte	0x3449
 8644 1fb6 C01F0000 		.4byte	0x1fc0
 8645 1fba 0D       		.uleb128 0xd
 8646 1fbb 01       		.uleb128 0x1
 8647 1fbc 50       		.byte	0x50
 8648 1fbd 01       		.uleb128 0x1
 8649 1fbe 38       		.byte	0x38
 8650 1fbf 00       		.byte	0
 8651 1fc0 0C       		.uleb128 0xc
 8652 1fc1 4E000000 		.4byte	.LVL431
 8653 1fc5 49340000 		.4byte	0x3449
 8654 1fc9 D31F0000 		.4byte	0x1fd3
 8655 1fcd 0D       		.uleb128 0xd
 8656 1fce 01       		.uleb128 0x1
 8657 1fcf 50       		.byte	0x50
 8658 1fd0 01       		.uleb128 0x1
 8659 1fd1 33       		.byte	0x33
 8660 1fd2 00       		.byte	0
 8661 1fd3 0C       		.uleb128 0xc
 8662 1fd4 54000000 		.4byte	.LVL432
 8663 1fd8 49340000 		.4byte	0x3449
 8664 1fdc E61F0000 		.4byte	0x1fe6
 8665 1fe0 0D       		.uleb128 0xd
 8666 1fe1 01       		.uleb128 0x1
 8667 1fe2 50       		.byte	0x50
 8668 1fe3 01       		.uleb128 0x1
 8669 1fe4 36       		.byte	0x36
 8670 1fe5 00       		.byte	0
 8671 1fe6 0C       		.uleb128 0xc
 8672 1fe7 5A000000 		.4byte	.LVL433
 8673 1feb 49340000 		.4byte	0x3449
 8674 1fef FA1F0000 		.4byte	0x1ffa
 8675 1ff3 0D       		.uleb128 0xd
 8676 1ff4 01       		.uleb128 0x1
 8677 1ff5 50       		.byte	0x50
 8678 1ff6 02       		.uleb128 0x2
 8679 1ff7 76       		.byte	0x76
 8680 1ff8 00       		.sleb128 0
 8681 1ff9 00       		.byte	0
 8682 1ffa 0C       		.uleb128 0xc
ARM GAS  C:\Users\Andres\AppData\Local\Temp\ccSsqcxd.s 			page 176


 8683 1ffb 60000000 		.4byte	.LVL434
 8684 1fff 49340000 		.4byte	0x3449
 8685 2003 0E200000 		.4byte	0x200e
 8686 2007 0D       		.uleb128 0xd
 8687 2008 01       		.uleb128 0x1
 8688 2009 50       		.byte	0x50
 8689 200a 02       		.uleb128 0x2
 8690 200b 78       		.byte	0x78
 8691 200c 00       		.sleb128 0
 8692 200d 00       		.byte	0
 8693 200e 0C       		.uleb128 0xc
 8694 200f 66000000 		.4byte	.LVL435
 8695 2013 49340000 		.4byte	0x3449
 8696 2017 21200000 		.4byte	0x2021
 8697 201b 0D       		.uleb128 0xd
 8698 201c 01       		.uleb128 0x1
 8699 201d 50       		.byte	0x50
 8700 201e 01       		.uleb128 0x1
 8701 201f 38       		.byte	0x38
 8702 2020 00       		.byte	0
 8703 2021 0C       		.uleb128 0xc
 8704 2022 6C000000 		.4byte	.LVL436
 8705 2026 49340000 		.4byte	0x3449
 8706 202a 35200000 		.4byte	0x2035
 8707 202e 0D       		.uleb128 0xd
 8708 202f 01       		.uleb128 0x1
 8709 2030 50       		.byte	0x50
 8710 2031 02       		.uleb128 0x2
 8711 2032 74       		.byte	0x74
 8712 2033 00       		.sleb128 0
 8713 2034 00       		.byte	0
 8714 2035 0C       		.uleb128 0xc
 8715 2036 72000000 		.4byte	.LVL437
 8716 203a 49340000 		.4byte	0x3449
 8717 203e 49200000 		.4byte	0x2049
 8718 2042 0D       		.uleb128 0xd
 8719 2043 01       		.uleb128 0x1
 8720 2044 50       		.byte	0x50
 8721 2045 02       		.uleb128 0x2
 8722 2046 77       		.byte	0x77
 8723 2047 00       		.sleb128 0
 8724 2048 00       		.byte	0
 8725 2049 0E       		.uleb128 0xe
 8726 204a 78000000 		.4byte	.LVL438
 8727 204e 49340000 		.4byte	0x3449
 8728 2052 0C       		.uleb128 0xc
 8729 2053 80000000 		.4byte	.LVL439
 8730 2057 0A340000 		.4byte	0x340a
 8731 205b 67200000 		.4byte	0x2067
 8732 205f 0D       		.uleb128 0xd
 8733 2060 01       		.uleb128 0x1
 8734 2061 50       		.byte	0x50
 8735 2062 03       		.uleb128 0x3
 8736 2063 0A       		.byte	0xa
 8737 2064 9001     		.2byte	0x190
 8738 2066 00       		.byte	0
 8739 2067 0C       		.uleb128 0xc
ARM GAS  C:\Users\Andres\AppData\Local\Temp\ccSsqcxd.s 			page 177


 8740 2068 86000000 		.4byte	.LVL440
 8741 206c 2B330000 		.4byte	0x332b
 8742 2070 7A200000 		.4byte	0x207a
 8743 2074 0D       		.uleb128 0xd
 8744 2075 01       		.uleb128 0x1
 8745 2076 50       		.byte	0x50
 8746 2077 01       		.uleb128 0x1
 8747 2078 35       		.byte	0x35
 8748 2079 00       		.byte	0
 8749 207a 0C       		.uleb128 0xc
 8750 207b 8C000000 		.4byte	.LVL441
 8751 207f 38340000 		.4byte	0x3438
 8752 2083 8D200000 		.4byte	0x208d
 8753 2087 0D       		.uleb128 0xd
 8754 2088 01       		.uleb128 0x1
 8755 2089 50       		.byte	0x50
 8756 208a 01       		.uleb128 0x1
 8757 208b 31       		.byte	0x31
 8758 208c 00       		.byte	0
 8759 208d 0E       		.uleb128 0xe
 8760 208e 90000000 		.4byte	.LVL442
 8761 2092 BD0B0000 		.4byte	0xbbd
 8762 2096 00       		.byte	0
 8763 2097 13       		.uleb128 0x13
 8764 2098 77050000 		.4byte	.LASF67
 8765 209c 05       		.byte	0x5
 8766 209d 19       		.byte	0x19
 8767 209e 5D000000 		.4byte	0x5d
 8768 20a2 00000000 		.4byte	.LFB66
 8769 20a6 30000000 		.4byte	.LFE66-.LFB66
 8770 20aa 01       		.uleb128 0x1
 8771 20ab 9C       		.byte	0x9c
 8772 20ac C9200000 		.4byte	0x20c9
 8773 20b0 0E       		.uleb128 0xe
 8774 20b1 1E000000 		.4byte	.LVL447
 8775 20b5 65340000 		.4byte	0x3465
 8776 20b9 12       		.uleb128 0x12
 8777 20ba 24000000 		.4byte	.LVL448
 8778 20be 2B330000 		.4byte	0x332b
 8779 20c2 0D       		.uleb128 0xd
 8780 20c3 01       		.uleb128 0x1
 8781 20c4 50       		.byte	0x50
 8782 20c5 01       		.uleb128 0x1
 8783 20c6 49       		.byte	0x49
 8784 20c7 00       		.byte	0
 8785 20c8 00       		.byte	0
 8786 20c9 0F       		.uleb128 0xf
 8787 20ca 18010000 		.4byte	.LASF68
 8788 20ce 05       		.byte	0x5
 8789 20cf 27       		.byte	0x27
 8790 20d0 5D000000 		.4byte	0x5d
 8791 20d4 00000000 		.4byte	.LFB67
 8792 20d8 24000000 		.4byte	.LFE67-.LFB67
 8793 20dc 01       		.uleb128 0x1
 8794 20dd 9C       		.byte	0x9c
 8795 20de 28210000 		.4byte	0x2128
 8796 20e2 0A       		.uleb128 0xa
ARM GAS  C:\Users\Andres\AppData\Local\Temp\ccSsqcxd.s 			page 178


 8797 20e3 50040000 		.4byte	.LASF69
 8798 20e7 05       		.byte	0x5
 8799 20e8 27       		.byte	0x27
 8800 20e9 5D000000 		.4byte	0x5d
 8801 20ed A6080000 		.4byte	.LLST67
 8802 20f1 0A       		.uleb128 0xa
 8803 20f2 3F010000 		.4byte	.LASF70
 8804 20f6 05       		.byte	0x5
 8805 20f7 27       		.byte	0x27
 8806 20f8 5D000000 		.4byte	0x5d
 8807 20fc C7080000 		.4byte	.LLST68
 8808 2100 14       		.uleb128 0x14
 8809 2101 6C656400 		.ascii	"led\000"
 8810 2105 05       		.byte	0x5
 8811 2106 27       		.byte	0x27
 8812 2107 5D000000 		.4byte	0x5d
 8813 210b E8080000 		.4byte	.LLST69
 8814 210f 0E       		.uleb128 0xe
 8815 2110 16000000 		.4byte	.LVL451
 8816 2114 65340000 		.4byte	0x3465
 8817 2118 12       		.uleb128 0x12
 8818 2119 1C000000 		.4byte	.LVL452
 8819 211d 2B330000 		.4byte	0x332b
 8820 2121 0D       		.uleb128 0xd
 8821 2122 01       		.uleb128 0x1
 8822 2123 50       		.byte	0x50
 8823 2124 01       		.uleb128 0x1
 8824 2125 49       		.byte	0x49
 8825 2126 00       		.byte	0
 8826 2127 00       		.byte	0
 8827 2128 13       		.uleb128 0x13
 8828 2129 87030000 		.4byte	.LASF71
 8829 212d 05       		.byte	0x5
 8830 212e 35       		.byte	0x35
 8831 212f 5D000000 		.4byte	0x5d
 8832 2133 00000000 		.4byte	.LFB68
 8833 2137 38010000 		.4byte	.LFE68-.LFB68
 8834 213b 01       		.uleb128 0x1
 8835 213c 9C       		.byte	0x9c
 8836 213d D2220000 		.4byte	0x22d2
 8837 2141 1D       		.uleb128 0x1d
 8838 2142 696E6900 		.ascii	"ini\000"
 8839 2146 05       		.byte	0x5
 8840 2147 36       		.byte	0x36
 8841 2148 5A000000 		.4byte	.L118
 8842 214c 1D       		.uleb128 0x1d
 8843 214d 656E6400 		.ascii	"end\000"
 8844 2151 05       		.byte	0x5
 8845 2152 A0       		.byte	0xa0
 8846 2153 0E010000 		.4byte	.L119
 8847 2157 1E       		.uleb128 0x1e
 8848 2158 A8000000 		.4byte	.LASF72
 8849 215c 05       		.byte	0x5
 8850 215d 63       		.byte	0x63
 8851 215e 0C010000 		.4byte	.L123
 8852 2162 0E       		.uleb128 0xe
 8853 2163 06000000 		.4byte	.LVL453
ARM GAS  C:\Users\Andres\AppData\Local\Temp\ccSsqcxd.s 			page 179


 8854 2167 F5060000 		.4byte	0x6f5
 8855 216b 0E       		.uleb128 0xe
 8856 216c 16000000 		.4byte	.LVL454
 8857 2170 71340000 		.4byte	0x3471
 8858 2174 0E       		.uleb128 0xe
 8859 2175 2C000000 		.4byte	.LVL455
 8860 2179 8D070000 		.4byte	0x78d
 8861 217d 0C       		.uleb128 0xc
 8862 217e 36000000 		.4byte	.LVL456
 8863 2182 F9330000 		.4byte	0x33f9
 8864 2186 90210000 		.4byte	0x2190
 8865 218a 0D       		.uleb128 0xd
 8866 218b 01       		.uleb128 0x1
 8867 218c 50       		.byte	0x50
 8868 218d 01       		.uleb128 0x1
 8869 218e 31       		.byte	0x31
 8870 218f 00       		.byte	0
 8871 2190 0E       		.uleb128 0xe
 8872 2191 3A000000 		.4byte	.LVL457
 8873 2195 8D070000 		.4byte	0x78d
 8874 2199 0C       		.uleb128 0xc
 8875 219a 42000000 		.4byte	.LVL458
 8876 219e 2B330000 		.4byte	0x332b
 8877 21a2 AC210000 		.4byte	0x21ac
 8878 21a6 0D       		.uleb128 0xd
 8879 21a7 01       		.uleb128 0x1
 8880 21a8 50       		.byte	0x50
 8881 21a9 01       		.uleb128 0x1
 8882 21aa 34       		.byte	0x34
 8883 21ab 00       		.byte	0
 8884 21ac 0C       		.uleb128 0xc
 8885 21ad 48000000 		.4byte	.LVL459
 8886 21b1 F9330000 		.4byte	0x33f9
 8887 21b5 BF210000 		.4byte	0x21bf
 8888 21b9 0D       		.uleb128 0xd
 8889 21ba 01       		.uleb128 0x1
 8890 21bb 50       		.byte	0x50
 8891 21bc 01       		.uleb128 0x1
 8892 21bd 30       		.byte	0x30
 8893 21be 00       		.byte	0
 8894 21bf 0E       		.uleb128 0xe
 8895 21c0 4C000000 		.4byte	.LVL460
 8896 21c4 8D070000 		.4byte	0x78d
 8897 21c8 0C       		.uleb128 0xc
 8898 21c9 54000000 		.4byte	.LVL461
 8899 21cd 2B330000 		.4byte	0x332b
 8900 21d1 DB210000 		.4byte	0x21db
 8901 21d5 0D       		.uleb128 0xd
 8902 21d6 01       		.uleb128 0x1
 8903 21d7 50       		.byte	0x50
 8904 21d8 01       		.uleb128 0x1
 8905 21d9 34       		.byte	0x34
 8906 21da 00       		.byte	0
 8907 21db 0E       		.uleb128 0xe
 8908 21dc 58000000 		.4byte	.LVL462
 8909 21e0 8D070000 		.4byte	0x78d
 8910 21e4 0C       		.uleb128 0xc
ARM GAS  C:\Users\Andres\AppData\Local\Temp\ccSsqcxd.s 			page 180


 8911 21e5 68000000 		.4byte	.LVL463
 8912 21e9 92330000 		.4byte	0x3392
 8913 21ed F7210000 		.4byte	0x21f7
 8914 21f1 0D       		.uleb128 0xd
 8915 21f2 01       		.uleb128 0x1
 8916 21f3 50       		.byte	0x50
 8917 21f4 01       		.uleb128 0x1
 8918 21f5 31       		.byte	0x31
 8919 21f6 00       		.byte	0
 8920 21f7 0C       		.uleb128 0xc
 8921 21f8 6E000000 		.4byte	.LVL464
 8922 21fc 7C340000 		.4byte	0x347c
 8923 2200 0A220000 		.4byte	0x220a
 8924 2204 0D       		.uleb128 0xd
 8925 2205 01       		.uleb128 0x1
 8926 2206 50       		.byte	0x50
 8927 2207 01       		.uleb128 0x1
 8928 2208 31       		.byte	0x31
 8929 2209 00       		.byte	0
 8930 220a 0C       		.uleb128 0xc
 8931 220b 76000000 		.4byte	.LVL465
 8932 220f 2B330000 		.4byte	0x332b
 8933 2213 1F220000 		.4byte	0x221f
 8934 2217 0D       		.uleb128 0xd
 8935 2218 01       		.uleb128 0x1
 8936 2219 50       		.byte	0x50
 8937 221a 03       		.uleb128 0x3
 8938 221b 0A       		.byte	0xa
 8939 221c D007     		.2byte	0x7d0
 8940 221e 00       		.byte	0
 8941 221f 0E       		.uleb128 0xe
 8942 2220 88000000 		.4byte	.LVL466
 8943 2224 97200000 		.4byte	0x2097
 8944 2228 0C       		.uleb128 0xc
 8945 2229 90000000 		.4byte	.LVL467
 8946 222d 2B330000 		.4byte	0x332b
 8947 2231 3C220000 		.4byte	0x223c
 8948 2235 0D       		.uleb128 0xd
 8949 2236 01       		.uleb128 0x1
 8950 2237 50       		.byte	0x50
 8951 2238 02       		.uleb128 0x2
 8952 2239 08       		.byte	0x8
 8953 223a 4B       		.byte	0x4b
 8954 223b 00       		.byte	0
 8955 223c 0C       		.uleb128 0xc
 8956 223d 9E000000 		.4byte	.LVL468
 8957 2241 7C340000 		.4byte	0x347c
 8958 2245 4F220000 		.4byte	0x224f
 8959 2249 0D       		.uleb128 0xd
 8960 224a 01       		.uleb128 0x1
 8961 224b 50       		.byte	0x50
 8962 224c 01       		.uleb128 0x1
 8963 224d 30       		.byte	0x30
 8964 224e 00       		.byte	0
 8965 224f 0C       		.uleb128 0xc
 8966 2250 B0000000 		.4byte	.LVL469
 8967 2254 C9200000 		.4byte	0x20c9
ARM GAS  C:\Users\Andres\AppData\Local\Temp\ccSsqcxd.s 			page 181


 8968 2258 67220000 		.4byte	0x2267
 8969 225c 0D       		.uleb128 0xd
 8970 225d 01       		.uleb128 0x1
 8971 225e 52       		.byte	0x52
 8972 225f 01       		.uleb128 0x1
 8973 2260 3E       		.byte	0x3e
 8974 2261 0D       		.uleb128 0xd
 8975 2262 01       		.uleb128 0x1
 8976 2263 50       		.byte	0x50
 8977 2264 01       		.uleb128 0x1
 8978 2265 30       		.byte	0x30
 8979 2266 00       		.byte	0
 8980 2267 0C       		.uleb128 0xc
 8981 2268 BE000000 		.4byte	.LVL470
 8982 226c 2B330000 		.4byte	0x332b
 8983 2270 7A220000 		.4byte	0x227a
 8984 2274 0D       		.uleb128 0xd
 8985 2275 01       		.uleb128 0x1
 8986 2276 50       		.byte	0x50
 8987 2277 01       		.uleb128 0x1
 8988 2278 35       		.byte	0x35
 8989 2279 00       		.byte	0
 8990 227a 0C       		.uleb128 0xc
 8991 227b C8000000 		.4byte	.LVL471
 8992 227f C9200000 		.4byte	0x20c9
 8993 2283 92220000 		.4byte	0x2292
 8994 2287 0D       		.uleb128 0xd
 8995 2288 01       		.uleb128 0x1
 8996 2289 52       		.byte	0x52
 8997 228a 01       		.uleb128 0x1
 8998 228b 3E       		.byte	0x3e
 8999 228c 0D       		.uleb128 0xd
 9000 228d 01       		.uleb128 0x1
 9001 228e 50       		.byte	0x50
 9002 228f 01       		.uleb128 0x1
 9003 2290 30       		.byte	0x30
 9004 2291 00       		.byte	0
 9005 2292 0C       		.uleb128 0xc
 9006 2293 EA000000 		.4byte	.LVL472
 9007 2297 C9200000 		.4byte	0x20c9
 9008 229b AA220000 		.4byte	0x22aa
 9009 229f 0D       		.uleb128 0xd
 9010 22a0 01       		.uleb128 0x1
 9011 22a1 52       		.byte	0x52
 9012 22a2 01       		.uleb128 0x1
 9013 22a3 3E       		.byte	0x3e
 9014 22a4 0D       		.uleb128 0xd
 9015 22a5 01       		.uleb128 0x1
 9016 22a6 50       		.byte	0x50
 9017 22a7 01       		.uleb128 0x1
 9018 22a8 31       		.byte	0x31
 9019 22a9 00       		.byte	0
 9020 22aa 0C       		.uleb128 0xc
 9021 22ab 04010000 		.4byte	.LVL473
 9022 22af C9200000 		.4byte	0x20c9
 9023 22b3 C2220000 		.4byte	0x22c2
 9024 22b7 0D       		.uleb128 0xd
ARM GAS  C:\Users\Andres\AppData\Local\Temp\ccSsqcxd.s 			page 182


 9025 22b8 01       		.uleb128 0x1
 9026 22b9 52       		.byte	0x52
 9027 22ba 01       		.uleb128 0x1
 9028 22bb 3E       		.byte	0x3e
 9029 22bc 0D       		.uleb128 0xd
 9030 22bd 01       		.uleb128 0x1
 9031 22be 50       		.byte	0x50
 9032 22bf 01       		.uleb128 0x1
 9033 22c0 30       		.byte	0x30
 9034 22c1 00       		.byte	0
 9035 22c2 12       		.uleb128 0x12
 9036 22c3 0C010000 		.4byte	.LVL474
 9037 22c7 7C340000 		.4byte	0x347c
 9038 22cb 0D       		.uleb128 0xd
 9039 22cc 01       		.uleb128 0x1
 9040 22cd 50       		.byte	0x50
 9041 22ce 01       		.uleb128 0x1
 9042 22cf 30       		.byte	0x30
 9043 22d0 00       		.byte	0
 9044 22d1 00       		.byte	0
 9045 22d2 13       		.uleb128 0x13
 9046 22d3 36020000 		.4byte	.LASF73
 9047 22d7 05       		.byte	0x5
 9048 22d8 A5       		.byte	0xa5
 9049 22d9 5D000000 		.4byte	0x5d
 9050 22dd 00000000 		.4byte	.LFB69
 9051 22e1 7C010000 		.4byte	.LFE69-.LFB69
 9052 22e5 01       		.uleb128 0x1
 9053 22e6 9C       		.byte	0x9c
 9054 22e7 44240000 		.4byte	0x2444
 9055 22eb 1B       		.uleb128 0x1b
 9056 22ec 3C000000 		.4byte	.LBB4
 9057 22f0 22000000 		.4byte	.LBE4-.LBB4
 9058 22f4 31230000 		.4byte	0x2331
 9059 22f8 1F       		.uleb128 0x1f
 9060 22f9 6D6800   		.ascii	"mh\000"
 9061 22fc 05       		.byte	0x5
 9062 22fd AF       		.byte	0xaf
 9063 22fe 9D000000 		.4byte	0x9d
 9064 2302 09090000 		.4byte	.LLST70
 9065 2306 1F       		.uleb128 0x1f
 9066 2307 6D6C00   		.ascii	"ml\000"
 9067 230a 05       		.byte	0x5
 9068 230b AF       		.byte	0xaf
 9069 230c 9D000000 		.4byte	0x9d
 9070 2310 1C090000 		.4byte	.LLST71
 9071 2314 0C       		.uleb128 0xc
 9072 2315 42000000 		.4byte	.LVL475
 9073 2319 121D0000 		.4byte	0x1d12
 9074 231d 27230000 		.4byte	0x2327
 9075 2321 0D       		.uleb128 0xd
 9076 2322 01       		.uleb128 0x1
 9077 2323 50       		.byte	0x50
 9078 2324 01       		.uleb128 0x1
 9079 2325 31       		.byte	0x31
 9080 2326 00       		.byte	0
 9081 2327 0E       		.uleb128 0xe
ARM GAS  C:\Users\Andres\AppData\Local\Temp\ccSsqcxd.s 			page 183


 9082 2328 5E000000 		.4byte	.LVL477
 9083 232c 65340000 		.4byte	0x3465
 9084 2330 00       		.byte	0
 9085 2331 0C       		.uleb128 0xc
 9086 2332 7A000000 		.4byte	.LVL478
 9087 2336 2B330000 		.4byte	0x332b
 9088 233a 45230000 		.4byte	0x2345
 9089 233e 0D       		.uleb128 0xd
 9090 233f 01       		.uleb128 0x1
 9091 2340 50       		.byte	0x50
 9092 2341 02       		.uleb128 0x2
 9093 2342 08       		.byte	0x8
 9094 2343 64       		.byte	0x64
 9095 2344 00       		.byte	0
 9096 2345 0C       		.uleb128 0xc
 9097 2346 80000000 		.4byte	.LVL479
 9098 234a 1A330000 		.4byte	0x331a
 9099 234e 58230000 		.4byte	0x2358
 9100 2352 0D       		.uleb128 0xd
 9101 2353 01       		.uleb128 0x1
 9102 2354 50       		.byte	0x50
 9103 2355 01       		.uleb128 0x1
 9104 2356 31       		.byte	0x31
 9105 2357 00       		.byte	0
 9106 2358 0C       		.uleb128 0xc
 9107 2359 86000000 		.4byte	.LVL480
 9108 235d 2B330000 		.4byte	0x332b
 9109 2361 6C230000 		.4byte	0x236c
 9110 2365 0D       		.uleb128 0xd
 9111 2366 01       		.uleb128 0x1
 9112 2367 50       		.byte	0x50
 9113 2368 02       		.uleb128 0x2
 9114 2369 08       		.byte	0x8
 9115 236a 64       		.byte	0x64
 9116 236b 00       		.byte	0
 9117 236c 0C       		.uleb128 0xc
 9118 236d 8C000000 		.4byte	.LVL481
 9119 2371 1A330000 		.4byte	0x331a
 9120 2375 7F230000 		.4byte	0x237f
 9121 2379 0D       		.uleb128 0xd
 9122 237a 01       		.uleb128 0x1
 9123 237b 50       		.byte	0x50
 9124 237c 01       		.uleb128 0x1
 9125 237d 30       		.byte	0x30
 9126 237e 00       		.byte	0
 9127 237f 0E       		.uleb128 0xe
 9128 2380 B8000000 		.4byte	.LVL482
 9129 2384 65340000 		.4byte	0x3465
 9130 2388 0C       		.uleb128 0xc
 9131 2389 BE000000 		.4byte	.LVL483
 9132 238d 1A330000 		.4byte	0x331a
 9133 2391 9B230000 		.4byte	0x239b
 9134 2395 0D       		.uleb128 0xd
 9135 2396 01       		.uleb128 0x1
 9136 2397 50       		.byte	0x50
 9137 2398 01       		.uleb128 0x1
 9138 2399 31       		.byte	0x31
ARM GAS  C:\Users\Andres\AppData\Local\Temp\ccSsqcxd.s 			page 184


 9139 239a 00       		.byte	0
 9140 239b 0C       		.uleb128 0xc
 9141 239c D8000000 		.4byte	.LVL484
 9142 23a0 9D160000 		.4byte	0x169d
 9143 23a4 AF230000 		.4byte	0x23af
 9144 23a8 0D       		.uleb128 0xd
 9145 23a9 01       		.uleb128 0x1
 9146 23aa 52       		.byte	0x52
 9147 23ab 02       		.uleb128 0x2
 9148 23ac 08       		.byte	0x8
 9149 23ad 64       		.byte	0x64
 9150 23ae 00       		.byte	0
 9151 23af 0C       		.uleb128 0xc
 9152 23b0 EC000000 		.4byte	.LVL485
 9153 23b4 1A330000 		.4byte	0x331a
 9154 23b8 C2230000 		.4byte	0x23c2
 9155 23bc 0D       		.uleb128 0xd
 9156 23bd 01       		.uleb128 0x1
 9157 23be 50       		.byte	0x50
 9158 23bf 01       		.uleb128 0x1
 9159 23c0 31       		.byte	0x31
 9160 23c1 00       		.byte	0
 9161 23c2 0C       		.uleb128 0xc
 9162 23c3 F4000000 		.4byte	.LVL486
 9163 23c7 1A330000 		.4byte	0x331a
 9164 23cb D5230000 		.4byte	0x23d5
 9165 23cf 0D       		.uleb128 0xd
 9166 23d0 01       		.uleb128 0x1
 9167 23d1 50       		.byte	0x50
 9168 23d2 01       		.uleb128 0x1
 9169 23d3 30       		.byte	0x30
 9170 23d4 00       		.byte	0
 9171 23d5 0C       		.uleb128 0xc
 9172 23d6 08010000 		.4byte	.LVL487
 9173 23da 92330000 		.4byte	0x3392
 9174 23de E8230000 		.4byte	0x23e8
 9175 23e2 0D       		.uleb128 0xd
 9176 23e3 01       		.uleb128 0x1
 9177 23e4 50       		.byte	0x50
 9178 23e5 01       		.uleb128 0x1
 9179 23e6 31       		.byte	0x31
 9180 23e7 00       		.byte	0
 9181 23e8 0C       		.uleb128 0xc
 9182 23e9 10010000 		.4byte	.LVL488
 9183 23ed 92330000 		.4byte	0x3392
 9184 23f1 FB230000 		.4byte	0x23fb
 9185 23f5 0D       		.uleb128 0xd
 9186 23f6 01       		.uleb128 0x1
 9187 23f7 50       		.byte	0x50
 9188 23f8 01       		.uleb128 0x1
 9189 23f9 30       		.byte	0x30
 9190 23fa 00       		.byte	0
 9191 23fb 0C       		.uleb128 0xc
 9192 23fc 24010000 		.4byte	.LVL489
 9193 2400 F9330000 		.4byte	0x33f9
 9194 2404 0E240000 		.4byte	0x240e
 9195 2408 0D       		.uleb128 0xd
ARM GAS  C:\Users\Andres\AppData\Local\Temp\ccSsqcxd.s 			page 185


 9196 2409 01       		.uleb128 0x1
 9197 240a 50       		.byte	0x50
 9198 240b 01       		.uleb128 0x1
 9199 240c 31       		.byte	0x31
 9200 240d 00       		.byte	0
 9201 240e 0C       		.uleb128 0xc
 9202 240f 2C010000 		.4byte	.LVL490
 9203 2413 F9330000 		.4byte	0x33f9
 9204 2417 21240000 		.4byte	0x2421
 9205 241b 0D       		.uleb128 0xd
 9206 241c 01       		.uleb128 0x1
 9207 241d 50       		.byte	0x50
 9208 241e 01       		.uleb128 0x1
 9209 241f 30       		.byte	0x30
 9210 2420 00       		.byte	0
 9211 2421 0C       		.uleb128 0xc
 9212 2422 40010000 		.4byte	.LVL491
 9213 2426 7C340000 		.4byte	0x347c
 9214 242a 34240000 		.4byte	0x2434
 9215 242e 0D       		.uleb128 0xd
 9216 242f 01       		.uleb128 0x1
 9217 2430 50       		.byte	0x50
 9218 2431 01       		.uleb128 0x1
 9219 2432 31       		.byte	0x31
 9220 2433 00       		.byte	0
 9221 2434 12       		.uleb128 0x12
 9222 2435 48010000 		.4byte	.LVL492
 9223 2439 7C340000 		.4byte	0x347c
 9224 243d 0D       		.uleb128 0xd
 9225 243e 01       		.uleb128 0x1
 9226 243f 50       		.byte	0x50
 9227 2440 01       		.uleb128 0x1
 9228 2441 30       		.byte	0x30
 9229 2442 00       		.byte	0
 9230 2443 00       		.byte	0
 9231 2444 09       		.uleb128 0x9
 9232 2445 F3000000 		.4byte	.LASF74
 9233 2449 06       		.byte	0x6
 9234 244a 07       		.byte	0x7
 9235 244b 00000000 		.4byte	.LFB72
 9236 244f 0C000000 		.4byte	.LFE72-.LFB72
 9237 2453 01       		.uleb128 0x1
 9238 2454 9C       		.byte	0x9c
 9239 2455 6C240000 		.4byte	0x246c
 9240 2459 0E       		.uleb128 0xe
 9241 245a 06000000 		.4byte	.LVL493
 9242 245e 8D340000 		.4byte	0x348d
 9243 2462 0E       		.uleb128 0xe
 9244 2463 0A000000 		.4byte	.LVL494
 9245 2467 D2220000 		.4byte	0x22d2
 9246 246b 00       		.byte	0
 9247 246c 16       		.uleb128 0x16
 9248 246d 10020000 		.4byte	.LASF75
 9249 2471 05       		.byte	0x5
 9250 2472 2B01     		.2byte	0x12b
 9251 2474 5D000000 		.4byte	0x5d
 9252 2478 00000000 		.4byte	.LFB70
ARM GAS  C:\Users\Andres\AppData\Local\Temp\ccSsqcxd.s 			page 186


 9253 247c 3C000000 		.4byte	.LFE70-.LFB70
 9254 2480 01       		.uleb128 0x1
 9255 2481 9C       		.byte	0x9c
 9256 2482 03250000 		.4byte	0x2503
 9257 2486 18       		.uleb128 0x18
 9258 2487 67030000 		.4byte	.LASF76
 9259 248b 05       		.byte	0x5
 9260 248c 2B01     		.2byte	0x12b
 9261 248e 64000000 		.4byte	0x64
 9262 2492 2F090000 		.4byte	.LLST72
 9263 2496 17       		.uleb128 0x17
 9264 2497 6D6F7600 		.ascii	"mov\000"
 9265 249b 05       		.byte	0x5
 9266 249c 2B01     		.2byte	0x12b
 9267 249e 5D000000 		.4byte	0x5d
 9268 24a2 76090000 		.4byte	.LLST73
 9269 24a6 19       		.uleb128 0x19
 9270 24a7 2A020000 		.4byte	.LASF77
 9271 24ab 05       		.byte	0x5
 9272 24ac 2C01     		.2byte	0x12c
 9273 24ae 9D000000 		.4byte	0x9d
 9274 24b2 B0090000 		.4byte	.LLST74
 9275 24b6 19       		.uleb128 0x19
 9276 24b7 30020000 		.4byte	.LASF78
 9277 24bb 05       		.byte	0x5
 9278 24bc 2C01     		.2byte	0x12c
 9279 24be 9D000000 		.4byte	0x9d
 9280 24c2 F9090000 		.4byte	.LLST75
 9281 24c6 0C       		.uleb128 0xc
 9282 24c7 14000000 		.4byte	.LVL500
 9283 24cb 9D160000 		.4byte	0x169d
 9284 24cf EA240000 		.4byte	0x24ea
 9285 24d3 0D       		.uleb128 0xd
 9286 24d4 01       		.uleb128 0x1
 9287 24d5 52       		.byte	0x52
 9288 24d6 02       		.uleb128 0x2
 9289 24d7 08       		.byte	0x8
 9290 24d8 64       		.byte	0x64
 9291 24d9 0D       		.uleb128 0xd
 9292 24da 01       		.uleb128 0x1
 9293 24db 51       		.byte	0x51
 9294 24dc 03       		.uleb128 0x3
 9295 24dd F3       		.byte	0xf3
 9296 24de 01       		.uleb128 0x1
 9297 24df 51       		.byte	0x51
 9298 24e0 0D       		.uleb128 0xd
 9299 24e1 01       		.uleb128 0x1
 9300 24e2 50       		.byte	0x50
 9301 24e3 05       		.uleb128 0x5
 9302 24e4 F3       		.byte	0xf3
 9303 24e5 01       		.uleb128 0x1
 9304 24e6 50       		.byte	0x50
 9305 24e7 23       		.byte	0x23
 9306 24e8 01       		.uleb128 0x1
 9307 24e9 00       		.byte	0
 9308 24ea 0E       		.uleb128 0xe
 9309 24eb 2E000000 		.4byte	.LVL503
ARM GAS  C:\Users\Andres\AppData\Local\Temp\ccSsqcxd.s 			page 187


 9310 24ef 65340000 		.4byte	0x3465
 9311 24f3 12       		.uleb128 0x12
 9312 24f4 34000000 		.4byte	.LVL504
 9313 24f8 2B330000 		.4byte	0x332b
 9314 24fc 0D       		.uleb128 0xd
 9315 24fd 01       		.uleb128 0x1
 9316 24fe 50       		.byte	0x50
 9317 24ff 01       		.uleb128 0x1
 9318 2500 49       		.byte	0x49
 9319 2501 00       		.byte	0
 9320 2502 00       		.byte	0
 9321 2503 20       		.uleb128 0x20
 9322 2504 63616C00 		.ascii	"cal\000"
 9323 2508 05       		.byte	0x5
 9324 2509 4B01     		.2byte	0x14b
 9325 250b 5D000000 		.4byte	0x5d
 9326 250f 00000000 		.4byte	.LFB71
 9327 2513 28010000 		.4byte	.LFE71-.LFB71
 9328 2517 01       		.uleb128 0x1
 9329 2518 9C       		.byte	0x9c
 9330 2519 04260000 		.4byte	0x2604
 9331 251d 17       		.uleb128 0x17
 9332 251e 646600   		.ascii	"df\000"
 9333 2521 05       		.byte	0x5
 9334 2522 4B01     		.2byte	0x14b
 9335 2524 5D000000 		.4byte	0x5d
 9336 2528 1A0A0000 		.4byte	.LLST76
 9337 252c 1B       		.uleb128 0x1b
 9338 252d 18000000 		.4byte	.LBB5
 9339 2531 D2000000 		.4byte	.LBE5-.LBB5
 9340 2535 E8250000 		.4byte	0x25e8
 9341 2539 21       		.uleb128 0x21
 9342 253a 6E00     		.ascii	"n\000"
 9343 253c 05       		.byte	0x5
 9344 253d 5001     		.2byte	0x150
 9345 253f 5D000000 		.4byte	0x5d
 9346 2543 3B0A0000 		.4byte	.LLST77
 9347 2547 21       		.uleb128 0x21
 9348 2548 6D00     		.ascii	"m\000"
 9349 254a 05       		.byte	0x5
 9350 254b 5001     		.2byte	0x150
 9351 254d 5D000000 		.4byte	0x5d
 9352 2551 680A0000 		.4byte	.LLST78
 9353 2555 21       		.uleb128 0x21
 9354 2556 7200     		.ascii	"r\000"
 9355 2558 05       		.byte	0x5
 9356 2559 5001     		.2byte	0x150
 9357 255b 5D000000 		.4byte	0x5d
 9358 255f 860A0000 		.4byte	.LLST79
 9359 2563 21       		.uleb128 0x21
 9360 2564 7600     		.ascii	"v\000"
 9361 2566 05       		.byte	0x5
 9362 2567 5001     		.2byte	0x150
 9363 2569 5D000000 		.4byte	0x5d
 9364 256d A50A0000 		.4byte	.LLST80
 9365 2571 21       		.uleb128 0x21
 9366 2572 6600     		.ascii	"f\000"
ARM GAS  C:\Users\Andres\AppData\Local\Temp\ccSsqcxd.s 			page 188


 9367 2574 05       		.byte	0x5
 9368 2575 5101     		.2byte	0x151
 9369 2577 64000000 		.4byte	0x64
 9370 257b C30A0000 		.4byte	.LLST81
 9371 257f 21       		.uleb128 0x21
 9372 2580 667800   		.ascii	"fx\000"
 9373 2583 05       		.byte	0x5
 9374 2584 5901     		.2byte	0x159
 9375 2586 04260000 		.4byte	0x2604
 9376 258a 0D0B0000 		.4byte	.LLST83
 9377 258e 19       		.uleb128 0x19
 9378 258f 28010000 		.4byte	.LASF79
 9379 2593 05       		.byte	0x5
 9380 2594 5901     		.2byte	0x159
 9381 2596 1C260000 		.4byte	0x261c
 9382 259a 2D0B0000 		.4byte	.LLST85
 9383 259e 19       		.uleb128 0x19
 9384 259f 6C030000 		.4byte	.LASF80
 9385 25a3 05       		.byte	0x5
 9386 25a4 5901     		.2byte	0x159
 9387 25a6 34260000 		.4byte	0x2634
 9388 25aa 4D0B0000 		.4byte	.LLST87
 9389 25ae 21       		.uleb128 0x21
 9390 25af 7800     		.ascii	"x\000"
 9391 25b1 05       		.byte	0x5
 9392 25b2 5901     		.2byte	0x159
 9393 25b4 8F000000 		.4byte	0x8f
 9394 25b8 6D0B0000 		.4byte	.LLST88
 9395 25bc 21       		.uleb128 0x21
 9396 25bd 64736600 		.ascii	"dsf\000"
 9397 25c1 05       		.byte	0x5
 9398 25c2 5901     		.2byte	0x159
 9399 25c4 8F000000 		.4byte	0x8f
 9400 25c8 8B0B0000 		.4byte	.LLST89
 9401 25cc 0E       		.uleb128 0xe
 9402 25cd 94000000 		.4byte	.LVL529
 9403 25d1 95340000 		.4byte	0x3495
 9404 25d5 0E       		.uleb128 0xe
 9405 25d6 9C000000 		.4byte	.LVL530
 9406 25da AB340000 		.4byte	0x34ab
 9407 25de 0E       		.uleb128 0xe
 9408 25df E2000000 		.4byte	.LVL545
 9409 25e3 6C240000 		.4byte	0x246c
 9410 25e7 00       		.byte	0
 9411 25e8 22       		.uleb128 0x22
 9412 25e9 17260000 		.4byte	0x2617
 9413 25ed AA0B0000 		.4byte	.LLST82
 9414 25f1 22       		.uleb128 0x22
 9415 25f2 2F260000 		.4byte	0x262f
 9416 25f6 BF0B0000 		.4byte	.LLST84
 9417 25fa 22       		.uleb128 0x22
 9418 25fb 47260000 		.4byte	0x2647
 9419 25ff D40B0000 		.4byte	.LLST86
 9420 2603 00       		.byte	0
 9421 2604 07       		.uleb128 0x7
 9422 2605 8F000000 		.4byte	0x8f
 9423 2609 17260000 		.4byte	0x2617
ARM GAS  C:\Users\Andres\AppData\Local\Temp\ccSsqcxd.s 			page 189


 9424 260d 23       		.uleb128 0x23
 9425 260e B7000000 		.4byte	0xb7
 9426 2612 E8250000 		.4byte	0x25e8
 9427 2616 00       		.byte	0
 9428 2617 24       		.uleb128 0x24
 9429 2618 B7000000 		.4byte	0xb7
 9430 261c 07       		.uleb128 0x7
 9431 261d 8F000000 		.4byte	0x8f
 9432 2621 2F260000 		.4byte	0x262f
 9433 2625 23       		.uleb128 0x23
 9434 2626 B7000000 		.4byte	0xb7
 9435 262a F1250000 		.4byte	0x25f1
 9436 262e 00       		.byte	0
 9437 262f 24       		.uleb128 0x24
 9438 2630 B7000000 		.4byte	0xb7
 9439 2634 07       		.uleb128 0x7
 9440 2635 8F000000 		.4byte	0x8f
 9441 2639 47260000 		.4byte	0x2647
 9442 263d 23       		.uleb128 0x23
 9443 263e B7000000 		.4byte	0xb7
 9444 2642 FA250000 		.4byte	0x25fa
 9445 2646 00       		.byte	0
 9446 2647 24       		.uleb128 0x24
 9447 2648 B7000000 		.4byte	0xb7
 9448 264c 13       		.uleb128 0x13
 9449 264d 5D060000 		.4byte	.LASF81
 9450 2651 06       		.byte	0x6
 9451 2652 16       		.byte	0x16
 9452 2653 5D000000 		.4byte	0x5d
 9453 2657 00000000 		.4byte	.LFB73
 9454 265b 2A040000 		.4byte	.LFE73-.LFB73
 9455 265f 01       		.uleb128 0x1
 9456 2660 9C       		.byte	0x9c
 9457 2661 52300000 		.4byte	0x3052
 9458 2665 11       		.uleb128 0x11
 9459 2666 AB010000 		.4byte	.LASF82
 9460 266a 06       		.byte	0x6
 9461 266b 2D       		.byte	0x2d
 9462 266c 5D000000 		.4byte	0x5d
 9463 2670 E90B0000 		.4byte	.LLST90
 9464 2674 1F       		.uleb128 0x1f
 9465 2675 70786400 		.ascii	"pxd\000"
 9466 2679 06       		.byte	0x6
 9467 267a 2D       		.byte	0x2d
 9468 267b 5D000000 		.4byte	0x5d
 9469 267f 070C0000 		.4byte	.LLST91
 9470 2683 1F       		.uleb128 0x1f
 9471 2684 70786900 		.ascii	"pxi\000"
 9472 2688 06       		.byte	0x6
 9473 2689 2D       		.byte	0x2d
 9474 268a 5D000000 		.4byte	0x5d
 9475 268e 510C0000 		.4byte	.LLST92
 9476 2692 11       		.uleb128 0x11
 9477 2693 9D000000 		.4byte	.LASF83
 9478 2697 06       		.byte	0x6
 9479 2698 2D       		.byte	0x2d
 9480 2699 5D000000 		.4byte	0x5d
ARM GAS  C:\Users\Andres\AppData\Local\Temp\ccSsqcxd.s 			page 190


 9481 269d 850C0000 		.4byte	.LLST93
 9482 26a1 11       		.uleb128 0x11
 9483 26a2 1F030000 		.4byte	.LASF84
 9484 26a6 06       		.byte	0x6
 9485 26a7 2D       		.byte	0x2d
 9486 26a8 5D000000 		.4byte	0x5d
 9487 26ac B90C0000 		.4byte	.LLST94
 9488 26b0 1F       		.uleb128 0x1f
 9489 26b1 706F7300 		.ascii	"pos\000"
 9490 26b5 06       		.byte	0x6
 9491 26b6 2D       		.byte	0x2d
 9492 26b7 5D000000 		.4byte	0x5d
 9493 26bb E20C0000 		.4byte	.LLST95
 9494 26bf 1E       		.uleb128 0x1e
 9495 26c0 FE010000 		.4byte	.LASF85
 9496 26c4 06       		.byte	0x6
 9497 26c5 6E       		.byte	0x6e
 9498 26c6 30010000 		.4byte	.L173
 9499 26ca 0C       		.uleb128 0xc
 9500 26cb 0E000000 		.4byte	.LVL548
 9501 26cf 1A330000 		.4byte	0x331a
 9502 26d3 DD260000 		.4byte	0x26dd
 9503 26d7 0D       		.uleb128 0xd
 9504 26d8 01       		.uleb128 0x1
 9505 26d9 50       		.byte	0x50
 9506 26da 01       		.uleb128 0x1
 9507 26db 30       		.byte	0x30
 9508 26dc 00       		.byte	0
 9509 26dd 0C       		.uleb128 0xc
 9510 26de 14000000 		.4byte	.LVL549
 9511 26e2 92330000 		.4byte	0x3392
 9512 26e6 F0260000 		.4byte	0x26f0
 9513 26ea 0D       		.uleb128 0xd
 9514 26eb 01       		.uleb128 0x1
 9515 26ec 50       		.byte	0x50
 9516 26ed 01       		.uleb128 0x1
 9517 26ee 30       		.byte	0x30
 9518 26ef 00       		.byte	0
 9519 26f0 0C       		.uleb128 0xc
 9520 26f1 1A000000 		.4byte	.LVL550
 9521 26f5 F9330000 		.4byte	0x33f9
 9522 26f9 03270000 		.4byte	0x2703
 9523 26fd 0D       		.uleb128 0xd
 9524 26fe 01       		.uleb128 0x1
 9525 26ff 50       		.byte	0x50
 9526 2700 01       		.uleb128 0x1
 9527 2701 30       		.byte	0x30
 9528 2702 00       		.byte	0
 9529 2703 0C       		.uleb128 0xc
 9530 2704 20000000 		.4byte	.LVL551
 9531 2708 7C340000 		.4byte	0x347c
 9532 270c 16270000 		.4byte	0x2716
 9533 2710 0D       		.uleb128 0xd
 9534 2711 01       		.uleb128 0x1
 9535 2712 50       		.byte	0x50
 9536 2713 01       		.uleb128 0x1
 9537 2714 30       		.byte	0x30
ARM GAS  C:\Users\Andres\AppData\Local\Temp\ccSsqcxd.s 			page 191


 9538 2715 00       		.byte	0
 9539 2716 0E       		.uleb128 0xe
 9540 2717 24000000 		.4byte	.LVL552
 9541 271b C1340000 		.4byte	0x34c1
 9542 271f 0E       		.uleb128 0xe
 9543 2720 28000000 		.4byte	.LVL553
 9544 2724 C8340000 		.4byte	0x34c8
 9545 2728 0E       		.uleb128 0xe
 9546 2729 2C000000 		.4byte	.LVL554
 9547 272d CF340000 		.4byte	0x34cf
 9548 2731 0E       		.uleb128 0xe
 9549 2732 30000000 		.4byte	.LVL555
 9550 2736 D6340000 		.4byte	0x34d6
 9551 273a 0E       		.uleb128 0xe
 9552 273b 34000000 		.4byte	.LVL556
 9553 273f DD340000 		.4byte	0x34dd
 9554 2743 0E       		.uleb128 0xe
 9555 2744 38000000 		.4byte	.LVL557
 9556 2748 E4340000 		.4byte	0x34e4
 9557 274c 0E       		.uleb128 0xe
 9558 274d 3C000000 		.4byte	.LVL558
 9559 2751 EB340000 		.4byte	0x34eb
 9560 2755 0E       		.uleb128 0xe
 9561 2756 40000000 		.4byte	.LVL559
 9562 275a F2340000 		.4byte	0x34f2
 9563 275e 0C       		.uleb128 0xc
 9564 275f 46000000 		.4byte	.LVL560
 9565 2763 2B330000 		.4byte	0x332b
 9566 2767 72270000 		.4byte	0x2772
 9567 276b 0D       		.uleb128 0xd
 9568 276c 01       		.uleb128 0x1
 9569 276d 50       		.byte	0x50
 9570 276e 02       		.uleb128 0x2
 9571 276f 08       		.byte	0x8
 9572 2770 64       		.byte	0x64
 9573 2771 00       		.byte	0
 9574 2772 0E       		.uleb128 0xe
 9575 2773 4A000000 		.4byte	.LVL561
 9576 2777 00020000 		.4byte	0x200
 9577 277b 0E       		.uleb128 0xe
 9578 277c 4E000000 		.4byte	.LVL562
 9579 2780 98050000 		.4byte	0x598
 9580 2784 0E       		.uleb128 0xe
 9581 2785 52000000 		.4byte	.LVL563
 9582 2789 30090000 		.4byte	0x930
 9583 278d 0E       		.uleb128 0xe
 9584 278e 56000000 		.4byte	.LVL564
 9585 2792 F9340000 		.4byte	0x34f9
 9586 2796 0C       		.uleb128 0xc
 9587 2797 5C000000 		.4byte	.LVL565
 9588 279b 04350000 		.4byte	0x3504
 9589 279f AD270000 		.4byte	0x27ad
 9590 27a3 0D       		.uleb128 0xd
 9591 27a4 01       		.uleb128 0x1
 9592 27a5 50       		.byte	0x50
 9593 27a6 05       		.uleb128 0x5
 9594 27a7 03       		.byte	0x3
ARM GAS  C:\Users\Andres\AppData\Local\Temp\ccSsqcxd.s 			page 192


 9595 27a8 00000000 		.4byte	interrutcan
 9596 27ac 00       		.byte	0
 9597 27ad 0E       		.uleb128 0xe
 9598 27ae 66000000 		.4byte	.LVL566
 9599 27b2 15350000 		.4byte	0x3515
 9600 27b6 0E       		.uleb128 0xe
 9601 27b7 6A000000 		.4byte	.LVL567
 9602 27bb 1C350000 		.4byte	0x351c
 9603 27bf 0C       		.uleb128 0xc
 9604 27c0 70000000 		.4byte	.LVL568
 9605 27c4 38340000 		.4byte	0x3438
 9606 27c8 D2270000 		.4byte	0x27d2
 9607 27cc 0D       		.uleb128 0xd
 9608 27cd 01       		.uleb128 0x1
 9609 27ce 50       		.byte	0x50
 9610 27cf 01       		.uleb128 0x1
 9611 27d0 33       		.byte	0x33
 9612 27d1 00       		.byte	0
 9613 27d2 0E       		.uleb128 0xe
 9614 27d3 74000000 		.4byte	.LVL569
 9615 27d7 23350000 		.4byte	0x3523
 9616 27db 0C       		.uleb128 0xc
 9617 27dc 82000000 		.4byte	.LVL570
 9618 27e0 9D160000 		.4byte	0x169d
 9619 27e4 FA270000 		.4byte	0x27fa
 9620 27e8 0D       		.uleb128 0xd
 9621 27e9 01       		.uleb128 0x1
 9622 27ea 52       		.byte	0x52
 9623 27eb 02       		.uleb128 0x2
 9624 27ec 08       		.byte	0x8
 9625 27ed 64       		.byte	0x64
 9626 27ee 0D       		.uleb128 0xd
 9627 27ef 01       		.uleb128 0x1
 9628 27f0 51       		.byte	0x51
 9629 27f1 02       		.uleb128 0x2
 9630 27f2 74       		.byte	0x74
 9631 27f3 00       		.sleb128 0
 9632 27f4 0D       		.uleb128 0xd
 9633 27f5 01       		.uleb128 0x1
 9634 27f6 50       		.byte	0x50
 9635 27f7 01       		.uleb128 0x1
 9636 27f8 31       		.byte	0x31
 9637 27f9 00       		.byte	0
 9638 27fa 0E       		.uleb128 0xe
 9639 27fb 86000000 		.4byte	.LVL571
 9640 27ff 28210000 		.4byte	0x2128
 9641 2803 0C       		.uleb128 0xc
 9642 2804 90000000 		.4byte	.LVL572
 9643 2808 9D160000 		.4byte	0x169d
 9644 280c 22280000 		.4byte	0x2822
 9645 2810 0D       		.uleb128 0xd
 9646 2811 01       		.uleb128 0x1
 9647 2812 52       		.byte	0x52
 9648 2813 02       		.uleb128 0x2
 9649 2814 08       		.byte	0x8
 9650 2815 64       		.byte	0x64
 9651 2816 0D       		.uleb128 0xd
ARM GAS  C:\Users\Andres\AppData\Local\Temp\ccSsqcxd.s 			page 193


 9652 2817 01       		.uleb128 0x1
 9653 2818 51       		.byte	0x51
 9654 2819 02       		.uleb128 0x2
 9655 281a 74       		.byte	0x74
 9656 281b 00       		.sleb128 0
 9657 281c 0D       		.uleb128 0xd
 9658 281d 01       		.uleb128 0x1
 9659 281e 50       		.byte	0x50
 9660 281f 01       		.uleb128 0x1
 9661 2820 31       		.byte	0x31
 9662 2821 00       		.byte	0
 9663 2822 0C       		.uleb128 0xc
 9664 2823 98000000 		.4byte	.LVL573
 9665 2827 6C240000 		.4byte	0x246c
 9666 282b 3B280000 		.4byte	0x283b
 9667 282f 0D       		.uleb128 0xd
 9668 2830 01       		.uleb128 0x1
 9669 2831 51       		.byte	0x51
 9670 2832 02       		.uleb128 0x2
 9671 2833 74       		.byte	0x74
 9672 2834 00       		.sleb128 0
 9673 2835 0D       		.uleb128 0xd
 9674 2836 01       		.uleb128 0x1
 9675 2837 50       		.byte	0x50
 9676 2838 01       		.uleb128 0x1
 9677 2839 31       		.byte	0x31
 9678 283a 00       		.byte	0
 9679 283b 0C       		.uleb128 0xc
 9680 283c A0000000 		.4byte	.LVL574
 9681 2840 6C240000 		.4byte	0x246c
 9682 2844 54280000 		.4byte	0x2854
 9683 2848 0D       		.uleb128 0xd
 9684 2849 01       		.uleb128 0x1
 9685 284a 51       		.byte	0x51
 9686 284b 02       		.uleb128 0x2
 9687 284c 74       		.byte	0x74
 9688 284d 00       		.sleb128 0
 9689 284e 0D       		.uleb128 0xd
 9690 284f 01       		.uleb128 0x1
 9691 2850 50       		.byte	0x50
 9692 2851 01       		.uleb128 0x1
 9693 2852 32       		.byte	0x32
 9694 2853 00       		.byte	0
 9695 2854 0C       		.uleb128 0xc
 9696 2855 A8000000 		.4byte	.LVL575
 9697 2859 6C240000 		.4byte	0x246c
 9698 285d 6D280000 		.4byte	0x286d
 9699 2861 0D       		.uleb128 0xd
 9700 2862 01       		.uleb128 0x1
 9701 2863 51       		.byte	0x51
 9702 2864 02       		.uleb128 0x2
 9703 2865 74       		.byte	0x74
 9704 2866 00       		.sleb128 0
 9705 2867 0D       		.uleb128 0xd
 9706 2868 01       		.uleb128 0x1
 9707 2869 50       		.byte	0x50
 9708 286a 01       		.uleb128 0x1
ARM GAS  C:\Users\Andres\AppData\Local\Temp\ccSsqcxd.s 			page 194


 9709 286b 33       		.byte	0x33
 9710 286c 00       		.byte	0
 9711 286d 0C       		.uleb128 0xc
 9712 286e B0000000 		.4byte	.LVL576
 9713 2872 6C240000 		.4byte	0x246c
 9714 2876 86280000 		.4byte	0x2886
 9715 287a 0D       		.uleb128 0xd
 9716 287b 01       		.uleb128 0x1
 9717 287c 51       		.byte	0x51
 9718 287d 02       		.uleb128 0x2
 9719 287e 74       		.byte	0x74
 9720 287f 00       		.sleb128 0
 9721 2880 0D       		.uleb128 0xd
 9722 2881 01       		.uleb128 0x1
 9723 2882 50       		.byte	0x50
 9724 2883 01       		.uleb128 0x1
 9725 2884 34       		.byte	0x34
 9726 2885 00       		.byte	0
 9727 2886 0C       		.uleb128 0xc
 9728 2887 B8000000 		.4byte	.LVL577
 9729 288b 6C240000 		.4byte	0x246c
 9730 288f 9F280000 		.4byte	0x289f
 9731 2893 0D       		.uleb128 0xd
 9732 2894 01       		.uleb128 0x1
 9733 2895 51       		.byte	0x51
 9734 2896 02       		.uleb128 0x2
 9735 2897 74       		.byte	0x74
 9736 2898 00       		.sleb128 0
 9737 2899 0D       		.uleb128 0xd
 9738 289a 01       		.uleb128 0x1
 9739 289b 50       		.byte	0x50
 9740 289c 01       		.uleb128 0x1
 9741 289d 35       		.byte	0x35
 9742 289e 00       		.byte	0
 9743 289f 0E       		.uleb128 0xe
 9744 28a0 BC000000 		.4byte	.LVL578
 9745 28a4 5D030000 		.4byte	0x35d
 9746 28a8 0E       		.uleb128 0xe
 9747 28a9 C2000000 		.4byte	.LVL580
 9748 28ad 8D0A0000 		.4byte	0xa8d
 9749 28b1 0E       		.uleb128 0xe
 9750 28b2 C8000000 		.4byte	.LVL582
 9751 28b6 F5060000 		.4byte	0x6f5
 9752 28ba 0C       		.uleb128 0xc
 9753 28bb D0000000 		.4byte	.LVL585
 9754 28bf 92330000 		.4byte	0x3392
 9755 28c3 CD280000 		.4byte	0x28cd
 9756 28c7 0D       		.uleb128 0xd
 9757 28c8 01       		.uleb128 0x1
 9758 28c9 50       		.byte	0x50
 9759 28ca 01       		.uleb128 0x1
 9760 28cb 30       		.byte	0x30
 9761 28cc 00       		.byte	0
 9762 28cd 0C       		.uleb128 0xc
 9763 28ce E0000000 		.4byte	.LVL586
 9764 28d2 121D0000 		.4byte	0x1d12
 9765 28d6 E0280000 		.4byte	0x28e0
ARM GAS  C:\Users\Andres\AppData\Local\Temp\ccSsqcxd.s 			page 195


 9766 28da 0D       		.uleb128 0xd
 9767 28db 01       		.uleb128 0x1
 9768 28dc 50       		.byte	0x50
 9769 28dd 01       		.uleb128 0x1
 9770 28de 31       		.byte	0x31
 9771 28df 00       		.byte	0
 9772 28e0 0C       		.uleb128 0xc
 9773 28e1 EE000000 		.4byte	.LVL588
 9774 28e5 92330000 		.4byte	0x3392
 9775 28e9 F3280000 		.4byte	0x28f3
 9776 28ed 0D       		.uleb128 0xd
 9777 28ee 01       		.uleb128 0x1
 9778 28ef 50       		.byte	0x50
 9779 28f0 01       		.uleb128 0x1
 9780 28f1 31       		.byte	0x31
 9781 28f2 00       		.byte	0
 9782 28f3 0E       		.uleb128 0xe
 9783 28f4 F2000000 		.4byte	.LVL589
 9784 28f8 5D030000 		.4byte	0x35d
 9785 28fc 0E       		.uleb128 0xe
 9786 28fd F8000000 		.4byte	.LVL591
 9787 2901 8D0A0000 		.4byte	0xa8d
 9788 2905 0E       		.uleb128 0xe
 9789 2906 FE000000 		.4byte	.LVL593
 9790 290a F5060000 		.4byte	0x6f5
 9791 290e 0C       		.uleb128 0xc
 9792 290f 06010000 		.4byte	.LVL596
 9793 2913 92330000 		.4byte	0x3392
 9794 2917 21290000 		.4byte	0x2921
 9795 291b 0D       		.uleb128 0xd
 9796 291c 01       		.uleb128 0x1
 9797 291d 50       		.byte	0x50
 9798 291e 01       		.uleb128 0x1
 9799 291f 30       		.byte	0x30
 9800 2920 00       		.byte	0
 9801 2921 0C       		.uleb128 0xc
 9802 2922 4E010000 		.4byte	.LVL598
 9803 2926 03250000 		.4byte	0x2503
 9804 292a 35290000 		.4byte	0x2935
 9805 292e 0D       		.uleb128 0xd
 9806 292f 01       		.uleb128 0x1
 9807 2930 50       		.byte	0x50
 9808 2931 02       		.uleb128 0x2
 9809 2932 76       		.byte	0x76
 9810 2933 00       		.sleb128 0
 9811 2934 00       		.byte	0
 9812 2935 0C       		.uleb128 0xc
 9813 2936 6A010000 		.4byte	.LVL601
 9814 293a 9D160000 		.4byte	0x169d
 9815 293e 54290000 		.4byte	0x2954
 9816 2942 0D       		.uleb128 0xd
 9817 2943 01       		.uleb128 0x1
 9818 2944 52       		.byte	0x52
 9819 2945 02       		.uleb128 0x2
 9820 2946 08       		.byte	0x8
 9821 2947 64       		.byte	0x64
 9822 2948 0D       		.uleb128 0xd
ARM GAS  C:\Users\Andres\AppData\Local\Temp\ccSsqcxd.s 			page 196


 9823 2949 01       		.uleb128 0x1
 9824 294a 51       		.byte	0x51
 9825 294b 02       		.uleb128 0x2
 9826 294c 74       		.byte	0x74
 9827 294d 00       		.sleb128 0
 9828 294e 0D       		.uleb128 0xd
 9829 294f 01       		.uleb128 0x1
 9830 2950 50       		.byte	0x50
 9831 2951 01       		.uleb128 0x1
 9832 2952 31       		.byte	0x31
 9833 2953 00       		.byte	0
 9834 2954 0C       		.uleb128 0xc
 9835 2955 72010000 		.4byte	.LVL602
 9836 2959 6C240000 		.4byte	0x246c
 9837 295d 6D290000 		.4byte	0x296d
 9838 2961 0D       		.uleb128 0xd
 9839 2962 01       		.uleb128 0x1
 9840 2963 51       		.byte	0x51
 9841 2964 02       		.uleb128 0x2
 9842 2965 74       		.byte	0x74
 9843 2966 00       		.sleb128 0
 9844 2967 0D       		.uleb128 0xd
 9845 2968 01       		.uleb128 0x1
 9846 2969 50       		.byte	0x50
 9847 296a 01       		.uleb128 0x1
 9848 296b 31       		.byte	0x31
 9849 296c 00       		.byte	0
 9850 296d 0C       		.uleb128 0xc
 9851 296e 7A010000 		.4byte	.LVL603
 9852 2972 6C240000 		.4byte	0x246c
 9853 2976 86290000 		.4byte	0x2986
 9854 297a 0D       		.uleb128 0xd
 9855 297b 01       		.uleb128 0x1
 9856 297c 51       		.byte	0x51
 9857 297d 02       		.uleb128 0x2
 9858 297e 74       		.byte	0x74
 9859 297f 00       		.sleb128 0
 9860 2980 0D       		.uleb128 0xd
 9861 2981 01       		.uleb128 0x1
 9862 2982 50       		.byte	0x50
 9863 2983 01       		.uleb128 0x1
 9864 2984 32       		.byte	0x32
 9865 2985 00       		.byte	0
 9866 2986 0C       		.uleb128 0xc
 9867 2987 82010000 		.4byte	.LVL604
 9868 298b 6C240000 		.4byte	0x246c
 9869 298f 9F290000 		.4byte	0x299f
 9870 2993 0D       		.uleb128 0xd
 9871 2994 01       		.uleb128 0x1
 9872 2995 51       		.byte	0x51
 9873 2996 02       		.uleb128 0x2
 9874 2997 74       		.byte	0x74
 9875 2998 00       		.sleb128 0
 9876 2999 0D       		.uleb128 0xd
 9877 299a 01       		.uleb128 0x1
 9878 299b 50       		.byte	0x50
 9879 299c 01       		.uleb128 0x1
ARM GAS  C:\Users\Andres\AppData\Local\Temp\ccSsqcxd.s 			page 197


 9880 299d 33       		.byte	0x33
 9881 299e 00       		.byte	0
 9882 299f 0C       		.uleb128 0xc
 9883 29a0 8A010000 		.4byte	.LVL605
 9884 29a4 6C240000 		.4byte	0x246c
 9885 29a8 B8290000 		.4byte	0x29b8
 9886 29ac 0D       		.uleb128 0xd
 9887 29ad 01       		.uleb128 0x1
 9888 29ae 51       		.byte	0x51
 9889 29af 02       		.uleb128 0x2
 9890 29b0 74       		.byte	0x74
 9891 29b1 00       		.sleb128 0
 9892 29b2 0D       		.uleb128 0xd
 9893 29b3 01       		.uleb128 0x1
 9894 29b4 50       		.byte	0x50
 9895 29b5 01       		.uleb128 0x1
 9896 29b6 34       		.byte	0x34
 9897 29b7 00       		.byte	0
 9898 29b8 0C       		.uleb128 0xc
 9899 29b9 92010000 		.4byte	.LVL606
 9900 29bd 6C240000 		.4byte	0x246c
 9901 29c1 D2290000 		.4byte	0x29d2
 9902 29c5 0D       		.uleb128 0xd
 9903 29c6 01       		.uleb128 0x1
 9904 29c7 51       		.byte	0x51
 9905 29c8 03       		.uleb128 0x3
 9906 29c9 0A       		.byte	0xa
 9907 29ca A202     		.2byte	0x2a2
 9908 29cc 0D       		.uleb128 0xd
 9909 29cd 01       		.uleb128 0x1
 9910 29ce 50       		.byte	0x50
 9911 29cf 01       		.uleb128 0x1
 9912 29d0 35       		.byte	0x35
 9913 29d1 00       		.byte	0
 9914 29d2 0C       		.uleb128 0xc
 9915 29d3 9A010000 		.4byte	.LVL607
 9916 29d7 2B330000 		.4byte	0x332b
 9917 29db E7290000 		.4byte	0x29e7
 9918 29df 0D       		.uleb128 0xd
 9919 29e0 01       		.uleb128 0x1
 9920 29e1 50       		.byte	0x50
 9921 29e2 03       		.uleb128 0x3
 9922 29e3 0A       		.byte	0xa
 9923 29e4 D007     		.2byte	0x7d0
 9924 29e6 00       		.byte	0
 9925 29e7 0C       		.uleb128 0xc
 9926 29e8 A4010000 		.4byte	.LVL608
 9927 29ec 6C240000 		.4byte	0x246c
 9928 29f0 012A0000 		.4byte	0x2a01
 9929 29f4 0D       		.uleb128 0xd
 9930 29f5 01       		.uleb128 0x1
 9931 29f6 51       		.byte	0x51
 9932 29f7 03       		.uleb128 0x3
 9933 29f8 0A       		.byte	0xa
 9934 29f9 BC02     		.2byte	0x2bc
 9935 29fb 0D       		.uleb128 0xd
 9936 29fc 01       		.uleb128 0x1
ARM GAS  C:\Users\Andres\AppData\Local\Temp\ccSsqcxd.s 			page 198


 9937 29fd 50       		.byte	0x50
 9938 29fe 01       		.uleb128 0x1
 9939 29ff 32       		.byte	0x32
 9940 2a00 00       		.byte	0
 9941 2a01 0C       		.uleb128 0xc
 9942 2a02 AE010000 		.4byte	.LVL609
 9943 2a06 6C240000 		.4byte	0x246c
 9944 2a0a 1B2A0000 		.4byte	0x2a1b
 9945 2a0e 0D       		.uleb128 0xd
 9946 2a0f 01       		.uleb128 0x1
 9947 2a10 51       		.byte	0x51
 9948 2a11 03       		.uleb128 0x3
 9949 2a12 0A       		.byte	0xa
 9950 2a13 5802     		.2byte	0x258
 9951 2a15 0D       		.uleb128 0xd
 9952 2a16 01       		.uleb128 0x1
 9953 2a17 50       		.byte	0x50
 9954 2a18 01       		.uleb128 0x1
 9955 2a19 33       		.byte	0x33
 9956 2a1a 00       		.byte	0
 9957 2a1b 0C       		.uleb128 0xc
 9958 2a1c B6010000 		.4byte	.LVL610
 9959 2a20 2B330000 		.4byte	0x332b
 9960 2a24 302A0000 		.4byte	0x2a30
 9961 2a28 0D       		.uleb128 0xd
 9962 2a29 01       		.uleb128 0x1
 9963 2a2a 50       		.byte	0x50
 9964 2a2b 03       		.uleb128 0x3
 9965 2a2c 0A       		.byte	0xa
 9966 2a2d D007     		.2byte	0x7d0
 9967 2a2f 00       		.byte	0
 9968 2a30 0C       		.uleb128 0xc
 9969 2a31 BE010000 		.4byte	.LVL611
 9970 2a35 6C240000 		.4byte	0x246c
 9971 2a39 492A0000 		.4byte	0x2a49
 9972 2a3d 0D       		.uleb128 0xd
 9973 2a3e 01       		.uleb128 0x1
 9974 2a3f 51       		.byte	0x51
 9975 2a40 02       		.uleb128 0x2
 9976 2a41 74       		.byte	0x74
 9977 2a42 00       		.sleb128 0
 9978 2a43 0D       		.uleb128 0xd
 9979 2a44 01       		.uleb128 0x1
 9980 2a45 50       		.byte	0x50
 9981 2a46 01       		.uleb128 0x1
 9982 2a47 35       		.byte	0x35
 9983 2a48 00       		.byte	0
 9984 2a49 0C       		.uleb128 0xc
 9985 2a4a CA010000 		.4byte	.LVL612
 9986 2a4e 9D160000 		.4byte	0x169d
 9987 2a52 692A0000 		.4byte	0x2a69
 9988 2a56 0D       		.uleb128 0xd
 9989 2a57 01       		.uleb128 0x1
 9990 2a58 52       		.byte	0x52
 9991 2a59 02       		.uleb128 0x2
 9992 2a5a 08       		.byte	0x8
 9993 2a5b 64       		.byte	0x64
ARM GAS  C:\Users\Andres\AppData\Local\Temp\ccSsqcxd.s 			page 199


 9994 2a5c 0D       		.uleb128 0xd
 9995 2a5d 01       		.uleb128 0x1
 9996 2a5e 51       		.byte	0x51
 9997 2a5f 03       		.uleb128 0x3
 9998 2a60 0A       		.byte	0xa
 9999 2a61 5E01     		.2byte	0x15e
 10000 2a63 0D       		.uleb128 0xd
 10001 2a64 01       		.uleb128 0x1
 10002 2a65 50       		.byte	0x50
 10003 2a66 01       		.uleb128 0x1
 10004 2a67 31       		.byte	0x31
 10005 2a68 00       		.byte	0
 10006 2a69 0C       		.uleb128 0xc
 10007 2a6a D2010000 		.4byte	.LVL613
 10008 2a6e 2B330000 		.4byte	0x332b
 10009 2a72 7E2A0000 		.4byte	0x2a7e
 10010 2a76 0D       		.uleb128 0xd
 10011 2a77 01       		.uleb128 0x1
 10012 2a78 50       		.byte	0x50
 10013 2a79 03       		.uleb128 0x3
 10014 2a7a 0A       		.byte	0xa
 10015 2a7b D007     		.2byte	0x7d0
 10016 2a7d 00       		.byte	0
 10017 2a7e 0C       		.uleb128 0xc
 10018 2a7f DA010000 		.4byte	.LVL614
 10019 2a83 6C240000 		.4byte	0x246c
 10020 2a87 972A0000 		.4byte	0x2a97
 10021 2a8b 0D       		.uleb128 0xd
 10022 2a8c 01       		.uleb128 0x1
 10023 2a8d 51       		.byte	0x51
 10024 2a8e 02       		.uleb128 0x2
 10025 2a8f 74       		.byte	0x74
 10026 2a90 00       		.sleb128 0
 10027 2a91 0D       		.uleb128 0xd
 10028 2a92 01       		.uleb128 0x1
 10029 2a93 50       		.byte	0x50
 10030 2a94 01       		.uleb128 0x1
 10031 2a95 32       		.byte	0x32
 10032 2a96 00       		.byte	0
 10033 2a97 0C       		.uleb128 0xc
 10034 2a98 E2010000 		.4byte	.LVL615
 10035 2a9c 6C240000 		.4byte	0x246c
 10036 2aa0 B02A0000 		.4byte	0x2ab0
 10037 2aa4 0D       		.uleb128 0xd
 10038 2aa5 01       		.uleb128 0x1
 10039 2aa6 51       		.byte	0x51
 10040 2aa7 02       		.uleb128 0x2
 10041 2aa8 74       		.byte	0x74
 10042 2aa9 00       		.sleb128 0
 10043 2aaa 0D       		.uleb128 0xd
 10044 2aab 01       		.uleb128 0x1
 10045 2aac 50       		.byte	0x50
 10046 2aad 01       		.uleb128 0x1
 10047 2aae 33       		.byte	0x33
 10048 2aaf 00       		.byte	0
 10049 2ab0 0C       		.uleb128 0xc
 10050 2ab1 EA010000 		.4byte	.LVL616
ARM GAS  C:\Users\Andres\AppData\Local\Temp\ccSsqcxd.s 			page 200


 10051 2ab5 2B330000 		.4byte	0x332b
 10052 2ab9 C52A0000 		.4byte	0x2ac5
 10053 2abd 0D       		.uleb128 0xd
 10054 2abe 01       		.uleb128 0x1
 10055 2abf 50       		.byte	0x50
 10056 2ac0 03       		.uleb128 0x3
 10057 2ac1 0A       		.byte	0xa
 10058 2ac2 D007     		.2byte	0x7d0
 10059 2ac4 00       		.byte	0
 10060 2ac5 0C       		.uleb128 0xc
 10061 2ac6 FA010000 		.4byte	.LVL618
 10062 2aca 9D160000 		.4byte	0x169d
 10063 2ace E42A0000 		.4byte	0x2ae4
 10064 2ad2 0D       		.uleb128 0xd
 10065 2ad3 01       		.uleb128 0x1
 10066 2ad4 52       		.byte	0x52
 10067 2ad5 02       		.uleb128 0x2
 10068 2ad6 08       		.byte	0x8
 10069 2ad7 64       		.byte	0x64
 10070 2ad8 0D       		.uleb128 0xd
 10071 2ad9 01       		.uleb128 0x1
 10072 2ada 51       		.byte	0x51
 10073 2adb 02       		.uleb128 0x2
 10074 2adc 74       		.byte	0x74
 10075 2add 00       		.sleb128 0
 10076 2ade 0D       		.uleb128 0xd
 10077 2adf 01       		.uleb128 0x1
 10078 2ae0 50       		.byte	0x50
 10079 2ae1 01       		.uleb128 0x1
 10080 2ae2 31       		.byte	0x31
 10081 2ae3 00       		.byte	0
 10082 2ae4 0C       		.uleb128 0xc
 10083 2ae5 02020000 		.4byte	.LVL619
 10084 2ae9 6C240000 		.4byte	0x246c
 10085 2aed FD2A0000 		.4byte	0x2afd
 10086 2af1 0D       		.uleb128 0xd
 10087 2af2 01       		.uleb128 0x1
 10088 2af3 51       		.byte	0x51
 10089 2af4 02       		.uleb128 0x2
 10090 2af5 74       		.byte	0x74
 10091 2af6 00       		.sleb128 0
 10092 2af7 0D       		.uleb128 0xd
 10093 2af8 01       		.uleb128 0x1
 10094 2af9 50       		.byte	0x50
 10095 2afa 01       		.uleb128 0x1
 10096 2afb 31       		.byte	0x31
 10097 2afc 00       		.byte	0
 10098 2afd 0C       		.uleb128 0xc
 10099 2afe 0A020000 		.4byte	.LVL620
 10100 2b02 6C240000 		.4byte	0x246c
 10101 2b06 162B0000 		.4byte	0x2b16
 10102 2b0a 0D       		.uleb128 0xd
 10103 2b0b 01       		.uleb128 0x1
 10104 2b0c 51       		.byte	0x51
 10105 2b0d 02       		.uleb128 0x2
 10106 2b0e 74       		.byte	0x74
 10107 2b0f 00       		.sleb128 0
ARM GAS  C:\Users\Andres\AppData\Local\Temp\ccSsqcxd.s 			page 201


 10108 2b10 0D       		.uleb128 0xd
 10109 2b11 01       		.uleb128 0x1
 10110 2b12 50       		.byte	0x50
 10111 2b13 01       		.uleb128 0x1
 10112 2b14 32       		.byte	0x32
 10113 2b15 00       		.byte	0
 10114 2b16 0C       		.uleb128 0xc
 10115 2b17 12020000 		.4byte	.LVL621
 10116 2b1b 6C240000 		.4byte	0x246c
 10117 2b1f 2F2B0000 		.4byte	0x2b2f
 10118 2b23 0D       		.uleb128 0xd
 10119 2b24 01       		.uleb128 0x1
 10120 2b25 51       		.byte	0x51
 10121 2b26 02       		.uleb128 0x2
 10122 2b27 74       		.byte	0x74
 10123 2b28 00       		.sleb128 0
 10124 2b29 0D       		.uleb128 0xd
 10125 2b2a 01       		.uleb128 0x1
 10126 2b2b 50       		.byte	0x50
 10127 2b2c 01       		.uleb128 0x1
 10128 2b2d 33       		.byte	0x33
 10129 2b2e 00       		.byte	0
 10130 2b2f 0C       		.uleb128 0xc
 10131 2b30 1A020000 		.4byte	.LVL622
 10132 2b34 6C240000 		.4byte	0x246c
 10133 2b38 482B0000 		.4byte	0x2b48
 10134 2b3c 0D       		.uleb128 0xd
 10135 2b3d 01       		.uleb128 0x1
 10136 2b3e 51       		.byte	0x51
 10137 2b3f 02       		.uleb128 0x2
 10138 2b40 74       		.byte	0x74
 10139 2b41 00       		.sleb128 0
 10140 2b42 0D       		.uleb128 0xd
 10141 2b43 01       		.uleb128 0x1
 10142 2b44 50       		.byte	0x50
 10143 2b45 01       		.uleb128 0x1
 10144 2b46 34       		.byte	0x34
 10145 2b47 00       		.byte	0
 10146 2b48 0C       		.uleb128 0xc
 10147 2b49 22020000 		.4byte	.LVL623
 10148 2b4d 6C240000 		.4byte	0x246c
 10149 2b51 622B0000 		.4byte	0x2b62
 10150 2b55 0D       		.uleb128 0xd
 10151 2b56 01       		.uleb128 0x1
 10152 2b57 51       		.byte	0x51
 10153 2b58 03       		.uleb128 0x3
 10154 2b59 0A       		.byte	0xa
 10155 2b5a A202     		.2byte	0x2a2
 10156 2b5c 0D       		.uleb128 0xd
 10157 2b5d 01       		.uleb128 0x1
 10158 2b5e 50       		.byte	0x50
 10159 2b5f 01       		.uleb128 0x1
 10160 2b60 35       		.byte	0x35
 10161 2b61 00       		.byte	0
 10162 2b62 0C       		.uleb128 0xc
 10163 2b63 2A020000 		.4byte	.LVL624
 10164 2b67 2B330000 		.4byte	0x332b
ARM GAS  C:\Users\Andres\AppData\Local\Temp\ccSsqcxd.s 			page 202


 10165 2b6b 772B0000 		.4byte	0x2b77
 10166 2b6f 0D       		.uleb128 0xd
 10167 2b70 01       		.uleb128 0x1
 10168 2b71 50       		.byte	0x50
 10169 2b72 03       		.uleb128 0x3
 10170 2b73 0A       		.byte	0xa
 10171 2b74 D007     		.2byte	0x7d0
 10172 2b76 00       		.byte	0
 10173 2b77 0C       		.uleb128 0xc
 10174 2b78 34020000 		.4byte	.LVL625
 10175 2b7c 6C240000 		.4byte	0x246c
 10176 2b80 912B0000 		.4byte	0x2b91
 10177 2b84 0D       		.uleb128 0xd
 10178 2b85 01       		.uleb128 0x1
 10179 2b86 51       		.byte	0x51
 10180 2b87 03       		.uleb128 0x3
 10181 2b88 0A       		.byte	0xa
 10182 2b89 4401     		.2byte	0x144
 10183 2b8b 0D       		.uleb128 0xd
 10184 2b8c 01       		.uleb128 0x1
 10185 2b8d 50       		.byte	0x50
 10186 2b8e 01       		.uleb128 0x1
 10187 2b8f 32       		.byte	0x32
 10188 2b90 00       		.byte	0
 10189 2b91 0C       		.uleb128 0xc
 10190 2b92 3E020000 		.4byte	.LVL626
 10191 2b96 6C240000 		.4byte	0x246c
 10192 2b9a AB2B0000 		.4byte	0x2bab
 10193 2b9e 0D       		.uleb128 0xd
 10194 2b9f 01       		.uleb128 0x1
 10195 2ba0 51       		.byte	0x51
 10196 2ba1 03       		.uleb128 0x3
 10197 2ba2 0A       		.byte	0xa
 10198 2ba3 A801     		.2byte	0x1a8
 10199 2ba5 0D       		.uleb128 0xd
 10200 2ba6 01       		.uleb128 0x1
 10201 2ba7 50       		.byte	0x50
 10202 2ba8 01       		.uleb128 0x1
 10203 2ba9 33       		.byte	0x33
 10204 2baa 00       		.byte	0
 10205 2bab 0C       		.uleb128 0xc
 10206 2bac 46020000 		.4byte	.LVL627
 10207 2bb0 2B330000 		.4byte	0x332b
 10208 2bb4 C02B0000 		.4byte	0x2bc0
 10209 2bb8 0D       		.uleb128 0xd
 10210 2bb9 01       		.uleb128 0x1
 10211 2bba 50       		.byte	0x50
 10212 2bbb 03       		.uleb128 0x3
 10213 2bbc 0A       		.byte	0xa
 10214 2bbd D007     		.2byte	0x7d0
 10215 2bbf 00       		.byte	0
 10216 2bc0 0C       		.uleb128 0xc
 10217 2bc1 4E020000 		.4byte	.LVL628
 10218 2bc5 6C240000 		.4byte	0x246c
 10219 2bc9 D92B0000 		.4byte	0x2bd9
 10220 2bcd 0D       		.uleb128 0xd
 10221 2bce 01       		.uleb128 0x1
ARM GAS  C:\Users\Andres\AppData\Local\Temp\ccSsqcxd.s 			page 203


 10222 2bcf 51       		.byte	0x51
 10223 2bd0 02       		.uleb128 0x2
 10224 2bd1 74       		.byte	0x74
 10225 2bd2 00       		.sleb128 0
 10226 2bd3 0D       		.uleb128 0xd
 10227 2bd4 01       		.uleb128 0x1
 10228 2bd5 50       		.byte	0x50
 10229 2bd6 01       		.uleb128 0x1
 10230 2bd7 35       		.byte	0x35
 10231 2bd8 00       		.byte	0
 10232 2bd9 0C       		.uleb128 0xc
 10233 2bda 5A020000 		.4byte	.LVL629
 10234 2bde 9D160000 		.4byte	0x169d
 10235 2be2 F92B0000 		.4byte	0x2bf9
 10236 2be6 0D       		.uleb128 0xd
 10237 2be7 01       		.uleb128 0x1
 10238 2be8 52       		.byte	0x52
 10239 2be9 02       		.uleb128 0x2
 10240 2bea 08       		.byte	0x8
 10241 2beb 64       		.byte	0x64
 10242 2bec 0D       		.uleb128 0xd
 10243 2bed 01       		.uleb128 0x1
 10244 2bee 51       		.byte	0x51
 10245 2bef 03       		.uleb128 0x3
 10246 2bf0 0A       		.byte	0xa
 10247 2bf1 5E01     		.2byte	0x15e
 10248 2bf3 0D       		.uleb128 0xd
 10249 2bf4 01       		.uleb128 0x1
 10250 2bf5 50       		.byte	0x50
 10251 2bf6 01       		.uleb128 0x1
 10252 2bf7 31       		.byte	0x31
 10253 2bf8 00       		.byte	0
 10254 2bf9 0C       		.uleb128 0xc
 10255 2bfa 62020000 		.4byte	.LVL630
 10256 2bfe 2B330000 		.4byte	0x332b
 10257 2c02 0E2C0000 		.4byte	0x2c0e
 10258 2c06 0D       		.uleb128 0xd
 10259 2c07 01       		.uleb128 0x1
 10260 2c08 50       		.byte	0x50
 10261 2c09 03       		.uleb128 0x3
 10262 2c0a 0A       		.byte	0xa
 10263 2c0b D007     		.2byte	0x7d0
 10264 2c0d 00       		.byte	0
 10265 2c0e 0C       		.uleb128 0xc
 10266 2c0f 6A020000 		.4byte	.LVL631
 10267 2c13 6C240000 		.4byte	0x246c
 10268 2c17 272C0000 		.4byte	0x2c27
 10269 2c1b 0D       		.uleb128 0xd
 10270 2c1c 01       		.uleb128 0x1
 10271 2c1d 51       		.byte	0x51
 10272 2c1e 02       		.uleb128 0x2
 10273 2c1f 74       		.byte	0x74
 10274 2c20 00       		.sleb128 0
 10275 2c21 0D       		.uleb128 0xd
 10276 2c22 01       		.uleb128 0x1
 10277 2c23 50       		.byte	0x50
 10278 2c24 01       		.uleb128 0x1
ARM GAS  C:\Users\Andres\AppData\Local\Temp\ccSsqcxd.s 			page 204


 10279 2c25 32       		.byte	0x32
 10280 2c26 00       		.byte	0
 10281 2c27 0C       		.uleb128 0xc
 10282 2c28 72020000 		.4byte	.LVL632
 10283 2c2c 6C240000 		.4byte	0x246c
 10284 2c30 402C0000 		.4byte	0x2c40
 10285 2c34 0D       		.uleb128 0xd
 10286 2c35 01       		.uleb128 0x1
 10287 2c36 51       		.byte	0x51
 10288 2c37 02       		.uleb128 0x2
 10289 2c38 74       		.byte	0x74
 10290 2c39 00       		.sleb128 0
 10291 2c3a 0D       		.uleb128 0xd
 10292 2c3b 01       		.uleb128 0x1
 10293 2c3c 50       		.byte	0x50
 10294 2c3d 01       		.uleb128 0x1
 10295 2c3e 33       		.byte	0x33
 10296 2c3f 00       		.byte	0
 10297 2c40 0C       		.uleb128 0xc
 10298 2c41 7A020000 		.4byte	.LVL633
 10299 2c45 2B330000 		.4byte	0x332b
 10300 2c49 552C0000 		.4byte	0x2c55
 10301 2c4d 0D       		.uleb128 0xd
 10302 2c4e 01       		.uleb128 0x1
 10303 2c4f 50       		.byte	0x50
 10304 2c50 03       		.uleb128 0x3
 10305 2c51 0A       		.byte	0xa
 10306 2c52 D007     		.2byte	0x7d0
 10307 2c54 00       		.byte	0
 10308 2c55 0C       		.uleb128 0xc
 10309 2c56 82020000 		.4byte	.LVL634
 10310 2c5a 03250000 		.4byte	0x2503
 10311 2c5e 692C0000 		.4byte	0x2c69
 10312 2c62 0D       		.uleb128 0xd
 10313 2c63 01       		.uleb128 0x1
 10314 2c64 50       		.byte	0x50
 10315 2c65 02       		.uleb128 0x2
 10316 2c66 76       		.byte	0x76
 10317 2c67 00       		.sleb128 0
 10318 2c68 00       		.byte	0
 10319 2c69 0C       		.uleb128 0xc
 10320 2c6a 94020000 		.4byte	.LVL638
 10321 2c6e 2B330000 		.4byte	0x332b
 10322 2c72 7D2C0000 		.4byte	0x2c7d
 10323 2c76 0D       		.uleb128 0xd
 10324 2c77 01       		.uleb128 0x1
 10325 2c78 50       		.byte	0x50
 10326 2c79 02       		.uleb128 0x2
 10327 2c7a 08       		.byte	0x8
 10328 2c7b 64       		.byte	0x64
 10329 2c7c 00       		.byte	0
 10330 2c7d 0E       		.uleb128 0xe
 10331 2c7e 98020000 		.4byte	.LVL639
 10332 2c82 5D030000 		.4byte	0x35d
 10333 2c86 0E       		.uleb128 0xe
 10334 2c87 9E020000 		.4byte	.LVL641
 10335 2c8b 8D0A0000 		.4byte	0xa8d
ARM GAS  C:\Users\Andres\AppData\Local\Temp\ccSsqcxd.s 			page 205


 10336 2c8f 0C       		.uleb128 0xc
 10337 2c90 BA020000 		.4byte	.LVL643
 10338 2c94 9D160000 		.4byte	0x169d
 10339 2c98 AE2C0000 		.4byte	0x2cae
 10340 2c9c 0D       		.uleb128 0xd
 10341 2c9d 01       		.uleb128 0x1
 10342 2c9e 52       		.byte	0x52
 10343 2c9f 02       		.uleb128 0x2
 10344 2ca0 08       		.byte	0x8
 10345 2ca1 64       		.byte	0x64
 10346 2ca2 0D       		.uleb128 0xd
 10347 2ca3 01       		.uleb128 0x1
 10348 2ca4 51       		.byte	0x51
 10349 2ca5 02       		.uleb128 0x2
 10350 2ca6 74       		.byte	0x74
 10351 2ca7 00       		.sleb128 0
 10352 2ca8 0D       		.uleb128 0xd
 10353 2ca9 01       		.uleb128 0x1
 10354 2caa 50       		.byte	0x50
 10355 2cab 01       		.uleb128 0x1
 10356 2cac 31       		.byte	0x31
 10357 2cad 00       		.byte	0
 10358 2cae 0C       		.uleb128 0xc
 10359 2caf C2020000 		.4byte	.LVL644
 10360 2cb3 6C240000 		.4byte	0x246c
 10361 2cb7 C72C0000 		.4byte	0x2cc7
 10362 2cbb 0D       		.uleb128 0xd
 10363 2cbc 01       		.uleb128 0x1
 10364 2cbd 51       		.byte	0x51
 10365 2cbe 02       		.uleb128 0x2
 10366 2cbf 74       		.byte	0x74
 10367 2cc0 00       		.sleb128 0
 10368 2cc1 0D       		.uleb128 0xd
 10369 2cc2 01       		.uleb128 0x1
 10370 2cc3 50       		.byte	0x50
 10371 2cc4 01       		.uleb128 0x1
 10372 2cc5 31       		.byte	0x31
 10373 2cc6 00       		.byte	0
 10374 2cc7 0C       		.uleb128 0xc
 10375 2cc8 CA020000 		.4byte	.LVL645
 10376 2ccc 6C240000 		.4byte	0x246c
 10377 2cd0 E02C0000 		.4byte	0x2ce0
 10378 2cd4 0D       		.uleb128 0xd
 10379 2cd5 01       		.uleb128 0x1
 10380 2cd6 51       		.byte	0x51
 10381 2cd7 02       		.uleb128 0x2
 10382 2cd8 74       		.byte	0x74
 10383 2cd9 00       		.sleb128 0
 10384 2cda 0D       		.uleb128 0xd
 10385 2cdb 01       		.uleb128 0x1
 10386 2cdc 50       		.byte	0x50
 10387 2cdd 01       		.uleb128 0x1
 10388 2cde 32       		.byte	0x32
 10389 2cdf 00       		.byte	0
 10390 2ce0 0C       		.uleb128 0xc
 10391 2ce1 D2020000 		.4byte	.LVL646
 10392 2ce5 6C240000 		.4byte	0x246c
ARM GAS  C:\Users\Andres\AppData\Local\Temp\ccSsqcxd.s 			page 206


 10393 2ce9 F92C0000 		.4byte	0x2cf9
 10394 2ced 0D       		.uleb128 0xd
 10395 2cee 01       		.uleb128 0x1
 10396 2cef 51       		.byte	0x51
 10397 2cf0 02       		.uleb128 0x2
 10398 2cf1 74       		.byte	0x74
 10399 2cf2 00       		.sleb128 0
 10400 2cf3 0D       		.uleb128 0xd
 10401 2cf4 01       		.uleb128 0x1
 10402 2cf5 50       		.byte	0x50
 10403 2cf6 01       		.uleb128 0x1
 10404 2cf7 33       		.byte	0x33
 10405 2cf8 00       		.byte	0
 10406 2cf9 0C       		.uleb128 0xc
 10407 2cfa DA020000 		.4byte	.LVL647
 10408 2cfe 6C240000 		.4byte	0x246c
 10409 2d02 122D0000 		.4byte	0x2d12
 10410 2d06 0D       		.uleb128 0xd
 10411 2d07 01       		.uleb128 0x1
 10412 2d08 51       		.byte	0x51
 10413 2d09 02       		.uleb128 0x2
 10414 2d0a 74       		.byte	0x74
 10415 2d0b 00       		.sleb128 0
 10416 2d0c 0D       		.uleb128 0xd
 10417 2d0d 01       		.uleb128 0x1
 10418 2d0e 50       		.byte	0x50
 10419 2d0f 01       		.uleb128 0x1
 10420 2d10 34       		.byte	0x34
 10421 2d11 00       		.byte	0
 10422 2d12 0C       		.uleb128 0xc
 10423 2d13 E2020000 		.4byte	.LVL648
 10424 2d17 6C240000 		.4byte	0x246c
 10425 2d1b 2C2D0000 		.4byte	0x2d2c
 10426 2d1f 0D       		.uleb128 0xd
 10427 2d20 01       		.uleb128 0x1
 10428 2d21 51       		.byte	0x51
 10429 2d22 03       		.uleb128 0x3
 10430 2d23 0A       		.byte	0xa
 10431 2d24 A202     		.2byte	0x2a2
 10432 2d26 0D       		.uleb128 0xd
 10433 2d27 01       		.uleb128 0x1
 10434 2d28 50       		.byte	0x50
 10435 2d29 01       		.uleb128 0x1
 10436 2d2a 35       		.byte	0x35
 10437 2d2b 00       		.byte	0
 10438 2d2c 0C       		.uleb128 0xc
 10439 2d2d EA020000 		.4byte	.LVL649
 10440 2d31 2B330000 		.4byte	0x332b
 10441 2d35 412D0000 		.4byte	0x2d41
 10442 2d39 0D       		.uleb128 0xd
 10443 2d3a 01       		.uleb128 0x1
 10444 2d3b 50       		.byte	0x50
 10445 2d3c 03       		.uleb128 0x3
 10446 2d3d 0A       		.byte	0xa
 10447 2d3e D007     		.2byte	0x7d0
 10448 2d40 00       		.byte	0
 10449 2d41 0C       		.uleb128 0xc
ARM GAS  C:\Users\Andres\AppData\Local\Temp\ccSsqcxd.s 			page 207


 10450 2d42 F4020000 		.4byte	.LVL650
 10451 2d46 6C240000 		.4byte	0x246c
 10452 2d4a 5B2D0000 		.4byte	0x2d5b
 10453 2d4e 0D       		.uleb128 0xd
 10454 2d4f 01       		.uleb128 0x1
 10455 2d50 51       		.byte	0x51
 10456 2d51 03       		.uleb128 0x3
 10457 2d52 0A       		.byte	0xa
 10458 2d53 4401     		.2byte	0x144
 10459 2d55 0D       		.uleb128 0xd
 10460 2d56 01       		.uleb128 0x1
 10461 2d57 50       		.byte	0x50
 10462 2d58 01       		.uleb128 0x1
 10463 2d59 32       		.byte	0x32
 10464 2d5a 00       		.byte	0
 10465 2d5b 0C       		.uleb128 0xc
 10466 2d5c FE020000 		.4byte	.LVL651
 10467 2d60 6C240000 		.4byte	0x246c
 10468 2d64 752D0000 		.4byte	0x2d75
 10469 2d68 0D       		.uleb128 0xd
 10470 2d69 01       		.uleb128 0x1
 10471 2d6a 51       		.byte	0x51
 10472 2d6b 03       		.uleb128 0x3
 10473 2d6c 0A       		.byte	0xa
 10474 2d6d A801     		.2byte	0x1a8
 10475 2d6f 0D       		.uleb128 0xd
 10476 2d70 01       		.uleb128 0x1
 10477 2d71 50       		.byte	0x50
 10478 2d72 01       		.uleb128 0x1
 10479 2d73 33       		.byte	0x33
 10480 2d74 00       		.byte	0
 10481 2d75 0C       		.uleb128 0xc
 10482 2d76 06030000 		.4byte	.LVL652
 10483 2d7a 2B330000 		.4byte	0x332b
 10484 2d7e 8A2D0000 		.4byte	0x2d8a
 10485 2d82 0D       		.uleb128 0xd
 10486 2d83 01       		.uleb128 0x1
 10487 2d84 50       		.byte	0x50
 10488 2d85 03       		.uleb128 0x3
 10489 2d86 0A       		.byte	0xa
 10490 2d87 D007     		.2byte	0x7d0
 10491 2d89 00       		.byte	0
 10492 2d8a 0C       		.uleb128 0xc
 10493 2d8b 0E030000 		.4byte	.LVL653
 10494 2d8f 6C240000 		.4byte	0x246c
 10495 2d93 A32D0000 		.4byte	0x2da3
 10496 2d97 0D       		.uleb128 0xd
 10497 2d98 01       		.uleb128 0x1
 10498 2d99 51       		.byte	0x51
 10499 2d9a 02       		.uleb128 0x2
 10500 2d9b 74       		.byte	0x74
 10501 2d9c 00       		.sleb128 0
 10502 2d9d 0D       		.uleb128 0xd
 10503 2d9e 01       		.uleb128 0x1
 10504 2d9f 50       		.byte	0x50
 10505 2da0 01       		.uleb128 0x1
 10506 2da1 35       		.byte	0x35
ARM GAS  C:\Users\Andres\AppData\Local\Temp\ccSsqcxd.s 			page 208


 10507 2da2 00       		.byte	0
 10508 2da3 0C       		.uleb128 0xc
 10509 2da4 1A030000 		.4byte	.LVL654
 10510 2da8 9D160000 		.4byte	0x169d
 10511 2dac C32D0000 		.4byte	0x2dc3
 10512 2db0 0D       		.uleb128 0xd
 10513 2db1 01       		.uleb128 0x1
 10514 2db2 52       		.byte	0x52
 10515 2db3 02       		.uleb128 0x2
 10516 2db4 08       		.byte	0x8
 10517 2db5 64       		.byte	0x64
 10518 2db6 0D       		.uleb128 0xd
 10519 2db7 01       		.uleb128 0x1
 10520 2db8 51       		.byte	0x51
 10521 2db9 03       		.uleb128 0x3
 10522 2dba 0A       		.byte	0xa
 10523 2dbb 5E01     		.2byte	0x15e
 10524 2dbd 0D       		.uleb128 0xd
 10525 2dbe 01       		.uleb128 0x1
 10526 2dbf 50       		.byte	0x50
 10527 2dc0 01       		.uleb128 0x1
 10528 2dc1 31       		.byte	0x31
 10529 2dc2 00       		.byte	0
 10530 2dc3 0C       		.uleb128 0xc
 10531 2dc4 22030000 		.4byte	.LVL655
 10532 2dc8 2B330000 		.4byte	0x332b
 10533 2dcc D82D0000 		.4byte	0x2dd8
 10534 2dd0 0D       		.uleb128 0xd
 10535 2dd1 01       		.uleb128 0x1
 10536 2dd2 50       		.byte	0x50
 10537 2dd3 03       		.uleb128 0x3
 10538 2dd4 0A       		.byte	0xa
 10539 2dd5 D007     		.2byte	0x7d0
 10540 2dd7 00       		.byte	0
 10541 2dd8 0C       		.uleb128 0xc
 10542 2dd9 2A030000 		.4byte	.LVL656
 10543 2ddd 6C240000 		.4byte	0x246c
 10544 2de1 F12D0000 		.4byte	0x2df1
 10545 2de5 0D       		.uleb128 0xd
 10546 2de6 01       		.uleb128 0x1
 10547 2de7 51       		.byte	0x51
 10548 2de8 02       		.uleb128 0x2
 10549 2de9 74       		.byte	0x74
 10550 2dea 00       		.sleb128 0
 10551 2deb 0D       		.uleb128 0xd
 10552 2dec 01       		.uleb128 0x1
 10553 2ded 50       		.byte	0x50
 10554 2dee 01       		.uleb128 0x1
 10555 2def 32       		.byte	0x32
 10556 2df0 00       		.byte	0
 10557 2df1 0C       		.uleb128 0xc
 10558 2df2 32030000 		.4byte	.LVL657
 10559 2df6 6C240000 		.4byte	0x246c
 10560 2dfa 0A2E0000 		.4byte	0x2e0a
 10561 2dfe 0D       		.uleb128 0xd
 10562 2dff 01       		.uleb128 0x1
 10563 2e00 51       		.byte	0x51
ARM GAS  C:\Users\Andres\AppData\Local\Temp\ccSsqcxd.s 			page 209


 10564 2e01 02       		.uleb128 0x2
 10565 2e02 74       		.byte	0x74
 10566 2e03 00       		.sleb128 0
 10567 2e04 0D       		.uleb128 0xd
 10568 2e05 01       		.uleb128 0x1
 10569 2e06 50       		.byte	0x50
 10570 2e07 01       		.uleb128 0x1
 10571 2e08 33       		.byte	0x33
 10572 2e09 00       		.byte	0
 10573 2e0a 0C       		.uleb128 0xc
 10574 2e0b 3A030000 		.4byte	.LVL658
 10575 2e0f 2B330000 		.4byte	0x332b
 10576 2e13 1F2E0000 		.4byte	0x2e1f
 10577 2e17 0D       		.uleb128 0xd
 10578 2e18 01       		.uleb128 0x1
 10579 2e19 50       		.byte	0x50
 10580 2e1a 03       		.uleb128 0x3
 10581 2e1b 0A       		.byte	0xa
 10582 2e1c D007     		.2byte	0x7d0
 10583 2e1e 00       		.byte	0
 10584 2e1f 0C       		.uleb128 0xc
 10585 2e20 44030000 		.4byte	.LVL659
 10586 2e24 9D160000 		.4byte	0x169d
 10587 2e28 3E2E0000 		.4byte	0x2e3e
 10588 2e2c 0D       		.uleb128 0xd
 10589 2e2d 01       		.uleb128 0x1
 10590 2e2e 52       		.byte	0x52
 10591 2e2f 02       		.uleb128 0x2
 10592 2e30 08       		.byte	0x8
 10593 2e31 64       		.byte	0x64
 10594 2e32 0D       		.uleb128 0xd
 10595 2e33 01       		.uleb128 0x1
 10596 2e34 51       		.byte	0x51
 10597 2e35 02       		.uleb128 0x2
 10598 2e36 74       		.byte	0x74
 10599 2e37 00       		.sleb128 0
 10600 2e38 0D       		.uleb128 0xd
 10601 2e39 01       		.uleb128 0x1
 10602 2e3a 50       		.byte	0x50
 10603 2e3b 01       		.uleb128 0x1
 10604 2e3c 31       		.byte	0x31
 10605 2e3d 00       		.byte	0
 10606 2e3e 0C       		.uleb128 0xc
 10607 2e3f 4C030000 		.4byte	.LVL660
 10608 2e43 6C240000 		.4byte	0x246c
 10609 2e47 572E0000 		.4byte	0x2e57
 10610 2e4b 0D       		.uleb128 0xd
 10611 2e4c 01       		.uleb128 0x1
 10612 2e4d 51       		.byte	0x51
 10613 2e4e 02       		.uleb128 0x2
 10614 2e4f 74       		.byte	0x74
 10615 2e50 00       		.sleb128 0
 10616 2e51 0D       		.uleb128 0xd
 10617 2e52 01       		.uleb128 0x1
 10618 2e53 50       		.byte	0x50
 10619 2e54 01       		.uleb128 0x1
 10620 2e55 31       		.byte	0x31
ARM GAS  C:\Users\Andres\AppData\Local\Temp\ccSsqcxd.s 			page 210


 10621 2e56 00       		.byte	0
 10622 2e57 0C       		.uleb128 0xc
 10623 2e58 54030000 		.4byte	.LVL661
 10624 2e5c 6C240000 		.4byte	0x246c
 10625 2e60 702E0000 		.4byte	0x2e70
 10626 2e64 0D       		.uleb128 0xd
 10627 2e65 01       		.uleb128 0x1
 10628 2e66 51       		.byte	0x51
 10629 2e67 02       		.uleb128 0x2
 10630 2e68 74       		.byte	0x74
 10631 2e69 00       		.sleb128 0
 10632 2e6a 0D       		.uleb128 0xd
 10633 2e6b 01       		.uleb128 0x1
 10634 2e6c 50       		.byte	0x50
 10635 2e6d 01       		.uleb128 0x1
 10636 2e6e 32       		.byte	0x32
 10637 2e6f 00       		.byte	0
 10638 2e70 0C       		.uleb128 0xc
 10639 2e71 5C030000 		.4byte	.LVL662
 10640 2e75 6C240000 		.4byte	0x246c
 10641 2e79 892E0000 		.4byte	0x2e89
 10642 2e7d 0D       		.uleb128 0xd
 10643 2e7e 01       		.uleb128 0x1
 10644 2e7f 51       		.byte	0x51
 10645 2e80 02       		.uleb128 0x2
 10646 2e81 74       		.byte	0x74
 10647 2e82 00       		.sleb128 0
 10648 2e83 0D       		.uleb128 0xd
 10649 2e84 01       		.uleb128 0x1
 10650 2e85 50       		.byte	0x50
 10651 2e86 01       		.uleb128 0x1
 10652 2e87 33       		.byte	0x33
 10653 2e88 00       		.byte	0
 10654 2e89 0C       		.uleb128 0xc
 10655 2e8a 64030000 		.4byte	.LVL663
 10656 2e8e 6C240000 		.4byte	0x246c
 10657 2e92 A22E0000 		.4byte	0x2ea2
 10658 2e96 0D       		.uleb128 0xd
 10659 2e97 01       		.uleb128 0x1
 10660 2e98 51       		.byte	0x51
 10661 2e99 02       		.uleb128 0x2
 10662 2e9a 74       		.byte	0x74
 10663 2e9b 00       		.sleb128 0
 10664 2e9c 0D       		.uleb128 0xd
 10665 2e9d 01       		.uleb128 0x1
 10666 2e9e 50       		.byte	0x50
 10667 2e9f 01       		.uleb128 0x1
 10668 2ea0 34       		.byte	0x34
 10669 2ea1 00       		.byte	0
 10670 2ea2 0C       		.uleb128 0xc
 10671 2ea3 6C030000 		.4byte	.LVL664
 10672 2ea7 6C240000 		.4byte	0x246c
 10673 2eab BC2E0000 		.4byte	0x2ebc
 10674 2eaf 0D       		.uleb128 0xd
 10675 2eb0 01       		.uleb128 0x1
 10676 2eb1 51       		.byte	0x51
 10677 2eb2 03       		.uleb128 0x3
ARM GAS  C:\Users\Andres\AppData\Local\Temp\ccSsqcxd.s 			page 211


 10678 2eb3 0A       		.byte	0xa
 10679 2eb4 A202     		.2byte	0x2a2
 10680 2eb6 0D       		.uleb128 0xd
 10681 2eb7 01       		.uleb128 0x1
 10682 2eb8 50       		.byte	0x50
 10683 2eb9 01       		.uleb128 0x1
 10684 2eba 35       		.byte	0x35
 10685 2ebb 00       		.byte	0
 10686 2ebc 0C       		.uleb128 0xc
 10687 2ebd 74030000 		.4byte	.LVL665
 10688 2ec1 2B330000 		.4byte	0x332b
 10689 2ec5 D12E0000 		.4byte	0x2ed1
 10690 2ec9 0D       		.uleb128 0xd
 10691 2eca 01       		.uleb128 0x1
 10692 2ecb 50       		.byte	0x50
 10693 2ecc 03       		.uleb128 0x3
 10694 2ecd 0A       		.byte	0xa
 10695 2ece D007     		.2byte	0x7d0
 10696 2ed0 00       		.byte	0
 10697 2ed1 0C       		.uleb128 0xc
 10698 2ed2 7E030000 		.4byte	.LVL666
 10699 2ed6 6C240000 		.4byte	0x246c
 10700 2eda EB2E0000 		.4byte	0x2eeb
 10701 2ede 0D       		.uleb128 0xd
 10702 2edf 01       		.uleb128 0x1
 10703 2ee0 51       		.byte	0x51
 10704 2ee1 03       		.uleb128 0x3
 10705 2ee2 0A       		.byte	0xa
 10706 2ee3 4401     		.2byte	0x144
 10707 2ee5 0D       		.uleb128 0xd
 10708 2ee6 01       		.uleb128 0x1
 10709 2ee7 50       		.byte	0x50
 10710 2ee8 01       		.uleb128 0x1
 10711 2ee9 32       		.byte	0x32
 10712 2eea 00       		.byte	0
 10713 2eeb 0C       		.uleb128 0xc
 10714 2eec 88030000 		.4byte	.LVL667
 10715 2ef0 6C240000 		.4byte	0x246c
 10716 2ef4 052F0000 		.4byte	0x2f05
 10717 2ef8 0D       		.uleb128 0xd
 10718 2ef9 01       		.uleb128 0x1
 10719 2efa 51       		.byte	0x51
 10720 2efb 03       		.uleb128 0x3
 10721 2efc 0A       		.byte	0xa
 10722 2efd A801     		.2byte	0x1a8
 10723 2eff 0D       		.uleb128 0xd
 10724 2f00 01       		.uleb128 0x1
 10725 2f01 50       		.byte	0x50
 10726 2f02 01       		.uleb128 0x1
 10727 2f03 33       		.byte	0x33
 10728 2f04 00       		.byte	0
 10729 2f05 0C       		.uleb128 0xc
 10730 2f06 90030000 		.4byte	.LVL668
 10731 2f0a 2B330000 		.4byte	0x332b
 10732 2f0e 1A2F0000 		.4byte	0x2f1a
 10733 2f12 0D       		.uleb128 0xd
 10734 2f13 01       		.uleb128 0x1
ARM GAS  C:\Users\Andres\AppData\Local\Temp\ccSsqcxd.s 			page 212


 10735 2f14 50       		.byte	0x50
 10736 2f15 03       		.uleb128 0x3
 10737 2f16 0A       		.byte	0xa
 10738 2f17 D007     		.2byte	0x7d0
 10739 2f19 00       		.byte	0
 10740 2f1a 0C       		.uleb128 0xc
 10741 2f1b 98030000 		.4byte	.LVL669
 10742 2f1f 6C240000 		.4byte	0x246c
 10743 2f23 332F0000 		.4byte	0x2f33
 10744 2f27 0D       		.uleb128 0xd
 10745 2f28 01       		.uleb128 0x1
 10746 2f29 51       		.byte	0x51
 10747 2f2a 02       		.uleb128 0x2
 10748 2f2b 74       		.byte	0x74
 10749 2f2c 00       		.sleb128 0
 10750 2f2d 0D       		.uleb128 0xd
 10751 2f2e 01       		.uleb128 0x1
 10752 2f2f 50       		.byte	0x50
 10753 2f30 01       		.uleb128 0x1
 10754 2f31 35       		.byte	0x35
 10755 2f32 00       		.byte	0
 10756 2f33 0C       		.uleb128 0xc
 10757 2f34 A4030000 		.4byte	.LVL670
 10758 2f38 9D160000 		.4byte	0x169d
 10759 2f3c 532F0000 		.4byte	0x2f53
 10760 2f40 0D       		.uleb128 0xd
 10761 2f41 01       		.uleb128 0x1
 10762 2f42 52       		.byte	0x52
 10763 2f43 02       		.uleb128 0x2
 10764 2f44 08       		.byte	0x8
 10765 2f45 64       		.byte	0x64
 10766 2f46 0D       		.uleb128 0xd
 10767 2f47 01       		.uleb128 0x1
 10768 2f48 51       		.byte	0x51
 10769 2f49 03       		.uleb128 0x3
 10770 2f4a 0A       		.byte	0xa
 10771 2f4b 5E01     		.2byte	0x15e
 10772 2f4d 0D       		.uleb128 0xd
 10773 2f4e 01       		.uleb128 0x1
 10774 2f4f 50       		.byte	0x50
 10775 2f50 01       		.uleb128 0x1
 10776 2f51 31       		.byte	0x31
 10777 2f52 00       		.byte	0
 10778 2f53 0C       		.uleb128 0xc
 10779 2f54 AC030000 		.4byte	.LVL671
 10780 2f58 2B330000 		.4byte	0x332b
 10781 2f5c 682F0000 		.4byte	0x2f68
 10782 2f60 0D       		.uleb128 0xd
 10783 2f61 01       		.uleb128 0x1
 10784 2f62 50       		.byte	0x50
 10785 2f63 03       		.uleb128 0x3
 10786 2f64 0A       		.byte	0xa
 10787 2f65 D007     		.2byte	0x7d0
 10788 2f67 00       		.byte	0
 10789 2f68 0C       		.uleb128 0xc
 10790 2f69 B4030000 		.4byte	.LVL672
 10791 2f6d 6C240000 		.4byte	0x246c
ARM GAS  C:\Users\Andres\AppData\Local\Temp\ccSsqcxd.s 			page 213


 10792 2f71 812F0000 		.4byte	0x2f81
 10793 2f75 0D       		.uleb128 0xd
 10794 2f76 01       		.uleb128 0x1
 10795 2f77 51       		.byte	0x51
 10796 2f78 02       		.uleb128 0x2
 10797 2f79 74       		.byte	0x74
 10798 2f7a 00       		.sleb128 0
 10799 2f7b 0D       		.uleb128 0xd
 10800 2f7c 01       		.uleb128 0x1
 10801 2f7d 50       		.byte	0x50
 10802 2f7e 01       		.uleb128 0x1
 10803 2f7f 32       		.byte	0x32
 10804 2f80 00       		.byte	0
 10805 2f81 0C       		.uleb128 0xc
 10806 2f82 BC030000 		.4byte	.LVL673
 10807 2f86 6C240000 		.4byte	0x246c
 10808 2f8a 9A2F0000 		.4byte	0x2f9a
 10809 2f8e 0D       		.uleb128 0xd
 10810 2f8f 01       		.uleb128 0x1
 10811 2f90 51       		.byte	0x51
 10812 2f91 02       		.uleb128 0x2
 10813 2f92 74       		.byte	0x74
 10814 2f93 00       		.sleb128 0
 10815 2f94 0D       		.uleb128 0xd
 10816 2f95 01       		.uleb128 0x1
 10817 2f96 50       		.byte	0x50
 10818 2f97 01       		.uleb128 0x1
 10819 2f98 33       		.byte	0x33
 10820 2f99 00       		.byte	0
 10821 2f9a 0C       		.uleb128 0xc
 10822 2f9b C4030000 		.4byte	.LVL674
 10823 2f9f 2B330000 		.4byte	0x332b
 10824 2fa3 AF2F0000 		.4byte	0x2faf
 10825 2fa7 0D       		.uleb128 0xd
 10826 2fa8 01       		.uleb128 0x1
 10827 2fa9 50       		.byte	0x50
 10828 2faa 03       		.uleb128 0x3
 10829 2fab 0A       		.byte	0xa
 10830 2fac D007     		.2byte	0x7d0
 10831 2fae 00       		.byte	0
 10832 2faf 0C       		.uleb128 0xc
 10833 2fb0 CE030000 		.4byte	.LVL676
 10834 2fb4 1A330000 		.4byte	0x331a
 10835 2fb8 C22F0000 		.4byte	0x2fc2
 10836 2fbc 0D       		.uleb128 0xd
 10837 2fbd 01       		.uleb128 0x1
 10838 2fbe 50       		.byte	0x50
 10839 2fbf 01       		.uleb128 0x1
 10840 2fc0 31       		.byte	0x31
 10841 2fc1 00       		.byte	0
 10842 2fc2 0C       		.uleb128 0xc
 10843 2fc3 DA030000 		.4byte	.LVL677
 10844 2fc7 C9200000 		.4byte	0x20c9
 10845 2fcb DA2F0000 		.4byte	0x2fda
 10846 2fcf 0D       		.uleb128 0xd
 10847 2fd0 01       		.uleb128 0x1
 10848 2fd1 52       		.byte	0x52
ARM GAS  C:\Users\Andres\AppData\Local\Temp\ccSsqcxd.s 			page 214


 10849 2fd2 01       		.uleb128 0x1
 10850 2fd3 3E       		.byte	0x3e
 10851 2fd4 0D       		.uleb128 0xd
 10852 2fd5 01       		.uleb128 0x1
 10853 2fd6 50       		.byte	0x50
 10854 2fd7 01       		.uleb128 0x1
 10855 2fd8 30       		.byte	0x30
 10856 2fd9 00       		.byte	0
 10857 2fda 0C       		.uleb128 0xc
 10858 2fdb E0030000 		.4byte	.LVL678
 10859 2fdf 2B330000 		.4byte	0x332b
 10860 2fe3 EE2F0000 		.4byte	0x2fee
 10861 2fe7 0D       		.uleb128 0xd
 10862 2fe8 01       		.uleb128 0x1
 10863 2fe9 50       		.byte	0x50
 10864 2fea 02       		.uleb128 0x2
 10865 2feb 08       		.byte	0x8
 10866 2fec 64       		.byte	0x64
 10867 2fed 00       		.byte	0
 10868 2fee 0C       		.uleb128 0xc
 10869 2fef E6030000 		.4byte	.LVL679
 10870 2ff3 1A330000 		.4byte	0x331a
 10871 2ff7 01300000 		.4byte	0x3001
 10872 2ffb 0D       		.uleb128 0xd
 10873 2ffc 01       		.uleb128 0x1
 10874 2ffd 50       		.byte	0x50
 10875 2ffe 01       		.uleb128 0x1
 10876 2fff 30       		.byte	0x30
 10877 3000 00       		.byte	0
 10878 3001 0C       		.uleb128 0xc
 10879 3002 F0030000 		.4byte	.LVL680
 10880 3006 C9200000 		.4byte	0x20c9
 10881 300a 19300000 		.4byte	0x3019
 10882 300e 0D       		.uleb128 0xd
 10883 300f 01       		.uleb128 0x1
 10884 3010 52       		.byte	0x52
 10885 3011 01       		.uleb128 0x1
 10886 3012 3E       		.byte	0x3e
 10887 3013 0D       		.uleb128 0xd
 10888 3014 01       		.uleb128 0x1
 10889 3015 50       		.byte	0x50
 10890 3016 01       		.uleb128 0x1
 10891 3017 31       		.byte	0x31
 10892 3018 00       		.byte	0
 10893 3019 0C       		.uleb128 0xc
 10894 301a F6030000 		.4byte	.LVL681
 10895 301e 2B330000 		.4byte	0x332b
 10896 3022 2D300000 		.4byte	0x302d
 10897 3026 0D       		.uleb128 0xd
 10898 3027 01       		.uleb128 0x1
 10899 3028 50       		.byte	0x50
 10900 3029 02       		.uleb128 0x2
 10901 302a 08       		.byte	0x8
 10902 302b 64       		.byte	0x64
 10903 302c 00       		.byte	0
 10904 302d 0C       		.uleb128 0xc
 10905 302e 22040000 		.4byte	.LVL682
ARM GAS  C:\Users\Andres\AppData\Local\Temp\ccSsqcxd.s 			page 215


 10906 3032 2B330000 		.4byte	0x332b
 10907 3036 41300000 		.4byte	0x3041
 10908 303a 0D       		.uleb128 0xd
 10909 303b 01       		.uleb128 0x1
 10910 303c 50       		.byte	0x50
 10911 303d 02       		.uleb128 0x2
 10912 303e 74       		.byte	0x74
 10913 303f 00       		.sleb128 0
 10914 3040 00       		.byte	0
 10915 3041 12       		.uleb128 0x12
 10916 3042 28040000 		.4byte	.LVL683
 10917 3046 2B330000 		.4byte	0x332b
 10918 304a 0D       		.uleb128 0xd
 10919 304b 01       		.uleb128 0x1
 10920 304c 50       		.byte	0x50
 10921 304d 02       		.uleb128 0x2
 10922 304e 74       		.byte	0x74
 10923 304f 00       		.sleb128 0
 10924 3050 00       		.byte	0
 10925 3051 00       		.byte	0
 10926 3052 25       		.uleb128 0x25
 10927 3053 6900     		.ascii	"i\000"
 10928 3055 01       		.byte	0x1
 10929 3056 04       		.byte	0x4
 10930 3057 5D000000 		.4byte	0x5d
 10931 305b 05       		.uleb128 0x5
 10932 305c 03       		.byte	0x3
 10933 305d 00000000 		.4byte	i
 10934 3061 25       		.uleb128 0x25
 10935 3062 696900   		.ascii	"ii\000"
 10936 3065 02       		.byte	0x2
 10937 3066 04       		.byte	0x4
 10938 3067 5D000000 		.4byte	0x5d
 10939 306b 05       		.uleb128 0x5
 10940 306c 03       		.byte	0x3
 10941 306d 00000000 		.4byte	ii
 10942 3071 25       		.uleb128 0x25
 10943 3072 69696900 		.ascii	"iii\000"
 10944 3076 03       		.byte	0x3
 10945 3077 04       		.byte	0x4
 10946 3078 5D000000 		.4byte	0x5d
 10947 307c 05       		.uleb128 0x5
 10948 307d 03       		.byte	0x3
 10949 307e 00000000 		.4byte	iii
 10950 3082 26       		.uleb128 0x26
 10951 3083 71030000 		.4byte	.LASF86
 10952 3087 04       		.byte	0x4
 10953 3088 05       		.byte	0x5
 10954 3089 2C000000 		.4byte	0x2c
 10955 308d 05       		.uleb128 0x5
 10956 308e 03       		.byte	0x3
 10957 308f 00000000 		.4byte	Checksum
 10958 3093 26       		.uleb128 0x26
 10959 3094 64000000 		.4byte	.LASF87
 10960 3098 04       		.byte	0x4
 10961 3099 06       		.byte	0x6
 10962 309a 2C000000 		.4byte	0x2c
ARM GAS  C:\Users\Andres\AppData\Local\Temp\ccSsqcxd.s 			page 216


 10963 309e 05       		.uleb128 0x5
 10964 309f 03       		.byte	0x3
 10965 30a0 00000000 		.4byte	Incoming_Byte
 10966 30a4 26       		.uleb128 0x26
 10967 30a5 2E010000 		.4byte	.LASF88
 10968 30a9 04       		.byte	0x4
 10969 30aa 06       		.byte	0x6
 10970 30ab 2C000000 		.4byte	0x2c
 10971 30af 05       		.uleb128 0x5
 10972 30b0 03       		.byte	0x3
 10973 30b1 00000000 		.4byte	Temperature_Byte
 10974 30b5 26       		.uleb128 0x26
 10975 30b6 51000000 		.4byte	.LASF89
 10976 30ba 05       		.byte	0x5
 10977 30bb 12       		.byte	0x12
 10978 30bc 2C000000 		.4byte	0x2c
 10979 30c0 05       		.uleb128 0x5
 10980 30c1 03       		.byte	0x3
 10981 30c2 00000000 		.4byte	Error_Byte
 10982 30c6 26       		.uleb128 0x26
 10983 30c7 78010000 		.4byte	.LASF90
 10984 30cb 05       		.byte	0x5
 10985 30cc 12       		.byte	0x12
 10986 30cd 2C000000 		.4byte	0x2c
 10987 30d1 05       		.uleb128 0x5
 10988 30d2 03       		.byte	0x3
 10989 30d3 00000000 		.4byte	Incoming_Byte2
 10990 30d7 26       		.uleb128 0x26
 10991 30d8 A6060000 		.4byte	.LASF91
 10992 30dc 04       		.byte	0x4
 10993 30dd 06       		.byte	0x6
 10994 30de 2C000000 		.4byte	0x2c
 10995 30e2 05       		.uleb128 0x5
 10996 30e3 03       		.byte	0x3
 10997 30e4 00000000 		.4byte	Position_Long_Byte
 10998 30e8 26       		.uleb128 0x26
 10999 30e9 40020000 		.4byte	.LASF92
 11000 30ed 04       		.byte	0x4
 11001 30ee 06       		.byte	0x6
 11002 30ef 2C000000 		.4byte	0x2c
 11003 30f3 05       		.uleb128 0x5
 11004 30f4 03       		.byte	0x3
 11005 30f5 00000000 		.4byte	Position_High_Byte
 11006 30f9 26       		.uleb128 0x26
 11007 30fa C3030000 		.4byte	.LASF93
 11008 30fe 04       		.byte	0x4
 11009 30ff 06       		.byte	0x6
 11010 3100 2C000000 		.4byte	0x2c
 11011 3104 05       		.uleb128 0x5
 11012 3105 03       		.byte	0x3
 11013 3106 00000000 		.4byte	Position_Low_Byte
 11014 310a 26       		.uleb128 0x26
 11015 310b 40050000 		.4byte	.LASF94
 11016 310f 04       		.byte	0x4
 11017 3110 07       		.byte	0x7
 11018 3111 5D000000 		.4byte	0x5d
 11019 3115 05       		.uleb128 0x5
ARM GAS  C:\Users\Andres\AppData\Local\Temp\ccSsqcxd.s 			page 217


 11020 3116 03       		.byte	0x3
 11021 3117 00000000 		.4byte	Time_Counter
 11022 311b 25       		.uleb128 0x25
 11023 311c 616E7400 		.ascii	"ant\000"
 11024 3120 05       		.byte	0x5
 11025 3121 09       		.byte	0x9
 11026 3122 5D000000 		.4byte	0x5d
 11027 3126 05       		.uleb128 0x5
 11028 3127 03       		.byte	0x3
 11029 3128 00000000 		.4byte	ant
 11030 312c 25       		.uleb128 0x25
 11031 312d 7400     		.ascii	"t\000"
 11032 312f 05       		.byte	0x5
 11033 3130 09       		.byte	0x9
 11034 3131 5D000000 		.4byte	0x5d
 11035 3135 05       		.uleb128 0x5
 11036 3136 03       		.byte	0x3
 11037 3137 00000000 		.4byte	t
 11038 313b 25       		.uleb128 0x25
 11039 313c 506400   		.ascii	"Pd\000"
 11040 313f 05       		.byte	0x5
 11041 3140 09       		.byte	0x9
 11042 3141 5D000000 		.4byte	0x5d
 11043 3145 05       		.uleb128 0x5
 11044 3146 03       		.byte	0x3
 11045 3147 00000000 		.4byte	Pd
 11046 314b 25       		.uleb128 0x25
 11047 314c 507400   		.ascii	"Pt\000"
 11048 314f 05       		.byte	0x5
 11049 3150 09       		.byte	0x9
 11050 3151 5D000000 		.4byte	0x5d
 11051 3155 05       		.uleb128 0x5
 11052 3156 03       		.byte	0x3
 11053 3157 00000000 		.4byte	Pt
 11054 315b 26       		.uleb128 0x26
 11055 315c 3E040000 		.4byte	.LASF95
 11056 3160 05       		.byte	0x5
 11057 3161 09       		.byte	0x9
 11058 3162 5D000000 		.4byte	0x5d
 11059 3166 05       		.uleb128 0x5
 11060 3167 03       		.byte	0x3
 11061 3168 00000000 		.4byte	cstatus
 11062 316c 25       		.uleb128 0x25
 11063 316d 4D00     		.ascii	"M\000"
 11064 316f 05       		.byte	0x5
 11065 3170 09       		.byte	0x9
 11066 3171 5D000000 		.4byte	0x5d
 11067 3175 05       		.uleb128 0x5
 11068 3176 03       		.byte	0x3
 11069 3177 00000000 		.4byte	M
 11070 317b 25       		.uleb128 0x25
 11071 317c 50746100 		.ascii	"Pta\000"
 11072 3180 05       		.byte	0x5
 11073 3181 09       		.byte	0x9
 11074 3182 5D000000 		.4byte	0x5d
 11075 3186 05       		.uleb128 0x5
 11076 3187 03       		.byte	0x3
ARM GAS  C:\Users\Andres\AppData\Local\Temp\ccSsqcxd.s 			page 218


 11077 3188 00000000 		.4byte	Pta
 11078 318c 26       		.uleb128 0x26
 11079 318d 00040000 		.4byte	.LASF96
 11080 3191 05       		.byte	0x5
 11081 3192 09       		.byte	0x9
 11082 3193 5D000000 		.4byte	0x5d
 11083 3197 05       		.uleb128 0x5
 11084 3198 03       		.byte	0x3
 11085 3199 00000000 		.4byte	errc
 11086 319d 26       		.uleb128 0x26
 11087 319e F9020000 		.4byte	.LASF97
 11088 31a2 05       		.byte	0x5
 11089 31a3 09       		.byte	0x9
 11090 31a4 5D000000 		.4byte	0x5d
 11091 31a8 05       		.uleb128 0x5
 11092 31a9 03       		.byte	0x3
 11093 31aa 00000000 		.4byte	PositionM
 11094 31ae 25       		.uleb128 0x25
 11095 31af 706F7300 		.ascii	"pos\000"
 11096 31b3 05       		.byte	0x5
 11097 31b4 09       		.byte	0x9
 11098 31b5 5D000000 		.4byte	0x5d
 11099 31b9 05       		.uleb128 0x5
 11100 31ba 03       		.byte	0x3
 11101 31bb 00000000 		.4byte	pos
 11102 31bf 25       		.uleb128 0x25
 11103 31c0 64697200 		.ascii	"dir\000"
 11104 31c4 05       		.byte	0x5
 11105 31c5 0A       		.byte	0xa
 11106 31c6 2C000000 		.4byte	0x2c
 11107 31ca 05       		.uleb128 0x5
 11108 31cb 03       		.byte	0x3
 11109 31cc 00000000 		.4byte	dir
 11110 31d0 25       		.uleb128 0x25
 11111 31d1 50646100 		.ascii	"Pda\000"
 11112 31d5 05       		.byte	0x5
 11113 31d6 0B       		.byte	0xb
 11114 31d7 64000000 		.4byte	0x64
 11115 31db 05       		.uleb128 0x5
 11116 31dc 03       		.byte	0x3
 11117 31dd 00000000 		.4byte	Pda
 11118 31e1 26       		.uleb128 0x26
 11119 31e2 D5030000 		.4byte	.LASF98
 11120 31e6 05       		.byte	0x5
 11121 31e7 0C       		.byte	0xc
 11122 31e8 6B000000 		.4byte	0x6b
 11123 31ec 05       		.uleb128 0x5
 11124 31ed 03       		.byte	0x3
 11125 31ee 00000000 		.4byte	Mydir
 11126 31f2 26       		.uleb128 0x26
 11127 31f3 36040000 		.4byte	.LASF99
 11128 31f7 05       		.byte	0x5
 11129 31f8 0D       		.byte	0xd
 11130 31f9 6B000000 		.4byte	0x6b
 11131 31fd 05       		.uleb128 0x5
 11132 31fe 03       		.byte	0x3
 11133 31ff 00000000 		.4byte	dirasig
ARM GAS  C:\Users\Andres\AppData\Local\Temp\ccSsqcxd.s 			page 219


 11134 3203 26       		.uleb128 0x26
 11135 3204 5C000000 		.4byte	.LASF100
 11136 3208 05       		.byte	0x5
 11137 3209 0E       		.byte	0xe
 11138 320a 6B000000 		.4byte	0x6b
 11139 320e 05       		.uleb128 0x5
 11140 320f 03       		.byte	0x3
 11141 3210 00000000 		.4byte	sumadir
 11142 3214 26       		.uleb128 0x26
 11143 3215 D8050000 		.4byte	.LASF101
 11144 3219 05       		.byte	0x5
 11145 321a 0F       		.byte	0xf
 11146 321b BE000000 		.4byte	0xbe
 11147 321f 05       		.uleb128 0x5
 11148 3220 03       		.byte	0x3
 11149 3221 00000000 		.4byte	dato_enviado
 11150 3225 26       		.uleb128 0x26
 11151 3226 9F030000 		.4byte	.LASF102
 11152 322a 05       		.byte	0x5
 11153 322b 10       		.byte	0x10
 11154 322c BE000000 		.4byte	0xbe
 11155 3230 05       		.uleb128 0x5
 11156 3231 03       		.byte	0x3
 11157 3232 00000000 		.4byte	mailbox0
 11158 3236 25       		.uleb128 0x25
 11159 3237 73726600 		.ascii	"srf\000"
 11160 323b 05       		.byte	0x5
 11161 323c 11       		.byte	0x11
 11162 323d 8F000000 		.4byte	0x8f
 11163 3241 05       		.uleb128 0x5
 11164 3242 03       		.byte	0x3
 11165 3243 00000000 		.4byte	srf
 11166 3247 25       		.uleb128 0x25
 11167 3248 74656D00 		.ascii	"tem\000"
 11168 324c 05       		.byte	0x5
 11169 324d 12       		.byte	0x12
 11170 324e 2C000000 		.4byte	0x2c
 11171 3252 05       		.uleb128 0x5
 11172 3253 03       		.byte	0x3
 11173 3254 00000000 		.4byte	tem
 11174 3258 25       		.uleb128 0x25
 11175 3259 74657300 		.ascii	"tes\000"
 11176 325d 05       		.byte	0x5
 11177 325e 12       		.byte	0x12
 11178 325f 2C000000 		.4byte	0x2c
 11179 3263 05       		.uleb128 0x5
 11180 3264 03       		.byte	0x3
 11181 3265 00000000 		.4byte	tes
 11182 3269 26       		.uleb128 0x26
 11183 326a A2000000 		.4byte	.LASF103
 11184 326e 05       		.byte	0x5
 11185 326f 12       		.byte	0x12
 11186 3270 2C000000 		.4byte	0x2c
 11187 3274 05       		.uleb128 0x5
 11188 3275 03       		.byte	0x3
 11189 3276 00000000 		.4byte	error
 11190 327a 25       		.uleb128 0x25
ARM GAS  C:\Users\Andres\AppData\Local\Temp\ccSsqcxd.s 			page 220


 11191 327b 616D6200 		.ascii	"amb\000"
 11192 327f 05       		.byte	0x5
 11193 3280 13       		.byte	0x13
 11194 3281 5D000000 		.4byte	0x5d
 11195 3285 05       		.uleb128 0x5
 11196 3286 03       		.byte	0x3
 11197 3287 00000000 		.4byte	amb
 11198 328b 26       		.uleb128 0x26
 11199 328c 1F010000 		.4byte	.LASF104
 11200 3290 05       		.byte	0x5
 11201 3291 13       		.byte	0x13
 11202 3292 5D000000 		.4byte	0x5d
 11203 3296 05       		.uleb128 0x5
 11204 3297 03       		.byte	0x3
 11205 3298 00000000 		.4byte	posicion
 11206 329c 26       		.uleb128 0x26
 11207 329d 44030000 		.4byte	.LASF105
 11208 32a1 05       		.byte	0x5
 11209 32a2 13       		.byte	0x13
 11210 32a3 5D000000 		.4byte	0x5d
 11211 32a7 05       		.uleb128 0x5
 11212 32a8 03       		.byte	0x3
 11213 32a9 00000000 		.4byte	posicionh
 11214 32ad 26       		.uleb128 0x26
 11215 32ae 95030000 		.4byte	.LASF106
 11216 32b2 05       		.byte	0x5
 11217 32b3 13       		.byte	0x13
 11218 32b4 5D000000 		.4byte	0x5d
 11219 32b8 05       		.uleb128 0x5
 11220 32b9 03       		.byte	0x3
 11221 32ba 00000000 		.4byte	posicionl
 11222 32be 27       		.uleb128 0x27
 11223 32bf 17060000 		.4byte	.LASF107
 11224 32c3 08       		.byte	0x8
 11225 32c4 1301     		.2byte	0x113
 11226 32c6 83000000 		.4byte	0x83
 11227 32ca E3320000 		.4byte	0x32e3
 11228 32ce 28       		.uleb128 0x28
 11229 32cf 83000000 		.4byte	0x83
 11230 32d3 28       		.uleb128 0x28
 11231 32d4 E3320000 		.4byte	0x32e3
 11232 32d8 28       		.uleb128 0x28
 11233 32d9 83000000 		.4byte	0x83
 11234 32dd 28       		.uleb128 0x28
 11235 32de 83000000 		.4byte	0x83
 11236 32e2 00       		.byte	0
 11237 32e3 05       		.uleb128 0x5
 11238 32e4 04       		.byte	0x4
 11239 32e5 6B000000 		.4byte	0x6b
 11240 32e9 29       		.uleb128 0x29
 11241 32ea E7030000 		.4byte	.LASF112
 11242 32ee 08       		.byte	0x8
 11243 32ef 0F01     		.2byte	0x10f
 11244 32f1 83000000 		.4byte	0x83
 11245 32f5 27       		.uleb128 0x27
 11246 32f6 74020000 		.4byte	.LASF108
 11247 32fa 08       		.byte	0x8
ARM GAS  C:\Users\Andres\AppData\Local\Temp\ccSsqcxd.s 			page 221


 11248 32fb 1401     		.2byte	0x114
 11249 32fd 83000000 		.4byte	0x83
 11250 3301 1A330000 		.4byte	0x331a
 11251 3305 28       		.uleb128 0x28
 11252 3306 83000000 		.4byte	0x83
 11253 330a 28       		.uleb128 0x28
 11254 330b E3320000 		.4byte	0x32e3
 11255 330f 28       		.uleb128 0x28
 11256 3310 83000000 		.4byte	0x83
 11257 3314 28       		.uleb128 0x28
 11258 3315 83000000 		.4byte	0x83
 11259 3319 00       		.byte	0
 11260 331a 2A       		.uleb128 0x2a
 11261 331b 8F040000 		.4byte	.LASF109
 11262 331f 09       		.byte	0x9
 11263 3320 33       		.byte	0x33
 11264 3321 2B330000 		.4byte	0x332b
 11265 3325 28       		.uleb128 0x28
 11266 3326 6B000000 		.4byte	0x6b
 11267 332a 00       		.byte	0
 11268 332b 2A       		.uleb128 0x2a
 11269 332c 1A000000 		.4byte	.LASF110
 11270 3330 0A       		.byte	0xa
 11271 3331 D7       		.byte	0xd7
 11272 3332 3C330000 		.4byte	0x333c
 11273 3336 28       		.uleb128 0x28
 11274 3337 83000000 		.4byte	0x83
 11275 333b 00       		.byte	0
 11276 333c 27       		.uleb128 0x27
 11277 333d E3010000 		.4byte	.LASF111
 11278 3341 0B       		.byte	0xb
 11279 3342 1301     		.2byte	0x113
 11280 3344 83000000 		.4byte	0x83
 11281 3348 61330000 		.4byte	0x3361
 11282 334c 28       		.uleb128 0x28
 11283 334d 83000000 		.4byte	0x83
 11284 3351 28       		.uleb128 0x28
 11285 3352 E3320000 		.4byte	0x32e3
 11286 3356 28       		.uleb128 0x28
 11287 3357 83000000 		.4byte	0x83
 11288 335b 28       		.uleb128 0x28
 11289 335c 83000000 		.4byte	0x83
 11290 3360 00       		.byte	0
 11291 3361 29       		.uleb128 0x29
 11292 3362 4E030000 		.4byte	.LASF113
 11293 3366 0B       		.byte	0xb
 11294 3367 0F01     		.2byte	0x10f
 11295 3369 83000000 		.4byte	0x83
 11296 336d 27       		.uleb128 0x27
 11297 336e AD000000 		.4byte	.LASF114
 11298 3372 0B       		.byte	0xb
 11299 3373 1401     		.2byte	0x114
 11300 3375 83000000 		.4byte	0x83
 11301 3379 92330000 		.4byte	0x3392
 11302 337d 28       		.uleb128 0x28
 11303 337e 83000000 		.4byte	0x83
 11304 3382 28       		.uleb128 0x28
ARM GAS  C:\Users\Andres\AppData\Local\Temp\ccSsqcxd.s 			page 222


 11305 3383 E3320000 		.4byte	0x32e3
 11306 3387 28       		.uleb128 0x28
 11307 3388 83000000 		.4byte	0x83
 11308 338c 28       		.uleb128 0x28
 11309 338d 83000000 		.4byte	0x83
 11310 3391 00       		.byte	0
 11311 3392 2A       		.uleb128 0x2a
 11312 3393 04020000 		.4byte	.LASF115
 11313 3397 0C       		.byte	0xc
 11314 3398 33       		.byte	0x33
 11315 3399 A3330000 		.4byte	0x33a3
 11316 339d 28       		.uleb128 0x28
 11317 339e 6B000000 		.4byte	0x6b
 11318 33a2 00       		.byte	0
 11319 33a3 27       		.uleb128 0x27
 11320 33a4 A8030000 		.4byte	.LASF116
 11321 33a8 0D       		.byte	0xd
 11322 33a9 1301     		.2byte	0x113
 11323 33ab 83000000 		.4byte	0x83
 11324 33af C8330000 		.4byte	0x33c8
 11325 33b3 28       		.uleb128 0x28
 11326 33b4 83000000 		.4byte	0x83
 11327 33b8 28       		.uleb128 0x28
 11328 33b9 E3320000 		.4byte	0x32e3
 11329 33bd 28       		.uleb128 0x28
 11330 33be 83000000 		.4byte	0x83
 11331 33c2 28       		.uleb128 0x28
 11332 33c3 83000000 		.4byte	0x83
 11333 33c7 00       		.byte	0
 11334 33c8 29       		.uleb128 0x29
 11335 33c9 DA000000 		.4byte	.LASF117
 11336 33cd 0D       		.byte	0xd
 11337 33ce 0F01     		.2byte	0x10f
 11338 33d0 83000000 		.4byte	0x83
 11339 33d4 27       		.uleb128 0x27
 11340 33d5 00000000 		.4byte	.LASF118
 11341 33d9 0D       		.byte	0xd
 11342 33da 1401     		.2byte	0x114
 11343 33dc 83000000 		.4byte	0x83
 11344 33e0 F9330000 		.4byte	0x33f9
 11345 33e4 28       		.uleb128 0x28
 11346 33e5 83000000 		.4byte	0x83
 11347 33e9 28       		.uleb128 0x28
 11348 33ea E3320000 		.4byte	0x32e3
 11349 33ee 28       		.uleb128 0x28
 11350 33ef 83000000 		.4byte	0x83
 11351 33f3 28       		.uleb128 0x28
 11352 33f4 83000000 		.4byte	0x83
 11353 33f8 00       		.byte	0
 11354 33f9 2A       		.uleb128 0x2a
 11355 33fa FE050000 		.4byte	.LASF119
 11356 33fe 0E       		.byte	0xe
 11357 33ff 33       		.byte	0x33
 11358 3400 0A340000 		.4byte	0x340a
 11359 3404 28       		.uleb128 0x28
 11360 3405 6B000000 		.4byte	0x6b
 11361 3409 00       		.byte	0
ARM GAS  C:\Users\Andres\AppData\Local\Temp\ccSsqcxd.s 			page 223


 11362 340a 2A       		.uleb128 0x2a
 11363 340b 5F010000 		.4byte	.LASF120
 11364 340f 0A       		.byte	0xa
 11365 3410 D8       		.byte	0xd8
 11366 3411 1B340000 		.4byte	0x341b
 11367 3415 28       		.uleb128 0x28
 11368 3416 77000000 		.4byte	0x77
 11369 341a 00       		.byte	0
 11370 341b 2B       		.uleb128 0x2b
 11371 341c AB050000 		.4byte	.LASF121
 11372 3420 0F       		.byte	0xf
 11373 3421 73       		.byte	0x73
 11374 3422 6B000000 		.4byte	0x6b
 11375 3426 2B       		.uleb128 0x2b
 11376 3427 92000000 		.4byte	.LASF122
 11377 342b 0F       		.byte	0xf
 11378 342c 71       		.byte	0x71
 11379 342d 6B000000 		.4byte	0x6b
 11380 3431 2C       		.uleb128 0x2c
 11381 3432 2F050000 		.4byte	.LASF129
 11382 3436 0F       		.byte	0xf
 11383 3437 75       		.byte	0x75
 11384 3438 2A       		.uleb128 0x2a
 11385 3439 5B050000 		.4byte	.LASF123
 11386 343d 10       		.byte	0x10
 11387 343e 27       		.byte	0x27
 11388 343f 49340000 		.4byte	0x3449
 11389 3443 28       		.uleb128 0x28
 11390 3444 6B000000 		.4byte	0x6b
 11391 3448 00       		.byte	0
 11392 3449 2A       		.uleb128 0x2a
 11393 344a 4D050000 		.4byte	.LASF124
 11394 344e 11       		.byte	0x11
 11395 344f 8A       		.byte	0x8a
 11396 3450 5A340000 		.4byte	0x345a
 11397 3454 28       		.uleb128 0x28
 11398 3455 6B000000 		.4byte	0x6b
 11399 3459 00       		.byte	0
 11400 345a 2B       		.uleb128 0x2b
 11401 345b 39000000 		.4byte	.LASF125
 11402 345f 0F       		.byte	0xf
 11403 3460 6F       		.byte	0x6f
 11404 3461 6B000000 		.4byte	0x6b
 11405 3465 29       		.uleb128 0x29
 11406 3466 9E010000 		.4byte	.LASF126
 11407 346a 12       		.byte	0x12
 11408 346b 1D01     		.2byte	0x11d
 11409 346d 6B000000 		.4byte	0x6b
 11410 3471 2B       		.uleb128 0x2b
 11411 3472 24030000 		.4byte	.LASF127
 11412 3476 12       		.byte	0x12
 11413 3477 D8       		.byte	0xd8
 11414 3478 6B000000 		.4byte	0x6b
 11415 347c 2A       		.uleb128 0x2a
 11416 347d CA020000 		.4byte	.LASF128
 11417 3481 13       		.byte	0x13
 11418 3482 33       		.byte	0x33
ARM GAS  C:\Users\Andres\AppData\Local\Temp\ccSsqcxd.s 			page 224


 11419 3483 8D340000 		.4byte	0x348d
 11420 3487 28       		.uleb128 0x28
 11421 3488 6B000000 		.4byte	0x6b
 11422 348c 00       		.byte	0
 11423 348d 2D       		.uleb128 0x2d
 11424 348e 39070000 		.4byte	.LASF130
 11425 3492 12       		.byte	0x12
 11426 3493 0401     		.2byte	0x104
 11427 3495 27       		.uleb128 0x27
 11428 3496 29070000 		.4byte	.LASF131
 11429 349a 14       		.byte	0x14
 11430 349b 3F01     		.2byte	0x13f
 11431 349d 8F000000 		.4byte	0x8f
 11432 34a1 AB340000 		.4byte	0x34ab
 11433 34a5 28       		.uleb128 0x28
 11434 34a6 8F000000 		.4byte	0x8f
 11435 34aa 00       		.byte	0
 11436 34ab 27       		.uleb128 0x27
 11437 34ac 38060000 		.4byte	.LASF132
 11438 34b0 14       		.byte	0x14
 11439 34b1 3E01     		.2byte	0x13e
 11440 34b3 8F000000 		.4byte	0x8f
 11441 34b7 C1340000 		.4byte	0x34c1
 11442 34bb 28       		.uleb128 0x28
 11443 34bc 8F000000 		.4byte	0x8f
 11444 34c0 00       		.byte	0
 11445 34c1 2C       		.uleb128 0x2c
 11446 34c2 1B020000 		.4byte	.LASF133
 11447 34c6 15       		.byte	0x15
 11448 34c7 6E       		.byte	0x6e
 11449 34c8 2C       		.uleb128 0x2c
 11450 34c9 4F010000 		.4byte	.LASF134
 11451 34cd 15       		.byte	0x15
 11452 34ce 6D       		.byte	0x6d
 11453 34cf 2C       		.uleb128 0x2c
 11454 34d0 69010000 		.4byte	.LASF135
 11455 34d4 16       		.byte	0x16
 11456 34d5 6E       		.byte	0x6e
 11457 34d6 2C       		.uleb128 0x2c
 11458 34d7 FF000000 		.4byte	.LASF136
 11459 34db 16       		.byte	0x16
 11460 34dc 6D       		.byte	0x6d
 11461 34dd 2C       		.uleb128 0x2c
 11462 34de 9C050000 		.4byte	.LASF137
 11463 34e2 17       		.byte	0x17
 11464 34e3 6E       		.byte	0x6e
 11465 34e4 2C       		.uleb128 0x2c
 11466 34e5 03030000 		.4byte	.LASF138
 11467 34e9 17       		.byte	0x17
 11468 34ea 6D       		.byte	0x6d
 11469 34eb 2C       		.uleb128 0x2c
 11470 34ec 53020000 		.4byte	.LASF139
 11471 34f0 18       		.byte	0x18
 11472 34f1 6E       		.byte	0x6e
 11473 34f2 2C       		.uleb128 0x2c
 11474 34f3 BE050000 		.4byte	.LASF140
 11475 34f7 18       		.byte	0x18
ARM GAS  C:\Users\Andres\AppData\Local\Temp\ccSsqcxd.s 			page 225


 11476 34f8 6D       		.byte	0x6d
 11477 34f9 2B       		.uleb128 0x2b
 11478 34fa 7A060000 		.4byte	.LASF141
 11479 34fe 12       		.byte	0x12
 11480 34ff C5       		.byte	0xc5
 11481 3500 6B000000 		.4byte	0x6b
 11482 3504 2A       		.uleb128 0x2a
 11483 3505 22000000 		.4byte	.LASF142
 11484 3509 19       		.byte	0x19
 11485 350a 18       		.byte	0x18
 11486 350b 15350000 		.4byte	0x3515
 11487 350f 28       		.uleb128 0x28
 11488 3510 A4000000 		.4byte	0xa4
 11489 3514 00       		.byte	0
 11490 3515 2C       		.uleb128 0x2c
 11491 3516 9D060000 		.4byte	.LASF143
 11492 351a 0F       		.byte	0xf
 11493 351b 54       		.byte	0x54
 11494 351c 2C       		.uleb128 0x2c
 11495 351d E7020000 		.4byte	.LASF144
 11496 3521 11       		.byte	0x11
 11497 3522 54       		.byte	0x54
 11498 3523 2B       		.uleb128 0x2b
 11499 3524 5F040000 		.4byte	.LASF145
 11500 3528 12       		.byte	0x12
 11501 3529 C8       		.byte	0xc8
 11502 352a 6B000000 		.4byte	0x6b
 11503 352e 00       		.byte	0
 11504              		.section	.debug_abbrev,"",%progbits
 11505              	.Ldebug_abbrev0:
 11506 0000 01       		.uleb128 0x1
 11507 0001 11       		.uleb128 0x11
 11508 0002 01       		.byte	0x1
 11509 0003 25       		.uleb128 0x25
 11510 0004 0E       		.uleb128 0xe
 11511 0005 13       		.uleb128 0x13
 11512 0006 0B       		.uleb128 0xb
 11513 0007 03       		.uleb128 0x3
 11514 0008 0E       		.uleb128 0xe
 11515 0009 1B       		.uleb128 0x1b
 11516 000a 0E       		.uleb128 0xe
 11517 000b 55       		.uleb128 0x55
 11518 000c 17       		.uleb128 0x17
 11519 000d 11       		.uleb128 0x11
 11520 000e 01       		.uleb128 0x1
 11521 000f 10       		.uleb128 0x10
 11522 0010 17       		.uleb128 0x17
 11523 0011 00       		.byte	0
 11524 0012 00       		.byte	0
 11525 0013 02       		.uleb128 0x2
 11526 0014 24       		.uleb128 0x24
 11527 0015 00       		.byte	0
 11528 0016 0B       		.uleb128 0xb
 11529 0017 0B       		.uleb128 0xb
 11530 0018 3E       		.uleb128 0x3e
 11531 0019 0B       		.uleb128 0xb
 11532 001a 03       		.uleb128 0x3
ARM GAS  C:\Users\Andres\AppData\Local\Temp\ccSsqcxd.s 			page 226


 11533 001b 0E       		.uleb128 0xe
 11534 001c 00       		.byte	0
 11535 001d 00       		.byte	0
 11536 001e 03       		.uleb128 0x3
 11537 001f 24       		.uleb128 0x24
 11538 0020 00       		.byte	0
 11539 0021 0B       		.uleb128 0xb
 11540 0022 0B       		.uleb128 0xb
 11541 0023 3E       		.uleb128 0x3e
 11542 0024 0B       		.uleb128 0xb
 11543 0025 03       		.uleb128 0x3
 11544 0026 08       		.uleb128 0x8
 11545 0027 00       		.byte	0
 11546 0028 00       		.byte	0
 11547 0029 04       		.uleb128 0x4
 11548 002a 16       		.uleb128 0x16
 11549 002b 00       		.byte	0
 11550 002c 03       		.uleb128 0x3
 11551 002d 0E       		.uleb128 0xe
 11552 002e 3A       		.uleb128 0x3a
 11553 002f 0B       		.uleb128 0xb
 11554 0030 3B       		.uleb128 0x3b
 11555 0031 05       		.uleb128 0x5
 11556 0032 49       		.uleb128 0x49
 11557 0033 13       		.uleb128 0x13
 11558 0034 00       		.byte	0
 11559 0035 00       		.byte	0
 11560 0036 05       		.uleb128 0x5
 11561 0037 0F       		.uleb128 0xf
 11562 0038 00       		.byte	0
 11563 0039 0B       		.uleb128 0xb
 11564 003a 0B       		.uleb128 0xb
 11565 003b 49       		.uleb128 0x49
 11566 003c 13       		.uleb128 0x13
 11567 003d 00       		.byte	0
 11568 003e 00       		.byte	0
 11569 003f 06       		.uleb128 0x6
 11570 0040 15       		.uleb128 0x15
 11571 0041 00       		.byte	0
 11572 0042 27       		.uleb128 0x27
 11573 0043 19       		.uleb128 0x19
 11574 0044 00       		.byte	0
 11575 0045 00       		.byte	0
 11576 0046 07       		.uleb128 0x7
 11577 0047 01       		.uleb128 0x1
 11578 0048 01       		.byte	0x1
 11579 0049 49       		.uleb128 0x49
 11580 004a 13       		.uleb128 0x13
 11581 004b 01       		.uleb128 0x1
 11582 004c 13       		.uleb128 0x13
 11583 004d 00       		.byte	0
 11584 004e 00       		.byte	0
 11585 004f 08       		.uleb128 0x8
 11586 0050 21       		.uleb128 0x21
 11587 0051 00       		.byte	0
 11588 0052 49       		.uleb128 0x49
 11589 0053 13       		.uleb128 0x13
ARM GAS  C:\Users\Andres\AppData\Local\Temp\ccSsqcxd.s 			page 227


 11590 0054 2F       		.uleb128 0x2f
 11591 0055 0B       		.uleb128 0xb
 11592 0056 00       		.byte	0
 11593 0057 00       		.byte	0
 11594 0058 09       		.uleb128 0x9
 11595 0059 2E       		.uleb128 0x2e
 11596 005a 01       		.byte	0x1
 11597 005b 3F       		.uleb128 0x3f
 11598 005c 19       		.uleb128 0x19
 11599 005d 03       		.uleb128 0x3
 11600 005e 0E       		.uleb128 0xe
 11601 005f 3A       		.uleb128 0x3a
 11602 0060 0B       		.uleb128 0xb
 11603 0061 3B       		.uleb128 0x3b
 11604 0062 0B       		.uleb128 0xb
 11605 0063 27       		.uleb128 0x27
 11606 0064 19       		.uleb128 0x19
 11607 0065 11       		.uleb128 0x11
 11608 0066 01       		.uleb128 0x1
 11609 0067 12       		.uleb128 0x12
 11610 0068 06       		.uleb128 0x6
 11611 0069 40       		.uleb128 0x40
 11612 006a 18       		.uleb128 0x18
 11613 006b 9742     		.uleb128 0x2117
 11614 006d 19       		.uleb128 0x19
 11615 006e 01       		.uleb128 0x1
 11616 006f 13       		.uleb128 0x13
 11617 0070 00       		.byte	0
 11618 0071 00       		.byte	0
 11619 0072 0A       		.uleb128 0xa
 11620 0073 05       		.uleb128 0x5
 11621 0074 00       		.byte	0
 11622 0075 03       		.uleb128 0x3
 11623 0076 0E       		.uleb128 0xe
 11624 0077 3A       		.uleb128 0x3a
 11625 0078 0B       		.uleb128 0xb
 11626 0079 3B       		.uleb128 0x3b
 11627 007a 0B       		.uleb128 0xb
 11628 007b 49       		.uleb128 0x49
 11629 007c 13       		.uleb128 0x13
 11630 007d 02       		.uleb128 0x2
 11631 007e 17       		.uleb128 0x17
 11632 007f 00       		.byte	0
 11633 0080 00       		.byte	0
 11634 0081 0B       		.uleb128 0xb
 11635 0082 34       		.uleb128 0x34
 11636 0083 00       		.byte	0
 11637 0084 03       		.uleb128 0x3
 11638 0085 0E       		.uleb128 0xe
 11639 0086 3A       		.uleb128 0x3a
 11640 0087 0B       		.uleb128 0xb
 11641 0088 3B       		.uleb128 0x3b
 11642 0089 0B       		.uleb128 0xb
 11643 008a 49       		.uleb128 0x49
 11644 008b 13       		.uleb128 0x13
 11645 008c 02       		.uleb128 0x2
 11646 008d 18       		.uleb128 0x18
ARM GAS  C:\Users\Andres\AppData\Local\Temp\ccSsqcxd.s 			page 228


 11647 008e 00       		.byte	0
 11648 008f 00       		.byte	0
 11649 0090 0C       		.uleb128 0xc
 11650 0091 898201   		.uleb128 0x4109
 11651 0094 01       		.byte	0x1
 11652 0095 11       		.uleb128 0x11
 11653 0096 01       		.uleb128 0x1
 11654 0097 31       		.uleb128 0x31
 11655 0098 13       		.uleb128 0x13
 11656 0099 01       		.uleb128 0x1
 11657 009a 13       		.uleb128 0x13
 11658 009b 00       		.byte	0
 11659 009c 00       		.byte	0
 11660 009d 0D       		.uleb128 0xd
 11661 009e 8A8201   		.uleb128 0x410a
 11662 00a1 00       		.byte	0
 11663 00a2 02       		.uleb128 0x2
 11664 00a3 18       		.uleb128 0x18
 11665 00a4 9142     		.uleb128 0x2111
 11666 00a6 18       		.uleb128 0x18
 11667 00a7 00       		.byte	0
 11668 00a8 00       		.byte	0
 11669 00a9 0E       		.uleb128 0xe
 11670 00aa 898201   		.uleb128 0x4109
 11671 00ad 00       		.byte	0
 11672 00ae 11       		.uleb128 0x11
 11673 00af 01       		.uleb128 0x1
 11674 00b0 31       		.uleb128 0x31
 11675 00b1 13       		.uleb128 0x13
 11676 00b2 00       		.byte	0
 11677 00b3 00       		.byte	0
 11678 00b4 0F       		.uleb128 0xf
 11679 00b5 2E       		.uleb128 0x2e
 11680 00b6 01       		.byte	0x1
 11681 00b7 3F       		.uleb128 0x3f
 11682 00b8 19       		.uleb128 0x19
 11683 00b9 03       		.uleb128 0x3
 11684 00ba 0E       		.uleb128 0xe
 11685 00bb 3A       		.uleb128 0x3a
 11686 00bc 0B       		.uleb128 0xb
 11687 00bd 3B       		.uleb128 0x3b
 11688 00be 0B       		.uleb128 0xb
 11689 00bf 27       		.uleb128 0x27
 11690 00c0 19       		.uleb128 0x19
 11691 00c1 49       		.uleb128 0x49
 11692 00c2 13       		.uleb128 0x13
 11693 00c3 11       		.uleb128 0x11
 11694 00c4 01       		.uleb128 0x1
 11695 00c5 12       		.uleb128 0x12
 11696 00c6 06       		.uleb128 0x6
 11697 00c7 40       		.uleb128 0x40
 11698 00c8 18       		.uleb128 0x18
 11699 00c9 9742     		.uleb128 0x2117
 11700 00cb 19       		.uleb128 0x19
 11701 00cc 01       		.uleb128 0x1
 11702 00cd 13       		.uleb128 0x13
 11703 00ce 00       		.byte	0
ARM GAS  C:\Users\Andres\AppData\Local\Temp\ccSsqcxd.s 			page 229


 11704 00cf 00       		.byte	0
 11705 00d0 10       		.uleb128 0x10
 11706 00d1 2E       		.uleb128 0x2e
 11707 00d2 01       		.byte	0x1
 11708 00d3 3F       		.uleb128 0x3f
 11709 00d4 19       		.uleb128 0x19
 11710 00d5 03       		.uleb128 0x3
 11711 00d6 0E       		.uleb128 0xe
 11712 00d7 3A       		.uleb128 0x3a
 11713 00d8 0B       		.uleb128 0xb
 11714 00d9 3B       		.uleb128 0x3b
 11715 00da 0B       		.uleb128 0xb
 11716 00db 11       		.uleb128 0x11
 11717 00dc 01       		.uleb128 0x1
 11718 00dd 12       		.uleb128 0x12
 11719 00de 06       		.uleb128 0x6
 11720 00df 40       		.uleb128 0x40
 11721 00e0 18       		.uleb128 0x18
 11722 00e1 9742     		.uleb128 0x2117
 11723 00e3 19       		.uleb128 0x19
 11724 00e4 01       		.uleb128 0x1
 11725 00e5 13       		.uleb128 0x13
 11726 00e6 00       		.byte	0
 11727 00e7 00       		.byte	0
 11728 00e8 11       		.uleb128 0x11
 11729 00e9 34       		.uleb128 0x34
 11730 00ea 00       		.byte	0
 11731 00eb 03       		.uleb128 0x3
 11732 00ec 0E       		.uleb128 0xe
 11733 00ed 3A       		.uleb128 0x3a
 11734 00ee 0B       		.uleb128 0xb
 11735 00ef 3B       		.uleb128 0x3b
 11736 00f0 0B       		.uleb128 0xb
 11737 00f1 49       		.uleb128 0x49
 11738 00f2 13       		.uleb128 0x13
 11739 00f3 02       		.uleb128 0x2
 11740 00f4 17       		.uleb128 0x17
 11741 00f5 00       		.byte	0
 11742 00f6 00       		.byte	0
 11743 00f7 12       		.uleb128 0x12
 11744 00f8 898201   		.uleb128 0x4109
 11745 00fb 01       		.byte	0x1
 11746 00fc 11       		.uleb128 0x11
 11747 00fd 01       		.uleb128 0x1
 11748 00fe 31       		.uleb128 0x31
 11749 00ff 13       		.uleb128 0x13
 11750 0100 00       		.byte	0
 11751 0101 00       		.byte	0
 11752 0102 13       		.uleb128 0x13
 11753 0103 2E       		.uleb128 0x2e
 11754 0104 01       		.byte	0x1
 11755 0105 3F       		.uleb128 0x3f
 11756 0106 19       		.uleb128 0x19
 11757 0107 03       		.uleb128 0x3
 11758 0108 0E       		.uleb128 0xe
 11759 0109 3A       		.uleb128 0x3a
 11760 010a 0B       		.uleb128 0xb
ARM GAS  C:\Users\Andres\AppData\Local\Temp\ccSsqcxd.s 			page 230


 11761 010b 3B       		.uleb128 0x3b
 11762 010c 0B       		.uleb128 0xb
 11763 010d 49       		.uleb128 0x49
 11764 010e 13       		.uleb128 0x13
 11765 010f 11       		.uleb128 0x11
 11766 0110 01       		.uleb128 0x1
 11767 0111 12       		.uleb128 0x12
 11768 0112 06       		.uleb128 0x6
 11769 0113 40       		.uleb128 0x40
 11770 0114 18       		.uleb128 0x18
 11771 0115 9742     		.uleb128 0x2117
 11772 0117 19       		.uleb128 0x19
 11773 0118 01       		.uleb128 0x1
 11774 0119 13       		.uleb128 0x13
 11775 011a 00       		.byte	0
 11776 011b 00       		.byte	0
 11777 011c 14       		.uleb128 0x14
 11778 011d 05       		.uleb128 0x5
 11779 011e 00       		.byte	0
 11780 011f 03       		.uleb128 0x3
 11781 0120 08       		.uleb128 0x8
 11782 0121 3A       		.uleb128 0x3a
 11783 0122 0B       		.uleb128 0xb
 11784 0123 3B       		.uleb128 0x3b
 11785 0124 0B       		.uleb128 0xb
 11786 0125 49       		.uleb128 0x49
 11787 0126 13       		.uleb128 0x13
 11788 0127 02       		.uleb128 0x2
 11789 0128 17       		.uleb128 0x17
 11790 0129 00       		.byte	0
 11791 012a 00       		.byte	0
 11792 012b 15       		.uleb128 0x15
 11793 012c 2E       		.uleb128 0x2e
 11794 012d 01       		.byte	0x1
 11795 012e 3F       		.uleb128 0x3f
 11796 012f 19       		.uleb128 0x19
 11797 0130 03       		.uleb128 0x3
 11798 0131 08       		.uleb128 0x8
 11799 0132 3A       		.uleb128 0x3a
 11800 0133 0B       		.uleb128 0xb
 11801 0134 3B       		.uleb128 0x3b
 11802 0135 0B       		.uleb128 0xb
 11803 0136 27       		.uleb128 0x27
 11804 0137 19       		.uleb128 0x19
 11805 0138 49       		.uleb128 0x49
 11806 0139 13       		.uleb128 0x13
 11807 013a 11       		.uleb128 0x11
 11808 013b 01       		.uleb128 0x1
 11809 013c 12       		.uleb128 0x12
 11810 013d 06       		.uleb128 0x6
 11811 013e 40       		.uleb128 0x40
 11812 013f 18       		.uleb128 0x18
 11813 0140 9742     		.uleb128 0x2117
 11814 0142 19       		.uleb128 0x19
 11815 0143 01       		.uleb128 0x1
 11816 0144 13       		.uleb128 0x13
 11817 0145 00       		.byte	0
ARM GAS  C:\Users\Andres\AppData\Local\Temp\ccSsqcxd.s 			page 231


 11818 0146 00       		.byte	0
 11819 0147 16       		.uleb128 0x16
 11820 0148 2E       		.uleb128 0x2e
 11821 0149 01       		.byte	0x1
 11822 014a 3F       		.uleb128 0x3f
 11823 014b 19       		.uleb128 0x19
 11824 014c 03       		.uleb128 0x3
 11825 014d 0E       		.uleb128 0xe
 11826 014e 3A       		.uleb128 0x3a
 11827 014f 0B       		.uleb128 0xb
 11828 0150 3B       		.uleb128 0x3b
 11829 0151 05       		.uleb128 0x5
 11830 0152 27       		.uleb128 0x27
 11831 0153 19       		.uleb128 0x19
 11832 0154 49       		.uleb128 0x49
 11833 0155 13       		.uleb128 0x13
 11834 0156 11       		.uleb128 0x11
 11835 0157 01       		.uleb128 0x1
 11836 0158 12       		.uleb128 0x12
 11837 0159 06       		.uleb128 0x6
 11838 015a 40       		.uleb128 0x40
 11839 015b 18       		.uleb128 0x18
 11840 015c 9742     		.uleb128 0x2117
 11841 015e 19       		.uleb128 0x19
 11842 015f 01       		.uleb128 0x1
 11843 0160 13       		.uleb128 0x13
 11844 0161 00       		.byte	0
 11845 0162 00       		.byte	0
 11846 0163 17       		.uleb128 0x17
 11847 0164 05       		.uleb128 0x5
 11848 0165 00       		.byte	0
 11849 0166 03       		.uleb128 0x3
 11850 0167 08       		.uleb128 0x8
 11851 0168 3A       		.uleb128 0x3a
 11852 0169 0B       		.uleb128 0xb
 11853 016a 3B       		.uleb128 0x3b
 11854 016b 05       		.uleb128 0x5
 11855 016c 49       		.uleb128 0x49
 11856 016d 13       		.uleb128 0x13
 11857 016e 02       		.uleb128 0x2
 11858 016f 17       		.uleb128 0x17
 11859 0170 00       		.byte	0
 11860 0171 00       		.byte	0
 11861 0172 18       		.uleb128 0x18
 11862 0173 05       		.uleb128 0x5
 11863 0174 00       		.byte	0
 11864 0175 03       		.uleb128 0x3
 11865 0176 0E       		.uleb128 0xe
 11866 0177 3A       		.uleb128 0x3a
 11867 0178 0B       		.uleb128 0xb
 11868 0179 3B       		.uleb128 0x3b
 11869 017a 05       		.uleb128 0x5
 11870 017b 49       		.uleb128 0x49
 11871 017c 13       		.uleb128 0x13
 11872 017d 02       		.uleb128 0x2
 11873 017e 17       		.uleb128 0x17
 11874 017f 00       		.byte	0
ARM GAS  C:\Users\Andres\AppData\Local\Temp\ccSsqcxd.s 			page 232


 11875 0180 00       		.byte	0
 11876 0181 19       		.uleb128 0x19
 11877 0182 34       		.uleb128 0x34
 11878 0183 00       		.byte	0
 11879 0184 03       		.uleb128 0x3
 11880 0185 0E       		.uleb128 0xe
 11881 0186 3A       		.uleb128 0x3a
 11882 0187 0B       		.uleb128 0xb
 11883 0188 3B       		.uleb128 0x3b
 11884 0189 05       		.uleb128 0x5
 11885 018a 49       		.uleb128 0x49
 11886 018b 13       		.uleb128 0x13
 11887 018c 02       		.uleb128 0x2
 11888 018d 17       		.uleb128 0x17
 11889 018e 00       		.byte	0
 11890 018f 00       		.byte	0
 11891 0190 1A       		.uleb128 0x1a
 11892 0191 2E       		.uleb128 0x2e
 11893 0192 01       		.byte	0x1
 11894 0193 3F       		.uleb128 0x3f
 11895 0194 19       		.uleb128 0x19
 11896 0195 03       		.uleb128 0x3
 11897 0196 0E       		.uleb128 0xe
 11898 0197 3A       		.uleb128 0x3a
 11899 0198 0B       		.uleb128 0xb
 11900 0199 3B       		.uleb128 0x3b
 11901 019a 05       		.uleb128 0x5
 11902 019b 11       		.uleb128 0x11
 11903 019c 01       		.uleb128 0x1
 11904 019d 12       		.uleb128 0x12
 11905 019e 06       		.uleb128 0x6
 11906 019f 40       		.uleb128 0x40
 11907 01a0 18       		.uleb128 0x18
 11908 01a1 9742     		.uleb128 0x2117
 11909 01a3 19       		.uleb128 0x19
 11910 01a4 01       		.uleb128 0x1
 11911 01a5 13       		.uleb128 0x13
 11912 01a6 00       		.byte	0
 11913 01a7 00       		.byte	0
 11914 01a8 1B       		.uleb128 0x1b
 11915 01a9 0B       		.uleb128 0xb
 11916 01aa 01       		.byte	0x1
 11917 01ab 11       		.uleb128 0x11
 11918 01ac 01       		.uleb128 0x1
 11919 01ad 12       		.uleb128 0x12
 11920 01ae 06       		.uleb128 0x6
 11921 01af 01       		.uleb128 0x1
 11922 01b0 13       		.uleb128 0x13
 11923 01b1 00       		.byte	0
 11924 01b2 00       		.byte	0
 11925 01b3 1C       		.uleb128 0x1c
 11926 01b4 0B       		.uleb128 0xb
 11927 01b5 01       		.byte	0x1
 11928 01b6 11       		.uleb128 0x11
 11929 01b7 01       		.uleb128 0x1
 11930 01b8 12       		.uleb128 0x12
 11931 01b9 06       		.uleb128 0x6
ARM GAS  C:\Users\Andres\AppData\Local\Temp\ccSsqcxd.s 			page 233


 11932 01ba 00       		.byte	0
 11933 01bb 00       		.byte	0
 11934 01bc 1D       		.uleb128 0x1d
 11935 01bd 0A       		.uleb128 0xa
 11936 01be 00       		.byte	0
 11937 01bf 03       		.uleb128 0x3
 11938 01c0 08       		.uleb128 0x8
 11939 01c1 3A       		.uleb128 0x3a
 11940 01c2 0B       		.uleb128 0xb
 11941 01c3 3B       		.uleb128 0x3b
 11942 01c4 0B       		.uleb128 0xb
 11943 01c5 11       		.uleb128 0x11
 11944 01c6 01       		.uleb128 0x1
 11945 01c7 00       		.byte	0
 11946 01c8 00       		.byte	0
 11947 01c9 1E       		.uleb128 0x1e
 11948 01ca 0A       		.uleb128 0xa
 11949 01cb 00       		.byte	0
 11950 01cc 03       		.uleb128 0x3
 11951 01cd 0E       		.uleb128 0xe
 11952 01ce 3A       		.uleb128 0x3a
 11953 01cf 0B       		.uleb128 0xb
 11954 01d0 3B       		.uleb128 0x3b
 11955 01d1 0B       		.uleb128 0xb
 11956 01d2 11       		.uleb128 0x11
 11957 01d3 01       		.uleb128 0x1
 11958 01d4 00       		.byte	0
 11959 01d5 00       		.byte	0
 11960 01d6 1F       		.uleb128 0x1f
 11961 01d7 34       		.uleb128 0x34
 11962 01d8 00       		.byte	0
 11963 01d9 03       		.uleb128 0x3
 11964 01da 08       		.uleb128 0x8
 11965 01db 3A       		.uleb128 0x3a
 11966 01dc 0B       		.uleb128 0xb
 11967 01dd 3B       		.uleb128 0x3b
 11968 01de 0B       		.uleb128 0xb
 11969 01df 49       		.uleb128 0x49
 11970 01e0 13       		.uleb128 0x13
 11971 01e1 02       		.uleb128 0x2
 11972 01e2 17       		.uleb128 0x17
 11973 01e3 00       		.byte	0
 11974 01e4 00       		.byte	0
 11975 01e5 20       		.uleb128 0x20
 11976 01e6 2E       		.uleb128 0x2e
 11977 01e7 01       		.byte	0x1
 11978 01e8 3F       		.uleb128 0x3f
 11979 01e9 19       		.uleb128 0x19
 11980 01ea 03       		.uleb128 0x3
 11981 01eb 08       		.uleb128 0x8
 11982 01ec 3A       		.uleb128 0x3a
 11983 01ed 0B       		.uleb128 0xb
 11984 01ee 3B       		.uleb128 0x3b
 11985 01ef 05       		.uleb128 0x5
 11986 01f0 27       		.uleb128 0x27
 11987 01f1 19       		.uleb128 0x19
 11988 01f2 49       		.uleb128 0x49
ARM GAS  C:\Users\Andres\AppData\Local\Temp\ccSsqcxd.s 			page 234


 11989 01f3 13       		.uleb128 0x13
 11990 01f4 11       		.uleb128 0x11
 11991 01f5 01       		.uleb128 0x1
 11992 01f6 12       		.uleb128 0x12
 11993 01f7 06       		.uleb128 0x6
 11994 01f8 40       		.uleb128 0x40
 11995 01f9 18       		.uleb128 0x18
 11996 01fa 9642     		.uleb128 0x2116
 11997 01fc 19       		.uleb128 0x19
 11998 01fd 01       		.uleb128 0x1
 11999 01fe 13       		.uleb128 0x13
 12000 01ff 00       		.byte	0
 12001 0200 00       		.byte	0
 12002 0201 21       		.uleb128 0x21
 12003 0202 34       		.uleb128 0x34
 12004 0203 00       		.byte	0
 12005 0204 03       		.uleb128 0x3
 12006 0205 08       		.uleb128 0x8
 12007 0206 3A       		.uleb128 0x3a
 12008 0207 0B       		.uleb128 0xb
 12009 0208 3B       		.uleb128 0x3b
 12010 0209 05       		.uleb128 0x5
 12011 020a 49       		.uleb128 0x49
 12012 020b 13       		.uleb128 0x13
 12013 020c 02       		.uleb128 0x2
 12014 020d 17       		.uleb128 0x17
 12015 020e 00       		.byte	0
 12016 020f 00       		.byte	0
 12017 0210 22       		.uleb128 0x22
 12018 0211 34       		.uleb128 0x34
 12019 0212 00       		.byte	0
 12020 0213 34       		.uleb128 0x34
 12021 0214 19       		.uleb128 0x19
 12022 0215 49       		.uleb128 0x49
 12023 0216 13       		.uleb128 0x13
 12024 0217 02       		.uleb128 0x2
 12025 0218 17       		.uleb128 0x17
 12026 0219 00       		.byte	0
 12027 021a 00       		.byte	0
 12028 021b 23       		.uleb128 0x23
 12029 021c 21       		.uleb128 0x21
 12030 021d 00       		.byte	0
 12031 021e 49       		.uleb128 0x49
 12032 021f 13       		.uleb128 0x13
 12033 0220 2F       		.uleb128 0x2f
 12034 0221 13       		.uleb128 0x13
 12035 0222 00       		.byte	0
 12036 0223 00       		.byte	0
 12037 0224 24       		.uleb128 0x24
 12038 0225 26       		.uleb128 0x26
 12039 0226 00       		.byte	0
 12040 0227 49       		.uleb128 0x49
 12041 0228 13       		.uleb128 0x13
 12042 0229 00       		.byte	0
 12043 022a 00       		.byte	0
 12044 022b 25       		.uleb128 0x25
 12045 022c 34       		.uleb128 0x34
ARM GAS  C:\Users\Andres\AppData\Local\Temp\ccSsqcxd.s 			page 235


 12046 022d 00       		.byte	0
 12047 022e 03       		.uleb128 0x3
 12048 022f 08       		.uleb128 0x8
 12049 0230 3A       		.uleb128 0x3a
 12050 0231 0B       		.uleb128 0xb
 12051 0232 3B       		.uleb128 0x3b
 12052 0233 0B       		.uleb128 0xb
 12053 0234 49       		.uleb128 0x49
 12054 0235 13       		.uleb128 0x13
 12055 0236 3F       		.uleb128 0x3f
 12056 0237 19       		.uleb128 0x19
 12057 0238 02       		.uleb128 0x2
 12058 0239 18       		.uleb128 0x18
 12059 023a 00       		.byte	0
 12060 023b 00       		.byte	0
 12061 023c 26       		.uleb128 0x26
 12062 023d 34       		.uleb128 0x34
 12063 023e 00       		.byte	0
 12064 023f 03       		.uleb128 0x3
 12065 0240 0E       		.uleb128 0xe
 12066 0241 3A       		.uleb128 0x3a
 12067 0242 0B       		.uleb128 0xb
 12068 0243 3B       		.uleb128 0x3b
 12069 0244 0B       		.uleb128 0xb
 12070 0245 49       		.uleb128 0x49
 12071 0246 13       		.uleb128 0x13
 12072 0247 3F       		.uleb128 0x3f
 12073 0248 19       		.uleb128 0x19
 12074 0249 02       		.uleb128 0x2
 12075 024a 18       		.uleb128 0x18
 12076 024b 00       		.byte	0
 12077 024c 00       		.byte	0
 12078 024d 27       		.uleb128 0x27
 12079 024e 2E       		.uleb128 0x2e
 12080 024f 01       		.byte	0x1
 12081 0250 3F       		.uleb128 0x3f
 12082 0251 19       		.uleb128 0x19
 12083 0252 03       		.uleb128 0x3
 12084 0253 0E       		.uleb128 0xe
 12085 0254 3A       		.uleb128 0x3a
 12086 0255 0B       		.uleb128 0xb
 12087 0256 3B       		.uleb128 0x3b
 12088 0257 05       		.uleb128 0x5
 12089 0258 27       		.uleb128 0x27
 12090 0259 19       		.uleb128 0x19
 12091 025a 49       		.uleb128 0x49
 12092 025b 13       		.uleb128 0x13
 12093 025c 3C       		.uleb128 0x3c
 12094 025d 19       		.uleb128 0x19
 12095 025e 01       		.uleb128 0x1
 12096 025f 13       		.uleb128 0x13
 12097 0260 00       		.byte	0
 12098 0261 00       		.byte	0
 12099 0262 28       		.uleb128 0x28
 12100 0263 05       		.uleb128 0x5
 12101 0264 00       		.byte	0
 12102 0265 49       		.uleb128 0x49
ARM GAS  C:\Users\Andres\AppData\Local\Temp\ccSsqcxd.s 			page 236


 12103 0266 13       		.uleb128 0x13
 12104 0267 00       		.byte	0
 12105 0268 00       		.byte	0
 12106 0269 29       		.uleb128 0x29
 12107 026a 2E       		.uleb128 0x2e
 12108 026b 00       		.byte	0
 12109 026c 3F       		.uleb128 0x3f
 12110 026d 19       		.uleb128 0x19
 12111 026e 03       		.uleb128 0x3
 12112 026f 0E       		.uleb128 0xe
 12113 0270 3A       		.uleb128 0x3a
 12114 0271 0B       		.uleb128 0xb
 12115 0272 3B       		.uleb128 0x3b
 12116 0273 05       		.uleb128 0x5
 12117 0274 27       		.uleb128 0x27
 12118 0275 19       		.uleb128 0x19
 12119 0276 49       		.uleb128 0x49
 12120 0277 13       		.uleb128 0x13
 12121 0278 3C       		.uleb128 0x3c
 12122 0279 19       		.uleb128 0x19
 12123 027a 00       		.byte	0
 12124 027b 00       		.byte	0
 12125 027c 2A       		.uleb128 0x2a
 12126 027d 2E       		.uleb128 0x2e
 12127 027e 01       		.byte	0x1
 12128 027f 3F       		.uleb128 0x3f
 12129 0280 19       		.uleb128 0x19
 12130 0281 03       		.uleb128 0x3
 12131 0282 0E       		.uleb128 0xe
 12132 0283 3A       		.uleb128 0x3a
 12133 0284 0B       		.uleb128 0xb
 12134 0285 3B       		.uleb128 0x3b
 12135 0286 0B       		.uleb128 0xb
 12136 0287 27       		.uleb128 0x27
 12137 0288 19       		.uleb128 0x19
 12138 0289 3C       		.uleb128 0x3c
 12139 028a 19       		.uleb128 0x19
 12140 028b 01       		.uleb128 0x1
 12141 028c 13       		.uleb128 0x13
 12142 028d 00       		.byte	0
 12143 028e 00       		.byte	0
 12144 028f 2B       		.uleb128 0x2b
 12145 0290 2E       		.uleb128 0x2e
 12146 0291 00       		.byte	0
 12147 0292 3F       		.uleb128 0x3f
 12148 0293 19       		.uleb128 0x19
 12149 0294 03       		.uleb128 0x3
 12150 0295 0E       		.uleb128 0xe
 12151 0296 3A       		.uleb128 0x3a
 12152 0297 0B       		.uleb128 0xb
 12153 0298 3B       		.uleb128 0x3b
 12154 0299 0B       		.uleb128 0xb
 12155 029a 27       		.uleb128 0x27
 12156 029b 19       		.uleb128 0x19
 12157 029c 49       		.uleb128 0x49
 12158 029d 13       		.uleb128 0x13
 12159 029e 3C       		.uleb128 0x3c
ARM GAS  C:\Users\Andres\AppData\Local\Temp\ccSsqcxd.s 			page 237


 12160 029f 19       		.uleb128 0x19
 12161 02a0 00       		.byte	0
 12162 02a1 00       		.byte	0
 12163 02a2 2C       		.uleb128 0x2c
 12164 02a3 2E       		.uleb128 0x2e
 12165 02a4 00       		.byte	0
 12166 02a5 3F       		.uleb128 0x3f
 12167 02a6 19       		.uleb128 0x19
 12168 02a7 03       		.uleb128 0x3
 12169 02a8 0E       		.uleb128 0xe
 12170 02a9 3A       		.uleb128 0x3a
 12171 02aa 0B       		.uleb128 0xb
 12172 02ab 3B       		.uleb128 0x3b
 12173 02ac 0B       		.uleb128 0xb
 12174 02ad 27       		.uleb128 0x27
 12175 02ae 19       		.uleb128 0x19
 12176 02af 3C       		.uleb128 0x3c
 12177 02b0 19       		.uleb128 0x19
 12178 02b1 00       		.byte	0
 12179 02b2 00       		.byte	0
 12180 02b3 2D       		.uleb128 0x2d
 12181 02b4 2E       		.uleb128 0x2e
 12182 02b5 00       		.byte	0
 12183 02b6 3F       		.uleb128 0x3f
 12184 02b7 19       		.uleb128 0x19
 12185 02b8 03       		.uleb128 0x3
 12186 02b9 0E       		.uleb128 0xe
 12187 02ba 3A       		.uleb128 0x3a
 12188 02bb 0B       		.uleb128 0xb
 12189 02bc 3B       		.uleb128 0x3b
 12190 02bd 05       		.uleb128 0x5
 12191 02be 27       		.uleb128 0x27
 12192 02bf 19       		.uleb128 0x19
 12193 02c0 3C       		.uleb128 0x3c
 12194 02c1 19       		.uleb128 0x19
 12195 02c2 00       		.byte	0
 12196 02c3 00       		.byte	0
 12197 02c4 00       		.byte	0
 12198              		.section	.debug_loc,"",%progbits
 12199              	.Ldebug_loc0:
 12200              	.LLST0:
 12201 0000 00000000 		.4byte	.LVL0
 12202 0004 0C000000 		.4byte	.LVL1
 12203 0008 0100     		.2byte	0x1
 12204 000a 50       		.byte	0x50
 12205 000b 0C000000 		.4byte	.LVL1
 12206 000f 22000000 		.4byte	.LFE36
 12207 0013 0400     		.2byte	0x4
 12208 0015 F3       		.byte	0xf3
 12209 0016 01       		.uleb128 0x1
 12210 0017 50       		.byte	0x50
 12211 0018 9F       		.byte	0x9f
 12212 0019 00000000 		.4byte	0
 12213 001d 00000000 		.4byte	0
 12214              	.LLST1:
 12215 0021 00000000 		.4byte	.LVL0
 12216 0025 0E000000 		.4byte	.LVL2
ARM GAS  C:\Users\Andres\AppData\Local\Temp\ccSsqcxd.s 			page 238


 12217 0029 0100     		.2byte	0x1
 12218 002b 51       		.byte	0x51
 12219 002c 0E000000 		.4byte	.LVL2
 12220 0030 22000000 		.4byte	.LFE36
 12221 0034 0400     		.2byte	0x4
 12222 0036 F3       		.byte	0xf3
 12223 0037 01       		.uleb128 0x1
 12224 0038 51       		.byte	0x51
 12225 0039 9F       		.byte	0x9f
 12226 003a 00000000 		.4byte	0
 12227 003e 00000000 		.4byte	0
 12228              	.LLST2:
 12229 0042 00000000 		.4byte	.LVL5
 12230 0046 10000000 		.4byte	.LVL6
 12231 004a 0100     		.2byte	0x1
 12232 004c 50       		.byte	0x50
 12233 004d 10000000 		.4byte	.LVL6
 12234 0051 3C000000 		.4byte	.LFE37
 12235 0055 0400     		.2byte	0x4
 12236 0057 F3       		.byte	0xf3
 12237 0058 01       		.uleb128 0x1
 12238 0059 50       		.byte	0x50
 12239 005a 9F       		.byte	0x9f
 12240 005b 00000000 		.4byte	0
 12241 005f 00000000 		.4byte	0
 12242              	.LLST3:
 12243 0063 08000000 		.4byte	.LVL11
 12244 0067 0E000000 		.4byte	.LVL12
 12245 006b 0100     		.2byte	0x1
 12246 006d 50       		.byte	0x50
 12247 006e 2A000000 		.4byte	.LVL17
 12248 0072 2C000000 		.4byte	.LVL18
 12249 0076 0100     		.2byte	0x1
 12250 0078 50       		.byte	0x50
 12251 0079 00000000 		.4byte	0
 12252 007d 00000000 		.4byte	0
 12253              	.LLST4:
 12254 0081 08000000 		.4byte	.LVL29
 12255 0085 10000000 		.4byte	.LVL30
 12256 0089 0100     		.2byte	0x1
 12257 008b 50       		.byte	0x50
 12258 008c 00000000 		.4byte	0
 12259 0090 00000000 		.4byte	0
 12260              	.LLST5:
 12261 0094 26000000 		.4byte	.LVL34
 12262 0098 2E000000 		.4byte	.LVL36
 12263 009c 0100     		.2byte	0x1
 12264 009e 54       		.byte	0x54
 12265 009f 2E000000 		.4byte	.LVL36
 12266 00a3 30000000 		.4byte	.LFE39
 12267 00a7 0100     		.2byte	0x1
 12268 00a9 50       		.byte	0x50
 12269 00aa 00000000 		.4byte	0
 12270 00ae 00000000 		.4byte	0
 12271              	.LLST6:
 12272 00b2 08000000 		.4byte	.LVL37
 12273 00b6 10000000 		.4byte	.LVL38
ARM GAS  C:\Users\Andres\AppData\Local\Temp\ccSsqcxd.s 			page 239


 12274 00ba 0100     		.2byte	0x1
 12275 00bc 50       		.byte	0x50
 12276 00bd 00000000 		.4byte	0
 12277 00c1 00000000 		.4byte	0
 12278              	.LLST7:
 12279 00c5 26000000 		.4byte	.LVL42
 12280 00c9 2E000000 		.4byte	.LVL44
 12281 00cd 0100     		.2byte	0x1
 12282 00cf 54       		.byte	0x54
 12283 00d0 2E000000 		.4byte	.LVL44
 12284 00d4 30000000 		.4byte	.LFE40
 12285 00d8 0100     		.2byte	0x1
 12286 00da 50       		.byte	0x50
 12287 00db 00000000 		.4byte	0
 12288 00df 00000000 		.4byte	0
 12289              	.LLST8:
 12290 00e3 00000000 		.4byte	.LVL45
 12291 00e7 0C000000 		.4byte	.LVL46
 12292 00eb 0100     		.2byte	0x1
 12293 00ed 50       		.byte	0x50
 12294 00ee 0C000000 		.4byte	.LVL46
 12295 00f2 22000000 		.4byte	.LFE41
 12296 00f6 0400     		.2byte	0x4
 12297 00f8 F3       		.byte	0xf3
 12298 00f9 01       		.uleb128 0x1
 12299 00fa 50       		.byte	0x50
 12300 00fb 9F       		.byte	0x9f
 12301 00fc 00000000 		.4byte	0
 12302 0100 00000000 		.4byte	0
 12303              	.LLST9:
 12304 0104 00000000 		.4byte	.LVL45
 12305 0108 0E000000 		.4byte	.LVL47
 12306 010c 0100     		.2byte	0x1
 12307 010e 51       		.byte	0x51
 12308 010f 0E000000 		.4byte	.LVL47
 12309 0113 22000000 		.4byte	.LFE41
 12310 0117 0400     		.2byte	0x4
 12311 0119 F3       		.byte	0xf3
 12312 011a 01       		.uleb128 0x1
 12313 011b 51       		.byte	0x51
 12314 011c 9F       		.byte	0x9f
 12315 011d 00000000 		.4byte	0
 12316 0121 00000000 		.4byte	0
 12317              	.LLST10:
 12318 0125 00000000 		.4byte	.LVL50
 12319 0129 10000000 		.4byte	.LVL51
 12320 012d 0100     		.2byte	0x1
 12321 012f 50       		.byte	0x50
 12322 0130 10000000 		.4byte	.LVL51
 12323 0134 3C000000 		.4byte	.LFE42
 12324 0138 0400     		.2byte	0x4
 12325 013a F3       		.byte	0xf3
 12326 013b 01       		.uleb128 0x1
 12327 013c 50       		.byte	0x50
 12328 013d 9F       		.byte	0x9f
 12329 013e 00000000 		.4byte	0
 12330 0142 00000000 		.4byte	0
ARM GAS  C:\Users\Andres\AppData\Local\Temp\ccSsqcxd.s 			page 240


 12331              	.LLST11:
 12332 0146 08000000 		.4byte	.LVL56
 12333 014a 0E000000 		.4byte	.LVL57
 12334 014e 0100     		.2byte	0x1
 12335 0150 50       		.byte	0x50
 12336 0151 2A000000 		.4byte	.LVL62
 12337 0155 2C000000 		.4byte	.LVL63
 12338 0159 0100     		.2byte	0x1
 12339 015b 50       		.byte	0x50
 12340 015c 00000000 		.4byte	0
 12341 0160 00000000 		.4byte	0
 12342              	.LLST12:
 12343 0164 08000000 		.4byte	.LVL74
 12344 0168 10000000 		.4byte	.LVL75
 12345 016c 0100     		.2byte	0x1
 12346 016e 50       		.byte	0x50
 12347 016f 00000000 		.4byte	0
 12348 0173 00000000 		.4byte	0
 12349              	.LLST13:
 12350 0177 26000000 		.4byte	.LVL79
 12351 017b 2E000000 		.4byte	.LVL81
 12352 017f 0100     		.2byte	0x1
 12353 0181 54       		.byte	0x54
 12354 0182 2E000000 		.4byte	.LVL81
 12355 0186 30000000 		.4byte	.LFE44
 12356 018a 0100     		.2byte	0x1
 12357 018c 50       		.byte	0x50
 12358 018d 00000000 		.4byte	0
 12359 0191 00000000 		.4byte	0
 12360              	.LLST14:
 12361 0195 08000000 		.4byte	.LVL82
 12362 0199 10000000 		.4byte	.LVL83
 12363 019d 0100     		.2byte	0x1
 12364 019f 50       		.byte	0x50
 12365 01a0 00000000 		.4byte	0
 12366 01a4 00000000 		.4byte	0
 12367              	.LLST15:
 12368 01a8 26000000 		.4byte	.LVL87
 12369 01ac 2E000000 		.4byte	.LVL89
 12370 01b0 0100     		.2byte	0x1
 12371 01b2 54       		.byte	0x54
 12372 01b3 2E000000 		.4byte	.LVL89
 12373 01b7 30000000 		.4byte	.LFE45
 12374 01bb 0100     		.2byte	0x1
 12375 01bd 50       		.byte	0x50
 12376 01be 00000000 		.4byte	0
 12377 01c2 00000000 		.4byte	0
 12378              	.LLST16:
 12379 01c6 00000000 		.4byte	.LVL90
 12380 01ca 0C000000 		.4byte	.LVL91
 12381 01ce 0100     		.2byte	0x1
 12382 01d0 50       		.byte	0x50
 12383 01d1 0C000000 		.4byte	.LVL91
 12384 01d5 22000000 		.4byte	.LFE46
 12385 01d9 0400     		.2byte	0x4
 12386 01db F3       		.byte	0xf3
 12387 01dc 01       		.uleb128 0x1
ARM GAS  C:\Users\Andres\AppData\Local\Temp\ccSsqcxd.s 			page 241


 12388 01dd 50       		.byte	0x50
 12389 01de 9F       		.byte	0x9f
 12390 01df 00000000 		.4byte	0
 12391 01e3 00000000 		.4byte	0
 12392              	.LLST17:
 12393 01e7 00000000 		.4byte	.LVL90
 12394 01eb 0E000000 		.4byte	.LVL92
 12395 01ef 0100     		.2byte	0x1
 12396 01f1 51       		.byte	0x51
 12397 01f2 0E000000 		.4byte	.LVL92
 12398 01f6 22000000 		.4byte	.LFE46
 12399 01fa 0400     		.2byte	0x4
 12400 01fc F3       		.byte	0xf3
 12401 01fd 01       		.uleb128 0x1
 12402 01fe 51       		.byte	0x51
 12403 01ff 9F       		.byte	0x9f
 12404 0200 00000000 		.4byte	0
 12405 0204 00000000 		.4byte	0
 12406              	.LLST18:
 12407 0208 00000000 		.4byte	.LVL95
 12408 020c 10000000 		.4byte	.LVL96
 12409 0210 0100     		.2byte	0x1
 12410 0212 50       		.byte	0x50
 12411 0213 10000000 		.4byte	.LVL96
 12412 0217 3C000000 		.4byte	.LFE47
 12413 021b 0400     		.2byte	0x4
 12414 021d F3       		.byte	0xf3
 12415 021e 01       		.uleb128 0x1
 12416 021f 50       		.byte	0x50
 12417 0220 9F       		.byte	0x9f
 12418 0221 00000000 		.4byte	0
 12419 0225 00000000 		.4byte	0
 12420              	.LLST19:
 12421 0229 08000000 		.4byte	.LVL101
 12422 022d 0E000000 		.4byte	.LVL102
 12423 0231 0100     		.2byte	0x1
 12424 0233 50       		.byte	0x50
 12425 0234 2A000000 		.4byte	.LVL107
 12426 0238 2C000000 		.4byte	.LVL108
 12427 023c 0100     		.2byte	0x1
 12428 023e 50       		.byte	0x50
 12429 023f 00000000 		.4byte	0
 12430 0243 00000000 		.4byte	0
 12431              	.LLST20:
 12432 0247 08000000 		.4byte	.LVL119
 12433 024b 10000000 		.4byte	.LVL120
 12434 024f 0100     		.2byte	0x1
 12435 0251 50       		.byte	0x50
 12436 0252 00000000 		.4byte	0
 12437 0256 00000000 		.4byte	0
 12438              	.LLST21:
 12439 025a 26000000 		.4byte	.LVL124
 12440 025e 2E000000 		.4byte	.LVL126
 12441 0262 0100     		.2byte	0x1
 12442 0264 54       		.byte	0x54
 12443 0265 2E000000 		.4byte	.LVL126
 12444 0269 30000000 		.4byte	.LFE49
ARM GAS  C:\Users\Andres\AppData\Local\Temp\ccSsqcxd.s 			page 242


 12445 026d 0100     		.2byte	0x1
 12446 026f 50       		.byte	0x50
 12447 0270 00000000 		.4byte	0
 12448 0274 00000000 		.4byte	0
 12449              	.LLST22:
 12450 0278 08000000 		.4byte	.LVL127
 12451 027c 10000000 		.4byte	.LVL128
 12452 0280 0100     		.2byte	0x1
 12453 0282 50       		.byte	0x50
 12454 0283 00000000 		.4byte	0
 12455 0287 00000000 		.4byte	0
 12456              	.LLST23:
 12457 028b 26000000 		.4byte	.LVL132
 12458 028f 2E000000 		.4byte	.LVL134
 12459 0293 0100     		.2byte	0x1
 12460 0295 54       		.byte	0x54
 12461 0296 2E000000 		.4byte	.LVL134
 12462 029a 30000000 		.4byte	.LFE50
 12463 029e 0100     		.2byte	0x1
 12464 02a0 50       		.byte	0x50
 12465 02a1 00000000 		.4byte	0
 12466 02a5 00000000 		.4byte	0
 12467              	.LLST24:
 12468 02a9 00000000 		.4byte	.LVL147
 12469 02ad 10000000 		.4byte	.LVL148
 12470 02b1 0100     		.2byte	0x1
 12471 02b3 50       		.byte	0x50
 12472 02b4 10000000 		.4byte	.LVL148
 12473 02b8 FC000000 		.4byte	.LFE52
 12474 02bc 0400     		.2byte	0x4
 12475 02be F3       		.byte	0xf3
 12476 02bf 01       		.uleb128 0x1
 12477 02c0 50       		.byte	0x50
 12478 02c1 9F       		.byte	0x9f
 12479 02c2 00000000 		.4byte	0
 12480 02c6 00000000 		.4byte	0
 12481              	.LLST25:
 12482 02ca 00000000 		.4byte	.LVL174
 12483 02ce 12000000 		.4byte	.LVL175
 12484 02d2 0100     		.2byte	0x1
 12485 02d4 50       		.byte	0x50
 12486 02d5 12000000 		.4byte	.LVL175
 12487 02d9 64000000 		.4byte	.LFE53
 12488 02dd 0400     		.2byte	0x4
 12489 02df F3       		.byte	0xf3
 12490 02e0 01       		.uleb128 0x1
 12491 02e1 50       		.byte	0x50
 12492 02e2 9F       		.byte	0x9f
 12493 02e3 00000000 		.4byte	0
 12494 02e7 00000000 		.4byte	0
 12495              	.LLST26:
 12496 02eb 00000000 		.4byte	.LVL174
 12497 02ef 15000000 		.4byte	.LVL176-1
 12498 02f3 0100     		.2byte	0x1
 12499 02f5 51       		.byte	0x51
 12500 02f6 15000000 		.4byte	.LVL176-1
 12501 02fa 64000000 		.4byte	.LFE53
ARM GAS  C:\Users\Andres\AppData\Local\Temp\ccSsqcxd.s 			page 243


 12502 02fe 0400     		.2byte	0x4
 12503 0300 F3       		.byte	0xf3
 12504 0301 01       		.uleb128 0x1
 12505 0302 51       		.byte	0x51
 12506 0303 9F       		.byte	0x9f
 12507 0304 00000000 		.4byte	0
 12508 0308 00000000 		.4byte	0
 12509              	.LLST27:
 12510 030c 00000000 		.4byte	.LVL189
 12511 0310 0E000000 		.4byte	.LVL190
 12512 0314 0100     		.2byte	0x1
 12513 0316 50       		.byte	0x50
 12514 0317 0E000000 		.4byte	.LVL190
 12515 031b 54000000 		.4byte	.LFE54
 12516 031f 0400     		.2byte	0x4
 12517 0321 F3       		.byte	0xf3
 12518 0322 01       		.uleb128 0x1
 12519 0323 50       		.byte	0x50
 12520 0324 9F       		.byte	0x9f
 12521 0325 00000000 		.4byte	0
 12522 0329 00000000 		.4byte	0
 12523              	.LLST28:
 12524 032d 00000000 		.4byte	.LVL202
 12525 0331 10000000 		.4byte	.LVL203
 12526 0335 0100     		.2byte	0x1
 12527 0337 50       		.byte	0x50
 12528 0338 10000000 		.4byte	.LVL203
 12529 033c 58000000 		.4byte	.LFE55
 12530 0340 0400     		.2byte	0x4
 12531 0342 F3       		.byte	0xf3
 12532 0343 01       		.uleb128 0x1
 12533 0344 50       		.byte	0x50
 12534 0345 9F       		.byte	0x9f
 12535 0346 00000000 		.4byte	0
 12536 034a 00000000 		.4byte	0
 12537              	.LLST29:
 12538 034e 00000000 		.4byte	.LVL215
 12539 0352 12000000 		.4byte	.LVL216
 12540 0356 0100     		.2byte	0x1
 12541 0358 50       		.byte	0x50
 12542 0359 12000000 		.4byte	.LVL216
 12543 035d 64000000 		.4byte	.LFE56
 12544 0361 0400     		.2byte	0x4
 12545 0363 F3       		.byte	0xf3
 12546 0364 01       		.uleb128 0x1
 12547 0365 50       		.byte	0x50
 12548 0366 9F       		.byte	0x9f
 12549 0367 00000000 		.4byte	0
 12550 036b 00000000 		.4byte	0
 12551              	.LLST30:
 12552 036f 00000000 		.4byte	.LVL215
 12553 0373 15000000 		.4byte	.LVL217-1
 12554 0377 0100     		.2byte	0x1
 12555 0379 51       		.byte	0x51
 12556 037a 15000000 		.4byte	.LVL217-1
 12557 037e 64000000 		.4byte	.LFE56
 12558 0382 0400     		.2byte	0x4
ARM GAS  C:\Users\Andres\AppData\Local\Temp\ccSsqcxd.s 			page 244


 12559 0384 F3       		.byte	0xf3
 12560 0385 01       		.uleb128 0x1
 12561 0386 51       		.byte	0x51
 12562 0387 9F       		.byte	0x9f
 12563 0388 00000000 		.4byte	0
 12564 038c 00000000 		.4byte	0
 12565              	.LLST31:
 12566 0390 00000000 		.4byte	.LVL230
 12567 0394 18000000 		.4byte	.LVL233
 12568 0398 0100     		.2byte	0x1
 12569 039a 50       		.byte	0x50
 12570 039b 18000000 		.4byte	.LVL233
 12571 039f 70000000 		.4byte	.LFE57
 12572 03a3 0400     		.2byte	0x4
 12573 03a5 F3       		.byte	0xf3
 12574 03a6 01       		.uleb128 0x1
 12575 03a7 50       		.byte	0x50
 12576 03a8 9F       		.byte	0x9f
 12577 03a9 00000000 		.4byte	0
 12578 03ad 00000000 		.4byte	0
 12579              	.LLST32:
 12580 03b1 00000000 		.4byte	.LVL230
 12581 03b5 1B000000 		.4byte	.LVL234-1
 12582 03b9 0100     		.2byte	0x1
 12583 03bb 51       		.byte	0x51
 12584 03bc 1B000000 		.4byte	.LVL234-1
 12585 03c0 70000000 		.4byte	.LFE57
 12586 03c4 0400     		.2byte	0x4
 12587 03c6 F3       		.byte	0xf3
 12588 03c7 01       		.uleb128 0x1
 12589 03c8 51       		.byte	0x51
 12590 03c9 9F       		.byte	0x9f
 12591 03ca 00000000 		.4byte	0
 12592 03ce 00000000 		.4byte	0
 12593              	.LLST33:
 12594 03d2 08000000 		.4byte	.LVL231
 12595 03d6 6A000000 		.4byte	.LVL249
 12596 03da 0100     		.2byte	0x1
 12597 03dc 56       		.byte	0x56
 12598 03dd 6A000000 		.4byte	.LVL249
 12599 03e1 70000000 		.4byte	.LFE57
 12600 03e5 0600     		.2byte	0x6
 12601 03e7 F3       		.byte	0xf3
 12602 03e8 01       		.uleb128 0x1
 12603 03e9 51       		.byte	0x51
 12604 03ea 38       		.byte	0x38
 12605 03eb 26       		.byte	0x26
 12606 03ec 9F       		.byte	0x9f
 12607 03ed 00000000 		.4byte	0
 12608 03f1 00000000 		.4byte	0
 12609              	.LLST34:
 12610 03f5 0A000000 		.4byte	.LVL232
 12611 03f9 6A000000 		.4byte	.LVL248
 12612 03fd 0100     		.2byte	0x1
 12613 03ff 55       		.byte	0x55
 12614 0400 6A000000 		.4byte	.LVL248
 12615 0404 70000000 		.4byte	.LFE57
ARM GAS  C:\Users\Andres\AppData\Local\Temp\ccSsqcxd.s 			page 245


 12616 0408 0400     		.2byte	0x4
 12617 040a F3       		.byte	0xf3
 12618 040b 01       		.uleb128 0x1
 12619 040c 51       		.byte	0x51
 12620 040d 9F       		.byte	0x9f
 12621 040e 00000000 		.4byte	0
 12622 0412 00000000 		.4byte	0
 12623              	.LLST35:
 12624 0416 00000000 		.4byte	.LVL250
 12625 041a 14000000 		.4byte	.LVL251
 12626 041e 0100     		.2byte	0x1
 12627 0420 50       		.byte	0x50
 12628 0421 14000000 		.4byte	.LVL251
 12629 0425 5C000000 		.4byte	.LVL264
 12630 0429 0400     		.2byte	0x4
 12631 042b F3       		.byte	0xf3
 12632 042c 01       		.uleb128 0x1
 12633 042d 50       		.byte	0x50
 12634 042e 9F       		.byte	0x9f
 12635 042f 5C000000 		.4byte	.LVL264
 12636 0433 68000000 		.4byte	.LVL265
 12637 0437 0100     		.2byte	0x1
 12638 0439 50       		.byte	0x50
 12639 043a 68000000 		.4byte	.LVL265
 12640 043e C0000000 		.4byte	.LFE58
 12641 0442 0400     		.2byte	0x4
 12642 0444 F3       		.byte	0xf3
 12643 0445 01       		.uleb128 0x1
 12644 0446 50       		.byte	0x50
 12645 0447 9F       		.byte	0x9f
 12646 0448 00000000 		.4byte	0
 12647 044c 00000000 		.4byte	0
 12648              	.LLST36:
 12649 0450 00000000 		.4byte	.LVL250
 12650 0454 17000000 		.4byte	.LVL252-1
 12651 0458 0100     		.2byte	0x1
 12652 045a 51       		.byte	0x51
 12653 045b 17000000 		.4byte	.LVL252-1
 12654 045f 5C000000 		.4byte	.LVL264
 12655 0463 0400     		.2byte	0x4
 12656 0465 F3       		.byte	0xf3
 12657 0466 01       		.uleb128 0x1
 12658 0467 51       		.byte	0x51
 12659 0468 9F       		.byte	0x9f
 12660 0469 5C000000 		.4byte	.LVL264
 12661 046d 6B000000 		.4byte	.LVL266-1
 12662 0471 0100     		.2byte	0x1
 12663 0473 51       		.byte	0x51
 12664 0474 6B000000 		.4byte	.LVL266-1
 12665 0478 C0000000 		.4byte	.LFE58
 12666 047c 0400     		.2byte	0x4
 12667 047e F3       		.byte	0xf3
 12668 047f 01       		.uleb128 0x1
 12669 0480 51       		.byte	0x51
 12670 0481 9F       		.byte	0x9f
 12671 0482 00000000 		.4byte	0
 12672 0486 00000000 		.4byte	0
ARM GAS  C:\Users\Andres\AppData\Local\Temp\ccSsqcxd.s 			page 246


 12673              	.LLST37:
 12674 048a 00000000 		.4byte	.LVL250
 12675 048e 17000000 		.4byte	.LVL252-1
 12676 0492 0100     		.2byte	0x1
 12677 0494 52       		.byte	0x52
 12678 0495 17000000 		.4byte	.LVL252-1
 12679 0499 5C000000 		.4byte	.LVL264
 12680 049d 0400     		.2byte	0x4
 12681 049f F3       		.byte	0xf3
 12682 04a0 01       		.uleb128 0x1
 12683 04a1 52       		.byte	0x52
 12684 04a2 9F       		.byte	0x9f
 12685 04a3 5C000000 		.4byte	.LVL264
 12686 04a7 6B000000 		.4byte	.LVL266-1
 12687 04ab 0100     		.2byte	0x1
 12688 04ad 52       		.byte	0x52
 12689 04ae 6B000000 		.4byte	.LVL266-1
 12690 04b2 C0000000 		.4byte	.LFE58
 12691 04b6 0400     		.2byte	0x4
 12692 04b8 F3       		.byte	0xf3
 12693 04b9 01       		.uleb128 0x1
 12694 04ba 52       		.byte	0x52
 12695 04bb 9F       		.byte	0x9f
 12696 04bc 00000000 		.4byte	0
 12697 04c0 00000000 		.4byte	0
 12698              	.LLST38:
 12699 04c4 00000000 		.4byte	.LVL280
 12700 04c8 12000000 		.4byte	.LVL281
 12701 04cc 0100     		.2byte	0x1
 12702 04ce 50       		.byte	0x50
 12703 04cf 12000000 		.4byte	.LVL281
 12704 04d3 64000000 		.4byte	.LFE59
 12705 04d7 0400     		.2byte	0x4
 12706 04d9 F3       		.byte	0xf3
 12707 04da 01       		.uleb128 0x1
 12708 04db 50       		.byte	0x50
 12709 04dc 9F       		.byte	0x9f
 12710 04dd 00000000 		.4byte	0
 12711 04e1 00000000 		.4byte	0
 12712              	.LLST39:
 12713 04e5 00000000 		.4byte	.LVL280
 12714 04e9 15000000 		.4byte	.LVL282-1
 12715 04ed 0100     		.2byte	0x1
 12716 04ef 51       		.byte	0x51
 12717 04f0 15000000 		.4byte	.LVL282-1
 12718 04f4 64000000 		.4byte	.LFE59
 12719 04f8 0400     		.2byte	0x4
 12720 04fa F3       		.byte	0xf3
 12721 04fb 01       		.uleb128 0x1
 12722 04fc 51       		.byte	0x51
 12723 04fd 9F       		.byte	0x9f
 12724 04fe 00000000 		.4byte	0
 12725 0502 00000000 		.4byte	0
 12726              	.LLST40:
 12727 0506 00000000 		.4byte	.LVL295
 12728 050a 2A000000 		.4byte	.LVL300
 12729 050e 0100     		.2byte	0x1
ARM GAS  C:\Users\Andres\AppData\Local\Temp\ccSsqcxd.s 			page 247


 12730 0510 50       		.byte	0x50
 12731 0511 2A000000 		.4byte	.LVL300
 12732 0515 94000000 		.4byte	.LFE60
 12733 0519 0400     		.2byte	0x4
 12734 051b F3       		.byte	0xf3
 12735 051c 01       		.uleb128 0x1
 12736 051d 50       		.byte	0x50
 12737 051e 9F       		.byte	0x9f
 12738 051f 00000000 		.4byte	0
 12739 0523 00000000 		.4byte	0
 12740              	.LLST41:
 12741 0527 00000000 		.4byte	.LVL295
 12742 052b 2D000000 		.4byte	.LVL301-1
 12743 052f 0100     		.2byte	0x1
 12744 0531 51       		.byte	0x51
 12745 0532 2D000000 		.4byte	.LVL301-1
 12746 0536 94000000 		.4byte	.LFE60
 12747 053a 0400     		.2byte	0x4
 12748 053c F3       		.byte	0xf3
 12749 053d 01       		.uleb128 0x1
 12750 053e 51       		.byte	0x51
 12751 053f 9F       		.byte	0x9f
 12752 0540 00000000 		.4byte	0
 12753 0544 00000000 		.4byte	0
 12754              	.LLST42:
 12755 0548 00000000 		.4byte	.LVL295
 12756 054c 2D000000 		.4byte	.LVL301-1
 12757 0550 0100     		.2byte	0x1
 12758 0552 52       		.byte	0x52
 12759 0553 2D000000 		.4byte	.LVL301-1
 12760 0557 94000000 		.4byte	.LFE60
 12761 055b 0400     		.2byte	0x4
 12762 055d F3       		.byte	0xf3
 12763 055e 01       		.uleb128 0x1
 12764 055f 52       		.byte	0x52
 12765 0560 9F       		.byte	0x9f
 12766 0561 00000000 		.4byte	0
 12767 0565 00000000 		.4byte	0
 12768              	.LLST43:
 12769 0569 0E000000 		.4byte	.LVL296
 12770 056d 8A000000 		.4byte	.LVL320
 12771 0571 0100     		.2byte	0x1
 12772 0573 58       		.byte	0x58
 12773 0574 8A000000 		.4byte	.LVL320
 12774 0578 94000000 		.4byte	.LFE60
 12775 057c 0600     		.2byte	0x6
 12776 057e F3       		.byte	0xf3
 12777 057f 01       		.uleb128 0x1
 12778 0580 51       		.byte	0x51
 12779 0581 38       		.byte	0x38
 12780 0582 26       		.byte	0x26
 12781 0583 9F       		.byte	0x9f
 12782 0584 00000000 		.4byte	0
 12783 0588 00000000 		.4byte	0
 12784              	.LLST44:
 12785 058c 10000000 		.4byte	.LVL297
 12786 0590 8A000000 		.4byte	.LVL318
ARM GAS  C:\Users\Andres\AppData\Local\Temp\ccSsqcxd.s 			page 248


 12787 0594 0100     		.2byte	0x1
 12788 0596 56       		.byte	0x56
 12789 0597 8A000000 		.4byte	.LVL318
 12790 059b 94000000 		.4byte	.LFE60
 12791 059f 0400     		.2byte	0x4
 12792 05a1 F3       		.byte	0xf3
 12793 05a2 01       		.uleb128 0x1
 12794 05a3 51       		.byte	0x51
 12795 05a4 9F       		.byte	0x9f
 12796 05a5 00000000 		.4byte	0
 12797 05a9 00000000 		.4byte	0
 12798              	.LLST45:
 12799 05ad 14000000 		.4byte	.LVL298
 12800 05b1 8A000000 		.4byte	.LVL319
 12801 05b5 0100     		.2byte	0x1
 12802 05b7 57       		.byte	0x57
 12803 05b8 8A000000 		.4byte	.LVL319
 12804 05bc 94000000 		.4byte	.LFE60
 12805 05c0 0600     		.2byte	0x6
 12806 05c2 F3       		.byte	0xf3
 12807 05c3 01       		.uleb128 0x1
 12808 05c4 52       		.byte	0x52
 12809 05c5 38       		.byte	0x38
 12810 05c6 26       		.byte	0x26
 12811 05c7 9F       		.byte	0x9f
 12812 05c8 00000000 		.4byte	0
 12813 05cc 00000000 		.4byte	0
 12814              	.LLST46:
 12815 05d0 16000000 		.4byte	.LVL299
 12816 05d4 8A000000 		.4byte	.LVL317
 12817 05d8 0100     		.2byte	0x1
 12818 05da 54       		.byte	0x54
 12819 05db 8A000000 		.4byte	.LVL317
 12820 05df 94000000 		.4byte	.LFE60
 12821 05e3 0400     		.2byte	0x4
 12822 05e5 F3       		.byte	0xf3
 12823 05e6 01       		.uleb128 0x1
 12824 05e7 52       		.byte	0x52
 12825 05e8 9F       		.byte	0x9f
 12826 05e9 00000000 		.4byte	0
 12827 05ed 00000000 		.4byte	0
 12828              	.LLST47:
 12829 05f1 00000000 		.4byte	.LVL321
 12830 05f5 18000000 		.4byte	.LVL324
 12831 05f9 0100     		.2byte	0x1
 12832 05fb 50       		.byte	0x50
 12833 05fc 18000000 		.4byte	.LVL324
 12834 0600 70000000 		.4byte	.LFE61
 12835 0604 0400     		.2byte	0x4
 12836 0606 F3       		.byte	0xf3
 12837 0607 01       		.uleb128 0x1
 12838 0608 50       		.byte	0x50
 12839 0609 9F       		.byte	0x9f
 12840 060a 00000000 		.4byte	0
 12841 060e 00000000 		.4byte	0
 12842              	.LLST48:
 12843 0612 00000000 		.4byte	.LVL321
ARM GAS  C:\Users\Andres\AppData\Local\Temp\ccSsqcxd.s 			page 249


 12844 0616 1B000000 		.4byte	.LVL325-1
 12845 061a 0100     		.2byte	0x1
 12846 061c 51       		.byte	0x51
 12847 061d 1B000000 		.4byte	.LVL325-1
 12848 0621 70000000 		.4byte	.LFE61
 12849 0625 0400     		.2byte	0x4
 12850 0627 F3       		.byte	0xf3
 12851 0628 01       		.uleb128 0x1
 12852 0629 51       		.byte	0x51
 12853 062a 9F       		.byte	0x9f
 12854 062b 00000000 		.4byte	0
 12855 062f 00000000 		.4byte	0
 12856              	.LLST49:
 12857 0633 08000000 		.4byte	.LVL322
 12858 0637 6A000000 		.4byte	.LVL340
 12859 063b 0100     		.2byte	0x1
 12860 063d 56       		.byte	0x56
 12861 063e 6A000000 		.4byte	.LVL340
 12862 0642 70000000 		.4byte	.LFE61
 12863 0646 0600     		.2byte	0x6
 12864 0648 F3       		.byte	0xf3
 12865 0649 01       		.uleb128 0x1
 12866 064a 51       		.byte	0x51
 12867 064b 38       		.byte	0x38
 12868 064c 26       		.byte	0x26
 12869 064d 9F       		.byte	0x9f
 12870 064e 00000000 		.4byte	0
 12871 0652 00000000 		.4byte	0
 12872              	.LLST50:
 12873 0656 0A000000 		.4byte	.LVL323
 12874 065a 6A000000 		.4byte	.LVL339
 12875 065e 0100     		.2byte	0x1
 12876 0660 55       		.byte	0x55
 12877 0661 6A000000 		.4byte	.LVL339
 12878 0665 70000000 		.4byte	.LFE61
 12879 0669 0400     		.2byte	0x4
 12880 066b F3       		.byte	0xf3
 12881 066c 01       		.uleb128 0x1
 12882 066d 51       		.byte	0x51
 12883 066e 9F       		.byte	0x9f
 12884 066f 00000000 		.4byte	0
 12885 0673 00000000 		.4byte	0
 12886              	.LLST51:
 12887 0677 00000000 		.4byte	.LVL351
 12888 067b 1C000000 		.4byte	.LVL354
 12889 067f 0100     		.2byte	0x1
 12890 0681 50       		.byte	0x50
 12891 0682 1C000000 		.4byte	.LVL354
 12892 0686 70000000 		.4byte	.LVL369
 12893 068a 0400     		.2byte	0x4
 12894 068c F3       		.byte	0xf3
 12895 068d 01       		.uleb128 0x1
 12896 068e 50       		.byte	0x50
 12897 068f 9F       		.byte	0x9f
 12898 0690 70000000 		.4byte	.LVL369
 12899 0694 86000000 		.4byte	.LVL372
 12900 0698 0100     		.2byte	0x1
ARM GAS  C:\Users\Andres\AppData\Local\Temp\ccSsqcxd.s 			page 250


 12901 069a 50       		.byte	0x50
 12902 069b 86000000 		.4byte	.LVL372
 12903 069f E0000000 		.4byte	.LFE63
 12904 06a3 0400     		.2byte	0x4
 12905 06a5 F3       		.byte	0xf3
 12906 06a6 01       		.uleb128 0x1
 12907 06a7 50       		.byte	0x50
 12908 06a8 9F       		.byte	0x9f
 12909 06a9 00000000 		.4byte	0
 12910 06ad 00000000 		.4byte	0
 12911              	.LLST52:
 12912 06b1 00000000 		.4byte	.LVL351
 12913 06b5 1F000000 		.4byte	.LVL355-1
 12914 06b9 0100     		.2byte	0x1
 12915 06bb 51       		.byte	0x51
 12916 06bc 1F000000 		.4byte	.LVL355-1
 12917 06c0 70000000 		.4byte	.LVL369
 12918 06c4 0400     		.2byte	0x4
 12919 06c6 F3       		.byte	0xf3
 12920 06c7 01       		.uleb128 0x1
 12921 06c8 51       		.byte	0x51
 12922 06c9 9F       		.byte	0x9f
 12923 06ca 70000000 		.4byte	.LVL369
 12924 06ce 89000000 		.4byte	.LVL373-1
 12925 06d2 0100     		.2byte	0x1
 12926 06d4 51       		.byte	0x51
 12927 06d5 89000000 		.4byte	.LVL373-1
 12928 06d9 E0000000 		.4byte	.LFE63
 12929 06dd 0400     		.2byte	0x4
 12930 06df F3       		.byte	0xf3
 12931 06e0 01       		.uleb128 0x1
 12932 06e1 51       		.byte	0x51
 12933 06e2 9F       		.byte	0x9f
 12934 06e3 00000000 		.4byte	0
 12935 06e7 00000000 		.4byte	0
 12936              	.LLST53:
 12937 06eb 00000000 		.4byte	.LVL351
 12938 06ef 1F000000 		.4byte	.LVL355-1
 12939 06f3 0100     		.2byte	0x1
 12940 06f5 52       		.byte	0x52
 12941 06f6 1F000000 		.4byte	.LVL355-1
 12942 06fa 70000000 		.4byte	.LVL369
 12943 06fe 0400     		.2byte	0x4
 12944 0700 F3       		.byte	0xf3
 12945 0701 01       		.uleb128 0x1
 12946 0702 52       		.byte	0x52
 12947 0703 9F       		.byte	0x9f
 12948 0704 70000000 		.4byte	.LVL369
 12949 0708 89000000 		.4byte	.LVL373-1
 12950 070c 0100     		.2byte	0x1
 12951 070e 52       		.byte	0x52
 12952 070f 89000000 		.4byte	.LVL373-1
 12953 0713 E0000000 		.4byte	.LFE63
 12954 0717 0400     		.2byte	0x4
 12955 0719 F3       		.byte	0xf3
 12956 071a 01       		.uleb128 0x1
 12957 071b 52       		.byte	0x52
ARM GAS  C:\Users\Andres\AppData\Local\Temp\ccSsqcxd.s 			page 251


 12958 071c 9F       		.byte	0x9f
 12959 071d 00000000 		.4byte	0
 12960 0721 00000000 		.4byte	0
 12961              	.LLST54:
 12962 0725 0C000000 		.4byte	.LVL352
 12963 0729 70000000 		.4byte	.LVL369
 12964 072d 0100     		.2byte	0x1
 12965 072f 56       		.byte	0x56
 12966 0730 00000000 		.4byte	0
 12967 0734 00000000 		.4byte	0
 12968              	.LLST55:
 12969 0738 0E000000 		.4byte	.LVL353
 12970 073c 70000000 		.4byte	.LVL369
 12971 0740 0100     		.2byte	0x1
 12972 0742 54       		.byte	0x54
 12973 0743 00000000 		.4byte	0
 12974 0747 00000000 		.4byte	0
 12975              	.LLST56:
 12976 074b 76000000 		.4byte	.LVL370
 12977 074f D8000000 		.4byte	.LVL386
 12978 0753 0100     		.2byte	0x1
 12979 0755 56       		.byte	0x56
 12980 0756 00000000 		.4byte	0
 12981 075a 00000000 		.4byte	0
 12982              	.LLST57:
 12983 075e 78000000 		.4byte	.LVL371
 12984 0762 D8000000 		.4byte	.LVL386
 12985 0766 0100     		.2byte	0x1
 12986 0768 54       		.byte	0x54
 12987 0769 00000000 		.4byte	0
 12988 076d 00000000 		.4byte	0
 12989              	.LLST58:
 12990 0771 00000000 		.4byte	.LVL387
 12991 0775 07000000 		.4byte	.LVL388-1
 12992 0779 0100     		.2byte	0x1
 12993 077b 50       		.byte	0x50
 12994 077c 07000000 		.4byte	.LVL388-1
 12995 0780 28010000 		.4byte	.LFE64
 12996 0784 0400     		.2byte	0x4
 12997 0786 F3       		.byte	0xf3
 12998 0787 01       		.uleb128 0x1
 12999 0788 50       		.byte	0x50
 13000 0789 9F       		.byte	0x9f
 13001 078a 00000000 		.4byte	0
 13002 078e 00000000 		.4byte	0
 13003              	.LLST59:
 13004 0792 A4000000 		.4byte	.LVL404
 13005 0796 E4000000 		.4byte	.LVL412
 13006 079a 0100     		.2byte	0x1
 13007 079c 54       		.byte	0x54
 13008 079d EE000000 		.4byte	.LVL414
 13009 07a1 06010000 		.4byte	.LVL419
 13010 07a5 0100     		.2byte	0x1
 13011 07a7 54       		.byte	0x54
 13012 07a8 06010000 		.4byte	.LVL419
 13013 07ac 28010000 		.4byte	.LFE64
 13014 07b0 0100     		.2byte	0x1
ARM GAS  C:\Users\Andres\AppData\Local\Temp\ccSsqcxd.s 			page 252


 13015 07b2 50       		.byte	0x50
 13016 07b3 00000000 		.4byte	0
 13017 07b7 00000000 		.4byte	0
 13018              	.LLST60:
 13019 07bb 00000000 		.4byte	.LVL420
 13020 07bf 2C000000 		.4byte	.LVL425
 13021 07c3 0100     		.2byte	0x1
 13022 07c5 50       		.byte	0x50
 13023 07c6 2C000000 		.4byte	.LVL425
 13024 07ca 9C000000 		.4byte	.LFE65
 13025 07ce 0400     		.2byte	0x4
 13026 07d0 F3       		.byte	0xf3
 13027 07d1 01       		.uleb128 0x1
 13028 07d2 50       		.byte	0x50
 13029 07d3 9F       		.byte	0x9f
 13030 07d4 00000000 		.4byte	0
 13031 07d8 00000000 		.4byte	0
 13032              	.LLST61:
 13033 07dc 00000000 		.4byte	.LVL420
 13034 07e0 2F000000 		.4byte	.LVL426-1
 13035 07e4 0100     		.2byte	0x1
 13036 07e6 51       		.byte	0x51
 13037 07e7 2F000000 		.4byte	.LVL426-1
 13038 07eb 9C000000 		.4byte	.LFE65
 13039 07ef 0400     		.2byte	0x4
 13040 07f1 F3       		.byte	0xf3
 13041 07f2 01       		.uleb128 0x1
 13042 07f3 51       		.byte	0x51
 13043 07f4 9F       		.byte	0x9f
 13044 07f5 00000000 		.4byte	0
 13045 07f9 00000000 		.4byte	0
 13046              	.LLST62:
 13047 07fd 00000000 		.4byte	.LVL420
 13048 0801 2F000000 		.4byte	.LVL426-1
 13049 0805 0100     		.2byte	0x1
 13050 0807 52       		.byte	0x52
 13051 0808 2F000000 		.4byte	.LVL426-1
 13052 080c 9C000000 		.4byte	.LFE65
 13053 0810 0400     		.2byte	0x4
 13054 0812 F3       		.byte	0xf3
 13055 0813 01       		.uleb128 0x1
 13056 0814 52       		.byte	0x52
 13057 0815 9F       		.byte	0x9f
 13058 0816 00000000 		.4byte	0
 13059 081a 00000000 		.4byte	0
 13060              	.LLST63:
 13061 081e 0E000000 		.4byte	.LVL421
 13062 0822 92000000 		.4byte	.LVL446
 13063 0826 0100     		.2byte	0x1
 13064 0828 58       		.byte	0x58
 13065 0829 92000000 		.4byte	.LVL446
 13066 082d 9C000000 		.4byte	.LFE65
 13067 0831 0600     		.2byte	0x6
 13068 0833 F3       		.byte	0xf3
 13069 0834 01       		.uleb128 0x1
 13070 0835 51       		.byte	0x51
 13071 0836 38       		.byte	0x38
ARM GAS  C:\Users\Andres\AppData\Local\Temp\ccSsqcxd.s 			page 253


 13072 0837 26       		.byte	0x26
 13073 0838 9F       		.byte	0x9f
 13074 0839 00000000 		.4byte	0
 13075 083d 00000000 		.4byte	0
 13076              	.LLST64:
 13077 0841 10000000 		.4byte	.LVL422
 13078 0845 92000000 		.4byte	.LVL444
 13079 0849 0100     		.2byte	0x1
 13080 084b 56       		.byte	0x56
 13081 084c 92000000 		.4byte	.LVL444
 13082 0850 9C000000 		.4byte	.LFE65
 13083 0854 0400     		.2byte	0x4
 13084 0856 F3       		.byte	0xf3
 13085 0857 01       		.uleb128 0x1
 13086 0858 51       		.byte	0x51
 13087 0859 9F       		.byte	0x9f
 13088 085a 00000000 		.4byte	0
 13089 085e 00000000 		.4byte	0
 13090              	.LLST65:
 13091 0862 14000000 		.4byte	.LVL423
 13092 0866 92000000 		.4byte	.LVL445
 13093 086a 0100     		.2byte	0x1
 13094 086c 57       		.byte	0x57
 13095 086d 92000000 		.4byte	.LVL445
 13096 0871 9C000000 		.4byte	.LFE65
 13097 0875 0600     		.2byte	0x6
 13098 0877 F3       		.byte	0xf3
 13099 0878 01       		.uleb128 0x1
 13100 0879 52       		.byte	0x52
 13101 087a 38       		.byte	0x38
 13102 087b 26       		.byte	0x26
 13103 087c 9F       		.byte	0x9f
 13104 087d 00000000 		.4byte	0
 13105 0881 00000000 		.4byte	0
 13106              	.LLST66:
 13107 0885 16000000 		.4byte	.LVL424
 13108 0889 92000000 		.4byte	.LVL443
 13109 088d 0100     		.2byte	0x1
 13110 088f 54       		.byte	0x54
 13111 0890 92000000 		.4byte	.LVL443
 13112 0894 9C000000 		.4byte	.LFE65
 13113 0898 0400     		.2byte	0x4
 13114 089a F3       		.byte	0xf3
 13115 089b 01       		.uleb128 0x1
 13116 089c 52       		.byte	0x52
 13117 089d 9F       		.byte	0x9f
 13118 089e 00000000 		.4byte	0
 13119 08a2 00000000 		.4byte	0
 13120              	.LLST67:
 13121 08a6 00000000 		.4byte	.LVL449
 13122 08aa 15000000 		.4byte	.LVL451-1
 13123 08ae 0100     		.2byte	0x1
 13124 08b0 50       		.byte	0x50
 13125 08b1 15000000 		.4byte	.LVL451-1
 13126 08b5 24000000 		.4byte	.LFE67
 13127 08b9 0400     		.2byte	0x4
 13128 08bb F3       		.byte	0xf3
ARM GAS  C:\Users\Andres\AppData\Local\Temp\ccSsqcxd.s 			page 254


 13129 08bc 01       		.uleb128 0x1
 13130 08bd 50       		.byte	0x50
 13131 08be 9F       		.byte	0x9f
 13132 08bf 00000000 		.4byte	0
 13133 08c3 00000000 		.4byte	0
 13134              	.LLST68:
 13135 08c7 00000000 		.4byte	.LVL449
 13136 08cb 0C000000 		.4byte	.LVL450
 13137 08cf 0100     		.2byte	0x1
 13138 08d1 51       		.byte	0x51
 13139 08d2 0C000000 		.4byte	.LVL450
 13140 08d6 24000000 		.4byte	.LFE67
 13141 08da 0400     		.2byte	0x4
 13142 08dc F3       		.byte	0xf3
 13143 08dd 01       		.uleb128 0x1
 13144 08de 51       		.byte	0x51
 13145 08df 9F       		.byte	0x9f
 13146 08e0 00000000 		.4byte	0
 13147 08e4 00000000 		.4byte	0
 13148              	.LLST69:
 13149 08e8 00000000 		.4byte	.LVL449
 13150 08ec 15000000 		.4byte	.LVL451-1
 13151 08f0 0100     		.2byte	0x1
 13152 08f2 52       		.byte	0x52
 13153 08f3 15000000 		.4byte	.LVL451-1
 13154 08f7 24000000 		.4byte	.LFE67
 13155 08fb 0400     		.2byte	0x4
 13156 08fd F3       		.byte	0xf3
 13157 08fe 01       		.uleb128 0x1
 13158 08ff 52       		.byte	0x52
 13159 0900 9F       		.byte	0x9f
 13160 0901 00000000 		.4byte	0
 13161 0905 00000000 		.4byte	0
 13162              	.LLST70:
 13163 0909 48000000 		.4byte	.LVL476
 13164 090d 5D000000 		.4byte	.LVL477-1
 13165 0911 0100     		.2byte	0x1
 13166 0913 52       		.byte	0x52
 13167 0914 00000000 		.4byte	0
 13168 0918 00000000 		.4byte	0
 13169              	.LLST71:
 13170 091c 48000000 		.4byte	.LVL476
 13171 0920 5D000000 		.4byte	.LVL477-1
 13172 0924 0100     		.2byte	0x1
 13173 0926 50       		.byte	0x50
 13174 0927 00000000 		.4byte	0
 13175 092b 00000000 		.4byte	0
 13176              	.LLST72:
 13177 092f 00000000 		.4byte	.LVL495
 13178 0933 0E000000 		.4byte	.LVL498
 13179 0937 0100     		.2byte	0x1
 13180 0939 50       		.byte	0x50
 13181 093a 0E000000 		.4byte	.LVL498
 13182 093e 13000000 		.4byte	.LVL500-1
 13183 0942 0300     		.2byte	0x3
 13184 0944 70       		.byte	0x70
 13185 0945 7F       		.sleb128 -1
ARM GAS  C:\Users\Andres\AppData\Local\Temp\ccSsqcxd.s 			page 255


 13186 0946 9F       		.byte	0x9f
 13187 0947 13000000 		.4byte	.LVL500-1
 13188 094b 16000000 		.4byte	.LVL501
 13189 094f 0400     		.2byte	0x4
 13190 0951 F3       		.byte	0xf3
 13191 0952 01       		.uleb128 0x1
 13192 0953 50       		.byte	0x50
 13193 0954 9F       		.byte	0x9f
 13194 0955 16000000 		.4byte	.LVL501
 13195 0959 2D000000 		.4byte	.LVL503-1
 13196 095d 0100     		.2byte	0x1
 13197 095f 50       		.byte	0x50
 13198 0960 2D000000 		.4byte	.LVL503-1
 13199 0964 3C000000 		.4byte	.LFE70
 13200 0968 0400     		.2byte	0x4
 13201 096a F3       		.byte	0xf3
 13202 096b 01       		.uleb128 0x1
 13203 096c 50       		.byte	0x50
 13204 096d 9F       		.byte	0x9f
 13205 096e 00000000 		.4byte	0
 13206 0972 00000000 		.4byte	0
 13207              	.LLST73:
 13208 0976 00000000 		.4byte	.LVL495
 13209 097a 13000000 		.4byte	.LVL500-1
 13210 097e 0100     		.2byte	0x1
 13211 0980 51       		.byte	0x51
 13212 0981 13000000 		.4byte	.LVL500-1
 13213 0985 16000000 		.4byte	.LVL501
 13214 0989 0400     		.2byte	0x4
 13215 098b F3       		.byte	0xf3
 13216 098c 01       		.uleb128 0x1
 13217 098d 51       		.byte	0x51
 13218 098e 9F       		.byte	0x9f
 13219 098f 16000000 		.4byte	.LVL501
 13220 0993 1A000000 		.4byte	.LVL502
 13221 0997 0100     		.2byte	0x1
 13222 0999 51       		.byte	0x51
 13223 099a 1A000000 		.4byte	.LVL502
 13224 099e 3C000000 		.4byte	.LFE70
 13225 09a2 0400     		.2byte	0x4
 13226 09a4 F3       		.byte	0xf3
 13227 09a5 01       		.uleb128 0x1
 13228 09a6 51       		.byte	0x51
 13229 09a7 9F       		.byte	0x9f
 13230 09a8 00000000 		.4byte	0
 13231 09ac 00000000 		.4byte	0
 13232              	.LLST74:
 13233 09b0 06000000 		.4byte	.LVL496
 13234 09b4 10000000 		.4byte	.LVL499
 13235 09b8 0100     		.2byte	0x1
 13236 09ba 52       		.byte	0x52
 13237 09bb 10000000 		.4byte	.LVL499
 13238 09bf 13000000 		.4byte	.LVL500-1
 13239 09c3 0100     		.2byte	0x1
 13240 09c5 53       		.byte	0x53
 13241 09c6 13000000 		.4byte	.LVL500-1
 13242 09ca 16000000 		.4byte	.LVL501
ARM GAS  C:\Users\Andres\AppData\Local\Temp\ccSsqcxd.s 			page 256


 13243 09ce 0600     		.2byte	0x6
 13244 09d0 F3       		.byte	0xf3
 13245 09d1 01       		.uleb128 0x1
 13246 09d2 51       		.byte	0x51
 13247 09d3 38       		.byte	0x38
 13248 09d4 26       		.byte	0x26
 13249 09d5 9F       		.byte	0x9f
 13250 09d6 16000000 		.4byte	.LVL501
 13251 09da 2D000000 		.4byte	.LVL503-1
 13252 09de 0100     		.2byte	0x1
 13253 09e0 52       		.byte	0x52
 13254 09e1 2D000000 		.4byte	.LVL503-1
 13255 09e5 3C000000 		.4byte	.LFE70
 13256 09e9 0600     		.2byte	0x6
 13257 09eb F3       		.byte	0xf3
 13258 09ec 01       		.uleb128 0x1
 13259 09ed 51       		.byte	0x51
 13260 09ee 38       		.byte	0x38
 13261 09ef 26       		.byte	0x26
 13262 09f0 9F       		.byte	0x9f
 13263 09f1 00000000 		.4byte	0
 13264 09f5 00000000 		.4byte	0
 13265              	.LLST75:
 13266 09f9 08000000 		.4byte	.LVL497
 13267 09fd 36000000 		.4byte	.LVL505
 13268 0a01 0100     		.2byte	0x1
 13269 0a03 54       		.byte	0x54
 13270 0a04 36000000 		.4byte	.LVL505
 13271 0a08 3C000000 		.4byte	.LFE70
 13272 0a0c 0400     		.2byte	0x4
 13273 0a0e F3       		.byte	0xf3
 13274 0a0f 01       		.uleb128 0x1
 13275 0a10 51       		.byte	0x51
 13276 0a11 9F       		.byte	0x9f
 13277 0a12 00000000 		.4byte	0
 13278 0a16 00000000 		.4byte	0
 13279              	.LLST76:
 13280 0a1a 00000000 		.4byte	.LVL506
 13281 0a1e 41000000 		.4byte	.LVL514-1
 13282 0a22 0100     		.2byte	0x1
 13283 0a24 50       		.byte	0x50
 13284 0a25 41000000 		.4byte	.LVL514-1
 13285 0a29 28010000 		.4byte	.LFE71
 13286 0a2d 0400     		.2byte	0x4
 13287 0a2f F3       		.byte	0xf3
 13288 0a30 01       		.uleb128 0x1
 13289 0a31 50       		.byte	0x50
 13290 0a32 9F       		.byte	0x9f
 13291 0a33 00000000 		.4byte	0
 13292 0a37 00000000 		.4byte	0
 13293              	.LLST77:
 13294 0a3b 20000000 		.4byte	.LVL508
 13295 0a3f 22000000 		.4byte	.LVL509
 13296 0a43 0300     		.2byte	0x3
 13297 0a45 74       		.byte	0x74
 13298 0a46 01       		.sleb128 1
 13299 0a47 9F       		.byte	0x9f
ARM GAS  C:\Users\Andres\AppData\Local\Temp\ccSsqcxd.s 			page 257


 13300 0a48 22000000 		.4byte	.LVL509
 13301 0a4c 74000000 		.4byte	.LVL524
 13302 0a50 0100     		.2byte	0x1
 13303 0a52 54       		.byte	0x54
 13304 0a53 74000000 		.4byte	.LVL524
 13305 0a57 EA000000 		.4byte	.LVL547
 13306 0a5b 0300     		.2byte	0x3
 13307 0a5d 75       		.byte	0x75
 13308 0a5e 01       		.sleb128 1
 13309 0a5f 9F       		.byte	0x9f
 13310 0a60 00000000 		.4byte	0
 13311 0a64 00000000 		.4byte	0
 13312              	.LLST78:
 13313 0a68 1E000000 		.4byte	.LVL507
 13314 0a6c 20000000 		.4byte	.LVL508
 13315 0a70 0100     		.2byte	0x1
 13316 0a72 54       		.byte	0x54
 13317 0a73 20000000 		.4byte	.LVL508
 13318 0a77 EA000000 		.4byte	.LVL547
 13319 0a7b 0100     		.2byte	0x1
 13320 0a7d 55       		.byte	0x55
 13321 0a7e 00000000 		.4byte	0
 13322 0a82 00000000 		.4byte	0
 13323              	.LLST79:
 13324 0a86 72000000 		.4byte	.LVL523
 13325 0a8a 76000000 		.4byte	.LVL525
 13326 0a8e 0200     		.2byte	0x2
 13327 0a90 30       		.byte	0x30
 13328 0a91 9F       		.byte	0x9f
 13329 0a92 76000000 		.4byte	.LVL525
 13330 0a96 EA000000 		.4byte	.LVL547
 13331 0a9a 0100     		.2byte	0x1
 13332 0a9c 54       		.byte	0x54
 13333 0a9d 00000000 		.4byte	0
 13334 0aa1 00000000 		.4byte	0
 13335              	.LLST80:
 13336 0aa5 CC000000 		.4byte	.LVL539
 13337 0aa9 DE000000 		.4byte	.LVL544
 13338 0aad 0100     		.2byte	0x1
 13339 0aaf 54       		.byte	0x54
 13340 0ab0 DE000000 		.4byte	.LVL544
 13341 0ab4 E1000000 		.4byte	.LVL545-1
 13342 0ab8 0100     		.2byte	0x1
 13343 0aba 50       		.byte	0x50
 13344 0abb 00000000 		.4byte	0
 13345 0abf 00000000 		.4byte	0
 13346              	.LLST81:
 13347 0ac3 CC000000 		.4byte	.LVL539
 13348 0ac7 D6000000 		.4byte	.LVL540
 13349 0acb 0100     		.2byte	0x1
 13350 0acd 50       		.byte	0x50
 13351 0ace D6000000 		.4byte	.LVL540
 13352 0ad2 D8000000 		.4byte	.LVL541
 13353 0ad6 0100     		.2byte	0x1
 13354 0ad8 51       		.byte	0x51
 13355 0ad9 D8000000 		.4byte	.LVL541
 13356 0add DA000000 		.4byte	.LVL542
ARM GAS  C:\Users\Andres\AppData\Local\Temp\ccSsqcxd.s 			page 258


 13357 0ae1 0100     		.2byte	0x1
 13358 0ae3 50       		.byte	0x50
 13359 0ae4 DA000000 		.4byte	.LVL542
 13360 0ae8 DC000000 		.4byte	.LVL543
 13361 0aec 0100     		.2byte	0x1
 13362 0aee 51       		.byte	0x51
 13363 0aef DC000000 		.4byte	.LVL543
 13364 0af3 DE000000 		.4byte	.LVL544
 13365 0af7 0100     		.2byte	0x1
 13366 0af9 50       		.byte	0x50
 13367 0afa DE000000 		.4byte	.LVL544
 13368 0afe E1000000 		.4byte	.LVL545-1
 13369 0b02 0100     		.2byte	0x1
 13370 0b04 51       		.byte	0x51
 13371 0b05 00000000 		.4byte	0
 13372 0b09 00000000 		.4byte	0
 13373              	.LLST83:
 13374 0b0d 32000000 		.4byte	.LVL510
 13375 0b11 34000000 		.4byte	.LVL511
 13376 0b15 0200     		.2byte	0x2
 13377 0b17 72       		.byte	0x72
 13378 0b18 00       		.sleb128 0
 13379 0b19 34000000 		.4byte	.LVL511
 13380 0b1d EA000000 		.4byte	.LVL547
 13381 0b21 0200     		.2byte	0x2
 13382 0b23 78       		.byte	0x78
 13383 0b24 00       		.sleb128 0
 13384 0b25 00000000 		.4byte	0
 13385 0b29 00000000 		.4byte	0
 13386              	.LLST85:
 13387 0b2d 38000000 		.4byte	.LVL512
 13388 0b31 41000000 		.4byte	.LVL514-1
 13389 0b35 0200     		.2byte	0x2
 13390 0b37 72       		.byte	0x72
 13391 0b38 00       		.sleb128 0
 13392 0b39 41000000 		.4byte	.LVL514-1
 13393 0b3d EA000000 		.4byte	.LVL547
 13394 0b41 0200     		.2byte	0x2
 13395 0b43 7A       		.byte	0x7a
 13396 0b44 00       		.sleb128 0
 13397 0b45 00000000 		.4byte	0
 13398 0b49 00000000 		.4byte	0
 13399              	.LLST87:
 13400 0b4d 3E000000 		.4byte	.LVL513
 13401 0b51 41000000 		.4byte	.LVL514-1
 13402 0b55 0200     		.2byte	0x2
 13403 0b57 73       		.byte	0x73
 13404 0b58 00       		.sleb128 0
 13405 0b59 41000000 		.4byte	.LVL514-1
 13406 0b5d EA000000 		.4byte	.LVL547
 13407 0b61 0200     		.2byte	0x2
 13408 0b63 79       		.byte	0x79
 13409 0b64 00       		.sleb128 0
 13410 0b65 00000000 		.4byte	0
 13411 0b69 00000000 		.4byte	0
 13412              	.LLST88:
 13413 0b6d B0000000 		.4byte	.LVL533
ARM GAS  C:\Users\Andres\AppData\Local\Temp\ccSsqcxd.s 			page 259


 13414 0b71 B5000000 		.4byte	.LVL534-1
 13415 0b75 0100     		.2byte	0x1
 13416 0b77 50       		.byte	0x50
 13417 0b78 C6000000 		.4byte	.LVL537
 13418 0b7c C9000000 		.4byte	.LVL538-1
 13419 0b80 0100     		.2byte	0x1
 13420 0b82 50       		.byte	0x50
 13421 0b83 00000000 		.4byte	0
 13422 0b87 00000000 		.4byte	0
 13423              	.LLST89:
 13424 0b8b 58000000 		.4byte	.LVL518
 13425 0b8f 5A000000 		.4byte	.LVL519
 13426 0b93 0100     		.2byte	0x1
 13427 0b95 50       		.byte	0x50
 13428 0b96 5A000000 		.4byte	.LVL519
 13429 0b9a EA000000 		.4byte	.LVL547
 13430 0b9e 0200     		.2byte	0x2
 13431 0ba0 77       		.byte	0x77
 13432 0ba1 2C       		.sleb128 44
 13433 0ba2 00000000 		.4byte	0
 13434 0ba6 00000000 		.4byte	0
 13435              	.LLST82:
 13436 0baa 22000000 		.4byte	.LVL509
 13437 0bae EA000000 		.4byte	.LVL547
 13438 0bb2 0300     		.2byte	0x3
 13439 0bb4 75       		.byte	0x75
 13440 0bb5 7F       		.sleb128 -1
 13441 0bb6 9F       		.byte	0x9f
 13442 0bb7 00000000 		.4byte	0
 13443 0bbb 00000000 		.4byte	0
 13444              	.LLST84:
 13445 0bbf 32000000 		.4byte	.LVL510
 13446 0bc3 EA000000 		.4byte	.LVL547
 13447 0bc7 0300     		.2byte	0x3
 13448 0bc9 75       		.byte	0x75
 13449 0bca 7F       		.sleb128 -1
 13450 0bcb 9F       		.byte	0x9f
 13451 0bcc 00000000 		.4byte	0
 13452 0bd0 00000000 		.4byte	0
 13453              	.LLST86:
 13454 0bd4 38000000 		.4byte	.LVL512
 13455 0bd8 EA000000 		.4byte	.LVL547
 13456 0bdc 0300     		.2byte	0x3
 13457 0bde 75       		.byte	0x75
 13458 0bdf 7F       		.sleb128 -1
 13459 0be0 9F       		.byte	0x9f
 13460 0be1 00000000 		.4byte	0
 13461 0be5 00000000 		.4byte	0
 13462              	.LLST90:
 13463 0be9 D0000000 		.4byte	.LVL585
 13464 0bed 8C020000 		.4byte	.LVL636
 13465 0bf1 0100     		.2byte	0x1
 13466 0bf3 56       		.byte	0x56
 13467 0bf4 8E020000 		.4byte	.LVL637
 13468 0bf8 2A040000 		.4byte	.LFE73
 13469 0bfc 0100     		.2byte	0x1
 13470 0bfe 56       		.byte	0x56
ARM GAS  C:\Users\Andres\AppData\Local\Temp\ccSsqcxd.s 			page 260


 13471 0bff 00000000 		.4byte	0
 13472 0c03 00000000 		.4byte	0
 13473              	.LLST91:
 13474 0c07 BE000000 		.4byte	.LVL579
 13475 0c0b C1000000 		.4byte	.LVL580-1
 13476 0c0f 0100     		.2byte	0x1
 13477 0c11 50       		.byte	0x50
 13478 0c12 C1000000 		.4byte	.LVL580-1
 13479 0c16 F4000000 		.4byte	.LVL590
 13480 0c1a 0100     		.2byte	0x1
 13481 0c1c 55       		.byte	0x55
 13482 0c1d F4000000 		.4byte	.LVL590
 13483 0c21 F7000000 		.4byte	.LVL591-1
 13484 0c25 0100     		.2byte	0x1
 13485 0c27 50       		.byte	0x50
 13486 0c28 F7000000 		.4byte	.LVL591-1
 13487 0c2c 9A020000 		.4byte	.LVL640
 13488 0c30 0100     		.2byte	0x1
 13489 0c32 55       		.byte	0x55
 13490 0c33 9A020000 		.4byte	.LVL640
 13491 0c37 9D020000 		.4byte	.LVL641-1
 13492 0c3b 0100     		.2byte	0x1
 13493 0c3d 50       		.byte	0x50
 13494 0c3e 9D020000 		.4byte	.LVL641-1
 13495 0c42 2A040000 		.4byte	.LFE73
 13496 0c46 0100     		.2byte	0x1
 13497 0c48 55       		.byte	0x55
 13498 0c49 00000000 		.4byte	0
 13499 0c4d 00000000 		.4byte	0
 13500              	.LLST92:
 13501 0c51 C4000000 		.4byte	.LVL581
 13502 0c55 C7000000 		.4byte	.LVL582-1
 13503 0c59 0100     		.2byte	0x1
 13504 0c5b 50       		.byte	0x50
 13505 0c5c C7000000 		.4byte	.LVL582-1
 13506 0c60 FA000000 		.4byte	.LVL592
 13507 0c64 0100     		.2byte	0x1
 13508 0c66 57       		.byte	0x57
 13509 0c67 FA000000 		.4byte	.LVL592
 13510 0c6b FD000000 		.4byte	.LVL593-1
 13511 0c6f 0100     		.2byte	0x1
 13512 0c71 50       		.byte	0x50
 13513 0c72 FD000000 		.4byte	.LVL593-1
 13514 0c76 2A040000 		.4byte	.LFE73
 13515 0c7a 0100     		.2byte	0x1
 13516 0c7c 57       		.byte	0x57
 13517 0c7d 00000000 		.4byte	0
 13518 0c81 00000000 		.4byte	0
 13519              	.LLST93:
 13520 0c85 CA000000 		.4byte	.LVL583
 13521 0c89 CC000000 		.4byte	.LVL584
 13522 0c8d 0100     		.2byte	0x1
 13523 0c8f 50       		.byte	0x50
 13524 0c90 CC000000 		.4byte	.LVL584
 13525 0c94 00010000 		.4byte	.LVL594
 13526 0c98 0100     		.2byte	0x1
 13527 0c9a 58       		.byte	0x58
ARM GAS  C:\Users\Andres\AppData\Local\Temp\ccSsqcxd.s 			page 261


 13528 0c9b 00010000 		.4byte	.LVL594
 13529 0c9f 02010000 		.4byte	.LVL595
 13530 0ca3 0100     		.2byte	0x1
 13531 0ca5 50       		.byte	0x50
 13532 0ca6 02010000 		.4byte	.LVL595
 13533 0caa 2A040000 		.4byte	.LFE73
 13534 0cae 0100     		.2byte	0x1
 13535 0cb0 58       		.byte	0x58
 13536 0cb1 00000000 		.4byte	0
 13537 0cb5 00000000 		.4byte	0
 13538              	.LLST94:
 13539 0cb9 30010000 		.4byte	.LVL597
 13540 0cbd 4D010000 		.4byte	.LVL598-1
 13541 0cc1 0100     		.2byte	0x1
 13542 0cc3 53       		.byte	0x53
 13543 0cc4 5C010000 		.4byte	.LVL600
 13544 0cc8 69010000 		.4byte	.LVL601-1
 13545 0ccc 0100     		.2byte	0x1
 13546 0cce 53       		.byte	0x53
 13547 0ccf EC010000 		.4byte	.LVL617
 13548 0cd3 F9010000 		.4byte	.LVL618-1
 13549 0cd7 0100     		.2byte	0x1
 13550 0cd9 53       		.byte	0x53
 13551 0cda 00000000 		.4byte	0
 13552 0cde 00000000 		.4byte	0
 13553              	.LLST95:
 13554 0ce2 E0000000 		.4byte	.LVL586
 13555 0ce6 EA000000 		.4byte	.LVL587
 13556 0cea 0100     		.2byte	0x1
 13557 0cec 50       		.byte	0x50
 13558 0ced 00000000 		.4byte	0
 13559 0cf1 00000000 		.4byte	0
 13560              		.section	.debug_aranges,"",%progbits
 13561 0000 44010000 		.4byte	0x144
 13562 0004 0200     		.2byte	0x2
 13563 0006 00000000 		.4byte	.Ldebug_info0
 13564 000a 04       		.byte	0x4
 13565 000b 00       		.byte	0
 13566 000c 0000     		.2byte	0
 13567 000e 0000     		.2byte	0
 13568 0010 00000000 		.4byte	.LFB36
 13569 0014 22000000 		.4byte	.LFE36-.LFB36
 13570 0018 00000000 		.4byte	.LFB37
 13571 001c 3C000000 		.4byte	.LFE37-.LFB37
 13572 0020 00000000 		.4byte	.LFB38
 13573 0024 8C000000 		.4byte	.LFE38-.LFB38
 13574 0028 00000000 		.4byte	.LFB39
 13575 002c 30000000 		.4byte	.LFE39-.LFB39
 13576 0030 00000000 		.4byte	.LFB40
 13577 0034 30000000 		.4byte	.LFE40-.LFB40
 13578 0038 00000000 		.4byte	.LFB41
 13579 003c 22000000 		.4byte	.LFE41-.LFB41
 13580 0040 00000000 		.4byte	.LFB42
 13581 0044 3C000000 		.4byte	.LFE42-.LFB42
 13582 0048 00000000 		.4byte	.LFB43
 13583 004c 8C000000 		.4byte	.LFE43-.LFB43
 13584 0050 00000000 		.4byte	.LFB44
ARM GAS  C:\Users\Andres\AppData\Local\Temp\ccSsqcxd.s 			page 262


 13585 0054 30000000 		.4byte	.LFE44-.LFB44
 13586 0058 00000000 		.4byte	.LFB45
 13587 005c 30000000 		.4byte	.LFE45-.LFB45
 13588 0060 00000000 		.4byte	.LFB46
 13589 0064 22000000 		.4byte	.LFE46-.LFB46
 13590 0068 00000000 		.4byte	.LFB47
 13591 006c 3C000000 		.4byte	.LFE47-.LFB47
 13592 0070 00000000 		.4byte	.LFB48
 13593 0074 8C000000 		.4byte	.LFE48-.LFB48
 13594 0078 00000000 		.4byte	.LFB49
 13595 007c 30000000 		.4byte	.LFE49-.LFB49
 13596 0080 00000000 		.4byte	.LFB50
 13597 0084 30000000 		.4byte	.LFE50-.LFB50
 13598 0088 00000000 		.4byte	.LFB51
 13599 008c A0000000 		.4byte	.LFE51-.LFB51
 13600 0090 00000000 		.4byte	.LFB52
 13601 0094 FC000000 		.4byte	.LFE52-.LFB52
 13602 0098 00000000 		.4byte	.LFB53
 13603 009c 64000000 		.4byte	.LFE53-.LFB53
 13604 00a0 00000000 		.4byte	.LFB54
 13605 00a4 54000000 		.4byte	.LFE54-.LFB54
 13606 00a8 00000000 		.4byte	.LFB55
 13607 00ac 58000000 		.4byte	.LFE55-.LFB55
 13608 00b0 00000000 		.4byte	.LFB56
 13609 00b4 64000000 		.4byte	.LFE56-.LFB56
 13610 00b8 00000000 		.4byte	.LFB57
 13611 00bc 70000000 		.4byte	.LFE57-.LFB57
 13612 00c0 00000000 		.4byte	.LFB58
 13613 00c4 C0000000 		.4byte	.LFE58-.LFB58
 13614 00c8 00000000 		.4byte	.LFB59
 13615 00cc 64000000 		.4byte	.LFE59-.LFB59
 13616 00d0 00000000 		.4byte	.LFB60
 13617 00d4 94000000 		.4byte	.LFE60-.LFB60
 13618 00d8 00000000 		.4byte	.LFB61
 13619 00dc 70000000 		.4byte	.LFE61-.LFB61
 13620 00e0 00000000 		.4byte	.LFB62
 13621 00e4 42000000 		.4byte	.LFE62-.LFB62
 13622 00e8 00000000 		.4byte	.LFB63
 13623 00ec E0000000 		.4byte	.LFE63-.LFB63
 13624 00f0 00000000 		.4byte	.LFB64
 13625 00f4 28010000 		.4byte	.LFE64-.LFB64
 13626 00f8 00000000 		.4byte	.LFB65
 13627 00fc 9C000000 		.4byte	.LFE65-.LFB65
 13628 0100 00000000 		.4byte	.LFB66
 13629 0104 30000000 		.4byte	.LFE66-.LFB66
 13630 0108 00000000 		.4byte	.LFB67
 13631 010c 24000000 		.4byte	.LFE67-.LFB67
 13632 0110 00000000 		.4byte	.LFB68
 13633 0114 38010000 		.4byte	.LFE68-.LFB68
 13634 0118 00000000 		.4byte	.LFB69
 13635 011c 7C010000 		.4byte	.LFE69-.LFB69
 13636 0120 00000000 		.4byte	.LFB72
 13637 0124 0C000000 		.4byte	.LFE72-.LFB72
 13638 0128 00000000 		.4byte	.LFB70
 13639 012c 3C000000 		.4byte	.LFE70-.LFB70
 13640 0130 00000000 		.4byte	.LFB71
 13641 0134 28010000 		.4byte	.LFE71-.LFB71
ARM GAS  C:\Users\Andres\AppData\Local\Temp\ccSsqcxd.s 			page 263


 13642 0138 00000000 		.4byte	.LFB73
 13643 013c 2A040000 		.4byte	.LFE73-.LFB73
 13644 0140 00000000 		.4byte	0
 13645 0144 00000000 		.4byte	0
 13646              		.section	.debug_ranges,"",%progbits
 13647              	.Ldebug_ranges0:
 13648 0000 00000000 		.4byte	.LFB36
 13649 0004 22000000 		.4byte	.LFE36
 13650 0008 00000000 		.4byte	.LFB37
 13651 000c 3C000000 		.4byte	.LFE37
 13652 0010 00000000 		.4byte	.LFB38
 13653 0014 8C000000 		.4byte	.LFE38
 13654 0018 00000000 		.4byte	.LFB39
 13655 001c 30000000 		.4byte	.LFE39
 13656 0020 00000000 		.4byte	.LFB40
 13657 0024 30000000 		.4byte	.LFE40
 13658 0028 00000000 		.4byte	.LFB41
 13659 002c 22000000 		.4byte	.LFE41
 13660 0030 00000000 		.4byte	.LFB42
 13661 0034 3C000000 		.4byte	.LFE42
 13662 0038 00000000 		.4byte	.LFB43
 13663 003c 8C000000 		.4byte	.LFE43
 13664 0040 00000000 		.4byte	.LFB44
 13665 0044 30000000 		.4byte	.LFE44
 13666 0048 00000000 		.4byte	.LFB45
 13667 004c 30000000 		.4byte	.LFE45
 13668 0050 00000000 		.4byte	.LFB46
 13669 0054 22000000 		.4byte	.LFE46
 13670 0058 00000000 		.4byte	.LFB47
 13671 005c 3C000000 		.4byte	.LFE47
 13672 0060 00000000 		.4byte	.LFB48
 13673 0064 8C000000 		.4byte	.LFE48
 13674 0068 00000000 		.4byte	.LFB49
 13675 006c 30000000 		.4byte	.LFE49
 13676 0070 00000000 		.4byte	.LFB50
 13677 0074 30000000 		.4byte	.LFE50
 13678 0078 00000000 		.4byte	.LFB51
 13679 007c A0000000 		.4byte	.LFE51
 13680 0080 00000000 		.4byte	.LFB52
 13681 0084 FC000000 		.4byte	.LFE52
 13682 0088 00000000 		.4byte	.LFB53
 13683 008c 64000000 		.4byte	.LFE53
 13684 0090 00000000 		.4byte	.LFB54
 13685 0094 54000000 		.4byte	.LFE54
 13686 0098 00000000 		.4byte	.LFB55
 13687 009c 58000000 		.4byte	.LFE55
 13688 00a0 00000000 		.4byte	.LFB56
 13689 00a4 64000000 		.4byte	.LFE56
 13690 00a8 00000000 		.4byte	.LFB57
 13691 00ac 70000000 		.4byte	.LFE57
 13692 00b0 00000000 		.4byte	.LFB58
 13693 00b4 C0000000 		.4byte	.LFE58
 13694 00b8 00000000 		.4byte	.LFB59
 13695 00bc 64000000 		.4byte	.LFE59
 13696 00c0 00000000 		.4byte	.LFB60
 13697 00c4 94000000 		.4byte	.LFE60
 13698 00c8 00000000 		.4byte	.LFB61
ARM GAS  C:\Users\Andres\AppData\Local\Temp\ccSsqcxd.s 			page 264


 13699 00cc 70000000 		.4byte	.LFE61
 13700 00d0 00000000 		.4byte	.LFB62
 13701 00d4 42000000 		.4byte	.LFE62
 13702 00d8 00000000 		.4byte	.LFB63
 13703 00dc E0000000 		.4byte	.LFE63
 13704 00e0 00000000 		.4byte	.LFB64
 13705 00e4 28010000 		.4byte	.LFE64
 13706 00e8 00000000 		.4byte	.LFB65
 13707 00ec 9C000000 		.4byte	.LFE65
 13708 00f0 00000000 		.4byte	.LFB66
 13709 00f4 30000000 		.4byte	.LFE66
 13710 00f8 00000000 		.4byte	.LFB67
 13711 00fc 24000000 		.4byte	.LFE67
 13712 0100 00000000 		.4byte	.LFB68
 13713 0104 38010000 		.4byte	.LFE68
 13714 0108 00000000 		.4byte	.LFB69
 13715 010c 7C010000 		.4byte	.LFE69
 13716 0110 00000000 		.4byte	.LFB72
 13717 0114 0C000000 		.4byte	.LFE72
 13718 0118 00000000 		.4byte	.LFB70
 13719 011c 3C000000 		.4byte	.LFE70
 13720 0120 00000000 		.4byte	.LFB71
 13721 0124 28010000 		.4byte	.LFE71
 13722 0128 00000000 		.4byte	.LFB73
 13723 012c 2A040000 		.4byte	.LFE73
 13724 0130 00000000 		.4byte	0
 13725 0134 00000000 		.4byte	0
 13726              		.section	.debug_line,"",%progbits
 13727              	.Ldebug_line0:
 13728 0000 69080000 		.section	.debug_str,"MS",%progbits,1
 13728      0200DA01 
 13728      00000201 
 13728      FB0E0D00 
 13728      01010101 
 13729              	.LASF118:
 13730 0000 53454E53 		.ascii	"SENSOR_3_I2CMasterReadBuf\000"
 13730      4F525F33 
 13730      5F493243 
 13730      4D617374 
 13730      65725265 
 13731              	.LASF110:
 13732 001a 43794465 		.ascii	"CyDelay\000"
 13732      6C617900 
 13733              	.LASF142:
 13734 0022 43414E5F 		.ascii	"CAN_isr_StartEx\000"
 13734      6973725F 
 13734      53746172 
 13734      74457800 
 13735              	.LASF147:
 13736 0032 6D61696E 		.ascii	"main.c\000"
 13736      2E6300
 13737              	.LASF125:
 13738 0039 52585F52 		.ascii	"RX_ReadRxData\000"
 13738      65616452 
 13738      78446174 
 13738      6100
 13739              	.LASF63:
ARM GAS  C:\Users\Andres\AppData\Local\Temp\ccSsqcxd.s 			page 265


 13740 0047 43575F48 		.ascii	"CW_H\000"
 13740      00
 13741              	.LASF64:
 13742 004c 43575F4C 		.ascii	"CW_L\000"
 13742      00
 13743              	.LASF89:
 13744 0051 4572726F 		.ascii	"Error_Byte\000"
 13744      725F4279 
 13744      746500
 13745              	.LASF100:
 13746 005c 73756D61 		.ascii	"sumadir\000"
 13746      64697200 
 13747              	.LASF87:
 13748 0064 496E636F 		.ascii	"Incoming_Byte\000"
 13748      6D696E67 
 13748      5F427974 
 13748      6500
 13749              	.LASF65:
 13750 0072 4343575F 		.ascii	"CCW_H\000"
 13750      4800
 13751              	.LASF8:
 13752 0078 756E7369 		.ascii	"unsigned int\000"
 13752      676E6564 
 13752      20696E74 
 13752      00
 13753              	.LASF66:
 13754 0085 4343575F 		.ascii	"CCW_L\000"
 13754      4C00
 13755              	.LASF44:
 13756 008b 53746174 		.ascii	"Status\000"
 13756      757300
 13757              	.LASF122:
 13758 0092 52585F47 		.ascii	"RX_GetChar\000"
 13758      65744368 
 13758      617200
 13759              	.LASF83:
 13760 009d 64656672 		.ascii	"defr\000"
 13760      00
 13761              	.LASF103:
 13762 00a2 6572726F 		.ascii	"error\000"
 13762      7200
 13763              	.LASF72:
 13764 00a8 61736967 		.ascii	"asig\000"
 13764      00
 13765              	.LASF114:
 13766 00ad 53454E53 		.ascii	"SENSOR_2_I2CMasterReadBuf\000"
 13766      4F525F32 
 13766      5F493243 
 13766      4D617374 
 13766      65725265 
 13767              	.LASF42:
 13768 00c7 70696E67 		.ascii	"ping\000"
 13768      00
 13769              	.LASF25:
 13770 00cc 72656164 		.ascii	"readAmbient_1\000"
 13770      416D6269 
 13770      656E745F 
ARM GAS  C:\Users\Andres\AppData\Local\Temp\ccSsqcxd.s 			page 266


 13770      3100
 13771              	.LASF117:
 13772 00da 53454E53 		.ascii	"SENSOR_3_I2CMasterStatus\000"
 13772      4F525F33 
 13772      5F493243 
 13772      4D617374 
 13772      65725374 
 13773              	.LASF74:
 13774 00f3 696E7465 		.ascii	"interrutcan\000"
 13774      72727574 
 13774      63616E00 
 13775              	.LASF136:
 13776 00ff 53454E53 		.ascii	"SENSOR_2_Enable\000"
 13776      4F525F32 
 13776      5F456E61 
 13776      626C6500 
 13777              	.LASF62:
 13778 010f 4343574C 		.ascii	"CCWLimit\000"
 13778      696D6974 
 13778      00
 13779              	.LASF68:
 13780 0118 6C65646F 		.ascii	"ledoff\000"
 13780      666600
 13781              	.LASF104:
 13782 011f 706F7369 		.ascii	"posicion\000"
 13782      63696F6E 
 13782      00
 13783              	.LASF79:
 13784 0128 74686574 		.ascii	"theta\000"
 13784      6100
 13785              	.LASF88:
 13786 012e 54656D70 		.ascii	"Temperature_Byte\000"
 13786      65726174 
 13786      7572655F 
 13786      42797465 
 13786      00
 13787              	.LASF70:
 13788 013f 64697265 		.ascii	"direccion\000"
 13788      6363696F 
 13788      6E00
 13789              	.LASF12:
 13790 0149 666C6F61 		.ascii	"float\000"
 13790      7400
 13791              	.LASF134:
 13792 014f 53454E53 		.ascii	"SENSOR_1_Enable\000"
 13792      4F525F31 
 13792      5F456E61 
 13792      626C6500 
 13793              	.LASF120:
 13794 015f 43794465 		.ascii	"CyDelayUs\000"
 13794      6C617955 
 13794      7300
 13795              	.LASF135:
 13796 0169 53454E53 		.ascii	"SENSOR_2_Start\000"
 13796      4F525F32 
 13796      5F537461 
 13796      727400
ARM GAS  C:\Users\Andres\AppData\Local\Temp\ccSsqcxd.s 			page 267


 13797              	.LASF90:
 13798 0178 496E636F 		.ascii	"Incoming_Byte2\000"
 13798      6D696E67 
 13798      5F427974 
 13798      653200
 13799              	.LASF7:
 13800 0187 6C6F6E67 		.ascii	"long long unsigned int\000"
 13800      206C6F6E 
 13800      6720756E 
 13800      7369676E 
 13800      65642069 
 13801              	.LASF126:
 13802 019e 43414E5F 		.ascii	"CAN_SendMsg0\000"
 13802      53656E64 
 13802      4D736730 
 13802      00
 13803              	.LASF82:
 13804 01ab 64657366 		.ascii	"desfase\000"
 13804      61736500 
 13805              	.LASF24:
 13806 01b3 72656164 		.ascii	"readProximity_1\000"
 13806      50726F78 
 13806      696D6974 
 13806      795F3100 
 13807              	.LASF31:
 13808 01c3 72656164 		.ascii	"readProximity_2\000"
 13808      50726F78 
 13808      696D6974 
 13808      795F3200 
 13809              	.LASF36:
 13810 01d3 72656164 		.ascii	"readProximity_3\000"
 13810      50726F78 
 13810      696D6974 
 13810      795F3300 
 13811              	.LASF111:
 13812 01e3 53454E53 		.ascii	"SENSOR_2_I2CMasterWriteBuf\000"
 13812      4F525F32 
 13812      5F493243 
 13812      4D617374 
 13812      65725772 
 13813              	.LASF85:
 13814 01fe 73616C74 		.ascii	"salto\000"
 13814      6F00
 13815              	.LASF115:
 13816 0204 4C45445F 		.ascii	"LED_2_Write\000"
 13816      325F5772 
 13816      69746500 
 13817              	.LASF75:
 13818 0210 6D6F7669 		.ascii	"movimiento\000"
 13818      6D69656E 
 13818      746F00
 13819              	.LASF133:
 13820 021b 53454E53 		.ascii	"SENSOR_1_Start\000"
 13820      4F525F31 
 13820      5F537461 
 13820      727400
 13821              	.LASF77:
ARM GAS  C:\Users\Andres\AppData\Local\Temp\ccSsqcxd.s 			page 268


 13822 022a 62797465 		.ascii	"byteh\000"
 13822      6800
 13823              	.LASF78:
 13824 0230 62797465 		.ascii	"bytel\000"
 13824      6C00
 13825              	.LASF73:
 13826 0236 72656369 		.ascii	"recibmail\000"
 13826      626D6169 
 13826      6C00
 13827              	.LASF92:
 13828 0240 506F7369 		.ascii	"Position_High_Byte\000"
 13828      74696F6E 
 13828      5F486967 
 13828      685F4279 
 13828      746500
 13829              	.LASF139:
 13830 0253 53454E53 		.ascii	"SENSOR_4_Start\000"
 13830      4F525F34 
 13830      5F537461 
 13830      727400
 13831              	.LASF59:
 13832 0262 72656164 		.ascii	"readPosition\000"
 13832      506F7369 
 13832      74696F6E 
 13832      00
 13833              	.LASF57:
 13834 026f 7475726E 		.ascii	"turn\000"
 13834      00
 13835              	.LASF108:
 13836 0274 53454E53 		.ascii	"SENSOR_1_I2CMasterReadBuf\000"
 13836      4F525F31 
 13836      5F493243 
 13836      4D617374 
 13836      65725265 
 13837              	.LASF27:
 13838 028e 72656164 		.ascii	"readVCNL_1\000"
 13838      56434E4C 
 13838      5F3100
 13839              	.LASF28:
 13840 0299 72656164 		.ascii	"readVCNL_2\000"
 13840      56434E4C 
 13840      5F3200
 13841              	.LASF34:
 13842 02a4 72656164 		.ascii	"readVCNL_3\000"
 13842      56434E4C 
 13842      5F3300
 13843              	.LASF46:
 13844 02af 506F7369 		.ascii	"Position\000"
 13844      74696F6E 
 13844      00
 13845              	.LASF14:
 13846 02b8 63686172 		.ascii	"char\000"
 13846      00
 13847              	.LASF50:
 13848 02bd 746F7271 		.ascii	"torqueStatus\000"
 13848      75655374 
 13848      61747573 
ARM GAS  C:\Users\Andres\AppData\Local\Temp\ccSsqcxd.s 			page 269


 13848      00
 13849              	.LASF128:
 13850 02ca 4C45445F 		.ascii	"LED_4_Write\000"
 13850      345F5772 
 13850      69746500 
 13851              	.LASF20:
 13852 02d6 57726974 		.ascii	"Write_buf\000"
 13852      655F6275 
 13852      6600
 13853              	.LASF55:
 13854 02e0 6D6F7665 		.ascii	"moveRW\000"
 13854      525700
 13855              	.LASF144:
 13856 02e7 4D4F544F 		.ascii	"MOTOR_Start\000"
 13856      525F5374 
 13856      61727400 
 13857              	.LASF52:
 13858 02f3 53706565 		.ascii	"Speed\000"
 13858      6400
 13859              	.LASF97:
 13860 02f9 506F7369 		.ascii	"PositionM\000"
 13860      74696F6E 
 13860      4D00
 13861              	.LASF138:
 13862 0303 53454E53 		.ascii	"SENSOR_3_Enable\000"
 13862      4F525F33 
 13862      5F456E61 
 13862      626C6500 
 13863              	.LASF10:
 13864 0313 75696E74 		.ascii	"uint16\000"
 13864      313600
 13865              	.LASF19:
 13866 031a 64617461 		.ascii	"data\000"
 13866      00
 13867              	.LASF84:
 13868 031f 6461746F 		.ascii	"dato\000"
 13868      00
 13869              	.LASF127:
 13870 0324 43414E5F 		.ascii	"CAN_GetErrorState\000"
 13870      47657445 
 13870      72726F72 
 13870      53746174 
 13870      6500
 13871              	.LASF6:
 13872 0336 6C6F6E67 		.ascii	"long long int\000"
 13872      206C6F6E 
 13872      6720696E 
 13872      7400
 13873              	.LASF105:
 13874 0344 706F7369 		.ascii	"posicionh\000"
 13874      63696F6E 
 13874      6800
 13875              	.LASF113:
 13876 034e 53454E53 		.ascii	"SENSOR_2_I2CMasterStatus\000"
 13876      4F525F32 
 13876      5F493243 
 13876      4D617374 
ARM GAS  C:\Users\Andres\AppData\Local\Temp\ccSsqcxd.s 			page 270


 13876      65725374 
 13877              	.LASF76:
 13878 0367 64697272 		.ascii	"dirr\000"
 13878      00
 13879              	.LASF80:
 13880 036c 66617365 		.ascii	"fase\000"
 13880      00
 13881              	.LASF86:
 13882 0371 43686563 		.ascii	"Checksum\000"
 13882      6B73756D 
 13882      00
 13883              	.LASF15:
 13884 037a 63796973 		.ascii	"cyisraddress\000"
 13884      72616464 
 13884      72657373 
 13884      00
 13885              	.LASF71:
 13886 0387 696E6963 		.ascii	"inicio\000"
 13886      696F00
 13887              	.LASF11:
 13888 038e 75696E74 		.ascii	"uint32\000"
 13888      333200
 13889              	.LASF106:
 13890 0395 706F7369 		.ascii	"posicionl\000"
 13890      63696F6E 
 13890      6C00
 13891              	.LASF102:
 13892 039f 6D61696C 		.ascii	"mailbox0\000"
 13892      626F7830 
 13892      00
 13893              	.LASF116:
 13894 03a8 53454E53 		.ascii	"SENSOR_3_I2CMasterWriteBuf\000"
 13894      4F525F33 
 13894      5F493243 
 13894      4D617374 
 13894      65725772 
 13895              	.LASF93:
 13896 03c3 506F7369 		.ascii	"Position_Low_Byte\000"
 13896      74696F6E 
 13896      5F4C6F77 
 13896      5F427974 
 13896      6500
 13897              	.LASF98:
 13898 03d5 4D796469 		.ascii	"Mydir\000"
 13898      7200
 13899              	.LASF17:
 13900 03db 6C6F6E67 		.ascii	"long double\000"
 13900      20646F75 
 13900      626C6500 
 13901              	.LASF112:
 13902 03e7 53454E53 		.ascii	"SENSOR_1_I2CMasterStatus\000"
 13902      4F525F31 
 13902      5F493243 
 13902      4D617374 
 13902      65725374 
 13903              	.LASF96:
 13904 0400 65727263 		.ascii	"errc\000"
ARM GAS  C:\Users\Andres\AppData\Local\Temp\ccSsqcxd.s 			page 271


 13904      00
 13905              	.LASF53:
 13906 0405 53706565 		.ascii	"Speed_H\000"
 13906      645F4800 
 13907              	.LASF54:
 13908 040d 53706565 		.ascii	"Speed_L\000"
 13908      645F4C00 
 13909              	.LASF29:
 13910 0415 696E6974 		.ascii	"initVCNL_1\000"
 13910      56434E4C 
 13910      5F3100
 13911              	.LASF30:
 13912 0420 696E6974 		.ascii	"initVCNL_2\000"
 13912      56434E4C 
 13912      5F3200
 13913              	.LASF35:
 13914 042b 696E6974 		.ascii	"initVCNL_3\000"
 13914      56434E4C 
 13914      5F3300
 13915              	.LASF99:
 13916 0436 64697261 		.ascii	"dirasig\000"
 13916      73696700 
 13917              	.LASF95:
 13918 043e 63737461 		.ascii	"cstatus\000"
 13918      74757300 
 13919              	.LASF2:
 13920 0446 73686F72 		.ascii	"short int\000"
 13920      7420696E 
 13920      7400
 13921              	.LASF69:
 13922 0450 64617461 		.ascii	"datas\000"
 13922      7300
 13923              	.LASF4:
 13924 0456 6C6F6E67 		.ascii	"long int\000"
 13924      20696E74 
 13924      00
 13925              	.LASF145:
 13926 045f 43414E5F 		.ascii	"CAN_GlobalIntEnable\000"
 13926      476C6F62 
 13926      616C496E 
 13926      74456E61 
 13926      626C6500 
 13927              	.LASF22:
 13928 0473 74656D70 		.ascii	"temp\000"
 13928      00
 13929              	.LASF39:
 13930 0478 72656164 		.ascii	"readtemperature\000"
 13930      74656D70 
 13930      65726174 
 13930      75726500 
 13931              	.LASF56:
 13932 0488 61637469 		.ascii	"action\000"
 13932      6F6E00
 13933              	.LASF109:
 13934 048f 4C45445F 		.ascii	"LED_1_Write\000"
 13934      315F5772 
 13934      69746500 
ARM GAS  C:\Users\Andres\AppData\Local\Temp\ccSsqcxd.s 			page 272


 13935              	.LASF146:
 13936 049b 474E5520 		.ascii	"GNU C 4.9.3 20150303 (release) [ARM/embedded-4_9-br"
 13936      4320342E 
 13936      392E3320 
 13936      32303135 
 13936      30333033 
 13937 04ce 616E6368 		.ascii	"anch revision 221220] -mcpu=cortex-m0 -mthumb -g -O"
 13937      20726576 
 13937      6973696F 
 13937      6E203232 
 13937      31323230 
 13938 0501 67202D66 		.ascii	"g -ffunction-sections -ffat-lto-objects\000"
 13938      66756E63 
 13938      74696F6E 
 13938      2D736563 
 13938      74696F6E 
 13939              	.LASF43:
 13940 0529 72657365 		.ascii	"reset\000"
 13940      7400
 13941              	.LASF129:
 13942 052f 52585F43 		.ascii	"RX_ClearRxBuffer\000"
 13942      6C656172 
 13942      52784275 
 13942      66666572 
 13942      00
 13943              	.LASF94:
 13944 0540 54696D65 		.ascii	"Time_Counter\000"
 13944      5F436F75 
 13944      6E746572 
 13944      00
 13945              	.LASF124:
 13946 054d 4D4F544F 		.ascii	"MOTOR_PutChar\000"
 13946      525F5075 
 13946      74436861 
 13946      7200
 13947              	.LASF123:
 13948 055b 5458435F 		.ascii	"TXC_Write\000"
 13948      57726974 
 13948      6500
 13949              	.LASF21:
 13950 0565 72656164 		.ascii	"read_Buf\000"
 13950      5F427566 
 13950      00
 13951              	.LASF16:
 13952 056e 73697A65 		.ascii	"sizetype\000"
 13952      74797065 
 13952      00
 13953              	.LASF67:
 13954 0577 61736967 		.ascii	"asignacion\000"
 13954      6E616369 
 13954      6F6E00
 13955              	.LASF5:
 13956 0582 6C6F6E67 		.ascii	"long unsigned int\000"
 13956      20756E73 
 13956      69676E65 
 13956      6420696E 
 13956      7400
ARM GAS  C:\Users\Andres\AppData\Local\Temp\ccSsqcxd.s 			page 273


 13957              	.LASF18:
 13958 0594 61646472 		.ascii	"address\000"
 13958      65737300 
 13959              	.LASF137:
 13960 059c 53454E53 		.ascii	"SENSOR_3_Start\000"
 13960      4F525F33 
 13960      5F537461 
 13960      727400
 13961              	.LASF121:
 13962 05ab 52585F47 		.ascii	"RX_GetRxBufferSize\000"
 13962      65745278 
 13962      42756666 
 13962      65725369 
 13962      7A6500
 13963              	.LASF140:
 13964 05be 53454E53 		.ascii	"SENSOR_4_Enable\000"
 13964      4F525F34 
 13964      5F456E61 
 13964      626C6500 
 13965              	.LASF51:
 13966 05ce 4D6F7665 		.ascii	"MoveSpeed\000"
 13966      53706565 
 13966      6400
 13967              	.LASF101:
 13968 05d8 6461746F 		.ascii	"dato_enviado\000"
 13968      5F656E76 
 13968      6961646F 
 13968      00
 13969              	.LASF1:
 13970 05e5 756E7369 		.ascii	"unsigned char\000"
 13970      676E6564 
 13970      20636861 
 13970      7200
 13971              	.LASF49:
 13972 05f3 73657445 		.ascii	"setEndless\000"
 13972      6E646C65 
 13972      737300
 13973              	.LASF119:
 13974 05fe 4C45445F 		.ascii	"LED_3_Write\000"
 13974      335F5772 
 13974      69746500 
 13975              	.LASF45:
 13976 060a 4D6F7665 		.ascii	"Move\000"
 13976      00
 13977              	.LASF61:
 13978 060f 43574C69 		.ascii	"CWLimit\000"
 13978      6D697400 
 13979              	.LASF107:
 13980 0617 53454E53 		.ascii	"SENSOR_1_I2CMasterWriteBuf\000"
 13980      4F525F31 
 13980      5F493243 
 13980      4D617374 
 13980      65725772 
 13981              	.LASF40:
 13982 0632 73657449 		.ascii	"setID\000"
 13982      4400
 13983              	.LASF132:
ARM GAS  C:\Users\Andres\AppData\Local\Temp\ccSsqcxd.s 			page 274


 13984 0638 6174616E 		.ascii	"atanf\000"
 13984      6600
 13985              	.LASF0:
 13986 063e 7369676E 		.ascii	"signed char\000"
 13986      65642063 
 13986      68617200 
 13987              	.LASF3:
 13988 064a 73686F72 		.ascii	"short unsigned int\000"
 13988      7420756E 
 13988      7369676E 
 13988      65642069 
 13988      6E7400
 13989              	.LASF81:
 13990 065d 6D61696E 		.ascii	"main\000"
 13990      00
 13991              	.LASF58:
 13992 0662 53494445 		.ascii	"SIDE\000"
 13992      00
 13993              	.LASF41:
 13994 0667 6E657749 		.ascii	"newID\000"
 13994      4400
 13995              	.LASF9:
 13996 066d 75696E74 		.ascii	"uint8\000"
 13996      3800
 13997              	.LASF13:
 13998 0673 646F7562 		.ascii	"double\000"
 13998      6C6500
 13999              	.LASF141:
 14000 067a 43414E5F 		.ascii	"CAN_Start\000"
 14000      53746172 
 14000      7400
 14001              	.LASF60:
 14002 0684 73657441 		.ascii	"setAngleLimit\000"
 14002      6E676C65 
 14002      4C696D69 
 14002      7400
 14003              	.LASF38:
 14004 0692 6572726F 		.ascii	"error_data\000"
 14004      725F6461 
 14004      746100
 14005              	.LASF143:
 14006 069d 52585F53 		.ascii	"RX_Start\000"
 14006      74617274 
 14006      00
 14007              	.LASF91:
 14008 06a6 506F7369 		.ascii	"Position_Long_Byte\000"
 14008      74696F6E 
 14008      5F4C6F6E 
 14008      675F4279 
 14008      746500
 14009              	.LASF148:
 14010 06b9 443A5C68 		.ascii	"D:\\henrry\\empenzando\\Nueva carpeta\\modulo.cydsn"
 14010      656E7272 
 14010      795C656D 
 14010      70656E7A 
 14010      616E646F 
 14011 06e8 00       		.ascii	"\000"
ARM GAS  C:\Users\Andres\AppData\Local\Temp\ccSsqcxd.s 			page 275


 14012              	.LASF32:
 14013 06e9 72656164 		.ascii	"readAmbient_2\000"
 14013      416D6269 
 14013      656E745F 
 14013      3200
 14014              	.LASF37:
 14015 06f7 72656164 		.ascii	"readAmbient_3\000"
 14015      416D6269 
 14015      656E745F 
 14015      3300
 14016              	.LASF23:
 14017 0705 77726974 		.ascii	"writeVCNL_1\000"
 14017      6556434E 
 14017      4C5F3100 
 14018              	.LASF26:
 14019 0711 77726974 		.ascii	"writeVCNL_2\000"
 14019      6556434E 
 14019      4C5F3200 
 14020              	.LASF33:
 14021 071d 77726974 		.ascii	"writeVCNL_3\000"
 14021      6556434E 
 14021      4C5F3300 
 14022              	.LASF131:
 14023 0729 636F7366 		.ascii	"cosf\000"
 14023      00
 14024              	.LASF47:
 14025 072e 506F7369 		.ascii	"Position_H\000"
 14025      74696F6E 
 14025      5F4800
 14026              	.LASF130:
 14027 0739 43414E5F 		.ascii	"CAN_MsgRXIsr\000"
 14027      4D736752 
 14027      58497372 
 14027      00
 14028              	.LASF48:
 14029 0746 506F7369 		.ascii	"Position_L\000"
 14029      74696F6E 
 14029      5F4C00
 14030              		.ident	"GCC: (GNU Tools for ARM Embedded Processors) 4.9.3 20150303 (release) [ARM/embedded-4_9-br
