ARM GAS  C:\Users\HENRYA~1\AppData\Local\Temp\ccNDVz0o.s 			page 1


   1              		.syntax unified
   2              		.cpu cortex-m0
   3              		.fpu softvfp
   4              		.eabi_attribute 20, 1
   5              		.eabi_attribute 21, 1
   6              		.eabi_attribute 23, 3
   7              		.eabi_attribute 24, 1
   8              		.eabi_attribute 25, 1
   9              		.eabi_attribute 26, 1
  10              		.eabi_attribute 30, 1
  11              		.eabi_attribute 34, 0
  12              		.eabi_attribute 18, 4
  13              		.thumb
  14              		.syntax unified
  15              		.file	"main.c"
  16              		.text
  17              	.Ltext0:
  18              		.cfi_sections	.debug_frame
  19              		.global	__aeabi_i2d
  20              		.global	__aeabi_ddiv
  21              		.global	__aeabi_d2f
  22              		.global	__aeabi_fadd
  23              		.global	__aeabi_fmul
  24              		.section	.text.Serial_Interrupt,"ax",%progbits
  25              		.align	2
  26              		.global	Serial_Interrupt
  27              		.code	16
  28              		.thumb_func
  29              		.type	Serial_Interrupt, %function
  30              	Serial_Interrupt:
  31              	.LFB50:
  32              		.file 1 "main.c"
   1:main.c        **** #include <project.h>
   2:main.c        **** #include <stdio.h>
   3:main.c        **** #include <stdlib.h>
   4:main.c        **** #include <math.h>
   5:main.c        **** #include <protocolo can.h>
   6:main.c        **** //Import Libraries
   7:main.c        **** //Global Variables
   8:main.c        **** uint8 mailbox0[8];
   9:main.c        **** uint8 mailbox1[8];
  10:main.c        **** uint8 mailbox2[8];
  11:main.c        **** uint8 dato_enviado[8];
  12:main.c        **** uint8 dato_enviado_1[8];
  13:main.c        **** uint8 dato_enviado_2[8];
  14:main.c        **** int16 conta=0;
  15:main.c        **** int cantidadM=0;
  16:main.c        **** int Cantidad_Sensores=0;
  17:main.c        **** //Variables AE
  18:main.c        **** int Max_Conta=150;
  19:main.c        **** float Amplitud_H=0.0;
  20:main.c        **** float Amplitud_V=0.0;
  21:main.c        **** float Offset_H=0.833;
  22:main.c        **** float Offset_V=0.833;
  23:main.c        **** float Fase=0.0;
  24:main.c        **** float ampli_aux_V=0.0;
  25:main.c        **** float ampli_aux_H=0.0;
ARM GAS  C:\Users\HENRYA~1\AppData\Local\Temp\ccNDVz0o.s 			page 2


  26:main.c        **** float off_aux_V=0.833;
  27:main.c        **** float off_aux_H=0.833;
  28:main.c        **** float pha_aux=0.0;
  29:main.c        **** float ampli_aux_V_2=0.0;
  30:main.c        **** float off_aux_V_2=0.833;
  31:main.c        **** float pha_aux_2=0.0;
  32:main.c        **** float ampli_aux_H_2=0.0;
  33:main.c        **** float off_aux_H_2=0.833;
  34:main.c        **** float Peso_Sensor=0.0;
  35:main.c        **** int flag=0;
  36:main.c        **** float dist=0.0;
  37:main.c        **** float L_actual=0.0;
  38:main.c        **** float L_anterior=0.0;
  39:main.c        **** int punto_a=0;
  40:main.c        **** int punto_b=0;
  41:main.c        **** int move_s=0;
  42:main.c        **** int individuo=0;
  43:main.c        **** float Sigma=0.0;
  44:main.c        **** int16 Periodo=1; 
  45:main.c        **** 
  46:main.c        **** double randd() {
  47:main.c        ****   return (double)rand()/((double)RAND_MAX + 1);
  48:main.c        **** }
  49:main.c        **** 
  50:main.c        **** double random_amplitud_1(){
  51:main.c        ****     float r=0.0;
  52:main.c        ****     r=randd();
  53:main.c        ****     return r;
  54:main.c        **** }
  55:main.c        **** 
  56:main.c        **** double random_amplitud_2(){
  57:main.c        ****     float r=0.0;
  58:main.c        ****     r=randd();
  59:main.c        ****     r=r*0.2;
  60:main.c        ****     return r;
  61:main.c        **** }
  62:main.c        **** 
  63:main.c        **** double random_Fase(){
  64:main.c        ****     float r=0.0;
  65:main.c        ****     r=-0.1*randd();
  66:main.c        ****     return r;
  67:main.c        **** }
  68:main.c        **** 
  69:main.c        **** double random_Offset(){
  70:main.c        ****     float r=0.0;
  71:main.c        ****     r=randd();
  72:main.c        ****     r=r*-0.01;
  73:main.c        ****     r=r+0.02;
  74:main.c        ****     return r;
  75:main.c        **** }
  76:main.c        **** 
  77:main.c        **** void movimiento(unsigned int dirr,int mov){
  78:main.c        ****     char byteh,bytel;
  79:main.c        ****     byteh= mov >> 8;
  80:main.c        ****     bytel=mov;
  81:main.c        ****     dato_enviado[0]=VER ;//verificacion
  82:main.c        ****     dato_enviado[1]=dirr ;//dir
ARM GAS  C:\Users\HENRYA~1\AppData\Local\Temp\ccNDVz0o.s 			page 3


  83:main.c        ****     dato_enviado[2]=ESCRITURA ;//operacion
  84:main.c        ****     dato_enviado[3]=MOTOR;//lugar
  85:main.c        ****     dato_enviado[4]= byteh ;  //dato
  86:main.c        ****     dato_enviado[5]= bytel ;  //dato
  87:main.c        ****     CAN_SendMsg0(); 
  88:main.c        ****     CyDelay(25);    
  89:main.c        **** }
  90:main.c        **** 
  91:main.c        **** void Send_Angle(int datas,int Conta3){ 
  92:main.c        ****     dato_enviado[0]=VER2;//verificacion
  93:main.c        ****     dato_enviado[1]=Conta3;//dir
  94:main.c        ****     dato_enviado[2]=Conta3;//dir
  95:main.c        ****     dato_enviado[3]=ANGLE;
  96:main.c        ****     dato_enviado[4]=0;//lugar
  97:main.c        ****     dato_enviado[5]=0;  //dato... en este caso direcion para asignar
  98:main.c        ****     dato_enviado[6]=datas;
  99:main.c        ****     dato_enviado[7]=Conta3;
 100:main.c        ****     CAN_SendMsg0(); 
 101:main.c        ****     CyDelay(50);
 102:main.c        **** }
 103:main.c        **** 
 104:main.c        **** void Enviar_Parametros(float Amplitud,float Phase,float Offset,int Orientacion){
 105:main.c        ****     //Convertir el Valor a entero para ser enviado
 106:main.c        ****     int Amp_env=(int)fabs(Amplitud*10000);
 107:main.c        ****     int Phase_env=(int)fabs(Phase*10000);
 108:main.c        ****     int Offset_env=(int)fabs(Offset*10000);
 109:main.c        ****     //Enviar datos
 110:main.c        ****     dato_enviado_1[0]=VER_M1;
 111:main.c        ****     dato_enviado_1[1]=Orientacion;
 112:main.c        ****     //Convertir Amplitud
 113:main.c        ****     uint8 datoL=Amp_env;
 114:main.c        ****     uint8 datoH=Amp_env>>8;
 115:main.c        ****     uint8 Aux=0;
 116:main.c        ****     if(Amplitud<0.0){
 117:main.c        ****         Aux=(1<<7);
 118:main.c        ****         datoH=datoH+Aux;
 119:main.c        ****     }
 120:main.c        ****     else{
 121:main.c        ****         Aux=(0<<7);
 122:main.c        ****         datoH=datoH+Aux;    
 123:main.c        ****     }
 124:main.c        ****     dato_enviado_1[2]=datoL;
 125:main.c        ****     dato_enviado_1[3]=datoH;
 126:main.c        ****     //Convertir Fase
 127:main.c        ****     datoL=Phase_env;
 128:main.c        ****     datoH=Phase_env>>8;
 129:main.c        ****     if(Phase<0.0){
 130:main.c        ****         Aux=(1<<7);
 131:main.c        ****         datoH=datoH+Aux;
 132:main.c        ****     }
 133:main.c        ****     else{
 134:main.c        ****         Aux=(0<<7);
 135:main.c        ****         datoH=datoH+Aux;    
 136:main.c        ****     }
 137:main.c        ****     dato_enviado_1[4]=datoL;
 138:main.c        ****     dato_enviado_1[5]=datoH;
 139:main.c        ****     //Convertir Offset
ARM GAS  C:\Users\HENRYA~1\AppData\Local\Temp\ccNDVz0o.s 			page 4


 140:main.c        ****     datoL=Offset_env;
 141:main.c        ****     datoH=Offset_env>>8;
 142:main.c        ****     if(Offset<0.0){
 143:main.c        ****         Aux=(1<<7);
 144:main.c        ****         datoH=datoH+Aux;
 145:main.c        ****     }
 146:main.c        ****     else{
 147:main.c        ****         Aux=(0<<7);
 148:main.c        ****         datoH=datoH+Aux;    
 149:main.c        ****     }
 150:main.c        ****     dato_enviado_1[6]=datoL;
 151:main.c        ****     dato_enviado_1[7]=datoH;    
 152:main.c        ****     CAN_SendMsg1();
 153:main.c        ****     CyDelay(25);
 154:main.c        **** }
 155:main.c        **** 
 156:main.c        **** void Recibe_mail_0(){
 157:main.c        **** if(mailbox0[0]==VER){
 158:main.c        ****             switch(mailbox0[2]){
 159:main.c        ****             ///////////////////////////////////////////////////////
 160:main.c        ****             case ESCRITURA:{ 
 161:main.c        ****                 switch(mailbox0[3]){//////////+6+++++++++++++
 162:main.c        ****                     case CANTIDAD_MOD: 
 163:main.c        ****                             cantidadM=mailbox0[4];
 164:main.c        ****                     break;
 165:main.c        ****                     case START:
 166:main.c        ****                         
 167:main.c        ****                     break;
 168:main.c        ****                 }
 169:main.c        ****             }                                            
 170:main.c        ****         }    
 171:main.c        **** }
 172:main.c        **** if(mailbox0[0]==VER2){
 173:main.c        ****                 switch(mailbox0[3]){
 174:main.c        ****                 ///////////////////////////////////////////////////////
 175:main.c        ****                 case ANGLE:{
 176:main.c        ****                     int Contador=mailbox0[7];
 177:main.c        ****                     if(Contador>=cantidadM){
 178:main.c        ****                             Enviar_Parametros(Amplitud_H,Fase,Offset_H,H);
 179:main.c        ****                             CyDelay(50);
 180:main.c        ****                             Enviar_Parametros(Amplitud_V,Fase,Offset_V,V);
 181:main.c        ****                             CyDelay(50); 
 182:main.c        ****                             Send_Angle(0,0);
 183:main.c        ****                     } 
 184:main.c        ****                 }
 185:main.c        ****                 break;}
 186:main.c        ****             }
 187:main.c        **** }
 188:main.c        **** 
 189:main.c        **** void Recibe_Mail_2(){
 190:main.c        ****     if(mailbox2[0]==SENSORES){
 191:main.c        ****         //Mailbox2[1] Derecha
 192:main.c        ****         //Mailbox2[2] Frente
 193:main.c        ****         //Mailbox2[3] Izquierda
 194:main.c        ****         if(mailbox2[1]==0&&mailbox2[2]==0&&mailbox2[3]==0)      {Peso_Sensor=0.0;}   //Normal
 195:main.c        ****         else if(mailbox2[1]==0&&mailbox2[2]==0&&mailbox2[3]==1) {Peso_Sensor=0.2;}   //Izquierda
 196:main.c        ****         else if(mailbox2[1]==0&&mailbox2[2]==1&&mailbox2[3]==0) {Peso_Sensor=0.6;}   //Frontal
ARM GAS  C:\Users\HENRYA~1\AppData\Local\Temp\ccNDVz0o.s 			page 5


 197:main.c        ****         else if(mailbox2[1]==0&&mailbox2[2]==1&&mailbox2[3]==1) {Peso_Sensor=0.8;}   //Frontal e Iz
 198:main.c        ****         else if(mailbox2[1]==1&&mailbox2[2]==0&&mailbox2[3]==0) {Peso_Sensor=0.2;}   //Derecha
 199:main.c        ****         else if(mailbox2[1]==1&&mailbox2[2]==0&&mailbox2[3]==1) {Peso_Sensor=0.4;}   //Derecha e Iz
 200:main.c        ****         else if(mailbox2[1]==1&&mailbox2[2]==1&&mailbox2[3]==0) {Peso_Sensor=0.8;}   //Frontal y De
 201:main.c        ****         else if(mailbox2[1]==1&&mailbox2[2]==1&&mailbox2[3]==1) {Peso_Sensor=1;}     //Todos
 202:main.c        ****         else                                                    {Peso_Sensor=0.0;}   //Normal
 203:main.c        ****     }
 204:main.c        **** }
 205:main.c        **** 
 206:main.c        **** CY_ISR(interrutcan){
 207:main.c        ****     CAN_GlobalIntDisable();
 208:main.c        ****     CAN_MsgRXIsr();  
 209:main.c        ****     Recibe_mail_0();
 210:main.c        ****     Recibe_Mail_2();
 211:main.c        ****     CAN_GlobalIntEnable();
 212:main.c        **** }
 213:main.c        **** 
 214:main.c        **** void Templado(){
 215:main.c        ****     if (flag==1){
 216:main.c        ****         ampli_aux_V=Amplitud_V;
 217:main.c        ****         ampli_aux_H=Amplitud_H;
 218:main.c        ****         pha_aux=Fase;
 219:main.c        ****         off_aux_V=Offset_V;
 220:main.c        ****         off_aux_H=Offset_H;      
 221:main.c        ****         Amplitud_V=0.0;
 222:main.c        ****         Amplitud_H=0.0;
 223:main.c        ****         Fase=0.0;
 224:main.c        ****         Offset_V=0.833;
 225:main.c        ****         Offset_H=0.833;
 226:main.c        ****         Max_Conta=5;
 227:main.c        ****         }
 228:main.c        ****     else if (flag==2){   
 229:main.c        ****         L_anterior=dist;
 230:main.c        ****         if(randd()<0.5){
 231:main.c        ****             Amplitud_H=random_amplitud_1();
 232:main.c        ****             Amplitud_V=random_amplitud_2();
 233:main.c        ****             Fase=random_Fase();
 234:main.c        ****             Offset_H=0.833+random_Offset();
 235:main.c        ****             Offset_V=Offset_H; 
 236:main.c        ****         }
 237:main.c        ****         else{
 238:main.c        ****             Amplitud_V=random_amplitud_1();
 239:main.c        ****             Amplitud_H=0.0;
 240:main.c        ****             Fase=random_Fase();
 241:main.c        ****             Offset_H=0.833;
 242:main.c        ****             Offset_V=0.833+random_Offset();
 243:main.c        ****         }  
 244:main.c        ****         ampli_aux_H_2=Amplitud_H;
 245:main.c        ****         off_aux_H_2=Offset_H;      
 246:main.c        ****         ampli_aux_V_2=Amplitud_V;
 247:main.c        ****         off_aux_V_2=Offset_V;
 248:main.c        ****         pha_aux_2=Fase; 
 249:main.c        ****         Max_Conta=50;
 250:main.c        ****     }
 251:main.c        ****     else if (flag==3){
 252:main.c        ****         Amplitud_V=0.0;
 253:main.c        ****         Amplitud_H=0.0;
ARM GAS  C:\Users\HENRYA~1\AppData\Local\Temp\ccNDVz0o.s 			page 6


 254:main.c        ****         Fase=0.0;
 255:main.c        ****         Offset_V=0.833;
 256:main.c        ****         Offset_H=0.833;
 257:main.c        ****         Max_Conta=5;
 258:main.c        ****     }    
 259:main.c        ****     else if(flag==4){
 260:main.c        ****         //Ingrese su Algoritmo Aqui
 261:main.c        ****         float aleatorio_Simulado=0.0;
 262:main.c        ****         float exponente=0.0;
 263:main.c        ****         L_actual=dist;
 264:main.c        ****         Sigma=L_anterior-L_actual;
 265:main.c        ****         aleatorio_Simulado=randd();
 266:main.c        ****         exponente=exp(Sigma/Periodo);
 267:main.c        ****         if(aleatorio_Simulado<exponente){
 268:main.c        ****             Amplitud_V=ampli_aux_V_2;
 269:main.c        ****             Amplitud_H=ampli_aux_H_2;
 270:main.c        ****             Fase=pha_aux_2;
 271:main.c        ****             Offset_V=off_aux_V_2;
 272:main.c        ****             Offset_H=off_aux_H_2; 
 273:main.c        ****         }
 274:main.c        ****         else{
 275:main.c        ****             Amplitud_V=ampli_aux_V;
 276:main.c        ****             Amplitud_H=ampli_aux_H;
 277:main.c        ****             Fase=pha_aux;
 278:main.c        ****             Offset_V=off_aux_V;
 279:main.c        ****             Offset_H=off_aux_H;         
 280:main.c        ****         }
 281:main.c        ****         if(Periodo==10){Periodo=1;}
 282:main.c        ****         else{Periodo++;}
 283:main.c        ****         L_anterior=L_actual;
 284:main.c        ****         flag=0;
 285:main.c        ****         Max_Conta=50;
 286:main.c        ****         dato_enviado_2[0]=individuo;
 287:main.c        ****         dato_enviado_2[1]=(int)dist;
 288:main.c        ****         CAN_SendMsg3();        
 289:main.c        ****         if(individuo==0){individuo=1;}
 290:main.c        ****         else{individuo=0;}        
 291:main.c        ****         }
 292:main.c        ****     else if(flag>4){flag=0;Max_Conta=5;}  
 293:main.c        **** }
 294:main.c        **** 
 295:main.c        **** //Interrupt's
 296:main.c        **** CY_ISR(Temporizador){
 297:main.c        ****     conta++;
 298:main.c        ****     if(conta==Max_Conta){     
 299:main.c        ****         LED_1_Write(1);
 300:main.c        ****         flag++;      
 301:main.c        ****         Templado();               
 302:main.c        ****         for(int i=0;i<5;i++){
 303:main.c        ****             Enviar_Parametros(Amplitud_H,Fase,Offset_H,H);
 304:main.c        ****             CyDelay(50);
 305:main.c        ****             Enviar_Parametros(Amplitud_V,Fase,Offset_V,V);
 306:main.c        ****             CyDelay(50);
 307:main.c        ****             Send_Angle(0,0);
 308:main.c        ****         }
 309:main.c        ****         conta=0;
 310:main.c        ****     }
ARM GAS  C:\Users\HENRYA~1\AppData\Local\Temp\ccNDVz0o.s 			page 7


 311:main.c        ****     else{
 312:main.c        ****         LED_1_Write(0);
 313:main.c        ****     }  
 314:main.c        **** }
 315:main.c        **** 
 316:main.c        **** CY_ISR(Serial_Interrupt){
  33              		.loc 1 316 0
  34              		.cfi_startproc
  35              		@ args = 0, pretend = 0, frame = 0
  36              		@ frame_needed = 0, uses_anonymous_args = 0
  37 0000 10B5     		push	{r4, lr}
  38              		.cfi_def_cfa_offset 8
  39              		.cfi_offset 4, -8
  40              		.cfi_offset 14, -4
 317:main.c        ****     dist=SENSOR_U_GetChar()/255.0;
  41              		.loc 1 317 0
  42 0002 FFF7FEFF 		bl	SENSOR_U_GetChar
  43              	.LVL0:
  44 0006 FFF7FEFF 		bl	__aeabi_i2d
  45              	.LVL1:
  46 000a 0022     		movs	r2, #0
  47 000c 064B     		ldr	r3, .L2
  48 000e FFF7FEFF 		bl	__aeabi_ddiv
  49              	.LVL2:
  50 0012 FFF7FEFF 		bl	__aeabi_d2f
  51              	.LVL3:
  52 0016 054C     		ldr	r4, .L2+4
 318:main.c        ****     dist=dist+Peso_Sensor;
  53              		.loc 1 318 0
  54 0018 6168     		ldr	r1, [r4, #4]
  55 001a FFF7FEFF 		bl	__aeabi_fadd
  56              	.LVL4:
 319:main.c        ****     dist=dist*100.0;
  57              		.loc 1 319 0
  58 001e 0449     		ldr	r1, .L2+8
  59 0020 FFF7FEFF 		bl	__aeabi_fmul
  60              	.LVL5:
  61 0024 2060     		str	r0, [r4]
 320:main.c        **** }
  62              		.loc 1 320 0
  63              		@ sp needed
  64 0026 10BD     		pop	{r4, pc}
  65              	.L3:
  66              		.align	2
  67              	.L2:
  68 0028 00E06F40 		.word	1081073664
  69 002c 00000000 		.word	.LANCHOR0
  70 0030 0000C842 		.word	1120403456
  71              		.cfi_endproc
  72              	.LFE50:
  73              		.size	Serial_Interrupt, .-Serial_Interrupt
  74              		.global	__aeabi_dmul
  75              		.section	.text.randd,"ax",%progbits
  76              		.align	2
  77              		.global	randd
  78              		.code	16
  79              		.thumb_func
ARM GAS  C:\Users\HENRYA~1\AppData\Local\Temp\ccNDVz0o.s 			page 8


  80              		.type	randd, %function
  81              	randd:
  82              	.LFB37:
  46:main.c        ****   return (double)rand()/((double)RAND_MAX + 1);
  83              		.loc 1 46 0
  84              		.cfi_startproc
  85              		@ args = 0, pretend = 0, frame = 0
  86              		@ frame_needed = 0, uses_anonymous_args = 0
  87 0000 10B5     		push	{r4, lr}
  88              		.cfi_def_cfa_offset 8
  89              		.cfi_offset 4, -8
  90              		.cfi_offset 14, -4
  47:main.c        **** }
  91              		.loc 1 47 0
  92 0002 FFF7FEFF 		bl	rand
  93              	.LVL6:
  94 0006 FFF7FEFF 		bl	__aeabi_i2d
  95              	.LVL7:
  96 000a 0022     		movs	r2, #0
  97 000c F823     		movs	r3, #248
  98 000e 9B05     		lsls	r3, r3, #22
  99 0010 FFF7FEFF 		bl	__aeabi_dmul
 100              	.LVL8:
  48:main.c        **** 
 101              		.loc 1 48 0
 102              		@ sp needed
 103 0014 10BD     		pop	{r4, pc}
 104              		.cfi_endproc
 105              	.LFE37:
 106              		.size	randd, .-randd
 107              		.global	__aeabi_f2d
 108 0016 C046     		.section	.text.random_amplitud_1,"ax",%progbits
 109              		.align	2
 110              		.global	random_amplitud_1
 111              		.code	16
 112              		.thumb_func
 113              		.type	random_amplitud_1, %function
 114              	random_amplitud_1:
 115              	.LFB38:
  50:main.c        ****     float r=0.0;
 116              		.loc 1 50 0
 117              		.cfi_startproc
 118              		@ args = 0, pretend = 0, frame = 0
 119              		@ frame_needed = 0, uses_anonymous_args = 0
 120 0000 10B5     		push	{r4, lr}
 121              		.cfi_def_cfa_offset 8
 122              		.cfi_offset 4, -8
 123              		.cfi_offset 14, -4
 124              	.LVL9:
  52:main.c        ****     return r;
 125              		.loc 1 52 0
 126 0002 FFF7FEFF 		bl	randd
 127              	.LVL10:
 128 0006 FFF7FEFF 		bl	__aeabi_d2f
 129              	.LVL11:
  53:main.c        **** }
 130              		.loc 1 53 0
ARM GAS  C:\Users\HENRYA~1\AppData\Local\Temp\ccNDVz0o.s 			page 9


 131 000a FFF7FEFF 		bl	__aeabi_f2d
 132              	.LVL12:
  54:main.c        **** 
 133              		.loc 1 54 0
 134              		@ sp needed
 135 000e 10BD     		pop	{r4, pc}
 136              		.cfi_endproc
 137              	.LFE38:
 138              		.size	random_amplitud_1, .-random_amplitud_1
 139              		.section	.text.random_amplitud_2,"ax",%progbits
 140              		.align	2
 141              		.global	random_amplitud_2
 142              		.code	16
 143              		.thumb_func
 144              		.type	random_amplitud_2, %function
 145              	random_amplitud_2:
 146              	.LFB39:
  56:main.c        ****     float r=0.0;
 147              		.loc 1 56 0
 148              		.cfi_startproc
 149              		@ args = 0, pretend = 0, frame = 0
 150              		@ frame_needed = 0, uses_anonymous_args = 0
 151 0000 10B5     		push	{r4, lr}
 152              		.cfi_def_cfa_offset 8
 153              		.cfi_offset 4, -8
 154              		.cfi_offset 14, -4
 155              	.LVL13:
  58:main.c        ****     r=r*0.2;
 156              		.loc 1 58 0
 157 0002 FFF7FEFF 		bl	randd
 158              	.LVL14:
 159 0006 FFF7FEFF 		bl	__aeabi_d2f
 160              	.LVL15:
  59:main.c        ****     return r;
 161              		.loc 1 59 0
 162 000a FFF7FEFF 		bl	__aeabi_f2d
 163              	.LVL16:
 164 000e 044A     		ldr	r2, .L7
 165 0010 044B     		ldr	r3, .L7+4
 166 0012 FFF7FEFF 		bl	__aeabi_dmul
 167              	.LVL17:
 168 0016 FFF7FEFF 		bl	__aeabi_d2f
 169              	.LVL18:
  60:main.c        **** }
 170              		.loc 1 60 0
 171 001a FFF7FEFF 		bl	__aeabi_f2d
 172              	.LVL19:
  61:main.c        **** 
 173              		.loc 1 61 0
 174              		@ sp needed
 175 001e 10BD     		pop	{r4, pc}
 176              	.L8:
 177              		.align	2
 178              	.L7:
 179 0020 9A999999 		.word	-1717986918
 180 0024 9999C93F 		.word	1070176665
 181              		.cfi_endproc
ARM GAS  C:\Users\HENRYA~1\AppData\Local\Temp\ccNDVz0o.s 			page 10


 182              	.LFE39:
 183              		.size	random_amplitud_2, .-random_amplitud_2
 184              		.section	.text.random_Fase,"ax",%progbits
 185              		.align	2
 186              		.global	random_Fase
 187              		.code	16
 188              		.thumb_func
 189              		.type	random_Fase, %function
 190              	random_Fase:
 191              	.LFB40:
  63:main.c        ****     float r=0.0;
 192              		.loc 1 63 0
 193              		.cfi_startproc
 194              		@ args = 0, pretend = 0, frame = 0
 195              		@ frame_needed = 0, uses_anonymous_args = 0
 196 0000 10B5     		push	{r4, lr}
 197              		.cfi_def_cfa_offset 8
 198              		.cfi_offset 4, -8
 199              		.cfi_offset 14, -4
 200              	.LVL20:
  65:main.c        ****     return r;
 201              		.loc 1 65 0
 202 0002 FFF7FEFF 		bl	randd
 203              	.LVL21:
 204 0006 044A     		ldr	r2, .L10
 205 0008 044B     		ldr	r3, .L10+4
 206 000a FFF7FEFF 		bl	__aeabi_dmul
 207              	.LVL22:
 208 000e FFF7FEFF 		bl	__aeabi_d2f
 209              	.LVL23:
  66:main.c        **** }
 210              		.loc 1 66 0
 211 0012 FFF7FEFF 		bl	__aeabi_f2d
 212              	.LVL24:
  67:main.c        **** 
 213              		.loc 1 67 0
 214              		@ sp needed
 215 0016 10BD     		pop	{r4, pc}
 216              	.L11:
 217              		.align	2
 218              	.L10:
 219 0018 9A999999 		.word	-1717986918
 220 001c 9999B9BF 		.word	-1078355559
 221              		.cfi_endproc
 222              	.LFE40:
 223              		.size	random_Fase, .-random_Fase
 224              		.global	__aeabi_dadd
 225              		.section	.text.random_Offset,"ax",%progbits
 226              		.align	2
 227              		.global	random_Offset
 228              		.code	16
 229              		.thumb_func
 230              		.type	random_Offset, %function
 231              	random_Offset:
 232              	.LFB41:
  69:main.c        ****     float r=0.0;
 233              		.loc 1 69 0
ARM GAS  C:\Users\HENRYA~1\AppData\Local\Temp\ccNDVz0o.s 			page 11


 234              		.cfi_startproc
 235              		@ args = 0, pretend = 0, frame = 0
 236              		@ frame_needed = 0, uses_anonymous_args = 0
 237 0000 10B5     		push	{r4, lr}
 238              		.cfi_def_cfa_offset 8
 239              		.cfi_offset 4, -8
 240              		.cfi_offset 14, -4
 241              	.LVL25:
  71:main.c        ****     r=r*-0.01;
 242              		.loc 1 71 0
 243 0002 FFF7FEFF 		bl	randd
 244              	.LVL26:
 245 0006 FFF7FEFF 		bl	__aeabi_d2f
 246              	.LVL27:
  72:main.c        ****     r=r+0.02;
 247              		.loc 1 72 0
 248 000a FFF7FEFF 		bl	__aeabi_f2d
 249              	.LVL28:
 250 000e 084A     		ldr	r2, .L13
 251 0010 084B     		ldr	r3, .L13+4
 252 0012 FFF7FEFF 		bl	__aeabi_dmul
 253              	.LVL29:
 254 0016 FFF7FEFF 		bl	__aeabi_d2f
 255              	.LVL30:
  73:main.c        ****     return r;
 256              		.loc 1 73 0
 257 001a FFF7FEFF 		bl	__aeabi_f2d
 258              	.LVL31:
 259 001e 044A     		ldr	r2, .L13
 260 0020 054B     		ldr	r3, .L13+8
 261 0022 FFF7FEFF 		bl	__aeabi_dadd
 262              	.LVL32:
 263 0026 FFF7FEFF 		bl	__aeabi_d2f
 264              	.LVL33:
  74:main.c        **** }
 265              		.loc 1 74 0
 266 002a FFF7FEFF 		bl	__aeabi_f2d
 267              	.LVL34:
  75:main.c        **** 
 268              		.loc 1 75 0
 269              		@ sp needed
 270 002e 10BD     		pop	{r4, pc}
 271              	.L14:
 272              		.align	2
 273              	.L13:
 274 0030 7B14AE47 		.word	1202590843
 275 0034 E17A84BF 		.word	-1081836831
 276 0038 E17A943F 		.word	1066695393
 277              		.cfi_endproc
 278              	.LFE41:
 279              		.size	random_Offset, .-random_Offset
 280              		.section	.text.movimiento,"ax",%progbits
 281              		.align	2
 282              		.global	movimiento
 283              		.code	16
 284              		.thumb_func
 285              		.type	movimiento, %function
ARM GAS  C:\Users\HENRYA~1\AppData\Local\Temp\ccNDVz0o.s 			page 12


 286              	movimiento:
 287              	.LFB42:
  77:main.c        ****     char byteh,bytel;
 288              		.loc 1 77 0
 289              		.cfi_startproc
 290              		@ args = 0, pretend = 0, frame = 0
 291              		@ frame_needed = 0, uses_anonymous_args = 0
 292              	.LVL35:
 293 0000 10B5     		push	{r4, lr}
 294              		.cfi_def_cfa_offset 8
 295              		.cfi_offset 4, -8
 296              		.cfi_offset 14, -4
  79:main.c        ****     bytel=mov;
 297              		.loc 1 79 0
 298 0002 0A12     		asrs	r2, r1, #8
 299              	.LVL36:
  81:main.c        ****     dato_enviado[1]=dirr ;//dir
 300              		.loc 1 81 0
 301 0004 074B     		ldr	r3, .L16
 302 0006 7F24     		movs	r4, #127
 303 0008 1C70     		strb	r4, [r3]
  82:main.c        ****     dato_enviado[2]=ESCRITURA ;//operacion
 304              		.loc 1 82 0
 305 000a 5870     		strb	r0, [r3, #1]
  83:main.c        ****     dato_enviado[3]=MOTOR;//lugar
 306              		.loc 1 83 0
 307 000c 0220     		movs	r0, #2
 308              	.LVL37:
 309 000e 9870     		strb	r0, [r3, #2]
  84:main.c        ****     dato_enviado[4]= byteh ;  //dato
 310              		.loc 1 84 0
 311 0010 0130     		adds	r0, r0, #1
 312 0012 D870     		strb	r0, [r3, #3]
  85:main.c        ****     dato_enviado[5]= bytel ;  //dato
 313              		.loc 1 85 0
 314 0014 1A71     		strb	r2, [r3, #4]
  86:main.c        ****     CAN_SendMsg0(); 
 315              		.loc 1 86 0
 316 0016 5971     		strb	r1, [r3, #5]
  87:main.c        ****     CyDelay(25);    
 317              		.loc 1 87 0
 318 0018 FFF7FEFF 		bl	CAN_SendMsg0
 319              	.LVL38:
  88:main.c        **** }
 320              		.loc 1 88 0
 321 001c 1920     		movs	r0, #25
 322 001e FFF7FEFF 		bl	CyDelay
 323              	.LVL39:
  89:main.c        **** 
 324              		.loc 1 89 0
 325              		@ sp needed
 326 0022 10BD     		pop	{r4, pc}
 327              	.L17:
 328              		.align	2
 329              	.L16:
 330 0024 00000000 		.word	dato_enviado
 331              		.cfi_endproc
ARM GAS  C:\Users\HENRYA~1\AppData\Local\Temp\ccNDVz0o.s 			page 13


 332              	.LFE42:
 333              		.size	movimiento, .-movimiento
 334              		.section	.text.Send_Angle,"ax",%progbits
 335              		.align	2
 336              		.global	Send_Angle
 337              		.code	16
 338              		.thumb_func
 339              		.type	Send_Angle, %function
 340              	Send_Angle:
 341              	.LFB43:
  91:main.c        ****     dato_enviado[0]=VER2;//verificacion
 342              		.loc 1 91 0
 343              		.cfi_startproc
 344              		@ args = 0, pretend = 0, frame = 0
 345              		@ frame_needed = 0, uses_anonymous_args = 0
 346              	.LVL40:
 347 0000 10B5     		push	{r4, lr}
 348              		.cfi_def_cfa_offset 8
 349              		.cfi_offset 4, -8
 350              		.cfi_offset 14, -4
  92:main.c        ****     dato_enviado[1]=Conta3;//dir
 351              		.loc 1 92 0
 352 0002 094B     		ldr	r3, .L19
 353 0004 8022     		movs	r2, #128
 354 0006 1A70     		strb	r2, [r3]
  93:main.c        ****     dato_enviado[2]=Conta3;//dir
 355              		.loc 1 93 0
 356 0008 C9B2     		uxtb	r1, r1
 357              	.LVL41:
 358 000a 5970     		strb	r1, [r3, #1]
  94:main.c        ****     dato_enviado[3]=ANGLE;
 359              		.loc 1 94 0
 360 000c 9970     		strb	r1, [r3, #2]
  95:main.c        ****     dato_enviado[4]=0;//lugar
 361              		.loc 1 95 0
 362 000e 653A     		subs	r2, r2, #101
 363 0010 DA70     		strb	r2, [r3, #3]
  96:main.c        ****     dato_enviado[5]=0;  //dato... en este caso direcion para asignar
 364              		.loc 1 96 0
 365 0012 0022     		movs	r2, #0
 366 0014 1A71     		strb	r2, [r3, #4]
  97:main.c        ****     dato_enviado[6]=datas;
 367              		.loc 1 97 0
 368 0016 5A71     		strb	r2, [r3, #5]
  98:main.c        ****     dato_enviado[7]=Conta3;
 369              		.loc 1 98 0
 370 0018 9871     		strb	r0, [r3, #6]
  99:main.c        ****     CAN_SendMsg0(); 
 371              		.loc 1 99 0
 372 001a D971     		strb	r1, [r3, #7]
 100:main.c        ****     CyDelay(50);
 373              		.loc 1 100 0
 374 001c FFF7FEFF 		bl	CAN_SendMsg0
 375              	.LVL42:
 101:main.c        **** }
 376              		.loc 1 101 0
 377 0020 3220     		movs	r0, #50
ARM GAS  C:\Users\HENRYA~1\AppData\Local\Temp\ccNDVz0o.s 			page 14


 378 0022 FFF7FEFF 		bl	CyDelay
 379              	.LVL43:
 102:main.c        **** 
 380              		.loc 1 102 0
 381              		@ sp needed
 382 0026 10BD     		pop	{r4, pc}
 383              	.L20:
 384              		.align	2
 385              	.L19:
 386 0028 00000000 		.word	dato_enviado
 387              		.cfi_endproc
 388              	.LFE43:
 389              		.size	Send_Angle, .-Send_Angle
 390              		.global	__aeabi_f2iz
 391              		.global	__aeabi_fcmplt
 392              		.section	.text.Enviar_Parametros,"ax",%progbits
 393              		.align	2
 394              		.global	Enviar_Parametros
 395              		.code	16
 396              		.thumb_func
 397              		.type	Enviar_Parametros, %function
 398              	Enviar_Parametros:
 399              	.LFB44:
 104:main.c        ****     //Convertir el Valor a entero para ser enviado
 400              		.loc 1 104 0
 401              		.cfi_startproc
 402              		@ args = 0, pretend = 0, frame = 16
 403              		@ frame_needed = 0, uses_anonymous_args = 0
 404              	.LVL44:
 405 0000 F0B5     		push	{r4, r5, r6, r7, lr}
 406              		.cfi_def_cfa_offset 20
 407              		.cfi_offset 4, -20
 408              		.cfi_offset 5, -16
 409              		.cfi_offset 6, -12
 410              		.cfi_offset 7, -8
 411              		.cfi_offset 14, -4
 412 0002 85B0     		sub	sp, sp, #20
 413              		.cfi_def_cfa_offset 40
 414 0004 0190     		str	r0, [sp, #4]
 415 0006 0291     		str	r1, [sp, #8]
 416 0008 0392     		str	r2, [sp, #12]
 417 000a 1F00     		movs	r7, r3
 106:main.c        ****     int Phase_env=(int)fabs(Phase*10000);
 418              		.loc 1 106 0
 419 000c 2749     		ldr	r1, .L31
 420              	.LVL45:
 421 000e FFF7FEFF 		bl	__aeabi_fmul
 422              	.LVL46:
 423 0012 4000     		lsls	r0, r0, #1
 424 0014 4008     		lsrs	r0, r0, #1
 425 0016 FFF7FEFF 		bl	__aeabi_f2iz
 426              	.LVL47:
 427 001a 0600     		movs	r6, r0
 428              	.LVL48:
 107:main.c        ****     int Offset_env=(int)fabs(Offset*10000);
 429              		.loc 1 107 0
 430 001c 2349     		ldr	r1, .L31
ARM GAS  C:\Users\HENRYA~1\AppData\Local\Temp\ccNDVz0o.s 			page 15


 431 001e 0298     		ldr	r0, [sp, #8]
 432              	.LVL49:
 433 0020 FFF7FEFF 		bl	__aeabi_fmul
 434              	.LVL50:
 435 0024 4000     		lsls	r0, r0, #1
 436 0026 4008     		lsrs	r0, r0, #1
 437 0028 FFF7FEFF 		bl	__aeabi_f2iz
 438              	.LVL51:
 439 002c 0500     		movs	r5, r0
 440              	.LVL52:
 108:main.c        ****     //Enviar datos
 441              		.loc 1 108 0
 442 002e 1F49     		ldr	r1, .L31
 443 0030 0398     		ldr	r0, [sp, #12]
 444              	.LVL53:
 445 0032 FFF7FEFF 		bl	__aeabi_fmul
 446              	.LVL54:
 447 0036 4000     		lsls	r0, r0, #1
 448 0038 4008     		lsrs	r0, r0, #1
 449 003a FFF7FEFF 		bl	__aeabi_f2iz
 450              	.LVL55:
 451 003e 0400     		movs	r4, r0
 452              	.LVL56:
 110:main.c        ****     dato_enviado_1[1]=Orientacion;
 453              		.loc 1 110 0
 454 0040 1B4B     		ldr	r3, .L31+4
 455 0042 8122     		movs	r2, #129
 456 0044 1A70     		strb	r2, [r3]
 111:main.c        ****     //Convertir Amplitud
 457              		.loc 1 111 0
 458 0046 5F70     		strb	r7, [r3, #1]
 113:main.c        ****     uint8 datoH=Amp_env>>8;
 459              		.loc 1 113 0
 460 0048 F7B2     		uxtb	r7, r6
 461              	.LVL57:
 114:main.c        ****     uint8 Aux=0;
 462              		.loc 1 114 0
 463 004a 3612     		asrs	r6, r6, #8
 464              	.LVL58:
 465 004c F6B2     		uxtb	r6, r6
 466              	.LVL59:
 116:main.c        ****         Aux=(1<<7);
 467              		.loc 1 116 0
 468 004e 0021     		movs	r1, #0
 469 0050 0198     		ldr	r0, [sp, #4]
 470              	.LVL60:
 471 0052 FFF7FEFF 		bl	__aeabi_fcmplt
 472              	.LVL61:
 473 0056 0028     		cmp	r0, #0
 474 0058 01D0     		beq	.L22
 475              	.LVL62:
 118:main.c        ****     }
 476              		.loc 1 118 0
 477 005a 803E     		subs	r6, r6, #128
 478              	.LVL63:
 479 005c F6B2     		uxtb	r6, r6
 480              	.LVL64:
ARM GAS  C:\Users\HENRYA~1\AppData\Local\Temp\ccNDVz0o.s 			page 16


 481              	.L22:
 124:main.c        ****     dato_enviado_1[3]=datoH;
 482              		.loc 1 124 0
 483 005e 144B     		ldr	r3, .L31+4
 484 0060 9F70     		strb	r7, [r3, #2]
 125:main.c        ****     //Convertir Fase
 485              		.loc 1 125 0
 486 0062 DE70     		strb	r6, [r3, #3]
 127:main.c        ****     datoH=Phase_env>>8;
 487              		.loc 1 127 0
 488 0064 EEB2     		uxtb	r6, r5
 489              	.LVL65:
 128:main.c        ****     if(Phase<0.0){
 490              		.loc 1 128 0
 491 0066 2D12     		asrs	r5, r5, #8
 492              	.LVL66:
 493 0068 EDB2     		uxtb	r5, r5
 494              	.LVL67:
 129:main.c        ****         Aux=(1<<7);
 495              		.loc 1 129 0
 496 006a 0021     		movs	r1, #0
 497 006c 0298     		ldr	r0, [sp, #8]
 498 006e FFF7FEFF 		bl	__aeabi_fcmplt
 499              	.LVL68:
 500 0072 0028     		cmp	r0, #0
 501 0074 01D0     		beq	.L24
 502              	.LVL69:
 131:main.c        ****     }
 503              		.loc 1 131 0
 504 0076 803D     		subs	r5, r5, #128
 505              	.LVL70:
 506 0078 EDB2     		uxtb	r5, r5
 507              	.LVL71:
 508              	.L24:
 137:main.c        ****     dato_enviado_1[5]=datoH;
 509              		.loc 1 137 0
 510 007a 0D4B     		ldr	r3, .L31+4
 511 007c 1E71     		strb	r6, [r3, #4]
 138:main.c        ****     //Convertir Offset
 512              		.loc 1 138 0
 513 007e 5D71     		strb	r5, [r3, #5]
 140:main.c        ****     datoH=Offset_env>>8;
 514              		.loc 1 140 0
 515 0080 E5B2     		uxtb	r5, r4
 516              	.LVL72:
 141:main.c        ****     if(Offset<0.0){
 517              		.loc 1 141 0
 518 0082 2412     		asrs	r4, r4, #8
 519              	.LVL73:
 520 0084 E4B2     		uxtb	r4, r4
 521              	.LVL74:
 142:main.c        ****         Aux=(1<<7);
 522              		.loc 1 142 0
 523 0086 0021     		movs	r1, #0
 524 0088 0398     		ldr	r0, [sp, #12]
 525 008a FFF7FEFF 		bl	__aeabi_fcmplt
 526              	.LVL75:
ARM GAS  C:\Users\HENRYA~1\AppData\Local\Temp\ccNDVz0o.s 			page 17


 527 008e 0028     		cmp	r0, #0
 528 0090 01D0     		beq	.L26
 529              	.LVL76:
 144:main.c        ****     }
 530              		.loc 1 144 0
 531 0092 803C     		subs	r4, r4, #128
 532              	.LVL77:
 533 0094 E4B2     		uxtb	r4, r4
 534              	.LVL78:
 535              	.L26:
 150:main.c        ****     dato_enviado_1[7]=datoH;    
 536              		.loc 1 150 0
 537 0096 064B     		ldr	r3, .L31+4
 538 0098 9D71     		strb	r5, [r3, #6]
 151:main.c        ****     CAN_SendMsg1();
 539              		.loc 1 151 0
 540 009a DC71     		strb	r4, [r3, #7]
 152:main.c        ****     CyDelay(25);
 541              		.loc 1 152 0
 542 009c FFF7FEFF 		bl	CAN_SendMsg1
 543              	.LVL79:
 153:main.c        **** }
 544              		.loc 1 153 0
 545 00a0 1920     		movs	r0, #25
 546 00a2 FFF7FEFF 		bl	CyDelay
 547              	.LVL80:
 154:main.c        **** 
 548              		.loc 1 154 0
 549 00a6 05B0     		add	sp, sp, #20
 550              		@ sp needed
 551              	.LVL81:
 552              	.LVL82:
 553 00a8 F0BD     		pop	{r4, r5, r6, r7, pc}
 554              	.L32:
 555 00aa C046     		.align	2
 556              	.L31:
 557 00ac 00401C46 		.word	1176256512
 558 00b0 00000000 		.word	dato_enviado_1
 559              		.cfi_endproc
 560              	.LFE44:
 561              		.size	Enviar_Parametros, .-Enviar_Parametros
 562              		.section	.text.Recibe_mail_0,"ax",%progbits
 563              		.align	2
 564              		.global	Recibe_mail_0
 565              		.code	16
 566              		.thumb_func
 567              		.type	Recibe_mail_0, %function
 568              	Recibe_mail_0:
 569              	.LFB45:
 156:main.c        **** if(mailbox0[0]==VER){
 570              		.loc 1 156 0
 571              		.cfi_startproc
 572              		@ args = 0, pretend = 0, frame = 0
 573              		@ frame_needed = 0, uses_anonymous_args = 0
 574 0000 70B5     		push	{r4, r5, r6, lr}
 575              		.cfi_def_cfa_offset 16
 576              		.cfi_offset 4, -16
ARM GAS  C:\Users\HENRYA~1\AppData\Local\Temp\ccNDVz0o.s 			page 18


 577              		.cfi_offset 5, -12
 578              		.cfi_offset 6, -8
 579              		.cfi_offset 14, -4
 157:main.c        ****             switch(mailbox0[2]){
 580              		.loc 1 157 0
 581 0002 1A4B     		ldr	r3, .L39
 582 0004 1B78     		ldrb	r3, [r3]
 583 0006 7F2B     		cmp	r3, #127
 584 0008 0BD1     		bne	.L34
 158:main.c        ****             ///////////////////////////////////////////////////////
 585              		.loc 1 158 0
 586 000a 184A     		ldr	r2, .L39
 587 000c 9278     		ldrb	r2, [r2, #2]
 588 000e 022A     		cmp	r2, #2
 589 0010 07D1     		bne	.L34
 161:main.c        ****                     case CANTIDAD_MOD: 
 590              		.loc 1 161 0
 591 0012 164A     		ldr	r2, .L39
 592 0014 D278     		ldrb	r2, [r2, #3]
 593 0016 2B2A     		cmp	r2, #43
 594 0018 03D1     		bne	.L34
 163:main.c        ****                     break;
 595              		.loc 1 163 0
 596 001a 144A     		ldr	r2, .L39
 597 001c 1179     		ldrb	r1, [r2, #4]
 598 001e 144A     		ldr	r2, .L39+4
 599 0020 9160     		str	r1, [r2, #8]
 600              	.L34:
 172:main.c        ****                 switch(mailbox0[3]){
 601              		.loc 1 172 0
 602 0022 802B     		cmp	r3, #128
 603 0024 21D1     		bne	.L33
 173:main.c        ****                 ///////////////////////////////////////////////////////
 604              		.loc 1 173 0
 605 0026 114B     		ldr	r3, .L39
 606 0028 DB78     		ldrb	r3, [r3, #3]
 607 002a 1B2B     		cmp	r3, #27
 608 002c 1DD1     		bne	.L33
 609              	.LBB2:
 176:main.c        ****                     if(Contador>=cantidadM){
 610              		.loc 1 176 0
 611 002e 0F4B     		ldr	r3, .L39
 612 0030 DA79     		ldrb	r2, [r3, #7]
 613              	.LVL83:
 177:main.c        ****                             Enviar_Parametros(Amplitud_H,Fase,Offset_H,H);
 614              		.loc 1 177 0
 615 0032 0F4B     		ldr	r3, .L39+4
 616 0034 9B68     		ldr	r3, [r3, #8]
 617 0036 9A42     		cmp	r2, r3
 618 0038 17DB     		blt	.L33
 178:main.c        ****                             CyDelay(50);
 619              		.loc 1 178 0
 620 003a 0E4D     		ldr	r5, .L39+8
 621 003c 0C4C     		ldr	r4, .L39+4
 622 003e 2023     		movs	r3, #32
 623 0040 2A68     		ldr	r2, [r5]
 624              	.LVL84:
ARM GAS  C:\Users\HENRYA~1\AppData\Local\Temp\ccNDVz0o.s 			page 19


 625 0042 E168     		ldr	r1, [r4, #12]
 626 0044 2069     		ldr	r0, [r4, #16]
 627 0046 FFF7FEFF 		bl	Enviar_Parametros
 628              	.LVL85:
 179:main.c        ****                             Enviar_Parametros(Amplitud_V,Fase,Offset_V,V);
 629              		.loc 1 179 0
 630 004a 3220     		movs	r0, #50
 631 004c FFF7FEFF 		bl	CyDelay
 632              	.LVL86:
 180:main.c        ****                             CyDelay(50); 
 633              		.loc 1 180 0
 634 0050 6A68     		ldr	r2, [r5, #4]
 635 0052 E168     		ldr	r1, [r4, #12]
 636 0054 6069     		ldr	r0, [r4, #20]
 637 0056 2123     		movs	r3, #33
 638 0058 FFF7FEFF 		bl	Enviar_Parametros
 639              	.LVL87:
 181:main.c        ****                             Send_Angle(0,0);
 640              		.loc 1 181 0
 641 005c 3220     		movs	r0, #50
 642 005e FFF7FEFF 		bl	CyDelay
 643              	.LVL88:
 182:main.c        ****                     } 
 644              		.loc 1 182 0
 645 0062 0021     		movs	r1, #0
 646 0064 0020     		movs	r0, #0
 647 0066 FFF7FEFF 		bl	Send_Angle
 648              	.LVL89:
 649              	.L33:
 650              	.LBE2:
 187:main.c        **** 
 651              		.loc 1 187 0
 652              		@ sp needed
 653 006a 70BD     		pop	{r4, r5, r6, pc}
 654              	.L40:
 655              		.align	2
 656              	.L39:
 657 006c 00000000 		.word	mailbox0
 658 0070 00000000 		.word	.LANCHOR0
 659 0074 00000000 		.word	.LANCHOR1
 660              		.cfi_endproc
 661              	.LFE45:
 662              		.size	Recibe_mail_0, .-Recibe_mail_0
 663              		.section	.text.Recibe_Mail_2,"ax",%progbits
 664              		.align	2
 665              		.global	Recibe_Mail_2
 666              		.code	16
 667              		.thumb_func
 668              		.type	Recibe_Mail_2, %function
 669              	Recibe_Mail_2:
 670              	.LFB46:
 189:main.c        ****     if(mailbox2[0]==SENSORES){
 671              		.loc 1 189 0
 672              		.cfi_startproc
 673              		@ args = 0, pretend = 0, frame = 0
 674              		@ frame_needed = 0, uses_anonymous_args = 0
 675              		@ link register save eliminated.
ARM GAS  C:\Users\HENRYA~1\AppData\Local\Temp\ccNDVz0o.s 			page 20


 190:main.c        ****         //Mailbox2[1] Derecha
 676              		.loc 1 190 0
 677 0000 3D4B     		ldr	r3, .L51
 678 0002 1B78     		ldrb	r3, [r3]
 679 0004 822B     		cmp	r3, #130
 680 0006 75D1     		bne	.L41
 194:main.c        ****         else if(mailbox2[1]==0&&mailbox2[2]==0&&mailbox2[3]==1) {Peso_Sensor=0.2;}   //Izquierda
 681              		.loc 1 194 0
 682 0008 3B4B     		ldr	r3, .L51
 683 000a 5B78     		ldrb	r3, [r3, #1]
 684 000c 002B     		cmp	r3, #0
 685 000e 0BD1     		bne	.L43
 194:main.c        ****         else if(mailbox2[1]==0&&mailbox2[2]==0&&mailbox2[3]==1) {Peso_Sensor=0.2;}   //Izquierda
 686              		.loc 1 194 0 is_stmt 0 discriminator 1
 687 0010 394A     		ldr	r2, .L51
 688 0012 9278     		ldrb	r2, [r2, #2]
 689 0014 002A     		cmp	r2, #0
 690 0016 07D1     		bne	.L43
 194:main.c        ****         else if(mailbox2[1]==0&&mailbox2[2]==0&&mailbox2[3]==1) {Peso_Sensor=0.2;}   //Izquierda
 691              		.loc 1 194 0 discriminator 2
 692 0018 374A     		ldr	r2, .L51
 693 001a D278     		ldrb	r2, [r2, #3]
 694 001c 002A     		cmp	r2, #0
 695 001e 03D1     		bne	.L43
 194:main.c        ****         else if(mailbox2[1]==0&&mailbox2[2]==0&&mailbox2[3]==1) {Peso_Sensor=0.2;}   //Izquierda
 696              		.loc 1 194 0 discriminator 3
 697 0020 0022     		movs	r2, #0
 698 0022 364B     		ldr	r3, .L51+4
 699 0024 5A60     		str	r2, [r3, #4]
 700 0026 65E0     		b	.L41
 701              	.L43:
 195:main.c        ****         else if(mailbox2[1]==0&&mailbox2[2]==1&&mailbox2[3]==0) {Peso_Sensor=0.6;}   //Frontal
 702              		.loc 1 195 0 is_stmt 1
 703 0028 002B     		cmp	r3, #0
 704 002a 0BD1     		bne	.L44
 195:main.c        ****         else if(mailbox2[1]==0&&mailbox2[2]==1&&mailbox2[3]==0) {Peso_Sensor=0.6;}   //Frontal
 705              		.loc 1 195 0 is_stmt 0 discriminator 1
 706 002c 324A     		ldr	r2, .L51
 707 002e 9278     		ldrb	r2, [r2, #2]
 708 0030 002A     		cmp	r2, #0
 709 0032 07D1     		bne	.L44
 195:main.c        ****         else if(mailbox2[1]==0&&mailbox2[2]==1&&mailbox2[3]==0) {Peso_Sensor=0.6;}   //Frontal
 710              		.loc 1 195 0 discriminator 2
 711 0034 304A     		ldr	r2, .L51
 712 0036 D278     		ldrb	r2, [r2, #3]
 713 0038 012A     		cmp	r2, #1
 714 003a 03D1     		bne	.L44
 195:main.c        ****         else if(mailbox2[1]==0&&mailbox2[2]==1&&mailbox2[3]==0) {Peso_Sensor=0.6;}   //Frontal
 715              		.loc 1 195 0 discriminator 3
 716 003c 304A     		ldr	r2, .L51+8
 717 003e 2F4B     		ldr	r3, .L51+4
 718 0040 5A60     		str	r2, [r3, #4]
 719 0042 57E0     		b	.L41
 720              	.L44:
 196:main.c        ****         else if(mailbox2[1]==0&&mailbox2[2]==1&&mailbox2[3]==1) {Peso_Sensor=0.8;}   //Frontal e Iz
 721              		.loc 1 196 0 is_stmt 1
 722 0044 002B     		cmp	r3, #0
ARM GAS  C:\Users\HENRYA~1\AppData\Local\Temp\ccNDVz0o.s 			page 21


 723 0046 0BD1     		bne	.L45
 196:main.c        ****         else if(mailbox2[1]==0&&mailbox2[2]==1&&mailbox2[3]==1) {Peso_Sensor=0.8;}   //Frontal e Iz
 724              		.loc 1 196 0 is_stmt 0 discriminator 1
 725 0048 2B4A     		ldr	r2, .L51
 726 004a 9278     		ldrb	r2, [r2, #2]
 727 004c 012A     		cmp	r2, #1
 728 004e 07D1     		bne	.L45
 196:main.c        ****         else if(mailbox2[1]==0&&mailbox2[2]==1&&mailbox2[3]==1) {Peso_Sensor=0.8;}   //Frontal e Iz
 729              		.loc 1 196 0 discriminator 2
 730 0050 294A     		ldr	r2, .L51
 731 0052 D278     		ldrb	r2, [r2, #3]
 732 0054 002A     		cmp	r2, #0
 733 0056 03D1     		bne	.L45
 196:main.c        ****         else if(mailbox2[1]==0&&mailbox2[2]==1&&mailbox2[3]==1) {Peso_Sensor=0.8;}   //Frontal e Iz
 734              		.loc 1 196 0 discriminator 3
 735 0058 2A4A     		ldr	r2, .L51+12
 736 005a 284B     		ldr	r3, .L51+4
 737 005c 5A60     		str	r2, [r3, #4]
 738 005e 49E0     		b	.L41
 739              	.L45:
 197:main.c        ****         else if(mailbox2[1]==1&&mailbox2[2]==0&&mailbox2[3]==0) {Peso_Sensor=0.2;}   //Derecha
 740              		.loc 1 197 0 is_stmt 1
 741 0060 002B     		cmp	r3, #0
 742 0062 0BD1     		bne	.L46
 197:main.c        ****         else if(mailbox2[1]==1&&mailbox2[2]==0&&mailbox2[3]==0) {Peso_Sensor=0.2;}   //Derecha
 743              		.loc 1 197 0 is_stmt 0 discriminator 1
 744 0064 244A     		ldr	r2, .L51
 745 0066 9278     		ldrb	r2, [r2, #2]
 746 0068 012A     		cmp	r2, #1
 747 006a 07D1     		bne	.L46
 197:main.c        ****         else if(mailbox2[1]==1&&mailbox2[2]==0&&mailbox2[3]==0) {Peso_Sensor=0.2;}   //Derecha
 748              		.loc 1 197 0 discriminator 2
 749 006c 224A     		ldr	r2, .L51
 750 006e D278     		ldrb	r2, [r2, #3]
 751 0070 012A     		cmp	r2, #1
 752 0072 03D1     		bne	.L46
 197:main.c        ****         else if(mailbox2[1]==1&&mailbox2[2]==0&&mailbox2[3]==0) {Peso_Sensor=0.2;}   //Derecha
 753              		.loc 1 197 0 discriminator 3
 754 0074 244A     		ldr	r2, .L51+16
 755 0076 214B     		ldr	r3, .L51+4
 756 0078 5A60     		str	r2, [r3, #4]
 757 007a 3BE0     		b	.L41
 758              	.L46:
 198:main.c        ****         else if(mailbox2[1]==1&&mailbox2[2]==0&&mailbox2[3]==1) {Peso_Sensor=0.4;}   //Derecha e Iz
 759              		.loc 1 198 0 is_stmt 1
 760 007c 012B     		cmp	r3, #1
 761 007e 0BD1     		bne	.L47
 198:main.c        ****         else if(mailbox2[1]==1&&mailbox2[2]==0&&mailbox2[3]==1) {Peso_Sensor=0.4;}   //Derecha e Iz
 762              		.loc 1 198 0 is_stmt 0 discriminator 1
 763 0080 1D4A     		ldr	r2, .L51
 764 0082 9278     		ldrb	r2, [r2, #2]
 765 0084 002A     		cmp	r2, #0
 766 0086 07D1     		bne	.L47
 198:main.c        ****         else if(mailbox2[1]==1&&mailbox2[2]==0&&mailbox2[3]==1) {Peso_Sensor=0.4;}   //Derecha e Iz
 767              		.loc 1 198 0 discriminator 2
 768 0088 1B4A     		ldr	r2, .L51
 769 008a D278     		ldrb	r2, [r2, #3]
ARM GAS  C:\Users\HENRYA~1\AppData\Local\Temp\ccNDVz0o.s 			page 22


 770 008c 002A     		cmp	r2, #0
 771 008e 03D1     		bne	.L47
 198:main.c        ****         else if(mailbox2[1]==1&&mailbox2[2]==0&&mailbox2[3]==1) {Peso_Sensor=0.4;}   //Derecha e Iz
 772              		.loc 1 198 0 discriminator 3
 773 0090 1B4A     		ldr	r2, .L51+8
 774 0092 1A4B     		ldr	r3, .L51+4
 775 0094 5A60     		str	r2, [r3, #4]
 776 0096 2DE0     		b	.L41
 777              	.L47:
 199:main.c        ****         else if(mailbox2[1]==1&&mailbox2[2]==1&&mailbox2[3]==0) {Peso_Sensor=0.8;}   //Frontal y De
 778              		.loc 1 199 0 is_stmt 1
 779 0098 012B     		cmp	r3, #1
 780 009a 0BD1     		bne	.L48
 199:main.c        ****         else if(mailbox2[1]==1&&mailbox2[2]==1&&mailbox2[3]==0) {Peso_Sensor=0.8;}   //Frontal y De
 781              		.loc 1 199 0 is_stmt 0 discriminator 1
 782 009c 164A     		ldr	r2, .L51
 783 009e 9278     		ldrb	r2, [r2, #2]
 784 00a0 002A     		cmp	r2, #0
 785 00a2 07D1     		bne	.L48
 199:main.c        ****         else if(mailbox2[1]==1&&mailbox2[2]==1&&mailbox2[3]==0) {Peso_Sensor=0.8;}   //Frontal y De
 786              		.loc 1 199 0 discriminator 2
 787 00a4 144A     		ldr	r2, .L51
 788 00a6 D278     		ldrb	r2, [r2, #3]
 789 00a8 012A     		cmp	r2, #1
 790 00aa 03D1     		bne	.L48
 199:main.c        ****         else if(mailbox2[1]==1&&mailbox2[2]==1&&mailbox2[3]==0) {Peso_Sensor=0.8;}   //Frontal y De
 791              		.loc 1 199 0 discriminator 3
 792 00ac 174A     		ldr	r2, .L51+20
 793 00ae 134B     		ldr	r3, .L51+4
 794 00b0 5A60     		str	r2, [r3, #4]
 795 00b2 1FE0     		b	.L41
 796              	.L48:
 200:main.c        ****         else if(mailbox2[1]==1&&mailbox2[2]==1&&mailbox2[3]==1) {Peso_Sensor=1;}     //Todos
 797              		.loc 1 200 0 is_stmt 1
 798 00b4 012B     		cmp	r3, #1
 799 00b6 0BD1     		bne	.L49
 200:main.c        ****         else if(mailbox2[1]==1&&mailbox2[2]==1&&mailbox2[3]==1) {Peso_Sensor=1;}     //Todos
 800              		.loc 1 200 0 is_stmt 0 discriminator 1
 801 00b8 0F4A     		ldr	r2, .L51
 802 00ba 9278     		ldrb	r2, [r2, #2]
 803 00bc 012A     		cmp	r2, #1
 804 00be 07D1     		bne	.L49
 200:main.c        ****         else if(mailbox2[1]==1&&mailbox2[2]==1&&mailbox2[3]==1) {Peso_Sensor=1;}     //Todos
 805              		.loc 1 200 0 discriminator 2
 806 00c0 0D4A     		ldr	r2, .L51
 807 00c2 D278     		ldrb	r2, [r2, #3]
 808 00c4 002A     		cmp	r2, #0
 809 00c6 03D1     		bne	.L49
 200:main.c        ****         else if(mailbox2[1]==1&&mailbox2[2]==1&&mailbox2[3]==1) {Peso_Sensor=1;}     //Todos
 810              		.loc 1 200 0 discriminator 3
 811 00c8 0F4A     		ldr	r2, .L51+16
 812 00ca 0C4B     		ldr	r3, .L51+4
 813 00cc 5A60     		str	r2, [r3, #4]
 814 00ce 11E0     		b	.L41
 815              	.L49:
 201:main.c        ****         else                                                    {Peso_Sensor=0.0;}   //Normal
 816              		.loc 1 201 0 is_stmt 1
ARM GAS  C:\Users\HENRYA~1\AppData\Local\Temp\ccNDVz0o.s 			page 23


 817 00d0 012B     		cmp	r3, #1
 818 00d2 0CD1     		bne	.L50
 201:main.c        ****         else                                                    {Peso_Sensor=0.0;}   //Normal
 819              		.loc 1 201 0 is_stmt 0 discriminator 1
 820 00d4 084B     		ldr	r3, .L51
 821 00d6 9B78     		ldrb	r3, [r3, #2]
 822 00d8 012B     		cmp	r3, #1
 823 00da 08D1     		bne	.L50
 201:main.c        ****         else                                                    {Peso_Sensor=0.0;}   //Normal
 824              		.loc 1 201 0 discriminator 2
 825 00dc 064B     		ldr	r3, .L51
 826 00de DB78     		ldrb	r3, [r3, #3]
 827 00e0 012B     		cmp	r3, #1
 828 00e2 04D1     		bne	.L50
 201:main.c        ****         else                                                    {Peso_Sensor=0.0;}   //Normal
 829              		.loc 1 201 0 discriminator 3
 830 00e4 FE22     		movs	r2, #254
 831 00e6 9205     		lsls	r2, r2, #22
 832 00e8 044B     		ldr	r3, .L51+4
 833 00ea 5A60     		str	r2, [r3, #4]
 834 00ec 02E0     		b	.L41
 835              	.L50:
 202:main.c        ****     }
 836              		.loc 1 202 0 is_stmt 1
 837 00ee 0022     		movs	r2, #0
 838 00f0 024B     		ldr	r3, .L51+4
 839 00f2 5A60     		str	r2, [r3, #4]
 840              	.L41:
 204:main.c        **** 
 841              		.loc 1 204 0
 842              		@ sp needed
 843 00f4 7047     		bx	lr
 844              	.L52:
 845 00f6 C046     		.align	2
 846              	.L51:
 847 00f8 00000000 		.word	mailbox2
 848 00fc 00000000 		.word	.LANCHOR0
 849 0100 CDCC4C3E 		.word	1045220557
 850 0104 9A99193F 		.word	1058642330
 851 0108 CDCC4C3F 		.word	1061997773
 852 010c CDCCCC3E 		.word	1053609165
 853              		.cfi_endproc
 854              	.LFE46:
 855              		.size	Recibe_Mail_2, .-Recibe_Mail_2
 856              		.section	.text.interrutcan,"ax",%progbits
 857              		.align	2
 858              		.global	interrutcan
 859              		.code	16
 860              		.thumb_func
 861              		.type	interrutcan, %function
 862              	interrutcan:
 863              	.LFB47:
 206:main.c        ****     CAN_GlobalIntDisable();
 864              		.loc 1 206 0
 865              		.cfi_startproc
 866              		@ args = 0, pretend = 0, frame = 0
 867              		@ frame_needed = 0, uses_anonymous_args = 0
ARM GAS  C:\Users\HENRYA~1\AppData\Local\Temp\ccNDVz0o.s 			page 24


 868 0000 10B5     		push	{r4, lr}
 869              		.cfi_def_cfa_offset 8
 870              		.cfi_offset 4, -8
 871              		.cfi_offset 14, -4
 207:main.c        ****     CAN_MsgRXIsr();  
 872              		.loc 1 207 0
 873 0002 FFF7FEFF 		bl	CAN_GlobalIntDisable
 874              	.LVL90:
 208:main.c        ****     Recibe_mail_0();
 875              		.loc 1 208 0
 876 0006 FFF7FEFF 		bl	CAN_MsgRXIsr
 877              	.LVL91:
 209:main.c        ****     Recibe_Mail_2();
 878              		.loc 1 209 0
 879 000a FFF7FEFF 		bl	Recibe_mail_0
 880              	.LVL92:
 210:main.c        ****     CAN_GlobalIntEnable();
 881              		.loc 1 210 0
 882 000e FFF7FEFF 		bl	Recibe_Mail_2
 883              	.LVL93:
 211:main.c        **** }
 884              		.loc 1 211 0
 885 0012 FFF7FEFF 		bl	CAN_GlobalIntEnable
 886              	.LVL94:
 212:main.c        **** 
 887              		.loc 1 212 0
 888              		@ sp needed
 889 0016 10BD     		pop	{r4, pc}
 890              		.cfi_endproc
 891              	.LFE47:
 892              		.size	interrutcan, .-interrutcan
 893              		.global	__aeabi_dcmplt
 894              		.global	__aeabi_fsub
 895              		.global	__aeabi_i2f
 896              		.global	__aeabi_fdiv
 897              		.section	.text.Templado,"ax",%progbits
 898              		.align	2
 899              		.global	Templado
 900              		.code	16
 901              		.thumb_func
 902              		.type	Templado, %function
 903              	Templado:
 904              	.LFB48:
 214:main.c        ****     if (flag==1){
 905              		.loc 1 214 0
 906              		.cfi_startproc
 907              		@ args = 0, pretend = 0, frame = 0
 908              		@ frame_needed = 0, uses_anonymous_args = 0
 909 0000 70B5     		push	{r4, r5, r6, lr}
 910              		.cfi_def_cfa_offset 16
 911              		.cfi_offset 4, -16
 912              		.cfi_offset 5, -12
 913              		.cfi_offset 6, -8
 914              		.cfi_offset 14, -4
 215:main.c        ****         ampli_aux_V=Amplitud_V;
 915              		.loc 1 215 0
 916 0002 734B     		ldr	r3, .L73
ARM GAS  C:\Users\HENRYA~1\AppData\Local\Temp\ccNDVz0o.s 			page 25


 917 0004 9B69     		ldr	r3, [r3, #24]
 918 0006 012B     		cmp	r3, #1
 919 0008 15D1     		bne	.L55
 216:main.c        ****         ampli_aux_H=Amplitud_H;
 920              		.loc 1 216 0
 921 000a 714B     		ldr	r3, .L73
 922 000c 5A69     		ldr	r2, [r3, #20]
 923 000e DA61     		str	r2, [r3, #28]
 217:main.c        ****         pha_aux=Fase;
 924              		.loc 1 217 0
 925 0010 1A69     		ldr	r2, [r3, #16]
 926 0012 1A62     		str	r2, [r3, #32]
 218:main.c        ****         off_aux_V=Offset_V;
 927              		.loc 1 218 0
 928 0014 DA68     		ldr	r2, [r3, #12]
 929 0016 5A62     		str	r2, [r3, #36]
 219:main.c        ****         off_aux_H=Offset_H;      
 930              		.loc 1 219 0
 931 0018 6E4A     		ldr	r2, .L73+4
 932 001a 5168     		ldr	r1, [r2, #4]
 933 001c 9160     		str	r1, [r2, #8]
 220:main.c        ****         Amplitud_V=0.0;
 934              		.loc 1 220 0
 935 001e 1168     		ldr	r1, [r2]
 936 0020 D160     		str	r1, [r2, #12]
 221:main.c        ****         Amplitud_H=0.0;
 937              		.loc 1 221 0
 938 0022 0021     		movs	r1, #0
 939 0024 5961     		str	r1, [r3, #20]
 222:main.c        ****         Fase=0.0;
 940              		.loc 1 222 0
 941 0026 1961     		str	r1, [r3, #16]
 223:main.c        ****         Offset_V=0.833;
 942              		.loc 1 223 0
 943 0028 D960     		str	r1, [r3, #12]
 224:main.c        ****         Offset_H=0.833;
 944              		.loc 1 224 0
 945 002a 6B4B     		ldr	r3, .L73+8
 946 002c 5360     		str	r3, [r2, #4]
 225:main.c        ****         Max_Conta=5;
 947              		.loc 1 225 0
 948 002e 1360     		str	r3, [r2]
 226:main.c        ****         }
 949              		.loc 1 226 0
 950 0030 0523     		movs	r3, #5
 951 0032 1361     		str	r3, [r2, #16]
 952 0034 CBE0     		b	.L54
 953              	.L55:
 228:main.c        ****         L_anterior=dist;
 954              		.loc 1 228 0
 955 0036 022B     		cmp	r3, #2
 956 0038 4ED1     		bne	.L57
 229:main.c        ****         if(randd()<0.5){
 957              		.loc 1 229 0
 958 003a 654B     		ldr	r3, .L73
 959 003c 1A68     		ldr	r2, [r3]
 960 003e 9A62     		str	r2, [r3, #40]
ARM GAS  C:\Users\HENRYA~1\AppData\Local\Temp\ccNDVz0o.s 			page 26


 230:main.c        ****             Amplitud_H=random_amplitud_1();
 961              		.loc 1 230 0
 962 0040 FFF7FEFF 		bl	randd
 963              	.LVL95:
 964 0044 0022     		movs	r2, #0
 965 0046 654B     		ldr	r3, .L73+12
 966 0048 FFF7FEFF 		bl	__aeabi_dcmplt
 967              	.LVL96:
 968 004c 0028     		cmp	r0, #0
 969 004e 1BD0     		beq	.L71
 231:main.c        ****             Amplitud_V=random_amplitud_2();
 970              		.loc 1 231 0
 971 0050 FFF7FEFF 		bl	random_amplitud_1
 972              	.LVL97:
 973 0054 5E4C     		ldr	r4, .L73
 974 0056 FFF7FEFF 		bl	__aeabi_d2f
 975              	.LVL98:
 976 005a 2061     		str	r0, [r4, #16]
 232:main.c        ****             Fase=random_Fase();
 977              		.loc 1 232 0
 978 005c FFF7FEFF 		bl	random_amplitud_2
 979              	.LVL99:
 980 0060 FFF7FEFF 		bl	__aeabi_d2f
 981              	.LVL100:
 982 0064 6061     		str	r0, [r4, #20]
 233:main.c        ****             Offset_H=0.833+random_Offset();
 983              		.loc 1 233 0
 984 0066 FFF7FEFF 		bl	random_Fase
 985              	.LVL101:
 986 006a FFF7FEFF 		bl	__aeabi_d2f
 987              	.LVL102:
 988 006e E060     		str	r0, [r4, #12]
 234:main.c        ****             Offset_V=Offset_H; 
 989              		.loc 1 234 0
 990 0070 FFF7FEFF 		bl	random_Offset
 991              	.LVL103:
 992 0074 5A4A     		ldr	r2, .L73+16
 993 0076 5B4B     		ldr	r3, .L73+20
 994 0078 FFF7FEFF 		bl	__aeabi_dadd
 995              	.LVL104:
 996 007c FFF7FEFF 		bl	__aeabi_d2f
 997              	.LVL105:
 998 0080 544B     		ldr	r3, .L73+4
 999 0082 1860     		str	r0, [r3]
 235:main.c        ****         }
 1000              		.loc 1 235 0
 1001 0084 5860     		str	r0, [r3, #4]
 1002 0086 18E0     		b	.L60
 1003              	.L71:
 238:main.c        ****             Amplitud_H=0.0;
 1004              		.loc 1 238 0
 1005 0088 FFF7FEFF 		bl	random_amplitud_1
 1006              	.LVL106:
 1007 008c 504C     		ldr	r4, .L73
 1008 008e FFF7FEFF 		bl	__aeabi_d2f
 1009              	.LVL107:
 1010 0092 6061     		str	r0, [r4, #20]
ARM GAS  C:\Users\HENRYA~1\AppData\Local\Temp\ccNDVz0o.s 			page 27


 239:main.c        ****             Fase=random_Fase();
 1011              		.loc 1 239 0
 1012 0094 0023     		movs	r3, #0
 1013 0096 2361     		str	r3, [r4, #16]
 240:main.c        ****             Offset_H=0.833;
 1014              		.loc 1 240 0
 1015 0098 FFF7FEFF 		bl	random_Fase
 1016              	.LVL108:
 1017 009c FFF7FEFF 		bl	__aeabi_d2f
 1018              	.LVL109:
 1019 00a0 E060     		str	r0, [r4, #12]
 241:main.c        ****             Offset_V=0.833+random_Offset();
 1020              		.loc 1 241 0
 1021 00a2 4C4C     		ldr	r4, .L73+4
 1022 00a4 4C4B     		ldr	r3, .L73+8
 1023 00a6 2360     		str	r3, [r4]
 242:main.c        ****         }  
 1024              		.loc 1 242 0
 1025 00a8 FFF7FEFF 		bl	random_Offset
 1026              	.LVL110:
 1027 00ac 4C4A     		ldr	r2, .L73+16
 1028 00ae 4D4B     		ldr	r3, .L73+20
 1029 00b0 FFF7FEFF 		bl	__aeabi_dadd
 1030              	.LVL111:
 1031 00b4 FFF7FEFF 		bl	__aeabi_d2f
 1032              	.LVL112:
 1033 00b8 6060     		str	r0, [r4, #4]
 1034              	.L60:
 244:main.c        ****         off_aux_H_2=Offset_H;      
 1035              		.loc 1 244 0
 1036 00ba 454B     		ldr	r3, .L73
 1037 00bc 1A69     		ldr	r2, [r3, #16]
 1038 00be DA62     		str	r2, [r3, #44]
 245:main.c        ****         ampli_aux_V_2=Amplitud_V;
 1039              		.loc 1 245 0
 1040 00c0 444A     		ldr	r2, .L73+4
 1041 00c2 1168     		ldr	r1, [r2]
 1042 00c4 5161     		str	r1, [r2, #20]
 246:main.c        ****         off_aux_V_2=Offset_V;
 1043              		.loc 1 246 0
 1044 00c6 5969     		ldr	r1, [r3, #20]
 1045 00c8 1963     		str	r1, [r3, #48]
 247:main.c        ****         pha_aux_2=Fase; 
 1046              		.loc 1 247 0
 1047 00ca 5168     		ldr	r1, [r2, #4]
 1048 00cc 9161     		str	r1, [r2, #24]
 248:main.c        ****         Max_Conta=50;
 1049              		.loc 1 248 0
 1050 00ce D968     		ldr	r1, [r3, #12]
 1051 00d0 5963     		str	r1, [r3, #52]
 249:main.c        ****     }
 1052              		.loc 1 249 0
 1053 00d2 3223     		movs	r3, #50
 1054 00d4 1361     		str	r3, [r2, #16]
 1055 00d6 7AE0     		b	.L54
 1056              	.L57:
 251:main.c        ****         Amplitud_V=0.0;
ARM GAS  C:\Users\HENRYA~1\AppData\Local\Temp\ccNDVz0o.s 			page 28


 1057              		.loc 1 251 0
 1058 00d8 032B     		cmp	r3, #3
 1059 00da 0BD1     		bne	.L61
 252:main.c        ****         Amplitud_H=0.0;
 1060              		.loc 1 252 0
 1061 00dc 3C4B     		ldr	r3, .L73
 1062 00de 0022     		movs	r2, #0
 1063 00e0 5A61     		str	r2, [r3, #20]
 253:main.c        ****         Fase=0.0;
 1064              		.loc 1 253 0
 1065 00e2 1A61     		str	r2, [r3, #16]
 254:main.c        ****         Offset_V=0.833;
 1066              		.loc 1 254 0
 1067 00e4 DA60     		str	r2, [r3, #12]
 255:main.c        ****         Offset_H=0.833;
 1068              		.loc 1 255 0
 1069 00e6 3B4B     		ldr	r3, .L73+4
 1070 00e8 3B4A     		ldr	r2, .L73+8
 1071 00ea 5A60     		str	r2, [r3, #4]
 256:main.c        ****         Max_Conta=5;
 1072              		.loc 1 256 0
 1073 00ec 1A60     		str	r2, [r3]
 257:main.c        ****     }    
 1074              		.loc 1 257 0
 1075 00ee 0522     		movs	r2, #5
 1076 00f0 1A61     		str	r2, [r3, #16]
 1077 00f2 6CE0     		b	.L54
 1078              	.L61:
 259:main.c        ****         //Ingrese su Algoritmo Aqui
 1079              		.loc 1 259 0
 1080 00f4 042B     		cmp	r3, #4
 1081 00f6 62D1     		bne	.L62
 1082              	.LVL113:
 1083              	.LBB3:
 263:main.c        ****         Sigma=L_anterior-L_actual;
 1084              		.loc 1 263 0
 1085 00f8 354C     		ldr	r4, .L73
 1086 00fa 2368     		ldr	r3, [r4]
 1087 00fc A363     		str	r3, [r4, #56]
 264:main.c        ****         aleatorio_Simulado=randd();
 1088              		.loc 1 264 0
 1089 00fe 191C     		adds	r1, r3, #0
 1090 0100 A06A     		ldr	r0, [r4, #40]
 1091 0102 FFF7FEFF 		bl	__aeabi_fsub
 1092              	.LVL114:
 1093 0106 E063     		str	r0, [r4, #60]
 265:main.c        ****         exponente=exp(Sigma/Periodo);
 1094              		.loc 1 265 0
 1095 0108 FFF7FEFF 		bl	randd
 1096              	.LVL115:
 1097 010c FFF7FEFF 		bl	__aeabi_d2f
 1098              	.LVL116:
 1099 0110 051C     		adds	r5, r0, #0
 1100              	.LVL117:
 266:main.c        ****         if(aleatorio_Simulado<exponente){
 1101              		.loc 1 266 0
 1102 0112 304B     		ldr	r3, .L73+4
ARM GAS  C:\Users\HENRYA~1\AppData\Local\Temp\ccNDVz0o.s 			page 29


 1103 0114 1C20     		movs	r0, #28
 1104 0116 185E     		ldrsh	r0, [r3, r0]
 1105              	.LVL118:
 1106 0118 FFF7FEFF 		bl	__aeabi_i2f
 1107              	.LVL119:
 1108 011c 011C     		adds	r1, r0, #0
 1109 011e E06B     		ldr	r0, [r4, #60]
 1110 0120 FFF7FEFF 		bl	__aeabi_fdiv
 1111              	.LVL120:
 1112 0124 FFF7FEFF 		bl	__aeabi_f2d
 1113              	.LVL121:
 1114 0128 FFF7FEFF 		bl	exp
 1115              	.LVL122:
 1116 012c FFF7FEFF 		bl	__aeabi_d2f
 1117              	.LVL123:
 1118 0130 011C     		adds	r1, r0, #0
 1119              	.LVL124:
 267:main.c        ****             Amplitud_V=ampli_aux_V_2;
 1120              		.loc 1 267 0
 1121 0132 281C     		adds	r0, r5, #0
 1122              	.LVL125:
 1123 0134 FFF7FEFF 		bl	__aeabi_fcmplt
 1124              	.LVL126:
 1125 0138 0028     		cmp	r0, #0
 1126 013a 0CD0     		beq	.L72
 268:main.c        ****             Amplitud_H=ampli_aux_H_2;
 1127              		.loc 1 268 0
 1128 013c 244B     		ldr	r3, .L73
 1129 013e 1A6B     		ldr	r2, [r3, #48]
 1130 0140 5A61     		str	r2, [r3, #20]
 269:main.c        ****             Fase=pha_aux_2;
 1131              		.loc 1 269 0
 1132 0142 DA6A     		ldr	r2, [r3, #44]
 1133 0144 1A61     		str	r2, [r3, #16]
 270:main.c        ****             Offset_V=off_aux_V_2;
 1134              		.loc 1 270 0
 1135 0146 5A6B     		ldr	r2, [r3, #52]
 1136 0148 DA60     		str	r2, [r3, #12]
 271:main.c        ****             Offset_H=off_aux_H_2; 
 1137              		.loc 1 271 0
 1138 014a 224B     		ldr	r3, .L73+4
 1139 014c 9A69     		ldr	r2, [r3, #24]
 1140 014e 5A60     		str	r2, [r3, #4]
 272:main.c        ****         }
 1141              		.loc 1 272 0
 1142 0150 5A69     		ldr	r2, [r3, #20]
 1143 0152 1A60     		str	r2, [r3]
 1144 0154 0BE0     		b	.L65
 1145              	.L72:
 275:main.c        ****             Amplitud_H=ampli_aux_H;
 1146              		.loc 1 275 0
 1147 0156 1E4B     		ldr	r3, .L73
 1148 0158 DA69     		ldr	r2, [r3, #28]
 1149 015a 5A61     		str	r2, [r3, #20]
 276:main.c        ****             Fase=pha_aux;
 1150              		.loc 1 276 0
 1151 015c 1A6A     		ldr	r2, [r3, #32]
ARM GAS  C:\Users\HENRYA~1\AppData\Local\Temp\ccNDVz0o.s 			page 30


 1152 015e 1A61     		str	r2, [r3, #16]
 277:main.c        ****             Offset_V=off_aux_V;
 1153              		.loc 1 277 0
 1154 0160 5A6A     		ldr	r2, [r3, #36]
 1155 0162 DA60     		str	r2, [r3, #12]
 278:main.c        ****             Offset_H=off_aux_H;         
 1156              		.loc 1 278 0
 1157 0164 1B4B     		ldr	r3, .L73+4
 1158 0166 9A68     		ldr	r2, [r3, #8]
 1159 0168 5A60     		str	r2, [r3, #4]
 279:main.c        ****         }
 1160              		.loc 1 279 0
 1161 016a DA68     		ldr	r2, [r3, #12]
 1162 016c 1A60     		str	r2, [r3]
 1163              	.L65:
 281:main.c        ****         else{Periodo++;}
 1164              		.loc 1 281 0
 1165 016e 194B     		ldr	r3, .L73+4
 1166 0170 1C22     		movs	r2, #28
 1167 0172 9B5E     		ldrsh	r3, [r3, r2]
 1168 0174 0A2B     		cmp	r3, #10
 1169 0176 03D1     		bne	.L66
 281:main.c        ****         else{Periodo++;}
 1170              		.loc 1 281 0 is_stmt 0 discriminator 1
 1171 0178 0122     		movs	r2, #1
 1172 017a 164B     		ldr	r3, .L73+4
 1173 017c 9A83     		strh	r2, [r3, #28]
 1174 017e 02E0     		b	.L67
 1175              	.L66:
 282:main.c        ****         L_anterior=L_actual;
 1176              		.loc 1 282 0 is_stmt 1
 1177 0180 0133     		adds	r3, r3, #1
 1178 0182 144A     		ldr	r2, .L73+4
 1179 0184 9383     		strh	r3, [r2, #28]
 1180              	.L67:
 283:main.c        ****         flag=0;
 1181              		.loc 1 283 0
 1182 0186 124C     		ldr	r4, .L73
 1183 0188 A36B     		ldr	r3, [r4, #56]
 1184 018a A362     		str	r3, [r4, #40]
 284:main.c        ****         Max_Conta=50;
 1185              		.loc 1 284 0
 1186 018c 0023     		movs	r3, #0
 1187 018e A361     		str	r3, [r4, #24]
 285:main.c        ****         dato_enviado_2[0]=individuo;
 1188              		.loc 1 285 0
 1189 0190 3222     		movs	r2, #50
 1190 0192 104B     		ldr	r3, .L73+4
 1191 0194 1A61     		str	r2, [r3, #16]
 286:main.c        ****         dato_enviado_2[1]=(int)dist;
 1192              		.loc 1 286 0
 1193 0196 144D     		ldr	r5, .L73+24
 1194              	.LVL127:
 1195 0198 236C     		ldr	r3, [r4, #64]
 1196 019a 2B70     		strb	r3, [r5]
 287:main.c        ****         CAN_SendMsg3();        
 1197              		.loc 1 287 0
ARM GAS  C:\Users\HENRYA~1\AppData\Local\Temp\ccNDVz0o.s 			page 31


 1198 019c 2068     		ldr	r0, [r4]
 1199 019e FFF7FEFF 		bl	__aeabi_f2iz
 1200              	.LVL128:
 1201 01a2 6870     		strb	r0, [r5, #1]
 288:main.c        ****         if(individuo==0){individuo=1;}
 1202              		.loc 1 288 0
 1203 01a4 FFF7FEFF 		bl	CAN_SendMsg3
 1204              	.LVL129:
 289:main.c        ****         else{individuo=0;}        
 1205              		.loc 1 289 0
 1206 01a8 236C     		ldr	r3, [r4, #64]
 1207 01aa 002B     		cmp	r3, #0
 1208 01ac 03D1     		bne	.L68
 289:main.c        ****         else{individuo=0;}        
 1209              		.loc 1 289 0 is_stmt 0 discriminator 1
 1210 01ae 0122     		movs	r2, #1
 1211 01b0 074B     		ldr	r3, .L73
 1212 01b2 1A64     		str	r2, [r3, #64]
 1213 01b4 0BE0     		b	.L54
 1214              	.L68:
 290:main.c        ****         }
 1215              		.loc 1 290 0 is_stmt 1
 1216 01b6 0022     		movs	r2, #0
 1217 01b8 054B     		ldr	r3, .L73
 1218 01ba 1A64     		str	r2, [r3, #64]
 1219 01bc 07E0     		b	.L54
 1220              	.L62:
 1221              	.LBE3:
 292:main.c        **** }
 1222              		.loc 1 292 0
 1223 01be 042B     		cmp	r3, #4
 1224 01c0 05DD     		ble	.L54
 292:main.c        **** }
 1225              		.loc 1 292 0 is_stmt 0 discriminator 1
 1226 01c2 0022     		movs	r2, #0
 1227 01c4 024B     		ldr	r3, .L73
 1228 01c6 9A61     		str	r2, [r3, #24]
 1229 01c8 0532     		adds	r2, r2, #5
 1230 01ca 024B     		ldr	r3, .L73+4
 1231 01cc 1A61     		str	r2, [r3, #16]
 1232              	.L54:
 293:main.c        **** 
 1233              		.loc 1 293 0 is_stmt 1
 1234              		@ sp needed
 1235 01ce 70BD     		pop	{r4, r5, r6, pc}
 1236              	.L74:
 1237              		.align	2
 1238              	.L73:
 1239 01d0 00000000 		.word	.LANCHOR0
 1240 01d4 00000000 		.word	.LANCHOR1
 1241 01d8 7D3F553F 		.word	1062551421
 1242 01dc 0000E03F 		.word	1071644672
 1243 01e0 0E2DB29D 		.word	-1649267442
 1244 01e4 EFA7EA3F 		.word	1072343023
 1245 01e8 00000000 		.word	dato_enviado_2
 1246              		.cfi_endproc
 1247              	.LFE48:
ARM GAS  C:\Users\HENRYA~1\AppData\Local\Temp\ccNDVz0o.s 			page 32


 1248              		.size	Templado, .-Templado
 1249              		.section	.text.Temporizador,"ax",%progbits
 1250              		.align	2
 1251              		.global	Temporizador
 1252              		.code	16
 1253              		.thumb_func
 1254              		.type	Temporizador, %function
 1255              	Temporizador:
 1256              	.LFB49:
 296:main.c        ****     conta++;
 1257              		.loc 1 296 0
 1258              		.cfi_startproc
 1259              		@ args = 0, pretend = 0, frame = 0
 1260              		@ frame_needed = 0, uses_anonymous_args = 0
 1261 0000 70B5     		push	{r4, r5, r6, lr}
 1262              		.cfi_def_cfa_offset 16
 1263              		.cfi_offset 4, -16
 1264              		.cfi_offset 5, -12
 1265              		.cfi_offset 6, -8
 1266              		.cfi_offset 14, -4
 297:main.c        ****     if(conta==Max_Conta){     
 1267              		.loc 1 297 0
 1268 0002 1C49     		ldr	r1, .L80
 1269 0004 4422     		movs	r2, #68
 1270 0006 8B5A     		ldrh	r3, [r1, r2]
 1271 0008 0133     		adds	r3, r3, #1
 1272 000a 1BB2     		sxth	r3, r3
 1273 000c 8B52     		strh	r3, [r1, r2]
 298:main.c        ****         LED_1_Write(1);
 1274              		.loc 1 298 0
 1275 000e 1A4A     		ldr	r2, .L80+4
 1276 0010 1269     		ldr	r2, [r2, #16]
 1277 0012 9342     		cmp	r3, r2
 1278 0014 2AD1     		bne	.L76
 299:main.c        ****         flag++;      
 1279              		.loc 1 299 0
 1280 0016 0120     		movs	r0, #1
 1281 0018 FFF7FEFF 		bl	LED_1_Write
 1282              	.LVL130:
 300:main.c        ****         Templado();               
 1283              		.loc 1 300 0
 1284 001c 154A     		ldr	r2, .L80
 1285 001e 9369     		ldr	r3, [r2, #24]
 1286 0020 0133     		adds	r3, r3, #1
 1287 0022 9361     		str	r3, [r2, #24]
 301:main.c        ****         for(int i=0;i<5;i++){
 1288              		.loc 1 301 0
 1289 0024 FFF7FEFF 		bl	Templado
 1290              	.LVL131:
 1291              	.LBB4:
 302:main.c        ****             Enviar_Parametros(Amplitud_H,Fase,Offset_H,H);
 1292              		.loc 1 302 0
 1293 0028 0025     		movs	r5, #0
 1294 002a 18E0     		b	.L77
 1295              	.LVL132:
 1296              	.L78:
 303:main.c        ****             CyDelay(50);
ARM GAS  C:\Users\HENRYA~1\AppData\Local\Temp\ccNDVz0o.s 			page 33


 1297              		.loc 1 303 0 discriminator 3
 1298 002c 124E     		ldr	r6, .L80+4
 1299 002e 114C     		ldr	r4, .L80
 1300 0030 2023     		movs	r3, #32
 1301 0032 3268     		ldr	r2, [r6]
 1302 0034 E168     		ldr	r1, [r4, #12]
 1303 0036 2069     		ldr	r0, [r4, #16]
 1304 0038 FFF7FEFF 		bl	Enviar_Parametros
 1305              	.LVL133:
 304:main.c        ****             Enviar_Parametros(Amplitud_V,Fase,Offset_V,V);
 1306              		.loc 1 304 0 discriminator 3
 1307 003c 3220     		movs	r0, #50
 1308 003e FFF7FEFF 		bl	CyDelay
 1309              	.LVL134:
 305:main.c        ****             CyDelay(50);
 1310              		.loc 1 305 0 discriminator 3
 1311 0042 7268     		ldr	r2, [r6, #4]
 1312 0044 E168     		ldr	r1, [r4, #12]
 1313 0046 6069     		ldr	r0, [r4, #20]
 1314 0048 2123     		movs	r3, #33
 1315 004a FFF7FEFF 		bl	Enviar_Parametros
 1316              	.LVL135:
 306:main.c        ****             Send_Angle(0,0);
 1317              		.loc 1 306 0 discriminator 3
 1318 004e 3220     		movs	r0, #50
 1319 0050 FFF7FEFF 		bl	CyDelay
 1320              	.LVL136:
 307:main.c        ****         }
 1321              		.loc 1 307 0 discriminator 3
 1322 0054 0021     		movs	r1, #0
 1323 0056 0020     		movs	r0, #0
 1324 0058 FFF7FEFF 		bl	Send_Angle
 1325              	.LVL137:
 302:main.c        ****             Enviar_Parametros(Amplitud_H,Fase,Offset_H,H);
 1326              		.loc 1 302 0 discriminator 3
 1327 005c 0135     		adds	r5, r5, #1
 1328              	.LVL138:
 1329              	.L77:
 302:main.c        ****             Enviar_Parametros(Amplitud_H,Fase,Offset_H,H);
 1330              		.loc 1 302 0 is_stmt 0 discriminator 1
 1331 005e 042D     		cmp	r5, #4
 1332 0060 E4DD     		ble	.L78
 1333              	.LBE4:
 309:main.c        ****     }
 1334              		.loc 1 309 0 is_stmt 1
 1335 0062 0021     		movs	r1, #0
 1336 0064 4423     		movs	r3, #68
 1337 0066 034A     		ldr	r2, .L80
 1338 0068 D152     		strh	r1, [r2, r3]
 1339 006a 02E0     		b	.L75
 1340              	.LVL139:
 1341              	.L76:
 312:main.c        ****     }  
 1342              		.loc 1 312 0
 1343 006c 0020     		movs	r0, #0
 1344 006e FFF7FEFF 		bl	LED_1_Write
 1345              	.LVL140:
ARM GAS  C:\Users\HENRYA~1\AppData\Local\Temp\ccNDVz0o.s 			page 34


 1346              	.L75:
 314:main.c        **** 
 1347              		.loc 1 314 0
 1348              		@ sp needed
 1349 0072 70BD     		pop	{r4, r5, r6, pc}
 1350              	.L81:
 1351              		.align	2
 1352              	.L80:
 1353 0074 00000000 		.word	.LANCHOR0
 1354 0078 00000000 		.word	.LANCHOR1
 1355              		.cfi_endproc
 1356              	.LFE49:
 1357              		.size	Temporizador, .-Temporizador
 1358              		.section	.text.main,"ax",%progbits
 1359              		.align	2
 1360              		.global	main
 1361              		.code	16
 1362              		.thumb_func
 1363              		.type	main, %function
 1364              	main:
 1365              	.LFB51:
 321:main.c        **** 
 322:main.c        **** int main()
 323:main.c        **** {
 1366              		.loc 1 323 0
 1367              		.cfi_startproc
 1368              		@ Volatile: function does not return.
 1369              		@ args = 0, pretend = 0, frame = 0
 1370              		@ frame_needed = 0, uses_anonymous_args = 0
 1371 0000 10B5     		push	{r4, lr}
 1372              		.cfi_def_cfa_offset 8
 1373              		.cfi_offset 4, -8
 1374              		.cfi_offset 14, -4
 324:main.c        ****     //Init LED's
 325:main.c        ****     CAN_Start(); ///  start CAN
 1375              		.loc 1 325 0
 1376 0002 FFF7FEFF 		bl	CAN_Start
 1377              	.LVL141:
 326:main.c        ****     Timer_1_Start();
 1378              		.loc 1 326 0
 1379 0006 FFF7FEFF 		bl	Timer_1_Start
 1380              	.LVL142:
 327:main.c        ****     Timer_Start();
 1381              		.loc 1 327 0
 1382 000a FFF7FEFF 		bl	Timer_Start
 1383              	.LVL143:
 328:main.c        ****     SENSOR_U_Start();
 1384              		.loc 1 328 0
 1385 000e FFF7FEFF 		bl	SENSOR_U_Start
 1386              	.LVL144:
 329:main.c        ****     CAN_isr_StartEx(interrutcan);
 1387              		.loc 1 329 0
 1388 0012 0648     		ldr	r0, .L84
 1389 0014 FFF7FEFF 		bl	CAN_isr_StartEx
 1390              	.LVL145:
 330:main.c        ****     CAN_GlobalIntEnable();
 1391              		.loc 1 330 0
ARM GAS  C:\Users\HENRYA~1\AppData\Local\Temp\ccNDVz0o.s 			page 35


 1392 0018 FFF7FEFF 		bl	CAN_GlobalIntEnable
 1393              	.LVL146:
 331:main.c        ****     Int_Serial_StartEx(Serial_Interrupt);
 1394              		.loc 1 331 0
 1395 001c 0448     		ldr	r0, .L84+4
 1396 001e FFF7FEFF 		bl	Int_Serial_StartEx
 1397              	.LVL147:
 332:main.c        ****     Timer_StartEx(Temporizador);
 1398              		.loc 1 332 0
 1399 0022 0448     		ldr	r0, .L84+8
 1400 0024 FFF7FEFF 		bl	Timer_StartEx
 1401              	.LVL148:
 333:main.c        ****     CyGlobalIntEnable;
 1402              		.loc 1 333 0
 1403              		.syntax divided
 1404              	@ 333 "main.c" 1
 1405 0028 62B6     		CPSIE   i
 1406              	@ 0 "" 2
 1407              		.thumb
 1408              		.syntax unified
 1409              	.L83:
 1410 002a FEE7     		b	.L83
 1411              	.L85:
 1412              		.align	2
 1413              	.L84:
 1414 002c 00000000 		.word	interrutcan
 1415 0030 00000000 		.word	Serial_Interrupt
 1416 0034 00000000 		.word	Temporizador
 1417              		.cfi_endproc
 1418              	.LFE51:
 1419              		.size	main, .-main
 1420              		.global	Periodo
 1421              		.global	Sigma
 1422              		.global	individuo
 1423              		.global	move_s
 1424              		.global	punto_b
 1425              		.global	punto_a
 1426              		.global	L_anterior
 1427              		.global	L_actual
 1428              		.global	dist
 1429              		.global	flag
 1430              		.global	Peso_Sensor
 1431              		.global	off_aux_H_2
 1432              		.global	ampli_aux_H_2
 1433              		.global	pha_aux_2
 1434              		.global	off_aux_V_2
 1435              		.global	ampli_aux_V_2
 1436              		.global	pha_aux
 1437              		.global	off_aux_H
 1438              		.global	off_aux_V
 1439              		.global	ampli_aux_H
 1440              		.global	ampli_aux_V
 1441              		.global	Fase
 1442              		.global	Offset_V
 1443              		.global	Offset_H
 1444              		.global	Amplitud_V
 1445              		.global	Amplitud_H
ARM GAS  C:\Users\HENRYA~1\AppData\Local\Temp\ccNDVz0o.s 			page 36


 1446              		.global	Max_Conta
 1447              		.global	Cantidad_Sensores
 1448              		.global	cantidadM
 1449              		.global	conta
 1450              		.comm	dato_enviado_2,8,4
 1451              		.comm	dato_enviado_1,8,4
 1452              		.comm	dato_enviado,8,4
 1453              		.comm	mailbox2,8,4
 1454              		.comm	mailbox1,8,4
 1455              		.comm	mailbox0,8,4
 1456              		.data
 1457              		.align	2
 1458              		.set	.LANCHOR1,. + 0
 1459              		.type	Offset_H, %object
 1460              		.size	Offset_H, 4
 1461              	Offset_H:
 1462 0000 7D3F553F 		.word	1062551421
 1463              		.type	Offset_V, %object
 1464              		.size	Offset_V, 4
 1465              	Offset_V:
 1466 0004 7D3F553F 		.word	1062551421
 1467              		.type	off_aux_V, %object
 1468              		.size	off_aux_V, 4
 1469              	off_aux_V:
 1470 0008 7D3F553F 		.word	1062551421
 1471              		.type	off_aux_H, %object
 1472              		.size	off_aux_H, 4
 1473              	off_aux_H:
 1474 000c 7D3F553F 		.word	1062551421
 1475              		.type	Max_Conta, %object
 1476              		.size	Max_Conta, 4
 1477              	Max_Conta:
 1478 0010 96000000 		.word	150
 1479              		.type	off_aux_H_2, %object
 1480              		.size	off_aux_H_2, 4
 1481              	off_aux_H_2:
 1482 0014 7D3F553F 		.word	1062551421
 1483              		.type	off_aux_V_2, %object
 1484              		.size	off_aux_V_2, 4
 1485              	off_aux_V_2:
 1486 0018 7D3F553F 		.word	1062551421
 1487              		.type	Periodo, %object
 1488              		.size	Periodo, 2
 1489              	Periodo:
 1490 001c 0100     		.short	1
 1491              		.bss
 1492              		.align	2
 1493              		.set	.LANCHOR0,. + 0
 1494              		.type	dist, %object
 1495              		.size	dist, 4
 1496              	dist:
 1497 0000 00000000 		.space	4
 1498              		.type	Peso_Sensor, %object
 1499              		.size	Peso_Sensor, 4
 1500              	Peso_Sensor:
 1501 0004 00000000 		.space	4
 1502              		.type	cantidadM, %object
ARM GAS  C:\Users\HENRYA~1\AppData\Local\Temp\ccNDVz0o.s 			page 37


 1503              		.size	cantidadM, 4
 1504              	cantidadM:
 1505 0008 00000000 		.space	4
 1506              		.type	Fase, %object
 1507              		.size	Fase, 4
 1508              	Fase:
 1509 000c 00000000 		.space	4
 1510              		.type	Amplitud_H, %object
 1511              		.size	Amplitud_H, 4
 1512              	Amplitud_H:
 1513 0010 00000000 		.space	4
 1514              		.type	Amplitud_V, %object
 1515              		.size	Amplitud_V, 4
 1516              	Amplitud_V:
 1517 0014 00000000 		.space	4
 1518              		.type	flag, %object
 1519              		.size	flag, 4
 1520              	flag:
 1521 0018 00000000 		.space	4
 1522              		.type	ampli_aux_V, %object
 1523              		.size	ampli_aux_V, 4
 1524              	ampli_aux_V:
 1525 001c 00000000 		.space	4
 1526              		.type	ampli_aux_H, %object
 1527              		.size	ampli_aux_H, 4
 1528              	ampli_aux_H:
 1529 0020 00000000 		.space	4
 1530              		.type	pha_aux, %object
 1531              		.size	pha_aux, 4
 1532              	pha_aux:
 1533 0024 00000000 		.space	4
 1534              		.type	L_anterior, %object
 1535              		.size	L_anterior, 4
 1536              	L_anterior:
 1537 0028 00000000 		.space	4
 1538              		.type	ampli_aux_H_2, %object
 1539              		.size	ampli_aux_H_2, 4
 1540              	ampli_aux_H_2:
 1541 002c 00000000 		.space	4
 1542              		.type	ampli_aux_V_2, %object
 1543              		.size	ampli_aux_V_2, 4
 1544              	ampli_aux_V_2:
 1545 0030 00000000 		.space	4
 1546              		.type	pha_aux_2, %object
 1547              		.size	pha_aux_2, 4
 1548              	pha_aux_2:
 1549 0034 00000000 		.space	4
 1550              		.type	L_actual, %object
 1551              		.size	L_actual, 4
 1552              	L_actual:
 1553 0038 00000000 		.space	4
 1554              		.type	Sigma, %object
 1555              		.size	Sigma, 4
 1556              	Sigma:
 1557 003c 00000000 		.space	4
 1558              		.type	individuo, %object
 1559              		.size	individuo, 4
ARM GAS  C:\Users\HENRYA~1\AppData\Local\Temp\ccNDVz0o.s 			page 38


 1560              	individuo:
 1561 0040 00000000 		.space	4
 1562              		.type	conta, %object
 1563              		.size	conta, 2
 1564              	conta:
 1565 0044 0000     		.space	2
 1566 0046 0000     		.space	2
 1567              		.type	move_s, %object
 1568              		.size	move_s, 4
 1569              	move_s:
 1570 0048 00000000 		.space	4
 1571              		.type	punto_b, %object
 1572              		.size	punto_b, 4
 1573              	punto_b:
 1574 004c 00000000 		.space	4
 1575              		.type	punto_a, %object
 1576              		.size	punto_a, 4
 1577              	punto_a:
 1578 0050 00000000 		.space	4
 1579              		.type	Cantidad_Sensores, %object
 1580              		.size	Cantidad_Sensores, 4
 1581              	Cantidad_Sensores:
 1582 0054 00000000 		.space	4
 1583              		.text
 1584              	.Letext0:
 1585              		.file 2 "Generated_Source\\PSoC4/cytypes.h"
 1586              		.file 3 "Generated_Source\\PSoC4/SENSOR_U.h"
 1587              		.file 4 "c:\\program files (x86)\\cypress\\psoc creator\\4.1\\psoc creator\\import\\gnu\\arm\\5.4.
 1588              		.file 5 "Generated_Source\\PSoC4/CAN.h"
 1589              		.file 6 "Generated_Source\\PSoC4/CyLib.h"
 1590              		.file 7 "Generated_Source\\PSoC4/LED_1.h"
 1591              		.file 8 "Generated_Source\\PSoC4/Timer_1.h"
 1592              		.file 9 "Generated_Source\\PSoC4/Timer.h"
 1593              		.file 10 "Generated_Source\\PSoC4/CAN_isr.h"
 1594              		.file 11 "Generated_Source\\PSoC4/Int_Serial.h"
 1595              		.file 12 "c:\\program files (x86)\\cypress\\psoc creator\\4.1\\psoc creator\\import\\gnu\\arm\\5.4